ARM GAS  /var/folders/qh/xwg3v3kj02qbxczjpdb8lzfr0000gn/T//cceOnol9.s 			page 1


   1              		.cpu cortex-m0
   2              		.fpu softvfp
   3              		.eabi_attribute 20, 1
   4              		.eabi_attribute 21, 1
   5              		.eabi_attribute 23, 3
   6              		.eabi_attribute 24, 1
   7              		.eabi_attribute 25, 1
   8              		.eabi_attribute 26, 1
   9              		.eabi_attribute 30, 2
  10              		.eabi_attribute 34, 0
  11              		.eabi_attribute 18, 4
  12              		.code	16
  13              		.file	"adc.c"
  14              		.text
  15              	.Ltext0:
  16              		.cfi_sections	.debug_frame
  17              		.section	.text.adcInit,"ax",%progbits
  18              		.align	2
  19              		.p2align 4,,15
  20              		.global	adcInit
  21              		.code	16
  22              		.thumb_func
  23              		.type	adcInit, %function
  24              	adcInit:
  25              	.LFB40:
  26              		.file 1 "../../os/hal/src/adc.c"
  27              		.loc 1 61 0
  28              		.cfi_startproc
  29 0000 08B5     		push	{r3, lr}
  30              		.cfi_def_cfa_offset 8
  31              		.cfi_offset 3, -8
  32              		.cfi_offset 14, -4
  33              		.loc 1 63 0
  34 0002 FFF7FEFF 		bl	adc_lld_init
  35              	.LVL0:
  36              		.loc 1 64 0
  37              		@ sp needed
  38 0006 08BD     		pop	{r3, pc}
  39              		.cfi_endproc
  40              	.LFE40:
  41              		.size	adcInit, .-adcInit
  42 0008 C046C046 		.section	.text.adcObjectInit,"ax",%progbits
  42      C046C046 
  43              		.align	2
  44              		.p2align 4,,15
  45              		.global	adcObjectInit
  46              		.code	16
  47              		.thumb_func
  48              		.type	adcObjectInit, %function
  49              	adcObjectInit:
  50              	.LFB41:
  51              		.loc 1 73 0
  52              		.cfi_startproc
  53              	.LVL1:
  54 0000 08B5     		push	{r3, lr}
  55              		.cfi_def_cfa_offset 8
  56              		.cfi_offset 3, -8
ARM GAS  /var/folders/qh/xwg3v3kj02qbxczjpdb8lzfr0000gn/T//cceOnol9.s 			page 2


  57              		.cfi_offset 14, -4
  58              		.loc 1 75 0
  59 0002 0123     		mov	r3, #1
  60 0004 0370     		strb	r3, [r0]
  61              		.loc 1 76 0
  62 0006 0023     		mov	r3, #0
  63 0008 4360     		str	r3, [r0, #4]
  64              		.loc 1 77 0
  65 000a 8360     		str	r3, [r0, #8]
  66              		.loc 1 78 0
  67 000c C360     		str	r3, [r0, #12]
  68              		.loc 1 79 0
  69 000e 0361     		str	r3, [r0, #16]
  70              		.loc 1 81 0
  71 0010 4361     		str	r3, [r0, #20]
  72              		.loc 1 85 0
  73 0012 1830     		add	r0, r0, #24
  74              	.LVL2:
  75 0014 FFF7FEFF 		bl	chMtxInit
  76              	.LVL3:
  77              		.loc 1 93 0
  78              		@ sp needed
  79 0018 08BD     		pop	{r3, pc}
  80              		.cfi_endproc
  81              	.LFE41:
  82              		.size	adcObjectInit, .-adcObjectInit
  83 001a C046C046 		.section	.text.adcStart,"ax",%progbits
  83      C046
  84              		.align	2
  85              		.p2align 4,,15
  86              		.global	adcStart
  87              		.code	16
  88              		.thumb_func
  89              		.type	adcStart, %function
  90              	adcStart:
  91              	.LFB42:
  92              		.loc 1 104 0
  93              		.cfi_startproc
  94              	.LVL4:
  95 0000 38B5     		push	{r3, r4, r5, lr}
  96              		.cfi_def_cfa_offset 16
  97              		.cfi_offset 3, -16
  98              		.cfi_offset 4, -12
  99              		.cfi_offset 5, -8
 100              		.cfi_offset 14, -4
 101              		.loc 1 104 0
 102 0002 041C     		mov	r4, r0
 103 0004 0D1C     		mov	r5, r1
 104              		.loc 1 108 0
 105              	@ 108 "../../os/hal/src/adc.c" 1
 106 0006 72B6     		cpsid   i
 107              	@ 0 "" 2
 108              		.code	16
 109 0008 FFF7FEFF 		bl	dbg_check_lock
 110              	.LVL5:
 111              		.loc 1 112 0
 112 000c 201C     		mov	r0, r4
ARM GAS  /var/folders/qh/xwg3v3kj02qbxczjpdb8lzfr0000gn/T//cceOnol9.s 			page 3


 113              		.loc 1 111 0
 114 000e 6560     		str	r5, [r4, #4]
 115              		.loc 1 112 0
 116 0010 FFF7FEFF 		bl	adc_lld_start
 117              	.LVL6:
 118              		.loc 1 113 0
 119 0014 0223     		mov	r3, #2
 120 0016 2370     		strb	r3, [r4]
 121              		.loc 1 114 0
 122 0018 FFF7FEFF 		bl	dbg_check_unlock
 123              	.LVL7:
 124              	@ 114 "../../os/hal/src/adc.c" 1
 125 001c 62B6     		cpsie   i
 126              	@ 0 "" 2
 127              		.loc 1 115 0
 128              		.code	16
 129              		@ sp needed
 130              	.LVL8:
 131              	.LVL9:
 132 001e 38BD     		pop	{r3, r4, r5, pc}
 133              		.cfi_endproc
 134              	.LFE42:
 135              		.size	adcStart, .-adcStart
 136              		.section	.text.adcStop,"ax",%progbits
 137              		.align	2
 138              		.p2align 4,,15
 139              		.global	adcStop
 140              		.code	16
 141              		.thumb_func
 142              		.type	adcStop, %function
 143              	adcStop:
 144              	.LFB43:
 145              		.loc 1 124 0
 146              		.cfi_startproc
 147              	.LVL10:
 148 0000 10B5     		push	{r4, lr}
 149              		.cfi_def_cfa_offset 8
 150              		.cfi_offset 4, -8
 151              		.cfi_offset 14, -4
 152              		.loc 1 124 0
 153 0002 041C     		mov	r4, r0
 154              		.loc 1 128 0
 155              	@ 128 "../../os/hal/src/adc.c" 1
 156 0004 72B6     		cpsid   i
 157              	@ 0 "" 2
 158              		.code	16
 159 0006 FFF7FEFF 		bl	dbg_check_lock
 160              	.LVL11:
 161              		.loc 1 131 0
 162 000a 201C     		mov	r0, r4
 163 000c FFF7FEFF 		bl	adc_lld_stop
 164              	.LVL12:
 165              		.loc 1 132 0
 166 0010 0123     		mov	r3, #1
 167 0012 2370     		strb	r3, [r4]
 168              		.loc 1 133 0
 169 0014 FFF7FEFF 		bl	dbg_check_unlock
ARM GAS  /var/folders/qh/xwg3v3kj02qbxczjpdb8lzfr0000gn/T//cceOnol9.s 			page 4


 170              	.LVL13:
 171              	@ 133 "../../os/hal/src/adc.c" 1
 172 0018 62B6     		cpsie   i
 173              	@ 0 "" 2
 174              		.loc 1 134 0
 175              		.code	16
 176              		@ sp needed
 177              	.LVL14:
 178 001a 10BD     		pop	{r4, pc}
 179              		.cfi_endproc
 180              	.LFE43:
 181              		.size	adcStop, .-adcStop
 182 001c C046C046 		.section	.text.adcStartConversion,"ax",%progbits
 183              		.align	2
 184              		.p2align 4,,15
 185              		.global	adcStartConversion
 186              		.code	16
 187              		.thumb_func
 188              		.type	adcStartConversion, %function
 189              	adcStartConversion:
 190              	.LFB44:
 191              		.loc 1 155 0
 192              		.cfi_startproc
 193              	.LVL15:
 194 0000 F8B5     		push	{r3, r4, r5, r6, r7, lr}
 195              		.cfi_def_cfa_offset 24
 196              		.cfi_offset 3, -24
 197              		.cfi_offset 4, -20
 198              		.cfi_offset 5, -16
 199              		.cfi_offset 6, -12
 200              		.cfi_offset 7, -8
 201              		.cfi_offset 14, -4
 202              		.loc 1 155 0
 203 0002 041C     		mov	r4, r0
 204 0004 0D1C     		mov	r5, r1
 205 0006 171C     		mov	r7, r2
 206 0008 1E1C     		mov	r6, r3
 207              		.loc 1 157 0
 208              	@ 157 "../../os/hal/src/adc.c" 1
 209 000a 72B6     		cpsid   i
 210              	@ 0 "" 2
 211              		.code	16
 212 000c FFF7FEFF 		bl	dbg_check_lock
 213              	.LVL16:
 214              	.LBB6:
 215              	.LBB7:
 216              		.loc 1 185 0
 217 0010 FFF7FEFF 		bl	chDbgCheckClassI
 218              	.LVL17:
 219              		.loc 1 197 0
 220 0014 0323     		mov	r3, #3
 221 0016 2370     		strb	r3, [r4]
 222              		.loc 1 198 0
 223 0018 201C     		mov	r0, r4
 224              		.loc 1 194 0
 225 001a A760     		str	r7, [r4, #8]
 226              		.loc 1 195 0
ARM GAS  /var/folders/qh/xwg3v3kj02qbxczjpdb8lzfr0000gn/T//cceOnol9.s 			page 5


 227 001c E660     		str	r6, [r4, #12]
 228              		.loc 1 196 0
 229 001e 2561     		str	r5, [r4, #16]
 230              		.loc 1 198 0
 231 0020 FFF7FEFF 		bl	adc_lld_start_conversion
 232              	.LVL18:
 233              	.LBE7:
 234              	.LBE6:
 235              		.loc 1 159 0
 236 0024 FFF7FEFF 		bl	dbg_check_unlock
 237              	.LVL19:
 238              	@ 159 "../../os/hal/src/adc.c" 1
 239 0028 62B6     		cpsie   i
 240              	@ 0 "" 2
 241              		.loc 1 160 0
 242              		.code	16
 243              		@ sp needed
 244              	.LVL20:
 245              	.LVL21:
 246              	.LVL22:
 247              	.LVL23:
 248 002a F8BD     		pop	{r3, r4, r5, r6, r7, pc}
 249              		.cfi_endproc
 250              	.LFE44:
 251              		.size	adcStartConversion, .-adcStartConversion
 252 002c C046C046 		.section	.text.adcStartConversionI,"ax",%progbits
 253              		.align	2
 254              		.p2align 4,,15
 255              		.global	adcStartConversionI
 256              		.code	16
 257              		.thumb_func
 258              		.type	adcStartConversionI, %function
 259              	adcStartConversionI:
 260              	.LFB45:
 261              		.loc 1 183 0
 262              		.cfi_startproc
 263              	.LVL24:
 264 0000 F8B5     		push	{r3, r4, r5, r6, r7, lr}
 265              		.cfi_def_cfa_offset 24
 266              		.cfi_offset 3, -24
 267              		.cfi_offset 4, -20
 268              		.cfi_offset 5, -16
 269              		.cfi_offset 6, -12
 270              		.cfi_offset 7, -8
 271              		.cfi_offset 14, -4
 272              		.loc 1 183 0
 273 0002 041C     		mov	r4, r0
 274 0004 0D1C     		mov	r5, r1
 275 0006 171C     		mov	r7, r2
 276 0008 1E1C     		mov	r6, r3
 277              		.loc 1 185 0
 278 000a FFF7FEFF 		bl	chDbgCheckClassI
 279              	.LVL25:
 280              		.loc 1 197 0
 281 000e 0323     		mov	r3, #3
 282              		.loc 1 194 0
 283 0010 A760     		str	r7, [r4, #8]
ARM GAS  /var/folders/qh/xwg3v3kj02qbxczjpdb8lzfr0000gn/T//cceOnol9.s 			page 6


 284              		.loc 1 195 0
 285 0012 E660     		str	r6, [r4, #12]
 286              		.loc 1 196 0
 287 0014 2561     		str	r5, [r4, #16]
 288              		.loc 1 197 0
 289 0016 2370     		strb	r3, [r4]
 290              		.loc 1 198 0
 291 0018 201C     		mov	r0, r4
 292 001a FFF7FEFF 		bl	adc_lld_start_conversion
 293              	.LVL26:
 294              		.loc 1 199 0
 295              		@ sp needed
 296              	.LVL27:
 297              	.LVL28:
 298              	.LVL29:
 299              	.LVL30:
 300 001e F8BD     		pop	{r3, r4, r5, r6, r7, pc}
 301              		.cfi_endproc
 302              	.LFE45:
 303              		.size	adcStartConversionI, .-adcStartConversionI
 304              		.section	.text.adcStopConversion,"ax",%progbits
 305              		.align	2
 306              		.p2align 4,,15
 307              		.global	adcStopConversion
 308              		.code	16
 309              		.thumb_func
 310              		.type	adcStopConversion, %function
 311              	adcStopConversion:
 312              	.LFB46:
 313              		.loc 1 211 0
 314              		.cfi_startproc
 315              	.LVL31:
 316 0000 10B5     		push	{r4, lr}
 317              		.cfi_def_cfa_offset 8
 318              		.cfi_offset 4, -8
 319              		.cfi_offset 14, -4
 320              		.loc 1 211 0
 321 0002 041C     		mov	r4, r0
 322              		.loc 1 215 0
 323              	@ 215 "../../os/hal/src/adc.c" 1
 324 0004 72B6     		cpsid   i
 325              	@ 0 "" 2
 326              		.code	16
 327 0006 FFF7FEFF 		bl	dbg_check_lock
 328              	.LVL32:
 329              		.loc 1 219 0
 330 000a 2378     		ldrb	r3, [r4]
 331 000c 022B     		cmp	r3, #2
 332 000e 0ED0     		beq	.L9
 333              		.loc 1 220 0
 334 0010 201C     		mov	r0, r4
 335 0012 FFF7FEFF 		bl	adc_lld_stop_conversion
 336              	.LVL33:
 337              		.loc 1 223 0
 338 0016 6069     		ldr	r0, [r4, #20]
 339              		.loc 1 221 0
 340 0018 0023     		mov	r3, #0
ARM GAS  /var/folders/qh/xwg3v3kj02qbxczjpdb8lzfr0000gn/T//cceOnol9.s 			page 7


 341              		.loc 1 222 0
 342 001a 0222     		mov	r2, #2
 343              		.loc 1 221 0
 344 001c 2361     		str	r3, [r4, #16]
 345              		.loc 1 222 0
 346 001e 2270     		strb	r2, [r4]
 347              		.loc 1 223 0
 348 0020 0028     		cmp	r0, #0
 349 0022 04D0     		beq	.L9
 350              	.LVL34:
 351              	.LBB8:
 352              		.loc 1 223 0 is_stmt 0 discriminator 1
 353 0024 0221     		mov	r1, #2
 354 0026 6361     		str	r3, [r4, #20]
 355 0028 4942     		neg	r1, r1
 356 002a FFF7FEFF 		bl	chSchWakeupS
 357              	.LVL35:
 358              	.L9:
 359              	.LBE8:
 360              		.loc 1 225 0 is_stmt 1
 361 002e FFF7FEFF 		bl	dbg_check_unlock
 362              	.LVL36:
 363              	@ 225 "../../os/hal/src/adc.c" 1
 364 0032 62B6     		cpsie   i
 365              	@ 0 "" 2
 366              		.loc 1 226 0
 367              		.code	16
 368              		@ sp needed
 369              	.LVL37:
 370 0034 10BD     		pop	{r4, pc}
 371              		.cfi_endproc
 372              	.LFE46:
 373              		.size	adcStopConversion, .-adcStopConversion
 374 0036 C046C046 		.section	.text.adcStopConversionI,"ax",%progbits
 374      C046C046 
 374      C046
 375              		.align	2
 376              		.p2align 4,,15
 377              		.global	adcStopConversionI
 378              		.code	16
 379              		.thumb_func
 380              		.type	adcStopConversionI, %function
 381              	adcStopConversionI:
 382              	.LFB47:
 383              		.loc 1 238 0
 384              		.cfi_startproc
 385              	.LVL38:
 386 0000 10B5     		push	{r4, lr}
 387              		.cfi_def_cfa_offset 8
 388              		.cfi_offset 4, -8
 389              		.cfi_offset 14, -4
 390              		.loc 1 238 0
 391 0002 041C     		mov	r4, r0
 392              		.loc 1 240 0
 393 0004 FFF7FEFF 		bl	chDbgCheckClassI
 394              	.LVL39:
 395              		.loc 1 247 0
ARM GAS  /var/folders/qh/xwg3v3kj02qbxczjpdb8lzfr0000gn/T//cceOnol9.s 			page 8


 396 0008 2378     		ldrb	r3, [r4]
 397 000a 022B     		cmp	r3, #2
 398 000c 0FD0     		beq	.L15
 399              		.loc 1 248 0
 400 000e 201C     		mov	r0, r4
 401 0010 FFF7FEFF 		bl	adc_lld_stop_conversion
 402              	.LVL40:
 403              		.loc 1 251 0
 404 0014 6069     		ldr	r0, [r4, #20]
 405              		.loc 1 249 0
 406 0016 0023     		mov	r3, #0
 407              		.loc 1 250 0
 408 0018 0222     		mov	r2, #2
 409              		.loc 1 249 0
 410 001a 2361     		str	r3, [r4, #16]
 411              		.loc 1 250 0
 412 001c 2270     		strb	r2, [r4]
 413              		.loc 1 251 0
 414 001e 0028     		cmp	r0, #0
 415 0020 05D0     		beq	.L15
 416              	.LVL41:
 417              	.LBB9:
 418              		.loc 1 251 0 is_stmt 0 discriminator 1
 419 0022 6361     		str	r3, [r4, #20]
 420 0024 0223     		mov	r3, #2
 421 0026 5B42     		neg	r3, r3
 422 0028 4362     		str	r3, [r0, #36]
 423 002a FFF7FEFF 		bl	chSchReadyI
 424              	.LVL42:
 425              	.L15:
 426              	.LBE9:
 427              		.loc 1 253 0 is_stmt 1
 428              		@ sp needed
 429              	.LVL43:
 430 002e 10BD     		pop	{r4, pc}
 431              		.cfi_endproc
 432              	.LFE47:
 433              		.size	adcStopConversionI, .-adcStopConversionI
 434              		.section	.text.adcConvert,"ax",%progbits
 435              		.align	2
 436              		.p2align 4,,15
 437              		.global	adcConvert
 438              		.code	16
 439              		.thumb_func
 440              		.type	adcConvert, %function
 441              	adcConvert:
 442              	.LFB48:
 443              		.loc 1 282 0
 444              		.cfi_startproc
 445              	.LVL44:
 446 0000 F8B5     		push	{r3, r4, r5, r6, r7, lr}
 447              		.cfi_def_cfa_offset 24
 448              		.cfi_offset 3, -24
 449              		.cfi_offset 4, -20
 450              		.cfi_offset 5, -16
 451              		.cfi_offset 6, -12
 452              		.cfi_offset 7, -8
ARM GAS  /var/folders/qh/xwg3v3kj02qbxczjpdb8lzfr0000gn/T//cceOnol9.s 			page 9


 453              		.cfi_offset 14, -4
 454              		.loc 1 282 0
 455 0002 041C     		mov	r4, r0
 456 0004 0D1C     		mov	r5, r1
 457 0006 171C     		mov	r7, r2
 458 0008 1E1C     		mov	r6, r3
 459              		.loc 1 285 0
 460              	@ 285 "../../os/hal/src/adc.c" 1
 461 000a 72B6     		cpsid   i
 462              	@ 0 "" 2
 463              		.code	16
 464 000c FFF7FEFF 		bl	dbg_check_lock
 465              	.LVL45:
 466              	.LBB10:
 467              	.LBB11:
 468              		.loc 1 185 0
 469 0010 FFF7FEFF 		bl	chDbgCheckClassI
 470              	.LVL46:
 471              		.loc 1 197 0
 472 0014 0323     		mov	r3, #3
 473              		.loc 1 194 0
 474 0016 A760     		str	r7, [r4, #8]
 475              		.loc 1 195 0
 476 0018 E660     		str	r6, [r4, #12]
 477              		.loc 1 196 0
 478 001a 2561     		str	r5, [r4, #16]
 479              		.loc 1 197 0
 480 001c 2370     		strb	r3, [r4]
 481              		.loc 1 198 0
 482 001e 201C     		mov	r0, r4
 483 0020 FFF7FEFF 		bl	adc_lld_start_conversion
 484              	.LVL47:
 485              	.LBE11:
 486              	.LBE10:
 487              		.loc 1 288 0
 488 0024 064D     		ldr	r5, .L23
 489              	.LVL48:
 490              		.loc 1 289 0
 491 0026 0220     		mov	r0, #2
 492              		.loc 1 288 0
 493 0028 AB69     		ldr	r3, [r5, #24]
 494 002a 6361     		str	r3, [r4, #20]
 495              		.loc 1 289 0
 496 002c FFF7FEFF 		bl	chSchGoSleepS
 497              	.LVL49:
 498              		.loc 1 290 0
 499 0030 AB69     		ldr	r3, [r5, #24]
 500 0032 5C6A     		ldr	r4, [r3, #36]
 501              	.LVL50:
 502              		.loc 1 291 0
 503 0034 FFF7FEFF 		bl	dbg_check_unlock
 504              	.LVL51:
 505              	@ 291 "../../os/hal/src/adc.c" 1
 506 0038 62B6     		cpsie   i
 507              	@ 0 "" 2
 508              		.loc 1 293 0
 509              		.code	16
ARM GAS  /var/folders/qh/xwg3v3kj02qbxczjpdb8lzfr0000gn/T//cceOnol9.s 			page 10


 510 003a 201C     		mov	r0, r4
 511              		@ sp needed
 512              	.LVL52:
 513              	.LVL53:
 514              	.LVL54:
 515 003c F8BD     		pop	{r3, r4, r5, r6, r7, pc}
 516              	.L24:
 517 003e C046     		.align	2
 518              	.L23:
 519 0040 00000000 		.word	rlist
 520              		.cfi_endproc
 521              	.LFE48:
 522              		.size	adcConvert, .-adcConvert
 523              		.section	.text.adcAcquireBus,"ax",%progbits
 524              		.align	2
 525              		.p2align 4,,15
 526              		.global	adcAcquireBus
 527              		.code	16
 528              		.thumb_func
 529              		.type	adcAcquireBus, %function
 530              	adcAcquireBus:
 531              	.LFB49:
 532              		.loc 1 308 0
 533              		.cfi_startproc
 534              	.LVL55:
 535 0000 08B5     		push	{r3, lr}
 536              		.cfi_def_cfa_offset 8
 537              		.cfi_offset 3, -8
 538              		.cfi_offset 14, -4
 539              		.loc 1 313 0
 540 0002 1830     		add	r0, r0, #24
 541              	.LVL56:
 542 0004 FFF7FEFF 		bl	chMtxLock
 543              	.LVL57:
 544              		.loc 1 317 0
 545              		@ sp needed
 546 0008 08BD     		pop	{r3, pc}
 547              		.cfi_endproc
 548              	.LFE49:
 549              		.size	adcAcquireBus, .-adcAcquireBus
 550 000a C046C046 		.section	.text.adcReleaseBus,"ax",%progbits
 550      C046
 551              		.align	2
 552              		.p2align 4,,15
 553              		.global	adcReleaseBus
 554              		.code	16
 555              		.thumb_func
 556              		.type	adcReleaseBus, %function
 557              	adcReleaseBus:
 558              	.LFB50:
 559              		.loc 1 328 0
 560              		.cfi_startproc
 561              	.LVL58:
 562 0000 08B5     		push	{r3, lr}
 563              		.cfi_def_cfa_offset 8
 564              		.cfi_offset 3, -8
 565              		.cfi_offset 14, -4
ARM GAS  /var/folders/qh/xwg3v3kj02qbxczjpdb8lzfr0000gn/T//cceOnol9.s 			page 11


 566              		.loc 1 334 0
 567 0002 FFF7FEFF 		bl	chMtxUnlock
 568              	.LVL59:
 569              		.loc 1 338 0
 570              		@ sp needed
 571 0006 08BD     		pop	{r3, pc}
 572              		.cfi_endproc
 573              	.LFE50:
 574              		.size	adcReleaseBus, .-adcReleaseBus
 575 0008 C046C046 		.text
 575      C046C046 
 576              	.Letext0:
 577              		.file 2 "/usr/local/Cellar/gcc-arm-none-eabi-48/20131218/lib/gcc/arm-none-eabi/4.8.3/include/stdde
 578              		.file 3 "/usr/local/Cellar/gcc-arm-none-eabi-48/20131218/arm-none-eabi/include/stdint.h"
 579              		.file 4 "../../os/ports/GCC/ARMCMx/chtypes.h"
 580              		.file 5 "../../os/kernel/include/chlists.h"
 581              		.file 6 "../../os/kernel/include/chthreads.h"
 582              		.file 7 "../../os/ports/GCC/ARMCMx/chcore_v6m.h"
 583              		.file 8 "../../os/kernel/include/chschd.h"
 584              		.file 9 "../../os/kernel/include/chmtx.h"
 585              		.file 10 "../../os/hal/platforms/STM32F0xx/stm32f0xx.h"
 586              		.file 11 "../../os/hal/platforms/STM32F0xx/stm32_dma.h"
 587              		.file 12 "../../os/hal/include/adc.h"
 588              		.file 13 "../../os/hal/platforms/STM32F0xx/adc_lld.h"
 589              		.file 14 "../../os/kernel/include/chdebug.h"