ARM GAS  /var/folders/qh/xwg3v3kj02qbxczjpdb8lzfr0000gn/T//cc0aEZG6.s 			page 1


   1              		.cpu cortex-m0
   2              		.fpu softvfp
   3              		.eabi_attribute 20, 1
   4              		.eabi_attribute 21, 1
   5              		.eabi_attribute 23, 3
   6              		.eabi_attribute 24, 1
   7              		.eabi_attribute 25, 1
   8              		.eabi_attribute 26, 1
   9              		.eabi_attribute 30, 2
  10              		.eabi_attribute 34, 0
  11              		.eabi_attribute 18, 4
  12              		.code	16
  13              		.file	"adc_lld.c"
  14              		.text
  15              	.Ltext0:
  16              		.cfi_sections	.debug_frame
  17              		.section	.text.adc_lld_init,"ax",%progbits
  18              		.align	2
  19              		.p2align 4,,15
  20              		.global	adc_lld_init
  21              		.code	16
  22              		.thumb_func
  23              		.type	adc_lld_init, %function
  24              	adc_lld_init:
  25              	.LFB43:
  26              		.file 1 "../../os/hal/platforms/STM32F0xx/adc_lld.c"
  27              		.loc 1 143 0
  28              		.cfi_startproc
  29 0000 38B5     		push	{r3, r4, r5, lr}
  30              		.cfi_def_cfa_offset 16
  31              		.cfi_offset 3, -16
  32              		.cfi_offset 4, -12
  33              		.cfi_offset 5, -8
  34              		.cfi_offset 14, -4
  35              		.loc 1 147 0
  36 0002 124D     		ldr	r5, .L5
  37              		.loc 1 148 0
  38 0004 124C     		ldr	r4, .L5+4
  39              		.loc 1 147 0
  40 0006 281C     		mov	r0, r5
  41 0008 FFF7FEFF 		bl	adcObjectInit
  42              	.LVL0:
  43              		.loc 1 149 0
  44 000c 114B     		ldr	r3, .L5+8
  45              		.loc 1 159 0
  46 000e 8021     		mov	r1, #128
  47              		.loc 1 149 0
  48 0010 EB62     		str	r3, [r5, #44]
  49              		.loc 1 150 0
  50 0012 114B     		ldr	r3, .L5+12
  51              		.loc 1 159 0
  52 0014 0C20     		mov	r0, #12
  53              		.loc 1 150 0
  54 0016 2B63     		str	r3, [r5, #48]
  55              		.loc 1 148 0
  56 0018 AC62     		str	r4, [r5, #40]
  57              		.loc 1 159 0
ARM GAS  /var/folders/qh/xwg3v3kj02qbxczjpdb8lzfr0000gn/T//cc0aEZG6.s 			page 2


  58 001a FFF7FEFF 		bl	nvicEnableVector
  59              	.LVL1:
  60              		.loc 1 162 0
  61 001e 0F4B     		ldr	r3, .L5+16
  62 0020 8022     		mov	r2, #128
  63 0022 9969     		ldr	r1, [r3, #24]
  64 0024 9200     		lsl	r2, r2, #2
  65 0026 0A43     		orr	r2, r1
  66 0028 9A61     		str	r2, [r3, #24]
  67              		.loc 1 163 0
  68 002a A368     		ldr	r3, [r4, #8]
  69              		.loc 1 164 0
  70 002c A268     		ldr	r2, [r4, #8]
  71 002e 8023     		mov	r3, #128
  72 0030 1B06     		lsl	r3, r3, #24
  73 0032 1343     		orr	r3, r2
  74 0034 A360     		str	r3, [r4, #8]
  75              		.loc 1 165 0
  76 0036 221C     		mov	r2, r4
  77              	.L3:
  78              		.loc 1 165 0 is_stmt 0 discriminator 1
  79 0038 9368     		ldr	r3, [r2, #8]
  80 003a 002B     		cmp	r3, #0
  81 003c FCDB     		blt	.L3
  82              		.loc 1 167 0 is_stmt 1
  83 003e 074B     		ldr	r3, .L5+16
  84 0040 074A     		ldr	r2, .L5+20
  85 0042 9969     		ldr	r1, [r3, #24]
  86              		.loc 1 168 0
  87              		@ sp needed
  88              		.loc 1 167 0
  89 0044 0A40     		and	r2, r1
  90 0046 9A61     		str	r2, [r3, #24]
  91              		.loc 1 168 0
  92 0048 38BD     		pop	{r3, r4, r5, pc}
  93              	.L6:
  94 004a C046     		.align	2
  95              	.L5:
  96 004c 00000000 		.word	.LANCHOR0
  97 0050 00240140 		.word	1073816576
  98 0054 00000000 		.word	_stm32_dma_streams
  99 0058 8A250000 		.word	9610
 100 005c 00100240 		.word	1073876992
 101 0060 FFFDFFFF 		.word	-513
 102              		.cfi_endproc
 103              	.LFE43:
 104              		.size	adc_lld_init, .-adc_lld_init
 105 0064 C046C046 		.section	.text.adc_lld_start,"ax",%progbits
 105      C046C046 
 105      C046C046 
 106              		.align	2
 107              		.p2align 4,,15
 108              		.global	adc_lld_start
 109              		.code	16
 110              		.thumb_func
 111              		.type	adc_lld_start, %function
 112              	adc_lld_start:
ARM GAS  /var/folders/qh/xwg3v3kj02qbxczjpdb8lzfr0000gn/T//cc0aEZG6.s 			page 3


 113              	.LFB44:
 114              		.loc 1 177 0
 115              		.cfi_startproc
 116              	.LVL2:
 117              		.loc 1 180 0
 118 0000 0378     		ldrb	r3, [r0]
 119              		.loc 1 177 0
 120 0002 10B5     		push	{r4, lr}
 121              		.cfi_def_cfa_offset 8
 122              		.cfi_offset 4, -8
 123              		.cfi_offset 14, -4
 124              		.loc 1 177 0
 125 0004 041C     		mov	r4, r0
 126              		.loc 1 180 0
 127 0006 012B     		cmp	r3, #1
 128 0008 00D0     		beq	.L12
 129              	.LVL3:
 130              	.L7:
 131              		.loc 1 210 0
 132              		@ sp needed
 133              	.LVL4:
 134 000a 10BD     		pop	{r4, pc}
 135              	.LVL5:
 136              	.L12:
 137              		.loc 1 182 0
 138 000c 0F4B     		ldr	r3, .L14
 139 000e 9842     		cmp	r0, r3
 140 0010 07D0     		beq	.L13
 141              	.LVL6:
 142              	.L9:
 143              		.loc 1 206 0
 144 0012 A26A     		ldr	r2, [r4, #40]
 145 0014 0123     		mov	r3, #1
 146 0016 9360     		str	r3, [r2, #8]
 147              		.loc 1 207 0
 148 0018 0121     		mov	r1, #1
 149              	.L11:
 150              		.loc 1 207 0 is_stmt 0 discriminator 1
 151 001a 1368     		ldr	r3, [r2]
 152 001c 1942     		tst	r1, r3
 153 001e FCD0     		beq	.L11
 154 0020 F3E7     		b	.L7
 155              	.LVL7:
 156              	.L13:
 157              	.LBB6:
 158              		.loc 1 184 0 is_stmt 1
 159 0022 0221     		mov	r1, #2
 160 0024 0A4A     		ldr	r2, .L14+4
 161 0026 231C     		mov	r3, r4
 162 0028 C06A     		ldr	r0, [r0, #44]
 163              	.LVL8:
 164 002a FFF7FEFF 		bl	dmaStreamAllocate
 165              	.LVL9:
 166              		.loc 1 189 0
 167 002e E36A     		ldr	r3, [r4, #44]
 168 0030 084A     		ldr	r2, .L14+8
 169 0032 1B68     		ldr	r3, [r3]
ARM GAS  /var/folders/qh/xwg3v3kj02qbxczjpdb8lzfr0000gn/T//cc0aEZG6.s 			page 4


 170 0034 9A60     		str	r2, [r3, #8]
 171              		.loc 1 190 0
 172 0036 084B     		ldr	r3, .L14+12
 173 0038 8022     		mov	r2, #128
 174 003a 9969     		ldr	r1, [r3, #24]
 175 003c 9200     		lsl	r2, r2, #2
 176 003e 0A43     		orr	r2, r1
 177 0040 9A61     		str	r2, [r3, #24]
 178              		.loc 1 193 0
 179 0042 8022     		mov	r2, #128
 180 0044 054B     		ldr	r3, .L14+16
 181 0046 5201     		lsl	r2, r2, #5
 182 0048 1A61     		str	r2, [r3, #16]
 183 004a E2E7     		b	.L9
 184              	.L15:
 185              		.align	2
 186              	.L14:
 187 004c 00000000 		.word	.LANCHOR0
 188 0050 00000000 		.word	adc_lld_serve_rx_interrupt
 189 0054 40240140 		.word	1073816640
 190 0058 00100240 		.word	1073876992
 191 005c 00240140 		.word	1073816576
 192              	.LBE6:
 193              		.cfi_endproc
 194              	.LFE44:
 195              		.size	adc_lld_start, .-adc_lld_start
 196              		.section	.text.adc_lld_stop,"ax",%progbits
 197              		.align	2
 198              		.p2align 4,,15
 199              		.global	adc_lld_stop
 200              		.code	16
 201              		.thumb_func
 202              		.type	adc_lld_stop, %function
 203              	adc_lld_stop:
 204              	.LFB45:
 205              		.loc 1 219 0
 206              		.cfi_startproc
 207              	.LVL10:
 208              		.loc 1 222 0
 209 0000 0378     		ldrb	r3, [r0]
 210              		.loc 1 219 0
 211 0002 10B5     		push	{r4, lr}
 212              		.cfi_def_cfa_offset 8
 213              		.cfi_offset 4, -8
 214              		.cfi_offset 14, -4
 215              		.loc 1 219 0
 216 0004 041C     		mov	r4, r0
 217              		.loc 1 222 0
 218 0006 022B     		cmp	r3, #2
 219 0008 00D0     		beq	.L33
 220              	.LVL11:
 221              	.L16:
 222              		.loc 1 239 0
 223              		@ sp needed
 224              	.LVL12:
 225 000a 10BD     		pop	{r4, pc}
 226              	.LVL13:
ARM GAS  /var/folders/qh/xwg3v3kj02qbxczjpdb8lzfr0000gn/T//cc0aEZG6.s 			page 5


 227              	.L33:
 228              		.loc 1 224 0
 229 000c C06A     		ldr	r0, [r0, #44]
 230              	.LVL14:
 231 000e FFF7FEFF 		bl	dmaStreamRelease
 232              	.LVL15:
 233              		.loc 1 227 0
 234 0012 A26A     		ldr	r2, [r4, #40]
 235 0014 9368     		ldr	r3, [r2, #8]
 236 0016 D907     		lsl	r1, r3, #31
 237 0018 0AD5     		bpl	.L26
 238              	.LVL16:
 239              	.LBB11:
 240              	.LBB12:
 241              		.loc 1 58 0
 242 001a 9368     		ldr	r3, [r2, #8]
 243 001c 5907     		lsl	r1, r3, #29
 244 001e 10D4     		bmi	.L22
 245              	.L24:
 246              	.LBE12:
 247              	.LBE11:
 248              		.loc 1 229 0
 249 0020 9168     		ldr	r1, [r2, #8]
 250 0022 0223     		mov	r3, #2
 251 0024 0B43     		orr	r3, r1
 252 0026 9360     		str	r3, [r2, #8]
 253              		.loc 1 230 0
 254 0028 0221     		mov	r1, #2
 255              	.L23:
 256              		.loc 1 230 0 is_stmt 0 discriminator 1
 257 002a 9368     		ldr	r3, [r2, #8]
 258 002c 1942     		tst	r1, r3
 259 002e FCD1     		bne	.L23
 260              	.LVL17:
 261              	.L26:
 262              		.loc 1 235 0 is_stmt 1
 263 0030 084B     		ldr	r3, .L34
 264 0032 9C42     		cmp	r4, r3
 265 0034 E9D1     		bne	.L16
 266              		.loc 1 236 0
 267 0036 084B     		ldr	r3, .L34+4
 268 0038 084A     		ldr	r2, .L34+8
 269 003a 9969     		ldr	r1, [r3, #24]
 270 003c 0A40     		and	r2, r1
 271 003e 9A61     		str	r2, [r3, #24]
 272 0040 E3E7     		b	.L16
 273              	.LVL18:
 274              	.L22:
 275              	.LBB16:
 276              	.LBB15:
 277              	.LBB13:
 278              	.LBB14:
 279              		.loc 1 59 0
 280 0042 9168     		ldr	r1, [r2, #8]
 281 0044 1023     		mov	r3, #16
 282 0046 0B43     		orr	r3, r1
 283 0048 9360     		str	r3, [r2, #8]
ARM GAS  /var/folders/qh/xwg3v3kj02qbxczjpdb8lzfr0000gn/T//cc0aEZG6.s 			page 6


 284              		.loc 1 60 0
 285 004a 1021     		mov	r1, #16
 286              	.L25:
 287 004c 9368     		ldr	r3, [r2, #8]
 288 004e 1942     		tst	r1, r3
 289 0050 FCD1     		bne	.L25
 290 0052 E5E7     		b	.L24
 291              	.L35:
 292              		.align	2
 293              	.L34:
 294 0054 00000000 		.word	.LANCHOR0
 295 0058 00100240 		.word	1073876992
 296 005c FFFDFFFF 		.word	-513
 297              	.LBE14:
 298              	.LBE13:
 299              	.LBE15:
 300              	.LBE16:
 301              		.cfi_endproc
 302              	.LFE45:
 303              		.size	adc_lld_stop, .-adc_lld_stop
 304              		.section	.text.adc_lld_start_conversion,"ax",%progbits
 305              		.align	2
 306              		.p2align 4,,15
 307              		.global	adc_lld_start_conversion
 308              		.code	16
 309              		.thumb_func
 310              		.type	adc_lld_start_conversion, %function
 311              	adc_lld_start_conversion:
 312              	.LFB46:
 313              		.loc 1 248 0
 314              		.cfi_startproc
 315              	.LVL19:
 316              		.loc 1 250 0
 317 0000 0269     		ldr	r2, [r0, #16]
 318              	.LVL20:
 319              		.loc 1 248 0
 320 0002 30B5     		push	{r4, r5, lr}
 321              		.cfi_def_cfa_offset 12
 322              		.cfi_offset 4, -12
 323              		.cfi_offset 5, -8
 324              		.cfi_offset 14, -4
 325              		.loc 1 254 0
 326 0004 1378     		ldrb	r3, [r2]
 327              		.loc 1 253 0
 328 0006 016B     		ldr	r1, [r0, #48]
 329              	.LVL21:
 330              		.loc 1 256 0
 331 0008 C468     		ldr	r4, [r0, #12]
 332              		.loc 1 254 0
 333 000a 002B     		cmp	r3, #0
 334 000c 03D0     		beq	.L38
 335              	.LVL22:
 336              		.loc 1 256 0
 337 000e 012C     		cmp	r4, #1
 338 0010 21D9     		bls	.L40
 339              		.loc 1 259 0
 340 0012 2423     		mov	r3, #36
ARM GAS  /var/folders/qh/xwg3v3kj02qbxczjpdb8lzfr0000gn/T//cc0aEZG6.s 			page 7


 341 0014 1943     		orr	r1, r3
 342              	.LVL23:
 343              	.L38:
 344              		.loc 1 262 0
 345 0016 C36A     		ldr	r3, [r0, #44]
 346 0018 8568     		ldr	r5, [r0, #8]
 347 001a 1B68     		ldr	r3, [r3]
 348              		.loc 1 280 0
 349              		@ sp needed
 350              		.loc 1 262 0
 351 001c DD60     		str	r5, [r3, #12]
 352              		.loc 1 263 0
 353 001e 5588     		ldrh	r5, [r2, #2]
 354 0020 6C43     		mul	r4, r5
 355 0022 5C60     		str	r4, [r3, #4]
 356              		.loc 1 265 0
 357 0024 1960     		str	r1, [r3]
 358              		.loc 1 266 0
 359 0026 1C68     		ldr	r4, [r3]
 360 0028 0121     		mov	r1, #1
 361              	.LVL24:
 362 002a 2143     		orr	r1, r4
 363 002c 1960     		str	r1, [r3]
 364              	.LVL25:
 365              		.loc 1 270 0
 366 002e 836A     		ldr	r3, [r0, #40]
 367              		.loc 1 273 0
 368 0030 5569     		ldr	r5, [r2, #20]
 369              		.loc 1 270 0
 370 0032 1968     		ldr	r1, [r3]
 371 0034 1960     		str	r1, [r3]
 372              		.loc 1 271 0
 373 0036 9021     		mov	r1, #144
 374 0038 5960     		str	r1, [r3, #4]
 375              		.loc 1 272 0
 376 003a 1169     		ldr	r1, [r2, #16]
 377 003c 1962     		str	r1, [r3, #32]
 378              		.loc 1 274 0
 379 003e 9169     		ldr	r1, [r2, #24]
 380              		.loc 1 273 0
 381 0040 5D61     		str	r5, [r3, #20]
 382              		.loc 1 277 0
 383 0042 D268     		ldr	r2, [r2, #12]
 384              	.LVL26:
 385              		.loc 1 274 0
 386 0044 9962     		str	r1, [r3, #40]
 387              		.loc 1 277 0
 388 0046 0549     		ldr	r1, .L41
 389 0048 0A43     		orr	r2, r1
 390 004a DA60     		str	r2, [r3, #12]
 391              		.loc 1 279 0
 392 004c 9968     		ldr	r1, [r3, #8]
 393 004e 0422     		mov	r2, #4
 394 0050 0A43     		orr	r2, r1
 395 0052 9A60     		str	r2, [r3, #8]
 396              		.loc 1 280 0
 397 0054 30BD     		pop	{r4, r5, pc}
ARM GAS  /var/folders/qh/xwg3v3kj02qbxczjpdb8lzfr0000gn/T//cc0aEZG6.s 			page 8


 398              	.LVL27:
 399              	.L40:
 400              		.loc 1 255 0
 401 0056 2023     		mov	r3, #32
 402 0058 1943     		orr	r1, r3
 403              	.LVL28:
 404 005a DCE7     		b	.L38
 405              	.L42:
 406              		.align	2
 407              	.L41:
 408 005c 03200000 		.word	8195
 409              		.cfi_endproc
 410              	.LFE46:
 411              		.size	adc_lld_start_conversion, .-adc_lld_start_conversion
 412              		.section	.text.adc_lld_stop_conversion,"ax",%progbits
 413              		.align	2
 414              		.p2align 4,,15
 415              		.global	adc_lld_stop_conversion
 416              		.code	16
 417              		.thumb_func
 418              		.type	adc_lld_stop_conversion, %function
 419              	adc_lld_stop_conversion:
 420              	.LFB47:
 421              		.loc 1 289 0
 422              		.cfi_startproc
 423              	.LVL29:
 424              		.loc 1 291 0
 425 0000 C36A     		ldr	r3, [r0, #44]
 426              		.loc 1 289 0
 427 0002 10B5     		push	{r4, lr}
 428              		.cfi_def_cfa_offset 8
 429              		.cfi_offset 4, -8
 430              		.cfi_offset 14, -4
 431              		.loc 1 291 0
 432 0004 1968     		ldr	r1, [r3]
 433 0006 0F22     		mov	r2, #15
 434 0008 0C68     		ldr	r4, [r1]
 435 000a 9443     		bic	r4, r2
 436 000c 0C60     		str	r4, [r1]
 437 000e 5968     		ldr	r1, [r3, #4]
 438 0010 1B7A     		ldrb	r3, [r3, #8]
 439 0012 9A40     		lsl	r2, r2, r3
 440 0014 0A60     		str	r2, [r1]
 441              		.loc 1 292 0
 442 0016 826A     		ldr	r2, [r0, #40]
 443              	.LVL30:
 444              	.LBB21:
 445              	.LBB22:
 446              		.loc 1 58 0
 447 0018 9368     		ldr	r3, [r2, #8]
 448 001a 5907     		lsl	r1, r3, #29
 449 001c 00D4     		bmi	.L50
 450              	.L43:
 451              	.LBE22:
 452              	.LBE21:
 453              		.loc 1 293 0
 454              		@ sp needed
ARM GAS  /var/folders/qh/xwg3v3kj02qbxczjpdb8lzfr0000gn/T//cc0aEZG6.s 			page 9


 455 001e 10BD     		pop	{r4, pc}
 456              	.L50:
 457              	.LVL31:
 458              	.LBB26:
 459              	.LBB25:
 460              	.LBB23:
 461              	.LBB24:
 462              		.loc 1 59 0
 463 0020 9168     		ldr	r1, [r2, #8]
 464 0022 1023     		mov	r3, #16
 465 0024 0B43     		orr	r3, r1
 466 0026 9360     		str	r3, [r2, #8]
 467              		.loc 1 60 0
 468 0028 1021     		mov	r1, #16
 469              	.L46:
 470 002a 9368     		ldr	r3, [r2, #8]
 471 002c 1942     		tst	r1, r3
 472 002e FCD1     		bne	.L46
 473 0030 F5E7     		b	.L43
 474              	.LBE24:
 475              	.LBE23:
 476              	.LBE25:
 477              	.LBE26:
 478              		.cfi_endproc
 479              	.LFE47:
 480              		.size	adc_lld_stop_conversion, .-adc_lld_stop_conversion
 481 0032 C046C046 		.section	.text.Vector70,"ax",%progbits
 481      C046C046 
 481      C046C046 
 481      C046
 482              		.align	2
 483              		.p2align 4,,15
 484              		.global	Vector70
 485              		.code	16
 486              		.thumb_func
 487              		.type	Vector70, %function
 488              	Vector70:
 489              	.LFB42:
 490              		.loc 1 105 0
 491              		.cfi_startproc
 492 0000 70B5     		push	{r4, r5, r6, lr}
 493              		.cfi_def_cfa_offset 16
 494              		.cfi_offset 4, -16
 495              		.cfi_offset 5, -12
 496              		.cfi_offset 6, -8
 497              		.cfi_offset 14, -4
 498              		.loc 1 108 0
 499              	@ 108 "../../os/hal/platforms/STM32F0xx/adc_lld.c" 1
 500 0002 7646     		mov     r6, lr
 501              	@ 0 "" 2
 502              	.LVL32:
 503              		.code	16
 504 0004 FFF7FEFF 		bl	dbg_check_enter_isr
 505              	.LVL33:
 506              		.loc 1 110 0
 507 0008 314B     		ldr	r3, .L83
 508              		.loc 1 115 0
ARM GAS  /var/folders/qh/xwg3v3kj02qbxczjpdb8lzfr0000gn/T//cc0aEZG6.s 			page 10


 509 000a 324C     		ldr	r4, .L83+4
 510              		.loc 1 110 0
 511 000c 1D68     		ldr	r5, [r3]
 512              	.LVL34:
 513              		.loc 1 111 0
 514 000e 1D60     		str	r5, [r3]
 515              		.loc 1 115 0
 516 0010 2369     		ldr	r3, [r4, #16]
 517 0012 002B     		cmp	r3, #0
 518 0014 03D0     		beq	.L53
 519              		.loc 1 118 0
 520 0016 EB06     		lsl	r3, r5, #27
 521 0018 07D4     		bmi	.L79
 522              	.L54:
 523              		.loc 1 124 0
 524 001a 2B06     		lsl	r3, r5, #24
 525 001c 2ED4     		bmi	.L80
 526              	.L53:
 527              		.loc 1 130 0
 528 001e FFF7FEFF 		bl	dbg_check_leave_isr
 529              	.LVL35:
 530 0022 301C     		mov	r0, r6
 531 0024 FFF7FEFF 		bl	_port_irq_epilogue
 532              	.LVL36:
 533              		.loc 1 131 0
 534              		@ sp needed
 535              	.LVL37:
 536              	.LVL38:
 537 0028 70BD     		pop	{r4, r5, r6, pc}
 538              	.LVL39:
 539              	.L79:
 540              		.loc 1 119 0 discriminator 1
 541 002a E36A     		ldr	r3, [r4, #44]
 542 002c 1B68     		ldr	r3, [r3]
 543 002e 5B68     		ldr	r3, [r3, #4]
 544              		.loc 1 118 0 discriminator 1
 545 0030 002B     		cmp	r3, #0
 546 0032 F2D0     		beq	.L54
 547              		.loc 1 122 0
 548 0034 201C     		mov	r0, r4
 549 0036 FFF7FEFF 		bl	adc_lld_stop_conversion
 550              	.LVL40:
 551 003a 2369     		ldr	r3, [r4, #16]
 552 003c 9B68     		ldr	r3, [r3, #8]
 553 003e 002B     		cmp	r3, #0
 554 0040 07D0     		beq	.L56
 555              		.loc 1 122 0 is_stmt 0 discriminator 1
 556 0042 0522     		mov	r2, #5
 557 0044 2270     		strb	r2, [r4]
 558 0046 201C     		mov	r0, r4
 559 0048 0121     		mov	r1, #1
 560 004a 9847     		blx	r3
 561              	.LVL41:
 562 004c 2378     		ldrb	r3, [r4]
 563 004e 052B     		cmp	r3, #5
 564 0050 3AD0     		beq	.L81
 565              	.L56:
ARM GAS  /var/folders/qh/xwg3v3kj02qbxczjpdb8lzfr0000gn/T//cc0aEZG6.s 			page 11


 566              		.loc 1 122 0 discriminator 2
 567 0052 0023     		mov	r3, #0
 568 0054 2361     		str	r3, [r4, #16]
 569              	@ 122 "../../os/hal/platforms/STM32F0xx/adc_lld.c" 1
 570 0056 72B6     		cpsid   i
 571              	@ 0 "" 2
 572              		.code	16
 573 0058 FFF7FEFF 		bl	dbg_check_lock_from_isr
 574              	.LVL42:
 575 005c 1D4C     		ldr	r4, .L83+4
 576 005e 6069     		ldr	r0, [r4, #20]
 577 0060 0028     		cmp	r0, #0
 578 0062 06D0     		beq	.L58
 579              	.LVL43:
 580              	.LBB27:
 581              		.loc 1 122 0 discriminator 1
 582 0064 0023     		mov	r3, #0
 583 0066 6361     		str	r3, [r4, #20]
 584 0068 0123     		mov	r3, #1
 585 006a 5B42     		neg	r3, r3
 586 006c 4362     		str	r3, [r0, #36]
 587 006e FFF7FEFF 		bl	chSchReadyI
 588              	.LVL44:
 589              	.L58:
 590              	.LBE27:
 591              		.loc 1 122 0 discriminator 2
 592 0072 FFF7FEFF 		bl	dbg_check_unlock_from_isr
 593              	.LVL45:
 594              	@ 122 "../../os/hal/platforms/STM32F0xx/adc_lld.c" 1
 595 0076 62B6     		cpsie   i
 596              	@ 0 "" 2
 597              		.loc 1 124 0 is_stmt 1 discriminator 2
 598              		.code	16
 599 0078 2B06     		lsl	r3, r5, #24
 600 007a D0D5     		bpl	.L53
 601              	.L80:
 602              		.loc 1 126 0
 603 007c 201C     		mov	r0, r4
 604 007e FFF7FEFF 		bl	adc_lld_stop_conversion
 605              	.LVL46:
 606 0082 2369     		ldr	r3, [r4, #16]
 607 0084 9B68     		ldr	r3, [r3, #8]
 608 0086 002B     		cmp	r3, #0
 609 0088 07D0     		beq	.L61
 610              		.loc 1 126 0 is_stmt 0 discriminator 1
 611 008a 0522     		mov	r2, #5
 612 008c 2270     		strb	r2, [r4]
 613 008e 201C     		mov	r0, r4
 614 0090 0221     		mov	r1, #2
 615 0092 9847     		blx	r3
 616              	.LVL47:
 617 0094 2378     		ldrb	r3, [r4]
 618 0096 052B     		cmp	r3, #5
 619 0098 13D0     		beq	.L82
 620              	.L61:
 621              		.loc 1 126 0 discriminator 2
 622 009a 0023     		mov	r3, #0
ARM GAS  /var/folders/qh/xwg3v3kj02qbxczjpdb8lzfr0000gn/T//cc0aEZG6.s 			page 12


 623 009c 2361     		str	r3, [r4, #16]
 624              	@ 126 "../../os/hal/platforms/STM32F0xx/adc_lld.c" 1
 625 009e 72B6     		cpsid   i
 626              	@ 0 "" 2
 627              		.code	16
 628 00a0 FFF7FEFF 		bl	dbg_check_lock_from_isr
 629              	.LVL48:
 630 00a4 0B4B     		ldr	r3, .L83+4
 631 00a6 5869     		ldr	r0, [r3, #20]
 632 00a8 0028     		cmp	r0, #0
 633 00aa 06D0     		beq	.L63
 634              	.LVL49:
 635              	.LBB28:
 636              		.loc 1 126 0 discriminator 1
 637 00ac 0022     		mov	r2, #0
 638 00ae 5A61     		str	r2, [r3, #20]
 639 00b0 0123     		mov	r3, #1
 640 00b2 5B42     		neg	r3, r3
 641 00b4 4362     		str	r3, [r0, #36]
 642 00b6 FFF7FEFF 		bl	chSchReadyI
 643              	.LVL50:
 644              	.L63:
 645              	.LBE28:
 646              		.loc 1 126 0 discriminator 2
 647 00ba FFF7FEFF 		bl	dbg_check_unlock_from_isr
 648              	.LVL51:
 649              	@ 126 "../../os/hal/platforms/STM32F0xx/adc_lld.c" 1
 650 00be 62B6     		cpsie   i
 651              	@ 0 "" 2
 652              		.code	16
 653 00c0 ADE7     		b	.L53
 654              	.L82:
 655              		.loc 1 126 0 discriminator 1
 656 00c2 0223     		mov	r3, #2
 657 00c4 2370     		strb	r3, [r4]
 658 00c6 E8E7     		b	.L61
 659              	.L81:
 660              		.loc 1 122 0 is_stmt 1 discriminator 1
 661 00c8 0223     		mov	r3, #2
 662 00ca 2370     		strb	r3, [r4]
 663 00cc C1E7     		b	.L56
 664              	.L84:
 665 00ce C046     		.align	2
 666              	.L83:
 667 00d0 00240140 		.word	1073816576
 668 00d4 00000000 		.word	.LANCHOR0
 669              		.cfi_endproc
 670              	.LFE42:
 671              		.size	Vector70, .-Vector70
 672 00d8 C046C046 		.section	.text.adc_lld_serve_rx_interrupt,"ax",%progbits
 672      C046C046 
 673              		.align	2
 674              		.p2align 4,,15
 675              		.code	16
 676              		.thumb_func
 677              		.type	adc_lld_serve_rx_interrupt, %function
 678              	adc_lld_serve_rx_interrupt:
ARM GAS  /var/folders/qh/xwg3v3kj02qbxczjpdb8lzfr0000gn/T//cc0aEZG6.s 			page 13


 679              	.LFB41:
 680              		.loc 1 71 0
 681              		.cfi_startproc
 682              	.LVL52:
 683 0000 70B5     		push	{r4, r5, r6, lr}
 684              		.cfi_def_cfa_offset 16
 685              		.cfi_offset 4, -16
 686              		.cfi_offset 5, -12
 687              		.cfi_offset 6, -8
 688              		.cfi_offset 14, -4
 689              		.loc 1 71 0
 690 0002 041C     		mov	r4, r0
 691              		.loc 1 74 0
 692 0004 0807     		lsl	r0, r1, #28
 693 0006 22D4     		bmi	.L116
 694              	.LVL53:
 695              		.loc 1 82 0
 696 0008 2369     		ldr	r3, [r4, #16]
 697 000a 002B     		cmp	r3, #0
 698 000c 13D0     		beq	.L85
 699              		.loc 1 83 0
 700 000e 0225     		mov	r5, #2
 701 0010 0D42     		tst	r5, r1
 702 0012 11D0     		beq	.L92
 703              		.loc 1 85 0
 704 0014 1E78     		ldrb	r6, [r3]
 705 0016 002E     		cmp	r6, #0
 706 0018 42D0     		beq	.L93
 707              		.loc 1 85 0 is_stmt 0 discriminator 1
 708 001a 5D68     		ldr	r5, [r3, #4]
 709 001c 002D     		cmp	r5, #0
 710 001e 0AD0     		beq	.L85
 711 0020 E268     		ldr	r2, [r4, #12]
 712 0022 012A     		cmp	r2, #1
 713 0024 38D9     		bls	.L94
 714              	.LBB29:
 715 0026 5988     		ldrh	r1, [r3, #2]
 716              	.LVL54:
 717 0028 5208     		lsr	r2, r2, #1
 718              	.LVL55:
 719 002a 5143     		mul	r1, r2
 720              	.LVL56:
 721 002c A368     		ldr	r3, [r4, #8]
 722 002e 4900     		lsl	r1, r1, #1
 723              	.LVL57:
 724 0030 5918     		add	r1, r3, r1
 725 0032 201C     		mov	r0, r4
 726 0034 A847     		blx	r5
 727              	.LVL58:
 728              	.L85:
 729              	.LBE29:
 730              		.loc 1 93 0 is_stmt 1
 731              		@ sp needed
 732              	.LVL59:
 733 0036 70BD     		pop	{r4, r5, r6, pc}
 734              	.LVL60:
 735              	.L92:
ARM GAS  /var/folders/qh/xwg3v3kj02qbxczjpdb8lzfr0000gn/T//cc0aEZG6.s 			page 14


 736              		.loc 1 87 0
 737 0038 4807     		lsl	r0, r1, #29
 738 003a FCD5     		bpl	.L85
 739              		.loc 1 89 0
 740 003c 5B68     		ldr	r3, [r3, #4]
 741 003e 002B     		cmp	r3, #0
 742 0040 F9D0     		beq	.L85
 743              		.loc 1 89 0 is_stmt 0 discriminator 1
 744 0042 E068     		ldr	r0, [r4, #12]
 745 0044 A168     		ldr	r1, [r4, #8]
 746              	.LVL61:
 747 0046 4208     		lsr	r2, r0, #1
 748 0048 201C     		mov	r0, r4
 749 004a 9847     		blx	r3
 750              	.LVL62:
 751 004c F3E7     		b	.L85
 752              	.LVL63:
 753              	.L116:
 754              		.loc 1 77 0 is_stmt 1
 755 004e 201C     		mov	r0, r4
 756 0050 FFF7FEFF 		bl	adc_lld_stop_conversion
 757              	.LVL64:
 758 0054 2369     		ldr	r3, [r4, #16]
 759 0056 9B68     		ldr	r3, [r3, #8]
 760 0058 002B     		cmp	r3, #0
 761 005a 07D0     		beq	.L88
 762              		.loc 1 77 0 is_stmt 0 discriminator 1
 763 005c 0522     		mov	r2, #5
 764 005e 2270     		strb	r2, [r4]
 765 0060 201C     		mov	r0, r4
 766 0062 0021     		mov	r1, #0
 767 0064 9847     		blx	r3
 768              	.LVL65:
 769 0066 2378     		ldrb	r3, [r4]
 770 0068 052B     		cmp	r3, #5
 771 006a 12D0     		beq	.L117
 772              	.L88:
 773              		.loc 1 77 0 discriminator 2
 774 006c 0023     		mov	r3, #0
 775 006e 2361     		str	r3, [r4, #16]
 776              	@ 77 "../../os/hal/platforms/STM32F0xx/adc_lld.c" 1
 777 0070 72B6     		cpsid   i
 778              	@ 0 "" 2
 779              		.code	16
 780 0072 FFF7FEFF 		bl	dbg_check_lock_from_isr
 781              	.LVL66:
 782 0076 6069     		ldr	r0, [r4, #20]
 783 0078 0028     		cmp	r0, #0
 784 007a 06D0     		beq	.L97
 785              	.LVL67:
 786              	.LBB30:
 787              		.loc 1 77 0 discriminator 1
 788 007c 0023     		mov	r3, #0
 789 007e 6361     		str	r3, [r4, #20]
 790 0080 0123     		mov	r3, #1
 791 0082 5B42     		neg	r3, r3
 792 0084 4362     		str	r3, [r0, #36]
ARM GAS  /var/folders/qh/xwg3v3kj02qbxczjpdb8lzfr0000gn/T//cc0aEZG6.s 			page 15


 793 0086 FFF7FEFF 		bl	chSchReadyI
 794              	.LVL68:
 795              	.L97:
 796              	.LBE30:
 797              		.loc 1 85 0 is_stmt 1 discriminator 2
 798 008a FFF7FEFF 		bl	dbg_check_unlock_from_isr
 799              	.LVL69:
 800              	@ 85 "../../os/hal/platforms/STM32F0xx/adc_lld.c" 1
 801 008e 62B6     		cpsie   i
 802              	@ 0 "" 2
 803              		.code	16
 804 0090 D1E7     		b	.L85
 805              	.L117:
 806              		.loc 1 77 0 discriminator 1
 807 0092 0223     		mov	r3, #2
 808 0094 2370     		strb	r3, [r4]
 809 0096 E9E7     		b	.L88
 810              	.LVL70:
 811              	.L94:
 812              		.loc 1 85 0 discriminator 2
 813 0098 A168     		ldr	r1, [r4, #8]
 814              	.LVL71:
 815 009a 201C     		mov	r0, r4
 816 009c A847     		blx	r5
 817              	.LVL72:
 818 009e CAE7     		b	.L85
 819              	.LVL73:
 820              	.L93:
 821 00a0 201C     		mov	r0, r4
 822 00a2 FFF7FEFF 		bl	adc_lld_stop_conversion
 823              	.LVL74:
 824 00a6 2369     		ldr	r3, [r4, #16]
 825 00a8 5B68     		ldr	r3, [r3, #4]
 826 00aa 002B     		cmp	r3, #0
 827 00ac 17D0     		beq	.L95
 828              		.loc 1 85 0 is_stmt 0 discriminator 1
 829 00ae 0422     		mov	r2, #4
 830 00b0 2270     		strb	r2, [r4]
 831 00b2 201C     		mov	r0, r4
 832 00b4 A168     		ldr	r1, [r4, #8]
 833 00b6 E268     		ldr	r2, [r4, #12]
 834 00b8 9847     		blx	r3
 835              	.LVL75:
 836 00ba 2378     		ldrb	r3, [r4]
 837 00bc 042B     		cmp	r3, #4
 838 00be 0BD0     		beq	.L118
 839              	.L96:
 840              	@ 85 "../../os/hal/platforms/STM32F0xx/adc_lld.c" 1
 841 00c0 72B6     		cpsid   i
 842              	@ 0 "" 2
 843              		.code	16
 844 00c2 FFF7FEFF 		bl	dbg_check_lock_from_isr
 845              	.LVL76:
 846 00c6 6069     		ldr	r0, [r4, #20]
 847 00c8 0028     		cmp	r0, #0
 848 00ca DED0     		beq	.L97
 849              	.LVL77:
ARM GAS  /var/folders/qh/xwg3v3kj02qbxczjpdb8lzfr0000gn/T//cc0aEZG6.s 			page 16


 850              	.LBB31:
 851 00cc 0023     		mov	r3, #0
 852 00ce 6361     		str	r3, [r4, #20]
 853 00d0 4362     		str	r3, [r0, #36]
 854 00d2 FFF7FEFF 		bl	chSchReadyI
 855              	.LVL78:
 856 00d6 D8E7     		b	.L97
 857              	.L118:
 858              	.LBE31:
 859 00d8 2570     		strb	r5, [r4]
 860 00da 2661     		str	r6, [r4, #16]
 861 00dc F0E7     		b	.L96
 862              	.L95:
 863              		.loc 1 85 0 discriminator 2
 864 00de 2570     		strb	r5, [r4]
 865 00e0 2361     		str	r3, [r4, #16]
 866 00e2 EDE7     		b	.L96
 867              		.cfi_endproc
 868              	.LFE41:
 869              		.size	adc_lld_serve_rx_interrupt, .-adc_lld_serve_rx_interrupt
 870              		.global	ADCD1
 871 00e4 C046C046 		.section	.bss.ADCD1,"aw",%nobits
 871      C046C046 
 871      C046C046 
 872              		.align	2
 873              		.set	.LANCHOR0,. + 0
 874              		.type	ADCD1, %object
 875              		.size	ADCD1, 52
 876              	ADCD1:
 877 0000 00000000 		.space	52
 877      00000000 
 877      00000000 
 877      00000000 
 877      00000000 
 878              		.text
 879              	.Letext0:
 880              		.file 2 "/usr/local/Cellar/gcc-arm-none-eabi-48/20131218/lib/gcc/arm-none-eabi/4.8.3/include/stdde
 881              		.file 3 "/usr/local/Cellar/gcc-arm-none-eabi-48/20131218/arm-none-eabi/include/stdint.h"
 882              		.file 4 "../../os/ports/GCC/ARMCMx/chtypes.h"
 883              		.file 5 "../../os/kernel/include/chlists.h"
 884              		.file 6 "../../os/kernel/include/chthreads.h"
 885              		.file 7 "../../os/ports/GCC/ARMCMx/chcore_v6m.h"
 886              		.file 8 "../../os/kernel/include/chmtx.h"
 887              		.file 9 "../../os/hal/platforms/STM32F0xx/stm32f0xx.h"
 888              		.file 10 "../../os/hal/platforms/STM32F0xx/stm32_dma.h"
 889              		.file 11 "../../os/hal/include/adc.h"
 890              		.file 12 "../../os/hal/platforms/STM32F0xx/adc_lld.h"
 891              		.file 13 "../../os/ports/common/ARMCMx/nvic.h"
 892              		.file 14 "../../os/kernel/include/chschd.h"
 893              		.file 15 "../../os/kernel/include/chdebug.h"