ARM GAS  /var/folders/qh/xwg3v3kj02qbxczjpdb8lzfr0000gn/T//cc0aEZG6.s 			page 1


   1              		.cpu cortex-m0
   2              		.fpu softvfp
   3              		.eabi_attribute 20, 1
   4              		.eabi_attribute 21, 1
   5              		.eabi_attribute 23, 3
   6              		.eabi_attribute 24, 1
   7              		.eabi_attribute 25, 1
   8              		.eabi_attribute 26, 1
   9              		.eabi_attribute 30, 2
  10              		.eabi_attribute 34, 0
  11              		.eabi_attribute 18, 4
  12              		.code	16
  13              		.file	"adc_lld.c"
  14              		.text
  15              	.Ltext0:
  16              		.cfi_sections	.debug_frame
  17              		.section	.text.adc_lld_init,"ax",%progbits
  18              		.align	2
  19              		.p2align 4,,15
  20              		.global	adc_lld_init
  21              		.code	16
  22              		.thumb_func
  23              		.type	adc_lld_init, %function
  24              	adc_lld_init:
  25              	.LFB43:
  26              		.file 1 "../../os/hal/platforms/STM32F0xx/adc_lld.c"
  27              		.loc 1 143 0
  28              		.cfi_startproc
  29 0000 38B5     		push	{r3, r4, r5, lr}
  30              		.cfi_def_cfa_offset 16
  31              		.cfi_offset 3, -16
  32              		.cfi_offset 4, -12
  33              		.cfi_offset 5, -8
  34              		.cfi_offset 14, -4
  35              		.loc 1 147 0
  36 0002 124D     		ldr	r5, .L5
  37              		.loc 1 148 0
  38 0004 124C     		ldr	r4, .L5+4
  39              		.loc 1 147 0
  40 0006 281C     		mov	r0, r5
  41 0008 FFF7FEFF 		bl	adcObjectInit
  42              	.LVL0:
  43              		.loc 1 149 0
  44 000c 114B     		ldr	r3, .L5+8
  45              		.loc 1 159 0
  46 000e 8021     		mov	r1, #128
  47              		.loc 1 149 0
  48 0010 EB62     		str	r3, [r5, #44]
  49              		.loc 1 150 0
  50 0012 114B     		ldr	r3, .L5+12
  51              		.loc 1 159 0
  52 0014 0C20     		mov	r0, #12
  53              		.loc 1 150 0
  54 0016 2B63     		str	r3, [r5, #48]
  55              		.loc 1 148 0
  56 0018 AC62     		str	r4, [r5, #40]
  57              		.loc 1 159 0
ARM GAS  /var/folders/qh/xwg3v3kj02qbxczjpdb8lzfr0000gn/T//cc0aEZG6.s 			page 2


  58 001a FFF7FEFF 		bl	nvicEnableVector
  59              	.LVL1:
  60              		.loc 1 162 0
  61 001e 0F4B     		ldr	r3, .L5+16
  62 0020 8022     		mov	r2, #128
  63 0022 9969     		ldr	r1, [r3, #24]
  64 0024 9200     		lsl	r2, r2, #2
  65 0026 0A43     		orr	r2, r1
  66 0028 9A61     		str	r2, [r3, #24]
  67              		.loc 1 163 0
  68 002a A368     		ldr	r3, [r4, #8]
  69              		.loc 1 164 0
  70 002c A268     		ldr	r2, [r4, #8]
  71 002e 8023     		mov	r3, #128
  72 0030 1B06     		lsl	r3, r3, #24
  73 0032 1343     		orr	r3, r2
  74 0034 A360     		str	r3, [r4, #8]
  75              		.loc 1 165 0
  76 0036 221C     		mov	r2, r4
  77              	.L3:
  78              		.loc 1 165 0 is_stmt 0 discriminator 1
  79 0038 9368     		ldr	r3, [r2, #8]
  80 003a 002B     		cmp	r3, #0
  81 003c FCDB     		blt	.L3
  82              		.loc 1 167 0 is_stmt 1
  83 003e 074B     		ldr	r3, .L5+16
  84 0040 074A     		ldr	r2, .L5+20
  85 0042 9969     		ldr	r1, [r3, #24]
  86              		.loc 1 168 0
  87              		@ sp needed
  88              		.loc 1 167 0
  89 0044 0A40     		and	r2, r1
  90 0046 9A61     		str	r2, [r3, #24]
  91              		.loc 1 168 0
  92 0048 38BD     		pop	{r3, r4, r5, pc}
  93              	.L6:
  94 004a C046     		.align	2
  95              	.L5:
  96 004c 00000000 		.word	.LANCHOR0
  97 0050 00240140 		.word	1073816576
  98 0054 00000000 		.word	_stm32_dma_streams
  99 0058 8A250000 		.word	9610
 100 005c 00100240 		.word	1073876992
 101 0060 FFFDFFFF 		.word	-513
 102              		.cfi_endproc
 103              	.LFE43:
 104              		.size	adc_lld_init, .-adc_lld_init
 105 0064 C046C046 		.section	.text.adc_lld_start,"ax",%progbits
 105      C046C046 
 105      C046C046 
 106              		.align	2
 107              		.p2align 4,,15
 108              		.global	adc_lld_start
 109              		.code	16
 110              		.thumb_func
 111              		.type	adc_lld_start, %function
 112              	adc_lld_start:
ARM GAS  /var/folders/qh/xwg3v3kj02qbxczjpdb8lzfr0000gn/T//cc0aEZG6.s 			page 3


 113              	.LFB44:
 114              		.loc 1 177 0
 115              		.cfi_startproc
 116              	.LVL2:
 117              		.loc 1 180 0
 118 0000 0378     		ldrb	r3, [r0]
 119              		.loc 1 177 0
 120 0002 10B5     		push	{r4, lr}
 121              		.cfi_def_cfa_offset 8
 122              		.cfi_offset 4, -8
 123              		.cfi_offset 14, -4
 124              		.loc 1 177 0
 125 0004 041C     		mov	r4, r0
 126              		.loc 1 180 0
 127 0006 012B     		cmp	r3, #1
 128 0008 00D0     		beq	.L12
 129              	.LVL3:
 130              	.L7:
 131              		.loc 1 210 0
 132              		@ sp needed
 133              	.LVL4:
 134 000a 10BD     		pop	{r4, pc}
 135              	.LVL5:
 136              	.L12:
 137              		.loc 1 182 0
 138 000c 0F4B     		ldr	r3, .L14
 139 000e 9842     		cmp	r0, r3
 140 0010 07D0     		beq	.L13
 141              	.LVL6:
 142              	.L9:
 143              		.loc 1 206 0
 144 0012 A26A     		ldr	r2, [r4, #40]
 145 0014 0123     		mov	r3, #1
 146 0016 9360     		str	r3, [r2, #8]
 147              		.loc 1 207 0
 148 0018 0121     		mov	r1, #1
 149              	.L11:
 150              		.loc 1 207 0 is_stmt 0 discriminator 1
 151 001a 1368     		ldr	r3, [r2]
 152 001c 1942     		tst	r1, r3
 153 001e FCD0     		beq	.L11
 154 0020 F3E7     		b	.L7
 155              	.LVL7:
 156              	.L13:
 157              	.LBB6:
 158              		.loc 1 184 0 is_stmt 1
 159 0022 0221     		mov	r1, #2
 160 0024 0A4A     		ldr	r2, .L14+4
 161 0026 231C     		mov	r3, r4
 162 0028 C06A     		ldr	r0, [r0, #44]
 163              	.LVL8:
 164 002a FFF7FEFF 		bl	dmaStreamAllocate
 165              	.LVL9:
 166              		.loc 1 189 0
 167 002e E36A     		ldr	r3, [r4, #44]
 168 0030 084A     		ldr	r2, .L14+8
 169 0032 1B68     		ldr	r3, [r3]
ARM GAS  /var/folders/qh/xwg3v3kj02qbxczjpdb8lzfr0000gn/T//cc0aEZG6.s 			page 4


 170 0034 9A60     		str	r2, [r3, #8]
 171              		.loc 1 190 0
 172 0036 084B     		ldr	r3, .L14+12
 173 0038 8022     		mov	r2, #128
 174 003a 9969     		ldr	r1, [r3, #24]
 175 003c 9200     		lsl	r2, r2, #2
 176 003e 0A43     		orr	r2, r1
 177 0040 9A61     		str	r2, [r3, #24]
 178              		.loc 1 193 0
 179 0042 8022     		mov	r2, #128
 180 0044 054B     		ldr	r3, .L14+16
 181 0046 5201     		lsl	r2, r2, #5
 182 0048 1A61     		str	r2, [r3, #16]
 183 004a E2E7     		b	.L9
 184              	.L15:
 185              		.align	2
 186              	.L14:
 187 004c 00000000 		.word	.LANCHOR0
 188 0050 00000000 		.word	adc_lld_serve_rx_interrupt
 189 0054 40240140 		.word	1073816640
 190 0058 00100240 		.word	1073876992
 191 005c 00240140 		.word	1073816576
 192              	.LBE6:
 193              		.cfi_endproc
 194              	.LFE44:
 195              		.size	adc_lld_start, .-adc_lld_start
 196              		.section	.text.adc_lld_stop,"ax",%progbits
 197              		.align	2
 198              		.p2align 4,,15
 199              		.global	adc_lld_stop
 200              		.code	16
 201              		.thumb_func
 202              		.type	adc_lld_stop, %function
 203              	adc_lld_stop:
 204              	.LFB45:
 205              		.loc 1 219 0
 206              		.cfi_startproc
 207              	.LVL10:
 208              		.loc 1 222 0
 209 0000 0378     		ldrb	r3, [r0]
 210              		.loc 1 219 0
 211 0002 10B5     		push	{r4, lr}
 212              		.cfi_def_cfa_offset 8
 213              		.cfi_offset 4, -8
 214              		.cfi_offset 14, -4
 215              		.loc 1 219 0
 216 0004 041C     		mov	r4, r0
 217              		.loc 1 222 0
 218 0006 022B     		cmp	r3, #2
 219 0008 00D0     		beq	.L33
 220              	.LVL11:
 221              	.L16:
 222              		.loc 1 239 0
 223              		@ sp needed
 224              	.LVL12:
 225 000a 10BD     		pop	{r4, pc}
 226              	.LVL13:
ARM GAS  /var/folders/qh/xwg3v3kj02qbxczjpdb8lzfr0000gn/T//cc0aEZG6.s 			page 5


 227              	.L33:
 228              		.loc 1 224 0
 229 000c C06A     		ldr	r0, [r0, #44]
 230              	.LVL14:
 231 000e FFF7FEFF 		bl	dmaStreamRelease
 232              	.LVL15:
 233              		.loc 1 227 0
 234 0012 A26A     		ldr	r2, [r4, #40]
 235 0014 9368     		ldr	r3, [r2, #8]
 236 0016 D907     		lsl	r1, r3, #31
 237 0018 0AD5     		bpl	.L26
 238              	.LVL16:
 239              	.LBB11:
 240              	.LBB12:
 241              		.loc 1 58 0
 242 001a 9368     		ldr	r3, [r2, #8]
 243 001c 5907     		lsl	r1, r3, #29
 244 001e 10D4     		bmi	.L22
 245              	.L24:
 246              	.LBE12:
 247              	.LBE11:
 248              		.loc 1 229 0
 249 0020 9168     		ldr	r1, [r2, #8]
 250 0022 0223     		mov	r3, #2
 251 0024 0B43     		orr	r3, r1
 252 0026 9360     		str	r3, [r2, #8]
 253              		.loc 1 230 0
 254 0028 0221     		mov	r1, #2
 255              	.L23:
 256              		.loc 1 230 0 is_stmt 0 discriminator 1
 257 002a 9368     		ldr	r3, [r2, #8]
 258 002c 1942     		tst	r1, r3
 259 002e FCD1     		bne	.L23
 260              	.LVL17:
 261              	.L26:
 262              		.loc 1 235 0 is_stmt 1
 263 0030 084B     		ldr	r3, .L34
 264 0032 9C42     		cmp	r4, r3
 265 0034 E9D1     		bne	.L16
 266              		.loc 1 236 0
 267 0036 084B     		ldr	r3, .L34+4
 268 0038 084A     		ldr	r2, .L34+8
 269 003a 9969     		ldr	r1, [r3, #24]
 270 003c 0A40     		and	r2, r1
 271 003e 9A61     		str	r2, [r3, #24]
 272 0040 E3E7     		b	.L16
 273              	.LVL18:
 274              	.L22:
 275              	.LBB16:
 276              	.LBB15:
 277              	.LBB13:
 278              	.LBB14:
 279              		.loc 1 59 0
 280 0042 9168     		ldr	r1, [r2, #8]
 281 0044 1023     		mov	r3, #16
 282 0046 0B43     		orr	r3, r1
 283 0048 9360     		str	r3, [r2, #8]
ARM GAS  /var/folders/qh/xwg3v3kj02qbxczjpdb8lzfr0000gn/T//cc0aEZG6.s 			page 6


 284              		.loc 1 60 0
 285 004a 1021     		mov	r1, #16
 286              	.L25:
 287 004c 9368     		ldr	r3, [r2, #8]
 288 004e 1942     		tst	r1, r3
 289 0050 FCD1     		bne	.L25
 290 0052 E5E7     		b	.L24
 291              	.L35:
 292              		.align	2
 293              	.L34:
 294 0054 00000000 		.word	.LANCHOR0
 295 0058 00100240 		.word	1073876992
 296 005c FFFDFFFF 		.word	-513
 297              	.LBE14:
 298              	.LBE13:
 299              	.LBE15:
 300              	.LBE16:
 301              		.cfi_endproc
 302              	.LFE45:
 303              		.size	adc_lld_stop, .-adc_lld_stop
 304              		.section	.text.adc_lld_start_conversion,"ax",%progbits
 305              		.align	2
 306              		.p2align 4,,15
 307              		.global	adc_lld_start_conversion
 308              		.code	16
 309              		.thumb_func
 310              		.type	adc_lld_start_conversion, %function
 311              	adc_lld_start_conversion:
 312              	.LFB46:
 313              		.loc 1 248 0
 314              		.cfi_startproc
 315              	.LVL19:
 316              		.loc 1 250 0
 317 0000 0269     		ldr	r2, [r0, #16]
 318              	.LVL20:
 319              		.loc 1 248 0
 320 0002 30B5     		push	{r4, r5, lr}
 321              		.cfi_def_cfa_offset 12
 322              		.cfi_offset 4, -12
 323              		.cfi_offset 5, -8
 324              		.cfi_offset 14, -4
 325              		.loc 1 254 0
 326 0004 1378     		ldrb	r3, [r2]
 327              		.loc 1 253 0
 328 0006 016B     		ldr	r1, [r0, #48]
 329              	.LVL21:
 330              		.loc 1 256 0
 331 0008 C468     		ldr	r4, [r0, #12]
 332              		.loc 1 254 0
 333 000a 002B     		cmp	r3, #0
 334 000c 03D0     		beq	.L38
 335              	.LVL22:
 336              		.loc 1 256 0
 337 000e 012C     		cmp	r4, #1
 338 0010 21D9     		bls	.L40
 339              		.loc 1 259 0
 340 0012 2423     		mov	r3, #36
ARM GAS  /var/folders/qh/xwg3v3kj02qbxczjpdb8lzfr0000gn/T//cc0aEZG6.s 			page 7


 341 0014 1943     		orr	r1, r3
 342              	.LVL23:
 343              	.L38:
 344              		.loc 1 262 0
 345 0016 C36A     		ldr	r3, [r0, #44]
 346 0018 8568     		ldr	r5, [r0, #8]
 347 001a 1B68     		ldr	r3, [r3]
 348              		.loc 1 280 0
 349              		@ sp needed
 350              		.loc 1 262 0
 351 001c DD60     		str	r5, [r3, #12]
 352              		.loc 1 263 0
 353 001e 5588     		ldrh	r5, [r2, #2]
 354 0020 6C43     		mul	r4, r5
 355 0022 5C60     		str	r4, [r3, #4]
 356              		.loc 1 265 0
 357 0024 1960     		str	r1, [r3]
 358              		.loc 1 266 0
 359 0026 1C68     		ldr	r4, [r3]
 360 0028 0121     		mov	r1, #1
 361              	.LVL24:
 362 002a 2143     		orr	r1, r4
 363 002c 1960     		str	r1, [r3]
 364              	.LVL25:
 365              		.loc 1 270 0
 366 002e 836A     		ldr	r3, [r0, #40]
 367              		.loc 1 273 0
 368 0030 5569     		ldr	r5, [r2, #20]
 369              		.loc 1 270 0
 370 0032 1968     		ldr	r1, [r3]
 371 0034 1960     		str	r1, [r3]
 372              		.loc 1 271 0
 373 0036 9021     		mov	r1, #144
 374 0038 5960     		str	r1, [r3, #4]
 375              		.loc 1 272 0
 376 003a 1169     		ldr	r1, [r2, #16]
 377 003c 1962     		str	r1, [r3, #32]
 378              		.loc 1 274 0
 379 003e 9169     		ldr	r1, [r2, #24]
 380              		.loc 1 273 0
 381 0040 5D61     		str	r5, [r3, #20]
 382              		.loc 1 277 0
 383 0042 D268     		ldr	r2, [r2, #12]
 384              	.LVL26:
 385              		.loc 1 274 0
 386 0044 9962     		str	r1, [r3, #40]
 387              		.loc 1 277 0
 388 0046 0549     		ldr	r1, .L41
 389 0048 0A43     		orr	r2, r1
 390 004a DA60     		str	r2, [r3, #12]
 391              		.loc 1 279 0
 392 004c 9968     		ldr	r1, [r3, #8]
 393 004e 0422     		mov	r2, #4
 394 0050 0A43     		orr	r2, r1
 395 0052 9A60     		str	r2, [r3, #8]
 396              		.loc 1 280 0
 397 0054 30BD     		pop	{r4, r5, pc}
ARM GAS  /var/folders/qh/xwg3v3kj02qbxczjpdb8lzfr0000gn/T//cc0aEZG6.s 			page 8


 398              	.LVL27:
 399              	.L40:
 400              		.loc 1 255 0
 401 0056 2023     		mov	r3, #32
 402 0058 1943     		orr	r1, r3
 403              	.LVL28:
 404 005a DCE7     		b	.L38
 405              	.L42:
 406              		.align	2
 407              	.L41:
 408 005c 03200000 		.word	8195
 409              		.cfi_endproc
 410              	.LFE46:
 411              		.size	adc_lld_start_conversion, .-adc_lld_start_conversion
 412              		.section	.text.adc_lld_stop_conversion,"ax",%progbits
 413              		.align	2
 414              		.p2align 4,,15
 415              		.global	adc_lld_stop_conversion
 416              		.code	16
 417              		.thumb_func
 418              		.type	adc_lld_stop_conversion, %function
 419              	adc_lld_stop_conversion:
 420              	.LFB47:
 421              		.loc 1 289 0
 422              		.cfi_startproc
 423              	.LVL29:
 424              		.loc 1 291 0
 425 0000 C36A     		ldr	r3, [r0, #44]
 426              		.loc 1 289 0
 427 0002 10B5     		push	{r4, lr}
 428              		.cfi_def_cfa_offset 8
 429              		.cfi_offset 4, -8
 430              		.cfi_offset 14, -4
 431              		.loc 1 291 0
 432 0004 1968     		ldr	r1, [r3]
 433 0006 0F22     		mov	r2, #15
 434 0008 0C68     		ldr	r4, [r1]
 435 000a 9443     		bic	r4, r2
 436 000c 0C60     		str	r4, [r1]
 437 000e 5968     		ldr	r1, [r3, #4]
 438 0010 1B7A     		ldrb	r3, [r3, #8]
 439 0012 9A40     		lsl	r2, r2, r3
 440 0014 0A60     		str	r2, [r1]
 441              		.loc 1 292 0
 442 0016 826A     		ldr	r2, [r0, #40]
 443              	.LVL30:
 444              	.LBB21:
 445              	.LBB22:
 446              		.loc 1 58 0
 447 0018 9368     		ldr	r3, [r2, #8]
 448 001a 5907     		lsl	r1, r3, #29
 449 001c 00D4     		bmi	.L50
 450              	.L43:
 451              	.LBE22:
 452              	.LBE21:
 453              		.loc 1 293 0
 454              		@ sp needed
ARM GAS  /var/folders/qh/xwg3v3kj02qbxczjpdb8lzfr0000gn/T//cc0aEZG6.s 			page 9


 455 001e 10BD     		pop	{r4, pc}
 456              	.L50:
 457              	.LVL31:
 458              	.LBB26:
 459              	.LBB25:
 460              	.LBB23:
 461              	.LBB24:
 462              		.loc 1 59 0
 463 0020 9168     		ldr	r1, [r2, #8]
 464 0022 1023     		mov	r3, #16
 465 0024 0B43     		orr	r3, r1
 466 0026 9360     		str	r3, [r2, #8]
 467              		.loc 1 60 0
 468 0028 1021     		mov	r1, #16
 469              	.L46:
 470 002a 9368     		ldr	r3, [r2, #8]
 471 002c 1942     		tst	r1, r3
 472 002e FCD1     		bne	.L46
 473 0030 F5E7     		b	.L43
 474              	.LBE24:
 475              	.LBE23:
 476              	.LBE25:
 477              	.LBE26:
 478              		.cfi_endproc
 479              	.LFE47:
 480              		.size	adc_lld_stop_conversion, .-adc_lld_stop_conversion
 481 0032 C046C046 		.section	.text.Vector70,"ax",%progbits
 481      C046C046 
 481      C046C046 
 481      C046
 482              		.align	2
 483              		.p2align 4,,15
 484              		.global	Vector70
 485              		.code	16
 486              		.thumb_func
 487              		.type	Vector70, %function
 488              	Vector70:
 489              	.LFB42:
 490              		.loc 1 105 0
 491              		.cfi_startproc
 492 0000 70B5     		push	{r4, r5, r6, lr}
 493              		.cfi_def_cfa_offset 16
 494              		.cfi_offset 4, -16
 495              		.cfi_offset 5, -12
 496              		.cfi_offset 6, -8
 497              		.cfi_offset 14, -4
 498              		.loc 1 108 0
 499              	@ 108 "../../os/hal/platforms/STM32F0xx/adc_lld.c" 1
 500 0002 7646     		mov     r6, lr
 501              	@ 0 "" 2
 502              	.LVL32:
 503              		.code	16
 504 0004 FFF7FEFF 		bl	dbg_check_enter_isr
 505              	.LVL33:
 506              		.loc 1 110 0
 507 0008 314B     		ldr	r3, .L83
 508              		.loc 1 115 0
ARM GAS  /var/folders/qh/xwg3v3kj02qbxczjpdb8lzfr0000gn/T//cc0aEZG6.s 			page 10


 509 000a 324C     		ldr	r4, .L83+4
 510              		.loc 1 110 0
 511 000c 1D68     		ldr	r5, [r3]
 512              	.LVL34:
 513              		.loc 1 111 0
 514 000e 1D60     		str	r5, [r3]
 515              		.loc 1 115 0
 516 0010 2369     		ldr	r3, [r4, #16]
 517 0012 002B     		cmp	r3, #0
 518 0014 03D0     		beq	.L53
 519              		.loc 1 118 0
 520 0016 EB06     		lsl	r3, r5, #27
 521 0018 07D4     		bmi	.L79
 522              	.L54:
 523              		.loc 1 124 0
 524 001a 2B06     		lsl	r3, r5, #24
 525 001c 2ED4     		bmi	.L80
 526              	.L53:
 527              		.loc 1 130 0
 528 001e FFF7FEFF 		bl	dbg_check_leave_isr
 529              	.LVL35:
 530 0022 301C     		mov	r0, r6
 531 0024 FFF7FEFF 		bl	_port_irq_epilogue
 532              	.LVL36:
 533              		.loc 1 131 0
 534              		@ sp needed
 535              	.LVL37:
 536              	.LVL38:
 537 0028 70BD     		pop	{r4, r5, r6, pc}
 538              	.LVL39:
 539              	.L79:
 540              		.loc 1 119 0 discriminator 1
 541 002a E36A     		ldr	r3, [r4, #44]
 542 002c 1B68     		ldr	r3, [r3]
 543 002e 5B68     		ldr	r3, [r3, #4]
 544              		.loc 1 118 0 discriminator 1
 545 0030 002B     		cmp	r3, #0
 546 0032 F2D0     		beq	.L54
 547              		.loc 1 122 0
 548 0034 201C     		mov	r0, r4
 549 0036 FFF7FEFF 		bl	adc_lld_stop_conversion
 550              	.LVL40:
 551 003a 2369     		ldr	r3, [r4, #16]
 552 003c 9B68     		ldr	r3, [r3, #8]
 553 003e 002B     		cmp	r3, #0
 554 0040 07D0     		beq	.L56
 555              		.loc 1 122 0 is_stmt 0 discriminator 1
 556 0042 0522     		mov	r2, #5
 557 0044 2270     		strb	r2, [r4]
 558 0046 201C     		mov	r0, r4
 559 0048 0121     		mov	r1, #1
 560 004a 9847     		blx	r3
 561              	.LVL41:
 562 004c 2378     		ldrb	r3, [r4]
 563 004e 052B     		cmp	r3, #5
 564 0050 3AD0     		beq	.L81
 565              	.L56:
ARM GAS  /var/folders/qh/xwg3v3kj02qbxczjpdb8lzfr0000gn/T//cc0aEZG6.s 			page 11


 566              		.loc 1 122 0 discriminator 2
 567 0052 0023     		mov	r3, #0
 568 0054 2361     		str	r3, [r4, #16]
 569              	@ 122 "../../os/hal/platforms/STM32F0xx/adc_lld.c" 1
 570 0056 72B6     		cpsid   i
 571              	@ 0 "" 2
 572              		.code	16
 573 0058 FFF7FEFF 		bl	dbg_check_lock_from_isr
 574              	.LVL42:
 575 005c 1D4C     		ldr	r4, .L83+4
 576 005e 6069     		ldr	r0, [r4, #20]
 577 0060 0028     		cmp	r0, #0
 578 0062 06D0     		beq	.L58
 579              	.LVL43:
 580              	.LBB27:
 581              		.loc 1 122 0 discriminator 1
 582 0064 0023     		mov	r3, #0
 583 0066 6361     		str	r3, [r4, #20]
 584 0068 0123     		mov	r3, #1
 585 006a 5B42     		neg	r3, r3
 586 006c 4362     		str	r3, [r0, #36]
 587 006e FFF7FEFF 		bl	chSchReadyI
 588              	.LVL44:
 589              	.L58:
 590              	.LBE27:
 591              		.loc 1 122 0 discriminator 2
 592 0072 FFF7FEFF 		bl	dbg_check_unlock_from_isr
 593              	.LVL45:
 594              	@ 122 "../../os/hal/platforms/STM32F0xx/adc_lld.c" 1
 595 0076 62B6     		cpsie   i
 596              	@ 0 "" 2
 597              		.loc 1 124 0 is_stmt 1 discriminator 2
 598              		.code	16
 599 0078 2B06     		lsl	r3, r5, #24
 600 007a D0D5     		bpl	.L53
 601              	.L80:
 602              		.loc 1 126 0
 603 007c 201C     		mov	r0, r4
 604 007e FFF7FEFF 		bl	adc_lld_stop_conversion
 605              	.LVL46:
 606 0082 2369     		ldr	r3, [r4, #16]
 607 0084 9B68     		ldr	r3, [r3, #8]
 608 0086 002B     		cmp	r3, #0
 609 0088 07D0     		beq	.L61
 610              		.loc 1 126 0 is_stmt 0 discriminator 1
 611 008a 0522     		mov	r2, #5
 612 008c 2270     		strb	r2, [r4]
 613 008e 201C     		mov	r0, r4
 614 0090 0221     		mov	r1, #2
 615 0092 9847     		blx	r3
 616              	.LVL47:
 617 0094 2378     		ldrb	r3, [r4]
 618 0096 052B     		cmp	r3, #5
 619 0098 13D0     		beq	.L82
 620              	.L61:
 621              		.loc 1 126 0 discriminator 2
 622 009a 0023     		mov	r3, #0
ARM GAS  /var/folders/qh/xwg3v3kj02qbxczjpdb8lzfr0000gn/T//cc0aEZG6.s 			page 12


 623 009c 2361     		str	r3, [r4, #16]
 624              	@ 126 "../../os/hal/platforms/STM32F0xx/adc_lld.c" 1
 625 009e 72B6     		cpsid   i
 626              	@ 0 "" 2
 627              		.code	16
 628 00a0 FFF7FEFF 		bl	dbg_check_lock_from_isr
 629              	.LVL48:
 630 00a4 0B4B     		ldr	r3, .L83+4
 631 00a6 5869     		ldr	r0, [r3, #20]
 632 00a8 0028     		cmp	r0, #0
 633 00aa 06D0     		beq	.L63
 634              	.LVL49:
 635              	.LBB28:
 636              		.loc 1 126 0 discriminator 1
 637 00ac 0022     		mov	r2, #0
 638 00ae 5A61     		str	r2, [r3, #20]
 639 00b0 0123     		mov	r3, #1
 640 00b2 5B42     		neg	r3, r3
 641 00b4 4362     		str	r3, [r0, #36]
 642 00b6 FFF7FEFF 		bl	chSchReadyI
 643              	.LVL50:
 644              	.L63:
 645              	.LBE28:
 646              		.loc 1 126 0 discriminator 2
 647 00ba FFF7FEFF 		bl	dbg_check_unlock_from_isr
 648              	.LVL51:
 649              	@ 126 "../../os/hal/platforms/STM32F0xx/adc_lld.c" 1
 650 00be 62B6     		cpsie   i
 651              	@ 0 "" 2
 652              		.code	16
 653 00c0 ADE7     		b	.L53
 654              	.L82:
 655              		.loc 1 126 0 discriminator 1
 656 00c2 0223     		mov	r3, #2
 657 00c4 2370     		strb	r3, [r4]
 658 00c6 E8E7     		b	.L61
 659              	.L81:
 660              		.loc 1 122 0 is_stmt 1 discriminator 1
 661 00c8 0223     		mov	r3, #2
 662 00ca 2370     		strb	r3, [r4]
 663 00cc C1E7     		b	.L56
 664              	.L84:
 665 00ce C046     		.align	2
 666              	.L83:
 667 00d0 00240140 		.word	1073816576
 668 00d4 00000000 		.word	.LANCHOR0
 669              		.cfi_endproc
 670              	.LFE42:
 671              		.size	Vector70, .-Vector70
 672 00d8 C046C046 		.section	.text.adc_lld_serve_rx_interrupt,"ax",%progbits
 672      C046C046 
 673              		.align	2
 674              		.p2align 4,,15
 675              		.code	16
 676              		.thumb_func
 677              		.type	adc_lld_serve_rx_interrupt, %function
 678              	adc_lld_serve_rx_interrupt:
ARM GAS  /var/folders/qh/xwg3v3kj02qbxczjpdb8lzfr0000gn/T//cc0aEZG6.s 			page 13


 679              	.LFB41:
 680              		.loc 1 71 0
 681              		.cfi_startproc
 682              	.LVL52:
 683 0000 70B5     		push	{r4, r5, r6, lr}
 684              		.cfi_def_cfa_offset 16
 685              		.cfi_offset 4, -16
 686              		.cfi_offset 5, -12
 687              		.cfi_offset 6, -8
 688              		.cfi_offset 14, -4
 689              		.loc 1 71 0
 690 0002 041C     		mov	r4, r0
 691              		.loc 1 74 0
 692 0004 0807     		lsl	r0, r1, #28
 693 0006 22D4     		bmi	.L116
 694              	.LVL53:
 695              		.loc 1 82 0
 696 0008 2369     		ldr	r3, [r4, #16]
 697 000a 002B     		cmp	r3, #0
 698 000c 13D0     		beq	.L85
 699              		.loc 1 83 0
 700 000e 0225     		mov	r5, #2
 701 0010 0D42     		tst	r5, r1
 702 0012 11D0     		beq	.L92
 703              		.loc 1 85 0
 704 0014 1E78     		ldrb	r6, [r3]
 705 0016 002E     		cmp	r6, #0
 706 0018 42D0     		beq	.L93
 707              		.loc 1 85 0 is_stmt 0 discriminator 1
 708 001a 5D68     		ldr	r5, [r3, #4]
 709 001c 002D     		cmp	r5, #0
 710 001e 0AD0     		beq	.L85
 711 0020 E268     		ldr	r2, [r4, #12]
 712 0022 012A     		cmp	r2, #1
 713 0024 38D9     		bls	.L94
 714              	.LBB29:
 715 0026 5988     		ldrh	r1, [r3, #2]
 716              	.LVL54:
 717 0028 5208     		lsr	r2, r2, #1
 718              	.LVL55:
 719 002a 5143     		mul	r1, r2
 720              	.LVL56:
 721 002c A368     		ldr	r3, [r4, #8]
 722 002e 4900     		lsl	r1, r1, #1
 723              	.LVL57:
 724 0030 5918     		add	r1, r3, r1
 725 0032 201C     		mov	r0, r4
 726 0034 A847     		blx	r5
 727              	.LVL58:
 728              	.L85:
 729              	.LBE29:
 730              		.loc 1 93 0 is_stmt 1
 731              		@ sp needed
 732              	.LVL59:
 733 0036 70BD     		pop	{r4, r5, r6, pc}
 734              	.LVL60:
 735              	.L92:
ARM GAS  /var/folders/qh/xwg3v3kj02qbxczjpdb8lzfr0000gn/T//cc0aEZG6.s 			page 14


 736              		.loc 1 87 0
 737 0038 4807     		lsl	r0, r1, #29
 738 003a FCD5     		bpl	.L85
 739              		.loc 1 89 0
 740 003c 5B68     		ldr	r3, [r3, #4]
 741 003e 002B     		cmp	r3, #0
 742 0040 F9D0     		beq	.L85
 743              		.loc 1 89 0 is_stmt 0 discriminator 1
 744 0042 E068     		ldr	r0, [r4, #12]
 745 0044 A168     		ldr	r1, [r4, #8]
 746              	.LVL61:
 747 0046 4208     		lsr	r2, r0, #1
 748 0048 201C     		mov	r0, r4
 749 004a 9847     		blx	r3
 750              	.LVL62:
 751 004c F3E7     		b	.L85
 752              	.LVL63:
 753              	.L116:
 754              		.loc 1 77 0 is_stmt 1
 755 004e 201C     		mov	r0, r4
 756 0050 FFF7FEFF 		bl	adc_lld_stop_conversion
 757              	.LVL64:
 758 0054 2369     		ldr	r3, [r4, #16]
 759 0056 9B68     		ldr	r3, [r3, #8]
 760 0058 002B     		cmp	r3, #0
 761 005a 07D0     		beq	.L88
 762              		.loc 1 77 0 is_stmt 0 discriminator 1
 763 005c 0522     		mov	r2, #5
 764 005e 2270     		strb	r2, [r4]
 765 0060 201C     		mov	r0, r4
 766 0062 0021     		mov	r1, #0
 767 0064 9847     		blx	r3
 768              	.LVL65:
 769 0066 2378     		ldrb	r3, [r4]
 770 0068 052B     		cmp	r3, #5
 771 006a 12D0     		beq	.L117
 772              	.L88:
 773              		.loc 1 77 0 discriminator 2
 774 006c 0023     		mov	r3, #0
 775 006e 2361     		str	r3, [r4, #16]
 776              	@ 77 "../../os/hal/platforms/STM32F0xx/adc_lld.c" 1
 777 0070 72B6     		cpsid   i
 778              	@ 0 "" 2
 779              		.code	16
 780 0072 FFF7FEFF 		bl	dbg_check_lock_from_isr
 781              	.LVL66:
 782 0076 6069     		ldr	r0, [r4, #20]
 783 0078 0028     		cmp	r0, #0
 784 007a 06D0     		beq	.L97
 785              	.LVL67:
 786              	.LBB30:
 787              		.loc 1 77 0 discriminator 1
 788 007c 0023     		mov	r3, #0
 789 007e 6361     		str	r3, [r4, #20]
 790 0080 0123     		mov	r3, #1
 791 0082 5B42     		neg	r3, r3
 792 0084 4362     		str	r3, [r0, #36]
ARM GAS  /var/folders/qh/xwg3v3kj02qbxczjpdb8lzfr0000gn/T//cc0aEZG6.s 			page 15


 793 0086 FFF7FEFF 		bl	chSchReadyI
 794              	.LVL68:
 795              	.L97:
 796              	.LBE30:
 797              		.loc 1 85 0 is_stmt 1 discriminator 2
 798 008a FFF7FEFF 		bl	dbg_check_unlock_from_isr
 799              	.LVL69:
 800              	@ 85 "../../os/hal/platforms/STM32F0xx/adc_lld.c" 1
 801 008e 62B6     		cpsie   i
 802              	@ 0 "" 2
 803              		.code	16
 804 0090 D1E7     		b	.L85
 805              	.L117:
 806              		.loc 1 77 0 discriminator 1
 807 0092 0223     		mov	r3, #2
 808 0094 2370     		strb	r3, [r4]
 809 0096 E9E7     		b	.L88
 810              	.LVL70:
 811              	.L94:
 812              		.loc 1 85 0 discriminator 2
 813 0098 A168     		ldr	r1, [r4, #8]
 814              	.LVL71:
 815 009a 201C     		mov	r0, r4
 816 009c A847     		blx	r5
 817              	.LVL72:
 818 009e CAE7     		b	.L85
 819              	.LVL73:
 820              	.L93:
 821 00a0 201C     		mov	r0, r4
 822 00a2 FFF7FEFF 		bl	adc_lld_stop_conversion
 823              	.LVL74:
 824 00a6 2369     		ldr	r3, [r4, #16]
 825 00a8 5B68     		ldr	r3, [r3, #4]
 826 00aa 002B     		cmp	r3, #0
 827 00ac 17D0     		beq	.L95
 828              		.loc 1 85 0 is_stmt 0 discriminator 1
 829 00ae 0422     		mov	r2, #4
 830 00b0 2270     		strb	r2, [r4]
 831 00b2 201C     		mov	r0, r4
 832 00b4 A168     		ldr	r1, [r4, #8]
 833 00b6 E268     		ldr	r2, [r4, #12]
 834 00b8 9847     		blx	r3
 835              	.LVL75:
 836 00ba 2378     		ldrb	r3, [r4]
 837 00bc 042B     		cmp	r3, #4
 838 00be 0BD0     		beq	.L118
 839              	.L96:
 840              	@ 85 "../../os/hal/platforms/STM32F0xx/adc_lld.c" 1
 841 00c0 72B6     		cpsid   i
 842              	@ 0 "" 2
 843              		.code	16
 844 00c2 FFF7FEFF 		bl	dbg_check_lock_from_isr
 845              	.LVL76:
 846 00c6 6069     		ldr	r0, [r4, #20]
 847 00c8 0028     		cmp	r0, #0
 848 00ca DED0     		beq	.L97
 849              	.LVL77:
ARM GAS  /var/folders/qh/xwg3v3kj02qbxczjpdb8lzfr0000gn/T//cc0aEZG6.s 			page 16


 850              	.LBB31:
 851 00cc 0023     		mov	r3, #0
 852 00ce 6361     		str	r3, [r4, #20]
 853 00d0 4362     		str	r3, [r0, #36]
 854 00d2 FFF7FEFF 		bl	chSchReadyI
 855              	.LVL78:
 856 00d6 D8E7     		b	.L97
 857              	.L118:
 858              	.LBE31:
 859 00d8 2570     		strb	r5, [r4]
 860 00da 2661     		str	r6, [r4, #16]
 861 00dc F0E7     		b	.L96
 862              	.L95:
 863              		.loc 1 85 0 discriminator 2
 864 00de 2570     		strb	r5, [r4]
 865 00e0 2361     		str	r3, [r4, #16]
 866 00e2 EDE7     		b	.L96
 867              		.cfi_endproc
 868              	.LFE41:
 869              		.size	adc_lld_serve_rx_interrupt, .-adc_lld_serve_rx_interrupt
 870              		.global	ADCD1
 871 00e4 C046C046 		.section	.bss.ADCD1,"aw",%nobits
 871      C046C046 
 871      C046C046 
 872              		.align	2
 873              		.set	.LANCHOR0,. + 0
 874              		.type	ADCD1, %object
 875              		.size	ADCD1, 52
 876              	ADCD1:
 877 0000 00000000 		.space	52
 877      00000000 
 877      00000000 
 877      00000000 
 877      00000000 
 878              		.text
 879              	.Letext0:
 880              		.file 2 "/usr/local/Cellar/gcc-arm-none-eabi-48/20131218/lib/gcc/arm-none-eabi/4.8.3/include/stdde
 881              		.file 3 "/usr/local/Cellar/gcc-arm-none-eabi-48/20131218/arm-none-eabi/include/stdint.h"
 882              		.file 4 "../../os/ports/GCC/ARMCMx/chtypes.h"
 883              		.file 5 "../../os/kernel/include/chlists.h"
 884              		.file 6 "../../os/kernel/include/chthreads.h"
 885              		.file 7 "../../os/ports/GCC/ARMCMx/chcore_v6m.h"
 886              		.file 8 "../../os/kernel/include/chmtx.h"
 887              		.file 9 "../../os/hal/platforms/STM32F0xx/stm32f0xx.h"
 888              		.file 10 "../../os/hal/platforms/STM32F0xx/stm32_dma.h"
 889              		.file 11 "../../os/hal/include/adc.h"
 890              		.file 12 "../../os/hal/platforms/STM32F0xx/adc_lld.h"
 891              		.file 13 "../../os/ports/common/ARMCMx/nvic.h"
 892              		.file 14 "../../os/kernel/include/chschd.h"
 893              		.file 15 "../../os/kernel/include/chdebug.h"
 894              		.section	.debug_info,"",%progbits
 895              	.Ldebug_info0:
 896 0000 DF0C0000 		.4byte	0xcdf
 897 0004 0400     		.2byte	0x4
 898 0006 00000000 		.4byte	.Ldebug_abbrev0
 899 000a 04       		.byte	0x4
 900 000b 01       		.uleb128 0x1
ARM GAS  /var/folders/qh/xwg3v3kj02qbxczjpdb8lzfr0000gn/T//cc0aEZG6.s 			page 17


 901 000c 2E010000 		.4byte	.LASF148
 902 0010 01       		.byte	0x1
 903 0011 16000000 		.4byte	.LASF149
 904 0015 DD020000 		.4byte	.LASF150
 905 0019 30000000 		.4byte	.Ldebug_ranges0+0x30
 906 001d 00000000 		.4byte	0
 907 0021 00000000 		.4byte	.Ldebug_line0
 908 0025 02       		.uleb128 0x2
 909 0026 04       		.byte	0x4
 910 0027 05       		.byte	0x5
 911 0028 696E7400 		.ascii	"int\000"
 912 002c 03       		.uleb128 0x3
 913 002d 18030000 		.4byte	.LASF2
 914 0031 02       		.byte	0x2
 915 0032 D4       		.byte	0xd4
 916 0033 37000000 		.4byte	0x37
 917 0037 04       		.uleb128 0x4
 918 0038 04       		.byte	0x4
 919 0039 07       		.byte	0x7
 920 003a D3000000 		.4byte	.LASF0
 921 003e 04       		.uleb128 0x4
 922 003f 01       		.byte	0x1
 923 0040 06       		.byte	0x6
 924 0041 CA060000 		.4byte	.LASF1
 925 0045 03       		.uleb128 0x3
 926 0046 E1030000 		.4byte	.LASF3
 927 004a 03       		.byte	0x3
 928 004b 2A       		.byte	0x2a
 929 004c 50000000 		.4byte	0x50
 930 0050 04       		.uleb128 0x4
 931 0051 01       		.byte	0x1
 932 0052 08       		.byte	0x8
 933 0053 64060000 		.4byte	.LASF4
 934 0057 04       		.uleb128 0x4
 935 0058 02       		.byte	0x2
 936 0059 05       		.byte	0x5
 937 005a 3E050000 		.4byte	.LASF5
 938 005e 03       		.uleb128 0x3
 939 005f B9040000 		.4byte	.LASF6
 940 0063 03       		.byte	0x3
 941 0064 36       		.byte	0x36
 942 0065 69000000 		.4byte	0x69
 943 0069 04       		.uleb128 0x4
 944 006a 02       		.byte	0x2
 945 006b 07       		.byte	0x7
 946 006c D6060000 		.4byte	.LASF7
 947 0070 03       		.uleb128 0x3
 948 0071 55060000 		.4byte	.LASF8
 949 0075 03       		.byte	0x3
 950 0076 4F       		.byte	0x4f
 951 0077 7B000000 		.4byte	0x7b
 952 007b 04       		.uleb128 0x4
 953 007c 04       		.byte	0x4
 954 007d 05       		.byte	0x5
 955 007e 74050000 		.4byte	.LASF9
 956 0082 03       		.uleb128 0x3
 957 0083 28020000 		.4byte	.LASF10
ARM GAS  /var/folders/qh/xwg3v3kj02qbxczjpdb8lzfr0000gn/T//cc0aEZG6.s 			page 18


 958 0087 03       		.byte	0x3
 959 0088 50       		.byte	0x50
 960 0089 8D000000 		.4byte	0x8d
 961 008d 04       		.uleb128 0x4
 962 008e 04       		.byte	0x4
 963 008f 07       		.byte	0x7
 964 0090 F2050000 		.4byte	.LASF11
 965 0094 04       		.uleb128 0x4
 966 0095 08       		.byte	0x8
 967 0096 05       		.byte	0x5
 968 0097 21040000 		.4byte	.LASF12
 969 009b 04       		.uleb128 0x4
 970 009c 08       		.byte	0x8
 971 009d 07       		.byte	0x7
 972 009e 80020000 		.4byte	.LASF13
 973 00a2 03       		.uleb128 0x3
 974 00a3 2B030000 		.4byte	.LASF14
 975 00a7 04       		.byte	0x4
 976 00a8 24       		.byte	0x24
 977 00a9 AD000000 		.4byte	0xad
 978 00ad 04       		.uleb128 0x4
 979 00ae 01       		.byte	0x1
 980 00af 02       		.byte	0x2
 981 00b0 32030000 		.4byte	.LASF15
 982 00b4 03       		.uleb128 0x3
 983 00b5 92040000 		.4byte	.LASF16
 984 00b9 04       		.byte	0x4
 985 00ba 25       		.byte	0x25
 986 00bb 45000000 		.4byte	0x45
 987 00bf 03       		.uleb128 0x3
 988 00c0 B8030000 		.4byte	.LASF17
 989 00c4 04       		.byte	0x4
 990 00c5 26       		.byte	0x26
 991 00c6 45000000 		.4byte	0x45
 992 00ca 03       		.uleb128 0x3
 993 00cb EA050000 		.4byte	.LASF18
 994 00cf 04       		.byte	0x4
 995 00d0 27       		.byte	0x27
 996 00d1 45000000 		.4byte	0x45
 997 00d5 03       		.uleb128 0x3
 998 00d6 68040000 		.4byte	.LASF19
 999 00da 04       		.byte	0x4
 1000 00db 28       		.byte	0x28
 1001 00dc 45000000 		.4byte	0x45
 1002 00e0 03       		.uleb128 0x3
 1003 00e1 63020000 		.4byte	.LASF20
 1004 00e5 04       		.byte	0x4
 1005 00e6 29       		.byte	0x29
 1006 00e7 82000000 		.4byte	0x82
 1007 00eb 03       		.uleb128 0x3
 1008 00ec 3A040000 		.4byte	.LASF21
 1009 00f0 04       		.byte	0x4
 1010 00f1 2A       		.byte	0x2a
 1011 00f2 70000000 		.4byte	0x70
 1012 00f6 03       		.uleb128 0x3
 1013 00f7 44020000 		.4byte	.LASF22
 1014 00fb 04       		.byte	0x4
ARM GAS  /var/folders/qh/xwg3v3kj02qbxczjpdb8lzfr0000gn/T//cc0aEZG6.s 			page 19


 1015 00fc 2C       		.byte	0x2c
 1016 00fd 82000000 		.4byte	0x82
 1017 0101 03       		.uleb128 0x3
 1018 0102 99000000 		.4byte	.LASF23
 1019 0106 04       		.byte	0x4
 1020 0107 2E       		.byte	0x2e
 1021 0108 82000000 		.4byte	0x82
 1022 010c 03       		.uleb128 0x3
 1023 010d B1030000 		.4byte	.LASF24
 1024 0111 05       		.byte	0x5
 1025 0112 23       		.byte	0x23
 1026 0113 17010000 		.4byte	0x117
 1027 0117 05       		.uleb128 0x5
 1028 0118 B1030000 		.4byte	.LASF24
 1029 011c 48       		.byte	0x48
 1030 011d 06       		.byte	0x6
 1031 011e 57       		.byte	0x57
 1032 011f 14020000 		.4byte	0x214
 1033 0123 06       		.uleb128 0x6
 1034 0124 AA050000 		.4byte	.LASF25
 1035 0128 06       		.byte	0x6
 1036 0129 58       		.byte	0x58
 1037 012a 35020000 		.4byte	0x235
 1038 012e 00       		.byte	0
 1039 012f 06       		.uleb128 0x6
 1040 0130 DA050000 		.4byte	.LASF26
 1041 0134 06       		.byte	0x6
 1042 0135 5A       		.byte	0x5a
 1043 0136 35020000 		.4byte	0x235
 1044 013a 04       		.byte	0x4
 1045 013b 06       		.uleb128 0x6
 1046 013c 6A000000 		.4byte	.LASF27
 1047 0140 06       		.byte	0x6
 1048 0141 5C       		.byte	0x5c
 1049 0142 E0000000 		.4byte	0xe0
 1050 0146 08       		.byte	0x8
 1051 0147 06       		.uleb128 0x6
 1052 0148 B1050000 		.4byte	.LASF28
 1053 014c 06       		.byte	0x6
 1054 014d 5D       		.byte	0x5d
 1055 014e E5020000 		.4byte	0x2e5
 1056 0152 0C       		.byte	0xc
 1057 0153 06       		.uleb128 0x6
 1058 0154 D0020000 		.4byte	.LASF29
 1059 0158 06       		.byte	0x6
 1060 0159 5F       		.byte	0x5f
 1061 015a 35020000 		.4byte	0x235
 1062 015e 10       		.byte	0x10
 1063 015f 06       		.uleb128 0x6
 1064 0160 D1030000 		.4byte	.LASF30
 1065 0164 06       		.byte	0x6
 1066 0165 60       		.byte	0x60
 1067 0166 35020000 		.4byte	0x235
 1068 016a 14       		.byte	0x14
 1069 016b 06       		.uleb128 0x6
 1070 016c 88030000 		.4byte	.LASF31
 1071 0170 06       		.byte	0x6
ARM GAS  /var/folders/qh/xwg3v3kj02qbxczjpdb8lzfr0000gn/T//cc0aEZG6.s 			page 20


 1072 0171 67       		.byte	0x67
 1073 0172 8C030000 		.4byte	0x38c
 1074 0176 18       		.byte	0x18
 1075 0177 06       		.uleb128 0x6
 1076 0178 D9030000 		.4byte	.LASF32
 1077 017c 06       		.byte	0x6
 1078 017d 72       		.byte	0x72
 1079 017e BF000000 		.4byte	0xbf
 1080 0182 1C       		.byte	0x1c
 1081 0183 06       		.uleb128 0x6
 1082 0184 60040000 		.4byte	.LASF33
 1083 0188 06       		.byte	0x6
 1084 0189 76       		.byte	0x76
 1085 018a B4000000 		.4byte	0xb4
 1086 018e 1D       		.byte	0x1d
 1087 018f 06       		.uleb128 0x6
 1088 0190 72060000 		.4byte	.LASF34
 1089 0194 06       		.byte	0x6
 1090 0195 7B       		.byte	0x7b
 1091 0196 CA000000 		.4byte	0xca
 1092 019a 1E       		.byte	0x1e
 1093 019b 06       		.uleb128 0x6
 1094 019c 8C060000 		.4byte	.LASF35
 1095 01a0 06       		.byte	0x6
 1096 01a1 81       		.byte	0x81
 1097 01a2 D5000000 		.4byte	0xd5
 1098 01a6 1F       		.byte	0x1f
 1099 01a7 06       		.uleb128 0x6
 1100 01a8 41000000 		.4byte	.LASF36
 1101 01ac 06       		.byte	0x6
 1102 01ad 88       		.byte	0x88
 1103 01ae 10030000 		.4byte	0x310
 1104 01b2 20       		.byte	0x20
 1105 01b3 07       		.uleb128 0x7
 1106 01b4 705F7500 		.ascii	"p_u\000"
 1107 01b8 06       		.byte	0x6
 1108 01b9 AD       		.byte	0xad
 1109 01ba 57030000 		.4byte	0x357
 1110 01be 24       		.byte	0x24
 1111 01bf 06       		.uleb128 0x6
 1112 01c0 0C000000 		.4byte	.LASF37
 1113 01c4 06       		.byte	0x6
 1114 01c5 B2       		.byte	0xb2
 1115 01c6 5B020000 		.4byte	0x25b
 1116 01ca 28       		.byte	0x28
 1117 01cb 06       		.uleb128 0x6
 1118 01cc BD000000 		.4byte	.LASF38
 1119 01d0 06       		.byte	0x6
 1120 01d1 B8       		.byte	0xb8
 1121 01d2 3B020000 		.4byte	0x23b
 1122 01d6 2C       		.byte	0x2c
 1123 01d7 06       		.uleb128 0x6
 1124 01d8 8C040000 		.4byte	.LASF39
 1125 01dc 06       		.byte	0x6
 1126 01dd BC       		.byte	0xbc
 1127 01de EB000000 		.4byte	0xeb
 1128 01e2 34       		.byte	0x34
ARM GAS  /var/folders/qh/xwg3v3kj02qbxczjpdb8lzfr0000gn/T//cc0aEZG6.s 			page 21


 1129 01e3 06       		.uleb128 0x6
 1130 01e4 61050000 		.4byte	.LASF40
 1131 01e8 06       		.byte	0x6
 1132 01e9 C2       		.byte	0xc2
 1133 01ea F6000000 		.4byte	0xf6
 1134 01ee 38       		.byte	0x38
 1135 01ef 06       		.uleb128 0x6
 1136 01f0 FB030000 		.4byte	.LASF41
 1137 01f4 06       		.byte	0x6
 1138 01f5 C9       		.byte	0xc9
 1139 01f6 9E030000 		.4byte	0x39e
 1140 01fa 3C       		.byte	0x3c
 1141 01fb 06       		.uleb128 0x6
 1142 01fc 0B050000 		.4byte	.LASF42
 1143 0200 06       		.byte	0x6
 1144 0201 CD       		.byte	0xcd
 1145 0202 E0000000 		.4byte	0xe0
 1146 0206 40       		.byte	0x40
 1147 0207 06       		.uleb128 0x6
 1148 0208 F3030000 		.4byte	.LASF43
 1149 020c 06       		.byte	0x6
 1150 020d D3       		.byte	0xd3
 1151 020e 71020000 		.4byte	0x271
 1152 0212 44       		.byte	0x44
 1153 0213 00       		.byte	0
 1154 0214 08       		.uleb128 0x8
 1155 0215 08       		.byte	0x8
 1156 0216 05       		.byte	0x5
 1157 0217 5A       		.byte	0x5a
 1158 0218 35020000 		.4byte	0x235
 1159 021c 06       		.uleb128 0x6
 1160 021d AA050000 		.4byte	.LASF25
 1161 0221 05       		.byte	0x5
 1162 0222 5B       		.byte	0x5b
 1163 0223 35020000 		.4byte	0x235
 1164 0227 00       		.byte	0
 1165 0228 06       		.uleb128 0x6
 1166 0229 DA050000 		.4byte	.LASF26
 1167 022d 05       		.byte	0x5
 1168 022e 5D       		.byte	0x5d
 1169 022f 35020000 		.4byte	0x235
 1170 0233 04       		.byte	0x4
 1171 0234 00       		.byte	0
 1172 0235 09       		.uleb128 0x9
 1173 0236 04       		.byte	0x4
 1174 0237 0C010000 		.4byte	0x10c
 1175 023b 03       		.uleb128 0x3
 1176 023c 98030000 		.4byte	.LASF44
 1177 0240 05       		.byte	0x5
 1178 0241 5F       		.byte	0x5f
 1179 0242 14020000 		.4byte	0x214
 1180 0246 08       		.uleb128 0x8
 1181 0247 04       		.byte	0x4
 1182 0248 05       		.byte	0x5
 1183 0249 64       		.byte	0x64
 1184 024a 5B020000 		.4byte	0x25b
 1185 024e 06       		.uleb128 0x6
ARM GAS  /var/folders/qh/xwg3v3kj02qbxczjpdb8lzfr0000gn/T//cc0aEZG6.s 			page 22


 1186 024f AA050000 		.4byte	.LASF25
 1187 0253 05       		.byte	0x5
 1188 0254 66       		.byte	0x66
 1189 0255 35020000 		.4byte	0x235
 1190 0259 00       		.byte	0
 1191 025a 00       		.byte	0
 1192 025b 03       		.uleb128 0x3
 1193 025c 00000000 		.4byte	.LASF45
 1194 0260 05       		.byte	0x5
 1195 0261 69       		.byte	0x69
 1196 0262 46020000 		.4byte	0x246
 1197 0266 03       		.uleb128 0x3
 1198 0267 61000000 		.4byte	.LASF46
 1199 026b 07       		.byte	0x7
 1200 026c A0       		.byte	0xa0
 1201 026d 71020000 		.4byte	0x271
 1202 0271 0A       		.uleb128 0xa
 1203 0272 04       		.byte	0x4
 1204 0273 05       		.uleb128 0x5
 1205 0274 C2040000 		.4byte	.LASF47
 1206 0278 24       		.byte	0x24
 1207 0279 07       		.byte	0x7
 1208 027a B3       		.byte	0xb3
 1209 027b E5020000 		.4byte	0x2e5
 1210 027f 07       		.uleb128 0x7
 1211 0280 723800   		.ascii	"r8\000"
 1212 0283 07       		.byte	0x7
 1213 0284 B4       		.byte	0xb4
 1214 0285 66020000 		.4byte	0x266
 1215 0289 00       		.byte	0
 1216 028a 07       		.uleb128 0x7
 1217 028b 723900   		.ascii	"r9\000"
 1218 028e 07       		.byte	0x7
 1219 028f B5       		.byte	0xb5
 1220 0290 66020000 		.4byte	0x266
 1221 0294 04       		.byte	0x4
 1222 0295 07       		.uleb128 0x7
 1223 0296 72313000 		.ascii	"r10\000"
 1224 029a 07       		.byte	0x7
 1225 029b B6       		.byte	0xb6
 1226 029c 66020000 		.4byte	0x266
 1227 02a0 08       		.byte	0x8
 1228 02a1 07       		.uleb128 0x7
 1229 02a2 72313100 		.ascii	"r11\000"
 1230 02a6 07       		.byte	0x7
 1231 02a7 B7       		.byte	0xb7
 1232 02a8 66020000 		.4byte	0x266
 1233 02ac 0C       		.byte	0xc
 1234 02ad 07       		.uleb128 0x7
 1235 02ae 723400   		.ascii	"r4\000"
 1236 02b1 07       		.byte	0x7
 1237 02b2 B8       		.byte	0xb8
 1238 02b3 66020000 		.4byte	0x266
 1239 02b7 10       		.byte	0x10
 1240 02b8 07       		.uleb128 0x7
 1241 02b9 723500   		.ascii	"r5\000"
 1242 02bc 07       		.byte	0x7
ARM GAS  /var/folders/qh/xwg3v3kj02qbxczjpdb8lzfr0000gn/T//cc0aEZG6.s 			page 23


 1243 02bd B9       		.byte	0xb9
 1244 02be 66020000 		.4byte	0x266
 1245 02c2 14       		.byte	0x14
 1246 02c3 07       		.uleb128 0x7
 1247 02c4 723600   		.ascii	"r6\000"
 1248 02c7 07       		.byte	0x7
 1249 02c8 BA       		.byte	0xba
 1250 02c9 66020000 		.4byte	0x266
 1251 02cd 18       		.byte	0x18
 1252 02ce 07       		.uleb128 0x7
 1253 02cf 723700   		.ascii	"r7\000"
 1254 02d2 07       		.byte	0x7
 1255 02d3 BB       		.byte	0xbb
 1256 02d4 66020000 		.4byte	0x266
 1257 02d8 1C       		.byte	0x1c
 1258 02d9 07       		.uleb128 0x7
 1259 02da 6C7200   		.ascii	"lr\000"
 1260 02dd 07       		.byte	0x7
 1261 02de BC       		.byte	0xbc
 1262 02df 66020000 		.4byte	0x266
 1263 02e3 20       		.byte	0x20
 1264 02e4 00       		.byte	0
 1265 02e5 05       		.uleb128 0x5
 1266 02e6 40040000 		.4byte	.LASF48
 1267 02ea 04       		.byte	0x4
 1268 02eb 07       		.byte	0x7
 1269 02ec C6       		.byte	0xc6
 1270 02ed FE020000 		.4byte	0x2fe
 1271 02f1 07       		.uleb128 0x7
 1272 02f2 72313300 		.ascii	"r13\000"
 1273 02f6 07       		.byte	0x7
 1274 02f7 C7       		.byte	0xc7
 1275 02f8 FE020000 		.4byte	0x2fe
 1276 02fc 00       		.byte	0
 1277 02fd 00       		.byte	0
 1278 02fe 09       		.uleb128 0x9
 1279 02ff 04       		.byte	0x4
 1280 0300 73020000 		.4byte	0x273
 1281 0304 0B       		.uleb128 0xb
 1282 0305 82000000 		.4byte	0x82
 1283 0309 04       		.uleb128 0x4
 1284 030a 04       		.byte	0x4
 1285 030b 07       		.byte	0x7
 1286 030c E1050000 		.4byte	.LASF49
 1287 0310 0B       		.uleb128 0xb
 1288 0311 01010000 		.4byte	0x101
 1289 0315 05       		.uleb128 0x5
 1290 0316 44030000 		.4byte	.LASF50
 1291 031a 10       		.byte	0x10
 1292 031b 08       		.byte	0x8
 1293 031c 25       		.byte	0x25
 1294 031d 46030000 		.4byte	0x346
 1295 0321 06       		.uleb128 0x6
 1296 0322 6C050000 		.4byte	.LASF51
 1297 0326 08       		.byte	0x8
 1298 0327 26       		.byte	0x26
 1299 0328 3B020000 		.4byte	0x23b
ARM GAS  /var/folders/qh/xwg3v3kj02qbxczjpdb8lzfr0000gn/T//cc0aEZG6.s 			page 24


 1300 032c 00       		.byte	0
 1301 032d 06       		.uleb128 0x6
 1302 032e A3000000 		.4byte	.LASF52
 1303 0332 08       		.byte	0x8
 1304 0333 28       		.byte	0x28
 1305 0334 35020000 		.4byte	0x235
 1306 0338 08       		.byte	0x8
 1307 0339 06       		.uleb128 0x6
 1308 033a C3060000 		.4byte	.LASF53
 1309 033e 08       		.byte	0x8
 1310 033f 2A       		.byte	0x2a
 1311 0340 46030000 		.4byte	0x346
 1312 0344 0C       		.byte	0xc
 1313 0345 00       		.byte	0
 1314 0346 09       		.uleb128 0x9
 1315 0347 04       		.byte	0x4
 1316 0348 15030000 		.4byte	0x315
 1317 034c 03       		.uleb128 0x3
 1318 034d 44030000 		.4byte	.LASF50
 1319 0351 08       		.byte	0x8
 1320 0352 2C       		.byte	0x2c
 1321 0353 15030000 		.4byte	0x315
 1322 0357 0C       		.uleb128 0xc
 1323 0358 04       		.byte	0x4
 1324 0359 06       		.byte	0x6
 1325 035a 8F       		.byte	0x8f
 1326 035b 8C030000 		.4byte	0x38c
 1327 035f 0D       		.uleb128 0xd
 1328 0360 1F030000 		.4byte	.LASF54
 1329 0364 06       		.byte	0x6
 1330 0365 96       		.byte	0x96
 1331 0366 EB000000 		.4byte	0xeb
 1332 036a 0D       		.uleb128 0xd
 1333 036b 43070000 		.4byte	.LASF55
 1334 036f 06       		.byte	0x6
 1335 0370 9D       		.byte	0x9d
 1336 0371 EB000000 		.4byte	0xeb
 1337 0375 0D       		.uleb128 0xd
 1338 0376 05010000 		.4byte	.LASF56
 1339 037a 06       		.byte	0x6
 1340 037b A4       		.byte	0xa4
 1341 037c 71020000 		.4byte	0x271
 1342 0380 0D       		.uleb128 0xd
 1343 0381 08020000 		.4byte	.LASF57
 1344 0385 06       		.byte	0x6
 1345 0386 AB       		.byte	0xab
 1346 0387 F6000000 		.4byte	0xf6
 1347 038b 00       		.byte	0
 1348 038c 09       		.uleb128 0x9
 1349 038d 04       		.byte	0x4
 1350 038e 92030000 		.4byte	0x392
 1351 0392 0E       		.uleb128 0xe
 1352 0393 97030000 		.4byte	0x397
 1353 0397 04       		.uleb128 0x4
 1354 0398 01       		.byte	0x1
 1355 0399 08       		.byte	0x8
 1356 039a A5030000 		.4byte	.LASF58
ARM GAS  /var/folders/qh/xwg3v3kj02qbxczjpdb8lzfr0000gn/T//cc0aEZG6.s 			page 25


 1357 039e 09       		.uleb128 0x9
 1358 039f 04       		.byte	0x4
 1359 03a0 4C030000 		.4byte	0x34c
 1360 03a4 0F       		.uleb128 0xf
 1361 03a5 44       		.byte	0x44
 1362 03a6 09       		.byte	0x9
 1363 03a7 2B01     		.2byte	0x12b
 1364 03a9 54040000 		.4byte	0x454
 1365 03ad 10       		.uleb128 0x10
 1366 03ae 49535200 		.ascii	"ISR\000"
 1367 03b2 09       		.byte	0x9
 1368 03b3 2D01     		.2byte	0x12d
 1369 03b5 04030000 		.4byte	0x304
 1370 03b9 00       		.byte	0
 1371 03ba 10       		.uleb128 0x10
 1372 03bb 49455200 		.ascii	"IER\000"
 1373 03bf 09       		.byte	0x9
 1374 03c0 2E01     		.2byte	0x12e
 1375 03c2 04030000 		.4byte	0x304
 1376 03c6 04       		.byte	0x4
 1377 03c7 10       		.uleb128 0x10
 1378 03c8 435200   		.ascii	"CR\000"
 1379 03cb 09       		.byte	0x9
 1380 03cc 2F01     		.2byte	0x12f
 1381 03ce 04030000 		.4byte	0x304
 1382 03d2 08       		.byte	0x8
 1383 03d3 11       		.uleb128 0x11
 1384 03d4 72040000 		.4byte	.LASF59
 1385 03d8 09       		.byte	0x9
 1386 03d9 3001     		.2byte	0x130
 1387 03db 04030000 		.4byte	0x304
 1388 03df 0C       		.byte	0xc
 1389 03e0 11       		.uleb128 0x11
 1390 03e1 78040000 		.4byte	.LASF60
 1391 03e5 09       		.byte	0x9
 1392 03e6 3101     		.2byte	0x131
 1393 03e8 04030000 		.4byte	0x304
 1394 03ec 10       		.byte	0x10
 1395 03ed 11       		.uleb128 0x11
 1396 03ee 26030000 		.4byte	.LASF61
 1397 03f2 09       		.byte	0x9
 1398 03f3 3201     		.2byte	0x132
 1399 03f5 04030000 		.4byte	0x304
 1400 03f9 14       		.byte	0x14
 1401 03fa 11       		.uleb128 0x11
 1402 03fb 16050000 		.4byte	.LASF62
 1403 03ff 09       		.byte	0x9
 1404 0400 3301     		.2byte	0x133
 1405 0402 82000000 		.4byte	0x82
 1406 0406 18       		.byte	0x18
 1407 0407 11       		.uleb128 0x11
 1408 0408 20050000 		.4byte	.LASF63
 1409 040c 09       		.byte	0x9
 1410 040d 3401     		.2byte	0x134
 1411 040f 82000000 		.4byte	0x82
 1412 0413 1C       		.byte	0x1c
 1413 0414 10       		.uleb128 0x10
ARM GAS  /var/folders/qh/xwg3v3kj02qbxczjpdb8lzfr0000gn/T//cc0aEZG6.s 			page 26


 1414 0415 545200   		.ascii	"TR\000"
 1415 0418 09       		.byte	0x9
 1416 0419 3501     		.2byte	0x135
 1417 041b 04030000 		.4byte	0x304
 1418 041f 20       		.byte	0x20
 1419 0420 11       		.uleb128 0x11
 1420 0421 2A050000 		.4byte	.LASF64
 1421 0425 09       		.byte	0x9
 1422 0426 3601     		.2byte	0x136
 1423 0428 82000000 		.4byte	0x82
 1424 042c 24       		.byte	0x24
 1425 042d 11       		.uleb128 0x11
 1426 042e C9020000 		.4byte	.LASF65
 1427 0432 09       		.byte	0x9
 1428 0433 3701     		.2byte	0x137
 1429 0435 04030000 		.4byte	0x304
 1430 0439 28       		.byte	0x28
 1431 043a 11       		.uleb128 0x11
 1432 043b 34050000 		.4byte	.LASF66
 1433 043f 09       		.byte	0x9
 1434 0440 3801     		.2byte	0x138
 1435 0442 54040000 		.4byte	0x454
 1436 0446 2C       		.byte	0x2c
 1437 0447 10       		.uleb128 0x10
 1438 0448 445200   		.ascii	"DR\000"
 1439 044b 09       		.byte	0x9
 1440 044c 3901     		.2byte	0x139
 1441 044e 04030000 		.4byte	0x304
 1442 0452 40       		.byte	0x40
 1443 0453 00       		.byte	0
 1444 0454 12       		.uleb128 0x12
 1445 0455 82000000 		.4byte	0x82
 1446 0459 64040000 		.4byte	0x464
 1447 045d 13       		.uleb128 0x13
 1448 045e 09030000 		.4byte	0x309
 1449 0462 04       		.byte	0x4
 1450 0463 00       		.byte	0
 1451 0464 14       		.uleb128 0x14
 1452 0465 B7060000 		.4byte	.LASF67
 1453 0469 09       		.byte	0x9
 1454 046a 3A01     		.2byte	0x13a
 1455 046c A4030000 		.4byte	0x3a4
 1456 0470 0F       		.uleb128 0xf
 1457 0471 10       		.byte	0x10
 1458 0472 09       		.byte	0x9
 1459 0473 8A01     		.2byte	0x18a
 1460 0475 AE040000 		.4byte	0x4ae
 1461 0479 10       		.uleb128 0x10
 1462 047a 43435200 		.ascii	"CCR\000"
 1463 047e 09       		.byte	0x9
 1464 047f 8C01     		.2byte	0x18c
 1465 0481 04030000 		.4byte	0x304
 1466 0485 00       		.byte	0
 1467 0486 11       		.uleb128 0x11
 1468 0487 14020000 		.4byte	.LASF68
 1469 048b 09       		.byte	0x9
 1470 048c 8D01     		.2byte	0x18d
ARM GAS  /var/folders/qh/xwg3v3kj02qbxczjpdb8lzfr0000gn/T//cc0aEZG6.s 			page 27


 1471 048e 04030000 		.4byte	0x304
 1472 0492 04       		.byte	0x4
 1473 0493 11       		.uleb128 0x11
 1474 0494 D8020000 		.4byte	.LASF69
 1475 0498 09       		.byte	0x9
 1476 0499 8E01     		.2byte	0x18e
 1477 049b 04030000 		.4byte	0x304
 1478 049f 08       		.byte	0x8
 1479 04a0 11       		.uleb128 0x11
 1480 04a1 EB000000 		.4byte	.LASF70
 1481 04a5 09       		.byte	0x9
 1482 04a6 8F01     		.2byte	0x18f
 1483 04a8 04030000 		.4byte	0x304
 1484 04ac 0C       		.byte	0xc
 1485 04ad 00       		.byte	0
 1486 04ae 14       		.uleb128 0x14
 1487 04af 1A010000 		.4byte	.LASF71
 1488 04b3 09       		.byte	0x9
 1489 04b4 9001     		.2byte	0x190
 1490 04b6 70040000 		.4byte	0x470
 1491 04ba 0F       		.uleb128 0xf
 1492 04bb 38       		.byte	0x38
 1493 04bc 09       		.byte	0x9
 1494 04bd 1702     		.2byte	0x217
 1495 04bf 79050000 		.4byte	0x579
 1496 04c3 10       		.uleb128 0x10
 1497 04c4 435200   		.ascii	"CR\000"
 1498 04c7 09       		.byte	0x9
 1499 04c8 1902     		.2byte	0x219
 1500 04ca 04030000 		.4byte	0x304
 1501 04ce 00       		.byte	0
 1502 04cf 11       		.uleb128 0x11
 1503 04d0 B7050000 		.4byte	.LASF72
 1504 04d4 09       		.byte	0x9
 1505 04d5 1A02     		.2byte	0x21a
 1506 04d7 04030000 		.4byte	0x304
 1507 04db 04       		.byte	0x4
 1508 04dc 10       		.uleb128 0x10
 1509 04dd 43495200 		.ascii	"CIR\000"
 1510 04e1 09       		.byte	0x9
 1511 04e2 1B02     		.2byte	0x21b
 1512 04e4 04030000 		.4byte	0x304
 1513 04e8 08       		.byte	0x8
 1514 04e9 11       		.uleb128 0x11
 1515 04ea 8A000000 		.4byte	.LASF73
 1516 04ee 09       		.byte	0x9
 1517 04ef 1C02     		.2byte	0x21c
 1518 04f1 04030000 		.4byte	0x304
 1519 04f5 0C       		.byte	0xc
 1520 04f6 11       		.uleb128 0x11
 1521 04f7 8F030000 		.4byte	.LASF74
 1522 04fb 09       		.byte	0x9
 1523 04fc 1D02     		.2byte	0x21d
 1524 04fe 04030000 		.4byte	0x304
 1525 0502 10       		.byte	0x10
 1526 0503 11       		.uleb128 0x11
 1527 0504 CA030000 		.4byte	.LASF75
ARM GAS  /var/folders/qh/xwg3v3kj02qbxczjpdb8lzfr0000gn/T//cc0aEZG6.s 			page 28


 1528 0508 09       		.byte	0x9
 1529 0509 1E02     		.2byte	0x21e
 1530 050b 04030000 		.4byte	0x304
 1531 050f 14       		.byte	0x14
 1532 0510 11       		.uleb128 0x11
 1533 0511 84040000 		.4byte	.LASF76
 1534 0515 09       		.byte	0x9
 1535 0516 1F02     		.2byte	0x21f
 1536 0518 04030000 		.4byte	0x304
 1537 051c 18       		.byte	0x18
 1538 051d 11       		.uleb128 0x11
 1539 051e 32070000 		.4byte	.LASF77
 1540 0522 09       		.byte	0x9
 1541 0523 2002     		.2byte	0x220
 1542 0525 04030000 		.4byte	0x304
 1543 0529 1C       		.byte	0x1c
 1544 052a 11       		.uleb128 0x11
 1545 052b E0000000 		.4byte	.LASF78
 1546 052f 09       		.byte	0x9
 1547 0530 2102     		.2byte	0x221
 1548 0532 04030000 		.4byte	0x304
 1549 0536 20       		.byte	0x20
 1550 0537 10       		.uleb128 0x10
 1551 0538 43535200 		.ascii	"CSR\000"
 1552 053c 09       		.byte	0x9
 1553 053d 2202     		.2byte	0x222
 1554 053f 04030000 		.4byte	0x304
 1555 0543 24       		.byte	0x24
 1556 0544 11       		.uleb128 0x11
 1557 0545 50020000 		.4byte	.LASF79
 1558 0549 09       		.byte	0x9
 1559 054a 2302     		.2byte	0x223
 1560 054c 04030000 		.4byte	0x304
 1561 0550 28       		.byte	0x28
 1562 0551 11       		.uleb128 0x11
 1563 0552 78040000 		.4byte	.LASF60
 1564 0556 09       		.byte	0x9
 1565 0557 2402     		.2byte	0x224
 1566 0559 04030000 		.4byte	0x304
 1567 055d 2C       		.byte	0x2c
 1568 055e 11       		.uleb128 0x11
 1569 055f 7E040000 		.4byte	.LASF80
 1570 0563 09       		.byte	0x9
 1571 0564 2502     		.2byte	0x225
 1572 0566 04030000 		.4byte	0x304
 1573 056a 30       		.byte	0x30
 1574 056b 10       		.uleb128 0x10
 1575 056c 43523200 		.ascii	"CR2\000"
 1576 0570 09       		.byte	0x9
 1577 0571 2602     		.2byte	0x226
 1578 0573 04030000 		.4byte	0x304
 1579 0577 34       		.byte	0x34
 1580 0578 00       		.byte	0
 1581 0579 14       		.uleb128 0x14
 1582 057a F0000000 		.4byte	.LASF81
 1583 057e 09       		.byte	0x9
 1584 057f 2702     		.2byte	0x227
ARM GAS  /var/folders/qh/xwg3v3kj02qbxczjpdb8lzfr0000gn/T//cc0aEZG6.s 			page 29


 1585 0581 BA040000 		.4byte	0x4ba
 1586 0585 08       		.uleb128 0x8
 1587 0586 0C       		.byte	0xc
 1588 0587 0A       		.byte	0xa
 1589 0588 B6       		.byte	0xb6
 1590 0589 CA050000 		.4byte	0x5ca
 1591 058d 06       		.uleb128 0x6
 1592 058e C9040000 		.4byte	.LASF82
 1593 0592 0A       		.byte	0xa
 1594 0593 B7       		.byte	0xb7
 1595 0594 CA050000 		.4byte	0x5ca
 1596 0598 00       		.byte	0
 1597 0599 06       		.uleb128 0x6
 1598 059a 58020000 		.4byte	.LASF83
 1599 059e 0A       		.byte	0xa
 1600 059f B8       		.byte	0xb8
 1601 05a0 D0050000 		.4byte	0x5d0
 1602 05a4 04       		.byte	0x4
 1603 05a5 06       		.uleb128 0x6
 1604 05a6 AA030000 		.4byte	.LASF84
 1605 05aa 0A       		.byte	0xa
 1606 05ab B9       		.byte	0xb9
 1607 05ac 45000000 		.4byte	0x45
 1608 05b0 08       		.byte	0x8
 1609 05b1 06       		.uleb128 0x6
 1610 05b2 4C070000 		.4byte	.LASF85
 1611 05b6 0A       		.byte	0xa
 1612 05b7 BB       		.byte	0xbb
 1613 05b8 45000000 		.4byte	0x45
 1614 05bc 09       		.byte	0x9
 1615 05bd 06       		.uleb128 0x6
 1616 05be B1020000 		.4byte	.LASF86
 1617 05c2 0A       		.byte	0xa
 1618 05c3 BC       		.byte	0xbc
 1619 05c4 45000000 		.4byte	0x45
 1620 05c8 0A       		.byte	0xa
 1621 05c9 00       		.byte	0
 1622 05ca 09       		.uleb128 0x9
 1623 05cb 04       		.byte	0x4
 1624 05cc AE040000 		.4byte	0x4ae
 1625 05d0 09       		.uleb128 0x9
 1626 05d1 04       		.byte	0x4
 1627 05d2 04030000 		.4byte	0x304
 1628 05d6 03       		.uleb128 0x3
 1629 05d7 E9060000 		.4byte	.LASF87
 1630 05db 0A       		.byte	0xa
 1631 05dc BD       		.byte	0xbd
 1632 05dd 85050000 		.4byte	0x585
 1633 05e1 03       		.uleb128 0x3
 1634 05e2 79030000 		.4byte	.LASF88
 1635 05e6 0A       		.byte	0xa
 1636 05e7 C6       		.byte	0xc6
 1637 05e8 EC050000 		.4byte	0x5ec
 1638 05ec 09       		.uleb128 0x9
 1639 05ed 04       		.byte	0x4
 1640 05ee F2050000 		.4byte	0x5f2
 1641 05f2 15       		.uleb128 0x15
ARM GAS  /var/folders/qh/xwg3v3kj02qbxczjpdb8lzfr0000gn/T//cc0aEZG6.s 			page 30


 1642 05f3 02060000 		.4byte	0x602
 1643 05f7 16       		.uleb128 0x16
 1644 05f8 71020000 		.4byte	0x271
 1645 05fc 16       		.uleb128 0x16
 1646 05fd 82000000 		.4byte	0x82
 1647 0601 00       		.byte	0
 1648 0602 17       		.uleb128 0x17
 1649 0603 01       		.byte	0x1
 1650 0604 0B       		.byte	0xb
 1651 0605 4E       		.byte	0x4e
 1652 0606 2F060000 		.4byte	0x62f
 1653 060a 18       		.uleb128 0x18
 1654 060b BC050000 		.4byte	.LASF89
 1655 060f 00       		.sleb128 0
 1656 0610 18       		.uleb128 0x18
 1657 0611 3A070000 		.4byte	.LASF90
 1658 0615 01       		.sleb128 1
 1659 0616 18       		.uleb128 0x18
 1660 0617 04060000 		.4byte	.LASF91
 1661 061b 02       		.sleb128 2
 1662 061c 18       		.uleb128 0x18
 1663 061d D1040000 		.4byte	.LASF92
 1664 0621 03       		.sleb128 3
 1665 0622 18       		.uleb128 0x18
 1666 0623 62030000 		.4byte	.LASF93
 1667 0627 04       		.sleb128 4
 1668 0628 18       		.uleb128 0x18
 1669 0629 6F030000 		.4byte	.LASF94
 1670 062d 05       		.sleb128 5
 1671 062e 00       		.byte	0
 1672 062f 03       		.uleb128 0x3
 1673 0630 45060000 		.4byte	.LASF95
 1674 0634 0B       		.byte	0xb
 1675 0635 55       		.byte	0x55
 1676 0636 02060000 		.4byte	0x602
 1677 063a 03       		.uleb128 0x3
 1678 063b 9A040000 		.4byte	.LASF96
 1679 063f 0C       		.byte	0xc
 1680 0640 8F       		.byte	0x8f
 1681 0641 5E000000 		.4byte	0x5e
 1682 0645 03       		.uleb128 0x3
 1683 0646 48050000 		.4byte	.LASF97
 1684 064a 0C       		.byte	0xc
 1685 064b 94       		.byte	0x94
 1686 064c 5E000000 		.4byte	0x5e
 1687 0650 17       		.uleb128 0x17
 1688 0651 01       		.byte	0x1
 1689 0652 0C       		.byte	0xc
 1690 0653 9B       		.byte	0x9b
 1691 0654 6B060000 		.4byte	0x66b
 1692 0658 18       		.uleb128 0x18
 1693 0659 C7050000 		.4byte	.LASF98
 1694 065d 00       		.sleb128 0
 1695 065e 18       		.uleb128 0x18
 1696 065f 4A030000 		.4byte	.LASF99
 1697 0663 01       		.sleb128 1
 1698 0664 18       		.uleb128 0x18
ARM GAS  /var/folders/qh/xwg3v3kj02qbxczjpdb8lzfr0000gn/T//cc0aEZG6.s 			page 31


 1699 0665 38030000 		.4byte	.LASF100
 1700 0669 02       		.sleb128 2
 1701 066a 00       		.byte	0
 1702 066b 03       		.uleb128 0x3
 1703 066c C8000000 		.4byte	.LASF101
 1704 0670 0C       		.byte	0xc
 1705 0671 9F       		.byte	0x9f
 1706 0672 50060000 		.4byte	0x650
 1707 0676 03       		.uleb128 0x3
 1708 0677 E9030000 		.4byte	.LASF102
 1709 067b 0C       		.byte	0xc
 1710 067c A4       		.byte	0xa4
 1711 067d 81060000 		.4byte	0x681
 1712 0681 05       		.uleb128 0x5
 1713 0682 E9030000 		.4byte	.LASF102
 1714 0686 34       		.byte	0x34
 1715 0687 0C       		.byte	0xc
 1716 0688 F2       		.byte	0xf2
 1717 0689 0D070000 		.4byte	0x70d
 1718 068d 06       		.uleb128 0x6
 1719 068e B1060000 		.4byte	.LASF103
 1720 0692 0C       		.byte	0xc
 1721 0693 F6       		.byte	0xf6
 1722 0694 2F060000 		.4byte	0x62f
 1723 0698 00       		.byte	0
 1724 0699 06       		.uleb128 0x6
 1725 069a F3040000 		.4byte	.LASF104
 1726 069e 0C       		.byte	0xc
 1727 069f FA       		.byte	0xfa
 1728 06a0 F3070000 		.4byte	0x7f3
 1729 06a4 04       		.byte	0x4
 1730 06a5 06       		.uleb128 0x6
 1731 06a6 19040000 		.4byte	.LASF105
 1732 06aa 0C       		.byte	0xc
 1733 06ab FE       		.byte	0xfe
 1734 06ac 39070000 		.4byte	0x739
 1735 06b0 08       		.byte	0x8
 1736 06b1 11       		.uleb128 0x11
 1737 06b2 34040000 		.4byte	.LASF106
 1738 06b6 0C       		.byte	0xc
 1739 06b7 0201     		.2byte	0x102
 1740 06b9 2C000000 		.4byte	0x2c
 1741 06bd 0C       		.byte	0xc
 1742 06be 11       		.uleb128 0x11
 1743 06bf 10070000 		.4byte	.LASF107
 1744 06c3 0C       		.byte	0xc
 1745 06c4 0601     		.2byte	0x106
 1746 06c6 FE070000 		.4byte	0x7fe
 1747 06ca 10       		.byte	0x10
 1748 06cb 11       		.uleb128 0x11
 1749 06cc 5D060000 		.4byte	.LASF108
 1750 06d0 0C       		.byte	0xc
 1751 06d1 0B01     		.2byte	0x10b
 1752 06d3 35020000 		.4byte	0x235
 1753 06d7 14       		.byte	0x14
 1754 06d8 11       		.uleb128 0x11
 1755 06d9 5D020000 		.4byte	.LASF109
ARM GAS  /var/folders/qh/xwg3v3kj02qbxczjpdb8lzfr0000gn/T//cc0aEZG6.s 			page 32


 1756 06dd 0C       		.byte	0xc
 1757 06de 1201     		.2byte	0x112
 1758 06e0 4C030000 		.4byte	0x34c
 1759 06e4 18       		.byte	0x18
 1760 06e5 10       		.uleb128 0x10
 1761 06e6 61646300 		.ascii	"adc\000"
 1762 06ea 0C       		.byte	0xc
 1763 06eb 1E01     		.2byte	0x11e
 1764 06ed 09080000 		.4byte	0x809
 1765 06f1 28       		.byte	0x28
 1766 06f2 11       		.uleb128 0x11
 1767 06f3 5B030000 		.4byte	.LASF110
 1768 06f7 0C       		.byte	0xc
 1769 06f8 2201     		.2byte	0x122
 1770 06fa 0F080000 		.4byte	0x80f
 1771 06fe 2C       		.byte	0x2c
 1772 06ff 11       		.uleb128 0x11
 1773 0700 71000000 		.4byte	.LASF111
 1774 0704 0C       		.byte	0xc
 1775 0705 2601     		.2byte	0x126
 1776 0707 82000000 		.4byte	0x82
 1777 070b 30       		.byte	0x30
 1778 070c 00       		.byte	0
 1779 070d 03       		.uleb128 0x3
 1780 070e 52040000 		.4byte	.LASF112
 1781 0712 0C       		.byte	0xc
 1782 0713 AE       		.byte	0xae
 1783 0714 18070000 		.4byte	0x718
 1784 0718 09       		.uleb128 0x9
 1785 0719 04       		.byte	0x4
 1786 071a 1E070000 		.4byte	0x71e
 1787 071e 15       		.uleb128 0x15
 1788 071f 33070000 		.4byte	0x733
 1789 0723 16       		.uleb128 0x16
 1790 0724 33070000 		.4byte	0x733
 1791 0728 16       		.uleb128 0x16
 1792 0729 39070000 		.4byte	0x739
 1793 072d 16       		.uleb128 0x16
 1794 072e 2C000000 		.4byte	0x2c
 1795 0732 00       		.byte	0
 1796 0733 09       		.uleb128 0x9
 1797 0734 04       		.byte	0x4
 1798 0735 76060000 		.4byte	0x676
 1799 0739 09       		.uleb128 0x9
 1800 073a 04       		.byte	0x4
 1801 073b 3A060000 		.4byte	0x63a
 1802 073f 03       		.uleb128 0x3
 1803 0740 31020000 		.4byte	.LASF113
 1804 0744 0C       		.byte	0xc
 1805 0745 B7       		.byte	0xb7
 1806 0746 4A070000 		.4byte	0x74a
 1807 074a 09       		.uleb128 0x9
 1808 074b 04       		.byte	0x4
 1809 074c 50070000 		.4byte	0x750
 1810 0750 15       		.uleb128 0x15
 1811 0751 60070000 		.4byte	0x760
 1812 0755 16       		.uleb128 0x16
ARM GAS  /var/folders/qh/xwg3v3kj02qbxczjpdb8lzfr0000gn/T//cc0aEZG6.s 			page 33


 1813 0756 33070000 		.4byte	0x733
 1814 075a 16       		.uleb128 0x16
 1815 075b 6B060000 		.4byte	0x66b
 1816 075f 00       		.byte	0
 1817 0760 08       		.uleb128 0x8
 1818 0761 1C       		.byte	0x1c
 1819 0762 0C       		.byte	0xc
 1820 0763 C1       		.byte	0xc1
 1821 0764 C8070000 		.4byte	0x7c8
 1822 0768 06       		.uleb128 0x6
 1823 0769 77020000 		.4byte	.LASF114
 1824 076d 0C       		.byte	0xc
 1825 076e C5       		.byte	0xc5
 1826 076f A2000000 		.4byte	0xa2
 1827 0773 00       		.byte	0
 1828 0774 06       		.uleb128 0x6
 1829 0775 90050000 		.4byte	.LASF115
 1830 0779 0C       		.byte	0xc
 1831 077a C9       		.byte	0xc9
 1832 077b 45060000 		.4byte	0x645
 1833 077f 02       		.byte	0x2
 1834 0780 06       		.uleb128 0x6
 1835 0781 70020000 		.4byte	.LASF116
 1836 0785 0C       		.byte	0xc
 1837 0786 CD       		.byte	0xcd
 1838 0787 0D070000 		.4byte	0x70d
 1839 078b 04       		.byte	0x4
 1840 078c 06       		.uleb128 0x6
 1841 078d FC000000 		.4byte	.LASF117
 1842 0791 0C       		.byte	0xc
 1843 0792 D1       		.byte	0xd1
 1844 0793 3F070000 		.4byte	0x73f
 1845 0797 08       		.byte	0x8
 1846 0798 06       		.uleb128 0x6
 1847 0799 5B050000 		.4byte	.LASF118
 1848 079d 0C       		.byte	0xc
 1849 079e D6       		.byte	0xd6
 1850 079f 82000000 		.4byte	0x82
 1851 07a3 0C       		.byte	0xc
 1852 07a4 07       		.uleb128 0x7
 1853 07a5 747200   		.ascii	"tr\000"
 1854 07a8 0C       		.byte	0xc
 1855 07a9 DA       		.byte	0xda
 1856 07aa 82000000 		.4byte	0x82
 1857 07ae 10       		.byte	0x10
 1858 07af 06       		.uleb128 0x6
 1859 07b0 2F040000 		.4byte	.LASF119
 1860 07b4 0C       		.byte	0xc
 1861 07b5 DE       		.byte	0xde
 1862 07b6 82000000 		.4byte	0x82
 1863 07ba 14       		.byte	0x14
 1864 07bb 06       		.uleb128 0x6
 1865 07bc 26060000 		.4byte	.LASF120
 1866 07c0 0C       		.byte	0xc
 1867 07c1 E4       		.byte	0xe4
 1868 07c2 82000000 		.4byte	0x82
 1869 07c6 18       		.byte	0x18
ARM GAS  /var/folders/qh/xwg3v3kj02qbxczjpdb8lzfr0000gn/T//cc0aEZG6.s 			page 34


 1870 07c7 00       		.byte	0
 1871 07c8 03       		.uleb128 0x3
 1872 07c9 7D050000 		.4byte	.LASF121
 1873 07cd 0C       		.byte	0xc
 1874 07ce E5       		.byte	0xe5
 1875 07cf 60070000 		.4byte	0x760
 1876 07d3 08       		.uleb128 0x8
 1877 07d4 04       		.byte	0x4
 1878 07d5 0C       		.byte	0xc
 1879 07d6 EB       		.byte	0xeb
 1880 07d7 E8070000 		.4byte	0x7e8
 1881 07db 06       		.uleb128 0x6
 1882 07dc E5000000 		.4byte	.LASF122
 1883 07e0 0C       		.byte	0xc
 1884 07e1 EC       		.byte	0xec
 1885 07e2 82000000 		.4byte	0x82
 1886 07e6 00       		.byte	0
 1887 07e7 00       		.byte	0
 1888 07e8 03       		.uleb128 0x3
 1889 07e9 48040000 		.4byte	.LASF123
 1890 07ed 0C       		.byte	0xc
 1891 07ee ED       		.byte	0xed
 1892 07ef D3070000 		.4byte	0x7d3
 1893 07f3 09       		.uleb128 0x9
 1894 07f4 04       		.byte	0x4
 1895 07f5 F9070000 		.4byte	0x7f9
 1896 07f9 0E       		.uleb128 0xe
 1897 07fa E8070000 		.4byte	0x7e8
 1898 07fe 09       		.uleb128 0x9
 1899 07ff 04       		.byte	0x4
 1900 0800 04080000 		.4byte	0x804
 1901 0804 0E       		.uleb128 0xe
 1902 0805 C8070000 		.4byte	0x7c8
 1903 0809 09       		.uleb128 0x9
 1904 080a 04       		.byte	0x4
 1905 080b 64040000 		.4byte	0x464
 1906 080f 09       		.uleb128 0x9
 1907 0810 04       		.byte	0x4
 1908 0811 15080000 		.4byte	0x815
 1909 0815 0E       		.uleb128 0xe
 1910 0816 D6050000 		.4byte	0x5d6
 1911 081a 19       		.uleb128 0x19
 1912 081b 79000000 		.4byte	.LASF151
 1913 081f 01       		.byte	0x1
 1914 0820 38       		.byte	0x38
 1915 0821 01       		.byte	0x1
 1916 0822 32080000 		.4byte	0x832
 1917 0826 1A       		.uleb128 0x1a
 1918 0827 61646300 		.ascii	"adc\000"
 1919 082b 01       		.byte	0x1
 1920 082c 38       		.byte	0x38
 1921 082d 09080000 		.4byte	0x809
 1922 0831 00       		.byte	0
 1923 0832 1B       		.uleb128 0x1b
 1924 0833 9D050000 		.4byte	.LASF124
 1925 0837 01       		.byte	0x1
 1926 0838 8F       		.byte	0x8f
ARM GAS  /var/folders/qh/xwg3v3kj02qbxczjpdb8lzfr0000gn/T//cc0aEZG6.s 			page 35


 1927 0839 00000000 		.4byte	.LFB43
 1928 083d 64000000 		.4byte	.LFE43-.LFB43
 1929 0841 01       		.uleb128 0x1
 1930 0842 9C       		.byte	0x9c
 1931 0843 71080000 		.4byte	0x871
 1932 0847 1C       		.uleb128 0x1c
 1933 0848 0C000000 		.4byte	.LVL0
 1934 084c 3F0C0000 		.4byte	0xc3f
 1935 0850 5B080000 		.4byte	0x85b
 1936 0854 1D       		.uleb128 0x1d
 1937 0855 01       		.uleb128 0x1
 1938 0856 50       		.byte	0x50
 1939 0857 02       		.uleb128 0x2
 1940 0858 75       		.byte	0x75
 1941 0859 00       		.sleb128 0
 1942 085a 00       		.byte	0
 1943 085b 1E       		.uleb128 0x1e
 1944 085c 1E000000 		.4byte	.LVL1
 1945 0860 510C0000 		.4byte	0xc51
 1946 0864 1D       		.uleb128 0x1d
 1947 0865 01       		.uleb128 0x1
 1948 0866 51       		.byte	0x51
 1949 0867 02       		.uleb128 0x2
 1950 0868 08       		.byte	0x8
 1951 0869 80       		.byte	0x80
 1952 086a 1D       		.uleb128 0x1d
 1953 086b 01       		.uleb128 0x1
 1954 086c 50       		.byte	0x50
 1955 086d 01       		.uleb128 0x1
 1956 086e 3C       		.byte	0x3c
 1957 086f 00       		.byte	0
 1958 0870 00       		.byte	0
 1959 0871 1B       		.uleb128 0x1b
 1960 0872 0C010000 		.4byte	.LASF125
 1961 0876 01       		.byte	0x1
 1962 0877 B1       		.byte	0xb1
 1963 0878 00000000 		.4byte	.LFB44
 1964 087c 60000000 		.4byte	.LFE44-.LFB44
 1965 0880 01       		.uleb128 0x1
 1966 0881 9C       		.byte	0x9c
 1967 0882 C7080000 		.4byte	0x8c7
 1968 0886 1F       		.uleb128 0x1f
 1969 0887 50060000 		.4byte	.LASF127
 1970 088b 01       		.byte	0x1
 1971 088c B1       		.byte	0xb1
 1972 088d 33070000 		.4byte	0x733
 1973 0891 00000000 		.4byte	.LLST0
 1974 0895 20       		.uleb128 0x20
 1975 0896 22000000 		.4byte	.LBB6
 1976 089a 3E000000 		.4byte	.LBE6-.LBB6
 1977 089e 21       		.uleb128 0x21
 1978 089f 6200     		.ascii	"b\000"
 1979 08a1 01       		.byte	0x1
 1980 08a2 B7       		.byte	0xb7
 1981 08a3 A2000000 		.4byte	0xa2
 1982 08a7 1E       		.uleb128 0x1e
 1983 08a8 2E000000 		.4byte	.LVL9
ARM GAS  /var/folders/qh/xwg3v3kj02qbxczjpdb8lzfr0000gn/T//cc0aEZG6.s 			page 36


 1984 08ac 680C0000 		.4byte	0xc68
 1985 08b0 1D       		.uleb128 0x1d
 1986 08b1 01       		.uleb128 0x1
 1987 08b2 53       		.byte	0x53
 1988 08b3 02       		.uleb128 0x2
 1989 08b4 74       		.byte	0x74
 1990 08b5 00       		.sleb128 0
 1991 08b6 1D       		.uleb128 0x1d
 1992 08b7 01       		.uleb128 0x1
 1993 08b8 52       		.byte	0x52
 1994 08b9 05       		.uleb128 0x5
 1995 08ba 03       		.byte	0x3
 1996 08bb 00000000 		.4byte	adc_lld_serve_rx_interrupt
 1997 08bf 1D       		.uleb128 0x1d
 1998 08c0 01       		.uleb128 0x1
 1999 08c1 51       		.byte	0x51
 2000 08c2 01       		.uleb128 0x1
 2001 08c3 32       		.byte	0x32
 2002 08c4 00       		.byte	0
 2003 08c5 00       		.byte	0
 2004 08c6 00       		.byte	0
 2005 08c7 1B       		.uleb128 0x1b
 2006 08c8 AC040000 		.4byte	.LASF126
 2007 08cc 01       		.byte	0x1
 2008 08cd DB       		.byte	0xdb
 2009 08ce 00000000 		.4byte	.LFB45
 2010 08d2 60000000 		.4byte	.LFE45-.LFB45
 2011 08d6 01       		.uleb128 0x1
 2012 08d7 9C       		.byte	0x9c
 2013 08d8 23090000 		.4byte	0x923
 2014 08dc 1F       		.uleb128 0x1f
 2015 08dd 50060000 		.4byte	.LASF127
 2016 08e1 01       		.byte	0x1
 2017 08e2 DB       		.byte	0xdb
 2018 08e3 33070000 		.4byte	0x733
 2019 08e7 58000000 		.4byte	.LLST1
 2020 08eb 22       		.uleb128 0x22
 2021 08ec 1A080000 		.4byte	0x81a
 2022 08f0 1A000000 		.4byte	.LBB11
 2023 08f4 00000000 		.4byte	.Ldebug_ranges0+0
 2024 08f8 01       		.byte	0x1
 2025 08f9 E4       		.byte	0xe4
 2026 08fa 19090000 		.4byte	0x919
 2027 08fe 23       		.uleb128 0x23
 2028 08ff 26080000 		.4byte	0x826
 2029 0903 9A000000 		.4byte	.LLST2
 2030 0907 20       		.uleb128 0x20
 2031 0908 42000000 		.4byte	.LBB13
 2032 090c 1E000000 		.4byte	.LBE13-.LBB13
 2033 0910 24       		.uleb128 0x24
 2034 0911 26080000 		.4byte	0x826
 2035 0915 01       		.uleb128 0x1
 2036 0916 52       		.byte	0x52
 2037 0917 00       		.byte	0
 2038 0918 00       		.byte	0
 2039 0919 25       		.uleb128 0x25
 2040 091a 12000000 		.4byte	.LVL15
ARM GAS  /var/folders/qh/xwg3v3kj02qbxczjpdb8lzfr0000gn/T//cc0aEZG6.s 			page 37


 2041 091e 8D0C0000 		.4byte	0xc8d
 2042 0922 00       		.byte	0
 2043 0923 1B       		.uleb128 0x1b
 2044 0924 48000000 		.4byte	.LASF128
 2045 0928 01       		.byte	0x1
 2046 0929 F8       		.byte	0xf8
 2047 092a 00000000 		.4byte	.LFB46
 2048 092e 60000000 		.4byte	.LFE46-.LFB46
 2049 0932 01       		.uleb128 0x1
 2050 0933 9C       		.byte	0x9c
 2051 0934 64090000 		.4byte	0x964
 2052 0938 26       		.uleb128 0x26
 2053 0939 50060000 		.4byte	.LASF127
 2054 093d 01       		.byte	0x1
 2055 093e F8       		.byte	0xf8
 2056 093f 33070000 		.4byte	0x733
 2057 0943 01       		.uleb128 0x1
 2058 0944 50       		.byte	0x50
 2059 0945 27       		.uleb128 0x27
 2060 0946 0F020000 		.4byte	.LASF129
 2061 094a 01       		.byte	0x1
 2062 094b F9       		.byte	0xf9
 2063 094c 82000000 		.4byte	0x82
 2064 0950 B8000000 		.4byte	.LLST3
 2065 0954 27       		.uleb128 0x27
 2066 0955 10070000 		.4byte	.LASF107
 2067 0959 01       		.byte	0x1
 2068 095a FA       		.byte	0xfa
 2069 095b FE070000 		.4byte	0x7fe
 2070 095f 13010000 		.4byte	.LLST4
 2071 0963 00       		.byte	0
 2072 0964 28       		.uleb128 0x28
 2073 0965 2D060000 		.4byte	.LASF130
 2074 0969 01       		.byte	0x1
 2075 096a 2101     		.2byte	0x121
 2076 096c 00000000 		.4byte	.LFB47
 2077 0970 32000000 		.4byte	.LFE47-.LFB47
 2078 0974 01       		.uleb128 0x1
 2079 0975 9C       		.byte	0x9c
 2080 0976 B2090000 		.4byte	0x9b2
 2081 097a 29       		.uleb128 0x29
 2082 097b 50060000 		.4byte	.LASF127
 2083 097f 01       		.byte	0x1
 2084 0980 2101     		.2byte	0x121
 2085 0982 33070000 		.4byte	0x733
 2086 0986 01       		.uleb128 0x1
 2087 0987 50       		.byte	0x50
 2088 0988 2A       		.uleb128 0x2a
 2089 0989 1A080000 		.4byte	0x81a
 2090 098d 18000000 		.4byte	.LBB21
 2091 0991 18000000 		.4byte	.Ldebug_ranges0+0x18
 2092 0995 01       		.byte	0x1
 2093 0996 2401     		.2byte	0x124
 2094 0998 24       		.uleb128 0x24
 2095 0999 26080000 		.4byte	0x826
 2096 099d 01       		.uleb128 0x1
 2097 099e 52       		.byte	0x52
ARM GAS  /var/folders/qh/xwg3v3kj02qbxczjpdb8lzfr0000gn/T//cc0aEZG6.s 			page 38


 2098 099f 20       		.uleb128 0x20
 2099 09a0 20000000 		.4byte	.LBB23
 2100 09a4 12000000 		.4byte	.LBE23-.LBB23
 2101 09a8 24       		.uleb128 0x24
 2102 09a9 26080000 		.4byte	0x826
 2103 09ad 01       		.uleb128 0x1
 2104 09ae 52       		.byte	0x52
 2105 09af 00       		.byte	0
 2106 09b0 00       		.byte	0
 2107 09b1 00       		.byte	0
 2108 09b2 1B       		.uleb128 0x1b
 2109 09b3 C1030000 		.4byte	.LASF131
 2110 09b7 01       		.byte	0x1
 2111 09b8 69       		.byte	0x69
 2112 09b9 00000000 		.4byte	.LFB42
 2113 09bd D8000000 		.4byte	.LFE42-.LFB42
 2114 09c1 01       		.uleb128 0x1
 2115 09c2 9C       		.byte	0x9c
 2116 09c3 CC0A0000 		.4byte	0xacc
 2117 09c7 2B       		.uleb128 0x2b
 2118 09c8 69737200 		.ascii	"isr\000"
 2119 09cc 01       		.byte	0x1
 2120 09cd 6A       		.byte	0x6a
 2121 09ce 82000000 		.4byte	0x82
 2122 09d2 3D010000 		.4byte	.LLST5
 2123 09d6 27       		.uleb128 0x27
 2124 09d7 28070000 		.4byte	.LASF132
 2125 09db 01       		.byte	0x1
 2126 09dc 6C       		.byte	0x6c
 2127 09dd 66020000 		.4byte	0x266
 2128 09e1 5B010000 		.4byte	.LLST6
 2129 09e5 2C       		.uleb128 0x2c
 2130 09e6 64000000 		.4byte	.LBB27
 2131 09ea 0E000000 		.4byte	.LBE27-.LBB27
 2132 09ee 0A0A0000 		.4byte	0xa0a
 2133 09f2 2B       		.uleb128 0x2b
 2134 09f3 747000   		.ascii	"tp\000"
 2135 09f6 01       		.byte	0x1
 2136 09f7 7A       		.byte	0x7a
 2137 09f8 35020000 		.4byte	0x235
 2138 09fc 79010000 		.4byte	.LLST7
 2139 0a00 25       		.uleb128 0x25
 2140 0a01 72000000 		.4byte	.LVL44
 2141 0a05 9F0C0000 		.4byte	0xc9f
 2142 0a09 00       		.byte	0
 2143 0a0a 2C       		.uleb128 0x2c
 2144 0a0b AC000000 		.4byte	.LBB28
 2145 0a0f 0E000000 		.4byte	.LBE28-.LBB28
 2146 0a13 2F0A0000 		.4byte	0xa2f
 2147 0a17 2B       		.uleb128 0x2b
 2148 0a18 747000   		.ascii	"tp\000"
 2149 0a1b 01       		.byte	0x1
 2150 0a1c 7E       		.byte	0x7e
 2151 0a1d 35020000 		.4byte	0x235
 2152 0a21 8C010000 		.4byte	.LLST8
 2153 0a25 25       		.uleb128 0x25
 2154 0a26 BA000000 		.4byte	.LVL50
ARM GAS  /var/folders/qh/xwg3v3kj02qbxczjpdb8lzfr0000gn/T//cc0aEZG6.s 			page 39


 2155 0a2a 9F0C0000 		.4byte	0xc9f
 2156 0a2e 00       		.byte	0
 2157 0a2f 25       		.uleb128 0x25
 2158 0a30 08000000 		.4byte	.LVL33
 2159 0a34 B40C0000 		.4byte	0xcb4
 2160 0a38 25       		.uleb128 0x25
 2161 0a39 22000000 		.4byte	.LVL35
 2162 0a3d BB0C0000 		.4byte	0xcbb
 2163 0a41 1C       		.uleb128 0x1c
 2164 0a42 28000000 		.4byte	.LVL36
 2165 0a46 C20C0000 		.4byte	0xcc2
 2166 0a4a 550A0000 		.4byte	0xa55
 2167 0a4e 1D       		.uleb128 0x1d
 2168 0a4f 01       		.uleb128 0x1
 2169 0a50 50       		.byte	0x50
 2170 0a51 02       		.uleb128 0x2
 2171 0a52 76       		.byte	0x76
 2172 0a53 00       		.sleb128 0
 2173 0a54 00       		.byte	0
 2174 0a55 1C       		.uleb128 0x1c
 2175 0a56 3A000000 		.4byte	.LVL40
 2176 0a5a 64090000 		.4byte	0x964
 2177 0a5e 690A0000 		.4byte	0xa69
 2178 0a62 1D       		.uleb128 0x1d
 2179 0a63 01       		.uleb128 0x1
 2180 0a64 50       		.byte	0x50
 2181 0a65 02       		.uleb128 0x2
 2182 0a66 74       		.byte	0x74
 2183 0a67 00       		.sleb128 0
 2184 0a68 00       		.byte	0
 2185 0a69 2D       		.uleb128 0x2d
 2186 0a6a 4C000000 		.4byte	.LVL41
 2187 0a6e 7E0A0000 		.4byte	0xa7e
 2188 0a72 1D       		.uleb128 0x1d
 2189 0a73 01       		.uleb128 0x1
 2190 0a74 51       		.byte	0x51
 2191 0a75 01       		.uleb128 0x1
 2192 0a76 31       		.byte	0x31
 2193 0a77 1D       		.uleb128 0x1d
 2194 0a78 01       		.uleb128 0x1
 2195 0a79 50       		.byte	0x50
 2196 0a7a 02       		.uleb128 0x2
 2197 0a7b 74       		.byte	0x74
 2198 0a7c 00       		.sleb128 0
 2199 0a7d 00       		.byte	0
 2200 0a7e 25       		.uleb128 0x25
 2201 0a7f 5C000000 		.4byte	.LVL42
 2202 0a83 D40C0000 		.4byte	0xcd4
 2203 0a87 25       		.uleb128 0x25
 2204 0a88 76000000 		.4byte	.LVL45
 2205 0a8c DB0C0000 		.4byte	0xcdb
 2206 0a90 1C       		.uleb128 0x1c
 2207 0a91 82000000 		.4byte	.LVL46
 2208 0a95 64090000 		.4byte	0x964
 2209 0a99 A40A0000 		.4byte	0xaa4
 2210 0a9d 1D       		.uleb128 0x1d
 2211 0a9e 01       		.uleb128 0x1
ARM GAS  /var/folders/qh/xwg3v3kj02qbxczjpdb8lzfr0000gn/T//cc0aEZG6.s 			page 40


 2212 0a9f 50       		.byte	0x50
 2213 0aa0 02       		.uleb128 0x2
 2214 0aa1 74       		.byte	0x74
 2215 0aa2 00       		.sleb128 0
 2216 0aa3 00       		.byte	0
 2217 0aa4 2D       		.uleb128 0x2d
 2218 0aa5 94000000 		.4byte	.LVL47
 2219 0aa9 B90A0000 		.4byte	0xab9
 2220 0aad 1D       		.uleb128 0x1d
 2221 0aae 01       		.uleb128 0x1
 2222 0aaf 51       		.byte	0x51
 2223 0ab0 01       		.uleb128 0x1
 2224 0ab1 32       		.byte	0x32
 2225 0ab2 1D       		.uleb128 0x1d
 2226 0ab3 01       		.uleb128 0x1
 2227 0ab4 50       		.byte	0x50
 2228 0ab5 02       		.uleb128 0x2
 2229 0ab6 74       		.byte	0x74
 2230 0ab7 00       		.sleb128 0
 2231 0ab8 00       		.byte	0
 2232 0ab9 25       		.uleb128 0x25
 2233 0aba A4000000 		.4byte	.LVL48
 2234 0abe D40C0000 		.4byte	0xcd4
 2235 0ac2 25       		.uleb128 0x25
 2236 0ac3 BE000000 		.4byte	.LVL51
 2237 0ac7 DB0C0000 		.4byte	0xcdb
 2238 0acb 00       		.byte	0
 2239 0acc 2E       		.uleb128 0x2e
 2240 0acd 96060000 		.4byte	.LASF152
 2241 0ad1 01       		.byte	0x1
 2242 0ad2 47       		.byte	0x47
 2243 0ad3 00000000 		.4byte	.LFB41
 2244 0ad7 E4000000 		.4byte	.LFE41-.LFB41
 2245 0adb 01       		.uleb128 0x1
 2246 0adc 9C       		.byte	0x9c
 2247 0add 0D0C0000 		.4byte	0xc0d
 2248 0ae1 1F       		.uleb128 0x1f
 2249 0ae2 50060000 		.4byte	.LASF127
 2250 0ae6 01       		.byte	0x1
 2251 0ae7 47       		.byte	0x47
 2252 0ae8 33070000 		.4byte	0x733
 2253 0aec 9F010000 		.4byte	.LLST9
 2254 0af0 1F       		.uleb128 0x1f
 2255 0af1 93000000 		.4byte	.LASF133
 2256 0af5 01       		.byte	0x1
 2257 0af6 47       		.byte	0x47
 2258 0af7 82000000 		.4byte	0x82
 2259 0afb D6010000 		.4byte	.LLST10
 2260 0aff 2C       		.uleb128 0x2c
 2261 0b00 26000000 		.4byte	.LBB29
 2262 0b04 10000000 		.4byte	.LBE29-.LBB29
 2263 0b08 3A0B0000 		.4byte	0xb3a
 2264 0b0c 27       		.uleb128 0x27
 2265 0b0d 6B020000 		.4byte	.LASF134
 2266 0b11 01       		.byte	0x1
 2267 0b12 55       		.byte	0x55
 2268 0b13 2C000000 		.4byte	0x2c
ARM GAS  /var/folders/qh/xwg3v3kj02qbxczjpdb8lzfr0000gn/T//cc0aEZG6.s 			page 41


 2269 0b17 5B020000 		.4byte	.LLST11
 2270 0b1b 27       		.uleb128 0x27
 2271 0b1c DC040000 		.4byte	.LASF135
 2272 0b20 01       		.byte	0x1
 2273 0b21 55       		.byte	0x55
 2274 0b22 2C000000 		.4byte	0x2c
 2275 0b26 6E020000 		.4byte	.LLST12
 2276 0b2a 2F       		.uleb128 0x2f
 2277 0b2b 36000000 		.4byte	.LVL58
 2278 0b2f 02       		.uleb128 0x2
 2279 0b30 75       		.byte	0x75
 2280 0b31 00       		.sleb128 0
 2281 0b32 1D       		.uleb128 0x1d
 2282 0b33 01       		.uleb128 0x1
 2283 0b34 50       		.byte	0x50
 2284 0b35 02       		.uleb128 0x2
 2285 0b36 74       		.byte	0x74
 2286 0b37 00       		.sleb128 0
 2287 0b38 00       		.byte	0
 2288 0b39 00       		.byte	0
 2289 0b3a 2C       		.uleb128 0x2c
 2290 0b3b 7C000000 		.4byte	.LBB30
 2291 0b3f 0E000000 		.4byte	.LBE30-.LBB30
 2292 0b43 5F0B0000 		.4byte	0xb5f
 2293 0b47 2B       		.uleb128 0x2b
 2294 0b48 747000   		.ascii	"tp\000"
 2295 0b4b 01       		.byte	0x1
 2296 0b4c 4D       		.byte	0x4d
 2297 0b4d 35020000 		.4byte	0x235
 2298 0b51 B0020000 		.4byte	.LLST13
 2299 0b55 25       		.uleb128 0x25
 2300 0b56 8A000000 		.4byte	.LVL68
 2301 0b5a 9F0C0000 		.4byte	0xc9f
 2302 0b5e 00       		.byte	0
 2303 0b5f 2C       		.uleb128 0x2c
 2304 0b60 CC000000 		.4byte	.LBB31
 2305 0b64 0C000000 		.4byte	.LBE31-.LBB31
 2306 0b68 840B0000 		.4byte	0xb84
 2307 0b6c 2B       		.uleb128 0x2b
 2308 0b6d 747000   		.ascii	"tp\000"
 2309 0b70 01       		.byte	0x1
 2310 0b71 55       		.byte	0x55
 2311 0b72 35020000 		.4byte	0x235
 2312 0b76 C3020000 		.4byte	.LLST14
 2313 0b7a 25       		.uleb128 0x25
 2314 0b7b D6000000 		.4byte	.LVL78
 2315 0b7f 9F0C0000 		.4byte	0xc9f
 2316 0b83 00       		.byte	0
 2317 0b84 2D       		.uleb128 0x2d
 2318 0b85 4C000000 		.4byte	.LVL62
 2319 0b89 940B0000 		.4byte	0xb94
 2320 0b8d 1D       		.uleb128 0x1d
 2321 0b8e 01       		.uleb128 0x1
 2322 0b8f 50       		.byte	0x50
 2323 0b90 02       		.uleb128 0x2
 2324 0b91 74       		.byte	0x74
 2325 0b92 00       		.sleb128 0
ARM GAS  /var/folders/qh/xwg3v3kj02qbxczjpdb8lzfr0000gn/T//cc0aEZG6.s 			page 42


 2326 0b93 00       		.byte	0
 2327 0b94 1C       		.uleb128 0x1c
 2328 0b95 54000000 		.4byte	.LVL64
 2329 0b99 64090000 		.4byte	0x964
 2330 0b9d A80B0000 		.4byte	0xba8
 2331 0ba1 1D       		.uleb128 0x1d
 2332 0ba2 01       		.uleb128 0x1
 2333 0ba3 50       		.byte	0x50
 2334 0ba4 02       		.uleb128 0x2
 2335 0ba5 74       		.byte	0x74
 2336 0ba6 00       		.sleb128 0
 2337 0ba7 00       		.byte	0
 2338 0ba8 2D       		.uleb128 0x2d
 2339 0ba9 66000000 		.4byte	.LVL65
 2340 0bad BD0B0000 		.4byte	0xbbd
 2341 0bb1 1D       		.uleb128 0x1d
 2342 0bb2 01       		.uleb128 0x1
 2343 0bb3 51       		.byte	0x51
 2344 0bb4 01       		.uleb128 0x1
 2345 0bb5 30       		.byte	0x30
 2346 0bb6 1D       		.uleb128 0x1d
 2347 0bb7 01       		.uleb128 0x1
 2348 0bb8 50       		.byte	0x50
 2349 0bb9 02       		.uleb128 0x2
 2350 0bba 74       		.byte	0x74
 2351 0bbb 00       		.sleb128 0
 2352 0bbc 00       		.byte	0
 2353 0bbd 25       		.uleb128 0x25
 2354 0bbe 76000000 		.4byte	.LVL66
 2355 0bc2 D40C0000 		.4byte	0xcd4
 2356 0bc6 25       		.uleb128 0x25
 2357 0bc7 8E000000 		.4byte	.LVL69
 2358 0bcb DB0C0000 		.4byte	0xcdb
 2359 0bcf 2D       		.uleb128 0x2d
 2360 0bd0 9E000000 		.4byte	.LVL72
 2361 0bd4 DF0B0000 		.4byte	0xbdf
 2362 0bd8 1D       		.uleb128 0x1d
 2363 0bd9 01       		.uleb128 0x1
 2364 0bda 50       		.byte	0x50
 2365 0bdb 02       		.uleb128 0x2
 2366 0bdc 74       		.byte	0x74
 2367 0bdd 00       		.sleb128 0
 2368 0bde 00       		.byte	0
 2369 0bdf 1C       		.uleb128 0x1c
 2370 0be0 A6000000 		.4byte	.LVL74
 2371 0be4 64090000 		.4byte	0x964
 2372 0be8 F30B0000 		.4byte	0xbf3
 2373 0bec 1D       		.uleb128 0x1d
 2374 0bed 01       		.uleb128 0x1
 2375 0bee 50       		.byte	0x50
 2376 0bef 02       		.uleb128 0x2
 2377 0bf0 74       		.byte	0x74
 2378 0bf1 00       		.sleb128 0
 2379 0bf2 00       		.byte	0
 2380 0bf3 2D       		.uleb128 0x2d
 2381 0bf4 BA000000 		.4byte	.LVL75
 2382 0bf8 030C0000 		.4byte	0xc03
ARM GAS  /var/folders/qh/xwg3v3kj02qbxczjpdb8lzfr0000gn/T//cc0aEZG6.s 			page 43


 2383 0bfc 1D       		.uleb128 0x1d
 2384 0bfd 01       		.uleb128 0x1
 2385 0bfe 50       		.byte	0x50
 2386 0bff 02       		.uleb128 0x2
 2387 0c00 74       		.byte	0x74
 2388 0c01 00       		.sleb128 0
 2389 0c02 00       		.byte	0
 2390 0c03 25       		.uleb128 0x25
 2391 0c04 C6000000 		.4byte	.LVL76
 2392 0c08 D40C0000 		.4byte	0xcd4
 2393 0c0c 00       		.byte	0
 2394 0c0d 12       		.uleb128 0x12
 2395 0c0e D6050000 		.4byte	0x5d6
 2396 0c12 1D0C0000 		.4byte	0xc1d
 2397 0c16 13       		.uleb128 0x13
 2398 0c17 09030000 		.4byte	0x309
 2399 0c1b 04       		.byte	0x4
 2400 0c1c 00       		.byte	0
 2401 0c1d 30       		.uleb128 0x30
 2402 0c1e 15070000 		.4byte	.LASF136
 2403 0c22 0A       		.byte	0xa
 2404 0c23 7801     		.2byte	0x178
 2405 0c25 290C0000 		.4byte	0xc29
 2406 0c29 0E       		.uleb128 0xe
 2407 0c2a 0D0C0000 		.4byte	0xc0d
 2408 0c2e 31       		.uleb128 0x31
 2409 0c2f A6040000 		.4byte	.LASF137
 2410 0c33 01       		.byte	0x1
 2411 0c34 28       		.byte	0x28
 2412 0c35 76060000 		.4byte	0x676
 2413 0c39 05       		.uleb128 0x5
 2414 0c3a 03       		.byte	0x3
 2415 0c3b 00000000 		.4byte	ADCD1
 2416 0c3f 32       		.uleb128 0x32
 2417 0c40 1A020000 		.4byte	.LASF138
 2418 0c44 0B       		.byte	0xb
 2419 0c45 1601     		.2byte	0x116
 2420 0c47 510C0000 		.4byte	0xc51
 2421 0c4b 16       		.uleb128 0x16
 2422 0c4c 33070000 		.4byte	0x733
 2423 0c50 00       		.byte	0
 2424 0c51 32       		.uleb128 0x32
 2425 0c52 B8020000 		.4byte	.LASF139
 2426 0c56 0D       		.byte	0xd
 2427 0c57 1C01     		.2byte	0x11c
 2428 0c59 680C0000 		.4byte	0xc68
 2429 0c5d 16       		.uleb128 0x16
 2430 0c5e 82000000 		.4byte	0x82
 2431 0c62 16       		.uleb128 0x16
 2432 0c63 82000000 		.4byte	0x82
 2433 0c67 00       		.byte	0
 2434 0c68 33       		.uleb128 0x33
 2435 0c69 AB000000 		.4byte	.LASF141
 2436 0c6d 0A       		.byte	0xa
 2437 0c6e 7F01     		.2byte	0x17f
 2438 0c70 A2000000 		.4byte	0xa2
 2439 0c74 8D0C0000 		.4byte	0xc8d
ARM GAS  /var/folders/qh/xwg3v3kj02qbxczjpdb8lzfr0000gn/T//cc0aEZG6.s 			page 44


 2440 0c78 16       		.uleb128 0x16
 2441 0c79 0F080000 		.4byte	0x80f
 2442 0c7d 16       		.uleb128 0x16
 2443 0c7e 82000000 		.4byte	0x82
 2444 0c82 16       		.uleb128 0x16
 2445 0c83 E1050000 		.4byte	0x5e1
 2446 0c87 16       		.uleb128 0x16
 2447 0c88 71020000 		.4byte	0x271
 2448 0c8c 00       		.byte	0
 2449 0c8d 32       		.uleb128 0x32
 2450 0c8e FA040000 		.4byte	.LASF140
 2451 0c92 0A       		.byte	0xa
 2452 0c93 8301     		.2byte	0x183
 2453 0c95 9F0C0000 		.4byte	0xc9f
 2454 0c99 16       		.uleb128 0x16
 2455 0c9a 0F080000 		.4byte	0x80f
 2456 0c9e 00       		.byte	0
 2457 0c9f 34       		.uleb128 0x34
 2458 0ca0 E7040000 		.4byte	.LASF142
 2459 0ca4 0E       		.byte	0xe
 2460 0ca5 89       		.byte	0x89
 2461 0ca6 35020000 		.4byte	0x235
 2462 0caa B40C0000 		.4byte	0xcb4
 2463 0cae 16       		.uleb128 0x16
 2464 0caf 35020000 		.4byte	0x235
 2465 0cb3 00       		.byte	0
 2466 0cb4 35       		.uleb128 0x35
 2467 0cb5 05040000 		.4byte	.LASF143
 2468 0cb9 0F       		.byte	0xf
 2469 0cba E4       		.byte	0xe4
 2470 0cbb 35       		.uleb128 0x35
 2471 0cbc FC060000 		.4byte	.LASF144
 2472 0cc0 0F       		.byte	0xf
 2473 0cc1 E5       		.byte	0xe5
 2474 0cc2 32       		.uleb128 0x32
 2475 0cc3 79060000 		.4byte	.LASF145
 2476 0cc7 07       		.byte	0x7
 2477 0cc8 6B01     		.2byte	0x16b
 2478 0cca D40C0000 		.4byte	0xcd4
 2479 0cce 16       		.uleb128 0x16
 2480 0ccf 66020000 		.4byte	0x266
 2481 0cd3 00       		.byte	0
 2482 0cd4 35       		.uleb128 0x35
 2483 0cd5 0E060000 		.4byte	.LASF146
 2484 0cd9 0F       		.byte	0xf
 2485 0cda E2       		.byte	0xe2
 2486 0cdb 35       		.uleb128 0x35
 2487 0cdc 97020000 		.4byte	.LASF147
 2488 0ce0 0F       		.byte	0xf
 2489 0ce1 E3       		.byte	0xe3
 2490 0ce2 00       		.byte	0
 2491              		.section	.debug_abbrev,"",%progbits
 2492              	.Ldebug_abbrev0:
 2493 0000 01       		.uleb128 0x1
 2494 0001 11       		.uleb128 0x11
 2495 0002 01       		.byte	0x1
 2496 0003 25       		.uleb128 0x25
ARM GAS  /var/folders/qh/xwg3v3kj02qbxczjpdb8lzfr0000gn/T//cc0aEZG6.s 			page 45


 2497 0004 0E       		.uleb128 0xe
 2498 0005 13       		.uleb128 0x13
 2499 0006 0B       		.uleb128 0xb
 2500 0007 03       		.uleb128 0x3
 2501 0008 0E       		.uleb128 0xe
 2502 0009 1B       		.uleb128 0x1b
 2503 000a 0E       		.uleb128 0xe
 2504 000b 55       		.uleb128 0x55
 2505 000c 17       		.uleb128 0x17
 2506 000d 11       		.uleb128 0x11
 2507 000e 01       		.uleb128 0x1
 2508 000f 10       		.uleb128 0x10
 2509 0010 17       		.uleb128 0x17
 2510 0011 00       		.byte	0
 2511 0012 00       		.byte	0
 2512 0013 02       		.uleb128 0x2
 2513 0014 24       		.uleb128 0x24
 2514 0015 00       		.byte	0
 2515 0016 0B       		.uleb128 0xb
 2516 0017 0B       		.uleb128 0xb
 2517 0018 3E       		.uleb128 0x3e
 2518 0019 0B       		.uleb128 0xb
 2519 001a 03       		.uleb128 0x3
 2520 001b 08       		.uleb128 0x8
 2521 001c 00       		.byte	0
 2522 001d 00       		.byte	0
 2523 001e 03       		.uleb128 0x3
 2524 001f 16       		.uleb128 0x16
 2525 0020 00       		.byte	0
 2526 0021 03       		.uleb128 0x3
 2527 0022 0E       		.uleb128 0xe
 2528 0023 3A       		.uleb128 0x3a
 2529 0024 0B       		.uleb128 0xb
 2530 0025 3B       		.uleb128 0x3b
 2531 0026 0B       		.uleb128 0xb
 2532 0027 49       		.uleb128 0x49
 2533 0028 13       		.uleb128 0x13
 2534 0029 00       		.byte	0
 2535 002a 00       		.byte	0
 2536 002b 04       		.uleb128 0x4
 2537 002c 24       		.uleb128 0x24
 2538 002d 00       		.byte	0
 2539 002e 0B       		.uleb128 0xb
 2540 002f 0B       		.uleb128 0xb
 2541 0030 3E       		.uleb128 0x3e
 2542 0031 0B       		.uleb128 0xb
 2543 0032 03       		.uleb128 0x3
 2544 0033 0E       		.uleb128 0xe
 2545 0034 00       		.byte	0
 2546 0035 00       		.byte	0
 2547 0036 05       		.uleb128 0x5
 2548 0037 13       		.uleb128 0x13
 2549 0038 01       		.byte	0x1
 2550 0039 03       		.uleb128 0x3
 2551 003a 0E       		.uleb128 0xe
 2552 003b 0B       		.uleb128 0xb
 2553 003c 0B       		.uleb128 0xb
ARM GAS  /var/folders/qh/xwg3v3kj02qbxczjpdb8lzfr0000gn/T//cc0aEZG6.s 			page 46


 2554 003d 3A       		.uleb128 0x3a
 2555 003e 0B       		.uleb128 0xb
 2556 003f 3B       		.uleb128 0x3b
 2557 0040 0B       		.uleb128 0xb
 2558 0041 01       		.uleb128 0x1
 2559 0042 13       		.uleb128 0x13
 2560 0043 00       		.byte	0
 2561 0044 00       		.byte	0
 2562 0045 06       		.uleb128 0x6
 2563 0046 0D       		.uleb128 0xd
 2564 0047 00       		.byte	0
 2565 0048 03       		.uleb128 0x3
 2566 0049 0E       		.uleb128 0xe
 2567 004a 3A       		.uleb128 0x3a
 2568 004b 0B       		.uleb128 0xb
 2569 004c 3B       		.uleb128 0x3b
 2570 004d 0B       		.uleb128 0xb
 2571 004e 49       		.uleb128 0x49
 2572 004f 13       		.uleb128 0x13
 2573 0050 38       		.uleb128 0x38
 2574 0051 0B       		.uleb128 0xb
 2575 0052 00       		.byte	0
 2576 0053 00       		.byte	0
 2577 0054 07       		.uleb128 0x7
 2578 0055 0D       		.uleb128 0xd
 2579 0056 00       		.byte	0
 2580 0057 03       		.uleb128 0x3
 2581 0058 08       		.uleb128 0x8
 2582 0059 3A       		.uleb128 0x3a
 2583 005a 0B       		.uleb128 0xb
 2584 005b 3B       		.uleb128 0x3b
 2585 005c 0B       		.uleb128 0xb
 2586 005d 49       		.uleb128 0x49
 2587 005e 13       		.uleb128 0x13
 2588 005f 38       		.uleb128 0x38
 2589 0060 0B       		.uleb128 0xb
 2590 0061 00       		.byte	0
 2591 0062 00       		.byte	0
 2592 0063 08       		.uleb128 0x8
 2593 0064 13       		.uleb128 0x13
 2594 0065 01       		.byte	0x1
 2595 0066 0B       		.uleb128 0xb
 2596 0067 0B       		.uleb128 0xb
 2597 0068 3A       		.uleb128 0x3a
 2598 0069 0B       		.uleb128 0xb
 2599 006a 3B       		.uleb128 0x3b
 2600 006b 0B       		.uleb128 0xb
 2601 006c 01       		.uleb128 0x1
 2602 006d 13       		.uleb128 0x13
 2603 006e 00       		.byte	0
 2604 006f 00       		.byte	0
 2605 0070 09       		.uleb128 0x9
 2606 0071 0F       		.uleb128 0xf
 2607 0072 00       		.byte	0
 2608 0073 0B       		.uleb128 0xb
 2609 0074 0B       		.uleb128 0xb
 2610 0075 49       		.uleb128 0x49
ARM GAS  /var/folders/qh/xwg3v3kj02qbxczjpdb8lzfr0000gn/T//cc0aEZG6.s 			page 47


 2611 0076 13       		.uleb128 0x13
 2612 0077 00       		.byte	0
 2613 0078 00       		.byte	0
 2614 0079 0A       		.uleb128 0xa
 2615 007a 0F       		.uleb128 0xf
 2616 007b 00       		.byte	0
 2617 007c 0B       		.uleb128 0xb
 2618 007d 0B       		.uleb128 0xb
 2619 007e 00       		.byte	0
 2620 007f 00       		.byte	0
 2621 0080 0B       		.uleb128 0xb
 2622 0081 35       		.uleb128 0x35
 2623 0082 00       		.byte	0
 2624 0083 49       		.uleb128 0x49
 2625 0084 13       		.uleb128 0x13
 2626 0085 00       		.byte	0
 2627 0086 00       		.byte	0
 2628 0087 0C       		.uleb128 0xc
 2629 0088 17       		.uleb128 0x17
 2630 0089 01       		.byte	0x1
 2631 008a 0B       		.uleb128 0xb
 2632 008b 0B       		.uleb128 0xb
 2633 008c 3A       		.uleb128 0x3a
 2634 008d 0B       		.uleb128 0xb
 2635 008e 3B       		.uleb128 0x3b
 2636 008f 0B       		.uleb128 0xb
 2637 0090 01       		.uleb128 0x1
 2638 0091 13       		.uleb128 0x13
 2639 0092 00       		.byte	0
 2640 0093 00       		.byte	0
 2641 0094 0D       		.uleb128 0xd
 2642 0095 0D       		.uleb128 0xd
 2643 0096 00       		.byte	0
 2644 0097 03       		.uleb128 0x3
 2645 0098 0E       		.uleb128 0xe
 2646 0099 3A       		.uleb128 0x3a
 2647 009a 0B       		.uleb128 0xb
 2648 009b 3B       		.uleb128 0x3b
 2649 009c 0B       		.uleb128 0xb
 2650 009d 49       		.uleb128 0x49
 2651 009e 13       		.uleb128 0x13
 2652 009f 00       		.byte	0
 2653 00a0 00       		.byte	0
 2654 00a1 0E       		.uleb128 0xe
 2655 00a2 26       		.uleb128 0x26
 2656 00a3 00       		.byte	0
 2657 00a4 49       		.uleb128 0x49
 2658 00a5 13       		.uleb128 0x13
 2659 00a6 00       		.byte	0
 2660 00a7 00       		.byte	0
 2661 00a8 0F       		.uleb128 0xf
 2662 00a9 13       		.uleb128 0x13
 2663 00aa 01       		.byte	0x1
 2664 00ab 0B       		.uleb128 0xb
 2665 00ac 0B       		.uleb128 0xb
 2666 00ad 3A       		.uleb128 0x3a
 2667 00ae 0B       		.uleb128 0xb
ARM GAS  /var/folders/qh/xwg3v3kj02qbxczjpdb8lzfr0000gn/T//cc0aEZG6.s 			page 48


 2668 00af 3B       		.uleb128 0x3b
 2669 00b0 05       		.uleb128 0x5
 2670 00b1 01       		.uleb128 0x1
 2671 00b2 13       		.uleb128 0x13
 2672 00b3 00       		.byte	0
 2673 00b4 00       		.byte	0
 2674 00b5 10       		.uleb128 0x10
 2675 00b6 0D       		.uleb128 0xd
 2676 00b7 00       		.byte	0
 2677 00b8 03       		.uleb128 0x3
 2678 00b9 08       		.uleb128 0x8
 2679 00ba 3A       		.uleb128 0x3a
 2680 00bb 0B       		.uleb128 0xb
 2681 00bc 3B       		.uleb128 0x3b
 2682 00bd 05       		.uleb128 0x5
 2683 00be 49       		.uleb128 0x49
 2684 00bf 13       		.uleb128 0x13
 2685 00c0 38       		.uleb128 0x38
 2686 00c1 0B       		.uleb128 0xb
 2687 00c2 00       		.byte	0
 2688 00c3 00       		.byte	0
 2689 00c4 11       		.uleb128 0x11
 2690 00c5 0D       		.uleb128 0xd
 2691 00c6 00       		.byte	0
 2692 00c7 03       		.uleb128 0x3
 2693 00c8 0E       		.uleb128 0xe
 2694 00c9 3A       		.uleb128 0x3a
 2695 00ca 0B       		.uleb128 0xb
 2696 00cb 3B       		.uleb128 0x3b
 2697 00cc 05       		.uleb128 0x5
 2698 00cd 49       		.uleb128 0x49
 2699 00ce 13       		.uleb128 0x13
 2700 00cf 38       		.uleb128 0x38
 2701 00d0 0B       		.uleb128 0xb
 2702 00d1 00       		.byte	0
 2703 00d2 00       		.byte	0
 2704 00d3 12       		.uleb128 0x12
 2705 00d4 01       		.uleb128 0x1
 2706 00d5 01       		.byte	0x1
 2707 00d6 49       		.uleb128 0x49
 2708 00d7 13       		.uleb128 0x13
 2709 00d8 01       		.uleb128 0x1
 2710 00d9 13       		.uleb128 0x13
 2711 00da 00       		.byte	0
 2712 00db 00       		.byte	0
 2713 00dc 13       		.uleb128 0x13
 2714 00dd 21       		.uleb128 0x21
 2715 00de 00       		.byte	0
 2716 00df 49       		.uleb128 0x49
 2717 00e0 13       		.uleb128 0x13
 2718 00e1 2F       		.uleb128 0x2f
 2719 00e2 0B       		.uleb128 0xb
 2720 00e3 00       		.byte	0
 2721 00e4 00       		.byte	0
 2722 00e5 14       		.uleb128 0x14
 2723 00e6 16       		.uleb128 0x16
 2724 00e7 00       		.byte	0
ARM GAS  /var/folders/qh/xwg3v3kj02qbxczjpdb8lzfr0000gn/T//cc0aEZG6.s 			page 49


 2725 00e8 03       		.uleb128 0x3
 2726 00e9 0E       		.uleb128 0xe
 2727 00ea 3A       		.uleb128 0x3a
 2728 00eb 0B       		.uleb128 0xb
 2729 00ec 3B       		.uleb128 0x3b
 2730 00ed 05       		.uleb128 0x5
 2731 00ee 49       		.uleb128 0x49
 2732 00ef 13       		.uleb128 0x13
 2733 00f0 00       		.byte	0
 2734 00f1 00       		.byte	0
 2735 00f2 15       		.uleb128 0x15
 2736 00f3 15       		.uleb128 0x15
 2737 00f4 01       		.byte	0x1
 2738 00f5 27       		.uleb128 0x27
 2739 00f6 19       		.uleb128 0x19
 2740 00f7 01       		.uleb128 0x1
 2741 00f8 13       		.uleb128 0x13
 2742 00f9 00       		.byte	0
 2743 00fa 00       		.byte	0
 2744 00fb 16       		.uleb128 0x16
 2745 00fc 05       		.uleb128 0x5
 2746 00fd 00       		.byte	0
 2747 00fe 49       		.uleb128 0x49
 2748 00ff 13       		.uleb128 0x13
 2749 0100 00       		.byte	0
 2750 0101 00       		.byte	0
 2751 0102 17       		.uleb128 0x17
 2752 0103 04       		.uleb128 0x4
 2753 0104 01       		.byte	0x1
 2754 0105 0B       		.uleb128 0xb
 2755 0106 0B       		.uleb128 0xb
 2756 0107 3A       		.uleb128 0x3a
 2757 0108 0B       		.uleb128 0xb
 2758 0109 3B       		.uleb128 0x3b
 2759 010a 0B       		.uleb128 0xb
 2760 010b 01       		.uleb128 0x1
 2761 010c 13       		.uleb128 0x13
 2762 010d 00       		.byte	0
 2763 010e 00       		.byte	0
 2764 010f 18       		.uleb128 0x18
 2765 0110 28       		.uleb128 0x28
 2766 0111 00       		.byte	0
 2767 0112 03       		.uleb128 0x3
 2768 0113 0E       		.uleb128 0xe
 2769 0114 1C       		.uleb128 0x1c
 2770 0115 0D       		.uleb128 0xd
 2771 0116 00       		.byte	0
 2772 0117 00       		.byte	0
 2773 0118 19       		.uleb128 0x19
 2774 0119 2E       		.uleb128 0x2e
 2775 011a 01       		.byte	0x1
 2776 011b 03       		.uleb128 0x3
 2777 011c 0E       		.uleb128 0xe
 2778 011d 3A       		.uleb128 0x3a
 2779 011e 0B       		.uleb128 0xb
 2780 011f 3B       		.uleb128 0x3b
 2781 0120 0B       		.uleb128 0xb
ARM GAS  /var/folders/qh/xwg3v3kj02qbxczjpdb8lzfr0000gn/T//cc0aEZG6.s 			page 50


 2782 0121 27       		.uleb128 0x27
 2783 0122 19       		.uleb128 0x19
 2784 0123 20       		.uleb128 0x20
 2785 0124 0B       		.uleb128 0xb
 2786 0125 01       		.uleb128 0x1
 2787 0126 13       		.uleb128 0x13
 2788 0127 00       		.byte	0
 2789 0128 00       		.byte	0
 2790 0129 1A       		.uleb128 0x1a
 2791 012a 05       		.uleb128 0x5
 2792 012b 00       		.byte	0
 2793 012c 03       		.uleb128 0x3
 2794 012d 08       		.uleb128 0x8
 2795 012e 3A       		.uleb128 0x3a
 2796 012f 0B       		.uleb128 0xb
 2797 0130 3B       		.uleb128 0x3b
 2798 0131 0B       		.uleb128 0xb
 2799 0132 49       		.uleb128 0x49
 2800 0133 13       		.uleb128 0x13
 2801 0134 00       		.byte	0
 2802 0135 00       		.byte	0
 2803 0136 1B       		.uleb128 0x1b
 2804 0137 2E       		.uleb128 0x2e
 2805 0138 01       		.byte	0x1
 2806 0139 3F       		.uleb128 0x3f
 2807 013a 19       		.uleb128 0x19
 2808 013b 03       		.uleb128 0x3
 2809 013c 0E       		.uleb128 0xe
 2810 013d 3A       		.uleb128 0x3a
 2811 013e 0B       		.uleb128 0xb
 2812 013f 3B       		.uleb128 0x3b
 2813 0140 0B       		.uleb128 0xb
 2814 0141 27       		.uleb128 0x27
 2815 0142 19       		.uleb128 0x19
 2816 0143 11       		.uleb128 0x11
 2817 0144 01       		.uleb128 0x1
 2818 0145 12       		.uleb128 0x12
 2819 0146 06       		.uleb128 0x6
 2820 0147 40       		.uleb128 0x40
 2821 0148 18       		.uleb128 0x18
 2822 0149 9742     		.uleb128 0x2117
 2823 014b 19       		.uleb128 0x19
 2824 014c 01       		.uleb128 0x1
 2825 014d 13       		.uleb128 0x13
 2826 014e 00       		.byte	0
 2827 014f 00       		.byte	0
 2828 0150 1C       		.uleb128 0x1c
 2829 0151 898201   		.uleb128 0x4109
 2830 0154 01       		.byte	0x1
 2831 0155 11       		.uleb128 0x11
 2832 0156 01       		.uleb128 0x1
 2833 0157 31       		.uleb128 0x31
 2834 0158 13       		.uleb128 0x13
 2835 0159 01       		.uleb128 0x1
 2836 015a 13       		.uleb128 0x13
 2837 015b 00       		.byte	0
 2838 015c 00       		.byte	0
ARM GAS  /var/folders/qh/xwg3v3kj02qbxczjpdb8lzfr0000gn/T//cc0aEZG6.s 			page 51


 2839 015d 1D       		.uleb128 0x1d
 2840 015e 8A8201   		.uleb128 0x410a
 2841 0161 00       		.byte	0
 2842 0162 02       		.uleb128 0x2
 2843 0163 18       		.uleb128 0x18
 2844 0164 9142     		.uleb128 0x2111
 2845 0166 18       		.uleb128 0x18
 2846 0167 00       		.byte	0
 2847 0168 00       		.byte	0
 2848 0169 1E       		.uleb128 0x1e
 2849 016a 898201   		.uleb128 0x4109
 2850 016d 01       		.byte	0x1
 2851 016e 11       		.uleb128 0x11
 2852 016f 01       		.uleb128 0x1
 2853 0170 31       		.uleb128 0x31
 2854 0171 13       		.uleb128 0x13
 2855 0172 00       		.byte	0
 2856 0173 00       		.byte	0
 2857 0174 1F       		.uleb128 0x1f
 2858 0175 05       		.uleb128 0x5
 2859 0176 00       		.byte	0
 2860 0177 03       		.uleb128 0x3
 2861 0178 0E       		.uleb128 0xe
 2862 0179 3A       		.uleb128 0x3a
 2863 017a 0B       		.uleb128 0xb
 2864 017b 3B       		.uleb128 0x3b
 2865 017c 0B       		.uleb128 0xb
 2866 017d 49       		.uleb128 0x49
 2867 017e 13       		.uleb128 0x13
 2868 017f 02       		.uleb128 0x2
 2869 0180 17       		.uleb128 0x17
 2870 0181 00       		.byte	0
 2871 0182 00       		.byte	0
 2872 0183 20       		.uleb128 0x20
 2873 0184 0B       		.uleb128 0xb
 2874 0185 01       		.byte	0x1
 2875 0186 11       		.uleb128 0x11
 2876 0187 01       		.uleb128 0x1
 2877 0188 12       		.uleb128 0x12
 2878 0189 06       		.uleb128 0x6
 2879 018a 00       		.byte	0
 2880 018b 00       		.byte	0
 2881 018c 21       		.uleb128 0x21
 2882 018d 34       		.uleb128 0x34
 2883 018e 00       		.byte	0
 2884 018f 03       		.uleb128 0x3
 2885 0190 08       		.uleb128 0x8
 2886 0191 3A       		.uleb128 0x3a
 2887 0192 0B       		.uleb128 0xb
 2888 0193 3B       		.uleb128 0x3b
 2889 0194 0B       		.uleb128 0xb
 2890 0195 49       		.uleb128 0x49
 2891 0196 13       		.uleb128 0x13
 2892 0197 00       		.byte	0
 2893 0198 00       		.byte	0
 2894 0199 22       		.uleb128 0x22
 2895 019a 1D       		.uleb128 0x1d
ARM GAS  /var/folders/qh/xwg3v3kj02qbxczjpdb8lzfr0000gn/T//cc0aEZG6.s 			page 52


 2896 019b 01       		.byte	0x1
 2897 019c 31       		.uleb128 0x31
 2898 019d 13       		.uleb128 0x13
 2899 019e 52       		.uleb128 0x52
 2900 019f 01       		.uleb128 0x1
 2901 01a0 55       		.uleb128 0x55
 2902 01a1 17       		.uleb128 0x17
 2903 01a2 58       		.uleb128 0x58
 2904 01a3 0B       		.uleb128 0xb
 2905 01a4 59       		.uleb128 0x59
 2906 01a5 0B       		.uleb128 0xb
 2907 01a6 01       		.uleb128 0x1
 2908 01a7 13       		.uleb128 0x13
 2909 01a8 00       		.byte	0
 2910 01a9 00       		.byte	0
 2911 01aa 23       		.uleb128 0x23
 2912 01ab 05       		.uleb128 0x5
 2913 01ac 00       		.byte	0
 2914 01ad 31       		.uleb128 0x31
 2915 01ae 13       		.uleb128 0x13
 2916 01af 02       		.uleb128 0x2
 2917 01b0 17       		.uleb128 0x17
 2918 01b1 00       		.byte	0
 2919 01b2 00       		.byte	0
 2920 01b3 24       		.uleb128 0x24
 2921 01b4 05       		.uleb128 0x5
 2922 01b5 00       		.byte	0
 2923 01b6 31       		.uleb128 0x31
 2924 01b7 13       		.uleb128 0x13
 2925 01b8 02       		.uleb128 0x2
 2926 01b9 18       		.uleb128 0x18
 2927 01ba 00       		.byte	0
 2928 01bb 00       		.byte	0
 2929 01bc 25       		.uleb128 0x25
 2930 01bd 898201   		.uleb128 0x4109
 2931 01c0 00       		.byte	0
 2932 01c1 11       		.uleb128 0x11
 2933 01c2 01       		.uleb128 0x1
 2934 01c3 31       		.uleb128 0x31
 2935 01c4 13       		.uleb128 0x13
 2936 01c5 00       		.byte	0
 2937 01c6 00       		.byte	0
 2938 01c7 26       		.uleb128 0x26
 2939 01c8 05       		.uleb128 0x5
 2940 01c9 00       		.byte	0
 2941 01ca 03       		.uleb128 0x3
 2942 01cb 0E       		.uleb128 0xe
 2943 01cc 3A       		.uleb128 0x3a
 2944 01cd 0B       		.uleb128 0xb
 2945 01ce 3B       		.uleb128 0x3b
 2946 01cf 0B       		.uleb128 0xb
 2947 01d0 49       		.uleb128 0x49
 2948 01d1 13       		.uleb128 0x13
 2949 01d2 02       		.uleb128 0x2
 2950 01d3 18       		.uleb128 0x18
 2951 01d4 00       		.byte	0
 2952 01d5 00       		.byte	0
ARM GAS  /var/folders/qh/xwg3v3kj02qbxczjpdb8lzfr0000gn/T//cc0aEZG6.s 			page 53


 2953 01d6 27       		.uleb128 0x27
 2954 01d7 34       		.uleb128 0x34
 2955 01d8 00       		.byte	0
 2956 01d9 03       		.uleb128 0x3
 2957 01da 0E       		.uleb128 0xe
 2958 01db 3A       		.uleb128 0x3a
 2959 01dc 0B       		.uleb128 0xb
 2960 01dd 3B       		.uleb128 0x3b
 2961 01de 0B       		.uleb128 0xb
 2962 01df 49       		.uleb128 0x49
 2963 01e0 13       		.uleb128 0x13
 2964 01e1 02       		.uleb128 0x2
 2965 01e2 17       		.uleb128 0x17
 2966 01e3 00       		.byte	0
 2967 01e4 00       		.byte	0
 2968 01e5 28       		.uleb128 0x28
 2969 01e6 2E       		.uleb128 0x2e
 2970 01e7 01       		.byte	0x1
 2971 01e8 3F       		.uleb128 0x3f
 2972 01e9 19       		.uleb128 0x19
 2973 01ea 03       		.uleb128 0x3
 2974 01eb 0E       		.uleb128 0xe
 2975 01ec 3A       		.uleb128 0x3a
 2976 01ed 0B       		.uleb128 0xb
 2977 01ee 3B       		.uleb128 0x3b
 2978 01ef 05       		.uleb128 0x5
 2979 01f0 27       		.uleb128 0x27
 2980 01f1 19       		.uleb128 0x19
 2981 01f2 11       		.uleb128 0x11
 2982 01f3 01       		.uleb128 0x1
 2983 01f4 12       		.uleb128 0x12
 2984 01f5 06       		.uleb128 0x6
 2985 01f6 40       		.uleb128 0x40
 2986 01f7 18       		.uleb128 0x18
 2987 01f8 9742     		.uleb128 0x2117
 2988 01fa 19       		.uleb128 0x19
 2989 01fb 01       		.uleb128 0x1
 2990 01fc 13       		.uleb128 0x13
 2991 01fd 00       		.byte	0
 2992 01fe 00       		.byte	0
 2993 01ff 29       		.uleb128 0x29
 2994 0200 05       		.uleb128 0x5
 2995 0201 00       		.byte	0
 2996 0202 03       		.uleb128 0x3
 2997 0203 0E       		.uleb128 0xe
 2998 0204 3A       		.uleb128 0x3a
 2999 0205 0B       		.uleb128 0xb
 3000 0206 3B       		.uleb128 0x3b
 3001 0207 05       		.uleb128 0x5
 3002 0208 49       		.uleb128 0x49
 3003 0209 13       		.uleb128 0x13
 3004 020a 02       		.uleb128 0x2
 3005 020b 18       		.uleb128 0x18
 3006 020c 00       		.byte	0
 3007 020d 00       		.byte	0
 3008 020e 2A       		.uleb128 0x2a
 3009 020f 1D       		.uleb128 0x1d
ARM GAS  /var/folders/qh/xwg3v3kj02qbxczjpdb8lzfr0000gn/T//cc0aEZG6.s 			page 54


 3010 0210 01       		.byte	0x1
 3011 0211 31       		.uleb128 0x31
 3012 0212 13       		.uleb128 0x13
 3013 0213 52       		.uleb128 0x52
 3014 0214 01       		.uleb128 0x1
 3015 0215 55       		.uleb128 0x55
 3016 0216 17       		.uleb128 0x17
 3017 0217 58       		.uleb128 0x58
 3018 0218 0B       		.uleb128 0xb
 3019 0219 59       		.uleb128 0x59
 3020 021a 05       		.uleb128 0x5
 3021 021b 00       		.byte	0
 3022 021c 00       		.byte	0
 3023 021d 2B       		.uleb128 0x2b
 3024 021e 34       		.uleb128 0x34
 3025 021f 00       		.byte	0
 3026 0220 03       		.uleb128 0x3
 3027 0221 08       		.uleb128 0x8
 3028 0222 3A       		.uleb128 0x3a
 3029 0223 0B       		.uleb128 0xb
 3030 0224 3B       		.uleb128 0x3b
 3031 0225 0B       		.uleb128 0xb
 3032 0226 49       		.uleb128 0x49
 3033 0227 13       		.uleb128 0x13
 3034 0228 02       		.uleb128 0x2
 3035 0229 17       		.uleb128 0x17
 3036 022a 00       		.byte	0
 3037 022b 00       		.byte	0
 3038 022c 2C       		.uleb128 0x2c
 3039 022d 0B       		.uleb128 0xb
 3040 022e 01       		.byte	0x1
 3041 022f 11       		.uleb128 0x11
 3042 0230 01       		.uleb128 0x1
 3043 0231 12       		.uleb128 0x12
 3044 0232 06       		.uleb128 0x6
 3045 0233 01       		.uleb128 0x1
 3046 0234 13       		.uleb128 0x13
 3047 0235 00       		.byte	0
 3048 0236 00       		.byte	0
 3049 0237 2D       		.uleb128 0x2d
 3050 0238 898201   		.uleb128 0x4109
 3051 023b 01       		.byte	0x1
 3052 023c 11       		.uleb128 0x11
 3053 023d 01       		.uleb128 0x1
 3054 023e 01       		.uleb128 0x1
 3055 023f 13       		.uleb128 0x13
 3056 0240 00       		.byte	0
 3057 0241 00       		.byte	0
 3058 0242 2E       		.uleb128 0x2e
 3059 0243 2E       		.uleb128 0x2e
 3060 0244 01       		.byte	0x1
 3061 0245 03       		.uleb128 0x3
 3062 0246 0E       		.uleb128 0xe
 3063 0247 3A       		.uleb128 0x3a
 3064 0248 0B       		.uleb128 0xb
 3065 0249 3B       		.uleb128 0x3b
 3066 024a 0B       		.uleb128 0xb
ARM GAS  /var/folders/qh/xwg3v3kj02qbxczjpdb8lzfr0000gn/T//cc0aEZG6.s 			page 55


 3067 024b 27       		.uleb128 0x27
 3068 024c 19       		.uleb128 0x19
 3069 024d 11       		.uleb128 0x11
 3070 024e 01       		.uleb128 0x1
 3071 024f 12       		.uleb128 0x12
 3072 0250 06       		.uleb128 0x6
 3073 0251 40       		.uleb128 0x40
 3074 0252 18       		.uleb128 0x18
 3075 0253 9742     		.uleb128 0x2117
 3076 0255 19       		.uleb128 0x19
 3077 0256 01       		.uleb128 0x1
 3078 0257 13       		.uleb128 0x13
 3079 0258 00       		.byte	0
 3080 0259 00       		.byte	0
 3081 025a 2F       		.uleb128 0x2f
 3082 025b 898201   		.uleb128 0x4109
 3083 025e 01       		.byte	0x1
 3084 025f 11       		.uleb128 0x11
 3085 0260 01       		.uleb128 0x1
 3086 0261 9342     		.uleb128 0x2113
 3087 0263 18       		.uleb128 0x18
 3088 0264 00       		.byte	0
 3089 0265 00       		.byte	0
 3090 0266 30       		.uleb128 0x30
 3091 0267 34       		.uleb128 0x34
 3092 0268 00       		.byte	0
 3093 0269 03       		.uleb128 0x3
 3094 026a 0E       		.uleb128 0xe
 3095 026b 3A       		.uleb128 0x3a
 3096 026c 0B       		.uleb128 0xb
 3097 026d 3B       		.uleb128 0x3b
 3098 026e 05       		.uleb128 0x5
 3099 026f 49       		.uleb128 0x49
 3100 0270 13       		.uleb128 0x13
 3101 0271 3F       		.uleb128 0x3f
 3102 0272 19       		.uleb128 0x19
 3103 0273 3C       		.uleb128 0x3c
 3104 0274 19       		.uleb128 0x19
 3105 0275 00       		.byte	0
 3106 0276 00       		.byte	0
 3107 0277 31       		.uleb128 0x31
 3108 0278 34       		.uleb128 0x34
 3109 0279 00       		.byte	0
 3110 027a 03       		.uleb128 0x3
 3111 027b 0E       		.uleb128 0xe
 3112 027c 3A       		.uleb128 0x3a
 3113 027d 0B       		.uleb128 0xb
 3114 027e 3B       		.uleb128 0x3b
 3115 027f 0B       		.uleb128 0xb
 3116 0280 49       		.uleb128 0x49
 3117 0281 13       		.uleb128 0x13
 3118 0282 3F       		.uleb128 0x3f
 3119 0283 19       		.uleb128 0x19
 3120 0284 02       		.uleb128 0x2
 3121 0285 18       		.uleb128 0x18
 3122 0286 00       		.byte	0
 3123 0287 00       		.byte	0
ARM GAS  /var/folders/qh/xwg3v3kj02qbxczjpdb8lzfr0000gn/T//cc0aEZG6.s 			page 56


 3124 0288 32       		.uleb128 0x32
 3125 0289 2E       		.uleb128 0x2e
 3126 028a 01       		.byte	0x1
 3127 028b 3F       		.uleb128 0x3f
 3128 028c 19       		.uleb128 0x19
 3129 028d 03       		.uleb128 0x3
 3130 028e 0E       		.uleb128 0xe
 3131 028f 3A       		.uleb128 0x3a
 3132 0290 0B       		.uleb128 0xb
 3133 0291 3B       		.uleb128 0x3b
 3134 0292 05       		.uleb128 0x5
 3135 0293 27       		.uleb128 0x27
 3136 0294 19       		.uleb128 0x19
 3137 0295 3C       		.uleb128 0x3c
 3138 0296 19       		.uleb128 0x19
 3139 0297 01       		.uleb128 0x1
 3140 0298 13       		.uleb128 0x13
 3141 0299 00       		.byte	0
 3142 029a 00       		.byte	0
 3143 029b 33       		.uleb128 0x33
 3144 029c 2E       		.uleb128 0x2e
 3145 029d 01       		.byte	0x1
 3146 029e 3F       		.uleb128 0x3f
 3147 029f 19       		.uleb128 0x19
 3148 02a0 03       		.uleb128 0x3
 3149 02a1 0E       		.uleb128 0xe
 3150 02a2 3A       		.uleb128 0x3a
 3151 02a3 0B       		.uleb128 0xb
 3152 02a4 3B       		.uleb128 0x3b
 3153 02a5 05       		.uleb128 0x5
 3154 02a6 27       		.uleb128 0x27
 3155 02a7 19       		.uleb128 0x19
 3156 02a8 49       		.uleb128 0x49
 3157 02a9 13       		.uleb128 0x13
 3158 02aa 3C       		.uleb128 0x3c
 3159 02ab 19       		.uleb128 0x19
 3160 02ac 01       		.uleb128 0x1
 3161 02ad 13       		.uleb128 0x13
 3162 02ae 00       		.byte	0
 3163 02af 00       		.byte	0
 3164 02b0 34       		.uleb128 0x34
 3165 02b1 2E       		.uleb128 0x2e
 3166 02b2 01       		.byte	0x1
 3167 02b3 3F       		.uleb128 0x3f
 3168 02b4 19       		.uleb128 0x19
 3169 02b5 03       		.uleb128 0x3
 3170 02b6 0E       		.uleb128 0xe
 3171 02b7 3A       		.uleb128 0x3a
 3172 02b8 0B       		.uleb128 0xb
 3173 02b9 3B       		.uleb128 0x3b
 3174 02ba 0B       		.uleb128 0xb
 3175 02bb 27       		.uleb128 0x27
 3176 02bc 19       		.uleb128 0x19
 3177 02bd 49       		.uleb128 0x49
 3178 02be 13       		.uleb128 0x13
 3179 02bf 3C       		.uleb128 0x3c
 3180 02c0 19       		.uleb128 0x19
ARM GAS  /var/folders/qh/xwg3v3kj02qbxczjpdb8lzfr0000gn/T//cc0aEZG6.s 			page 57


 3181 02c1 01       		.uleb128 0x1
 3182 02c2 13       		.uleb128 0x13
 3183 02c3 00       		.byte	0
 3184 02c4 00       		.byte	0
 3185 02c5 35       		.uleb128 0x35
 3186 02c6 2E       		.uleb128 0x2e
 3187 02c7 00       		.byte	0
 3188 02c8 3F       		.uleb128 0x3f
 3189 02c9 19       		.uleb128 0x19
 3190 02ca 03       		.uleb128 0x3
 3191 02cb 0E       		.uleb128 0xe
 3192 02cc 3A       		.uleb128 0x3a
 3193 02cd 0B       		.uleb128 0xb
 3194 02ce 3B       		.uleb128 0x3b
 3195 02cf 0B       		.uleb128 0xb
 3196 02d0 27       		.uleb128 0x27
 3197 02d1 19       		.uleb128 0x19
 3198 02d2 3C       		.uleb128 0x3c
 3199 02d3 19       		.uleb128 0x19
 3200 02d4 00       		.byte	0
 3201 02d5 00       		.byte	0
 3202 02d6 00       		.byte	0
 3203              		.section	.debug_loc,"",%progbits
 3204              	.Ldebug_loc0:
 3205              	.LLST0:
 3206 0000 00000000 		.4byte	.LVL2
 3207 0004 0A000000 		.4byte	.LVL3
 3208 0008 0100     		.2byte	0x1
 3209 000a 50       		.byte	0x50
 3210 000b 0A000000 		.4byte	.LVL3
 3211 000f 0A000000 		.4byte	.LVL4
 3212 0013 0100     		.2byte	0x1
 3213 0015 54       		.byte	0x54
 3214 0016 0A000000 		.4byte	.LVL4
 3215 001a 0C000000 		.4byte	.LVL5
 3216 001e 0400     		.2byte	0x4
 3217 0020 F3       		.byte	0xf3
 3218 0021 01       		.uleb128 0x1
 3219 0022 50       		.byte	0x50
 3220 0023 9F       		.byte	0x9f
 3221 0024 0C000000 		.4byte	.LVL5
 3222 0028 12000000 		.4byte	.LVL6
 3223 002c 0100     		.2byte	0x1
 3224 002e 50       		.byte	0x50
 3225 002f 12000000 		.4byte	.LVL6
 3226 0033 22000000 		.4byte	.LVL7
 3227 0037 0100     		.2byte	0x1
 3228 0039 54       		.byte	0x54
 3229 003a 22000000 		.4byte	.LVL7
 3230 003e 2A000000 		.4byte	.LVL8
 3231 0042 0100     		.2byte	0x1
 3232 0044 50       		.byte	0x50
 3233 0045 2A000000 		.4byte	.LVL8
 3234 0049 60000000 		.4byte	.LFE44
 3235 004d 0100     		.2byte	0x1
 3236 004f 54       		.byte	0x54
 3237 0050 00000000 		.4byte	0
ARM GAS  /var/folders/qh/xwg3v3kj02qbxczjpdb8lzfr0000gn/T//cc0aEZG6.s 			page 58


 3238 0054 00000000 		.4byte	0
 3239              	.LLST1:
 3240 0058 00000000 		.4byte	.LVL10
 3241 005c 0A000000 		.4byte	.LVL11
 3242 0060 0100     		.2byte	0x1
 3243 0062 50       		.byte	0x50
 3244 0063 0A000000 		.4byte	.LVL11
 3245 0067 0A000000 		.4byte	.LVL12
 3246 006b 0100     		.2byte	0x1
 3247 006d 54       		.byte	0x54
 3248 006e 0A000000 		.4byte	.LVL12
 3249 0072 0C000000 		.4byte	.LVL13
 3250 0076 0400     		.2byte	0x4
 3251 0078 F3       		.byte	0xf3
 3252 0079 01       		.uleb128 0x1
 3253 007a 50       		.byte	0x50
 3254 007b 9F       		.byte	0x9f
 3255 007c 0C000000 		.4byte	.LVL13
 3256 0080 0E000000 		.4byte	.LVL14
 3257 0084 0100     		.2byte	0x1
 3258 0086 50       		.byte	0x50
 3259 0087 0E000000 		.4byte	.LVL14
 3260 008b 60000000 		.4byte	.LFE45
 3261 008f 0100     		.2byte	0x1
 3262 0091 54       		.byte	0x54
 3263 0092 00000000 		.4byte	0
 3264 0096 00000000 		.4byte	0
 3265              	.LLST2:
 3266 009a 1A000000 		.4byte	.LVL16
 3267 009e 30000000 		.4byte	.LVL17
 3268 00a2 0100     		.2byte	0x1
 3269 00a4 52       		.byte	0x52
 3270 00a5 42000000 		.4byte	.LVL18
 3271 00a9 60000000 		.4byte	.LFE45
 3272 00ad 0100     		.2byte	0x1
 3273 00af 52       		.byte	0x52
 3274 00b0 00000000 		.4byte	0
 3275 00b4 00000000 		.4byte	0
 3276              	.LLST3:
 3277 00b8 08000000 		.4byte	.LVL21
 3278 00bc 0E000000 		.4byte	.LVL22
 3279 00c0 0100     		.2byte	0x1
 3280 00c2 51       		.byte	0x51
 3281 00c3 0E000000 		.4byte	.LVL22
 3282 00c7 16000000 		.4byte	.LVL23
 3283 00cb 0600     		.2byte	0x6
 3284 00cd 71       		.byte	0x71
 3285 00ce 00       		.sleb128 0
 3286 00cf 08       		.byte	0x8
 3287 00d0 20       		.byte	0x20
 3288 00d1 21       		.byte	0x21
 3289 00d2 9F       		.byte	0x9f
 3290 00d3 16000000 		.4byte	.LVL23
 3291 00d7 2A000000 		.4byte	.LVL24
 3292 00db 0100     		.2byte	0x1
 3293 00dd 51       		.byte	0x51
 3294 00de 2A000000 		.4byte	.LVL24
ARM GAS  /var/folders/qh/xwg3v3kj02qbxczjpdb8lzfr0000gn/T//cc0aEZG6.s 			page 59


 3295 00e2 2E000000 		.4byte	.LVL25
 3296 00e6 0200     		.2byte	0x2
 3297 00e8 73       		.byte	0x73
 3298 00e9 00       		.sleb128 0
 3299 00ea 56000000 		.4byte	.LVL27
 3300 00ee 5A000000 		.4byte	.LVL28
 3301 00f2 0600     		.2byte	0x6
 3302 00f4 71       		.byte	0x71
 3303 00f5 00       		.sleb128 0
 3304 00f6 08       		.byte	0x8
 3305 00f7 20       		.byte	0x20
 3306 00f8 21       		.byte	0x21
 3307 00f9 9F       		.byte	0x9f
 3308 00fa 5A000000 		.4byte	.LVL28
 3309 00fe 60000000 		.4byte	.LFE46
 3310 0102 0700     		.2byte	0x7
 3311 0104 70       		.byte	0x70
 3312 0105 30       		.sleb128 48
 3313 0106 06       		.byte	0x6
 3314 0107 08       		.byte	0x8
 3315 0108 20       		.byte	0x20
 3316 0109 21       		.byte	0x21
 3317 010a 9F       		.byte	0x9f
 3318 010b 00000000 		.4byte	0
 3319 010f 00000000 		.4byte	0
 3320              	.LLST4:
 3321 0113 02000000 		.4byte	.LVL20
 3322 0117 44000000 		.4byte	.LVL26
 3323 011b 0100     		.2byte	0x1
 3324 011d 52       		.byte	0x52
 3325 011e 44000000 		.4byte	.LVL26
 3326 0122 56000000 		.4byte	.LVL27
 3327 0126 0200     		.2byte	0x2
 3328 0128 70       		.byte	0x70
 3329 0129 10       		.sleb128 16
 3330 012a 56000000 		.4byte	.LVL27
 3331 012e 60000000 		.4byte	.LFE46
 3332 0132 0100     		.2byte	0x1
 3333 0134 52       		.byte	0x52
 3334 0135 00000000 		.4byte	0
 3335 0139 00000000 		.4byte	0
 3336              	.LLST5:
 3337 013d 0E000000 		.4byte	.LVL34
 3338 0141 28000000 		.4byte	.LVL37
 3339 0145 0100     		.2byte	0x1
 3340 0147 55       		.byte	0x55
 3341 0148 2A000000 		.4byte	.LVL39
 3342 014c D8000000 		.4byte	.LFE42
 3343 0150 0100     		.2byte	0x1
 3344 0152 55       		.byte	0x55
 3345 0153 00000000 		.4byte	0
 3346 0157 00000000 		.4byte	0
 3347              	.LLST6:
 3348 015b 04000000 		.4byte	.LVL32
 3349 015f 28000000 		.4byte	.LVL38
 3350 0163 0100     		.2byte	0x1
 3351 0165 56       		.byte	0x56
ARM GAS  /var/folders/qh/xwg3v3kj02qbxczjpdb8lzfr0000gn/T//cc0aEZG6.s 			page 60


 3352 0166 2A000000 		.4byte	.LVL39
 3353 016a D8000000 		.4byte	.LFE42
 3354 016e 0100     		.2byte	0x1
 3355 0170 56       		.byte	0x56
 3356 0171 00000000 		.4byte	0
 3357 0175 00000000 		.4byte	0
 3358              	.LLST7:
 3359 0179 64000000 		.4byte	.LVL43
 3360 017d 71000000 		.4byte	.LVL44-1
 3361 0181 0100     		.2byte	0x1
 3362 0183 50       		.byte	0x50
 3363 0184 00000000 		.4byte	0
 3364 0188 00000000 		.4byte	0
 3365              	.LLST8:
 3366 018c AC000000 		.4byte	.LVL49
 3367 0190 B9000000 		.4byte	.LVL50-1
 3368 0194 0100     		.2byte	0x1
 3369 0196 50       		.byte	0x50
 3370 0197 00000000 		.4byte	0
 3371 019b 00000000 		.4byte	0
 3372              	.LLST9:
 3373 019f 00000000 		.4byte	.LVL52
 3374 01a3 08000000 		.4byte	.LVL53
 3375 01a7 0100     		.2byte	0x1
 3376 01a9 50       		.byte	0x50
 3377 01aa 08000000 		.4byte	.LVL53
 3378 01ae 36000000 		.4byte	.LVL59
 3379 01b2 0100     		.2byte	0x1
 3380 01b4 54       		.byte	0x54
 3381 01b5 36000000 		.4byte	.LVL59
 3382 01b9 38000000 		.4byte	.LVL60
 3383 01bd 0400     		.2byte	0x4
 3384 01bf F3       		.byte	0xf3
 3385 01c0 01       		.uleb128 0x1
 3386 01c1 50       		.byte	0x50
 3387 01c2 9F       		.byte	0x9f
 3388 01c3 38000000 		.4byte	.LVL60
 3389 01c7 E4000000 		.4byte	.LFE41
 3390 01cb 0100     		.2byte	0x1
 3391 01cd 54       		.byte	0x54
 3392 01ce 00000000 		.4byte	0
 3393 01d2 00000000 		.4byte	0
 3394              	.LLST10:
 3395 01d6 00000000 		.4byte	.LVL52
 3396 01da 28000000 		.4byte	.LVL54
 3397 01de 0100     		.2byte	0x1
 3398 01e0 51       		.byte	0x51
 3399 01e1 28000000 		.4byte	.LVL54
 3400 01e5 38000000 		.4byte	.LVL60
 3401 01e9 0400     		.2byte	0x4
 3402 01eb F3       		.byte	0xf3
 3403 01ec 01       		.uleb128 0x1
 3404 01ed 51       		.byte	0x51
 3405 01ee 9F       		.byte	0x9f
 3406 01ef 38000000 		.4byte	.LVL60
 3407 01f3 46000000 		.4byte	.LVL61
 3408 01f7 0100     		.2byte	0x1
ARM GAS  /var/folders/qh/xwg3v3kj02qbxczjpdb8lzfr0000gn/T//cc0aEZG6.s 			page 61


 3409 01f9 51       		.byte	0x51
 3410 01fa 46000000 		.4byte	.LVL61
 3411 01fe 4E000000 		.4byte	.LVL63
 3412 0202 0400     		.2byte	0x4
 3413 0204 F3       		.byte	0xf3
 3414 0205 01       		.uleb128 0x1
 3415 0206 51       		.byte	0x51
 3416 0207 9F       		.byte	0x9f
 3417 0208 4E000000 		.4byte	.LVL63
 3418 020c 53000000 		.4byte	.LVL64-1
 3419 0210 0100     		.2byte	0x1
 3420 0212 51       		.byte	0x51
 3421 0213 53000000 		.4byte	.LVL64-1
 3422 0217 98000000 		.4byte	.LVL70
 3423 021b 0400     		.2byte	0x4
 3424 021d F3       		.byte	0xf3
 3425 021e 01       		.uleb128 0x1
 3426 021f 51       		.byte	0x51
 3427 0220 9F       		.byte	0x9f
 3428 0221 98000000 		.4byte	.LVL70
 3429 0225 9A000000 		.4byte	.LVL71
 3430 0229 0100     		.2byte	0x1
 3431 022b 51       		.byte	0x51
 3432 022c 9A000000 		.4byte	.LVL71
 3433 0230 A0000000 		.4byte	.LVL73
 3434 0234 0400     		.2byte	0x4
 3435 0236 F3       		.byte	0xf3
 3436 0237 01       		.uleb128 0x1
 3437 0238 51       		.byte	0x51
 3438 0239 9F       		.byte	0x9f
 3439 023a A0000000 		.4byte	.LVL73
 3440 023e A5000000 		.4byte	.LVL74-1
 3441 0242 0100     		.2byte	0x1
 3442 0244 51       		.byte	0x51
 3443 0245 A5000000 		.4byte	.LVL74-1
 3444 0249 E4000000 		.4byte	.LFE41
 3445 024d 0400     		.2byte	0x4
 3446 024f F3       		.byte	0xf3
 3447 0250 01       		.uleb128 0x1
 3448 0251 51       		.byte	0x51
 3449 0252 9F       		.byte	0x9f
 3450 0253 00000000 		.4byte	0
 3451 0257 00000000 		.4byte	0
 3452              	.LLST11:
 3453 025b 2A000000 		.4byte	.LVL55
 3454 025f 35000000 		.4byte	.LVL58-1
 3455 0263 0100     		.2byte	0x1
 3456 0265 52       		.byte	0x52
 3457 0266 00000000 		.4byte	0
 3458 026a 00000000 		.4byte	0
 3459              	.LLST12:
 3460 026e 2A000000 		.4byte	.LVL55
 3461 0272 2C000000 		.4byte	.LVL56
 3462 0276 0C00     		.2byte	0xc
 3463 0278 73       		.byte	0x73
 3464 0279 02       		.sleb128 2
 3465 027a 94       		.byte	0x94
ARM GAS  /var/folders/qh/xwg3v3kj02qbxczjpdb8lzfr0000gn/T//cc0aEZG6.s 			page 62


 3466 027b 02       		.byte	0x2
 3467 027c 0A       		.byte	0xa
 3468 027d FFFF     		.2byte	0xffff
 3469 027f 1A       		.byte	0x1a
 3470 0280 72       		.byte	0x72
 3471 0281 00       		.sleb128 0
 3472 0282 1E       		.byte	0x1e
 3473 0283 9F       		.byte	0x9f
 3474 0284 2C000000 		.4byte	.LVL56
 3475 0288 30000000 		.4byte	.LVL57
 3476 028c 0100     		.2byte	0x1
 3477 028e 51       		.byte	0x51
 3478 028f 30000000 		.4byte	.LVL57
 3479 0293 35000000 		.4byte	.LVL58-1
 3480 0297 0F00     		.2byte	0xf
 3481 0299 74       		.byte	0x74
 3482 029a 10       		.sleb128 16
 3483 029b 06       		.byte	0x6
 3484 029c 23       		.byte	0x23
 3485 029d 02       		.uleb128 0x2
 3486 029e 94       		.byte	0x94
 3487 029f 02       		.byte	0x2
 3488 02a0 0A       		.byte	0xa
 3489 02a1 FFFF     		.2byte	0xffff
 3490 02a3 1A       		.byte	0x1a
 3491 02a4 72       		.byte	0x72
 3492 02a5 00       		.sleb128 0
 3493 02a6 1E       		.byte	0x1e
 3494 02a7 9F       		.byte	0x9f
 3495 02a8 00000000 		.4byte	0
 3496 02ac 00000000 		.4byte	0
 3497              	.LLST13:
 3498 02b0 7C000000 		.4byte	.LVL67
 3499 02b4 89000000 		.4byte	.LVL68-1
 3500 02b8 0100     		.2byte	0x1
 3501 02ba 50       		.byte	0x50
 3502 02bb 00000000 		.4byte	0
 3503 02bf 00000000 		.4byte	0
 3504              	.LLST14:
 3505 02c3 CC000000 		.4byte	.LVL77
 3506 02c7 D5000000 		.4byte	.LVL78-1
 3507 02cb 0100     		.2byte	0x1
 3508 02cd 50       		.byte	0x50
 3509 02ce 00000000 		.4byte	0
 3510 02d2 00000000 		.4byte	0
 3511              		.section	.debug_aranges,"",%progbits
 3512 0000 4C000000 		.4byte	0x4c
 3513 0004 0200     		.2byte	0x2
 3514 0006 00000000 		.4byte	.Ldebug_info0
 3515 000a 04       		.byte	0x4
 3516 000b 00       		.byte	0
 3517 000c 0000     		.2byte	0
 3518 000e 0000     		.2byte	0
 3519 0010 00000000 		.4byte	.LFB43
 3520 0014 64000000 		.4byte	.LFE43-.LFB43
 3521 0018 00000000 		.4byte	.LFB44
 3522 001c 60000000 		.4byte	.LFE44-.LFB44
ARM GAS  /var/folders/qh/xwg3v3kj02qbxczjpdb8lzfr0000gn/T//cc0aEZG6.s 			page 63


 3523 0020 00000000 		.4byte	.LFB45
 3524 0024 60000000 		.4byte	.LFE45-.LFB45
 3525 0028 00000000 		.4byte	.LFB46
 3526 002c 60000000 		.4byte	.LFE46-.LFB46
 3527 0030 00000000 		.4byte	.LFB47
 3528 0034 32000000 		.4byte	.LFE47-.LFB47
 3529 0038 00000000 		.4byte	.LFB42
 3530 003c D8000000 		.4byte	.LFE42-.LFB42
 3531 0040 00000000 		.4byte	.LFB41
 3532 0044 E4000000 		.4byte	.LFE41-.LFB41
 3533 0048 00000000 		.4byte	0
 3534 004c 00000000 		.4byte	0
 3535              		.section	.debug_ranges,"",%progbits
 3536              	.Ldebug_ranges0:
 3537 0000 1A000000 		.4byte	.LBB11
 3538 0004 20000000 		.4byte	.LBE11
 3539 0008 42000000 		.4byte	.LBB16
 3540 000c 60000000 		.4byte	.LBE16
 3541 0010 00000000 		.4byte	0
 3542 0014 00000000 		.4byte	0
 3543 0018 18000000 		.4byte	.LBB21
 3544 001c 1E000000 		.4byte	.LBE21
 3545 0020 20000000 		.4byte	.LBB26
 3546 0024 32000000 		.4byte	.LBE26
 3547 0028 00000000 		.4byte	0
 3548 002c 00000000 		.4byte	0
 3549 0030 00000000 		.4byte	.LFB43
 3550 0034 64000000 		.4byte	.LFE43
 3551 0038 00000000 		.4byte	.LFB44
 3552 003c 60000000 		.4byte	.LFE44
 3553 0040 00000000 		.4byte	.LFB45
 3554 0044 60000000 		.4byte	.LFE45
 3555 0048 00000000 		.4byte	.LFB46
 3556 004c 60000000 		.4byte	.LFE46
 3557 0050 00000000 		.4byte	.LFB47
 3558 0054 32000000 		.4byte	.LFE47
 3559 0058 00000000 		.4byte	.LFB42
 3560 005c D8000000 		.4byte	.LFE42
 3561 0060 00000000 		.4byte	.LFB41
 3562 0064 E4000000 		.4byte	.LFE41
 3563 0068 00000000 		.4byte	0
 3564 006c 00000000 		.4byte	0
 3565              		.section	.debug_line,"",%progbits
 3566              	.Ldebug_line0:
 3567 0000 97030000 		.section	.debug_str,"MS",%progbits,1
 3567      0200F201 
 3567      00000201 
 3567      FB0E0D00 
 3567      01010101 
 3568              	.LASF45:
 3569 0000 54687265 		.ascii	"ThreadsList\000"
 3569      6164734C 
 3569      69737400 
 3570              	.LASF37:
 3571 000c 705F7761 		.ascii	"p_waiting\000"
 3571      6974696E 
 3571      6700
ARM GAS  /var/folders/qh/xwg3v3kj02qbxczjpdb8lzfr0000gn/T//cc0aEZG6.s 			page 64


 3572              	.LASF149:
 3573 0016 2E2E2F2E 		.ascii	"../../os/hal/platforms/STM32F0xx/adc_lld.c\000"
 3573      2E2F6F73 
 3573      2F68616C 
 3573      2F706C61 
 3573      74666F72 
 3574              	.LASF36:
 3575 0041 705F7469 		.ascii	"p_time\000"
 3575      6D6500
 3576              	.LASF128:
 3577 0048 6164635F 		.ascii	"adc_lld_start_conversion\000"
 3577      6C6C645F 
 3577      73746172 
 3577      745F636F 
 3577      6E766572 
 3578              	.LASF46:
 3579 0061 72656761 		.ascii	"regarm_t\000"
 3579      726D5F74 
 3579      00
 3580              	.LASF27:
 3581 006a 705F7072 		.ascii	"p_prio\000"
 3581      696F00
 3582              	.LASF111:
 3583 0071 646D616D 		.ascii	"dmamode\000"
 3583      6F646500 
 3584              	.LASF151:
 3585 0079 6164635F 		.ascii	"adc_lld_stop_adc\000"
 3585      6C6C645F 
 3585      73746F70 
 3585      5F616463 
 3585      00
 3586              	.LASF73:
 3587 008a 41504232 		.ascii	"APB2RSTR\000"
 3587      52535452 
 3587      00
 3588              	.LASF133:
 3589 0093 666C6167 		.ascii	"flags\000"
 3589      7300
 3590              	.LASF23:
 3591 0099 73797374 		.ascii	"systime_t\000"
 3591      696D655F 
 3591      7400
 3592              	.LASF52:
 3593 00a3 6D5F6F77 		.ascii	"m_owner\000"
 3593      6E657200 
 3594              	.LASF141:
 3595 00ab 646D6153 		.ascii	"dmaStreamAllocate\000"
 3595      74726561 
 3595      6D416C6C 
 3595      6F636174 
 3595      6500
 3596              	.LASF38:
 3597 00bd 705F6D73 		.ascii	"p_msgqueue\000"
 3597      67717565 
 3597      756500
 3598              	.LASF101:
 3599 00c8 61646365 		.ascii	"adcerror_t\000"
ARM GAS  /var/folders/qh/xwg3v3kj02qbxczjpdb8lzfr0000gn/T//cc0aEZG6.s 			page 65


 3599      72726F72 
 3599      5F7400
 3600              	.LASF0:
 3601 00d3 756E7369 		.ascii	"unsigned int\000"
 3601      676E6564 
 3601      20696E74 
 3601      00
 3602              	.LASF78:
 3603 00e0 42444352 		.ascii	"BDCR\000"
 3603      00
 3604              	.LASF122:
 3605 00e5 64756D6D 		.ascii	"dummy\000"
 3605      7900
 3606              	.LASF70:
 3607 00eb 434D4152 		.ascii	"CMAR\000"
 3607      00
 3608              	.LASF81:
 3609 00f0 5243435F 		.ascii	"RCC_TypeDef\000"
 3609      54797065 
 3609      44656600 
 3610              	.LASF117:
 3611 00fc 6572726F 		.ascii	"error_cb\000"
 3611      725F6362 
 3611      00
 3612              	.LASF56:
 3613 0105 77746F62 		.ascii	"wtobjp\000"
 3613      6A7000
 3614              	.LASF125:
 3615 010c 6164635F 		.ascii	"adc_lld_start\000"
 3615      6C6C645F 
 3615      73746172 
 3615      7400
 3616              	.LASF71:
 3617 011a 444D415F 		.ascii	"DMA_Channel_TypeDef\000"
 3617      4368616E 
 3617      6E656C5F 
 3617      54797065 
 3617      44656600 
 3618              	.LASF148:
 3619 012e 474E5520 		.ascii	"GNU C 4.8.3 20131129 (release) [ARM/embedded-4_8-br"
 3619      4320342E 
 3619      382E3320 
 3619      32303133 
 3619      31313239 
 3620 0161 616E6368 		.ascii	"anch revision 205641] -mcpu=cortex-m0 -mno-thumb-in"
 3620      20726576 
 3620      6973696F 
 3620      6E203230 
 3620      35363431 
 3621 0194 74657277 		.ascii	"terwork -mthumb -ggdb -O2 -fomit-frame-pointer -fal"
 3621      6F726B20 
 3621      2D6D7468 
 3621      756D6220 
 3621      2D676764 
 3622 01c7 69676E2D 		.ascii	"ign-functions=16 -ffunction-sections -fdata-section"
 3622      66756E63 
 3622      74696F6E 
ARM GAS  /var/folders/qh/xwg3v3kj02qbxczjpdb8lzfr0000gn/T//cc0aEZG6.s 			page 66


 3622      733D3136 
 3622      202D6666 
 3623 01fa 73202D66 		.ascii	"s -fno-common\000"
 3623      6E6F2D63 
 3623      6F6D6D6F 
 3623      6E00
 3624              	.LASF57:
 3625 0208 65776D61 		.ascii	"ewmask\000"
 3625      736B00
 3626              	.LASF129:
 3627 020f 6D6F6465 		.ascii	"mode\000"
 3627      00
 3628              	.LASF68:
 3629 0214 434E4454 		.ascii	"CNDTR\000"
 3629      5200
 3630              	.LASF138:
 3631 021a 6164634F 		.ascii	"adcObjectInit\000"
 3631      626A6563 
 3631      74496E69 
 3631      7400
 3632              	.LASF10:
 3633 0228 75696E74 		.ascii	"uint32_t\000"
 3633      33325F74 
 3633      00
 3634              	.LASF113:
 3635 0231 61646365 		.ascii	"adcerrorcallback_t\000"
 3635      72726F72 
 3635      63616C6C 
 3635      6261636B 
 3635      5F7400
 3636              	.LASF22:
 3637 0244 6576656E 		.ascii	"eventmask_t\000"
 3637      746D6173 
 3637      6B5F7400 
 3638              	.LASF79:
 3639 0250 41484252 		.ascii	"AHBRSTR\000"
 3639      53545200 
 3640              	.LASF83:
 3641 0258 69666372 		.ascii	"ifcr\000"
 3641      00
 3642              	.LASF109:
 3643 025d 6D757465 		.ascii	"mutex\000"
 3643      7800
 3644              	.LASF20:
 3645 0263 74707269 		.ascii	"tprio_t\000"
 3645      6F5F7400 
 3646              	.LASF134:
 3647 026b 68616C66 		.ascii	"half\000"
 3647      00
 3648              	.LASF116:
 3649 0270 656E645F 		.ascii	"end_cb\000"
 3649      636200
 3650              	.LASF114:
 3651 0277 63697263 		.ascii	"circular\000"
 3651      756C6172 
 3651      00
 3652              	.LASF13:
ARM GAS  /var/folders/qh/xwg3v3kj02qbxczjpdb8lzfr0000gn/T//cc0aEZG6.s 			page 67


 3653 0280 6C6F6E67 		.ascii	"long long unsigned int\000"
 3653      206C6F6E 
 3653      6720756E 
 3653      7369676E 
 3653      65642069 
 3654              	.LASF147:
 3655 0297 6462675F 		.ascii	"dbg_check_unlock_from_isr\000"
 3655      63686563 
 3655      6B5F756E 
 3655      6C6F636B 
 3655      5F66726F 
 3656              	.LASF86:
 3657 02b1 76656374 		.ascii	"vector\000"
 3657      6F7200
 3658              	.LASF139:
 3659 02b8 6E766963 		.ascii	"nvicEnableVector\000"
 3659      456E6162 
 3659      6C655665 
 3659      63746F72 
 3659      00
 3660              	.LASF65:
 3661 02c9 43485345 		.ascii	"CHSELR\000"
 3661      4C5200
 3662              	.LASF29:
 3663 02d0 705F6E65 		.ascii	"p_newer\000"
 3663      77657200 
 3664              	.LASF69:
 3665 02d8 43504152 		.ascii	"CPAR\000"
 3665      00
 3666              	.LASF150:
 3667 02dd 2F557365 		.ascii	"/Users/John/Development/embedded/ChibiOS-RT/BluC/ST"
 3667      72732F4A 
 3667      6F686E2F 
 3667      44657665 
 3667      6C6F706D 
 3668 0310 4D333246 		.ascii	"M32F051\000"
 3668      30353100 
 3669              	.LASF2:
 3670 0318 73697A65 		.ascii	"size_t\000"
 3670      5F7400
 3671              	.LASF54:
 3672 031f 7264796D 		.ascii	"rdymsg\000"
 3672      736700
 3673              	.LASF61:
 3674 0326 534D5052 		.ascii	"SMPR\000"
 3674      00
 3675              	.LASF14:
 3676 032b 626F6F6C 		.ascii	"bool_t\000"
 3676      5F7400
 3677              	.LASF15:
 3678 0332 5F426F6F 		.ascii	"_Bool\000"
 3678      6C00
 3679              	.LASF100:
 3680 0338 4144435F 		.ascii	"ADC_ERR_AWD\000"
 3680      4552525F 
 3680      41574400 
 3681              	.LASF50:
ARM GAS  /var/folders/qh/xwg3v3kj02qbxczjpdb8lzfr0000gn/T//cc0aEZG6.s 			page 68


 3682 0344 4D757465 		.ascii	"Mutex\000"
 3682      7800
 3683              	.LASF99:
 3684 034a 4144435F 		.ascii	"ADC_ERR_OVERFLOW\000"
 3684      4552525F 
 3684      4F564552 
 3684      464C4F57 
 3684      00
 3685              	.LASF110:
 3686 035b 646D6173 		.ascii	"dmastp\000"
 3686      747000
 3687              	.LASF93:
 3688 0362 4144435F 		.ascii	"ADC_COMPLETE\000"
 3688      434F4D50 
 3688      4C455445 
 3688      00
 3689              	.LASF94:
 3690 036f 4144435F 		.ascii	"ADC_ERROR\000"
 3690      4552524F 
 3690      5200
 3691              	.LASF88:
 3692 0379 73746D33 		.ascii	"stm32_dmaisr_t\000"
 3692      325F646D 
 3692      61697372 
 3692      5F7400
 3693              	.LASF31:
 3694 0388 705F6E61 		.ascii	"p_name\000"
 3694      6D6500
 3695              	.LASF74:
 3696 038f 41504231 		.ascii	"APB1RSTR\000"
 3696      52535452 
 3696      00
 3697              	.LASF44:
 3698 0398 54687265 		.ascii	"ThreadsQueue\000"
 3698      61647351 
 3698      75657565 
 3698      00
 3699              	.LASF58:
 3700 03a5 63686172 		.ascii	"char\000"
 3700      00
 3701              	.LASF84:
 3702 03aa 69736869 		.ascii	"ishift\000"
 3702      667400
 3703              	.LASF24:
 3704 03b1 54687265 		.ascii	"Thread\000"
 3704      616400
 3705              	.LASF17:
 3706 03b8 74737461 		.ascii	"tstate_t\000"
 3706      74655F74 
 3706      00
 3707              	.LASF131:
 3708 03c1 56656374 		.ascii	"Vector70\000"
 3708      6F723730 
 3708      00
 3709              	.LASF75:
 3710 03ca 41484245 		.ascii	"AHBENR\000"
 3710      4E5200
ARM GAS  /var/folders/qh/xwg3v3kj02qbxczjpdb8lzfr0000gn/T//cc0aEZG6.s 			page 69


 3711              	.LASF30:
 3712 03d1 705F6F6C 		.ascii	"p_older\000"
 3712      64657200 
 3713              	.LASF32:
 3714 03d9 705F7374 		.ascii	"p_state\000"
 3714      61746500 
 3715              	.LASF3:
 3716 03e1 75696E74 		.ascii	"uint8_t\000"
 3716      385F7400 
 3717              	.LASF102:
 3718 03e9 41444344 		.ascii	"ADCDriver\000"
 3718      72697665 
 3718      7200
 3719              	.LASF43:
 3720 03f3 705F6D70 		.ascii	"p_mpool\000"
 3720      6F6F6C00 
 3721              	.LASF41:
 3722 03fb 705F6D74 		.ascii	"p_mtxlist\000"
 3722      786C6973 
 3722      7400
 3723              	.LASF143:
 3724 0405 6462675F 		.ascii	"dbg_check_enter_isr\000"
 3724      63686563 
 3724      6B5F656E 
 3724      7465725F 
 3724      69737200 
 3725              	.LASF105:
 3726 0419 73616D70 		.ascii	"samples\000"
 3726      6C657300 
 3727              	.LASF12:
 3728 0421 6C6F6E67 		.ascii	"long long int\000"
 3728      206C6F6E 
 3728      6720696E 
 3728      7400
 3729              	.LASF119:
 3730 042f 736D7072 		.ascii	"smpr\000"
 3730      00
 3731              	.LASF106:
 3732 0434 64657074 		.ascii	"depth\000"
 3732      6800
 3733              	.LASF21:
 3734 043a 6D73675F 		.ascii	"msg_t\000"
 3734      7400
 3735              	.LASF48:
 3736 0440 636F6E74 		.ascii	"context\000"
 3736      65787400 
 3737              	.LASF123:
 3738 0448 41444343 		.ascii	"ADCConfig\000"
 3738      6F6E6669 
 3738      6700
 3739              	.LASF112:
 3740 0452 61646363 		.ascii	"adccallback_t\000"
 3740      616C6C62 
 3740      61636B5F 
 3740      7400
 3741              	.LASF33:
 3742 0460 705F666C 		.ascii	"p_flags\000"
ARM GAS  /var/folders/qh/xwg3v3kj02qbxczjpdb8lzfr0000gn/T//cc0aEZG6.s 			page 70


 3742      61677300 
 3743              	.LASF19:
 3744 0468 74736C69 		.ascii	"tslices_t\000"
 3744      6365735F 
 3744      7400
 3745              	.LASF59:
 3746 0472 43464752 		.ascii	"CFGR1\000"
 3746      3100
 3747              	.LASF60:
 3748 0478 43464752 		.ascii	"CFGR2\000"
 3748      3200
 3749              	.LASF80:
 3750 047e 43464752 		.ascii	"CFGR3\000"
 3750      3300
 3751              	.LASF76:
 3752 0484 41504232 		.ascii	"APB2ENR\000"
 3752      454E5200 
 3753              	.LASF39:
 3754 048c 705F6D73 		.ascii	"p_msg\000"
 3754      6700
 3755              	.LASF16:
 3756 0492 746D6F64 		.ascii	"tmode_t\000"
 3756      655F7400 
 3757              	.LASF96:
 3758 049a 61646373 		.ascii	"adcsample_t\000"
 3758      616D706C 
 3758      655F7400 
 3759              	.LASF137:
 3760 04a6 41444344 		.ascii	"ADCD1\000"
 3760      3100
 3761              	.LASF126:
 3762 04ac 6164635F 		.ascii	"adc_lld_stop\000"
 3762      6C6C645F 
 3762      73746F70 
 3762      00
 3763              	.LASF6:
 3764 04b9 75696E74 		.ascii	"uint16_t\000"
 3764      31365F74 
 3764      00
 3765              	.LASF47:
 3766 04c2 696E7463 		.ascii	"intctx\000"
 3766      747800
 3767              	.LASF82:
 3768 04c9 6368616E 		.ascii	"channel\000"
 3768      6E656C00 
 3769              	.LASF92:
 3770 04d1 4144435F 		.ascii	"ADC_ACTIVE\000"
 3770      41435449 
 3770      564500
 3771              	.LASF135:
 3772 04dc 68616C66 		.ascii	"half_index\000"
 3772      5F696E64 
 3772      657800
 3773              	.LASF142:
 3774 04e7 63685363 		.ascii	"chSchReadyI\000"
 3774      68526561 
 3774      64794900 
ARM GAS  /var/folders/qh/xwg3v3kj02qbxczjpdb8lzfr0000gn/T//cc0aEZG6.s 			page 71


 3775              	.LASF104:
 3776 04f3 636F6E66 		.ascii	"config\000"
 3776      696700
 3777              	.LASF140:
 3778 04fa 646D6153 		.ascii	"dmaStreamRelease\000"
 3778      74726561 
 3778      6D52656C 
 3778      65617365 
 3778      00
 3779              	.LASF42:
 3780 050b 705F7265 		.ascii	"p_realprio\000"
 3780      616C7072 
 3780      696F00
 3781              	.LASF62:
 3782 0516 52455345 		.ascii	"RESERVED1\000"
 3782      52564544 
 3782      3100
 3783              	.LASF63:
 3784 0520 52455345 		.ascii	"RESERVED2\000"
 3784      52564544 
 3784      3200
 3785              	.LASF64:
 3786 052a 52455345 		.ascii	"RESERVED3\000"
 3786      52564544 
 3786      3300
 3787              	.LASF66:
 3788 0534 52455345 		.ascii	"RESERVED4\000"
 3788      52564544 
 3788      3400
 3789              	.LASF5:
 3790 053e 73686F72 		.ascii	"short int\000"
 3790      7420696E 
 3790      7400
 3791              	.LASF97:
 3792 0548 6164635F 		.ascii	"adc_channels_num_t\000"
 3792      6368616E 
 3792      6E656C73 
 3792      5F6E756D 
 3792      5F7400
 3793              	.LASF118:
 3794 055b 63666772 		.ascii	"cfgr1\000"
 3794      3100
 3795              	.LASF40:
 3796 0561 705F6570 		.ascii	"p_epending\000"
 3796      656E6469 
 3796      6E6700
 3797              	.LASF51:
 3798 056c 6D5F7175 		.ascii	"m_queue\000"
 3798      65756500 
 3799              	.LASF9:
 3800 0574 6C6F6E67 		.ascii	"long int\000"
 3800      20696E74 
 3800      00
 3801              	.LASF121:
 3802 057d 41444343 		.ascii	"ADCConversionGroup\000"
 3802      6F6E7665 
 3802      7273696F 
ARM GAS  /var/folders/qh/xwg3v3kj02qbxczjpdb8lzfr0000gn/T//cc0aEZG6.s 			page 72


 3802      6E47726F 
 3802      757000
 3803              	.LASF115:
 3804 0590 6E756D5F 		.ascii	"num_channels\000"
 3804      6368616E 
 3804      6E656C73 
 3804      00
 3805              	.LASF124:
 3806 059d 6164635F 		.ascii	"adc_lld_init\000"
 3806      6C6C645F 
 3806      696E6974 
 3806      00
 3807              	.LASF25:
 3808 05aa 705F6E65 		.ascii	"p_next\000"
 3808      787400
 3809              	.LASF28:
 3810 05b1 705F6374 		.ascii	"p_ctx\000"
 3810      7800
 3811              	.LASF72:
 3812 05b7 43464752 		.ascii	"CFGR\000"
 3812      00
 3813              	.LASF89:
 3814 05bc 4144435F 		.ascii	"ADC_UNINIT\000"
 3814      554E494E 
 3814      495400
 3815              	.LASF98:
 3816 05c7 4144435F 		.ascii	"ADC_ERR_DMAFAILURE\000"
 3816      4552525F 
 3816      444D4146 
 3816      41494C55 
 3816      524500
 3817              	.LASF26:
 3818 05da 705F7072 		.ascii	"p_prev\000"
 3818      657600
 3819              	.LASF49:
 3820 05e1 73697A65 		.ascii	"sizetype\000"
 3820      74797065 
 3820      00
 3821              	.LASF18:
 3822 05ea 74726566 		.ascii	"trefs_t\000"
 3822      735F7400 
 3823              	.LASF11:
 3824 05f2 6C6F6E67 		.ascii	"long unsigned int\000"
 3824      20756E73 
 3824      69676E65 
 3824      6420696E 
 3824      7400
 3825              	.LASF91:
 3826 0604 4144435F 		.ascii	"ADC_READY\000"
 3826      52454144 
 3826      5900
 3827              	.LASF146:
 3828 060e 6462675F 		.ascii	"dbg_check_lock_from_isr\000"
 3828      63686563 
 3828      6B5F6C6F 
 3828      636B5F66 
 3828      726F6D5F 
ARM GAS  /var/folders/qh/xwg3v3kj02qbxczjpdb8lzfr0000gn/T//cc0aEZG6.s 			page 73


 3829              	.LASF120:
 3830 0626 63687365 		.ascii	"chselr\000"
 3830      6C7200
 3831              	.LASF130:
 3832 062d 6164635F 		.ascii	"adc_lld_stop_conversion\000"
 3832      6C6C645F 
 3832      73746F70 
 3832      5F636F6E 
 3832      76657273 
 3833              	.LASF95:
 3834 0645 61646373 		.ascii	"adcstate_t\000"
 3834      74617465 
 3834      5F7400
 3835              	.LASF127:
 3836 0650 61646370 		.ascii	"adcp\000"
 3836      00
 3837              	.LASF8:
 3838 0655 696E7433 		.ascii	"int32_t\000"
 3838      325F7400 
 3839              	.LASF108:
 3840 065d 74687265 		.ascii	"thread\000"
 3840      616400
 3841              	.LASF4:
 3842 0664 756E7369 		.ascii	"unsigned char\000"
 3842      676E6564 
 3842      20636861 
 3842      7200
 3843              	.LASF34:
 3844 0672 705F7265 		.ascii	"p_refs\000"
 3844      667300
 3845              	.LASF145:
 3846 0679 5F706F72 		.ascii	"_port_irq_epilogue\000"
 3846      745F6972 
 3846      715F6570 
 3846      696C6F67 
 3846      756500
 3847              	.LASF35:
 3848 068c 705F7072 		.ascii	"p_preempt\000"
 3848      65656D70 
 3848      7400
 3849              	.LASF152:
 3850 0696 6164635F 		.ascii	"adc_lld_serve_rx_interrupt\000"
 3850      6C6C645F 
 3850      73657276 
 3850      655F7278 
 3850      5F696E74 
 3851              	.LASF103:
 3852 06b1 73746174 		.ascii	"state\000"
 3852      6500
 3853              	.LASF67:
 3854 06b7 4144435F 		.ascii	"ADC_TypeDef\000"
 3854      54797065 
 3854      44656600 
 3855              	.LASF53:
 3856 06c3 6D5F6E65 		.ascii	"m_next\000"
 3856      787400
 3857              	.LASF1:
ARM GAS  /var/folders/qh/xwg3v3kj02qbxczjpdb8lzfr0000gn/T//cc0aEZG6.s 			page 74


 3858 06ca 7369676E 		.ascii	"signed char\000"
 3858      65642063 
 3858      68617200 
 3859              	.LASF7:
 3860 06d6 73686F72 		.ascii	"short unsigned int\000"
 3860      7420756E 
 3860      7369676E 
 3860      65642069 
 3860      6E7400
 3861              	.LASF87:
 3862 06e9 73746D33 		.ascii	"stm32_dma_stream_t\000"
 3862      325F646D 
 3862      615F7374 
 3862      7265616D 
 3862      5F7400
 3863              	.LASF144:
 3864 06fc 6462675F 		.ascii	"dbg_check_leave_isr\000"
 3864      63686563 
 3864      6B5F6C65 
 3864      6176655F 
 3864      69737200 
 3865              	.LASF107:
 3866 0710 67727070 		.ascii	"grpp\000"
 3866      00
 3867              	.LASF136:
 3868 0715 5F73746D 		.ascii	"_stm32_dma_streams\000"
 3868      33325F64 
 3868      6D615F73 
 3868      74726561 
 3868      6D7300
 3869              	.LASF132:
 3870 0728 5F736176 		.ascii	"_saved_lr\000"
 3870      65645F6C 
 3870      7200
 3871              	.LASF77:
 3872 0732 41504231 		.ascii	"APB1ENR\000"
 3872      454E5200 
 3873              	.LASF90:
 3874 073a 4144435F 		.ascii	"ADC_STOP\000"
 3874      53544F50 
 3874      00
 3875              	.LASF55:
 3876 0743 65786974 		.ascii	"exitcode\000"
 3876      636F6465 
 3876      00
 3877              	.LASF85:
 3878 074c 73656C66 		.ascii	"selfindex\000"
 3878      696E6465 
 3878      7800
 3879              		.ident	"GCC: (GNU Tools for ARM Embedded Processors) 4.8.3 20131129 (release) [ARM/embedded-4_8-br
ARM GAS  /var/folders/qh/xwg3v3kj02qbxczjpdb8lzfr0000gn/T//cc0aEZG6.s 			page 75


DEFINED SYMBOLS
                            *ABS*:0000000000000000 adc_lld.c
/var/folders/qh/xwg3v3kj02qbxczjpdb8lzfr0000gn/T//cc0aEZG6.s:18     .text.adc_lld_init:0000000000000000 $t
/var/folders/qh/xwg3v3kj02qbxczjpdb8lzfr0000gn/T//cc0aEZG6.s:24     .text.adc_lld_init:0000000000000000 adc_lld_init
/var/folders/qh/xwg3v3kj02qbxczjpdb8lzfr0000gn/T//cc0aEZG6.s:96     .text.adc_lld_init:000000000000004c $d
/var/folders/qh/xwg3v3kj02qbxczjpdb8lzfr0000gn/T//cc0aEZG6.s:106    .text.adc_lld_start:0000000000000000 $t
/var/folders/qh/xwg3v3kj02qbxczjpdb8lzfr0000gn/T//cc0aEZG6.s:112    .text.adc_lld_start:0000000000000000 adc_lld_start
/var/folders/qh/xwg3v3kj02qbxczjpdb8lzfr0000gn/T//cc0aEZG6.s:187    .text.adc_lld_start:000000000000004c $d
/var/folders/qh/xwg3v3kj02qbxczjpdb8lzfr0000gn/T//cc0aEZG6.s:678    .text.adc_lld_serve_rx_interrupt:0000000000000000 adc_lld_serve_rx_interrupt
/var/folders/qh/xwg3v3kj02qbxczjpdb8lzfr0000gn/T//cc0aEZG6.s:197    .text.adc_lld_stop:0000000000000000 $t
/var/folders/qh/xwg3v3kj02qbxczjpdb8lzfr0000gn/T//cc0aEZG6.s:203    .text.adc_lld_stop:0000000000000000 adc_lld_stop
/var/folders/qh/xwg3v3kj02qbxczjpdb8lzfr0000gn/T//cc0aEZG6.s:294    .text.adc_lld_stop:0000000000000054 $d
/var/folders/qh/xwg3v3kj02qbxczjpdb8lzfr0000gn/T//cc0aEZG6.s:305    .text.adc_lld_start_conversion:0000000000000000 $t
/var/folders/qh/xwg3v3kj02qbxczjpdb8lzfr0000gn/T//cc0aEZG6.s:311    .text.adc_lld_start_conversion:0000000000000000 adc_lld_start_conversion
/var/folders/qh/xwg3v3kj02qbxczjpdb8lzfr0000gn/T//cc0aEZG6.s:408    .text.adc_lld_start_conversion:000000000000005c $d
/var/folders/qh/xwg3v3kj02qbxczjpdb8lzfr0000gn/T//cc0aEZG6.s:413    .text.adc_lld_stop_conversion:0000000000000000 $t
/var/folders/qh/xwg3v3kj02qbxczjpdb8lzfr0000gn/T//cc0aEZG6.s:419    .text.adc_lld_stop_conversion:0000000000000000 adc_lld_stop_conversion
/var/folders/qh/xwg3v3kj02qbxczjpdb8lzfr0000gn/T//cc0aEZG6.s:482    .text.Vector70:0000000000000000 $t
/var/folders/qh/xwg3v3kj02qbxczjpdb8lzfr0000gn/T//cc0aEZG6.s:488    .text.Vector70:0000000000000000 Vector70
/var/folders/qh/xwg3v3kj02qbxczjpdb8lzfr0000gn/T//cc0aEZG6.s:667    .text.Vector70:00000000000000d0 $d
/var/folders/qh/xwg3v3kj02qbxczjpdb8lzfr0000gn/T//cc0aEZG6.s:673    .text.adc_lld_serve_rx_interrupt:0000000000000000 $t
/var/folders/qh/xwg3v3kj02qbxczjpdb8lzfr0000gn/T//cc0aEZG6.s:876    .bss.ADCD1:0000000000000000 ADCD1
/var/folders/qh/xwg3v3kj02qbxczjpdb8lzfr0000gn/T//cc0aEZG6.s:872    .bss.ADCD1:0000000000000000 $d
                     .debug_frame:0000000000000010 $d
/var/folders/qh/xwg3v3kj02qbxczjpdb8lzfr0000gn/T//cc0aEZG6.s:105    .text.adc_lld_init:0000000000000064 $t
/var/folders/qh/xwg3v3kj02qbxczjpdb8lzfr0000gn/T//cc0aEZG6.s:672    .text.Vector70:00000000000000d8 $t

UNDEFINED SYMBOLS
adcObjectInit
nvicEnableVector
_stm32_dma_streams
dmaStreamAllocate
dmaStreamRelease
dbg_check_enter_isr
dbg_check_leave_isr
_port_irq_epilogue
dbg_check_lock_from_isr
chSchReadyI
dbg_check_unlock_from_isr
