ARM GAS  /var/folders/qh/xwg3v3kj02qbxczjpdb8lzfr0000gn/T//ccg1ZAqC.s 			page 1


   1              		.cpu cortex-m0
   2              		.fpu softvfp
   3              		.eabi_attribute 20, 1
   4              		.eabi_attribute 21, 1
   5              		.eabi_attribute 23, 3
   6              		.eabi_attribute 24, 1
   7              		.eabi_attribute 25, 1
   8              		.eabi_attribute 26, 1
   9              		.eabi_attribute 30, 2
  10              		.eabi_attribute 34, 0
  11              		.eabi_attribute 18, 4
  12              		.code	16
  13              		.file	"chcond.c"
  14              		.text
  15              	.Ltext0:
  16              		.cfi_sections	.debug_frame
  17              		.section	.text.chCondInit,"ax",%progbits
  18              		.align	2
  19              		.p2align 4,,15
  20              		.global	chCondInit
  21              		.code	16
  22              		.thumb_func
  23              		.type	chCondInit, %function
  24              	chCondInit:
  25              	.LFB7:
  26              		.file 1 "../../os/kernel/src/chcond.c"
  27              		.loc 1 52 0
  28              		.cfi_startproc
  29              	.LVL0:
  30              		.loc 1 56 0
  31 0000 4060     		str	r0, [r0, #4]
  32 0002 0060     		str	r0, [r0]
  33              		.loc 1 57 0
  34              		@ sp needed
  35 0004 7047     		bx	lr
  36              		.cfi_endproc
  37              	.LFE7:
  38              		.size	chCondInit, .-chCondInit
  39 0006 C046C046 		.section	.text.chCondSignal,"ax",%progbits
  39      C046C046 
  39      C046
  40              		.align	2
  41              		.p2align 4,,15
  42              		.global	chCondSignal
  43              		.code	16
  44              		.thumb_func
  45              		.type	chCondSignal, %function
  46              	chCondSignal:
  47              	.LFB8:
  48              		.loc 1 66 0
  49              		.cfi_startproc
  50              	.LVL1:
  51 0000 10B5     		push	{r4, lr}
  52              		.cfi_def_cfa_offset 8
  53              		.cfi_offset 4, -8
  54              		.cfi_offset 14, -4
  55              		.loc 1 66 0
ARM GAS  /var/folders/qh/xwg3v3kj02qbxczjpdb8lzfr0000gn/T//ccg1ZAqC.s 			page 2


  56 0002 041C     		mov	r4, r0
  57              		.loc 1 70 0
  58              	@ 70 "../../os/kernel/src/chcond.c" 1
  59 0004 72B6     		cpsid   i
  60              	@ 0 "" 2
  61              		.code	16
  62 0006 FFF7FEFF 		bl	dbg_check_lock
  63              	.LVL2:
  64              		.loc 1 71 0
  65 000a 2068     		ldr	r0, [r4]
  66 000c A042     		cmp	r0, r4
  67 000e 05D0     		beq	.L3
  68              	.LVL3:
  69              	.LBB12:
  70              	.LBB13:
  71              		.file 2 "../../os/kernel/include/chinline.h"
  72              		.loc 2 55 0
  73 0010 0368     		ldr	r3, [r0]
  74              	.LBE13:
  75              	.LBE12:
  76              		.loc 1 72 0
  77 0012 0021     		mov	r1, #0
  78              	.LBB15:
  79              	.LBB14:
  80              		.loc 2 55 0
  81 0014 2360     		str	r3, [r4]
  82 0016 5C60     		str	r4, [r3, #4]
  83              	.LBE14:
  84              	.LBE15:
  85              		.loc 1 72 0
  86 0018 FFF7FEFF 		bl	chSchWakeupS
  87              	.LVL4:
  88              	.L3:
  89              		.loc 1 73 0
  90 001c FFF7FEFF 		bl	dbg_check_unlock
  91              	.LVL5:
  92              	@ 73 "../../os/kernel/src/chcond.c" 1
  93 0020 62B6     		cpsie   i
  94              	@ 0 "" 2
  95              		.loc 1 74 0
  96              		.code	16
  97              		@ sp needed
  98              	.LVL6:
  99 0022 10BD     		pop	{r4, pc}
 100              		.cfi_endproc
 101              	.LFE8:
 102              		.size	chCondSignal, .-chCondSignal
 103 0024 C046C046 		.section	.text.chCondSignalI,"ax",%progbits
 103      C046C046 
 103      C046C046 
 104              		.align	2
 105              		.p2align 4,,15
 106              		.global	chCondSignalI
 107              		.code	16
 108              		.thumb_func
 109              		.type	chCondSignalI, %function
 110              	chCondSignalI:
ARM GAS  /var/folders/qh/xwg3v3kj02qbxczjpdb8lzfr0000gn/T//ccg1ZAqC.s 			page 3


 111              	.LFB9:
 112              		.loc 1 87 0
 113              		.cfi_startproc
 114              	.LVL7:
 115 0000 10B5     		push	{r4, lr}
 116              		.cfi_def_cfa_offset 8
 117              		.cfi_offset 4, -8
 118              		.cfi_offset 14, -4
 119              		.loc 1 87 0
 120 0002 041C     		mov	r4, r0
 121              		.loc 1 89 0
 122 0004 FFF7FEFF 		bl	chDbgCheckClassI
 123              	.LVL8:
 124              		.loc 1 92 0
 125 0008 2068     		ldr	r0, [r4]
 126 000a A042     		cmp	r0, r4
 127 000c 06D0     		beq	.L5
 128              	.LVL9:
 129              	.LBB16:
 130              	.LBB17:
 131              		.loc 2 55 0
 132 000e 0368     		ldr	r3, [r0]
 133 0010 2360     		str	r3, [r4]
 134 0012 5C60     		str	r4, [r3, #4]
 135              	.LBE17:
 136              	.LBE16:
 137              		.loc 1 93 0
 138 0014 FFF7FEFF 		bl	chSchReadyI
 139              	.LVL10:
 140 0018 0023     		mov	r3, #0
 141 001a 4362     		str	r3, [r0, #36]
 142              	.LVL11:
 143              	.L5:
 144              		.loc 1 94 0
 145              		@ sp needed
 146              	.LVL12:
 147 001c 10BD     		pop	{r4, pc}
 148              		.cfi_endproc
 149              	.LFE9:
 150              		.size	chCondSignalI, .-chCondSignalI
 151 001e C046     		.section	.text.chCondBroadcastI,"ax",%progbits
 152              		.align	2
 153              		.p2align 4,,15
 154              		.global	chCondBroadcastI
 155              		.code	16
 156              		.thumb_func
 157              		.type	chCondBroadcastI, %function
 158              	chCondBroadcastI:
 159              	.LFB11:
 160              		.loc 1 122 0
 161              		.cfi_startproc
 162              	.LVL13:
 163 0000 38B5     		push	{r3, r4, r5, lr}
 164              		.cfi_def_cfa_offset 16
 165              		.cfi_offset 3, -16
 166              		.cfi_offset 4, -12
 167              		.cfi_offset 5, -8
ARM GAS  /var/folders/qh/xwg3v3kj02qbxczjpdb8lzfr0000gn/T//ccg1ZAqC.s 			page 4


 168              		.cfi_offset 14, -4
 169              		.loc 1 122 0
 170 0002 041C     		mov	r4, r0
 171              		.loc 1 124 0
 172 0004 FFF7FEFF 		bl	chDbgCheckClassI
 173              	.LVL14:
 174              		.loc 1 130 0
 175 0008 2068     		ldr	r0, [r4]
 176 000a A042     		cmp	r0, r4
 177 000c 0AD0     		beq	.L7
 178              		.loc 1 131 0
 179 000e 0225     		mov	r5, #2
 180 0010 6D42     		neg	r5, r5
 181              	.L11:
 182              	.LVL15:
 183              	.LBB18:
 184              	.LBB19:
 185              		.loc 2 55 0
 186 0012 0368     		ldr	r3, [r0]
 187 0014 2360     		str	r3, [r4]
 188 0016 5C60     		str	r4, [r3, #4]
 189              	.LBE19:
 190              	.LBE18:
 191              		.loc 1 131 0
 192 0018 FFF7FEFF 		bl	chSchReadyI
 193              	.LVL16:
 194 001c 4562     		str	r5, [r0, #36]
 195              		.loc 1 130 0
 196 001e 2068     		ldr	r0, [r4]
 197 0020 A042     		cmp	r0, r4
 198 0022 F6D1     		bne	.L11
 199              	.LVL17:
 200              	.L7:
 201              		.loc 1 132 0
 202              		@ sp needed
 203              	.LVL18:
 204 0024 38BD     		pop	{r3, r4, r5, pc}
 205              		.cfi_endproc
 206              	.LFE11:
 207              		.size	chCondBroadcastI, .-chCondBroadcastI
 208 0026 C046C046 		.section	.text.chCondBroadcast,"ax",%progbits
 208      C046C046 
 208      C046
 209              		.align	2
 210              		.p2align 4,,15
 211              		.global	chCondBroadcast
 212              		.code	16
 213              		.thumb_func
 214              		.type	chCondBroadcast, %function
 215              	chCondBroadcast:
 216              	.LFB10:
 217              		.loc 1 103 0
 218              		.cfi_startproc
 219              	.LVL19:
 220 0000 10B5     		push	{r4, lr}
 221              		.cfi_def_cfa_offset 8
 222              		.cfi_offset 4, -8
ARM GAS  /var/folders/qh/xwg3v3kj02qbxczjpdb8lzfr0000gn/T//ccg1ZAqC.s 			page 5


 223              		.cfi_offset 14, -4
 224              		.loc 1 103 0
 225 0002 041C     		mov	r4, r0
 226              		.loc 1 105 0
 227              	@ 105 "../../os/kernel/src/chcond.c" 1
 228 0004 72B6     		cpsid   i
 229              	@ 0 "" 2
 230              		.code	16
 231 0006 FFF7FEFF 		bl	dbg_check_lock
 232              	.LVL20:
 233              		.loc 1 106 0
 234 000a 201C     		mov	r0, r4
 235 000c FFF7FEFF 		bl	chCondBroadcastI
 236              	.LVL21:
 237              		.loc 1 107 0
 238 0010 FFF7FEFF 		bl	chSchRescheduleS
 239              	.LVL22:
 240              		.loc 1 108 0
 241 0014 FFF7FEFF 		bl	dbg_check_unlock
 242              	.LVL23:
 243              	@ 108 "../../os/kernel/src/chcond.c" 1
 244 0018 62B6     		cpsie   i
 245              	@ 0 "" 2
 246              		.loc 1 109 0
 247              		.code	16
 248              		@ sp needed
 249              	.LVL24:
 250 001a 10BD     		pop	{r4, pc}
 251              		.cfi_endproc
 252              	.LFE10:
 253              		.size	chCondBroadcast, .-chCondBroadcast
 254 001c C046C046 		.section	.text.chCondWaitS,"ax",%progbits
 255              		.align	2
 256              		.p2align 4,,15
 257              		.global	chCondWaitS
 258              		.code	16
 259              		.thumb_func
 260              		.type	chCondWaitS, %function
 261              	chCondWaitS:
 262              	.LFB13:
 263              		.loc 1 177 0
 264              		.cfi_startproc
 265              	.LVL25:
 266              		.loc 1 178 0
 267 0000 104B     		ldr	r3, .L19
 268              		.loc 1 177 0
 269 0002 70B5     		push	{r4, r5, r6, lr}
 270              		.cfi_def_cfa_offset 16
 271              		.cfi_offset 4, -16
 272              		.cfi_offset 5, -12
 273              		.cfi_offset 6, -8
 274              		.cfi_offset 14, -4
 275              		.loc 1 177 0
 276 0004 051C     		mov	r5, r0
 277              		.loc 1 178 0
 278 0006 9C69     		ldr	r4, [r3, #24]
 279              	.LVL26:
ARM GAS  /var/folders/qh/xwg3v3kj02qbxczjpdb8lzfr0000gn/T//ccg1ZAqC.s 			page 6


 280              		.loc 1 182 0
 281 0008 FFF7FEFF 		bl	chDbgCheckClassS
 282              	.LVL27:
 283              		.loc 1 188 0
 284 000c FFF7FEFF 		bl	chMtxUnlockS
 285              	.LVL28:
 286              		.loc 1 189 0
 287 0010 6562     		str	r5, [r4, #36]
 288              		.loc 1 188 0
 289 0012 061C     		mov	r6, r0
 290              	.LVL29:
 291              	.LBB20:
 292              	.LBB21:
 293              		.loc 2 36 0
 294 0014 2B1C     		mov	r3, r5
 295 0016 03E0     		b	.L16
 296              	.LVL30:
 297              	.L18:
 298              		.loc 2 39 0
 299 0018 9968     		ldr	r1, [r3, #8]
 300 001a A268     		ldr	r2, [r4, #8]
 301 001c 9142     		cmp	r1, r2
 302 001e 02D3     		bcc	.L15
 303              	.L16:
 304              		.loc 2 38 0
 305 0020 1B68     		ldr	r3, [r3]
 306              	.LVL31:
 307              		.loc 2 39 0
 308 0022 9D42     		cmp	r5, r3
 309 0024 F8D1     		bne	.L18
 310              	.L15:
 311              		.loc 2 41 0
 312 0026 5A68     		ldr	r2, [r3, #4]
 313              		.loc 2 40 0
 314 0028 2360     		str	r3, [r4]
 315              		.loc 2 41 0
 316 002a 6260     		str	r2, [r4, #4]
 317              	.LBE21:
 318              	.LBE20:
 319              		.loc 1 191 0
 320 002c 0520     		mov	r0, #5
 321              	.LVL32:
 322              	.LBB23:
 323              	.LBB22:
 324              		.loc 2 42 0
 325 002e 5C60     		str	r4, [r3, #4]
 326 0030 1460     		str	r4, [r2]
 327              	.LBE22:
 328              	.LBE23:
 329              		.loc 1 191 0
 330 0032 FFF7FEFF 		bl	chSchGoSleepS
 331              	.LVL33:
 332              		.loc 1 192 0
 333 0036 646A     		ldr	r4, [r4, #36]
 334              	.LVL34:
 335              		.loc 1 193 0
 336 0038 301C     		mov	r0, r6
ARM GAS  /var/folders/qh/xwg3v3kj02qbxczjpdb8lzfr0000gn/T//ccg1ZAqC.s 			page 7


 337 003a FFF7FEFF 		bl	chMtxLockS
 338              	.LVL35:
 339              		.loc 1 195 0
 340              		@ sp needed
 341 003e 201C     		mov	r0, r4
 342              	.LVL36:
 343              	.LVL37:
 344              	.LVL38:
 345 0040 70BD     		pop	{r4, r5, r6, pc}
 346              	.L20:
 347 0042 C046     		.align	2
 348              	.L19:
 349 0044 00000000 		.word	rlist
 350              		.cfi_endproc
 351              	.LFE13:
 352              		.size	chCondWaitS, .-chCondWaitS
 353 0048 C046C046 		.section	.text.chCondWait,"ax",%progbits
 353      C046C046 
 354              		.align	2
 355              		.p2align 4,,15
 356              		.global	chCondWait
 357              		.code	16
 358              		.thumb_func
 359              		.type	chCondWait, %function
 360              	chCondWait:
 361              	.LFB12:
 362              		.loc 1 151 0
 363              		.cfi_startproc
 364              	.LVL39:
 365 0000 10B5     		push	{r4, lr}
 366              		.cfi_def_cfa_offset 8
 367              		.cfi_offset 4, -8
 368              		.cfi_offset 14, -4
 369              		.loc 1 151 0
 370 0002 041C     		mov	r4, r0
 371              		.loc 1 154 0
 372              	@ 154 "../../os/kernel/src/chcond.c" 1
 373 0004 72B6     		cpsid   i
 374              	@ 0 "" 2
 375              		.code	16
 376 0006 FFF7FEFF 		bl	dbg_check_lock
 377              	.LVL40:
 378              		.loc 1 155 0
 379 000a 201C     		mov	r0, r4
 380 000c FFF7FEFF 		bl	chCondWaitS
 381              	.LVL41:
 382 0010 041C     		mov	r4, r0
 383              	.LVL42:
 384              		.loc 1 156 0
 385 0012 FFF7FEFF 		bl	dbg_check_unlock
 386              	.LVL43:
 387              	@ 156 "../../os/kernel/src/chcond.c" 1
 388 0016 62B6     		cpsie   i
 389              	@ 0 "" 2
 390              		.loc 1 158 0
 391              		.code	16
 392 0018 201C     		mov	r0, r4
ARM GAS  /var/folders/qh/xwg3v3kj02qbxczjpdb8lzfr0000gn/T//ccg1ZAqC.s 			page 8


 393              		@ sp needed
 394              	.LVL44:
 395 001a 10BD     		pop	{r4, pc}
 396              		.cfi_endproc
 397              	.LFE12:
 398              		.size	chCondWait, .-chCondWait
 399 001c C046C046 		.section	.text.chCondWaitTimeoutS,"ax",%progbits
 400              		.align	2
 401              		.p2align 4,,15
 402              		.global	chCondWaitTimeoutS
 403              		.code	16
 404              		.thumb_func
 405              		.type	chCondWaitTimeoutS, %function
 406              	chCondWaitTimeoutS:
 407              	.LFB15:
 408              		.loc 1 263 0
 409              		.cfi_startproc
 410              	.LVL45:
 411 0000 70B5     		push	{r4, r5, r6, lr}
 412              		.cfi_def_cfa_offset 16
 413              		.cfi_offset 4, -16
 414              		.cfi_offset 5, -12
 415              		.cfi_offset 6, -8
 416              		.cfi_offset 14, -4
 417              		.loc 1 263 0
 418 0002 041C     		mov	r4, r0
 419 0004 0D1C     		mov	r5, r1
 420              		.loc 1 267 0
 421 0006 FFF7FEFF 		bl	chDbgCheckClassS
 422              	.LVL46:
 423              		.loc 1 273 0
 424 000a FFF7FEFF 		bl	chMtxUnlockS
 425              	.LVL47:
 426              		.loc 1 274 0
 427 000e 0F4B     		ldr	r3, .L28
 428              		.loc 1 273 0
 429 0010 061C     		mov	r6, r0
 430              	.LVL48:
 431              		.loc 1 274 0
 432 0012 9A69     		ldr	r2, [r3, #24]
 433              	.LBB24:
 434              	.LBB25:
 435              		.loc 2 36 0
 436 0014 231C     		mov	r3, r4
 437              	.LBE25:
 438              	.LBE24:
 439              		.loc 1 274 0
 440 0016 5462     		str	r4, [r2, #36]
 441              	.LVL49:
 442 0018 03E0     		b	.L27
 443              	.LVL50:
 444              	.L23:
 445              	.LBB29:
 446              	.LBB26:
 447              		.loc 2 39 0
 448 001a 9968     		ldr	r1, [r3, #8]
 449 001c 9068     		ldr	r0, [r2, #8]
ARM GAS  /var/folders/qh/xwg3v3kj02qbxczjpdb8lzfr0000gn/T//ccg1ZAqC.s 			page 9


 450 001e 8142     		cmp	r1, r0
 451 0020 02D3     		bcc	.L26
 452              	.L27:
 453              		.loc 2 38 0
 454 0022 1B68     		ldr	r3, [r3]
 455              	.LVL51:
 456              		.loc 2 39 0
 457 0024 9C42     		cmp	r4, r3
 458 0026 F8D1     		bne	.L23
 459              	.L26:
 460              		.loc 2 41 0
 461 0028 5C68     		ldr	r4, [r3, #4]
 462              	.LVL52:
 463              		.loc 2 40 0
 464 002a 1360     		str	r3, [r2]
 465              		.loc 2 41 0
 466 002c 5460     		str	r4, [r2, #4]
 467              	.LBE26:
 468              	.LBE29:
 469              		.loc 1 276 0
 470 002e 0520     		mov	r0, #5
 471              	.LBB30:
 472              	.LBB27:
 473              		.loc 2 42 0
 474 0030 5A60     		str	r2, [r3, #4]
 475              	.LBE27:
 476              	.LBE30:
 477              		.loc 1 276 0
 478 0032 291C     		mov	r1, r5
 479              	.LBB31:
 480              	.LBB28:
 481              		.loc 2 42 0
 482 0034 2260     		str	r2, [r4]
 483              	.LBE28:
 484              	.LBE31:
 485              		.loc 1 276 0
 486 0036 FFF7FEFF 		bl	chSchGoSleepTimeoutS
 487              	.LVL53:
 488 003a 041C     		mov	r4, r0
 489              	.LVL54:
 490              		.loc 1 277 0
 491 003c 601C     		add	r0, r4, #1
 492 003e 02D0     		beq	.L25
 493              	.LVL55:
 494              		.loc 1 278 0
 495 0040 301C     		mov	r0, r6
 496 0042 FFF7FEFF 		bl	chMtxLockS
 497              	.LVL56:
 498              	.L25:
 499              		.loc 1 280 0
 500 0046 201C     		mov	r0, r4
 501              		@ sp needed
 502              	.LVL57:
 503              	.LVL58:
 504              	.LVL59:
 505 0048 70BD     		pop	{r4, r5, r6, pc}
 506              	.L29:
ARM GAS  /var/folders/qh/xwg3v3kj02qbxczjpdb8lzfr0000gn/T//ccg1ZAqC.s 			page 10


 507 004a C046     		.align	2
 508              	.L28:
 509 004c 00000000 		.word	rlist
 510              		.cfi_endproc
 511              	.LFE15:
 512              		.size	chCondWaitTimeoutS, .-chCondWaitTimeoutS
 513              		.section	.text.chCondWaitTimeout,"ax",%progbits
 514              		.align	2
 515              		.p2align 4,,15
 516              		.global	chCondWaitTimeout
 517              		.code	16
 518              		.thumb_func
 519              		.type	chCondWaitTimeout, %function
 520              	chCondWaitTimeout:
 521              	.LFB14:
 522              		.loc 1 226 0
 523              		.cfi_startproc
 524              	.LVL60:
 525 0000 38B5     		push	{r3, r4, r5, lr}
 526              		.cfi_def_cfa_offset 16
 527              		.cfi_offset 3, -16
 528              		.cfi_offset 4, -12
 529              		.cfi_offset 5, -8
 530              		.cfi_offset 14, -4
 531              		.loc 1 226 0
 532 0002 051C     		mov	r5, r0
 533 0004 0C1C     		mov	r4, r1
 534              		.loc 1 229 0
 535              	@ 229 "../../os/kernel/src/chcond.c" 1
 536 0006 72B6     		cpsid   i
 537              	@ 0 "" 2
 538              		.code	16
 539 0008 FFF7FEFF 		bl	dbg_check_lock
 540              	.LVL61:
 541              		.loc 1 230 0
 542 000c 211C     		mov	r1, r4
 543 000e 281C     		mov	r0, r5
 544 0010 FFF7FEFF 		bl	chCondWaitTimeoutS
 545              	.LVL62:
 546 0014 041C     		mov	r4, r0
 547              	.LVL63:
 548              		.loc 1 231 0
 549 0016 FFF7FEFF 		bl	dbg_check_unlock
 550              	.LVL64:
 551              	@ 231 "../../os/kernel/src/chcond.c" 1
 552 001a 62B6     		cpsie   i
 553              	@ 0 "" 2
 554              		.loc 1 233 0
 555              		.code	16
 556 001c 201C     		mov	r0, r4
 557              		@ sp needed
 558              	.LVL65:
 559              	.LVL66:
 560 001e 38BD     		pop	{r3, r4, r5, pc}
 561              		.cfi_endproc
 562              	.LFE14:
 563              		.size	chCondWaitTimeout, .-chCondWaitTimeout
ARM GAS  /var/folders/qh/xwg3v3kj02qbxczjpdb8lzfr0000gn/T//ccg1ZAqC.s 			page 11


 564              		.text
 565              	.Letext0:
 566              		.file 3 "/usr/local/Cellar/gcc-arm-none-eabi-48/20131218/arm-none-eabi/include/stdint.h"
 567              		.file 4 "../../os/ports/GCC/ARMCMx/chtypes.h"
 568              		.file 5 "../../os/kernel/include/chlists.h"
 569              		.file 6 "../../os/kernel/include/chthreads.h"
 570              		.file 7 "../../os/ports/GCC/ARMCMx/chcore_v6m.h"
 571              		.file 8 "../../os/kernel/include/chschd.h"
 572              		.file 9 "../../os/kernel/include/chmtx.h"
 573              		.file 10 "../../os/kernel/include/chcond.h"
 574              		.file 11 "../../os/kernel/include/chdebug.h"
 575              		.section	.debug_info,"",%progbits
 576              	.Ldebug_info0:
 577 0000 02090000 		.4byte	0x902
 578 0004 0400     		.2byte	0x4
 579 0006 00000000 		.4byte	.Ldebug_abbrev0
 580 000a 04       		.byte	0x4
 581 000b 01       		.uleb128 0x1
 582 000c 15020000 		.4byte	.LASF84
 583 0010 01       		.byte	0x1
 584 0011 E2000000 		.4byte	.LASF85
 585 0015 38010000 		.4byte	.LASF86
 586 0019 58000000 		.4byte	.Ldebug_ranges0+0x58
 587 001d 00000000 		.4byte	0
 588 0021 00000000 		.4byte	.Ldebug_line0
 589 0025 02       		.uleb128 0x2
 590 0026 04       		.byte	0x4
 591 0027 05       		.byte	0x5
 592 0028 696E7400 		.ascii	"int\000"
 593 002c 03       		.uleb128 0x3
 594 002d 04       		.byte	0x4
 595 002e 07       		.byte	0x7
 596 002f 19010000 		.4byte	.LASF0
 597 0033 03       		.uleb128 0x3
 598 0034 01       		.byte	0x1
 599 0035 06       		.byte	0x6
 600 0036 6D000000 		.4byte	.LASF1
 601 003a 04       		.uleb128 0x4
 602 003b 7B040000 		.4byte	.LASF5
 603 003f 03       		.byte	0x3
 604 0040 2A       		.byte	0x2a
 605 0041 45000000 		.4byte	0x45
 606 0045 03       		.uleb128 0x3
 607 0046 01       		.byte	0x1
 608 0047 08       		.byte	0x8
 609 0048 64030000 		.4byte	.LASF2
 610 004c 03       		.uleb128 0x3
 611 004d 02       		.byte	0x2
 612 004e 05       		.byte	0x5
 613 004f 7C030000 		.4byte	.LASF3
 614 0053 03       		.uleb128 0x3
 615 0054 02       		.byte	0x2
 616 0055 07       		.byte	0x7
 617 0056 7B010000 		.4byte	.LASF4
 618 005a 04       		.uleb128 0x4
 619 005b 5C030000 		.4byte	.LASF6
 620 005f 03       		.byte	0x3
ARM GAS  /var/folders/qh/xwg3v3kj02qbxczjpdb8lzfr0000gn/T//ccg1ZAqC.s 			page 12


 621 0060 4F       		.byte	0x4f
 622 0061 65000000 		.4byte	0x65
 623 0065 03       		.uleb128 0x3
 624 0066 04       		.byte	0x4
 625 0067 05       		.byte	0x5
 626 0068 9B000000 		.4byte	.LASF7
 627 006c 04       		.uleb128 0x4
 628 006d DD030000 		.4byte	.LASF8
 629 0071 03       		.byte	0x3
 630 0072 50       		.byte	0x50
 631 0073 77000000 		.4byte	0x77
 632 0077 03       		.uleb128 0x3
 633 0078 04       		.byte	0x4
 634 0079 07       		.byte	0x7
 635 007a 26010000 		.4byte	.LASF9
 636 007e 03       		.uleb128 0x3
 637 007f 08       		.byte	0x8
 638 0080 05       		.byte	0x5
 639 0081 5F000000 		.4byte	.LASF10
 640 0085 03       		.uleb128 0x3
 641 0086 08       		.byte	0x8
 642 0087 07       		.byte	0x7
 643 0088 27000000 		.4byte	.LASF11
 644 008c 03       		.uleb128 0x3
 645 008d 01       		.byte	0x1
 646 008e 02       		.byte	0x2
 647 008f 56030000 		.4byte	.LASF12
 648 0093 04       		.uleb128 0x4
 649 0094 B1010000 		.4byte	.LASF13
 650 0098 04       		.byte	0x4
 651 0099 25       		.byte	0x25
 652 009a 3A000000 		.4byte	0x3a
 653 009e 04       		.uleb128 0x4
 654 009f A4000000 		.4byte	.LASF14
 655 00a3 04       		.byte	0x4
 656 00a4 26       		.byte	0x26
 657 00a5 3A000000 		.4byte	0x3a
 658 00a9 04       		.uleb128 0x4
 659 00aa 31030000 		.4byte	.LASF15
 660 00ae 04       		.byte	0x4
 661 00af 27       		.byte	0x27
 662 00b0 3A000000 		.4byte	0x3a
 663 00b4 04       		.uleb128 0x4
 664 00b5 89000000 		.4byte	.LASF16
 665 00b9 04       		.byte	0x4
 666 00ba 28       		.byte	0x28
 667 00bb 3A000000 		.4byte	0x3a
 668 00bf 04       		.uleb128 0x4
 669 00c0 40030000 		.4byte	.LASF17
 670 00c4 04       		.byte	0x4
 671 00c5 29       		.byte	0x29
 672 00c6 6C000000 		.4byte	0x6c
 673 00ca 04       		.uleb128 0x4
 674 00cb 8E010000 		.4byte	.LASF18
 675 00cf 04       		.byte	0x4
 676 00d0 2A       		.byte	0x2a
 677 00d1 5A000000 		.4byte	0x5a
ARM GAS  /var/folders/qh/xwg3v3kj02qbxczjpdb8lzfr0000gn/T//ccg1ZAqC.s 			page 13


 678 00d5 04       		.uleb128 0x4
 679 00d6 D6010000 		.4byte	.LASF19
 680 00da 04       		.byte	0x4
 681 00db 2C       		.byte	0x2c
 682 00dc 6C000000 		.4byte	0x6c
 683 00e0 04       		.uleb128 0x4
 684 00e1 1E040000 		.4byte	.LASF20
 685 00e5 04       		.byte	0x4
 686 00e6 2E       		.byte	0x2e
 687 00e7 6C000000 		.4byte	0x6c
 688 00eb 04       		.uleb128 0x4
 689 00ec B5030000 		.4byte	.LASF21
 690 00f0 05       		.byte	0x5
 691 00f1 23       		.byte	0x23
 692 00f2 F6000000 		.4byte	0xf6
 693 00f6 05       		.uleb128 0x5
 694 00f7 B5030000 		.4byte	.LASF21
 695 00fb 48       		.byte	0x48
 696 00fc 06       		.byte	0x6
 697 00fd 57       		.byte	0x57
 698 00fe F3010000 		.4byte	0x1f3
 699 0102 06       		.uleb128 0x6
 700 0103 A6030000 		.4byte	.LASF22
 701 0107 06       		.byte	0x6
 702 0108 58       		.byte	0x58
 703 0109 14020000 		.4byte	0x214
 704 010d 00       		.byte	0
 705 010e 06       		.uleb128 0x6
 706 010f 39030000 		.4byte	.LASF23
 707 0113 06       		.byte	0x6
 708 0114 5A       		.byte	0x5a
 709 0115 14020000 		.4byte	0x214
 710 0119 04       		.byte	0x4
 711 011a 06       		.uleb128 0x6
 712 011b 58000000 		.4byte	.LASF24
 713 011f 06       		.byte	0x6
 714 0120 5C       		.byte	0x5c
 715 0121 BF000000 		.4byte	0xbf
 716 0125 08       		.byte	0x8
 717 0126 06       		.uleb128 0x6
 718 0127 C0040000 		.4byte	.LASF25
 719 012b 06       		.byte	0x6
 720 012c 5D       		.byte	0x5d
 721 012d C4020000 		.4byte	0x2c4
 722 0131 0C       		.byte	0xc
 723 0132 06       		.uleb128 0x6
 724 0133 B8000000 		.4byte	.LASF26
 725 0137 06       		.byte	0x6
 726 0138 5F       		.byte	0x5f
 727 0139 14020000 		.4byte	0x214
 728 013d 10       		.byte	0x10
 729 013e 06       		.uleb128 0x6
 730 013f EF020000 		.4byte	.LASF27
 731 0143 06       		.byte	0x6
 732 0144 60       		.byte	0x60
 733 0145 14020000 		.4byte	0x214
 734 0149 14       		.byte	0x14
ARM GAS  /var/folders/qh/xwg3v3kj02qbxczjpdb8lzfr0000gn/T//ccg1ZAqC.s 			page 14


 735 014a 06       		.uleb128 0x6
 736 014b 8A040000 		.4byte	.LASF28
 737 014f 06       		.byte	0x6
 738 0150 67       		.byte	0x67
 739 0151 E6030000 		.4byte	0x3e6
 740 0155 18       		.byte	0x18
 741 0156 06       		.uleb128 0x6
 742 0157 86030000 		.4byte	.LASF29
 743 015b 06       		.byte	0x6
 744 015c 72       		.byte	0x72
 745 015d 9E000000 		.4byte	0x9e
 746 0161 1C       		.byte	0x1c
 747 0162 06       		.uleb128 0x6
 748 0163 AD030000 		.4byte	.LASF30
 749 0167 06       		.byte	0x6
 750 0168 76       		.byte	0x76
 751 0169 93000000 		.4byte	0x93
 752 016d 1D       		.byte	0x1d
 753 016e 06       		.uleb128 0x6
 754 016f 64040000 		.4byte	.LASF31
 755 0173 06       		.byte	0x6
 756 0174 7B       		.byte	0x7b
 757 0175 A9000000 		.4byte	0xa9
 758 0179 1E       		.byte	0x1e
 759 017a 06       		.uleb128 0x6
 760 017b 8E030000 		.4byte	.LASF32
 761 017f 06       		.byte	0x6
 762 0180 81       		.byte	0x81
 763 0181 B4000000 		.4byte	0xb4
 764 0185 1F       		.byte	0x1f
 765 0186 06       		.uleb128 0x6
 766 0187 3E040000 		.4byte	.LASF33
 767 018b 06       		.byte	0x6
 768 018c 88       		.byte	0x88
 769 018d EA020000 		.4byte	0x2ea
 770 0191 20       		.byte	0x20
 771 0192 07       		.uleb128 0x7
 772 0193 705F7500 		.ascii	"p_u\000"
 773 0197 06       		.byte	0x6
 774 0198 AD       		.byte	0xad
 775 0199 B1030000 		.4byte	0x3b1
 776 019d 24       		.byte	0x24
 777 019e 06       		.uleb128 0x6
 778 019f C6040000 		.4byte	.LASF34
 779 01a3 06       		.byte	0x6
 780 01a4 B2       		.byte	0xb2
 781 01a5 3A020000 		.4byte	0x23a
 782 01a9 28       		.byte	0x28
 783 01aa 06       		.uleb128 0x6
 784 01ab 4C040000 		.4byte	.LASF35
 785 01af 06       		.byte	0x6
 786 01b0 B8       		.byte	0xb8
 787 01b1 1A020000 		.4byte	0x21a
 788 01b5 2C       		.byte	0x2c
 789 01b6 06       		.uleb128 0x6
 790 01b7 00000000 		.4byte	.LASF36
 791 01bb 06       		.byte	0x6
ARM GAS  /var/folders/qh/xwg3v3kj02qbxczjpdb8lzfr0000gn/T//ccg1ZAqC.s 			page 15


 792 01bc BC       		.byte	0xbc
 793 01bd CA000000 		.4byte	0xca
 794 01c1 34       		.byte	0x34
 795 01c2 06       		.uleb128 0x6
 796 01c3 D2030000 		.4byte	.LASF37
 797 01c7 06       		.byte	0x6
 798 01c8 C2       		.byte	0xc2
 799 01c9 D5000000 		.4byte	0xd5
 800 01cd 38       		.byte	0x38
 801 01ce 06       		.uleb128 0x6
 802 01cf 72030000 		.4byte	.LASF38
 803 01d3 06       		.byte	0x6
 804 01d4 C9       		.byte	0xc9
 805 01d5 F8030000 		.4byte	0x3f8
 806 01d9 3C       		.byte	0x3c
 807 01da 06       		.uleb128 0x6
 808 01db 28040000 		.4byte	.LASF39
 809 01df 06       		.byte	0x6
 810 01e0 CD       		.byte	0xcd
 811 01e1 BF000000 		.4byte	0xbf
 812 01e5 40       		.byte	0x40
 813 01e6 06       		.uleb128 0x6
 814 01e7 79000000 		.4byte	.LASF40
 815 01eb 06       		.byte	0x6
 816 01ec D3       		.byte	0xd3
 817 01ed 50020000 		.4byte	0x250
 818 01f1 44       		.byte	0x44
 819 01f2 00       		.byte	0
 820 01f3 08       		.uleb128 0x8
 821 01f4 08       		.byte	0x8
 822 01f5 05       		.byte	0x5
 823 01f6 5A       		.byte	0x5a
 824 01f7 14020000 		.4byte	0x214
 825 01fb 06       		.uleb128 0x6
 826 01fc A6030000 		.4byte	.LASF22
 827 0200 05       		.byte	0x5
 828 0201 5B       		.byte	0x5b
 829 0202 14020000 		.4byte	0x214
 830 0206 00       		.byte	0
 831 0207 06       		.uleb128 0x6
 832 0208 39030000 		.4byte	.LASF23
 833 020c 05       		.byte	0x5
 834 020d 5D       		.byte	0x5d
 835 020e 14020000 		.4byte	0x214
 836 0212 04       		.byte	0x4
 837 0213 00       		.byte	0
 838 0214 09       		.uleb128 0x9
 839 0215 04       		.byte	0x4
 840 0216 EB000000 		.4byte	0xeb
 841 021a 04       		.uleb128 0x4
 842 021b FD020000 		.4byte	.LASF41
 843 021f 05       		.byte	0x5
 844 0220 5F       		.byte	0x5f
 845 0221 F3010000 		.4byte	0x1f3
 846 0225 08       		.uleb128 0x8
 847 0226 04       		.byte	0x4
 848 0227 05       		.byte	0x5
ARM GAS  /var/folders/qh/xwg3v3kj02qbxczjpdb8lzfr0000gn/T//ccg1ZAqC.s 			page 16


 849 0228 64       		.byte	0x64
 850 0229 3A020000 		.4byte	0x23a
 851 022d 06       		.uleb128 0x6
 852 022e A6030000 		.4byte	.LASF22
 853 0232 05       		.byte	0x5
 854 0233 66       		.byte	0x66
 855 0234 14020000 		.4byte	0x214
 856 0238 00       		.byte	0
 857 0239 00       		.byte	0
 858 023a 04       		.uleb128 0x4
 859 023b CA010000 		.4byte	.LASF42
 860 023f 05       		.byte	0x5
 861 0240 69       		.byte	0x69
 862 0241 25020000 		.4byte	0x225
 863 0245 04       		.uleb128 0x4
 864 0246 D9000000 		.4byte	.LASF43
 865 024a 07       		.byte	0x7
 866 024b A0       		.byte	0xa0
 867 024c 50020000 		.4byte	0x250
 868 0250 0A       		.uleb128 0xa
 869 0251 04       		.byte	0x4
 870 0252 05       		.uleb128 0x5
 871 0253 45040000 		.4byte	.LASF44
 872 0257 24       		.byte	0x24
 873 0258 07       		.byte	0x7
 874 0259 B3       		.byte	0xb3
 875 025a C4020000 		.4byte	0x2c4
 876 025e 07       		.uleb128 0x7
 877 025f 723800   		.ascii	"r8\000"
 878 0262 07       		.byte	0x7
 879 0263 B4       		.byte	0xb4
 880 0264 45020000 		.4byte	0x245
 881 0268 00       		.byte	0
 882 0269 07       		.uleb128 0x7
 883 026a 723900   		.ascii	"r9\000"
 884 026d 07       		.byte	0x7
 885 026e B5       		.byte	0xb5
 886 026f 45020000 		.4byte	0x245
 887 0273 04       		.byte	0x4
 888 0274 07       		.uleb128 0x7
 889 0275 72313000 		.ascii	"r10\000"
 890 0279 07       		.byte	0x7
 891 027a B6       		.byte	0xb6
 892 027b 45020000 		.4byte	0x245
 893 027f 08       		.byte	0x8
 894 0280 07       		.uleb128 0x7
 895 0281 72313100 		.ascii	"r11\000"
 896 0285 07       		.byte	0x7
 897 0286 B7       		.byte	0xb7
 898 0287 45020000 		.4byte	0x245
 899 028b 0C       		.byte	0xc
 900 028c 07       		.uleb128 0x7
 901 028d 723400   		.ascii	"r4\000"
 902 0290 07       		.byte	0x7
 903 0291 B8       		.byte	0xb8
 904 0292 45020000 		.4byte	0x245
 905 0296 10       		.byte	0x10
ARM GAS  /var/folders/qh/xwg3v3kj02qbxczjpdb8lzfr0000gn/T//ccg1ZAqC.s 			page 17


 906 0297 07       		.uleb128 0x7
 907 0298 723500   		.ascii	"r5\000"
 908 029b 07       		.byte	0x7
 909 029c B9       		.byte	0xb9
 910 029d 45020000 		.4byte	0x245
 911 02a1 14       		.byte	0x14
 912 02a2 07       		.uleb128 0x7
 913 02a3 723600   		.ascii	"r6\000"
 914 02a6 07       		.byte	0x7
 915 02a7 BA       		.byte	0xba
 916 02a8 45020000 		.4byte	0x245
 917 02ac 18       		.byte	0x18
 918 02ad 07       		.uleb128 0x7
 919 02ae 723700   		.ascii	"r7\000"
 920 02b1 07       		.byte	0x7
 921 02b2 BB       		.byte	0xbb
 922 02b3 45020000 		.4byte	0x245
 923 02b7 1C       		.byte	0x1c
 924 02b8 07       		.uleb128 0x7
 925 02b9 6C7200   		.ascii	"lr\000"
 926 02bc 07       		.byte	0x7
 927 02bd BC       		.byte	0xbc
 928 02be 45020000 		.4byte	0x245
 929 02c2 20       		.byte	0x20
 930 02c3 00       		.byte	0
 931 02c4 05       		.uleb128 0x5
 932 02c5 73010000 		.4byte	.LASF45
 933 02c9 04       		.byte	0x4
 934 02ca 07       		.byte	0x7
 935 02cb C6       		.byte	0xc6
 936 02cc DD020000 		.4byte	0x2dd
 937 02d0 07       		.uleb128 0x7
 938 02d1 72313300 		.ascii	"r13\000"
 939 02d5 07       		.byte	0x7
 940 02d6 C7       		.byte	0xc7
 941 02d7 DD020000 		.4byte	0x2dd
 942 02db 00       		.byte	0
 943 02dc 00       		.byte	0
 944 02dd 09       		.uleb128 0x9
 945 02de 04       		.byte	0x4
 946 02df 52020000 		.4byte	0x252
 947 02e3 03       		.uleb128 0x3
 948 02e4 04       		.byte	0x4
 949 02e5 07       		.byte	0x7
 950 02e6 F9010000 		.4byte	.LASF46
 951 02ea 0B       		.uleb128 0xb
 952 02eb E0000000 		.4byte	0xe0
 953 02ef 08       		.uleb128 0x8
 954 02f0 1C       		.byte	0x1c
 955 02f1 08       		.byte	0x8
 956 02f2 57       		.byte	0x57
 957 02f3 40030000 		.4byte	0x340
 958 02f7 06       		.uleb128 0x6
 959 02f8 E6030000 		.4byte	.LASF47
 960 02fc 08       		.byte	0x8
 961 02fd 58       		.byte	0x58
 962 02fe 1A020000 		.4byte	0x21a
ARM GAS  /var/folders/qh/xwg3v3kj02qbxczjpdb8lzfr0000gn/T//ccg1ZAqC.s 			page 18


 963 0302 00       		.byte	0
 964 0303 06       		.uleb128 0x6
 965 0304 98030000 		.4byte	.LASF48
 966 0308 08       		.byte	0x8
 967 0309 59       		.byte	0x59
 968 030a BF000000 		.4byte	0xbf
 969 030e 08       		.byte	0x8
 970 030f 06       		.uleb128 0x6
 971 0310 F7020000 		.4byte	.LASF49
 972 0314 08       		.byte	0x8
 973 0315 5B       		.byte	0x5b
 974 0316 C4020000 		.4byte	0x2c4
 975 031a 0C       		.byte	0xc
 976 031b 06       		.uleb128 0x6
 977 031c D1000000 		.4byte	.LASF50
 978 0320 08       		.byte	0x8
 979 0321 5E       		.byte	0x5e
 980 0322 14020000 		.4byte	0x214
 981 0326 10       		.byte	0x10
 982 0327 06       		.uleb128 0x6
 983 0328 19030000 		.4byte	.LASF51
 984 032c 08       		.byte	0x8
 985 032d 5F       		.byte	0x5f
 986 032e 14020000 		.4byte	0x214
 987 0332 14       		.byte	0x14
 988 0333 06       		.uleb128 0x6
 989 0334 0F030000 		.4byte	.LASF52
 990 0338 08       		.byte	0x8
 991 0339 62       		.byte	0x62
 992 033a 14020000 		.4byte	0x214
 993 033e 18       		.byte	0x18
 994 033f 00       		.byte	0
 995 0340 04       		.uleb128 0x4
 996 0341 6B040000 		.4byte	.LASF53
 997 0345 08       		.byte	0x8
 998 0346 64       		.byte	0x64
 999 0347 EF020000 		.4byte	0x2ef
 1000 034b 05       		.uleb128 0x5
 1001 034c E2010000 		.4byte	.LASF54
 1002 0350 10       		.byte	0x10
 1003 0351 09       		.byte	0x9
 1004 0352 25       		.byte	0x25
 1005 0353 7C030000 		.4byte	0x37c
 1006 0357 06       		.uleb128 0x6
 1007 0358 81000000 		.4byte	.LASF55
 1008 035c 09       		.byte	0x9
 1009 035d 26       		.byte	0x26
 1010 035e 1A020000 		.4byte	0x21a
 1011 0362 00       		.byte	0
 1012 0363 06       		.uleb128 0x6
 1013 0364 B8040000 		.4byte	.LASF56
 1014 0368 09       		.byte	0x9
 1015 0369 28       		.byte	0x28
 1016 036a 14020000 		.4byte	0x214
 1017 036e 08       		.byte	0x8
 1018 036f 06       		.uleb128 0x6
 1019 0370 17040000 		.4byte	.LASF57
ARM GAS  /var/folders/qh/xwg3v3kj02qbxczjpdb8lzfr0000gn/T//ccg1ZAqC.s 			page 19


 1020 0374 09       		.byte	0x9
 1021 0375 2A       		.byte	0x2a
 1022 0376 7C030000 		.4byte	0x37c
 1023 037a 0C       		.byte	0xc
 1024 037b 00       		.byte	0
 1025 037c 09       		.uleb128 0x9
 1026 037d 04       		.byte	0x4
 1027 037e 4B030000 		.4byte	0x34b
 1028 0382 04       		.uleb128 0x4
 1029 0383 E2010000 		.4byte	.LASF54
 1030 0387 09       		.byte	0x9
 1031 0388 2C       		.byte	0x2c
 1032 0389 4B030000 		.4byte	0x34b
 1033 038d 05       		.uleb128 0x5
 1034 038e 93000000 		.4byte	.LASF58
 1035 0392 08       		.byte	0x8
 1036 0393 0A       		.byte	0xa
 1037 0394 2F       		.byte	0x2f
 1038 0395 A6030000 		.4byte	0x3a6
 1039 0399 06       		.uleb128 0x6
 1040 039a BC030000 		.4byte	.LASF59
 1041 039e 0A       		.byte	0xa
 1042 039f 30       		.byte	0x30
 1043 03a0 1A020000 		.4byte	0x21a
 1044 03a4 00       		.byte	0
 1045 03a5 00       		.byte	0
 1046 03a6 04       		.uleb128 0x4
 1047 03a7 93000000 		.4byte	.LASF58
 1048 03ab 0A       		.byte	0xa
 1049 03ac 31       		.byte	0x31
 1050 03ad 8D030000 		.4byte	0x38d
 1051 03b1 0C       		.uleb128 0xc
 1052 03b2 04       		.byte	0x4
 1053 03b3 06       		.byte	0x6
 1054 03b4 8F       		.byte	0x8f
 1055 03b5 E6030000 		.4byte	0x3e6
 1056 03b9 0D       		.uleb128 0xd
 1057 03ba 11000000 		.4byte	.LASF60
 1058 03be 06       		.byte	0x6
 1059 03bf 96       		.byte	0x96
 1060 03c0 CA000000 		.4byte	0xca
 1061 03c4 0D       		.uleb128 0xd
 1062 03c5 3E000000 		.4byte	.LASF61
 1063 03c9 06       		.byte	0x6
 1064 03ca 9D       		.byte	0x9d
 1065 03cb CA000000 		.4byte	0xca
 1066 03cf 0D       		.uleb128 0xd
 1067 03d0 83040000 		.4byte	.LASF62
 1068 03d4 06       		.byte	0x6
 1069 03d5 A4       		.byte	0xa4
 1070 03d6 50020000 		.4byte	0x250
 1071 03da 0D       		.uleb128 0xd
 1072 03db 9F030000 		.4byte	.LASF63
 1073 03df 06       		.byte	0x6
 1074 03e0 AB       		.byte	0xab
 1075 03e1 D5000000 		.4byte	0xd5
 1076 03e5 00       		.byte	0
ARM GAS  /var/folders/qh/xwg3v3kj02qbxczjpdb8lzfr0000gn/T//ccg1ZAqC.s 			page 20


 1077 03e6 09       		.uleb128 0x9
 1078 03e7 04       		.byte	0x4
 1079 03e8 EC030000 		.4byte	0x3ec
 1080 03ec 0E       		.uleb128 0xe
 1081 03ed F1030000 		.4byte	0x3f1
 1082 03f1 03       		.uleb128 0x3
 1083 03f2 01       		.byte	0x1
 1084 03f3 08       		.byte	0x8
 1085 03f4 FA030000 		.4byte	.LASF64
 1086 03f8 09       		.uleb128 0x9
 1087 03f9 04       		.byte	0x4
 1088 03fa 82030000 		.4byte	0x382
 1089 03fe 0F       		.uleb128 0xf
 1090 03ff FF030000 		.4byte	.LASF87
 1091 0403 02       		.byte	0x2
 1092 0404 34       		.byte	0x34
 1093 0405 14020000 		.4byte	0x214
 1094 0409 03       		.byte	0x3
 1095 040a 24040000 		.4byte	0x424
 1096 040e 10       		.uleb128 0x10
 1097 040f 74717000 		.ascii	"tqp\000"
 1098 0413 02       		.byte	0x2
 1099 0414 34       		.byte	0x34
 1100 0415 24040000 		.4byte	0x424
 1101 0419 11       		.uleb128 0x11
 1102 041a 747000   		.ascii	"tp\000"
 1103 041d 02       		.byte	0x2
 1104 041e 35       		.byte	0x35
 1105 041f 14020000 		.4byte	0x214
 1106 0423 00       		.byte	0
 1107 0424 09       		.uleb128 0x9
 1108 0425 04       		.byte	0x4
 1109 0426 1A020000 		.4byte	0x21a
 1110 042a 12       		.uleb128 0x12
 1111 042b 94010000 		.4byte	.LASF88
 1112 042f 02       		.byte	0x2
 1113 0430 22       		.byte	0x22
 1114 0431 03       		.byte	0x3
 1115 0432 56040000 		.4byte	0x456
 1116 0436 10       		.uleb128 0x10
 1117 0437 747000   		.ascii	"tp\000"
 1118 043a 02       		.byte	0x2
 1119 043b 22       		.byte	0x22
 1120 043c 14020000 		.4byte	0x214
 1121 0440 10       		.uleb128 0x10
 1122 0441 74717000 		.ascii	"tqp\000"
 1123 0445 02       		.byte	0x2
 1124 0446 22       		.byte	0x22
 1125 0447 24040000 		.4byte	0x424
 1126 044b 11       		.uleb128 0x11
 1127 044c 637000   		.ascii	"cp\000"
 1128 044f 02       		.byte	0x2
 1129 0450 24       		.byte	0x24
 1130 0451 14020000 		.4byte	0x214
 1131 0455 00       		.byte	0
 1132 0456 13       		.uleb128 0x13
 1133 0457 06000000 		.4byte	.LASF65
ARM GAS  /var/folders/qh/xwg3v3kj02qbxczjpdb8lzfr0000gn/T//ccg1ZAqC.s 			page 21


 1134 045b 01       		.byte	0x1
 1135 045c 34       		.byte	0x34
 1136 045d 00000000 		.4byte	.LFB7
 1137 0461 06000000 		.4byte	.LFE7-.LFB7
 1138 0465 01       		.uleb128 0x1
 1139 0466 9C       		.byte	0x9c
 1140 0467 78040000 		.4byte	0x478
 1141 046b 14       		.uleb128 0x14
 1142 046c 637000   		.ascii	"cp\000"
 1143 046f 01       		.byte	0x1
 1144 0470 34       		.byte	0x34
 1145 0471 78040000 		.4byte	0x478
 1146 0475 01       		.uleb128 0x1
 1147 0476 50       		.byte	0x50
 1148 0477 00       		.byte	0
 1149 0478 09       		.uleb128 0x9
 1150 0479 04       		.byte	0x4
 1151 047a A6030000 		.4byte	0x3a6
 1152 047e 13       		.uleb128 0x13
 1153 047f FF000000 		.4byte	.LASF66
 1154 0483 01       		.byte	0x1
 1155 0484 42       		.byte	0x42
 1156 0485 00000000 		.4byte	.LFB8
 1157 0489 24000000 		.4byte	.LFE8-.LFB8
 1158 048d 01       		.uleb128 0x1
 1159 048e 9C       		.byte	0x9c
 1160 048f F3040000 		.4byte	0x4f3
 1161 0493 15       		.uleb128 0x15
 1162 0494 637000   		.ascii	"cp\000"
 1163 0497 01       		.byte	0x1
 1164 0498 42       		.byte	0x42
 1165 0499 78040000 		.4byte	0x478
 1166 049d 00000000 		.4byte	.LLST0
 1167 04a1 16       		.uleb128 0x16
 1168 04a2 FE030000 		.4byte	0x3fe
 1169 04a6 10000000 		.4byte	.LBB12
 1170 04aa 00000000 		.4byte	.Ldebug_ranges0+0
 1171 04ae 01       		.byte	0x1
 1172 04af 48       		.byte	0x48
 1173 04b0 CD040000 		.4byte	0x4cd
 1174 04b4 17       		.uleb128 0x17
 1175 04b5 0E040000 		.4byte	0x40e
 1176 04b9 2C000000 		.4byte	.LLST1
 1177 04bd 18       		.uleb128 0x18
 1178 04be 00000000 		.4byte	.Ldebug_ranges0+0
 1179 04c2 19       		.uleb128 0x19
 1180 04c3 19040000 		.4byte	0x419
 1181 04c7 3F000000 		.4byte	.LLST2
 1182 04cb 00       		.byte	0
 1183 04cc 00       		.byte	0
 1184 04cd 1A       		.uleb128 0x1a
 1185 04ce 0A000000 		.4byte	.LVL2
 1186 04d2 74080000 		.4byte	0x874
 1187 04d6 1B       		.uleb128 0x1b
 1188 04d7 1C000000 		.4byte	.LVL4
 1189 04db 7B080000 		.4byte	0x87b
 1190 04df E9040000 		.4byte	0x4e9
ARM GAS  /var/folders/qh/xwg3v3kj02qbxczjpdb8lzfr0000gn/T//ccg1ZAqC.s 			page 22


 1191 04e3 1C       		.uleb128 0x1c
 1192 04e4 01       		.uleb128 0x1
 1193 04e5 51       		.byte	0x51
 1194 04e6 01       		.uleb128 0x1
 1195 04e7 30       		.byte	0x30
 1196 04e8 00       		.byte	0
 1197 04e9 1A       		.uleb128 0x1a
 1198 04ea 20000000 		.4byte	.LVL5
 1199 04ee 91080000 		.4byte	0x891
 1200 04f2 00       		.byte	0
 1201 04f3 13       		.uleb128 0x13
 1202 04f4 48030000 		.4byte	.LASF67
 1203 04f8 01       		.byte	0x1
 1204 04f9 57       		.byte	0x57
 1205 04fa 00000000 		.4byte	.LFB9
 1206 04fe 1E000000 		.4byte	.LFE9-.LFB9
 1207 0502 01       		.uleb128 0x1
 1208 0503 9C       		.byte	0x9c
 1209 0504 59050000 		.4byte	0x559
 1210 0508 15       		.uleb128 0x15
 1211 0509 637000   		.ascii	"cp\000"
 1212 050c 01       		.byte	0x1
 1213 050d 57       		.byte	0x57
 1214 050e 78040000 		.4byte	0x478
 1215 0512 52000000 		.4byte	.LLST3
 1216 0516 1D       		.uleb128 0x1d
 1217 0517 FE030000 		.4byte	0x3fe
 1218 051b 0E000000 		.4byte	.LBB16
 1219 051f 06000000 		.4byte	.LBE16-.LBB16
 1220 0523 01       		.byte	0x1
 1221 0524 5D       		.byte	0x5d
 1222 0525 46050000 		.4byte	0x546
 1223 0529 17       		.uleb128 0x17
 1224 052a 0E040000 		.4byte	0x40e
 1225 052e 7E000000 		.4byte	.LLST4
 1226 0532 1E       		.uleb128 0x1e
 1227 0533 0E000000 		.4byte	.LBB17
 1228 0537 06000000 		.4byte	.LBE17-.LBB17
 1229 053b 19       		.uleb128 0x19
 1230 053c 19040000 		.4byte	0x419
 1231 0540 91000000 		.4byte	.LLST5
 1232 0544 00       		.byte	0
 1233 0545 00       		.byte	0
 1234 0546 1A       		.uleb128 0x1a
 1235 0547 08000000 		.4byte	.LVL8
 1236 054b 98080000 		.4byte	0x898
 1237 054f 1A       		.uleb128 0x1a
 1238 0550 18000000 		.4byte	.LVL10
 1239 0554 9F080000 		.4byte	0x89f
 1240 0558 00       		.byte	0
 1241 0559 13       		.uleb128 0x13
 1242 055a 47000000 		.4byte	.LASF68
 1243 055e 01       		.byte	0x1
 1244 055f 7A       		.byte	0x7a
 1245 0560 00000000 		.4byte	.LFB11
 1246 0564 26000000 		.4byte	.LFE11-.LFB11
 1247 0568 01       		.uleb128 0x1
ARM GAS  /var/folders/qh/xwg3v3kj02qbxczjpdb8lzfr0000gn/T//ccg1ZAqC.s 			page 23


 1248 0569 9C       		.byte	0x9c
 1249 056a BF050000 		.4byte	0x5bf
 1250 056e 15       		.uleb128 0x15
 1251 056f 637000   		.ascii	"cp\000"
 1252 0572 01       		.byte	0x1
 1253 0573 7A       		.byte	0x7a
 1254 0574 78040000 		.4byte	0x478
 1255 0578 A4000000 		.4byte	.LLST6
 1256 057c 1D       		.uleb128 0x1d
 1257 057d FE030000 		.4byte	0x3fe
 1258 0581 12000000 		.4byte	.LBB18
 1259 0585 06000000 		.4byte	.LBE18-.LBB18
 1260 0589 01       		.byte	0x1
 1261 058a 83       		.byte	0x83
 1262 058b AC050000 		.4byte	0x5ac
 1263 058f 17       		.uleb128 0x17
 1264 0590 0E040000 		.4byte	0x40e
 1265 0594 D0000000 		.4byte	.LLST7
 1266 0598 1E       		.uleb128 0x1e
 1267 0599 12000000 		.4byte	.LBB19
 1268 059d 06000000 		.4byte	.LBE19-.LBB19
 1269 05a1 19       		.uleb128 0x19
 1270 05a2 19040000 		.4byte	0x419
 1271 05a6 E3000000 		.4byte	.LLST8
 1272 05aa 00       		.byte	0
 1273 05ab 00       		.byte	0
 1274 05ac 1A       		.uleb128 0x1a
 1275 05ad 08000000 		.4byte	.LVL14
 1276 05b1 98080000 		.4byte	0x898
 1277 05b5 1A       		.uleb128 0x1a
 1278 05b6 1C000000 		.4byte	.LVL16
 1279 05ba 9F080000 		.4byte	0x89f
 1280 05be 00       		.byte	0
 1281 05bf 13       		.uleb128 0x13
 1282 05c0 21030000 		.4byte	.LASF69
 1283 05c4 01       		.byte	0x1
 1284 05c5 67       		.byte	0x67
 1285 05c6 00000000 		.4byte	.LFB10
 1286 05ca 1C000000 		.4byte	.LFE10-.LFB10
 1287 05ce 01       		.uleb128 0x1
 1288 05cf 9C       		.byte	0x9c
 1289 05d0 12060000 		.4byte	0x612
 1290 05d4 15       		.uleb128 0x15
 1291 05d5 637000   		.ascii	"cp\000"
 1292 05d8 01       		.byte	0x1
 1293 05d9 67       		.byte	0x67
 1294 05da 78040000 		.4byte	0x478
 1295 05de F6000000 		.4byte	.LLST9
 1296 05e2 1A       		.uleb128 0x1a
 1297 05e3 0A000000 		.4byte	.LVL20
 1298 05e7 74080000 		.4byte	0x874
 1299 05eb 1B       		.uleb128 0x1b
 1300 05ec 10000000 		.4byte	.LVL21
 1301 05f0 59050000 		.4byte	0x559
 1302 05f4 FF050000 		.4byte	0x5ff
 1303 05f8 1C       		.uleb128 0x1c
 1304 05f9 01       		.uleb128 0x1
ARM GAS  /var/folders/qh/xwg3v3kj02qbxczjpdb8lzfr0000gn/T//ccg1ZAqC.s 			page 24


 1305 05fa 50       		.byte	0x50
 1306 05fb 02       		.uleb128 0x2
 1307 05fc 74       		.byte	0x74
 1308 05fd 00       		.sleb128 0
 1309 05fe 00       		.byte	0
 1310 05ff 1A       		.uleb128 0x1a
 1311 0600 14000000 		.4byte	.LVL22
 1312 0604 B4080000 		.4byte	0x8b4
 1313 0608 1A       		.uleb128 0x1a
 1314 0609 18000000 		.4byte	.LVL23
 1315 060d 91080000 		.4byte	0x891
 1316 0611 00       		.byte	0
 1317 0612 1F       		.uleb128 0x1f
 1318 0613 0B040000 		.4byte	.LASF70
 1319 0617 01       		.byte	0x1
 1320 0618 B1       		.byte	0xb1
 1321 0619 CA000000 		.4byte	0xca
 1322 061d 00000000 		.4byte	.LFB13
 1323 0621 48000000 		.4byte	.LFE13-.LFB13
 1324 0625 01       		.uleb128 0x1
 1325 0626 9C       		.byte	0x9c
 1326 0627 D0060000 		.4byte	0x6d0
 1327 062b 15       		.uleb128 0x15
 1328 062c 637000   		.ascii	"cp\000"
 1329 062f 01       		.byte	0x1
 1330 0630 B1       		.byte	0xb1
 1331 0631 78040000 		.4byte	0x478
 1332 0635 22010000 		.4byte	.LLST10
 1333 0639 20       		.uleb128 0x20
 1334 063a 63747000 		.ascii	"ctp\000"
 1335 063e 01       		.byte	0x1
 1336 063f B2       		.byte	0xb2
 1337 0640 14020000 		.4byte	0x214
 1338 0644 4E010000 		.4byte	.LLST11
 1339 0648 20       		.uleb128 0x20
 1340 0649 6D7000   		.ascii	"mp\000"
 1341 064c 01       		.byte	0x1
 1342 064d B3       		.byte	0xb3
 1343 064e F8030000 		.4byte	0x3f8
 1344 0652 61010000 		.4byte	.LLST12
 1345 0656 20       		.uleb128 0x20
 1346 0657 6D736700 		.ascii	"msg\000"
 1347 065b 01       		.byte	0x1
 1348 065c B4       		.byte	0xb4
 1349 065d CA000000 		.4byte	0xca
 1350 0661 7F010000 		.4byte	.LLST13
 1351 0665 16       		.uleb128 0x16
 1352 0666 2A040000 		.4byte	0x42a
 1353 066a 14000000 		.4byte	.LBB20
 1354 066e 18000000 		.4byte	.Ldebug_ranges0+0x18
 1355 0672 01       		.byte	0x1
 1356 0673 BE       		.byte	0xbe
 1357 0674 9A060000 		.4byte	0x69a
 1358 0678 17       		.uleb128 0x17
 1359 0679 40040000 		.4byte	0x440
 1360 067d 9D010000 		.4byte	.LLST14
 1361 0681 17       		.uleb128 0x17
ARM GAS  /var/folders/qh/xwg3v3kj02qbxczjpdb8lzfr0000gn/T//ccg1ZAqC.s 			page 25


 1362 0682 36040000 		.4byte	0x436
 1363 0686 BE010000 		.4byte	.LLST15
 1364 068a 18       		.uleb128 0x18
 1365 068b 18000000 		.4byte	.Ldebug_ranges0+0x18
 1366 068f 19       		.uleb128 0x19
 1367 0690 4B040000 		.4byte	0x44b
 1368 0694 D1010000 		.4byte	.LLST16
 1369 0698 00       		.byte	0
 1370 0699 00       		.byte	0
 1371 069a 1A       		.uleb128 0x1a
 1372 069b 0C000000 		.4byte	.LVL27
 1373 069f BB080000 		.4byte	0x8bb
 1374 06a3 1A       		.uleb128 0x1a
 1375 06a4 10000000 		.4byte	.LVL28
 1376 06a8 C2080000 		.4byte	0x8c2
 1377 06ac 1B       		.uleb128 0x1b
 1378 06ad 36000000 		.4byte	.LVL33
 1379 06b1 CD080000 		.4byte	0x8cd
 1380 06b5 BF060000 		.4byte	0x6bf
 1381 06b9 1C       		.uleb128 0x1c
 1382 06ba 01       		.uleb128 0x1
 1383 06bb 50       		.byte	0x50
 1384 06bc 01       		.uleb128 0x1
 1385 06bd 35       		.byte	0x35
 1386 06be 00       		.byte	0
 1387 06bf 21       		.uleb128 0x21
 1388 06c0 3E000000 		.4byte	.LVL35
 1389 06c4 DE080000 		.4byte	0x8de
 1390 06c8 1C       		.uleb128 0x1c
 1391 06c9 01       		.uleb128 0x1
 1392 06ca 50       		.byte	0x50
 1393 06cb 02       		.uleb128 0x2
 1394 06cc 76       		.byte	0x76
 1395 06cd 00       		.sleb128 0
 1396 06ce 00       		.byte	0
 1397 06cf 00       		.byte	0
 1398 06d0 1F       		.uleb128 0x1f
 1399 06d1 33040000 		.4byte	.LASF71
 1400 06d5 01       		.byte	0x1
 1401 06d6 97       		.byte	0x97
 1402 06d7 CA000000 		.4byte	0xca
 1403 06db 00000000 		.4byte	.LFB12
 1404 06df 1C000000 		.4byte	.LFE12-.LFB12
 1405 06e3 01       		.uleb128 0x1
 1406 06e4 9C       		.byte	0x9c
 1407 06e5 2D070000 		.4byte	0x72d
 1408 06e9 15       		.uleb128 0x15
 1409 06ea 637000   		.ascii	"cp\000"
 1410 06ed 01       		.byte	0x1
 1411 06ee 97       		.byte	0x97
 1412 06ef 78040000 		.4byte	0x478
 1413 06f3 EF010000 		.4byte	.LLST17
 1414 06f7 20       		.uleb128 0x20
 1415 06f8 6D736700 		.ascii	"msg\000"
 1416 06fc 01       		.byte	0x1
 1417 06fd 98       		.byte	0x98
 1418 06fe CA000000 		.4byte	0xca
ARM GAS  /var/folders/qh/xwg3v3kj02qbxczjpdb8lzfr0000gn/T//ccg1ZAqC.s 			page 26


 1419 0702 1B020000 		.4byte	.LLST18
 1420 0706 1A       		.uleb128 0x1a
 1421 0707 0A000000 		.4byte	.LVL40
 1422 070b 74080000 		.4byte	0x874
 1423 070f 1B       		.uleb128 0x1b
 1424 0710 10000000 		.4byte	.LVL41
 1425 0714 12060000 		.4byte	0x612
 1426 0718 23070000 		.4byte	0x723
 1427 071c 1C       		.uleb128 0x1c
 1428 071d 01       		.uleb128 0x1
 1429 071e 50       		.byte	0x50
 1430 071f 02       		.uleb128 0x2
 1431 0720 74       		.byte	0x74
 1432 0721 00       		.sleb128 0
 1433 0722 00       		.byte	0
 1434 0723 1A       		.uleb128 0x1a
 1435 0724 16000000 		.4byte	.LVL43
 1436 0728 91080000 		.4byte	0x891
 1437 072c 00       		.byte	0
 1438 072d 22       		.uleb128 0x22
 1439 072e 02020000 		.4byte	.LASF72
 1440 0732 01       		.byte	0x1
 1441 0733 0701     		.2byte	0x107
 1442 0735 CA000000 		.4byte	0xca
 1443 0739 00000000 		.4byte	.LFB15
 1444 073d 50000000 		.4byte	.LFE15-.LFB15
 1445 0741 01       		.uleb128 0x1
 1446 0742 9C       		.byte	0x9c
 1447 0743 F7070000 		.4byte	0x7f7
 1448 0747 23       		.uleb128 0x23
 1449 0748 637000   		.ascii	"cp\000"
 1450 074b 01       		.byte	0x1
 1451 074c 0701     		.2byte	0x107
 1452 074e 78040000 		.4byte	0x478
 1453 0752 44020000 		.4byte	.LLST19
 1454 0756 24       		.uleb128 0x24
 1455 0757 0A030000 		.4byte	.LASF73
 1456 075b 01       		.byte	0x1
 1457 075c 0701     		.2byte	0x107
 1458 075e E0000000 		.4byte	0xe0
 1459 0762 7C020000 		.4byte	.LLST20
 1460 0766 25       		.uleb128 0x25
 1461 0767 6D7000   		.ascii	"mp\000"
 1462 076a 01       		.byte	0x1
 1463 076b 0801     		.2byte	0x108
 1464 076d F8030000 		.4byte	0x3f8
 1465 0771 A8020000 		.4byte	.LLST21
 1466 0775 25       		.uleb128 0x25
 1467 0776 6D736700 		.ascii	"msg\000"
 1468 077a 01       		.byte	0x1
 1469 077b 0901     		.2byte	0x109
 1470 077d CA000000 		.4byte	0xca
 1471 0781 C6020000 		.4byte	.LLST22
 1472 0785 26       		.uleb128 0x26
 1473 0786 2A040000 		.4byte	0x42a
 1474 078a 14000000 		.4byte	.LBB24
 1475 078e 30000000 		.4byte	.Ldebug_ranges0+0x30
ARM GAS  /var/folders/qh/xwg3v3kj02qbxczjpdb8lzfr0000gn/T//ccg1ZAqC.s 			page 27


 1476 0792 01       		.byte	0x1
 1477 0793 1301     		.2byte	0x113
 1478 0795 BB070000 		.4byte	0x7bb
 1479 0799 17       		.uleb128 0x17
 1480 079a 40040000 		.4byte	0x440
 1481 079e EF020000 		.4byte	.LLST23
 1482 07a2 17       		.uleb128 0x17
 1483 07a3 36040000 		.4byte	0x436
 1484 07a7 1C030000 		.4byte	.LLST24
 1485 07ab 18       		.uleb128 0x18
 1486 07ac 30000000 		.4byte	.Ldebug_ranges0+0x30
 1487 07b0 19       		.uleb128 0x19
 1488 07b1 4B040000 		.4byte	0x44b
 1489 07b5 2F030000 		.4byte	.LLST25
 1490 07b9 00       		.byte	0
 1491 07ba 00       		.byte	0
 1492 07bb 1A       		.uleb128 0x1a
 1493 07bc 0A000000 		.4byte	.LVL46
 1494 07c0 BB080000 		.4byte	0x8bb
 1495 07c4 1A       		.uleb128 0x1a
 1496 07c5 0E000000 		.4byte	.LVL47
 1497 07c9 C2080000 		.4byte	0x8c2
 1498 07cd 1B       		.uleb128 0x1b
 1499 07ce 3A000000 		.4byte	.LVL53
 1500 07d2 EF080000 		.4byte	0x8ef
 1501 07d6 E6070000 		.4byte	0x7e6
 1502 07da 1C       		.uleb128 0x1c
 1503 07db 01       		.uleb128 0x1
 1504 07dc 51       		.byte	0x51
 1505 07dd 02       		.uleb128 0x2
 1506 07de 75       		.byte	0x75
 1507 07df 00       		.sleb128 0
 1508 07e0 1C       		.uleb128 0x1c
 1509 07e1 01       		.uleb128 0x1
 1510 07e2 50       		.byte	0x50
 1511 07e3 01       		.uleb128 0x1
 1512 07e4 35       		.byte	0x35
 1513 07e5 00       		.byte	0
 1514 07e6 21       		.uleb128 0x21
 1515 07e7 46000000 		.4byte	.LVL56
 1516 07eb DE080000 		.4byte	0x8de
 1517 07ef 1C       		.uleb128 0x1c
 1518 07f0 01       		.uleb128 0x1
 1519 07f1 50       		.byte	0x50
 1520 07f2 02       		.uleb128 0x2
 1521 07f3 76       		.byte	0x76
 1522 07f4 00       		.sleb128 0
 1523 07f5 00       		.byte	0
 1524 07f6 00       		.byte	0
 1525 07f7 1F       		.uleb128 0x1f
 1526 07f8 91040000 		.4byte	.LASF74
 1527 07fc 01       		.byte	0x1
 1528 07fd E2       		.byte	0xe2
 1529 07fe CA000000 		.4byte	0xca
 1530 0802 00000000 		.4byte	.LFB14
 1531 0806 20000000 		.4byte	.LFE14-.LFB14
 1532 080a 01       		.uleb128 0x1
ARM GAS  /var/folders/qh/xwg3v3kj02qbxczjpdb8lzfr0000gn/T//ccg1ZAqC.s 			page 28


 1533 080b 9C       		.byte	0x9c
 1534 080c 69080000 		.4byte	0x869
 1535 0810 15       		.uleb128 0x15
 1536 0811 637000   		.ascii	"cp\000"
 1537 0814 01       		.byte	0x1
 1538 0815 E2       		.byte	0xe2
 1539 0816 78040000 		.4byte	0x478
 1540 081a 4D030000 		.4byte	.LLST26
 1541 081e 27       		.uleb128 0x27
 1542 081f 0A030000 		.4byte	.LASF73
 1543 0823 01       		.byte	0x1
 1544 0824 E2       		.byte	0xe2
 1545 0825 E0000000 		.4byte	0xe0
 1546 0829 79030000 		.4byte	.LLST27
 1547 082d 20       		.uleb128 0x20
 1548 082e 6D736700 		.ascii	"msg\000"
 1549 0832 01       		.byte	0x1
 1550 0833 E3       		.byte	0xe3
 1551 0834 CA000000 		.4byte	0xca
 1552 0838 A5030000 		.4byte	.LLST28
 1553 083c 1A       		.uleb128 0x1a
 1554 083d 0C000000 		.4byte	.LVL61
 1555 0841 74080000 		.4byte	0x874
 1556 0845 1B       		.uleb128 0x1b
 1557 0846 14000000 		.4byte	.LVL62
 1558 084a 2D070000 		.4byte	0x72d
 1559 084e 5F080000 		.4byte	0x85f
 1560 0852 1C       		.uleb128 0x1c
 1561 0853 01       		.uleb128 0x1
 1562 0854 51       		.byte	0x51
 1563 0855 02       		.uleb128 0x2
 1564 0856 74       		.byte	0x74
 1565 0857 00       		.sleb128 0
 1566 0858 1C       		.uleb128 0x1c
 1567 0859 01       		.uleb128 0x1
 1568 085a 50       		.byte	0x50
 1569 085b 02       		.uleb128 0x2
 1570 085c 75       		.byte	0x75
 1571 085d 00       		.sleb128 0
 1572 085e 00       		.byte	0
 1573 085f 1A       		.uleb128 0x1a
 1574 0860 1A000000 		.4byte	.LVL64
 1575 0864 91080000 		.4byte	0x891
 1576 0868 00       		.byte	0
 1577 0869 28       		.uleb128 0x28
 1578 086a 75040000 		.4byte	.LASF89
 1579 086e 08       		.byte	0x8
 1580 086f 68       		.byte	0x68
 1581 0870 40030000 		.4byte	0x340
 1582 0874 29       		.uleb128 0x29
 1583 0875 18000000 		.4byte	.LASF75
 1584 0879 0B       		.byte	0xb
 1585 087a E0       		.byte	0xe0
 1586 087b 2A       		.uleb128 0x2a
 1587 087c 57040000 		.4byte	.LASF80
 1588 0880 08       		.byte	0x8
 1589 0881 92       		.byte	0x92
ARM GAS  /var/folders/qh/xwg3v3kj02qbxczjpdb8lzfr0000gn/T//ccg1ZAqC.s 			page 29


 1590 0882 91080000 		.4byte	0x891
 1591 0886 2B       		.uleb128 0x2b
 1592 0887 14020000 		.4byte	0x214
 1593 088b 2B       		.uleb128 0x2b
 1594 088c CA000000 		.4byte	0xca
 1595 0890 00       		.byte	0
 1596 0891 29       		.uleb128 0x29
 1597 0892 E8010000 		.4byte	.LASF76
 1598 0896 0B       		.byte	0xb
 1599 0897 E1       		.byte	0xe1
 1600 0898 29       		.uleb128 0x29
 1601 0899 A0010000 		.4byte	.LASF77
 1602 089d 0B       		.byte	0xb
 1603 089e E6       		.byte	0xe6
 1604 089f 2C       		.uleb128 0x2c
 1605 08a0 EE030000 		.4byte	.LASF90
 1606 08a4 08       		.byte	0x8
 1607 08a5 89       		.byte	0x89
 1608 08a6 14020000 		.4byte	0x214
 1609 08aa B4080000 		.4byte	0x8b4
 1610 08ae 2B       		.uleb128 0x2b
 1611 08af 14020000 		.4byte	0x214
 1612 08b3 00       		.byte	0
 1613 08b4 29       		.uleb128 0x29
 1614 08b5 C0000000 		.4byte	.LASF78
 1615 08b9 08       		.byte	0x8
 1616 08ba 95       		.byte	0x95
 1617 08bb 29       		.uleb128 0x29
 1618 08bc B9010000 		.4byte	.LASF79
 1619 08c0 0B       		.byte	0xb
 1620 08c1 E7       		.byte	0xe7
 1621 08c2 2D       		.uleb128 0x2d
 1622 08c3 0C010000 		.4byte	.LASF91
 1623 08c7 09       		.byte	0x9
 1624 08c8 37       		.byte	0x37
 1625 08c9 F8030000 		.4byte	0x3f8
 1626 08cd 2A       		.uleb128 0x2a
 1627 08ce C4030000 		.4byte	.LASF81
 1628 08d2 08       		.byte	0x8
 1629 08d3 8C       		.byte	0x8c
 1630 08d4 DE080000 		.4byte	0x8de
 1631 08d8 2B       		.uleb128 0x2b
 1632 08d9 9E000000 		.4byte	0x9e
 1633 08dd 00       		.byte	0
 1634 08de 2A       		.uleb128 0x2a
 1635 08df AD000000 		.4byte	.LASF82
 1636 08e3 09       		.byte	0x9
 1637 08e4 33       		.byte	0x33
 1638 08e5 EF080000 		.4byte	0x8ef
 1639 08e9 2B       		.uleb128 0x2b
 1640 08ea F8030000 		.4byte	0x3f8
 1641 08ee 00       		.byte	0
 1642 08ef 2E       		.uleb128 0x2e
 1643 08f0 A3040000 		.4byte	.LASF83
 1644 08f4 08       		.byte	0x8
 1645 08f5 8F       		.byte	0x8f
 1646 08f6 CA000000 		.4byte	0xca
ARM GAS  /var/folders/qh/xwg3v3kj02qbxczjpdb8lzfr0000gn/T//ccg1ZAqC.s 			page 30


 1647 08fa 2B       		.uleb128 0x2b
 1648 08fb 9E000000 		.4byte	0x9e
 1649 08ff 2B       		.uleb128 0x2b
 1650 0900 E0000000 		.4byte	0xe0
 1651 0904 00       		.byte	0
 1652 0905 00       		.byte	0
 1653              		.section	.debug_abbrev,"",%progbits
 1654              	.Ldebug_abbrev0:
 1655 0000 01       		.uleb128 0x1
 1656 0001 11       		.uleb128 0x11
 1657 0002 01       		.byte	0x1
 1658 0003 25       		.uleb128 0x25
 1659 0004 0E       		.uleb128 0xe
 1660 0005 13       		.uleb128 0x13
 1661 0006 0B       		.uleb128 0xb
 1662 0007 03       		.uleb128 0x3
 1663 0008 0E       		.uleb128 0xe
 1664 0009 1B       		.uleb128 0x1b
 1665 000a 0E       		.uleb128 0xe
 1666 000b 55       		.uleb128 0x55
 1667 000c 17       		.uleb128 0x17
 1668 000d 11       		.uleb128 0x11
 1669 000e 01       		.uleb128 0x1
 1670 000f 10       		.uleb128 0x10
 1671 0010 17       		.uleb128 0x17
 1672 0011 00       		.byte	0
 1673 0012 00       		.byte	0
 1674 0013 02       		.uleb128 0x2
 1675 0014 24       		.uleb128 0x24
 1676 0015 00       		.byte	0
 1677 0016 0B       		.uleb128 0xb
 1678 0017 0B       		.uleb128 0xb
 1679 0018 3E       		.uleb128 0x3e
 1680 0019 0B       		.uleb128 0xb
 1681 001a 03       		.uleb128 0x3
 1682 001b 08       		.uleb128 0x8
 1683 001c 00       		.byte	0
 1684 001d 00       		.byte	0
 1685 001e 03       		.uleb128 0x3
 1686 001f 24       		.uleb128 0x24
 1687 0020 00       		.byte	0
 1688 0021 0B       		.uleb128 0xb
 1689 0022 0B       		.uleb128 0xb
 1690 0023 3E       		.uleb128 0x3e
 1691 0024 0B       		.uleb128 0xb
 1692 0025 03       		.uleb128 0x3
 1693 0026 0E       		.uleb128 0xe
 1694 0027 00       		.byte	0
 1695 0028 00       		.byte	0
 1696 0029 04       		.uleb128 0x4
 1697 002a 16       		.uleb128 0x16
 1698 002b 00       		.byte	0
 1699 002c 03       		.uleb128 0x3
 1700 002d 0E       		.uleb128 0xe
 1701 002e 3A       		.uleb128 0x3a
 1702 002f 0B       		.uleb128 0xb
 1703 0030 3B       		.uleb128 0x3b
ARM GAS  /var/folders/qh/xwg3v3kj02qbxczjpdb8lzfr0000gn/T//ccg1ZAqC.s 			page 31


 1704 0031 0B       		.uleb128 0xb
 1705 0032 49       		.uleb128 0x49
 1706 0033 13       		.uleb128 0x13
 1707 0034 00       		.byte	0
 1708 0035 00       		.byte	0
 1709 0036 05       		.uleb128 0x5
 1710 0037 13       		.uleb128 0x13
 1711 0038 01       		.byte	0x1
 1712 0039 03       		.uleb128 0x3
 1713 003a 0E       		.uleb128 0xe
 1714 003b 0B       		.uleb128 0xb
 1715 003c 0B       		.uleb128 0xb
 1716 003d 3A       		.uleb128 0x3a
 1717 003e 0B       		.uleb128 0xb
 1718 003f 3B       		.uleb128 0x3b
 1719 0040 0B       		.uleb128 0xb
 1720 0041 01       		.uleb128 0x1
 1721 0042 13       		.uleb128 0x13
 1722 0043 00       		.byte	0
 1723 0044 00       		.byte	0
 1724 0045 06       		.uleb128 0x6
 1725 0046 0D       		.uleb128 0xd
 1726 0047 00       		.byte	0
 1727 0048 03       		.uleb128 0x3
 1728 0049 0E       		.uleb128 0xe
 1729 004a 3A       		.uleb128 0x3a
 1730 004b 0B       		.uleb128 0xb
 1731 004c 3B       		.uleb128 0x3b
 1732 004d 0B       		.uleb128 0xb
 1733 004e 49       		.uleb128 0x49
 1734 004f 13       		.uleb128 0x13
 1735 0050 38       		.uleb128 0x38
 1736 0051 0B       		.uleb128 0xb
 1737 0052 00       		.byte	0
 1738 0053 00       		.byte	0
 1739 0054 07       		.uleb128 0x7
 1740 0055 0D       		.uleb128 0xd
 1741 0056 00       		.byte	0
 1742 0057 03       		.uleb128 0x3
 1743 0058 08       		.uleb128 0x8
 1744 0059 3A       		.uleb128 0x3a
 1745 005a 0B       		.uleb128 0xb
 1746 005b 3B       		.uleb128 0x3b
 1747 005c 0B       		.uleb128 0xb
 1748 005d 49       		.uleb128 0x49
 1749 005e 13       		.uleb128 0x13
 1750 005f 38       		.uleb128 0x38
 1751 0060 0B       		.uleb128 0xb
 1752 0061 00       		.byte	0
 1753 0062 00       		.byte	0
 1754 0063 08       		.uleb128 0x8
 1755 0064 13       		.uleb128 0x13
 1756 0065 01       		.byte	0x1
 1757 0066 0B       		.uleb128 0xb
 1758 0067 0B       		.uleb128 0xb
 1759 0068 3A       		.uleb128 0x3a
 1760 0069 0B       		.uleb128 0xb
ARM GAS  /var/folders/qh/xwg3v3kj02qbxczjpdb8lzfr0000gn/T//ccg1ZAqC.s 			page 32


 1761 006a 3B       		.uleb128 0x3b
 1762 006b 0B       		.uleb128 0xb
 1763 006c 01       		.uleb128 0x1
 1764 006d 13       		.uleb128 0x13
 1765 006e 00       		.byte	0
 1766 006f 00       		.byte	0
 1767 0070 09       		.uleb128 0x9
 1768 0071 0F       		.uleb128 0xf
 1769 0072 00       		.byte	0
 1770 0073 0B       		.uleb128 0xb
 1771 0074 0B       		.uleb128 0xb
 1772 0075 49       		.uleb128 0x49
 1773 0076 13       		.uleb128 0x13
 1774 0077 00       		.byte	0
 1775 0078 00       		.byte	0
 1776 0079 0A       		.uleb128 0xa
 1777 007a 0F       		.uleb128 0xf
 1778 007b 00       		.byte	0
 1779 007c 0B       		.uleb128 0xb
 1780 007d 0B       		.uleb128 0xb
 1781 007e 00       		.byte	0
 1782 007f 00       		.byte	0
 1783 0080 0B       		.uleb128 0xb
 1784 0081 35       		.uleb128 0x35
 1785 0082 00       		.byte	0
 1786 0083 49       		.uleb128 0x49
 1787 0084 13       		.uleb128 0x13
 1788 0085 00       		.byte	0
 1789 0086 00       		.byte	0
 1790 0087 0C       		.uleb128 0xc
 1791 0088 17       		.uleb128 0x17
 1792 0089 01       		.byte	0x1
 1793 008a 0B       		.uleb128 0xb
 1794 008b 0B       		.uleb128 0xb
 1795 008c 3A       		.uleb128 0x3a
 1796 008d 0B       		.uleb128 0xb
 1797 008e 3B       		.uleb128 0x3b
 1798 008f 0B       		.uleb128 0xb
 1799 0090 01       		.uleb128 0x1
 1800 0091 13       		.uleb128 0x13
 1801 0092 00       		.byte	0
 1802 0093 00       		.byte	0
 1803 0094 0D       		.uleb128 0xd
 1804 0095 0D       		.uleb128 0xd
 1805 0096 00       		.byte	0
 1806 0097 03       		.uleb128 0x3
 1807 0098 0E       		.uleb128 0xe
 1808 0099 3A       		.uleb128 0x3a
 1809 009a 0B       		.uleb128 0xb
 1810 009b 3B       		.uleb128 0x3b
 1811 009c 0B       		.uleb128 0xb
 1812 009d 49       		.uleb128 0x49
 1813 009e 13       		.uleb128 0x13
 1814 009f 00       		.byte	0
 1815 00a0 00       		.byte	0
 1816 00a1 0E       		.uleb128 0xe
 1817 00a2 26       		.uleb128 0x26
ARM GAS  /var/folders/qh/xwg3v3kj02qbxczjpdb8lzfr0000gn/T//ccg1ZAqC.s 			page 33


 1818 00a3 00       		.byte	0
 1819 00a4 49       		.uleb128 0x49
 1820 00a5 13       		.uleb128 0x13
 1821 00a6 00       		.byte	0
 1822 00a7 00       		.byte	0
 1823 00a8 0F       		.uleb128 0xf
 1824 00a9 2E       		.uleb128 0x2e
 1825 00aa 01       		.byte	0x1
 1826 00ab 03       		.uleb128 0x3
 1827 00ac 0E       		.uleb128 0xe
 1828 00ad 3A       		.uleb128 0x3a
 1829 00ae 0B       		.uleb128 0xb
 1830 00af 3B       		.uleb128 0x3b
 1831 00b0 0B       		.uleb128 0xb
 1832 00b1 27       		.uleb128 0x27
 1833 00b2 19       		.uleb128 0x19
 1834 00b3 49       		.uleb128 0x49
 1835 00b4 13       		.uleb128 0x13
 1836 00b5 20       		.uleb128 0x20
 1837 00b6 0B       		.uleb128 0xb
 1838 00b7 01       		.uleb128 0x1
 1839 00b8 13       		.uleb128 0x13
 1840 00b9 00       		.byte	0
 1841 00ba 00       		.byte	0
 1842 00bb 10       		.uleb128 0x10
 1843 00bc 05       		.uleb128 0x5
 1844 00bd 00       		.byte	0
 1845 00be 03       		.uleb128 0x3
 1846 00bf 08       		.uleb128 0x8
 1847 00c0 3A       		.uleb128 0x3a
 1848 00c1 0B       		.uleb128 0xb
 1849 00c2 3B       		.uleb128 0x3b
 1850 00c3 0B       		.uleb128 0xb
 1851 00c4 49       		.uleb128 0x49
 1852 00c5 13       		.uleb128 0x13
 1853 00c6 00       		.byte	0
 1854 00c7 00       		.byte	0
 1855 00c8 11       		.uleb128 0x11
 1856 00c9 34       		.uleb128 0x34
 1857 00ca 00       		.byte	0
 1858 00cb 03       		.uleb128 0x3
 1859 00cc 08       		.uleb128 0x8
 1860 00cd 3A       		.uleb128 0x3a
 1861 00ce 0B       		.uleb128 0xb
 1862 00cf 3B       		.uleb128 0x3b
 1863 00d0 0B       		.uleb128 0xb
 1864 00d1 49       		.uleb128 0x49
 1865 00d2 13       		.uleb128 0x13
 1866 00d3 00       		.byte	0
 1867 00d4 00       		.byte	0
 1868 00d5 12       		.uleb128 0x12
 1869 00d6 2E       		.uleb128 0x2e
 1870 00d7 01       		.byte	0x1
 1871 00d8 03       		.uleb128 0x3
 1872 00d9 0E       		.uleb128 0xe
 1873 00da 3A       		.uleb128 0x3a
 1874 00db 0B       		.uleb128 0xb
ARM GAS  /var/folders/qh/xwg3v3kj02qbxczjpdb8lzfr0000gn/T//ccg1ZAqC.s 			page 34


 1875 00dc 3B       		.uleb128 0x3b
 1876 00dd 0B       		.uleb128 0xb
 1877 00de 27       		.uleb128 0x27
 1878 00df 19       		.uleb128 0x19
 1879 00e0 20       		.uleb128 0x20
 1880 00e1 0B       		.uleb128 0xb
 1881 00e2 01       		.uleb128 0x1
 1882 00e3 13       		.uleb128 0x13
 1883 00e4 00       		.byte	0
 1884 00e5 00       		.byte	0
 1885 00e6 13       		.uleb128 0x13
 1886 00e7 2E       		.uleb128 0x2e
 1887 00e8 01       		.byte	0x1
 1888 00e9 3F       		.uleb128 0x3f
 1889 00ea 19       		.uleb128 0x19
 1890 00eb 03       		.uleb128 0x3
 1891 00ec 0E       		.uleb128 0xe
 1892 00ed 3A       		.uleb128 0x3a
 1893 00ee 0B       		.uleb128 0xb
 1894 00ef 3B       		.uleb128 0x3b
 1895 00f0 0B       		.uleb128 0xb
 1896 00f1 27       		.uleb128 0x27
 1897 00f2 19       		.uleb128 0x19
 1898 00f3 11       		.uleb128 0x11
 1899 00f4 01       		.uleb128 0x1
 1900 00f5 12       		.uleb128 0x12
 1901 00f6 06       		.uleb128 0x6
 1902 00f7 40       		.uleb128 0x40
 1903 00f8 18       		.uleb128 0x18
 1904 00f9 9742     		.uleb128 0x2117
 1905 00fb 19       		.uleb128 0x19
 1906 00fc 01       		.uleb128 0x1
 1907 00fd 13       		.uleb128 0x13
 1908 00fe 00       		.byte	0
 1909 00ff 00       		.byte	0
 1910 0100 14       		.uleb128 0x14
 1911 0101 05       		.uleb128 0x5
 1912 0102 00       		.byte	0
 1913 0103 03       		.uleb128 0x3
 1914 0104 08       		.uleb128 0x8
 1915 0105 3A       		.uleb128 0x3a
 1916 0106 0B       		.uleb128 0xb
 1917 0107 3B       		.uleb128 0x3b
 1918 0108 0B       		.uleb128 0xb
 1919 0109 49       		.uleb128 0x49
 1920 010a 13       		.uleb128 0x13
 1921 010b 02       		.uleb128 0x2
 1922 010c 18       		.uleb128 0x18
 1923 010d 00       		.byte	0
 1924 010e 00       		.byte	0
 1925 010f 15       		.uleb128 0x15
 1926 0110 05       		.uleb128 0x5
 1927 0111 00       		.byte	0
 1928 0112 03       		.uleb128 0x3
 1929 0113 08       		.uleb128 0x8
 1930 0114 3A       		.uleb128 0x3a
 1931 0115 0B       		.uleb128 0xb
ARM GAS  /var/folders/qh/xwg3v3kj02qbxczjpdb8lzfr0000gn/T//ccg1ZAqC.s 			page 35


 1932 0116 3B       		.uleb128 0x3b
 1933 0117 0B       		.uleb128 0xb
 1934 0118 49       		.uleb128 0x49
 1935 0119 13       		.uleb128 0x13
 1936 011a 02       		.uleb128 0x2
 1937 011b 17       		.uleb128 0x17
 1938 011c 00       		.byte	0
 1939 011d 00       		.byte	0
 1940 011e 16       		.uleb128 0x16
 1941 011f 1D       		.uleb128 0x1d
 1942 0120 01       		.byte	0x1
 1943 0121 31       		.uleb128 0x31
 1944 0122 13       		.uleb128 0x13
 1945 0123 52       		.uleb128 0x52
 1946 0124 01       		.uleb128 0x1
 1947 0125 55       		.uleb128 0x55
 1948 0126 17       		.uleb128 0x17
 1949 0127 58       		.uleb128 0x58
 1950 0128 0B       		.uleb128 0xb
 1951 0129 59       		.uleb128 0x59
 1952 012a 0B       		.uleb128 0xb
 1953 012b 01       		.uleb128 0x1
 1954 012c 13       		.uleb128 0x13
 1955 012d 00       		.byte	0
 1956 012e 00       		.byte	0
 1957 012f 17       		.uleb128 0x17
 1958 0130 05       		.uleb128 0x5
 1959 0131 00       		.byte	0
 1960 0132 31       		.uleb128 0x31
 1961 0133 13       		.uleb128 0x13
 1962 0134 02       		.uleb128 0x2
 1963 0135 17       		.uleb128 0x17
 1964 0136 00       		.byte	0
 1965 0137 00       		.byte	0
 1966 0138 18       		.uleb128 0x18
 1967 0139 0B       		.uleb128 0xb
 1968 013a 01       		.byte	0x1
 1969 013b 55       		.uleb128 0x55
 1970 013c 17       		.uleb128 0x17
 1971 013d 00       		.byte	0
 1972 013e 00       		.byte	0
 1973 013f 19       		.uleb128 0x19
 1974 0140 34       		.uleb128 0x34
 1975 0141 00       		.byte	0
 1976 0142 31       		.uleb128 0x31
 1977 0143 13       		.uleb128 0x13
 1978 0144 02       		.uleb128 0x2
 1979 0145 17       		.uleb128 0x17
 1980 0146 00       		.byte	0
 1981 0147 00       		.byte	0
 1982 0148 1A       		.uleb128 0x1a
 1983 0149 898201   		.uleb128 0x4109
 1984 014c 00       		.byte	0
 1985 014d 11       		.uleb128 0x11
 1986 014e 01       		.uleb128 0x1
 1987 014f 31       		.uleb128 0x31
 1988 0150 13       		.uleb128 0x13
ARM GAS  /var/folders/qh/xwg3v3kj02qbxczjpdb8lzfr0000gn/T//ccg1ZAqC.s 			page 36


 1989 0151 00       		.byte	0
 1990 0152 00       		.byte	0
 1991 0153 1B       		.uleb128 0x1b
 1992 0154 898201   		.uleb128 0x4109
 1993 0157 01       		.byte	0x1
 1994 0158 11       		.uleb128 0x11
 1995 0159 01       		.uleb128 0x1
 1996 015a 31       		.uleb128 0x31
 1997 015b 13       		.uleb128 0x13
 1998 015c 01       		.uleb128 0x1
 1999 015d 13       		.uleb128 0x13
 2000 015e 00       		.byte	0
 2001 015f 00       		.byte	0
 2002 0160 1C       		.uleb128 0x1c
 2003 0161 8A8201   		.uleb128 0x410a
 2004 0164 00       		.byte	0
 2005 0165 02       		.uleb128 0x2
 2006 0166 18       		.uleb128 0x18
 2007 0167 9142     		.uleb128 0x2111
 2008 0169 18       		.uleb128 0x18
 2009 016a 00       		.byte	0
 2010 016b 00       		.byte	0
 2011 016c 1D       		.uleb128 0x1d
 2012 016d 1D       		.uleb128 0x1d
 2013 016e 01       		.byte	0x1
 2014 016f 31       		.uleb128 0x31
 2015 0170 13       		.uleb128 0x13
 2016 0171 11       		.uleb128 0x11
 2017 0172 01       		.uleb128 0x1
 2018 0173 12       		.uleb128 0x12
 2019 0174 06       		.uleb128 0x6
 2020 0175 58       		.uleb128 0x58
 2021 0176 0B       		.uleb128 0xb
 2022 0177 59       		.uleb128 0x59
 2023 0178 0B       		.uleb128 0xb
 2024 0179 01       		.uleb128 0x1
 2025 017a 13       		.uleb128 0x13
 2026 017b 00       		.byte	0
 2027 017c 00       		.byte	0
 2028 017d 1E       		.uleb128 0x1e
 2029 017e 0B       		.uleb128 0xb
 2030 017f 01       		.byte	0x1
 2031 0180 11       		.uleb128 0x11
 2032 0181 01       		.uleb128 0x1
 2033 0182 12       		.uleb128 0x12
 2034 0183 06       		.uleb128 0x6
 2035 0184 00       		.byte	0
 2036 0185 00       		.byte	0
 2037 0186 1F       		.uleb128 0x1f
 2038 0187 2E       		.uleb128 0x2e
 2039 0188 01       		.byte	0x1
 2040 0189 3F       		.uleb128 0x3f
 2041 018a 19       		.uleb128 0x19
 2042 018b 03       		.uleb128 0x3
 2043 018c 0E       		.uleb128 0xe
 2044 018d 3A       		.uleb128 0x3a
 2045 018e 0B       		.uleb128 0xb
ARM GAS  /var/folders/qh/xwg3v3kj02qbxczjpdb8lzfr0000gn/T//ccg1ZAqC.s 			page 37


 2046 018f 3B       		.uleb128 0x3b
 2047 0190 0B       		.uleb128 0xb
 2048 0191 27       		.uleb128 0x27
 2049 0192 19       		.uleb128 0x19
 2050 0193 49       		.uleb128 0x49
 2051 0194 13       		.uleb128 0x13
 2052 0195 11       		.uleb128 0x11
 2053 0196 01       		.uleb128 0x1
 2054 0197 12       		.uleb128 0x12
 2055 0198 06       		.uleb128 0x6
 2056 0199 40       		.uleb128 0x40
 2057 019a 18       		.uleb128 0x18
 2058 019b 9742     		.uleb128 0x2117
 2059 019d 19       		.uleb128 0x19
 2060 019e 01       		.uleb128 0x1
 2061 019f 13       		.uleb128 0x13
 2062 01a0 00       		.byte	0
 2063 01a1 00       		.byte	0
 2064 01a2 20       		.uleb128 0x20
 2065 01a3 34       		.uleb128 0x34
 2066 01a4 00       		.byte	0
 2067 01a5 03       		.uleb128 0x3
 2068 01a6 08       		.uleb128 0x8
 2069 01a7 3A       		.uleb128 0x3a
 2070 01a8 0B       		.uleb128 0xb
 2071 01a9 3B       		.uleb128 0x3b
 2072 01aa 0B       		.uleb128 0xb
 2073 01ab 49       		.uleb128 0x49
 2074 01ac 13       		.uleb128 0x13
 2075 01ad 02       		.uleb128 0x2
 2076 01ae 17       		.uleb128 0x17
 2077 01af 00       		.byte	0
 2078 01b0 00       		.byte	0
 2079 01b1 21       		.uleb128 0x21
 2080 01b2 898201   		.uleb128 0x4109
 2081 01b5 01       		.byte	0x1
 2082 01b6 11       		.uleb128 0x11
 2083 01b7 01       		.uleb128 0x1
 2084 01b8 31       		.uleb128 0x31
 2085 01b9 13       		.uleb128 0x13
 2086 01ba 00       		.byte	0
 2087 01bb 00       		.byte	0
 2088 01bc 22       		.uleb128 0x22
 2089 01bd 2E       		.uleb128 0x2e
 2090 01be 01       		.byte	0x1
 2091 01bf 3F       		.uleb128 0x3f
 2092 01c0 19       		.uleb128 0x19
 2093 01c1 03       		.uleb128 0x3
 2094 01c2 0E       		.uleb128 0xe
 2095 01c3 3A       		.uleb128 0x3a
 2096 01c4 0B       		.uleb128 0xb
 2097 01c5 3B       		.uleb128 0x3b
 2098 01c6 05       		.uleb128 0x5
 2099 01c7 27       		.uleb128 0x27
 2100 01c8 19       		.uleb128 0x19
 2101 01c9 49       		.uleb128 0x49
 2102 01ca 13       		.uleb128 0x13
ARM GAS  /var/folders/qh/xwg3v3kj02qbxczjpdb8lzfr0000gn/T//ccg1ZAqC.s 			page 38


 2103 01cb 11       		.uleb128 0x11
 2104 01cc 01       		.uleb128 0x1
 2105 01cd 12       		.uleb128 0x12
 2106 01ce 06       		.uleb128 0x6
 2107 01cf 40       		.uleb128 0x40
 2108 01d0 18       		.uleb128 0x18
 2109 01d1 9742     		.uleb128 0x2117
 2110 01d3 19       		.uleb128 0x19
 2111 01d4 01       		.uleb128 0x1
 2112 01d5 13       		.uleb128 0x13
 2113 01d6 00       		.byte	0
 2114 01d7 00       		.byte	0
 2115 01d8 23       		.uleb128 0x23
 2116 01d9 05       		.uleb128 0x5
 2117 01da 00       		.byte	0
 2118 01db 03       		.uleb128 0x3
 2119 01dc 08       		.uleb128 0x8
 2120 01dd 3A       		.uleb128 0x3a
 2121 01de 0B       		.uleb128 0xb
 2122 01df 3B       		.uleb128 0x3b
 2123 01e0 05       		.uleb128 0x5
 2124 01e1 49       		.uleb128 0x49
 2125 01e2 13       		.uleb128 0x13
 2126 01e3 02       		.uleb128 0x2
 2127 01e4 17       		.uleb128 0x17
 2128 01e5 00       		.byte	0
 2129 01e6 00       		.byte	0
 2130 01e7 24       		.uleb128 0x24
 2131 01e8 05       		.uleb128 0x5
 2132 01e9 00       		.byte	0
 2133 01ea 03       		.uleb128 0x3
 2134 01eb 0E       		.uleb128 0xe
 2135 01ec 3A       		.uleb128 0x3a
 2136 01ed 0B       		.uleb128 0xb
 2137 01ee 3B       		.uleb128 0x3b
 2138 01ef 05       		.uleb128 0x5
 2139 01f0 49       		.uleb128 0x49
 2140 01f1 13       		.uleb128 0x13
 2141 01f2 02       		.uleb128 0x2
 2142 01f3 17       		.uleb128 0x17
 2143 01f4 00       		.byte	0
 2144 01f5 00       		.byte	0
 2145 01f6 25       		.uleb128 0x25
 2146 01f7 34       		.uleb128 0x34
 2147 01f8 00       		.byte	0
 2148 01f9 03       		.uleb128 0x3
 2149 01fa 08       		.uleb128 0x8
 2150 01fb 3A       		.uleb128 0x3a
 2151 01fc 0B       		.uleb128 0xb
 2152 01fd 3B       		.uleb128 0x3b
 2153 01fe 05       		.uleb128 0x5
 2154 01ff 49       		.uleb128 0x49
 2155 0200 13       		.uleb128 0x13
 2156 0201 02       		.uleb128 0x2
 2157 0202 17       		.uleb128 0x17
 2158 0203 00       		.byte	0
 2159 0204 00       		.byte	0
ARM GAS  /var/folders/qh/xwg3v3kj02qbxczjpdb8lzfr0000gn/T//ccg1ZAqC.s 			page 39


 2160 0205 26       		.uleb128 0x26
 2161 0206 1D       		.uleb128 0x1d
 2162 0207 01       		.byte	0x1
 2163 0208 31       		.uleb128 0x31
 2164 0209 13       		.uleb128 0x13
 2165 020a 52       		.uleb128 0x52
 2166 020b 01       		.uleb128 0x1
 2167 020c 55       		.uleb128 0x55
 2168 020d 17       		.uleb128 0x17
 2169 020e 58       		.uleb128 0x58
 2170 020f 0B       		.uleb128 0xb
 2171 0210 59       		.uleb128 0x59
 2172 0211 05       		.uleb128 0x5
 2173 0212 01       		.uleb128 0x1
 2174 0213 13       		.uleb128 0x13
 2175 0214 00       		.byte	0
 2176 0215 00       		.byte	0
 2177 0216 27       		.uleb128 0x27
 2178 0217 05       		.uleb128 0x5
 2179 0218 00       		.byte	0
 2180 0219 03       		.uleb128 0x3
 2181 021a 0E       		.uleb128 0xe
 2182 021b 3A       		.uleb128 0x3a
 2183 021c 0B       		.uleb128 0xb
 2184 021d 3B       		.uleb128 0x3b
 2185 021e 0B       		.uleb128 0xb
 2186 021f 49       		.uleb128 0x49
 2187 0220 13       		.uleb128 0x13
 2188 0221 02       		.uleb128 0x2
 2189 0222 17       		.uleb128 0x17
 2190 0223 00       		.byte	0
 2191 0224 00       		.byte	0
 2192 0225 28       		.uleb128 0x28
 2193 0226 34       		.uleb128 0x34
 2194 0227 00       		.byte	0
 2195 0228 03       		.uleb128 0x3
 2196 0229 0E       		.uleb128 0xe
 2197 022a 3A       		.uleb128 0x3a
 2198 022b 0B       		.uleb128 0xb
 2199 022c 3B       		.uleb128 0x3b
 2200 022d 0B       		.uleb128 0xb
 2201 022e 49       		.uleb128 0x49
 2202 022f 13       		.uleb128 0x13
 2203 0230 3F       		.uleb128 0x3f
 2204 0231 19       		.uleb128 0x19
 2205 0232 3C       		.uleb128 0x3c
 2206 0233 19       		.uleb128 0x19
 2207 0234 00       		.byte	0
 2208 0235 00       		.byte	0
 2209 0236 29       		.uleb128 0x29
 2210 0237 2E       		.uleb128 0x2e
 2211 0238 00       		.byte	0
 2212 0239 3F       		.uleb128 0x3f
 2213 023a 19       		.uleb128 0x19
 2214 023b 03       		.uleb128 0x3
 2215 023c 0E       		.uleb128 0xe
 2216 023d 3A       		.uleb128 0x3a
ARM GAS  /var/folders/qh/xwg3v3kj02qbxczjpdb8lzfr0000gn/T//ccg1ZAqC.s 			page 40


 2217 023e 0B       		.uleb128 0xb
 2218 023f 3B       		.uleb128 0x3b
 2219 0240 0B       		.uleb128 0xb
 2220 0241 27       		.uleb128 0x27
 2221 0242 19       		.uleb128 0x19
 2222 0243 3C       		.uleb128 0x3c
 2223 0244 19       		.uleb128 0x19
 2224 0245 00       		.byte	0
 2225 0246 00       		.byte	0
 2226 0247 2A       		.uleb128 0x2a
 2227 0248 2E       		.uleb128 0x2e
 2228 0249 01       		.byte	0x1
 2229 024a 3F       		.uleb128 0x3f
 2230 024b 19       		.uleb128 0x19
 2231 024c 03       		.uleb128 0x3
 2232 024d 0E       		.uleb128 0xe
 2233 024e 3A       		.uleb128 0x3a
 2234 024f 0B       		.uleb128 0xb
 2235 0250 3B       		.uleb128 0x3b
 2236 0251 0B       		.uleb128 0xb
 2237 0252 27       		.uleb128 0x27
 2238 0253 19       		.uleb128 0x19
 2239 0254 3C       		.uleb128 0x3c
 2240 0255 19       		.uleb128 0x19
 2241 0256 01       		.uleb128 0x1
 2242 0257 13       		.uleb128 0x13
 2243 0258 00       		.byte	0
 2244 0259 00       		.byte	0
 2245 025a 2B       		.uleb128 0x2b
 2246 025b 05       		.uleb128 0x5
 2247 025c 00       		.byte	0
 2248 025d 49       		.uleb128 0x49
 2249 025e 13       		.uleb128 0x13
 2250 025f 00       		.byte	0
 2251 0260 00       		.byte	0
 2252 0261 2C       		.uleb128 0x2c
 2253 0262 2E       		.uleb128 0x2e
 2254 0263 01       		.byte	0x1
 2255 0264 3F       		.uleb128 0x3f
 2256 0265 19       		.uleb128 0x19
 2257 0266 03       		.uleb128 0x3
 2258 0267 0E       		.uleb128 0xe
 2259 0268 3A       		.uleb128 0x3a
 2260 0269 0B       		.uleb128 0xb
 2261 026a 3B       		.uleb128 0x3b
 2262 026b 0B       		.uleb128 0xb
 2263 026c 27       		.uleb128 0x27
 2264 026d 19       		.uleb128 0x19
 2265 026e 49       		.uleb128 0x49
 2266 026f 13       		.uleb128 0x13
 2267 0270 3C       		.uleb128 0x3c
 2268 0271 19       		.uleb128 0x19
 2269 0272 01       		.uleb128 0x1
 2270 0273 13       		.uleb128 0x13
 2271 0274 00       		.byte	0
 2272 0275 00       		.byte	0
 2273 0276 2D       		.uleb128 0x2d
ARM GAS  /var/folders/qh/xwg3v3kj02qbxczjpdb8lzfr0000gn/T//ccg1ZAqC.s 			page 41


 2274 0277 2E       		.uleb128 0x2e
 2275 0278 00       		.byte	0
 2276 0279 3F       		.uleb128 0x3f
 2277 027a 19       		.uleb128 0x19
 2278 027b 03       		.uleb128 0x3
 2279 027c 0E       		.uleb128 0xe
 2280 027d 3A       		.uleb128 0x3a
 2281 027e 0B       		.uleb128 0xb
 2282 027f 3B       		.uleb128 0x3b
 2283 0280 0B       		.uleb128 0xb
 2284 0281 27       		.uleb128 0x27
 2285 0282 19       		.uleb128 0x19
 2286 0283 49       		.uleb128 0x49
 2287 0284 13       		.uleb128 0x13
 2288 0285 3C       		.uleb128 0x3c
 2289 0286 19       		.uleb128 0x19
 2290 0287 00       		.byte	0
 2291 0288 00       		.byte	0
 2292 0289 2E       		.uleb128 0x2e
 2293 028a 2E       		.uleb128 0x2e
 2294 028b 01       		.byte	0x1
 2295 028c 3F       		.uleb128 0x3f
 2296 028d 19       		.uleb128 0x19
 2297 028e 03       		.uleb128 0x3
 2298 028f 0E       		.uleb128 0xe
 2299 0290 3A       		.uleb128 0x3a
 2300 0291 0B       		.uleb128 0xb
 2301 0292 3B       		.uleb128 0x3b
 2302 0293 0B       		.uleb128 0xb
 2303 0294 27       		.uleb128 0x27
 2304 0295 19       		.uleb128 0x19
 2305 0296 49       		.uleb128 0x49
 2306 0297 13       		.uleb128 0x13
 2307 0298 3C       		.uleb128 0x3c
 2308 0299 19       		.uleb128 0x19
 2309 029a 00       		.byte	0
 2310 029b 00       		.byte	0
 2311 029c 00       		.byte	0
 2312              		.section	.debug_loc,"",%progbits
 2313              	.Ldebug_loc0:
 2314              	.LLST0:
 2315 0000 00000000 		.4byte	.LVL1
 2316 0004 09000000 		.4byte	.LVL2-1
 2317 0008 0100     		.2byte	0x1
 2318 000a 50       		.byte	0x50
 2319 000b 09000000 		.4byte	.LVL2-1
 2320 000f 22000000 		.4byte	.LVL6
 2321 0013 0100     		.2byte	0x1
 2322 0015 54       		.byte	0x54
 2323 0016 22000000 		.4byte	.LVL6
 2324 001a 24000000 		.4byte	.LFE8
 2325 001e 0400     		.2byte	0x4
 2326 0020 F3       		.byte	0xf3
 2327 0021 01       		.uleb128 0x1
 2328 0022 50       		.byte	0x50
 2329 0023 9F       		.byte	0x9f
 2330 0024 00000000 		.4byte	0
ARM GAS  /var/folders/qh/xwg3v3kj02qbxczjpdb8lzfr0000gn/T//ccg1ZAqC.s 			page 42


 2331 0028 00000000 		.4byte	0
 2332              	.LLST1:
 2333 002c 10000000 		.4byte	.LVL3
 2334 0030 1C000000 		.4byte	.LVL4
 2335 0034 0100     		.2byte	0x1
 2336 0036 54       		.byte	0x54
 2337 0037 00000000 		.4byte	0
 2338 003b 00000000 		.4byte	0
 2339              	.LLST2:
 2340 003f 10000000 		.4byte	.LVL3
 2341 0043 1B000000 		.4byte	.LVL4-1
 2342 0047 0100     		.2byte	0x1
 2343 0049 50       		.byte	0x50
 2344 004a 00000000 		.4byte	0
 2345 004e 00000000 		.4byte	0
 2346              	.LLST3:
 2347 0052 00000000 		.4byte	.LVL7
 2348 0056 07000000 		.4byte	.LVL8-1
 2349 005a 0100     		.2byte	0x1
 2350 005c 50       		.byte	0x50
 2351 005d 07000000 		.4byte	.LVL8-1
 2352 0061 1C000000 		.4byte	.LVL12
 2353 0065 0100     		.2byte	0x1
 2354 0067 54       		.byte	0x54
 2355 0068 1C000000 		.4byte	.LVL12
 2356 006c 1E000000 		.4byte	.LFE9
 2357 0070 0400     		.2byte	0x4
 2358 0072 F3       		.byte	0xf3
 2359 0073 01       		.uleb128 0x1
 2360 0074 50       		.byte	0x50
 2361 0075 9F       		.byte	0x9f
 2362 0076 00000000 		.4byte	0
 2363 007a 00000000 		.4byte	0
 2364              	.LLST4:
 2365 007e 0E000000 		.4byte	.LVL9
 2366 0082 1C000000 		.4byte	.LVL11
 2367 0086 0100     		.2byte	0x1
 2368 0088 54       		.byte	0x54
 2369 0089 00000000 		.4byte	0
 2370 008d 00000000 		.4byte	0
 2371              	.LLST5:
 2372 0091 0E000000 		.4byte	.LVL9
 2373 0095 17000000 		.4byte	.LVL10-1
 2374 0099 0100     		.2byte	0x1
 2375 009b 50       		.byte	0x50
 2376 009c 00000000 		.4byte	0
 2377 00a0 00000000 		.4byte	0
 2378              	.LLST6:
 2379 00a4 00000000 		.4byte	.LVL13
 2380 00a8 07000000 		.4byte	.LVL14-1
 2381 00ac 0100     		.2byte	0x1
 2382 00ae 50       		.byte	0x50
 2383 00af 07000000 		.4byte	.LVL14-1
 2384 00b3 24000000 		.4byte	.LVL18
 2385 00b7 0100     		.2byte	0x1
 2386 00b9 54       		.byte	0x54
 2387 00ba 24000000 		.4byte	.LVL18
ARM GAS  /var/folders/qh/xwg3v3kj02qbxczjpdb8lzfr0000gn/T//ccg1ZAqC.s 			page 43


 2388 00be 26000000 		.4byte	.LFE11
 2389 00c2 0400     		.2byte	0x4
 2390 00c4 F3       		.byte	0xf3
 2391 00c5 01       		.uleb128 0x1
 2392 00c6 50       		.byte	0x50
 2393 00c7 9F       		.byte	0x9f
 2394 00c8 00000000 		.4byte	0
 2395 00cc 00000000 		.4byte	0
 2396              	.LLST7:
 2397 00d0 12000000 		.4byte	.LVL15
 2398 00d4 24000000 		.4byte	.LVL17
 2399 00d8 0100     		.2byte	0x1
 2400 00da 54       		.byte	0x54
 2401 00db 00000000 		.4byte	0
 2402 00df 00000000 		.4byte	0
 2403              	.LLST8:
 2404 00e3 12000000 		.4byte	.LVL15
 2405 00e7 1B000000 		.4byte	.LVL16-1
 2406 00eb 0100     		.2byte	0x1
 2407 00ed 50       		.byte	0x50
 2408 00ee 00000000 		.4byte	0
 2409 00f2 00000000 		.4byte	0
 2410              	.LLST9:
 2411 00f6 00000000 		.4byte	.LVL19
 2412 00fa 09000000 		.4byte	.LVL20-1
 2413 00fe 0100     		.2byte	0x1
 2414 0100 50       		.byte	0x50
 2415 0101 09000000 		.4byte	.LVL20-1
 2416 0105 1A000000 		.4byte	.LVL24
 2417 0109 0100     		.2byte	0x1
 2418 010b 54       		.byte	0x54
 2419 010c 1A000000 		.4byte	.LVL24
 2420 0110 1C000000 		.4byte	.LFE10
 2421 0114 0400     		.2byte	0x4
 2422 0116 F3       		.byte	0xf3
 2423 0117 01       		.uleb128 0x1
 2424 0118 50       		.byte	0x50
 2425 0119 9F       		.byte	0x9f
 2426 011a 00000000 		.4byte	0
 2427 011e 00000000 		.4byte	0
 2428              	.LLST10:
 2429 0122 00000000 		.4byte	.LVL25
 2430 0126 0B000000 		.4byte	.LVL27-1
 2431 012a 0100     		.2byte	0x1
 2432 012c 50       		.byte	0x50
 2433 012d 0B000000 		.4byte	.LVL27-1
 2434 0131 40000000 		.4byte	.LVL37
 2435 0135 0100     		.2byte	0x1
 2436 0137 55       		.byte	0x55
 2437 0138 40000000 		.4byte	.LVL37
 2438 013c 48000000 		.4byte	.LFE13
 2439 0140 0400     		.2byte	0x4
 2440 0142 F3       		.byte	0xf3
 2441 0143 01       		.uleb128 0x1
 2442 0144 50       		.byte	0x50
 2443 0145 9F       		.byte	0x9f
 2444 0146 00000000 		.4byte	0
ARM GAS  /var/folders/qh/xwg3v3kj02qbxczjpdb8lzfr0000gn/T//ccg1ZAqC.s 			page 44


 2445 014a 00000000 		.4byte	0
 2446              	.LLST11:
 2447 014e 08000000 		.4byte	.LVL26
 2448 0152 38000000 		.4byte	.LVL34
 2449 0156 0100     		.2byte	0x1
 2450 0158 54       		.byte	0x54
 2451 0159 00000000 		.4byte	0
 2452 015d 00000000 		.4byte	0
 2453              	.LLST12:
 2454 0161 14000000 		.4byte	.LVL29
 2455 0165 2E000000 		.4byte	.LVL32
 2456 0169 0100     		.2byte	0x1
 2457 016b 50       		.byte	0x50
 2458 016c 2E000000 		.4byte	.LVL32
 2459 0170 40000000 		.4byte	.LVL38
 2460 0174 0100     		.2byte	0x1
 2461 0176 56       		.byte	0x56
 2462 0177 00000000 		.4byte	0
 2463 017b 00000000 		.4byte	0
 2464              	.LLST13:
 2465 017f 38000000 		.4byte	.LVL34
 2466 0183 40000000 		.4byte	.LVL36
 2467 0187 0100     		.2byte	0x1
 2468 0189 54       		.byte	0x54
 2469 018a 40000000 		.4byte	.LVL36
 2470 018e 48000000 		.4byte	.LFE13
 2471 0192 0100     		.2byte	0x1
 2472 0194 50       		.byte	0x50
 2473 0195 00000000 		.4byte	0
 2474 0199 00000000 		.4byte	0
 2475              	.LLST14:
 2476 019d 14000000 		.4byte	.LVL29
 2477 01a1 40000000 		.4byte	.LVL37
 2478 01a5 0100     		.2byte	0x1
 2479 01a7 55       		.byte	0x55
 2480 01a8 40000000 		.4byte	.LVL37
 2481 01ac 48000000 		.4byte	.LFE13
 2482 01b0 0400     		.2byte	0x4
 2483 01b2 F3       		.byte	0xf3
 2484 01b3 01       		.uleb128 0x1
 2485 01b4 50       		.byte	0x50
 2486 01b5 9F       		.byte	0x9f
 2487 01b6 00000000 		.4byte	0
 2488 01ba 00000000 		.4byte	0
 2489              	.LLST15:
 2490 01be 14000000 		.4byte	.LVL29
 2491 01c2 38000000 		.4byte	.LVL34
 2492 01c6 0100     		.2byte	0x1
 2493 01c8 54       		.byte	0x54
 2494 01c9 00000000 		.4byte	0
 2495 01cd 00000000 		.4byte	0
 2496              	.LLST16:
 2497 01d1 14000000 		.4byte	.LVL29
 2498 01d5 18000000 		.4byte	.LVL30
 2499 01d9 0100     		.2byte	0x1
 2500 01db 55       		.byte	0x55
 2501 01dc 18000000 		.4byte	.LVL30
ARM GAS  /var/folders/qh/xwg3v3kj02qbxczjpdb8lzfr0000gn/T//ccg1ZAqC.s 			page 45


 2502 01e0 35000000 		.4byte	.LVL33-1
 2503 01e4 0100     		.2byte	0x1
 2504 01e6 53       		.byte	0x53
 2505 01e7 00000000 		.4byte	0
 2506 01eb 00000000 		.4byte	0
 2507              	.LLST17:
 2508 01ef 00000000 		.4byte	.LVL39
 2509 01f3 09000000 		.4byte	.LVL40-1
 2510 01f7 0100     		.2byte	0x1
 2511 01f9 50       		.byte	0x50
 2512 01fa 09000000 		.4byte	.LVL40-1
 2513 01fe 12000000 		.4byte	.LVL42
 2514 0202 0100     		.2byte	0x1
 2515 0204 54       		.byte	0x54
 2516 0205 12000000 		.4byte	.LVL42
 2517 0209 1C000000 		.4byte	.LFE12
 2518 020d 0400     		.2byte	0x4
 2519 020f F3       		.byte	0xf3
 2520 0210 01       		.uleb128 0x1
 2521 0211 50       		.byte	0x50
 2522 0212 9F       		.byte	0x9f
 2523 0213 00000000 		.4byte	0
 2524 0217 00000000 		.4byte	0
 2525              	.LLST18:
 2526 021b 12000000 		.4byte	.LVL42
 2527 021f 15000000 		.4byte	.LVL43-1
 2528 0223 0100     		.2byte	0x1
 2529 0225 50       		.byte	0x50
 2530 0226 15000000 		.4byte	.LVL43-1
 2531 022a 1A000000 		.4byte	.LVL44
 2532 022e 0100     		.2byte	0x1
 2533 0230 54       		.byte	0x54
 2534 0231 1A000000 		.4byte	.LVL44
 2535 0235 1C000000 		.4byte	.LFE12
 2536 0239 0100     		.2byte	0x1
 2537 023b 50       		.byte	0x50
 2538 023c 00000000 		.4byte	0
 2539 0240 00000000 		.4byte	0
 2540              	.LLST19:
 2541 0244 00000000 		.4byte	.LVL45
 2542 0248 09000000 		.4byte	.LVL46-1
 2543 024c 0100     		.2byte	0x1
 2544 024e 50       		.byte	0x50
 2545 024f 09000000 		.4byte	.LVL46-1
 2546 0253 2A000000 		.4byte	.LVL52
 2547 0257 0100     		.2byte	0x1
 2548 0259 54       		.byte	0x54
 2549 025a 2A000000 		.4byte	.LVL52
 2550 025e 39000000 		.4byte	.LVL53-1
 2551 0262 0200     		.2byte	0x2
 2552 0264 72       		.byte	0x72
 2553 0265 24       		.sleb128 36
 2554 0266 39000000 		.4byte	.LVL53-1
 2555 026a 50000000 		.4byte	.LFE15
 2556 026e 0400     		.2byte	0x4
 2557 0270 F3       		.byte	0xf3
 2558 0271 01       		.uleb128 0x1
ARM GAS  /var/folders/qh/xwg3v3kj02qbxczjpdb8lzfr0000gn/T//ccg1ZAqC.s 			page 46


 2559 0272 50       		.byte	0x50
 2560 0273 9F       		.byte	0x9f
 2561 0274 00000000 		.4byte	0
 2562 0278 00000000 		.4byte	0
 2563              	.LLST20:
 2564 027c 00000000 		.4byte	.LVL45
 2565 0280 09000000 		.4byte	.LVL46-1
 2566 0284 0100     		.2byte	0x1
 2567 0286 51       		.byte	0x51
 2568 0287 09000000 		.4byte	.LVL46-1
 2569 028b 48000000 		.4byte	.LVL58
 2570 028f 0100     		.2byte	0x1
 2571 0291 55       		.byte	0x55
 2572 0292 48000000 		.4byte	.LVL58
 2573 0296 50000000 		.4byte	.LFE15
 2574 029a 0400     		.2byte	0x4
 2575 029c F3       		.byte	0xf3
 2576 029d 01       		.uleb128 0x1
 2577 029e 51       		.byte	0x51
 2578 029f 9F       		.byte	0x9f
 2579 02a0 00000000 		.4byte	0
 2580 02a4 00000000 		.4byte	0
 2581              	.LLST21:
 2582 02a8 12000000 		.4byte	.LVL48
 2583 02ac 1A000000 		.4byte	.LVL50
 2584 02b0 0100     		.2byte	0x1
 2585 02b2 50       		.byte	0x50
 2586 02b3 1A000000 		.4byte	.LVL50
 2587 02b7 48000000 		.4byte	.LVL59
 2588 02bb 0100     		.2byte	0x1
 2589 02bd 56       		.byte	0x56
 2590 02be 00000000 		.4byte	0
 2591 02c2 00000000 		.4byte	0
 2592              	.LLST22:
 2593 02c6 3C000000 		.4byte	.LVL54
 2594 02ca 40000000 		.4byte	.LVL55
 2595 02ce 0100     		.2byte	0x1
 2596 02d0 50       		.byte	0x50
 2597 02d1 40000000 		.4byte	.LVL55
 2598 02d5 48000000 		.4byte	.LVL57
 2599 02d9 0100     		.2byte	0x1
 2600 02db 54       		.byte	0x54
 2601 02dc 48000000 		.4byte	.LVL57
 2602 02e0 50000000 		.4byte	.LFE15
 2603 02e4 0100     		.2byte	0x1
 2604 02e6 50       		.byte	0x50
 2605 02e7 00000000 		.4byte	0
 2606 02eb 00000000 		.4byte	0
 2607              	.LLST23:
 2608 02ef 18000000 		.4byte	.LVL49
 2609 02f3 2A000000 		.4byte	.LVL52
 2610 02f7 0100     		.2byte	0x1
 2611 02f9 54       		.byte	0x54
 2612 02fa 2A000000 		.4byte	.LVL52
 2613 02fe 39000000 		.4byte	.LVL53-1
 2614 0302 0200     		.2byte	0x2
 2615 0304 72       		.byte	0x72
ARM GAS  /var/folders/qh/xwg3v3kj02qbxczjpdb8lzfr0000gn/T//ccg1ZAqC.s 			page 47


 2616 0305 24       		.sleb128 36
 2617 0306 39000000 		.4byte	.LVL53-1
 2618 030a 50000000 		.4byte	.LFE15
 2619 030e 0400     		.2byte	0x4
 2620 0310 F3       		.byte	0xf3
 2621 0311 01       		.uleb128 0x1
 2622 0312 50       		.byte	0x50
 2623 0313 9F       		.byte	0x9f
 2624 0314 00000000 		.4byte	0
 2625 0318 00000000 		.4byte	0
 2626              	.LLST24:
 2627 031c 18000000 		.4byte	.LVL49
 2628 0320 39000000 		.4byte	.LVL53-1
 2629 0324 0100     		.2byte	0x1
 2630 0326 52       		.byte	0x52
 2631 0327 00000000 		.4byte	0
 2632 032b 00000000 		.4byte	0
 2633              	.LLST25:
 2634 032f 18000000 		.4byte	.LVL49
 2635 0333 1A000000 		.4byte	.LVL50
 2636 0337 0100     		.2byte	0x1
 2637 0339 54       		.byte	0x54
 2638 033a 1A000000 		.4byte	.LVL50
 2639 033e 39000000 		.4byte	.LVL53-1
 2640 0342 0100     		.2byte	0x1
 2641 0344 53       		.byte	0x53
 2642 0345 00000000 		.4byte	0
 2643 0349 00000000 		.4byte	0
 2644              	.LLST26:
 2645 034d 00000000 		.4byte	.LVL60
 2646 0351 0B000000 		.4byte	.LVL61-1
 2647 0355 0100     		.2byte	0x1
 2648 0357 50       		.byte	0x50
 2649 0358 0B000000 		.4byte	.LVL61-1
 2650 035c 1E000000 		.4byte	.LVL66
 2651 0360 0100     		.2byte	0x1
 2652 0362 55       		.byte	0x55
 2653 0363 1E000000 		.4byte	.LVL66
 2654 0367 20000000 		.4byte	.LFE14
 2655 036b 0400     		.2byte	0x4
 2656 036d F3       		.byte	0xf3
 2657 036e 01       		.uleb128 0x1
 2658 036f 50       		.byte	0x50
 2659 0370 9F       		.byte	0x9f
 2660 0371 00000000 		.4byte	0
 2661 0375 00000000 		.4byte	0
 2662              	.LLST27:
 2663 0379 00000000 		.4byte	.LVL60
 2664 037d 0B000000 		.4byte	.LVL61-1
 2665 0381 0100     		.2byte	0x1
 2666 0383 51       		.byte	0x51
 2667 0384 0B000000 		.4byte	.LVL61-1
 2668 0388 16000000 		.4byte	.LVL63
 2669 038c 0100     		.2byte	0x1
 2670 038e 54       		.byte	0x54
 2671 038f 16000000 		.4byte	.LVL63
 2672 0393 20000000 		.4byte	.LFE14
ARM GAS  /var/folders/qh/xwg3v3kj02qbxczjpdb8lzfr0000gn/T//ccg1ZAqC.s 			page 48


 2673 0397 0400     		.2byte	0x4
 2674 0399 F3       		.byte	0xf3
 2675 039a 01       		.uleb128 0x1
 2676 039b 51       		.byte	0x51
 2677 039c 9F       		.byte	0x9f
 2678 039d 00000000 		.4byte	0
 2679 03a1 00000000 		.4byte	0
 2680              	.LLST28:
 2681 03a5 16000000 		.4byte	.LVL63
 2682 03a9 19000000 		.4byte	.LVL64-1
 2683 03ad 0100     		.2byte	0x1
 2684 03af 50       		.byte	0x50
 2685 03b0 19000000 		.4byte	.LVL64-1
 2686 03b4 1E000000 		.4byte	.LVL65
 2687 03b8 0100     		.2byte	0x1
 2688 03ba 54       		.byte	0x54
 2689 03bb 1E000000 		.4byte	.LVL65
 2690 03bf 20000000 		.4byte	.LFE14
 2691 03c3 0100     		.2byte	0x1
 2692 03c5 50       		.byte	0x50
 2693 03c6 00000000 		.4byte	0
 2694 03ca 00000000 		.4byte	0
 2695              		.section	.debug_aranges,"",%progbits
 2696 0000 5C000000 		.4byte	0x5c
 2697 0004 0200     		.2byte	0x2
 2698 0006 00000000 		.4byte	.Ldebug_info0
 2699 000a 04       		.byte	0x4
 2700 000b 00       		.byte	0
 2701 000c 0000     		.2byte	0
 2702 000e 0000     		.2byte	0
 2703 0010 00000000 		.4byte	.LFB7
 2704 0014 06000000 		.4byte	.LFE7-.LFB7
 2705 0018 00000000 		.4byte	.LFB8
 2706 001c 24000000 		.4byte	.LFE8-.LFB8
 2707 0020 00000000 		.4byte	.LFB9
 2708 0024 1E000000 		.4byte	.LFE9-.LFB9
 2709 0028 00000000 		.4byte	.LFB11
 2710 002c 26000000 		.4byte	.LFE11-.LFB11
 2711 0030 00000000 		.4byte	.LFB10
 2712 0034 1C000000 		.4byte	.LFE10-.LFB10
 2713 0038 00000000 		.4byte	.LFB13
 2714 003c 48000000 		.4byte	.LFE13-.LFB13
 2715 0040 00000000 		.4byte	.LFB12
 2716 0044 1C000000 		.4byte	.LFE12-.LFB12
 2717 0048 00000000 		.4byte	.LFB15
 2718 004c 50000000 		.4byte	.LFE15-.LFB15
 2719 0050 00000000 		.4byte	.LFB14
 2720 0054 20000000 		.4byte	.LFE14-.LFB14
 2721 0058 00000000 		.4byte	0
 2722 005c 00000000 		.4byte	0
 2723              		.section	.debug_ranges,"",%progbits
 2724              	.Ldebug_ranges0:
 2725 0000 10000000 		.4byte	.LBB12
 2726 0004 12000000 		.4byte	.LBE12
 2727 0008 14000000 		.4byte	.LBB15
 2728 000c 18000000 		.4byte	.LBE15
 2729 0010 00000000 		.4byte	0
ARM GAS  /var/folders/qh/xwg3v3kj02qbxczjpdb8lzfr0000gn/T//ccg1ZAqC.s 			page 49


 2730 0014 00000000 		.4byte	0
 2731 0018 14000000 		.4byte	.LBB20
 2732 001c 2C000000 		.4byte	.LBE20
 2733 0020 2E000000 		.4byte	.LBB23
 2734 0024 32000000 		.4byte	.LBE23
 2735 0028 00000000 		.4byte	0
 2736 002c 00000000 		.4byte	0
 2737 0030 14000000 		.4byte	.LBB24
 2738 0034 16000000 		.4byte	.LBE24
 2739 0038 1A000000 		.4byte	.LBB29
 2740 003c 2E000000 		.4byte	.LBE29
 2741 0040 30000000 		.4byte	.LBB30
 2742 0044 32000000 		.4byte	.LBE30
 2743 0048 34000000 		.4byte	.LBB31
 2744 004c 36000000 		.4byte	.LBE31
 2745 0050 00000000 		.4byte	0
 2746 0054 00000000 		.4byte	0
 2747 0058 00000000 		.4byte	.LFB7
 2748 005c 06000000 		.4byte	.LFE7
 2749 0060 00000000 		.4byte	.LFB8
 2750 0064 24000000 		.4byte	.LFE8
 2751 0068 00000000 		.4byte	.LFB9
 2752 006c 1E000000 		.4byte	.LFE9
 2753 0070 00000000 		.4byte	.LFB11
 2754 0074 26000000 		.4byte	.LFE11
 2755 0078 00000000 		.4byte	.LFB10
 2756 007c 1C000000 		.4byte	.LFE10
 2757 0080 00000000 		.4byte	.LFB13
 2758 0084 48000000 		.4byte	.LFE13
 2759 0088 00000000 		.4byte	.LFB12
 2760 008c 1C000000 		.4byte	.LFE12
 2761 0090 00000000 		.4byte	.LFB15
 2762 0094 50000000 		.4byte	.LFE15
 2763 0098 00000000 		.4byte	.LFB14
 2764 009c 20000000 		.4byte	.LFE14
 2765 00a0 00000000 		.4byte	0
 2766 00a4 00000000 		.4byte	0
 2767              		.section	.debug_line,"",%progbits
 2768              	.Ldebug_line0:
 2769 0000 75020000 		.section	.debug_str,"MS",%progbits,1
 2769      02002E01 
 2769      00000201 
 2769      FB0E0D00 
 2769      01010101 
 2770              	.LASF36:
 2771 0000 705F6D73 		.ascii	"p_msg\000"
 2771      6700
 2772              	.LASF65:
 2773 0006 6368436F 		.ascii	"chCondInit\000"
 2773      6E64496E 
 2773      697400
 2774              	.LASF60:
 2775 0011 7264796D 		.ascii	"rdymsg\000"
 2775      736700
 2776              	.LASF75:
 2777 0018 6462675F 		.ascii	"dbg_check_lock\000"
 2777      63686563 
ARM GAS  /var/folders/qh/xwg3v3kj02qbxczjpdb8lzfr0000gn/T//ccg1ZAqC.s 			page 50


 2777      6B5F6C6F 
 2777      636B00
 2778              	.LASF11:
 2779 0027 6C6F6E67 		.ascii	"long long unsigned int\000"
 2779      206C6F6E 
 2779      6720756E 
 2779      7369676E 
 2779      65642069 
 2780              	.LASF61:
 2781 003e 65786974 		.ascii	"exitcode\000"
 2781      636F6465 
 2781      00
 2782              	.LASF68:
 2783 0047 6368436F 		.ascii	"chCondBroadcastI\000"
 2783      6E644272 
 2783      6F616463 
 2783      61737449 
 2783      00
 2784              	.LASF24:
 2785 0058 705F7072 		.ascii	"p_prio\000"
 2785      696F00
 2786              	.LASF10:
 2787 005f 6C6F6E67 		.ascii	"long long int\000"
 2787      206C6F6E 
 2787      6720696E 
 2787      7400
 2788              	.LASF1:
 2789 006d 7369676E 		.ascii	"signed char\000"
 2789      65642063 
 2789      68617200 
 2790              	.LASF40:
 2791 0079 705F6D70 		.ascii	"p_mpool\000"
 2791      6F6F6C00 
 2792              	.LASF55:
 2793 0081 6D5F7175 		.ascii	"m_queue\000"
 2793      65756500 
 2794              	.LASF16:
 2795 0089 74736C69 		.ascii	"tslices_t\000"
 2795      6365735F 
 2795      7400
 2796              	.LASF58:
 2797 0093 436F6E64 		.ascii	"CondVar\000"
 2797      56617200 
 2798              	.LASF7:
 2799 009b 6C6F6E67 		.ascii	"long int\000"
 2799      20696E74 
 2799      00
 2800              	.LASF14:
 2801 00a4 74737461 		.ascii	"tstate_t\000"
 2801      74655F74 
 2801      00
 2802              	.LASF82:
 2803 00ad 63684D74 		.ascii	"chMtxLockS\000"
 2803      784C6F63 
 2803      6B5300
 2804              	.LASF26:
 2805 00b8 705F6E65 		.ascii	"p_newer\000"
ARM GAS  /var/folders/qh/xwg3v3kj02qbxczjpdb8lzfr0000gn/T//ccg1ZAqC.s 			page 51


 2805      77657200 
 2806              	.LASF78:
 2807 00c0 63685363 		.ascii	"chSchRescheduleS\000"
 2807      68526573 
 2807      63686564 
 2807      756C6553 
 2807      00
 2808              	.LASF50:
 2809 00d1 725F6E65 		.ascii	"r_newer\000"
 2809      77657200 
 2810              	.LASF43:
 2811 00d9 72656761 		.ascii	"regarm_t\000"
 2811      726D5F74 
 2811      00
 2812              	.LASF85:
 2813 00e2 2E2E2F2E 		.ascii	"../../os/kernel/src/chcond.c\000"
 2813      2E2F6F73 
 2813      2F6B6572 
 2813      6E656C2F 
 2813      7372632F 
 2814              	.LASF66:
 2815 00ff 6368436F 		.ascii	"chCondSignal\000"
 2815      6E645369 
 2815      676E616C 
 2815      00
 2816              	.LASF91:
 2817 010c 63684D74 		.ascii	"chMtxUnlockS\000"
 2817      78556E6C 
 2817      6F636B53 
 2817      00
 2818              	.LASF0:
 2819 0119 756E7369 		.ascii	"unsigned int\000"
 2819      676E6564 
 2819      20696E74 
 2819      00
 2820              	.LASF9:
 2821 0126 6C6F6E67 		.ascii	"long unsigned int\000"
 2821      20756E73 
 2821      69676E65 
 2821      6420696E 
 2821      7400
 2822              	.LASF86:
 2823 0138 2F557365 		.ascii	"/Users/John/Development/embedded/ChibiOS-RT/BluC/ST"
 2823      72732F4A 
 2823      6F686E2F 
 2823      44657665 
 2823      6C6F706D 
 2824 016b 4D333246 		.ascii	"M32F051\000"
 2824      30353100 
 2825              	.LASF45:
 2826 0173 636F6E74 		.ascii	"context\000"
 2826      65787400 
 2827              	.LASF4:
 2828 017b 73686F72 		.ascii	"short unsigned int\000"
 2828      7420756E 
 2828      7369676E 
 2828      65642069 
ARM GAS  /var/folders/qh/xwg3v3kj02qbxczjpdb8lzfr0000gn/T//ccg1ZAqC.s 			page 52


 2828      6E7400
 2829              	.LASF18:
 2830 018e 6D73675F 		.ascii	"msg_t\000"
 2830      7400
 2831              	.LASF88:
 2832 0194 7072696F 		.ascii	"prio_insert\000"
 2832      5F696E73 
 2832      65727400 
 2833              	.LASF77:
 2834 01a0 63684462 		.ascii	"chDbgCheckClassI\000"
 2834      67436865 
 2834      636B436C 
 2834      61737349 
 2834      00
 2835              	.LASF13:
 2836 01b1 746D6F64 		.ascii	"tmode_t\000"
 2836      655F7400 
 2837              	.LASF79:
 2838 01b9 63684462 		.ascii	"chDbgCheckClassS\000"
 2838      67436865 
 2838      636B436C 
 2838      61737353 
 2838      00
 2839              	.LASF42:
 2840 01ca 54687265 		.ascii	"ThreadsList\000"
 2840      6164734C 
 2840      69737400 
 2841              	.LASF19:
 2842 01d6 6576656E 		.ascii	"eventmask_t\000"
 2842      746D6173 
 2842      6B5F7400 
 2843              	.LASF54:
 2844 01e2 4D757465 		.ascii	"Mutex\000"
 2844      7800
 2845              	.LASF76:
 2846 01e8 6462675F 		.ascii	"dbg_check_unlock\000"
 2846      63686563 
 2846      6B5F756E 
 2846      6C6F636B 
 2846      00
 2847              	.LASF46:
 2848 01f9 73697A65 		.ascii	"sizetype\000"
 2848      74797065 
 2848      00
 2849              	.LASF72:
 2850 0202 6368436F 		.ascii	"chCondWaitTimeoutS\000"
 2850      6E645761 
 2850      69745469 
 2850      6D656F75 
 2850      745300
 2851              	.LASF84:
 2852 0215 474E5520 		.ascii	"GNU C 4.8.3 20131129 (release) [ARM/embedded-4_8-br"
 2852      4320342E 
 2852      382E3320 
 2852      32303133 
 2852      31313239 
 2853 0248 616E6368 		.ascii	"anch revision 205641] -mcpu=cortex-m0 -mno-thumb-in"
ARM GAS  /var/folders/qh/xwg3v3kj02qbxczjpdb8lzfr0000gn/T//ccg1ZAqC.s 			page 53


 2853      20726576 
 2853      6973696F 
 2853      6E203230 
 2853      35363431 
 2854 027b 74657277 		.ascii	"terwork -mthumb -ggdb -O2 -fomit-frame-pointer -fal"
 2854      6F726B20 
 2854      2D6D7468 
 2854      756D6220 
 2854      2D676764 
 2855 02ae 69676E2D 		.ascii	"ign-functions=16 -ffunction-sections -fdata-section"
 2855      66756E63 
 2855      74696F6E 
 2855      733D3136 
 2855      202D6666 
 2856 02e1 73202D66 		.ascii	"s -fno-common\000"
 2856      6E6F2D63 
 2856      6F6D6D6F 
 2856      6E00
 2857              	.LASF27:
 2858 02ef 705F6F6C 		.ascii	"p_older\000"
 2858      64657200 
 2859              	.LASF49:
 2860 02f7 725F6374 		.ascii	"r_ctx\000"
 2860      7800
 2861              	.LASF41:
 2862 02fd 54687265 		.ascii	"ThreadsQueue\000"
 2862      61647351 
 2862      75657565 
 2862      00
 2863              	.LASF73:
 2864 030a 74696D65 		.ascii	"time\000"
 2864      00
 2865              	.LASF52:
 2866 030f 725F6375 		.ascii	"r_current\000"
 2866      7272656E 
 2866      7400
 2867              	.LASF51:
 2868 0319 725F6F6C 		.ascii	"r_older\000"
 2868      64657200 
 2869              	.LASF69:
 2870 0321 6368436F 		.ascii	"chCondBroadcast\000"
 2870      6E644272 
 2870      6F616463 
 2870      61737400 
 2871              	.LASF15:
 2872 0331 74726566 		.ascii	"trefs_t\000"
 2872      735F7400 
 2873              	.LASF23:
 2874 0339 705F7072 		.ascii	"p_prev\000"
 2874      657600
 2875              	.LASF17:
 2876 0340 74707269 		.ascii	"tprio_t\000"
 2876      6F5F7400 
 2877              	.LASF67:
 2878 0348 6368436F 		.ascii	"chCondSignalI\000"
 2878      6E645369 
 2878      676E616C 
ARM GAS  /var/folders/qh/xwg3v3kj02qbxczjpdb8lzfr0000gn/T//ccg1ZAqC.s 			page 54


 2878      4900
 2879              	.LASF12:
 2880 0356 5F426F6F 		.ascii	"_Bool\000"
 2880      6C00
 2881              	.LASF6:
 2882 035c 696E7433 		.ascii	"int32_t\000"
 2882      325F7400 
 2883              	.LASF2:
 2884 0364 756E7369 		.ascii	"unsigned char\000"
 2884      676E6564 
 2884      20636861 
 2884      7200
 2885              	.LASF38:
 2886 0372 705F6D74 		.ascii	"p_mtxlist\000"
 2886      786C6973 
 2886      7400
 2887              	.LASF3:
 2888 037c 73686F72 		.ascii	"short int\000"
 2888      7420696E 
 2888      7400
 2889              	.LASF29:
 2890 0386 705F7374 		.ascii	"p_state\000"
 2890      61746500 
 2891              	.LASF32:
 2892 038e 705F7072 		.ascii	"p_preempt\000"
 2892      65656D70 
 2892      7400
 2893              	.LASF48:
 2894 0398 725F7072 		.ascii	"r_prio\000"
 2894      696F00
 2895              	.LASF63:
 2896 039f 65776D61 		.ascii	"ewmask\000"
 2896      736B00
 2897              	.LASF22:
 2898 03a6 705F6E65 		.ascii	"p_next\000"
 2898      787400
 2899              	.LASF30:
 2900 03ad 705F666C 		.ascii	"p_flags\000"
 2900      61677300 
 2901              	.LASF21:
 2902 03b5 54687265 		.ascii	"Thread\000"
 2902      616400
 2903              	.LASF59:
 2904 03bc 635F7175 		.ascii	"c_queue\000"
 2904      65756500 
 2905              	.LASF81:
 2906 03c4 63685363 		.ascii	"chSchGoSleepS\000"
 2906      68476F53 
 2906      6C656570 
 2906      5300
 2907              	.LASF37:
 2908 03d2 705F6570 		.ascii	"p_epending\000"
 2908      656E6469 
 2908      6E6700
 2909              	.LASF8:
 2910 03dd 75696E74 		.ascii	"uint32_t\000"
 2910      33325F74 
ARM GAS  /var/folders/qh/xwg3v3kj02qbxczjpdb8lzfr0000gn/T//ccg1ZAqC.s 			page 55


 2910      00
 2911              	.LASF47:
 2912 03e6 725F7175 		.ascii	"r_queue\000"
 2912      65756500 
 2913              	.LASF90:
 2914 03ee 63685363 		.ascii	"chSchReadyI\000"
 2914      68526561 
 2914      64794900 
 2915              	.LASF64:
 2916 03fa 63686172 		.ascii	"char\000"
 2916      00
 2917              	.LASF87:
 2918 03ff 6669666F 		.ascii	"fifo_remove\000"
 2918      5F72656D 
 2918      6F766500 
 2919              	.LASF70:
 2920 040b 6368436F 		.ascii	"chCondWaitS\000"
 2920      6E645761 
 2920      69745300 
 2921              	.LASF57:
 2922 0417 6D5F6E65 		.ascii	"m_next\000"
 2922      787400
 2923              	.LASF20:
 2924 041e 73797374 		.ascii	"systime_t\000"
 2924      696D655F 
 2924      7400
 2925              	.LASF39:
 2926 0428 705F7265 		.ascii	"p_realprio\000"
 2926      616C7072 
 2926      696F00
 2927              	.LASF71:
 2928 0433 6368436F 		.ascii	"chCondWait\000"
 2928      6E645761 
 2928      697400
 2929              	.LASF33:
 2930 043e 705F7469 		.ascii	"p_time\000"
 2930      6D6500
 2931              	.LASF44:
 2932 0445 696E7463 		.ascii	"intctx\000"
 2932      747800
 2933              	.LASF35:
 2934 044c 705F6D73 		.ascii	"p_msgqueue\000"
 2934      67717565 
 2934      756500
 2935              	.LASF80:
 2936 0457 63685363 		.ascii	"chSchWakeupS\000"
 2936      6857616B 
 2936      65757053 
 2936      00
 2937              	.LASF31:
 2938 0464 705F7265 		.ascii	"p_refs\000"
 2938      667300
 2939              	.LASF53:
 2940 046b 52656164 		.ascii	"ReadyList\000"
 2940      794C6973 
 2940      7400
 2941              	.LASF89:
ARM GAS  /var/folders/qh/xwg3v3kj02qbxczjpdb8lzfr0000gn/T//ccg1ZAqC.s 			page 56


 2942 0475 726C6973 		.ascii	"rlist\000"
 2942      7400
 2943              	.LASF5:
 2944 047b 75696E74 		.ascii	"uint8_t\000"
 2944      385F7400 
 2945              	.LASF62:
 2946 0483 77746F62 		.ascii	"wtobjp\000"
 2946      6A7000
 2947              	.LASF28:
 2948 048a 705F6E61 		.ascii	"p_name\000"
 2948      6D6500
 2949              	.LASF74:
 2950 0491 6368436F 		.ascii	"chCondWaitTimeout\000"
 2950      6E645761 
 2950      69745469 
 2950      6D656F75 
 2950      7400
 2951              	.LASF83:
 2952 04a3 63685363 		.ascii	"chSchGoSleepTimeoutS\000"
 2952      68476F53 
 2952      6C656570 
 2952      54696D65 
 2952      6F757453 
 2953              	.LASF56:
 2954 04b8 6D5F6F77 		.ascii	"m_owner\000"
 2954      6E657200 
 2955              	.LASF25:
 2956 04c0 705F6374 		.ascii	"p_ctx\000"
 2956      7800
 2957              	.LASF34:
 2958 04c6 705F7761 		.ascii	"p_waiting\000"
 2958      6974696E 
 2958      6700
 2959              		.ident	"GCC: (GNU Tools for ARM Embedded Processors) 4.8.3 20131129 (release) [ARM/embedded-4_8-br
ARM GAS  /var/folders/qh/xwg3v3kj02qbxczjpdb8lzfr0000gn/T//ccg1ZAqC.s 			page 57


DEFINED SYMBOLS
                            *ABS*:0000000000000000 chcond.c
/var/folders/qh/xwg3v3kj02qbxczjpdb8lzfr0000gn/T//ccg1ZAqC.s:18     .text.chCondInit:0000000000000000 $t
/var/folders/qh/xwg3v3kj02qbxczjpdb8lzfr0000gn/T//ccg1ZAqC.s:24     .text.chCondInit:0000000000000000 chCondInit
/var/folders/qh/xwg3v3kj02qbxczjpdb8lzfr0000gn/T//ccg1ZAqC.s:40     .text.chCondSignal:0000000000000000 $t
/var/folders/qh/xwg3v3kj02qbxczjpdb8lzfr0000gn/T//ccg1ZAqC.s:46     .text.chCondSignal:0000000000000000 chCondSignal
/var/folders/qh/xwg3v3kj02qbxczjpdb8lzfr0000gn/T//ccg1ZAqC.s:104    .text.chCondSignalI:0000000000000000 $t
/var/folders/qh/xwg3v3kj02qbxczjpdb8lzfr0000gn/T//ccg1ZAqC.s:110    .text.chCondSignalI:0000000000000000 chCondSignalI
/var/folders/qh/xwg3v3kj02qbxczjpdb8lzfr0000gn/T//ccg1ZAqC.s:152    .text.chCondBroadcastI:0000000000000000 $t
/var/folders/qh/xwg3v3kj02qbxczjpdb8lzfr0000gn/T//ccg1ZAqC.s:158    .text.chCondBroadcastI:0000000000000000 chCondBroadcastI
/var/folders/qh/xwg3v3kj02qbxczjpdb8lzfr0000gn/T//ccg1ZAqC.s:209    .text.chCondBroadcast:0000000000000000 $t
/var/folders/qh/xwg3v3kj02qbxczjpdb8lzfr0000gn/T//ccg1ZAqC.s:215    .text.chCondBroadcast:0000000000000000 chCondBroadcast
/var/folders/qh/xwg3v3kj02qbxczjpdb8lzfr0000gn/T//ccg1ZAqC.s:255    .text.chCondWaitS:0000000000000000 $t
/var/folders/qh/xwg3v3kj02qbxczjpdb8lzfr0000gn/T//ccg1ZAqC.s:261    .text.chCondWaitS:0000000000000000 chCondWaitS
/var/folders/qh/xwg3v3kj02qbxczjpdb8lzfr0000gn/T//ccg1ZAqC.s:349    .text.chCondWaitS:0000000000000044 $d
/var/folders/qh/xwg3v3kj02qbxczjpdb8lzfr0000gn/T//ccg1ZAqC.s:354    .text.chCondWait:0000000000000000 $t
/var/folders/qh/xwg3v3kj02qbxczjpdb8lzfr0000gn/T//ccg1ZAqC.s:360    .text.chCondWait:0000000000000000 chCondWait
/var/folders/qh/xwg3v3kj02qbxczjpdb8lzfr0000gn/T//ccg1ZAqC.s:400    .text.chCondWaitTimeoutS:0000000000000000 $t
/var/folders/qh/xwg3v3kj02qbxczjpdb8lzfr0000gn/T//ccg1ZAqC.s:406    .text.chCondWaitTimeoutS:0000000000000000 chCondWaitTimeoutS
/var/folders/qh/xwg3v3kj02qbxczjpdb8lzfr0000gn/T//ccg1ZAqC.s:509    .text.chCondWaitTimeoutS:000000000000004c $d
/var/folders/qh/xwg3v3kj02qbxczjpdb8lzfr0000gn/T//ccg1ZAqC.s:514    .text.chCondWaitTimeout:0000000000000000 $t
/var/folders/qh/xwg3v3kj02qbxczjpdb8lzfr0000gn/T//ccg1ZAqC.s:520    .text.chCondWaitTimeout:0000000000000000 chCondWaitTimeout
                     .debug_frame:0000000000000010 $d
/var/folders/qh/xwg3v3kj02qbxczjpdb8lzfr0000gn/T//ccg1ZAqC.s:353    .text.chCondWaitS:0000000000000048 $t

UNDEFINED SYMBOLS
dbg_check_lock
chSchWakeupS
dbg_check_unlock
chDbgCheckClassI
chSchReadyI
chSchRescheduleS
chDbgCheckClassS
chMtxUnlockS
chSchGoSleepS
chMtxLockS
rlist
chSchGoSleepTimeoutS
