ARM GAS  /var/folders/qh/xwg3v3kj02qbxczjpdb8lzfr0000gn/T//ccg1ZAqC.s 			page 1


   1              		.cpu cortex-m0
   2              		.fpu softvfp
   3              		.eabi_attribute 20, 1
   4              		.eabi_attribute 21, 1
   5              		.eabi_attribute 23, 3
   6              		.eabi_attribute 24, 1
   7              		.eabi_attribute 25, 1
   8              		.eabi_attribute 26, 1
   9              		.eabi_attribute 30, 2
  10              		.eabi_attribute 34, 0
  11              		.eabi_attribute 18, 4
  12              		.code	16
  13              		.file	"chcond.c"
  14              		.text
  15              	.Ltext0:
  16              		.cfi_sections	.debug_frame
  17              		.section	.text.chCondInit,"ax",%progbits
  18              		.align	2
  19              		.p2align 4,,15
  20              		.global	chCondInit
  21              		.code	16
  22              		.thumb_func
  23              		.type	chCondInit, %function
  24              	chCondInit:
  25              	.LFB7:
  26              		.file 1 "../../os/kernel/src/chcond.c"
  27              		.loc 1 52 0
  28              		.cfi_startproc
  29              	.LVL0:
  30              		.loc 1 56 0
  31 0000 4060     		str	r0, [r0, #4]
  32 0002 0060     		str	r0, [r0]
  33              		.loc 1 57 0
  34              		@ sp needed
  35 0004 7047     		bx	lr
  36              		.cfi_endproc
  37              	.LFE7:
  38              		.size	chCondInit, .-chCondInit
  39 0006 C046C046 		.section	.text.chCondSignal,"ax",%progbits
  39      C046C046 
  39      C046
  40              		.align	2
  41              		.p2align 4,,15
  42              		.global	chCondSignal
  43              		.code	16
  44              		.thumb_func
  45              		.type	chCondSignal, %function
  46              	chCondSignal:
  47              	.LFB8:
  48              		.loc 1 66 0
  49              		.cfi_startproc
  50              	.LVL1:
  51 0000 10B5     		push	{r4, lr}
  52              		.cfi_def_cfa_offset 8
  53              		.cfi_offset 4, -8
  54              		.cfi_offset 14, -4
  55              		.loc 1 66 0
ARM GAS  /var/folders/qh/xwg3v3kj02qbxczjpdb8lzfr0000gn/T//ccg1ZAqC.s 			page 2


  56 0002 041C     		mov	r4, r0
  57              		.loc 1 70 0
  58              	@ 70 "../../os/kernel/src/chcond.c" 1
  59 0004 72B6     		cpsid   i
  60              	@ 0 "" 2
  61              		.code	16
  62 0006 FFF7FEFF 		bl	dbg_check_lock
  63              	.LVL2:
  64              		.loc 1 71 0
  65 000a 2068     		ldr	r0, [r4]
  66 000c A042     		cmp	r0, r4
  67 000e 05D0     		beq	.L3
  68              	.LVL3:
  69              	.LBB12:
  70              	.LBB13:
  71              		.file 2 "../../os/kernel/include/chinline.h"
  72              		.loc 2 55 0
  73 0010 0368     		ldr	r3, [r0]
  74              	.LBE13:
  75              	.LBE12:
  76              		.loc 1 72 0
  77 0012 0021     		mov	r1, #0
  78              	.LBB15:
  79              	.LBB14:
  80              		.loc 2 55 0
  81 0014 2360     		str	r3, [r4]
  82 0016 5C60     		str	r4, [r3, #4]
  83              	.LBE14:
  84              	.LBE15:
  85              		.loc 1 72 0
  86 0018 FFF7FEFF 		bl	chSchWakeupS
  87              	.LVL4:
  88              	.L3:
  89              		.loc 1 73 0
  90 001c FFF7FEFF 		bl	dbg_check_unlock
  91              	.LVL5:
  92              	@ 73 "../../os/kernel/src/chcond.c" 1
  93 0020 62B6     		cpsie   i
  94              	@ 0 "" 2
  95              		.loc 1 74 0
  96              		.code	16
  97              		@ sp needed
  98              	.LVL6:
  99 0022 10BD     		pop	{r4, pc}
 100              		.cfi_endproc
 101              	.LFE8:
 102              		.size	chCondSignal, .-chCondSignal
 103 0024 C046C046 		.section	.text.chCondSignalI,"ax",%progbits
 103      C046C046 
 103      C046C046 
 104              		.align	2
 105              		.p2align 4,,15
 106              		.global	chCondSignalI
 107              		.code	16
 108              		.thumb_func
 109              		.type	chCondSignalI, %function
 110              	chCondSignalI:
ARM GAS  /var/folders/qh/xwg3v3kj02qbxczjpdb8lzfr0000gn/T//ccg1ZAqC.s 			page 3


 111              	.LFB9:
 112              		.loc 1 87 0
 113              		.cfi_startproc
 114              	.LVL7:
 115 0000 10B5     		push	{r4, lr}
 116              		.cfi_def_cfa_offset 8
 117              		.cfi_offset 4, -8
 118              		.cfi_offset 14, -4
 119              		.loc 1 87 0
 120 0002 041C     		mov	r4, r0
 121              		.loc 1 89 0
 122 0004 FFF7FEFF 		bl	chDbgCheckClassI
 123              	.LVL8:
 124              		.loc 1 92 0
 125 0008 2068     		ldr	r0, [r4]
 126 000a A042     		cmp	r0, r4
 127 000c 06D0     		beq	.L5
 128              	.LVL9:
 129              	.LBB16:
 130              	.LBB17:
 131              		.loc 2 55 0
 132 000e 0368     		ldr	r3, [r0]
 133 0010 2360     		str	r3, [r4]
 134 0012 5C60     		str	r4, [r3, #4]
 135              	.LBE17:
 136              	.LBE16:
 137              		.loc 1 93 0
 138 0014 FFF7FEFF 		bl	chSchReadyI
 139              	.LVL10:
 140 0018 0023     		mov	r3, #0
 141 001a 4362     		str	r3, [r0, #36]
 142              	.LVL11:
 143              	.L5:
 144              		.loc 1 94 0
 145              		@ sp needed
 146              	.LVL12:
 147 001c 10BD     		pop	{r4, pc}
 148              		.cfi_endproc
 149              	.LFE9:
 150              		.size	chCondSignalI, .-chCondSignalI
 151 001e C046     		.section	.text.chCondBroadcastI,"ax",%progbits
 152              		.align	2
 153              		.p2align 4,,15
 154              		.global	chCondBroadcastI
 155              		.code	16
 156              		.thumb_func
 157              		.type	chCondBroadcastI, %function
 158              	chCondBroadcastI:
 159              	.LFB11:
 160              		.loc 1 122 0
 161              		.cfi_startproc
 162              	.LVL13:
 163 0000 38B5     		push	{r3, r4, r5, lr}
 164              		.cfi_def_cfa_offset 16
 165              		.cfi_offset 3, -16
 166              		.cfi_offset 4, -12
 167              		.cfi_offset 5, -8
ARM GAS  /var/folders/qh/xwg3v3kj02qbxczjpdb8lzfr0000gn/T//ccg1ZAqC.s 			page 4


 168              		.cfi_offset 14, -4
 169              		.loc 1 122 0
 170 0002 041C     		mov	r4, r0
 171              		.loc 1 124 0
 172 0004 FFF7FEFF 		bl	chDbgCheckClassI
 173              	.LVL14:
 174              		.loc 1 130 0
 175 0008 2068     		ldr	r0, [r4]
 176 000a A042     		cmp	r0, r4
 177 000c 0AD0     		beq	.L7
 178              		.loc 1 131 0
 179 000e 0225     		mov	r5, #2
 180 0010 6D42     		neg	r5, r5
 181              	.L11:
 182              	.LVL15:
 183              	.LBB18:
 184              	.LBB19:
 185              		.loc 2 55 0
 186 0012 0368     		ldr	r3, [r0]
 187 0014 2360     		str	r3, [r4]
 188 0016 5C60     		str	r4, [r3, #4]
 189              	.LBE19:
 190              	.LBE18:
 191              		.loc 1 131 0
 192 0018 FFF7FEFF 		bl	chSchReadyI
 193              	.LVL16:
 194 001c 4562     		str	r5, [r0, #36]
 195              		.loc 1 130 0
 196 001e 2068     		ldr	r0, [r4]
 197 0020 A042     		cmp	r0, r4
 198 0022 F6D1     		bne	.L11
 199              	.LVL17:
 200              	.L7:
 201              		.loc 1 132 0
 202              		@ sp needed
 203              	.LVL18:
 204 0024 38BD     		pop	{r3, r4, r5, pc}
 205              		.cfi_endproc
 206              	.LFE11:
 207              		.size	chCondBroadcastI, .-chCondBroadcastI
 208 0026 C046C046 		.section	.text.chCondBroadcast,"ax",%progbits
 208      C046C046 
 208      C046
 209              		.align	2
 210              		.p2align 4,,15
 211              		.global	chCondBroadcast
 212              		.code	16
 213              		.thumb_func
 214              		.type	chCondBroadcast, %function
 215              	chCondBroadcast:
 216              	.LFB10:
 217              		.loc 1 103 0
 218              		.cfi_startproc
 219              	.LVL19:
 220 0000 10B5     		push	{r4, lr}
 221              		.cfi_def_cfa_offset 8
 222              		.cfi_offset 4, -8
ARM GAS  /var/folders/qh/xwg3v3kj02qbxczjpdb8lzfr0000gn/T//ccg1ZAqC.s 			page 5


 223              		.cfi_offset 14, -4
 224              		.loc 1 103 0
 225 0002 041C     		mov	r4, r0
 226              		.loc 1 105 0
 227              	@ 105 "../../os/kernel/src/chcond.c" 1
 228 0004 72B6     		cpsid   i
 229              	@ 0 "" 2
 230              		.code	16
 231 0006 FFF7FEFF 		bl	dbg_check_lock
 232              	.LVL20:
 233              		.loc 1 106 0
 234 000a 201C     		mov	r0, r4
 235 000c FFF7FEFF 		bl	chCondBroadcastI
 236              	.LVL21:
 237              		.loc 1 107 0
 238 0010 FFF7FEFF 		bl	chSchRescheduleS
 239              	.LVL22:
 240              		.loc 1 108 0
 241 0014 FFF7FEFF 		bl	dbg_check_unlock
 242              	.LVL23:
 243              	@ 108 "../../os/kernel/src/chcond.c" 1
 244 0018 62B6     		cpsie   i
 245              	@ 0 "" 2
 246              		.loc 1 109 0
 247              		.code	16
 248              		@ sp needed
 249              	.LVL24:
 250 001a 10BD     		pop	{r4, pc}
 251              		.cfi_endproc
 252              	.LFE10:
 253              		.size	chCondBroadcast, .-chCondBroadcast
 254 001c C046C046 		.section	.text.chCondWaitS,"ax",%progbits
 255              		.align	2
 256              		.p2align 4,,15
 257              		.global	chCondWaitS
 258              		.code	16
 259              		.thumb_func
 260              		.type	chCondWaitS, %function
 261              	chCondWaitS:
 262              	.LFB13:
 263              		.loc 1 177 0
 264              		.cfi_startproc
 265              	.LVL25:
 266              		.loc 1 178 0
 267 0000 104B     		ldr	r3, .L19
 268              		.loc 1 177 0
 269 0002 70B5     		push	{r4, r5, r6, lr}
 270              		.cfi_def_cfa_offset 16
 271              		.cfi_offset 4, -16
 272              		.cfi_offset 5, -12
 273              		.cfi_offset 6, -8
 274              		.cfi_offset 14, -4
 275              		.loc 1 177 0
 276 0004 051C     		mov	r5, r0
 277              		.loc 1 178 0
 278 0006 9C69     		ldr	r4, [r3, #24]
 279              	.LVL26:
ARM GAS  /var/folders/qh/xwg3v3kj02qbxczjpdb8lzfr0000gn/T//ccg1ZAqC.s 			page 6


 280              		.loc 1 182 0
 281 0008 FFF7FEFF 		bl	chDbgCheckClassS
 282              	.LVL27:
 283              		.loc 1 188 0
 284 000c FFF7FEFF 		bl	chMtxUnlockS
 285              	.LVL28:
 286              		.loc 1 189 0
 287 0010 6562     		str	r5, [r4, #36]
 288              		.loc 1 188 0
 289 0012 061C     		mov	r6, r0
 290              	.LVL29:
 291              	.LBB20:
 292              	.LBB21:
 293              		.loc 2 36 0
 294 0014 2B1C     		mov	r3, r5
 295 0016 03E0     		b	.L16
 296              	.LVL30:
 297              	.L18:
 298              		.loc 2 39 0
 299 0018 9968     		ldr	r1, [r3, #8]
 300 001a A268     		ldr	r2, [r4, #8]
 301 001c 9142     		cmp	r1, r2
 302 001e 02D3     		bcc	.L15
 303              	.L16:
 304              		.loc 2 38 0
 305 0020 1B68     		ldr	r3, [r3]
 306              	.LVL31:
 307              		.loc 2 39 0
 308 0022 9D42     		cmp	r5, r3
 309 0024 F8D1     		bne	.L18
 310              	.L15:
 311              		.loc 2 41 0
 312 0026 5A68     		ldr	r2, [r3, #4]
 313              		.loc 2 40 0
 314 0028 2360     		str	r3, [r4]
 315              		.loc 2 41 0
 316 002a 6260     		str	r2, [r4, #4]
 317              	.LBE21:
 318              	.LBE20:
 319              		.loc 1 191 0
 320 002c 0520     		mov	r0, #5
 321              	.LVL32:
 322              	.LBB23:
 323              	.LBB22:
 324              		.loc 2 42 0
 325 002e 5C60     		str	r4, [r3, #4]
 326 0030 1460     		str	r4, [r2]
 327              	.LBE22:
 328              	.LBE23:
 329              		.loc 1 191 0
 330 0032 FFF7FEFF 		bl	chSchGoSleepS
 331              	.LVL33:
 332              		.loc 1 192 0
 333 0036 646A     		ldr	r4, [r4, #36]
 334              	.LVL34:
 335              		.loc 1 193 0
 336 0038 301C     		mov	r0, r6
ARM GAS  /var/folders/qh/xwg3v3kj02qbxczjpdb8lzfr0000gn/T//ccg1ZAqC.s 			page 7


 337 003a FFF7FEFF 		bl	chMtxLockS
 338              	.LVL35:
 339              		.loc 1 195 0
 340              		@ sp needed
 341 003e 201C     		mov	r0, r4
 342              	.LVL36:
 343              	.LVL37:
 344              	.LVL38:
 345 0040 70BD     		pop	{r4, r5, r6, pc}
 346              	.L20:
 347 0042 C046     		.align	2
 348              	.L19:
 349 0044 00000000 		.word	rlist
 350              		.cfi_endproc
 351              	.LFE13:
 352              		.size	chCondWaitS, .-chCondWaitS
 353 0048 C046C046 		.section	.text.chCondWait,"ax",%progbits
 353      C046C046 
 354              		.align	2
 355              		.p2align 4,,15
 356              		.global	chCondWait
 357              		.code	16
 358              		.thumb_func
 359              		.type	chCondWait, %function
 360              	chCondWait:
 361              	.LFB12:
 362              		.loc 1 151 0
 363              		.cfi_startproc
 364              	.LVL39:
 365 0000 10B5     		push	{r4, lr}
 366              		.cfi_def_cfa_offset 8
 367              		.cfi_offset 4, -8
 368              		.cfi_offset 14, -4
 369              		.loc 1 151 0
 370 0002 041C     		mov	r4, r0
 371              		.loc 1 154 0
 372              	@ 154 "../../os/kernel/src/chcond.c" 1
 373 0004 72B6     		cpsid   i
 374              	@ 0 "" 2
 375              		.code	16
 376 0006 FFF7FEFF 		bl	dbg_check_lock
 377              	.LVL40:
 378              		.loc 1 155 0
 379 000a 201C     		mov	r0, r4
 380 000c FFF7FEFF 		bl	chCondWaitS
 381              	.LVL41:
 382 0010 041C     		mov	r4, r0
 383              	.LVL42:
 384              		.loc 1 156 0
 385 0012 FFF7FEFF 		bl	dbg_check_unlock
 386              	.LVL43:
 387              	@ 156 "../../os/kernel/src/chcond.c" 1
 388 0016 62B6     		cpsie   i
 389              	@ 0 "" 2
 390              		.loc 1 158 0
 391              		.code	16
 392 0018 201C     		mov	r0, r4
ARM GAS  /var/folders/qh/xwg3v3kj02qbxczjpdb8lzfr0000gn/T//ccg1ZAqC.s 			page 8


 393              		@ sp needed
 394              	.LVL44:
 395 001a 10BD     		pop	{r4, pc}
 396              		.cfi_endproc
 397              	.LFE12:
 398              		.size	chCondWait, .-chCondWait
 399 001c C046C046 		.section	.text.chCondWaitTimeoutS,"ax",%progbits
 400              		.align	2
 401              		.p2align 4,,15
 402              		.global	chCondWaitTimeoutS
 403              		.code	16
 404              		.thumb_func
 405              		.type	chCondWaitTimeoutS, %function
 406              	chCondWaitTimeoutS:
 407              	.LFB15:
 408              		.loc 1 263 0
 409              		.cfi_startproc
 410              	.LVL45:
 411 0000 70B5     		push	{r4, r5, r6, lr}
 412              		.cfi_def_cfa_offset 16
 413              		.cfi_offset 4, -16
 414              		.cfi_offset 5, -12
 415              		.cfi_offset 6, -8
 416              		.cfi_offset 14, -4
 417              		.loc 1 263 0
 418 0002 041C     		mov	r4, r0
 419 0004 0D1C     		mov	r5, r1
 420              		.loc 1 267 0
 421 0006 FFF7FEFF 		bl	chDbgCheckClassS
 422              	.LVL46:
 423              		.loc 1 273 0
 424 000a FFF7FEFF 		bl	chMtxUnlockS
 425              	.LVL47:
 426              		.loc 1 274 0
 427 000e 0F4B     		ldr	r3, .L28
 428              		.loc 1 273 0
 429 0010 061C     		mov	r6, r0
 430              	.LVL48:
 431              		.loc 1 274 0
 432 0012 9A69     		ldr	r2, [r3, #24]
 433              	.LBB24:
 434              	.LBB25:
 435              		.loc 2 36 0
 436 0014 231C     		mov	r3, r4
 437              	.LBE25:
 438              	.LBE24:
 439              		.loc 1 274 0
 440 0016 5462     		str	r4, [r2, #36]
 441              	.LVL49:
 442 0018 03E0     		b	.L27
 443              	.LVL50:
 444              	.L23:
 445              	.LBB29:
 446              	.LBB26:
 447              		.loc 2 39 0
 448 001a 9968     		ldr	r1, [r3, #8]
 449 001c 9068     		ldr	r0, [r2, #8]
ARM GAS  /var/folders/qh/xwg3v3kj02qbxczjpdb8lzfr0000gn/T//ccg1ZAqC.s 			page 9


 450 001e 8142     		cmp	r1, r0
 451 0020 02D3     		bcc	.L26
 452              	.L27:
 453              		.loc 2 38 0
 454 0022 1B68     		ldr	r3, [r3]
 455              	.LVL51:
 456              		.loc 2 39 0
 457 0024 9C42     		cmp	r4, r3
 458 0026 F8D1     		bne	.L23
 459              	.L26:
 460              		.loc 2 41 0
 461 0028 5C68     		ldr	r4, [r3, #4]
 462              	.LVL52:
 463              		.loc 2 40 0
 464 002a 1360     		str	r3, [r2]
 465              		.loc 2 41 0
 466 002c 5460     		str	r4, [r2, #4]
 467              	.LBE26:
 468              	.LBE29:
 469              		.loc 1 276 0
 470 002e 0520     		mov	r0, #5
 471              	.LBB30:
 472              	.LBB27:
 473              		.loc 2 42 0
 474 0030 5A60     		str	r2, [r3, #4]
 475              	.LBE27:
 476              	.LBE30:
 477              		.loc 1 276 0
 478 0032 291C     		mov	r1, r5
 479              	.LBB31:
 480              	.LBB28:
 481              		.loc 2 42 0
 482 0034 2260     		str	r2, [r4]
 483              	.LBE28:
 484              	.LBE31:
 485              		.loc 1 276 0
 486 0036 FFF7FEFF 		bl	chSchGoSleepTimeoutS
 487              	.LVL53:
 488 003a 041C     		mov	r4, r0
 489              	.LVL54:
 490              		.loc 1 277 0
 491 003c 601C     		add	r0, r4, #1
 492 003e 02D0     		beq	.L25
 493              	.LVL55:
 494              		.loc 1 278 0
 495 0040 301C     		mov	r0, r6
 496 0042 FFF7FEFF 		bl	chMtxLockS
 497              	.LVL56:
 498              	.L25:
 499              		.loc 1 280 0
 500 0046 201C     		mov	r0, r4
 501              		@ sp needed
 502              	.LVL57:
 503              	.LVL58:
 504              	.LVL59:
 505 0048 70BD     		pop	{r4, r5, r6, pc}
 506              	.L29:
ARM GAS  /var/folders/qh/xwg3v3kj02qbxczjpdb8lzfr0000gn/T//ccg1ZAqC.s 			page 10


 507 004a C046     		.align	2
 508              	.L28:
 509 004c 00000000 		.word	rlist
 510              		.cfi_endproc
 511              	.LFE15:
 512              		.size	chCondWaitTimeoutS, .-chCondWaitTimeoutS
 513              		.section	.text.chCondWaitTimeout,"ax",%progbits
 514              		.align	2
 515              		.p2align 4,,15
 516              		.global	chCondWaitTimeout
 517              		.code	16
 518              		.thumb_func
 519              		.type	chCondWaitTimeout, %function
 520              	chCondWaitTimeout:
 521              	.LFB14:
 522              		.loc 1 226 0
 523              		.cfi_startproc
 524              	.LVL60:
 525 0000 38B5     		push	{r3, r4, r5, lr}
 526              		.cfi_def_cfa_offset 16
 527              		.cfi_offset 3, -16
 528              		.cfi_offset 4, -12
 529              		.cfi_offset 5, -8
 530              		.cfi_offset 14, -4
 531              		.loc 1 226 0
 532 0002 051C     		mov	r5, r0
 533 0004 0C1C     		mov	r4, r1
 534              		.loc 1 229 0
 535              	@ 229 "../../os/kernel/src/chcond.c" 1
 536 0006 72B6     		cpsid   i
 537              	@ 0 "" 2
 538              		.code	16
 539 0008 FFF7FEFF 		bl	dbg_check_lock
 540              	.LVL61:
 541              		.loc 1 230 0
 542 000c 211C     		mov	r1, r4
 543 000e 281C     		mov	r0, r5
 544 0010 FFF7FEFF 		bl	chCondWaitTimeoutS
 545              	.LVL62:
 546 0014 041C     		mov	r4, r0
 547              	.LVL63:
 548              		.loc 1 231 0
 549 0016 FFF7FEFF 		bl	dbg_check_unlock
 550              	.LVL64:
 551              	@ 231 "../../os/kernel/src/chcond.c" 1
 552 001a 62B6     		cpsie   i
 553              	@ 0 "" 2
 554              		.loc 1 233 0
 555              		.code	16
 556 001c 201C     		mov	r0, r4
 557              		@ sp needed
 558              	.LVL65:
 559              	.LVL66:
 560 001e 38BD     		pop	{r3, r4, r5, pc}
 561              		.cfi_endproc
 562              	.LFE14:
 563              		.size	chCondWaitTimeout, .-chCondWaitTimeout
ARM GAS  /var/folders/qh/xwg3v3kj02qbxczjpdb8lzfr0000gn/T//ccg1ZAqC.s 			page 11


 564              		.text
 565              	.Letext0:
 566              		.file 3 "/usr/local/Cellar/gcc-arm-none-eabi-48/20131218/arm-none-eabi/include/stdint.h"
 567              		.file 4 "../../os/ports/GCC/ARMCMx/chtypes.h"
 568              		.file 5 "../../os/kernel/include/chlists.h"
 569              		.file 6 "../../os/kernel/include/chthreads.h"
 570              		.file 7 "../../os/ports/GCC/ARMCMx/chcore_v6m.h"
 571              		.file 8 "../../os/kernel/include/chschd.h"
 572              		.file 9 "../../os/kernel/include/chmtx.h"
 573              		.file 10 "../../os/kernel/include/chcond.h"
 574              		.file 11 "../../os/kernel/include/chdebug.h"