ARM GAS  /var/folders/qh/xwg3v3kj02qbxczjpdb8lzfr0000gn/T//cctp6d50.s 			page 1


   1              		.cpu cortex-m0
   2              		.fpu softvfp
   3              		.eabi_attribute 20, 1
   4              		.eabi_attribute 21, 1
   5              		.eabi_attribute 23, 3
   6              		.eabi_attribute 24, 1
   7              		.eabi_attribute 25, 1
   8              		.eabi_attribute 26, 1
   9              		.eabi_attribute 30, 2
  10              		.eabi_attribute 34, 0
  11              		.eabi_attribute 18, 4
  12              		.code	16
  13              		.file	"chdynamic.c"
  14              		.text
  15              	.Ltext0:
  16              		.cfi_sections	.debug_frame
  17              		.section	.text.chThdAddRef,"ax",%progbits
  18              		.align	2
  19              		.p2align 4,,15
  20              		.global	chThdAddRef
  21              		.code	16
  22              		.thumb_func
  23              		.type	chThdAddRef, %function
  24              	chThdAddRef:
  25              	.LFB7:
  26              		.file 1 "../../os/kernel/src/chdynamic.c"
  27              		.loc 1 45 0
  28              		.cfi_startproc
  29              	.LVL0:
  30 0000 10B5     		push	{r4, lr}
  31              		.cfi_def_cfa_offset 8
  32              		.cfi_offset 4, -8
  33              		.cfi_offset 14, -4
  34              		.loc 1 45 0
  35 0002 041C     		mov	r4, r0
  36              		.loc 1 47 0
  37              	@ 47 "../../os/kernel/src/chdynamic.c" 1
  38 0004 72B6     		cpsid   i
  39              	@ 0 "" 2
  40              		.code	16
  41 0006 FFF7FEFF 		bl	dbg_check_lock
  42              	.LVL1:
  43              		.loc 1 49 0
  44 000a A37F     		ldrb	r3, [r4, #30]
  45 000c 0133     		add	r3, r3, #1
  46 000e A377     		strb	r3, [r4, #30]
  47              		.loc 1 50 0
  48 0010 FFF7FEFF 		bl	dbg_check_unlock
  49              	.LVL2:
  50              	@ 50 "../../os/kernel/src/chdynamic.c" 1
  51 0014 62B6     		cpsie   i
  52              	@ 0 "" 2
  53              		.loc 1 52 0
  54              		.code	16
  55 0016 201C     		mov	r0, r4
  56              		@ sp needed
  57              	.LVL3:
ARM GAS  /var/folders/qh/xwg3v3kj02qbxczjpdb8lzfr0000gn/T//cctp6d50.s 			page 2


  58 0018 10BD     		pop	{r4, pc}
  59              		.cfi_endproc
  60              	.LFE7:
  61              		.size	chThdAddRef, .-chThdAddRef
  62 001a C046C046 		.section	.text.chThdRelease,"ax",%progbits
  62      C046
  63              		.align	2
  64              		.p2align 4,,15
  65              		.global	chThdRelease
  66              		.code	16
  67              		.thumb_func
  68              		.type	chThdRelease, %function
  69              	chThdRelease:
  70              	.LFB8:
  71              		.loc 1 67 0
  72              		.cfi_startproc
  73              	.LVL4:
  74 0000 38B5     		push	{r3, r4, r5, lr}
  75              		.cfi_def_cfa_offset 16
  76              		.cfi_offset 3, -16
  77              		.cfi_offset 4, -12
  78              		.cfi_offset 5, -8
  79              		.cfi_offset 14, -4
  80              		.loc 1 67 0
  81 0002 041C     		mov	r4, r0
  82              		.loc 1 70 0
  83              	@ 70 "../../os/kernel/src/chdynamic.c" 1
  84 0004 72B6     		cpsid   i
  85              	@ 0 "" 2
  86              		.code	16
  87 0006 FFF7FEFF 		bl	dbg_check_lock
  88              	.LVL5:
  89              		.loc 1 72 0
  90 000a A57F     		ldrb	r5, [r4, #30]
  91 000c 013D     		sub	r5, r5, #1
  92 000e EDB2     		uxtb	r5, r5
  93 0010 A577     		strb	r5, [r4, #30]
  94              	.LVL6:
  95              		.loc 1 73 0
  96 0012 FFF7FEFF 		bl	dbg_check_unlock
  97              	.LVL7:
  98              	@ 73 "../../os/kernel/src/chdynamic.c" 1
  99 0016 62B6     		cpsie   i
 100              	@ 0 "" 2
 101              		.loc 1 78 0
 102              		.code	16
 103 0018 002D     		cmp	r5, #0
 104 001a 02D1     		bne	.L2
 105              		.loc 1 78 0 is_stmt 0 discriminator 1
 106 001c 237F     		ldrb	r3, [r4, #28]
 107 001e 0E2B     		cmp	r3, #14
 108 0020 00D0     		beq	.L7
 109              	.L2:
 110              		.loc 1 98 0 is_stmt 1
 111              		@ sp needed
 112              	.LVL8:
 113              	.LVL9:
ARM GAS  /var/folders/qh/xwg3v3kj02qbxczjpdb8lzfr0000gn/T//cctp6d50.s 			page 3


 114 0022 38BD     		pop	{r3, r4, r5, pc}
 115              	.LVL10:
 116              	.L7:
 117              		.loc 1 79 0
 118 0024 637F     		ldrb	r3, [r4, #29]
 119 0026 0322     		mov	r2, #3
 120 0028 1340     		and	r3, r2
 121 002a 012B     		cmp	r3, #1
 122 002c 0BD0     		beq	.L4
 123 002e 022B     		cmp	r3, #2
 124 0030 F7D1     		bne	.L2
 125              		.loc 1 91 0
 126 0032 2269     		ldr	r2, [r4, #16]
 127 0034 6369     		ldr	r3, [r4, #20]
 128              		.loc 1 93 0
 129 0036 606C     		ldr	r0, [r4, #68]
 130              		.loc 1 91 0
 131 0038 1A61     		str	r2, [r3, #16]
 132 003a 2269     		ldr	r2, [r4, #16]
 133              		.loc 1 93 0
 134 003c 211C     		mov	r1, r4
 135              		.loc 1 91 0
 136 003e 5361     		str	r3, [r2, #20]
 137              		.loc 1 93 0
 138 0040 FFF7FEFF 		bl	chPoolFree
 139              	.LVL11:
 140              		.loc 1 94 0
 141 0044 EDE7     		b	.L2
 142              	.L4:
 143              		.loc 1 83 0
 144 0046 2269     		ldr	r2, [r4, #16]
 145 0048 6369     		ldr	r3, [r4, #20]
 146              		.loc 1 85 0
 147 004a 201C     		mov	r0, r4
 148              		.loc 1 83 0
 149 004c 1A61     		str	r2, [r3, #16]
 150 004e 2269     		ldr	r2, [r4, #16]
 151 0050 5361     		str	r3, [r2, #20]
 152              		.loc 1 85 0
 153 0052 FFF7FEFF 		bl	chHeapFree
 154              	.LVL12:
 155              		.loc 1 86 0
 156 0056 E4E7     		b	.L2
 157              		.cfi_endproc
 158              	.LFE8:
 159              		.size	chThdRelease, .-chThdRelease
 160 0058 C046C046 		.section	.text.chThdCreateFromHeap,"ax",%progbits
 160      C046C046 
 161              		.align	2
 162              		.p2align 4,,15
 163              		.global	chThdCreateFromHeap
 164              		.code	16
 165              		.thumb_func
 166              		.type	chThdCreateFromHeap, %function
 167              	chThdCreateFromHeap:
 168              	.LFB9:
 169              		.loc 1 124 0
ARM GAS  /var/folders/qh/xwg3v3kj02qbxczjpdb8lzfr0000gn/T//cctp6d50.s 			page 4


 170              		.cfi_startproc
 171              	.LVL13:
 172 0000 F0B5     		push	{r4, r5, r6, r7, lr}
 173              		.cfi_def_cfa_offset 20
 174              		.cfi_offset 4, -20
 175              		.cfi_offset 5, -16
 176              		.cfi_offset 6, -12
 177              		.cfi_offset 7, -8
 178              		.cfi_offset 14, -4
 179 0002 83B0     		sub	sp, sp, #12
 180              		.cfi_def_cfa_offset 32
 181              		.loc 1 124 0
 182 0004 0C1C     		mov	r4, r1
 183 0006 171C     		mov	r7, r2
 184 0008 1E1C     		mov	r6, r3
 185              		.loc 1 128 0
 186 000a FFF7FEFF 		bl	chHeapAlloc
 187              	.LVL14:
 188 000e 051E     		sub	r5, r0, #0
 189              	.LVL15:
 190              		.loc 1 129 0
 191 0010 16D0     		beq	.L10
 192              		.loc 1 141 0
 193              	@ 141 "../../os/kernel/src/chdynamic.c" 1
 194 0012 72B6     		cpsid   i
 195              	@ 0 "" 2
 196              		.code	16
 197 0014 FFF7FEFF 		bl	dbg_check_lock
 198              	.LVL16:
 199              		.loc 1 142 0
 200 0018 089B     		ldr	r3, [sp, #32]
 201 001a 3A1C     		mov	r2, r7
 202 001c 0093     		str	r3, [sp]
 203 001e 211C     		mov	r1, r4
 204 0020 331C     		mov	r3, r6
 205 0022 281C     		mov	r0, r5
 206 0024 FFF7FEFF 		bl	chThdCreateI
 207              	.LVL17:
 208              		.loc 1 143 0
 209 0028 0123     		mov	r3, #1
 210 002a 4377     		strb	r3, [r0, #29]
 211              		.loc 1 144 0
 212 002c 0021     		mov	r1, #0
 213              		.loc 1 142 0
 214 002e 041C     		mov	r4, r0
 215              	.LVL18:
 216              		.loc 1 144 0
 217 0030 FFF7FEFF 		bl	chSchWakeupS
 218              	.LVL19:
 219              		.loc 1 145 0
 220 0034 FFF7FEFF 		bl	dbg_check_unlock
 221              	.LVL20:
 222              	@ 145 "../../os/kernel/src/chdynamic.c" 1
 223 0038 62B6     		cpsie   i
 224              	@ 0 "" 2
 225              		.loc 1 146 0
 226              		.code	16
ARM GAS  /var/folders/qh/xwg3v3kj02qbxczjpdb8lzfr0000gn/T//cctp6d50.s 			page 5


 227 003a 201C     		mov	r0, r4
 228              	.LVL21:
 229              	.L9:
 230              		.loc 1 147 0
 231 003c 03B0     		add	sp, sp, #12
 232              		@ sp needed
 233              	.LVL22:
 234              	.LVL23:
 235              	.LVL24:
 236 003e F0BD     		pop	{r4, r5, r6, r7, pc}
 237              	.LVL25:
 238              	.L10:
 239              		.loc 1 130 0
 240 0040 0020     		mov	r0, #0
 241              	.LVL26:
 242 0042 FBE7     		b	.L9
 243              		.cfi_endproc
 244              	.LFE9:
 245              		.size	chThdCreateFromHeap, .-chThdCreateFromHeap
 246 0044 C046C046 		.section	.text.chThdCreateFromMemoryPool,"ax",%progbits
 246      C046C046 
 246      C046C046 
 247              		.align	2
 248              		.p2align 4,,15
 249              		.global	chThdCreateFromMemoryPool
 250              		.code	16
 251              		.thumb_func
 252              		.type	chThdCreateFromMemoryPool, %function
 253              	chThdCreateFromMemoryPool:
 254              	.LFB10:
 255              		.loc 1 173 0
 256              		.cfi_startproc
 257              	.LVL27:
 258 0000 F0B5     		push	{r4, r5, r6, r7, lr}
 259              		.cfi_def_cfa_offset 20
 260              		.cfi_offset 4, -20
 261              		.cfi_offset 5, -16
 262              		.cfi_offset 6, -12
 263              		.cfi_offset 7, -8
 264              		.cfi_offset 14, -4
 265 0002 4746     		mov	r7, r8
 266 0004 80B4     		push	{r7}
 267              		.cfi_def_cfa_offset 24
 268              		.cfi_offset 8, -24
 269 0006 82B0     		sub	sp, sp, #8
 270              		.cfi_def_cfa_offset 32
 271              		.loc 1 173 0
 272 0008 051C     		mov	r5, r0
 273 000a 0F1C     		mov	r7, r1
 274 000c 161C     		mov	r6, r2
 275 000e 9846     		mov	r8, r3
 276              		.loc 1 179 0
 277 0010 FFF7FEFF 		bl	chPoolAlloc
 278              	.LVL28:
 279 0014 041E     		sub	r4, r0, #0
 280              	.LVL29:
 281              		.loc 1 180 0
ARM GAS  /var/folders/qh/xwg3v3kj02qbxczjpdb8lzfr0000gn/T//cctp6d50.s 			page 6


 282 0016 19D0     		beq	.L13
 283              		.loc 1 192 0
 284              	@ 192 "../../os/kernel/src/chdynamic.c" 1
 285 0018 72B6     		cpsid   i
 286              	@ 0 "" 2
 287              		.code	16
 288 001a FFF7FEFF 		bl	dbg_check_lock
 289              	.LVL30:
 290              		.loc 1 193 0
 291 001e 4346     		mov	r3, r8
 292 0020 3A1C     		mov	r2, r7
 293 0022 0093     		str	r3, [sp]
 294 0024 6968     		ldr	r1, [r5, #4]
 295 0026 331C     		mov	r3, r6
 296 0028 201C     		mov	r0, r4
 297 002a FFF7FEFF 		bl	chThdCreateI
 298              	.LVL31:
 299              		.loc 1 194 0
 300 002e 0223     		mov	r3, #2
 301 0030 4377     		strb	r3, [r0, #29]
 302              		.loc 1 195 0
 303 0032 4564     		str	r5, [r0, #68]
 304              		.loc 1 196 0
 305 0034 0021     		mov	r1, #0
 306              		.loc 1 193 0
 307 0036 041C     		mov	r4, r0
 308              	.LVL32:
 309              		.loc 1 196 0
 310 0038 FFF7FEFF 		bl	chSchWakeupS
 311              	.LVL33:
 312              		.loc 1 197 0
 313 003c FFF7FEFF 		bl	dbg_check_unlock
 314              	.LVL34:
 315              	@ 197 "../../os/kernel/src/chdynamic.c" 1
 316 0040 62B6     		cpsie   i
 317              	@ 0 "" 2
 318              		.loc 1 198 0
 319              		.code	16
 320 0042 201C     		mov	r0, r4
 321              	.LVL35:
 322              	.L12:
 323              		.loc 1 199 0
 324 0044 02B0     		add	sp, sp, #8
 325              		@ sp needed
 326              	.LVL36:
 327              	.LVL37:
 328              	.LVL38:
 329              	.LVL39:
 330 0046 04BC     		pop	{r2}
 331 0048 9046     		mov	r8, r2
 332 004a F0BD     		pop	{r4, r5, r6, r7, pc}
 333              	.LVL40:
 334              	.L13:
 335              		.loc 1 181 0
 336 004c 0020     		mov	r0, #0
 337              	.LVL41:
 338 004e F9E7     		b	.L12
ARM GAS  /var/folders/qh/xwg3v3kj02qbxczjpdb8lzfr0000gn/T//cctp6d50.s 			page 7


 339              		.cfi_endproc
 340              	.LFE10:
 341              		.size	chThdCreateFromMemoryPool, .-chThdCreateFromMemoryPool
 342              		.text
 343              	.Letext0:
 344              		.file 2 "/usr/local/Cellar/gcc-arm-none-eabi-48/20131218/lib/gcc/arm-none-eabi/4.8.3/include/stdde
 345              		.file 3 "/usr/local/Cellar/gcc-arm-none-eabi-48/20131218/arm-none-eabi/include/stdint.h"
 346              		.file 4 "../../os/ports/GCC/ARMCMx/chtypes.h"
 347              		.file 5 "../../os/kernel/include/chlists.h"
 348              		.file 6 "../../os/kernel/include/chthreads.h"
 349              		.file 7 "../../os/ports/GCC/ARMCMx/chcore_v6m.h"
 350              		.file 8 "../../os/kernel/include/chmtx.h"
 351              		.file 9 "../../os/kernel/include/chmemcore.h"
 352              		.file 10 "../../os/kernel/include/chheap.h"
 353              		.file 11 "../../os/kernel/include/chmempools.h"
 354              		.file 12 "../../os/kernel/include/chdebug.h"
 355              		.file 13 "../../os/kernel/include/chschd.h"
 356              		.section	.debug_info,"",%progbits
 357              	.Ldebug_info0:
 358 0000 EE070000 		.4byte	0x7ee
 359 0004 0400     		.2byte	0x4
 360 0006 00000000 		.4byte	.Ldebug_abbrev0
 361 000a 04       		.byte	0x4
 362 000b 01       		.uleb128 0x1
 363 000c 19020000 		.4byte	.LASF90
 364 0010 01       		.byte	0x1
 365 0011 0E000000 		.4byte	.LASF91
 366 0015 72010000 		.4byte	.LASF92
 367 0019 00000000 		.4byte	.Ldebug_ranges0+0
 368 001d 00000000 		.4byte	0
 369 0021 00000000 		.4byte	.Ldebug_line0
 370 0025 02       		.uleb128 0x2
 371 0026 04       		.byte	0x4
 372 0027 05       		.byte	0x5
 373 0028 696E7400 		.ascii	"int\000"
 374 002c 03       		.uleb128 0x3
 375 002d 2E000000 		.4byte	.LASF2
 376 0031 02       		.byte	0x2
 377 0032 D4       		.byte	0xd4
 378 0033 37000000 		.4byte	0x37
 379 0037 04       		.uleb128 0x4
 380 0038 04       		.byte	0x4
 381 0039 07       		.byte	0x7
 382 003a 53010000 		.4byte	.LASF0
 383 003e 04       		.uleb128 0x4
 384 003f 01       		.byte	0x1
 385 0040 06       		.byte	0x6
 386 0041 A4000000 		.4byte	.LASF1
 387 0045 03       		.uleb128 0x3
 388 0046 6D040000 		.4byte	.LASF3
 389 004a 03       		.byte	0x3
 390 004b 2A       		.byte	0x2a
 391 004c 50000000 		.4byte	0x50
 392 0050 04       		.uleb128 0x4
 393 0051 01       		.byte	0x1
 394 0052 08       		.byte	0x8
 395 0053 79030000 		.4byte	.LASF4
ARM GAS  /var/folders/qh/xwg3v3kj02qbxczjpdb8lzfr0000gn/T//cctp6d50.s 			page 8


 396 0057 04       		.uleb128 0x4
 397 0058 02       		.byte	0x2
 398 0059 05       		.byte	0x5
 399 005a 9C030000 		.4byte	.LASF5
 400 005e 04       		.uleb128 0x4
 401 005f 02       		.byte	0x2
 402 0060 07       		.byte	0x7
 403 0061 BA010000 		.4byte	.LASF6
 404 0065 03       		.uleb128 0x3
 405 0066 71030000 		.4byte	.LASF7
 406 006a 03       		.byte	0x3
 407 006b 4F       		.byte	0x4f
 408 006c 70000000 		.4byte	0x70
 409 0070 04       		.uleb128 0x4
 410 0071 04       		.byte	0x4
 411 0072 05       		.byte	0x5
 412 0073 E8000000 		.4byte	.LASF8
 413 0077 03       		.uleb128 0x3
 414 0078 05040000 		.4byte	.LASF9
 415 007c 03       		.byte	0x3
 416 007d 50       		.byte	0x50
 417 007e 82000000 		.4byte	0x82
 418 0082 04       		.uleb128 0x4
 419 0083 04       		.byte	0x4
 420 0084 07       		.byte	0x7
 421 0085 60010000 		.4byte	.LASF10
 422 0089 04       		.uleb128 0x4
 423 008a 08       		.byte	0x8
 424 008b 05       		.byte	0x5
 425 008c 96000000 		.4byte	.LASF11
 426 0090 03       		.uleb128 0x3
 427 0091 3C000000 		.4byte	.LASF12
 428 0095 03       		.byte	0x3
 429 0096 78       		.byte	0x78
 430 0097 9B000000 		.4byte	0x9b
 431 009b 04       		.uleb128 0x4
 432 009c 08       		.byte	0x8
 433 009d 07       		.byte	0x7
 434 009e 5D000000 		.4byte	.LASF13
 435 00a2 04       		.uleb128 0x4
 436 00a3 01       		.byte	0x1
 437 00a4 02       		.byte	0x2
 438 00a5 6B030000 		.4byte	.LASF14
 439 00a9 03       		.uleb128 0x3
 440 00aa D3010000 		.4byte	.LASF15
 441 00ae 04       		.byte	0x4
 442 00af 25       		.byte	0x25
 443 00b0 45000000 		.4byte	0x45
 444 00b4 03       		.uleb128 0x3
 445 00b5 05010000 		.4byte	.LASF16
 446 00b9 04       		.byte	0x4
 447 00ba 26       		.byte	0x26
 448 00bb 45000000 		.4byte	0x45
 449 00bf 03       		.uleb128 0x3
 450 00c0 4F030000 		.4byte	.LASF17
 451 00c4 04       		.byte	0x4
 452 00c5 27       		.byte	0x27
ARM GAS  /var/folders/qh/xwg3v3kj02qbxczjpdb8lzfr0000gn/T//cctp6d50.s 			page 9


 453 00c6 45000000 		.4byte	0x45
 454 00ca 03       		.uleb128 0x3
 455 00cb D1000000 		.4byte	.LASF18
 456 00cf 04       		.byte	0x4
 457 00d0 28       		.byte	0x28
 458 00d1 45000000 		.4byte	0x45
 459 00d5 03       		.uleb128 0x3
 460 00d6 63030000 		.4byte	.LASF19
 461 00da 04       		.byte	0x4
 462 00db 29       		.byte	0x29
 463 00dc 77000000 		.4byte	0x77
 464 00e0 03       		.uleb128 0x3
 465 00e1 CD010000 		.4byte	.LASF20
 466 00e5 04       		.byte	0x4
 467 00e6 2A       		.byte	0x2a
 468 00e7 65000000 		.4byte	0x65
 469 00eb 03       		.uleb128 0x3
 470 00ec E7010000 		.4byte	.LASF21
 471 00f0 04       		.byte	0x4
 472 00f1 2C       		.byte	0x2c
 473 00f2 77000000 		.4byte	0x77
 474 00f6 03       		.uleb128 0x3
 475 00f7 1F040000 		.4byte	.LASF22
 476 00fb 04       		.byte	0x4
 477 00fc 2E       		.byte	0x2e
 478 00fd 77000000 		.4byte	0x77
 479 0101 03       		.uleb128 0x3
 480 0102 E7030000 		.4byte	.LASF23
 481 0106 05       		.byte	0x5
 482 0107 23       		.byte	0x23
 483 0108 0C010000 		.4byte	0x10c
 484 010c 05       		.uleb128 0x5
 485 010d E7030000 		.4byte	.LASF23
 486 0111 48       		.byte	0x48
 487 0112 06       		.byte	0x6
 488 0113 57       		.byte	0x57
 489 0114 09020000 		.4byte	0x209
 490 0118 06       		.uleb128 0x6
 491 0119 CB030000 		.4byte	.LASF24
 492 011d 06       		.byte	0x6
 493 011e 58       		.byte	0x58
 494 011f 2A020000 		.4byte	0x22a
 495 0123 00       		.byte	0
 496 0124 06       		.uleb128 0x6
 497 0125 5C030000 		.4byte	.LASF25
 498 0129 06       		.byte	0x6
 499 012a 5A       		.byte	0x5a
 500 012b 2A020000 		.4byte	0x22a
 501 012f 04       		.byte	0x4
 502 0130 06       		.uleb128 0x6
 503 0131 8F000000 		.4byte	.LASF26
 504 0135 06       		.byte	0x6
 505 0136 5C       		.byte	0x5c
 506 0137 D5000000 		.4byte	0xd5
 507 013b 08       		.byte	0x8
 508 013c 06       		.uleb128 0x6
 509 013d A2040000 		.4byte	.LASF27
ARM GAS  /var/folders/qh/xwg3v3kj02qbxczjpdb8lzfr0000gn/T//cctp6d50.s 			page 10


 510 0141 06       		.byte	0x6
 511 0142 5D       		.byte	0x5d
 512 0143 E5020000 		.4byte	0x2e5
 513 0147 0C       		.byte	0xc
 514 0148 06       		.uleb128 0x6
 515 0149 16010000 		.4byte	.LASF28
 516 014d 06       		.byte	0x6
 517 014e 5F       		.byte	0x5f
 518 014f 2A020000 		.4byte	0x22a
 519 0153 10       		.byte	0x10
 520 0154 06       		.uleb128 0x6
 521 0155 F3020000 		.4byte	.LASF29
 522 0159 06       		.byte	0x6
 523 015a 60       		.byte	0x60
 524 015b 2A020000 		.4byte	0x22a
 525 015f 14       		.byte	0x14
 526 0160 06       		.uleb128 0x6
 527 0161 93040000 		.4byte	.LASF30
 528 0165 06       		.byte	0x6
 529 0166 67       		.byte	0x67
 530 0167 A5040000 		.4byte	0x4a5
 531 016b 18       		.byte	0x18
 532 016c 06       		.uleb128 0x6
 533 016d A6030000 		.4byte	.LASF31
 534 0171 06       		.byte	0x6
 535 0172 72       		.byte	0x72
 536 0173 B4000000 		.4byte	0xb4
 537 0177 1C       		.byte	0x1c
 538 0178 06       		.uleb128 0x6
 539 0179 D2030000 		.4byte	.LASF32
 540 017d 06       		.byte	0x6
 541 017e 76       		.byte	0x76
 542 017f A9000000 		.4byte	0xa9
 543 0183 1D       		.byte	0x1d
 544 0184 06       		.uleb128 0x6
 545 0185 66040000 		.4byte	.LASF33
 546 0189 06       		.byte	0x6
 547 018a 7B       		.byte	0x7b
 548 018b BF000000 		.4byte	0xbf
 549 018f 1E       		.byte	0x1e
 550 0190 06       		.uleb128 0x6
 551 0191 AE030000 		.4byte	.LASF34
 552 0195 06       		.byte	0x6
 553 0196 81       		.byte	0x81
 554 0197 CA000000 		.4byte	0xca
 555 019b 1F       		.byte	0x1f
 556 019c 06       		.uleb128 0x6
 557 019d 34040000 		.4byte	.LASF35
 558 01a1 06       		.byte	0x6
 559 01a2 88       		.byte	0x88
 560 01a3 0B030000 		.4byte	0x30b
 561 01a7 20       		.byte	0x20
 562 01a8 07       		.uleb128 0x7
 563 01a9 705F7500 		.ascii	"p_u\000"
 564 01ad 06       		.byte	0x6
 565 01ae AD       		.byte	0xad
 566 01af 70040000 		.4byte	0x470
ARM GAS  /var/folders/qh/xwg3v3kj02qbxczjpdb8lzfr0000gn/T//cctp6d50.s 			page 11


 567 01b3 24       		.byte	0x24
 568 01b4 06       		.uleb128 0x6
 569 01b5 A8040000 		.4byte	.LASF36
 570 01b9 06       		.byte	0x6
 571 01ba B2       		.byte	0xb2
 572 01bb 50020000 		.4byte	0x250
 573 01bf 28       		.byte	0x28
 574 01c0 06       		.uleb128 0x6
 575 01c1 42040000 		.4byte	.LASF37
 576 01c5 06       		.byte	0x6
 577 01c6 B8       		.byte	0xb8
 578 01c7 30020000 		.4byte	0x230
 579 01cb 2C       		.byte	0x2c
 580 01cc 06       		.uleb128 0x6
 581 01cd 08000000 		.4byte	.LASF38
 582 01d1 06       		.byte	0x6
 583 01d2 BC       		.byte	0xbc
 584 01d3 E0000000 		.4byte	0xe0
 585 01d7 34       		.byte	0x34
 586 01d8 06       		.uleb128 0x6
 587 01d9 FA030000 		.4byte	.LASF39
 588 01dd 06       		.byte	0x6
 589 01de C2       		.byte	0xc2
 590 01df EB000000 		.4byte	0xeb
 591 01e3 38       		.byte	0x38
 592 01e4 06       		.uleb128 0x6
 593 01e5 92030000 		.4byte	.LASF40
 594 01e9 06       		.byte	0x6
 595 01ea C9       		.byte	0xc9
 596 01eb B7040000 		.4byte	0x4b7
 597 01ef 3C       		.byte	0x3c
 598 01f0 06       		.uleb128 0x6
 599 01f1 29040000 		.4byte	.LASF41
 600 01f5 06       		.byte	0x6
 601 01f6 CD       		.byte	0xcd
 602 01f7 D5000000 		.4byte	0xd5
 603 01fb 40       		.byte	0x40
 604 01fc 06       		.uleb128 0x6
 605 01fd B6000000 		.4byte	.LASF42
 606 0201 06       		.byte	0x6
 607 0202 D3       		.byte	0xd3
 608 0203 66020000 		.4byte	0x266
 609 0207 44       		.byte	0x44
 610 0208 00       		.byte	0
 611 0209 08       		.uleb128 0x8
 612 020a 08       		.byte	0x8
 613 020b 05       		.byte	0x5
 614 020c 5A       		.byte	0x5a
 615 020d 2A020000 		.4byte	0x22a
 616 0211 06       		.uleb128 0x6
 617 0212 CB030000 		.4byte	.LASF24
 618 0216 05       		.byte	0x5
 619 0217 5B       		.byte	0x5b
 620 0218 2A020000 		.4byte	0x22a
 621 021c 00       		.byte	0
 622 021d 06       		.uleb128 0x6
 623 021e 5C030000 		.4byte	.LASF25
ARM GAS  /var/folders/qh/xwg3v3kj02qbxczjpdb8lzfr0000gn/T//cctp6d50.s 			page 12


 624 0222 05       		.byte	0x5
 625 0223 5D       		.byte	0x5d
 626 0224 2A020000 		.4byte	0x22a
 627 0228 04       		.byte	0x4
 628 0229 00       		.byte	0
 629 022a 09       		.uleb128 0x9
 630 022b 04       		.byte	0x4
 631 022c 01010000 		.4byte	0x101
 632 0230 03       		.uleb128 0x3
 633 0231 FB020000 		.4byte	.LASF43
 634 0235 05       		.byte	0x5
 635 0236 5F       		.byte	0x5f
 636 0237 09020000 		.4byte	0x209
 637 023b 08       		.uleb128 0x8
 638 023c 04       		.byte	0x4
 639 023d 05       		.byte	0x5
 640 023e 64       		.byte	0x64
 641 023f 50020000 		.4byte	0x250
 642 0243 06       		.uleb128 0x6
 643 0244 CB030000 		.4byte	.LASF24
 644 0248 05       		.byte	0x5
 645 0249 66       		.byte	0x66
 646 024a 2A020000 		.4byte	0x22a
 647 024e 00       		.byte	0
 648 024f 00       		.byte	0
 649 0250 03       		.uleb128 0x3
 650 0251 DB010000 		.4byte	.LASF44
 651 0255 05       		.byte	0x5
 652 0256 69       		.byte	0x69
 653 0257 3B020000 		.4byte	0x23b
 654 025b 03       		.uleb128 0x3
 655 025c 44010000 		.4byte	.LASF45
 656 0260 07       		.byte	0x7
 657 0261 A0       		.byte	0xa0
 658 0262 66020000 		.4byte	0x266
 659 0266 0A       		.uleb128 0xa
 660 0267 04       		.byte	0x4
 661 0268 03       		.uleb128 0x3
 662 0269 05020000 		.4byte	.LASF46
 663 026d 07       		.byte	0x7
 664 026e A6       		.byte	0xa6
 665 026f 90000000 		.4byte	0x90
 666 0273 05       		.uleb128 0x5
 667 0274 3B040000 		.4byte	.LASF47
 668 0278 24       		.byte	0x24
 669 0279 07       		.byte	0x7
 670 027a B3       		.byte	0xb3
 671 027b E5020000 		.4byte	0x2e5
 672 027f 07       		.uleb128 0x7
 673 0280 723800   		.ascii	"r8\000"
 674 0283 07       		.byte	0x7
 675 0284 B4       		.byte	0xb4
 676 0285 5B020000 		.4byte	0x25b
 677 0289 00       		.byte	0
 678 028a 07       		.uleb128 0x7
 679 028b 723900   		.ascii	"r9\000"
 680 028e 07       		.byte	0x7
ARM GAS  /var/folders/qh/xwg3v3kj02qbxczjpdb8lzfr0000gn/T//cctp6d50.s 			page 13


 681 028f B5       		.byte	0xb5
 682 0290 5B020000 		.4byte	0x25b
 683 0294 04       		.byte	0x4
 684 0295 07       		.uleb128 0x7
 685 0296 72313000 		.ascii	"r10\000"
 686 029a 07       		.byte	0x7
 687 029b B6       		.byte	0xb6
 688 029c 5B020000 		.4byte	0x25b
 689 02a0 08       		.byte	0x8
 690 02a1 07       		.uleb128 0x7
 691 02a2 72313100 		.ascii	"r11\000"
 692 02a6 07       		.byte	0x7
 693 02a7 B7       		.byte	0xb7
 694 02a8 5B020000 		.4byte	0x25b
 695 02ac 0C       		.byte	0xc
 696 02ad 07       		.uleb128 0x7
 697 02ae 723400   		.ascii	"r4\000"
 698 02b1 07       		.byte	0x7
 699 02b2 B8       		.byte	0xb8
 700 02b3 5B020000 		.4byte	0x25b
 701 02b7 10       		.byte	0x10
 702 02b8 07       		.uleb128 0x7
 703 02b9 723500   		.ascii	"r5\000"
 704 02bc 07       		.byte	0x7
 705 02bd B9       		.byte	0xb9
 706 02be 5B020000 		.4byte	0x25b
 707 02c2 14       		.byte	0x14
 708 02c3 07       		.uleb128 0x7
 709 02c4 723600   		.ascii	"r6\000"
 710 02c7 07       		.byte	0x7
 711 02c8 BA       		.byte	0xba
 712 02c9 5B020000 		.4byte	0x25b
 713 02cd 18       		.byte	0x18
 714 02ce 07       		.uleb128 0x7
 715 02cf 723700   		.ascii	"r7\000"
 716 02d2 07       		.byte	0x7
 717 02d3 BB       		.byte	0xbb
 718 02d4 5B020000 		.4byte	0x25b
 719 02d8 1C       		.byte	0x1c
 720 02d9 07       		.uleb128 0x7
 721 02da 6C7200   		.ascii	"lr\000"
 722 02dd 07       		.byte	0x7
 723 02de BC       		.byte	0xbc
 724 02df 5B020000 		.4byte	0x25b
 725 02e3 20       		.byte	0x20
 726 02e4 00       		.byte	0
 727 02e5 05       		.uleb128 0x5
 728 02e6 AD010000 		.4byte	.LASF48
 729 02ea 04       		.byte	0x4
 730 02eb 07       		.byte	0x7
 731 02ec C6       		.byte	0xc6
 732 02ed FE020000 		.4byte	0x2fe
 733 02f1 07       		.uleb128 0x7
 734 02f2 72313300 		.ascii	"r13\000"
 735 02f6 07       		.byte	0x7
 736 02f7 C7       		.byte	0xc7
 737 02f8 FE020000 		.4byte	0x2fe
ARM GAS  /var/folders/qh/xwg3v3kj02qbxczjpdb8lzfr0000gn/T//cctp6d50.s 			page 14


 738 02fc 00       		.byte	0
 739 02fd 00       		.byte	0
 740 02fe 09       		.uleb128 0x9
 741 02ff 04       		.byte	0x4
 742 0300 73020000 		.4byte	0x273
 743 0304 04       		.uleb128 0x4
 744 0305 04       		.byte	0x4
 745 0306 07       		.byte	0x7
 746 0307 10020000 		.4byte	.LASF49
 747 030b 0B       		.uleb128 0xb
 748 030c F6000000 		.4byte	0xf6
 749 0310 05       		.uleb128 0x5
 750 0311 F3010000 		.4byte	.LASF50
 751 0315 10       		.byte	0x10
 752 0316 08       		.byte	0x8
 753 0317 25       		.byte	0x25
 754 0318 41030000 		.4byte	0x341
 755 031c 06       		.uleb128 0x6
 756 031d BE000000 		.4byte	.LASF51
 757 0321 08       		.byte	0x8
 758 0322 26       		.byte	0x26
 759 0323 30020000 		.4byte	0x230
 760 0327 00       		.byte	0
 761 0328 06       		.uleb128 0x6
 762 0329 9A040000 		.4byte	.LASF52
 763 032d 08       		.byte	0x8
 764 032e 28       		.byte	0x28
 765 032f 2A020000 		.4byte	0x22a
 766 0333 08       		.byte	0x8
 767 0334 06       		.uleb128 0x6
 768 0335 18040000 		.4byte	.LASF53
 769 0339 08       		.byte	0x8
 770 033a 2A       		.byte	0x2a
 771 033b 41030000 		.4byte	0x341
 772 033f 0C       		.byte	0xc
 773 0340 00       		.byte	0
 774 0341 09       		.uleb128 0x9
 775 0342 04       		.byte	0x4
 776 0343 10030000 		.4byte	0x310
 777 0347 03       		.uleb128 0x3
 778 0348 F3010000 		.4byte	.LASF50
 779 034c 08       		.byte	0x8
 780 034d 2C       		.byte	0x2c
 781 034e 10030000 		.4byte	0x310
 782 0352 03       		.uleb128 0x3
 783 0353 50000000 		.4byte	.LASF54
 784 0357 09       		.byte	0x9
 785 0358 25       		.byte	0x25
 786 0359 5D030000 		.4byte	0x35d
 787 035d 09       		.uleb128 0x9
 788 035e 04       		.byte	0x4
 789 035f 63030000 		.4byte	0x363
 790 0363 0C       		.uleb128 0xc
 791 0364 66020000 		.4byte	0x266
 792 0368 72030000 		.4byte	0x372
 793 036c 0D       		.uleb128 0xd
 794 036d 2C000000 		.4byte	0x2c
ARM GAS  /var/folders/qh/xwg3v3kj02qbxczjpdb8lzfr0000gn/T//cctp6d50.s 			page 15


 795 0371 00       		.byte	0
 796 0372 03       		.uleb128 0x3
 797 0373 3C030000 		.4byte	.LASF55
 798 0377 0A       		.byte	0xa
 799 0378 2D       		.byte	0x2d
 800 0379 7D030000 		.4byte	0x37d
 801 037d 05       		.uleb128 0x5
 802 037e B2040000 		.4byte	.LASF56
 803 0382 20       		.byte	0x20
 804 0383 0A       		.byte	0xa
 805 0384 40       		.byte	0x40
 806 0385 AE030000 		.4byte	0x3ae
 807 0389 06       		.uleb128 0x6
 808 038a 87030000 		.4byte	.LASF57
 809 038e 0A       		.byte	0xa
 810 038f 41       		.byte	0x41
 811 0390 52030000 		.4byte	0x352
 812 0394 00       		.byte	0
 813 0395 06       		.uleb128 0x6
 814 0396 7D000000 		.4byte	.LASF58
 815 039a 0A       		.byte	0xa
 816 039b 43       		.byte	0x43
 817 039c CD030000 		.4byte	0x3cd
 818 03a0 08       		.byte	0x8
 819 03a1 06       		.uleb128 0x6
 820 03a2 B0000000 		.4byte	.LASF59
 821 03a6 0A       		.byte	0xa
 822 03a7 45       		.byte	0x45
 823 03a8 47030000 		.4byte	0x347
 824 03ac 10       		.byte	0x10
 825 03ad 00       		.byte	0
 826 03ae 0E       		.uleb128 0xe
 827 03af 04       		.byte	0x4
 828 03b0 0A       		.byte	0xa
 829 03b1 35       		.byte	0x35
 830 03b2 CD030000 		.4byte	0x3cd
 831 03b6 0F       		.uleb128 0xf
 832 03b7 8A000000 		.4byte	.LASF60
 833 03bb 0A       		.byte	0xa
 834 03bc 36       		.byte	0x36
 835 03bd EE030000 		.4byte	0x3ee
 836 03c1 0F       		.uleb128 0xf
 837 03c2 0E040000 		.4byte	.LASF61
 838 03c6 0A       		.byte	0xa
 839 03c7 37       		.byte	0x37
 840 03c8 F4030000 		.4byte	0x3f4
 841 03cc 00       		.byte	0
 842 03cd 10       		.uleb128 0x10
 843 03ce B8030000 		.4byte	.LASF93
 844 03d2 08       		.byte	0x8
 845 03d3 0A       		.byte	0xa
 846 03d4 32       		.byte	0x32
 847 03d5 EE030000 		.4byte	0x3ee
 848 03d9 0F       		.uleb128 0xf
 849 03da 4D010000 		.4byte	.LASF62
 850 03de 0A       		.byte	0xa
 851 03df 33       		.byte	0x33
ARM GAS  /var/folders/qh/xwg3v3kj02qbxczjpdb8lzfr0000gn/T//cctp6d50.s 			page 16


 852 03e0 68020000 		.4byte	0x268
 853 03e4 11       		.uleb128 0x11
 854 03e5 6800     		.ascii	"h\000"
 855 03e7 0A       		.byte	0xa
 856 03e8 3A       		.byte	0x3a
 857 03e9 FA030000 		.4byte	0x3fa
 858 03ed 00       		.byte	0
 859 03ee 09       		.uleb128 0x9
 860 03ef 04       		.byte	0x4
 861 03f0 CD030000 		.4byte	0x3cd
 862 03f4 09       		.uleb128 0x9
 863 03f5 04       		.byte	0x4
 864 03f6 72030000 		.4byte	0x372
 865 03fa 08       		.uleb128 0x8
 866 03fb 08       		.byte	0x8
 867 03fc 0A       		.byte	0xa
 868 03fd 34       		.byte	0x34
 869 03fe 19040000 		.4byte	0x419
 870 0402 07       		.uleb128 0x7
 871 0403 7500     		.ascii	"u\000"
 872 0405 0A       		.byte	0xa
 873 0406 38       		.byte	0x38
 874 0407 AE030000 		.4byte	0x3ae
 875 040b 00       		.byte	0
 876 040c 06       		.uleb128 0x6
 877 040d B5010000 		.4byte	.LASF63
 878 0411 0A       		.byte	0xa
 879 0412 39       		.byte	0x39
 880 0413 2C000000 		.4byte	0x2c
 881 0417 04       		.byte	0x4
 882 0418 00       		.byte	0
 883 0419 05       		.uleb128 0x5
 884 041a 5A040000 		.4byte	.LASF64
 885 041e 04       		.byte	0x4
 886 041f 0B       		.byte	0xb
 887 0420 25       		.byte	0x25
 888 0421 32040000 		.4byte	0x432
 889 0425 06       		.uleb128 0x6
 890 0426 47030000 		.4byte	.LASF65
 891 042a 0B       		.byte	0xb
 892 042b 26       		.byte	0x26
 893 042c 32040000 		.4byte	0x432
 894 0430 00       		.byte	0
 895 0431 00       		.byte	0
 896 0432 09       		.uleb128 0x9
 897 0433 04       		.byte	0x4
 898 0434 19040000 		.4byte	0x419
 899 0438 08       		.uleb128 0x8
 900 0439 0C       		.byte	0xc
 901 043a 0B       		.byte	0xb
 902 043b 2D       		.byte	0x2d
 903 043c 65040000 		.4byte	0x465
 904 0440 06       		.uleb128 0x6
 905 0441 0E010000 		.4byte	.LASF66
 906 0445 0B       		.byte	0xb
 907 0446 2E       		.byte	0x2e
 908 0447 32040000 		.4byte	0x432
ARM GAS  /var/folders/qh/xwg3v3kj02qbxczjpdb8lzfr0000gn/T//cctp6d50.s 			page 17


 909 044b 00       		.byte	0
 910 044c 06       		.uleb128 0x6
 911 044d 08030000 		.4byte	.LASF67
 912 0451 0B       		.byte	0xb
 913 0452 2F       		.byte	0x2f
 914 0453 2C000000 		.4byte	0x2c
 915 0457 04       		.byte	0x4
 916 0458 06       		.uleb128 0x6
 917 0459 38010000 		.4byte	.LASF68
 918 045d 0B       		.byte	0xb
 919 045e 31       		.byte	0x31
 920 045f 52030000 		.4byte	0x352
 921 0463 08       		.byte	0x8
 922 0464 00       		.byte	0
 923 0465 03       		.uleb128 0x3
 924 0466 45000000 		.4byte	.LASF69
 925 046a 0B       		.byte	0xb
 926 046b 33       		.byte	0x33
 927 046c 38040000 		.4byte	0x438
 928 0470 0E       		.uleb128 0xe
 929 0471 04       		.byte	0x4
 930 0472 06       		.byte	0x6
 931 0473 8F       		.byte	0x8f
 932 0474 A5040000 		.4byte	0x4a5
 933 0478 0F       		.uleb128 0xf
 934 0479 35000000 		.4byte	.LASF70
 935 047d 06       		.byte	0x6
 936 047e 96       		.byte	0x96
 937 047f E0000000 		.4byte	0xe0
 938 0483 0F       		.uleb128 0xf
 939 0484 74000000 		.4byte	.LASF71
 940 0488 06       		.byte	0x6
 941 0489 9D       		.byte	0x9d
 942 048a E0000000 		.4byte	0xe0
 943 048e 0F       		.uleb128 0xf
 944 048f 8C040000 		.4byte	.LASF72
 945 0493 06       		.byte	0x6
 946 0494 A4       		.byte	0xa4
 947 0495 66020000 		.4byte	0x266
 948 0499 0F       		.uleb128 0xf
 949 049a C4030000 		.4byte	.LASF73
 950 049e 06       		.byte	0x6
 951 049f AB       		.byte	0xab
 952 04a0 EB000000 		.4byte	0xeb
 953 04a4 00       		.byte	0
 954 04a5 09       		.uleb128 0x9
 955 04a6 04       		.byte	0x4
 956 04a7 AB040000 		.4byte	0x4ab
 957 04ab 12       		.uleb128 0x12
 958 04ac B0040000 		.4byte	0x4b0
 959 04b0 04       		.uleb128 0x4
 960 04b1 01       		.byte	0x1
 961 04b2 08       		.byte	0x8
 962 04b3 13040000 		.4byte	.LASF74
 963 04b7 09       		.uleb128 0x9
 964 04b8 04       		.byte	0x4
 965 04b9 47030000 		.4byte	0x347
ARM GAS  /var/folders/qh/xwg3v3kj02qbxczjpdb8lzfr0000gn/T//cctp6d50.s 			page 18


 966 04bd 03       		.uleb128 0x3
 967 04be 00000000 		.4byte	.LASF75
 968 04c2 06       		.byte	0x6
 969 04c3 DE       		.byte	0xde
 970 04c4 C8040000 		.4byte	0x4c8
 971 04c8 09       		.uleb128 0x9
 972 04c9 04       		.byte	0x4
 973 04ca CE040000 		.4byte	0x4ce
 974 04ce 0C       		.uleb128 0xc
 975 04cf E0000000 		.4byte	0xe0
 976 04d3 DD040000 		.4byte	0x4dd
 977 04d7 0D       		.uleb128 0xd
 978 04d8 66020000 		.4byte	0x266
 979 04dc 00       		.byte	0
 980 04dd 13       		.uleb128 0x13
 981 04de F9010000 		.4byte	.LASF76
 982 04e2 01       		.byte	0x1
 983 04e3 2D       		.byte	0x2d
 984 04e4 2A020000 		.4byte	0x22a
 985 04e8 00000000 		.4byte	.LFB7
 986 04ec 1A000000 		.4byte	.LFE7-.LFB7
 987 04f0 01       		.uleb128 0x1
 988 04f1 9C       		.byte	0x9c
 989 04f2 17050000 		.4byte	0x517
 990 04f6 14       		.uleb128 0x14
 991 04f7 747000   		.ascii	"tp\000"
 992 04fa 01       		.byte	0x1
 993 04fb 2D       		.byte	0x2d
 994 04fc 2A020000 		.4byte	0x22a
 995 0500 00000000 		.4byte	.LLST0
 996 0504 15       		.uleb128 0x15
 997 0505 0A000000 		.4byte	.LVL1
 998 0509 51070000 		.4byte	0x751
 999 050d 15       		.uleb128 0x15
 1000 050e 14000000 		.4byte	.LVL2
 1001 0512 58070000 		.4byte	0x758
 1002 0516 00       		.byte	0
 1003 0517 16       		.uleb128 0x16
 1004 0518 DA030000 		.4byte	.LASF94
 1005 051c 01       		.byte	0x1
 1006 051d 43       		.byte	0x43
 1007 051e 00000000 		.4byte	.LFB8
 1008 0522 58000000 		.4byte	.LFE8-.LFB8
 1009 0526 01       		.uleb128 0x1
 1010 0527 9C       		.byte	0x9c
 1011 0528 80050000 		.4byte	0x580
 1012 052c 14       		.uleb128 0x14
 1013 052d 747000   		.ascii	"tp\000"
 1014 0530 01       		.byte	0x1
 1015 0531 43       		.byte	0x43
 1016 0532 2A020000 		.4byte	0x22a
 1017 0536 29000000 		.4byte	.LLST1
 1018 053a 17       		.uleb128 0x17
 1019 053b 57030000 		.4byte	.LASF80
 1020 053f 01       		.byte	0x1
 1021 0540 44       		.byte	0x44
 1022 0541 BF000000 		.4byte	0xbf
ARM GAS  /var/folders/qh/xwg3v3kj02qbxczjpdb8lzfr0000gn/T//cctp6d50.s 			page 19


 1023 0545 60000000 		.4byte	.LLST2
 1024 0549 15       		.uleb128 0x15
 1025 054a 0A000000 		.4byte	.LVL5
 1026 054e 51070000 		.4byte	0x751
 1027 0552 15       		.uleb128 0x15
 1028 0553 16000000 		.4byte	.LVL7
 1029 0557 58070000 		.4byte	0x758
 1030 055b 18       		.uleb128 0x18
 1031 055c 44000000 		.4byte	.LVL11
 1032 0560 5F070000 		.4byte	0x75f
 1033 0564 6F050000 		.4byte	0x56f
 1034 0568 19       		.uleb128 0x19
 1035 0569 01       		.uleb128 0x1
 1036 056a 51       		.byte	0x51
 1037 056b 02       		.uleb128 0x2
 1038 056c 74       		.byte	0x74
 1039 056d 00       		.sleb128 0
 1040 056e 00       		.byte	0
 1041 056f 1A       		.uleb128 0x1a
 1042 0570 56000000 		.4byte	.LVL12
 1043 0574 75070000 		.4byte	0x775
 1044 0578 19       		.uleb128 0x19
 1045 0579 01       		.uleb128 0x1
 1046 057a 50       		.byte	0x50
 1047 057b 02       		.uleb128 0x2
 1048 057c 74       		.byte	0x74
 1049 057d 00       		.sleb128 0
 1050 057e 00       		.byte	0
 1051 057f 00       		.byte	0
 1052 0580 13       		.uleb128 0x13
 1053 0581 F1000000 		.4byte	.LASF77
 1054 0585 01       		.byte	0x1
 1055 0586 7B       		.byte	0x7b
 1056 0587 2A020000 		.4byte	0x22a
 1057 058b 00000000 		.4byte	.LFB9
 1058 058f 44000000 		.4byte	.LFE9-.LFB9
 1059 0593 01       		.uleb128 0x1
 1060 0594 9C       		.byte	0x9c
 1061 0595 74060000 		.4byte	0x674
 1062 0599 1B       		.uleb128 0x1b
 1063 059a 84000000 		.4byte	.LASF78
 1064 059e 01       		.byte	0x1
 1065 059f 7B       		.byte	0x7b
 1066 05a0 F4030000 		.4byte	0x3f4
 1067 05a4 7E000000 		.4byte	.LLST3
 1068 05a8 1B       		.uleb128 0x1b
 1069 05a9 B5010000 		.4byte	.LASF63
 1070 05ad 01       		.byte	0x1
 1071 05ae 7B       		.byte	0x7b
 1072 05af 2C000000 		.4byte	0x2c
 1073 05b3 9F000000 		.4byte	.LLST4
 1074 05b7 1B       		.uleb128 0x1b
 1075 05b8 17030000 		.4byte	.LASF79
 1076 05bc 01       		.byte	0x1
 1077 05bd 7C       		.byte	0x7c
 1078 05be D5000000 		.4byte	0xd5
 1079 05c2 D6000000 		.4byte	.LLST5
ARM GAS  /var/folders/qh/xwg3v3kj02qbxczjpdb8lzfr0000gn/T//cctp6d50.s 			page 20


 1080 05c6 14       		.uleb128 0x14
 1081 05c7 706600   		.ascii	"pf\000"
 1082 05ca 01       		.byte	0x1
 1083 05cb 7C       		.byte	0x7c
 1084 05cc BD040000 		.4byte	0x4bd
 1085 05d0 0D010000 		.4byte	.LLST6
 1086 05d4 1C       		.uleb128 0x1c
 1087 05d5 61726700 		.ascii	"arg\000"
 1088 05d9 01       		.byte	0x1
 1089 05da 7C       		.byte	0x7c
 1090 05db 66020000 		.4byte	0x266
 1091 05df 02       		.uleb128 0x2
 1092 05e0 91       		.byte	0x91
 1093 05e1 00       		.sleb128 0
 1094 05e2 1D       		.uleb128 0x1d
 1095 05e3 77737000 		.ascii	"wsp\000"
 1096 05e7 01       		.byte	0x1
 1097 05e8 7D       		.byte	0x7d
 1098 05e9 66020000 		.4byte	0x266
 1099 05ed 44010000 		.4byte	.LLST7
 1100 05f1 1D       		.uleb128 0x1d
 1101 05f2 747000   		.ascii	"tp\000"
 1102 05f5 01       		.byte	0x1
 1103 05f6 7E       		.byte	0x7e
 1104 05f7 2A020000 		.4byte	0x22a
 1105 05fb 78010000 		.4byte	.LLST8
 1106 05ff 18       		.uleb128 0x18
 1107 0600 0E000000 		.4byte	.LVL14
 1108 0604 86070000 		.4byte	0x786
 1109 0608 1A060000 		.4byte	0x61a
 1110 060c 19       		.uleb128 0x19
 1111 060d 01       		.uleb128 0x1
 1112 060e 51       		.byte	0x51
 1113 060f 02       		.uleb128 0x2
 1114 0610 74       		.byte	0x74
 1115 0611 00       		.sleb128 0
 1116 0612 19       		.uleb128 0x19
 1117 0613 01       		.uleb128 0x1
 1118 0614 50       		.byte	0x50
 1119 0615 03       		.uleb128 0x3
 1120 0616 F3       		.byte	0xf3
 1121 0617 01       		.uleb128 0x1
 1122 0618 50       		.byte	0x50
 1123 0619 00       		.byte	0
 1124 061a 15       		.uleb128 0x15
 1125 061b 18000000 		.4byte	.LVL16
 1126 061f 51070000 		.4byte	0x751
 1127 0623 18       		.uleb128 0x18
 1128 0624 28000000 		.4byte	.LVL17
 1129 0628 A0070000 		.4byte	0x7a0
 1130 062c 51060000 		.4byte	0x651
 1131 0630 19       		.uleb128 0x19
 1132 0631 01       		.uleb128 0x1
 1133 0632 53       		.byte	0x53
 1134 0633 02       		.uleb128 0x2
 1135 0634 76       		.byte	0x76
 1136 0635 00       		.sleb128 0
ARM GAS  /var/folders/qh/xwg3v3kj02qbxczjpdb8lzfr0000gn/T//cctp6d50.s 			page 21


 1137 0636 19       		.uleb128 0x19
 1138 0637 01       		.uleb128 0x1
 1139 0638 52       		.byte	0x52
 1140 0639 02       		.uleb128 0x2
 1141 063a 77       		.byte	0x77
 1142 063b 00       		.sleb128 0
 1143 063c 19       		.uleb128 0x19
 1144 063d 01       		.uleb128 0x1
 1145 063e 51       		.byte	0x51
 1146 063f 02       		.uleb128 0x2
 1147 0640 74       		.byte	0x74
 1148 0641 00       		.sleb128 0
 1149 0642 19       		.uleb128 0x19
 1150 0643 01       		.uleb128 0x1
 1151 0644 50       		.byte	0x50
 1152 0645 02       		.uleb128 0x2
 1153 0646 75       		.byte	0x75
 1154 0647 00       		.sleb128 0
 1155 0648 19       		.uleb128 0x19
 1156 0649 02       		.uleb128 0x2
 1157 064a 7D       		.byte	0x7d
 1158 064b 00       		.sleb128 0
 1159 064c 03       		.uleb128 0x3
 1160 064d 91       		.byte	0x91
 1161 064e 00       		.sleb128 0
 1162 064f 06       		.byte	0x6
 1163 0650 00       		.byte	0
 1164 0651 18       		.uleb128 0x18
 1165 0652 34000000 		.4byte	.LVL19
 1166 0656 CA070000 		.4byte	0x7ca
 1167 065a 6A060000 		.4byte	0x66a
 1168 065e 19       		.uleb128 0x19
 1169 065f 01       		.uleb128 0x1
 1170 0660 51       		.byte	0x51
 1171 0661 01       		.uleb128 0x1
 1172 0662 30       		.byte	0x30
 1173 0663 19       		.uleb128 0x19
 1174 0664 01       		.uleb128 0x1
 1175 0665 50       		.byte	0x50
 1176 0666 02       		.uleb128 0x2
 1177 0667 74       		.byte	0x74
 1178 0668 00       		.sleb128 0
 1179 0669 00       		.byte	0
 1180 066a 15       		.uleb128 0x15
 1181 066b 38000000 		.4byte	.LVL20
 1182 066f 58070000 		.4byte	0x758
 1183 0673 00       		.byte	0
 1184 0674 13       		.uleb128 0x13
 1185 0675 1E010000 		.4byte	.LASF81
 1186 0679 01       		.byte	0x1
 1187 067a AC       		.byte	0xac
 1188 067b 2A020000 		.4byte	0x22a
 1189 067f 00000000 		.4byte	.LFB10
 1190 0683 50000000 		.4byte	.LFE10-.LFB10
 1191 0687 01       		.uleb128 0x1
 1192 0688 9C       		.byte	0x9c
 1193 0689 4B070000 		.4byte	0x74b
ARM GAS  /var/folders/qh/xwg3v3kj02qbxczjpdb8lzfr0000gn/T//cctp6d50.s 			page 22


 1194 068d 14       		.uleb128 0x14
 1195 068e 6D7000   		.ascii	"mp\000"
 1196 0691 01       		.byte	0x1
 1197 0692 AC       		.byte	0xac
 1198 0693 4B070000 		.4byte	0x74b
 1199 0697 96010000 		.4byte	.LLST9
 1200 069b 1B       		.uleb128 0x1b
 1201 069c 17030000 		.4byte	.LASF79
 1202 06a0 01       		.byte	0x1
 1203 06a1 AC       		.byte	0xac
 1204 06a2 D5000000 		.4byte	0xd5
 1205 06a6 CD010000 		.4byte	.LLST10
 1206 06aa 14       		.uleb128 0x14
 1207 06ab 706600   		.ascii	"pf\000"
 1208 06ae 01       		.byte	0x1
 1209 06af AD       		.byte	0xad
 1210 06b0 BD040000 		.4byte	0x4bd
 1211 06b4 04020000 		.4byte	.LLST11
 1212 06b8 14       		.uleb128 0x14
 1213 06b9 61726700 		.ascii	"arg\000"
 1214 06bd 01       		.byte	0x1
 1215 06be AD       		.byte	0xad
 1216 06bf 66020000 		.4byte	0x266
 1217 06c3 3B020000 		.4byte	.LLST12
 1218 06c7 1D       		.uleb128 0x1d
 1219 06c8 77737000 		.ascii	"wsp\000"
 1220 06cc 01       		.byte	0x1
 1221 06cd AE       		.byte	0xae
 1222 06ce 66020000 		.4byte	0x266
 1223 06d2 72020000 		.4byte	.LLST13
 1224 06d6 1D       		.uleb128 0x1d
 1225 06d7 747000   		.ascii	"tp\000"
 1226 06da 01       		.byte	0x1
 1227 06db AF       		.byte	0xaf
 1228 06dc 2A020000 		.4byte	0x22a
 1229 06e0 A6020000 		.4byte	.LLST14
 1230 06e4 18       		.uleb128 0x18
 1231 06e5 14000000 		.4byte	.LVL28
 1232 06e9 E0070000 		.4byte	0x7e0
 1233 06ed F8060000 		.4byte	0x6f8
 1234 06f1 19       		.uleb128 0x19
 1235 06f2 01       		.uleb128 0x1
 1236 06f3 50       		.byte	0x50
 1237 06f4 02       		.uleb128 0x2
 1238 06f5 75       		.byte	0x75
 1239 06f6 00       		.sleb128 0
 1240 06f7 00       		.byte	0
 1241 06f8 15       		.uleb128 0x15
 1242 06f9 1E000000 		.4byte	.LVL30
 1243 06fd 51070000 		.4byte	0x751
 1244 0701 18       		.uleb128 0x18
 1245 0702 2E000000 		.4byte	.LVL31
 1246 0706 A0070000 		.4byte	0x7a0
 1247 070a 28070000 		.4byte	0x728
 1248 070e 19       		.uleb128 0x19
 1249 070f 01       		.uleb128 0x1
 1250 0710 53       		.byte	0x53
ARM GAS  /var/folders/qh/xwg3v3kj02qbxczjpdb8lzfr0000gn/T//cctp6d50.s 			page 23


 1251 0711 02       		.uleb128 0x2
 1252 0712 76       		.byte	0x76
 1253 0713 00       		.sleb128 0
 1254 0714 19       		.uleb128 0x19
 1255 0715 01       		.uleb128 0x1
 1256 0716 52       		.byte	0x52
 1257 0717 02       		.uleb128 0x2
 1258 0718 77       		.byte	0x77
 1259 0719 00       		.sleb128 0
 1260 071a 19       		.uleb128 0x19
 1261 071b 01       		.uleb128 0x1
 1262 071c 50       		.byte	0x50
 1263 071d 02       		.uleb128 0x2
 1264 071e 74       		.byte	0x74
 1265 071f 00       		.sleb128 0
 1266 0720 19       		.uleb128 0x19
 1267 0721 02       		.uleb128 0x2
 1268 0722 7D       		.byte	0x7d
 1269 0723 00       		.sleb128 0
 1270 0724 02       		.uleb128 0x2
 1271 0725 78       		.byte	0x78
 1272 0726 00       		.sleb128 0
 1273 0727 00       		.byte	0
 1274 0728 18       		.uleb128 0x18
 1275 0729 3C000000 		.4byte	.LVL33
 1276 072d CA070000 		.4byte	0x7ca
 1277 0731 41070000 		.4byte	0x741
 1278 0735 19       		.uleb128 0x19
 1279 0736 01       		.uleb128 0x1
 1280 0737 51       		.byte	0x51
 1281 0738 01       		.uleb128 0x1
 1282 0739 30       		.byte	0x30
 1283 073a 19       		.uleb128 0x19
 1284 073b 01       		.uleb128 0x1
 1285 073c 50       		.byte	0x50
 1286 073d 02       		.uleb128 0x2
 1287 073e 74       		.byte	0x74
 1288 073f 00       		.sleb128 0
 1289 0740 00       		.byte	0
 1290 0741 15       		.uleb128 0x15
 1291 0742 40000000 		.4byte	.LVL34
 1292 0746 58070000 		.4byte	0x758
 1293 074a 00       		.byte	0
 1294 074b 09       		.uleb128 0x9
 1295 074c 04       		.byte	0x4
 1296 074d 65040000 		.4byte	0x465
 1297 0751 1E       		.uleb128 0x1e
 1298 0752 1C030000 		.4byte	.LASF82
 1299 0756 0C       		.byte	0xc
 1300 0757 E0       		.byte	0xe0
 1301 0758 1E       		.uleb128 0x1e
 1302 0759 2B030000 		.4byte	.LASF83
 1303 075d 0C       		.byte	0xc
 1304 075e E1       		.byte	0xe1
 1305 075f 1F       		.uleb128 0x1f
 1306 0760 81040000 		.4byte	.LASF84
 1307 0764 0B       		.byte	0xb
ARM GAS  /var/folders/qh/xwg3v3kj02qbxczjpdb8lzfr0000gn/T//cctp6d50.s 			page 24


 1308 0765 7D       		.byte	0x7d
 1309 0766 75070000 		.4byte	0x775
 1310 076a 0D       		.uleb128 0xd
 1311 076b 4B070000 		.4byte	0x74b
 1312 076f 0D       		.uleb128 0xd
 1313 0770 66020000 		.4byte	0x266
 1314 0774 00       		.byte	0
 1315 0775 1F       		.uleb128 0x1f
 1316 0776 C6000000 		.4byte	.LASF85
 1317 077a 0A       		.byte	0xa
 1318 077b 53       		.byte	0x53
 1319 077c 86070000 		.4byte	0x786
 1320 0780 0D       		.uleb128 0xd
 1321 0781 66020000 		.4byte	0x266
 1322 0785 00       		.byte	0
 1323 0786 20       		.uleb128 0x20
 1324 0787 EE030000 		.4byte	.LASF86
 1325 078b 0A       		.byte	0xa
 1326 078c 52       		.byte	0x52
 1327 078d 66020000 		.4byte	0x266
 1328 0791 A0070000 		.4byte	0x7a0
 1329 0795 0D       		.uleb128 0xd
 1330 0796 F4030000 		.4byte	0x3f4
 1331 079a 0D       		.uleb128 0xd
 1332 079b 2C000000 		.4byte	0x2c
 1333 079f 00       		.byte	0
 1334 07a0 21       		.uleb128 0x21
 1335 07a1 DB000000 		.4byte	.LASF87
 1336 07a5 06       		.byte	0x6
 1337 07a6 6701     		.2byte	0x167
 1338 07a8 2A020000 		.4byte	0x22a
 1339 07ac CA070000 		.4byte	0x7ca
 1340 07b0 0D       		.uleb128 0xd
 1341 07b1 66020000 		.4byte	0x266
 1342 07b5 0D       		.uleb128 0xd
 1343 07b6 2C000000 		.4byte	0x2c
 1344 07ba 0D       		.uleb128 0xd
 1345 07bb D5000000 		.4byte	0xd5
 1346 07bf 0D       		.uleb128 0xd
 1347 07c0 BD040000 		.4byte	0x4bd
 1348 07c4 0D       		.uleb128 0xd
 1349 07c5 66020000 		.4byte	0x266
 1350 07c9 00       		.byte	0
 1351 07ca 1F       		.uleb128 0x1f
 1352 07cb 4D040000 		.4byte	.LASF88
 1353 07cf 0D       		.byte	0xd
 1354 07d0 92       		.byte	0x92
 1355 07d1 E0070000 		.4byte	0x7e0
 1356 07d5 0D       		.uleb128 0xd
 1357 07d6 2A020000 		.4byte	0x22a
 1358 07da 0D       		.uleb128 0xd
 1359 07db E0000000 		.4byte	0xe0
 1360 07df 00       		.byte	0
 1361 07e0 22       		.uleb128 0x22
 1362 07e1 75040000 		.4byte	.LASF89
 1363 07e5 0B       		.byte	0xb
 1364 07e6 7B       		.byte	0x7b
ARM GAS  /var/folders/qh/xwg3v3kj02qbxczjpdb8lzfr0000gn/T//cctp6d50.s 			page 25


 1365 07e7 66020000 		.4byte	0x266
 1366 07eb 0D       		.uleb128 0xd
 1367 07ec 4B070000 		.4byte	0x74b
 1368 07f0 00       		.byte	0
 1369 07f1 00       		.byte	0
 1370              		.section	.debug_abbrev,"",%progbits
 1371              	.Ldebug_abbrev0:
 1372 0000 01       		.uleb128 0x1
 1373 0001 11       		.uleb128 0x11
 1374 0002 01       		.byte	0x1
 1375 0003 25       		.uleb128 0x25
 1376 0004 0E       		.uleb128 0xe
 1377 0005 13       		.uleb128 0x13
 1378 0006 0B       		.uleb128 0xb
 1379 0007 03       		.uleb128 0x3
 1380 0008 0E       		.uleb128 0xe
 1381 0009 1B       		.uleb128 0x1b
 1382 000a 0E       		.uleb128 0xe
 1383 000b 55       		.uleb128 0x55
 1384 000c 17       		.uleb128 0x17
 1385 000d 11       		.uleb128 0x11
 1386 000e 01       		.uleb128 0x1
 1387 000f 10       		.uleb128 0x10
 1388 0010 17       		.uleb128 0x17
 1389 0011 00       		.byte	0
 1390 0012 00       		.byte	0
 1391 0013 02       		.uleb128 0x2
 1392 0014 24       		.uleb128 0x24
 1393 0015 00       		.byte	0
 1394 0016 0B       		.uleb128 0xb
 1395 0017 0B       		.uleb128 0xb
 1396 0018 3E       		.uleb128 0x3e
 1397 0019 0B       		.uleb128 0xb
 1398 001a 03       		.uleb128 0x3
 1399 001b 08       		.uleb128 0x8
 1400 001c 00       		.byte	0
 1401 001d 00       		.byte	0
 1402 001e 03       		.uleb128 0x3
 1403 001f 16       		.uleb128 0x16
 1404 0020 00       		.byte	0
 1405 0021 03       		.uleb128 0x3
 1406 0022 0E       		.uleb128 0xe
 1407 0023 3A       		.uleb128 0x3a
 1408 0024 0B       		.uleb128 0xb
 1409 0025 3B       		.uleb128 0x3b
 1410 0026 0B       		.uleb128 0xb
 1411 0027 49       		.uleb128 0x49
 1412 0028 13       		.uleb128 0x13
 1413 0029 00       		.byte	0
 1414 002a 00       		.byte	0
 1415 002b 04       		.uleb128 0x4
 1416 002c 24       		.uleb128 0x24
 1417 002d 00       		.byte	0
 1418 002e 0B       		.uleb128 0xb
 1419 002f 0B       		.uleb128 0xb
 1420 0030 3E       		.uleb128 0x3e
 1421 0031 0B       		.uleb128 0xb
ARM GAS  /var/folders/qh/xwg3v3kj02qbxczjpdb8lzfr0000gn/T//cctp6d50.s 			page 26


 1422 0032 03       		.uleb128 0x3
 1423 0033 0E       		.uleb128 0xe
 1424 0034 00       		.byte	0
 1425 0035 00       		.byte	0
 1426 0036 05       		.uleb128 0x5
 1427 0037 13       		.uleb128 0x13
 1428 0038 01       		.byte	0x1
 1429 0039 03       		.uleb128 0x3
 1430 003a 0E       		.uleb128 0xe
 1431 003b 0B       		.uleb128 0xb
 1432 003c 0B       		.uleb128 0xb
 1433 003d 3A       		.uleb128 0x3a
 1434 003e 0B       		.uleb128 0xb
 1435 003f 3B       		.uleb128 0x3b
 1436 0040 0B       		.uleb128 0xb
 1437 0041 01       		.uleb128 0x1
 1438 0042 13       		.uleb128 0x13
 1439 0043 00       		.byte	0
 1440 0044 00       		.byte	0
 1441 0045 06       		.uleb128 0x6
 1442 0046 0D       		.uleb128 0xd
 1443 0047 00       		.byte	0
 1444 0048 03       		.uleb128 0x3
 1445 0049 0E       		.uleb128 0xe
 1446 004a 3A       		.uleb128 0x3a
 1447 004b 0B       		.uleb128 0xb
 1448 004c 3B       		.uleb128 0x3b
 1449 004d 0B       		.uleb128 0xb
 1450 004e 49       		.uleb128 0x49
 1451 004f 13       		.uleb128 0x13
 1452 0050 38       		.uleb128 0x38
 1453 0051 0B       		.uleb128 0xb
 1454 0052 00       		.byte	0
 1455 0053 00       		.byte	0
 1456 0054 07       		.uleb128 0x7
 1457 0055 0D       		.uleb128 0xd
 1458 0056 00       		.byte	0
 1459 0057 03       		.uleb128 0x3
 1460 0058 08       		.uleb128 0x8
 1461 0059 3A       		.uleb128 0x3a
 1462 005a 0B       		.uleb128 0xb
 1463 005b 3B       		.uleb128 0x3b
 1464 005c 0B       		.uleb128 0xb
 1465 005d 49       		.uleb128 0x49
 1466 005e 13       		.uleb128 0x13
 1467 005f 38       		.uleb128 0x38
 1468 0060 0B       		.uleb128 0xb
 1469 0061 00       		.byte	0
 1470 0062 00       		.byte	0
 1471 0063 08       		.uleb128 0x8
 1472 0064 13       		.uleb128 0x13
 1473 0065 01       		.byte	0x1
 1474 0066 0B       		.uleb128 0xb
 1475 0067 0B       		.uleb128 0xb
 1476 0068 3A       		.uleb128 0x3a
 1477 0069 0B       		.uleb128 0xb
 1478 006a 3B       		.uleb128 0x3b
ARM GAS  /var/folders/qh/xwg3v3kj02qbxczjpdb8lzfr0000gn/T//cctp6d50.s 			page 27


 1479 006b 0B       		.uleb128 0xb
 1480 006c 01       		.uleb128 0x1
 1481 006d 13       		.uleb128 0x13
 1482 006e 00       		.byte	0
 1483 006f 00       		.byte	0
 1484 0070 09       		.uleb128 0x9
 1485 0071 0F       		.uleb128 0xf
 1486 0072 00       		.byte	0
 1487 0073 0B       		.uleb128 0xb
 1488 0074 0B       		.uleb128 0xb
 1489 0075 49       		.uleb128 0x49
 1490 0076 13       		.uleb128 0x13
 1491 0077 00       		.byte	0
 1492 0078 00       		.byte	0
 1493 0079 0A       		.uleb128 0xa
 1494 007a 0F       		.uleb128 0xf
 1495 007b 00       		.byte	0
 1496 007c 0B       		.uleb128 0xb
 1497 007d 0B       		.uleb128 0xb
 1498 007e 00       		.byte	0
 1499 007f 00       		.byte	0
 1500 0080 0B       		.uleb128 0xb
 1501 0081 35       		.uleb128 0x35
 1502 0082 00       		.byte	0
 1503 0083 49       		.uleb128 0x49
 1504 0084 13       		.uleb128 0x13
 1505 0085 00       		.byte	0
 1506 0086 00       		.byte	0
 1507 0087 0C       		.uleb128 0xc
 1508 0088 15       		.uleb128 0x15
 1509 0089 01       		.byte	0x1
 1510 008a 27       		.uleb128 0x27
 1511 008b 19       		.uleb128 0x19
 1512 008c 49       		.uleb128 0x49
 1513 008d 13       		.uleb128 0x13
 1514 008e 01       		.uleb128 0x1
 1515 008f 13       		.uleb128 0x13
 1516 0090 00       		.byte	0
 1517 0091 00       		.byte	0
 1518 0092 0D       		.uleb128 0xd
 1519 0093 05       		.uleb128 0x5
 1520 0094 00       		.byte	0
 1521 0095 49       		.uleb128 0x49
 1522 0096 13       		.uleb128 0x13
 1523 0097 00       		.byte	0
 1524 0098 00       		.byte	0
 1525 0099 0E       		.uleb128 0xe
 1526 009a 17       		.uleb128 0x17
 1527 009b 01       		.byte	0x1
 1528 009c 0B       		.uleb128 0xb
 1529 009d 0B       		.uleb128 0xb
 1530 009e 3A       		.uleb128 0x3a
 1531 009f 0B       		.uleb128 0xb
 1532 00a0 3B       		.uleb128 0x3b
 1533 00a1 0B       		.uleb128 0xb
 1534 00a2 01       		.uleb128 0x1
 1535 00a3 13       		.uleb128 0x13
ARM GAS  /var/folders/qh/xwg3v3kj02qbxczjpdb8lzfr0000gn/T//cctp6d50.s 			page 28


 1536 00a4 00       		.byte	0
 1537 00a5 00       		.byte	0
 1538 00a6 0F       		.uleb128 0xf
 1539 00a7 0D       		.uleb128 0xd
 1540 00a8 00       		.byte	0
 1541 00a9 03       		.uleb128 0x3
 1542 00aa 0E       		.uleb128 0xe
 1543 00ab 3A       		.uleb128 0x3a
 1544 00ac 0B       		.uleb128 0xb
 1545 00ad 3B       		.uleb128 0x3b
 1546 00ae 0B       		.uleb128 0xb
 1547 00af 49       		.uleb128 0x49
 1548 00b0 13       		.uleb128 0x13
 1549 00b1 00       		.byte	0
 1550 00b2 00       		.byte	0
 1551 00b3 10       		.uleb128 0x10
 1552 00b4 17       		.uleb128 0x17
 1553 00b5 01       		.byte	0x1
 1554 00b6 03       		.uleb128 0x3
 1555 00b7 0E       		.uleb128 0xe
 1556 00b8 0B       		.uleb128 0xb
 1557 00b9 0B       		.uleb128 0xb
 1558 00ba 3A       		.uleb128 0x3a
 1559 00bb 0B       		.uleb128 0xb
 1560 00bc 3B       		.uleb128 0x3b
 1561 00bd 0B       		.uleb128 0xb
 1562 00be 01       		.uleb128 0x1
 1563 00bf 13       		.uleb128 0x13
 1564 00c0 00       		.byte	0
 1565 00c1 00       		.byte	0
 1566 00c2 11       		.uleb128 0x11
 1567 00c3 0D       		.uleb128 0xd
 1568 00c4 00       		.byte	0
 1569 00c5 03       		.uleb128 0x3
 1570 00c6 08       		.uleb128 0x8
 1571 00c7 3A       		.uleb128 0x3a
 1572 00c8 0B       		.uleb128 0xb
 1573 00c9 3B       		.uleb128 0x3b
 1574 00ca 0B       		.uleb128 0xb
 1575 00cb 49       		.uleb128 0x49
 1576 00cc 13       		.uleb128 0x13
 1577 00cd 00       		.byte	0
 1578 00ce 00       		.byte	0
 1579 00cf 12       		.uleb128 0x12
 1580 00d0 26       		.uleb128 0x26
 1581 00d1 00       		.byte	0
 1582 00d2 49       		.uleb128 0x49
 1583 00d3 13       		.uleb128 0x13
 1584 00d4 00       		.byte	0
 1585 00d5 00       		.byte	0
 1586 00d6 13       		.uleb128 0x13
 1587 00d7 2E       		.uleb128 0x2e
 1588 00d8 01       		.byte	0x1
 1589 00d9 3F       		.uleb128 0x3f
 1590 00da 19       		.uleb128 0x19
 1591 00db 03       		.uleb128 0x3
 1592 00dc 0E       		.uleb128 0xe
ARM GAS  /var/folders/qh/xwg3v3kj02qbxczjpdb8lzfr0000gn/T//cctp6d50.s 			page 29


 1593 00dd 3A       		.uleb128 0x3a
 1594 00de 0B       		.uleb128 0xb
 1595 00df 3B       		.uleb128 0x3b
 1596 00e0 0B       		.uleb128 0xb
 1597 00e1 27       		.uleb128 0x27
 1598 00e2 19       		.uleb128 0x19
 1599 00e3 49       		.uleb128 0x49
 1600 00e4 13       		.uleb128 0x13
 1601 00e5 11       		.uleb128 0x11
 1602 00e6 01       		.uleb128 0x1
 1603 00e7 12       		.uleb128 0x12
 1604 00e8 06       		.uleb128 0x6
 1605 00e9 40       		.uleb128 0x40
 1606 00ea 18       		.uleb128 0x18
 1607 00eb 9742     		.uleb128 0x2117
 1608 00ed 19       		.uleb128 0x19
 1609 00ee 01       		.uleb128 0x1
 1610 00ef 13       		.uleb128 0x13
 1611 00f0 00       		.byte	0
 1612 00f1 00       		.byte	0
 1613 00f2 14       		.uleb128 0x14
 1614 00f3 05       		.uleb128 0x5
 1615 00f4 00       		.byte	0
 1616 00f5 03       		.uleb128 0x3
 1617 00f6 08       		.uleb128 0x8
 1618 00f7 3A       		.uleb128 0x3a
 1619 00f8 0B       		.uleb128 0xb
 1620 00f9 3B       		.uleb128 0x3b
 1621 00fa 0B       		.uleb128 0xb
 1622 00fb 49       		.uleb128 0x49
 1623 00fc 13       		.uleb128 0x13
 1624 00fd 02       		.uleb128 0x2
 1625 00fe 17       		.uleb128 0x17
 1626 00ff 00       		.byte	0
 1627 0100 00       		.byte	0
 1628 0101 15       		.uleb128 0x15
 1629 0102 898201   		.uleb128 0x4109
 1630 0105 00       		.byte	0
 1631 0106 11       		.uleb128 0x11
 1632 0107 01       		.uleb128 0x1
 1633 0108 31       		.uleb128 0x31
 1634 0109 13       		.uleb128 0x13
 1635 010a 00       		.byte	0
 1636 010b 00       		.byte	0
 1637 010c 16       		.uleb128 0x16
 1638 010d 2E       		.uleb128 0x2e
 1639 010e 01       		.byte	0x1
 1640 010f 3F       		.uleb128 0x3f
 1641 0110 19       		.uleb128 0x19
 1642 0111 03       		.uleb128 0x3
 1643 0112 0E       		.uleb128 0xe
 1644 0113 3A       		.uleb128 0x3a
 1645 0114 0B       		.uleb128 0xb
 1646 0115 3B       		.uleb128 0x3b
 1647 0116 0B       		.uleb128 0xb
 1648 0117 27       		.uleb128 0x27
 1649 0118 19       		.uleb128 0x19
ARM GAS  /var/folders/qh/xwg3v3kj02qbxczjpdb8lzfr0000gn/T//cctp6d50.s 			page 30


 1650 0119 11       		.uleb128 0x11
 1651 011a 01       		.uleb128 0x1
 1652 011b 12       		.uleb128 0x12
 1653 011c 06       		.uleb128 0x6
 1654 011d 40       		.uleb128 0x40
 1655 011e 18       		.uleb128 0x18
 1656 011f 9742     		.uleb128 0x2117
 1657 0121 19       		.uleb128 0x19
 1658 0122 01       		.uleb128 0x1
 1659 0123 13       		.uleb128 0x13
 1660 0124 00       		.byte	0
 1661 0125 00       		.byte	0
 1662 0126 17       		.uleb128 0x17
 1663 0127 34       		.uleb128 0x34
 1664 0128 00       		.byte	0
 1665 0129 03       		.uleb128 0x3
 1666 012a 0E       		.uleb128 0xe
 1667 012b 3A       		.uleb128 0x3a
 1668 012c 0B       		.uleb128 0xb
 1669 012d 3B       		.uleb128 0x3b
 1670 012e 0B       		.uleb128 0xb
 1671 012f 49       		.uleb128 0x49
 1672 0130 13       		.uleb128 0x13
 1673 0131 02       		.uleb128 0x2
 1674 0132 17       		.uleb128 0x17
 1675 0133 00       		.byte	0
 1676 0134 00       		.byte	0
 1677 0135 18       		.uleb128 0x18
 1678 0136 898201   		.uleb128 0x4109
 1679 0139 01       		.byte	0x1
 1680 013a 11       		.uleb128 0x11
 1681 013b 01       		.uleb128 0x1
 1682 013c 31       		.uleb128 0x31
 1683 013d 13       		.uleb128 0x13
 1684 013e 01       		.uleb128 0x1
 1685 013f 13       		.uleb128 0x13
 1686 0140 00       		.byte	0
 1687 0141 00       		.byte	0
 1688 0142 19       		.uleb128 0x19
 1689 0143 8A8201   		.uleb128 0x410a
 1690 0146 00       		.byte	0
 1691 0147 02       		.uleb128 0x2
 1692 0148 18       		.uleb128 0x18
 1693 0149 9142     		.uleb128 0x2111
 1694 014b 18       		.uleb128 0x18
 1695 014c 00       		.byte	0
 1696 014d 00       		.byte	0
 1697 014e 1A       		.uleb128 0x1a
 1698 014f 898201   		.uleb128 0x4109
 1699 0152 01       		.byte	0x1
 1700 0153 11       		.uleb128 0x11
 1701 0154 01       		.uleb128 0x1
 1702 0155 31       		.uleb128 0x31
 1703 0156 13       		.uleb128 0x13
 1704 0157 00       		.byte	0
 1705 0158 00       		.byte	0
 1706 0159 1B       		.uleb128 0x1b
ARM GAS  /var/folders/qh/xwg3v3kj02qbxczjpdb8lzfr0000gn/T//cctp6d50.s 			page 31


 1707 015a 05       		.uleb128 0x5
 1708 015b 00       		.byte	0
 1709 015c 03       		.uleb128 0x3
 1710 015d 0E       		.uleb128 0xe
 1711 015e 3A       		.uleb128 0x3a
 1712 015f 0B       		.uleb128 0xb
 1713 0160 3B       		.uleb128 0x3b
 1714 0161 0B       		.uleb128 0xb
 1715 0162 49       		.uleb128 0x49
 1716 0163 13       		.uleb128 0x13
 1717 0164 02       		.uleb128 0x2
 1718 0165 17       		.uleb128 0x17
 1719 0166 00       		.byte	0
 1720 0167 00       		.byte	0
 1721 0168 1C       		.uleb128 0x1c
 1722 0169 05       		.uleb128 0x5
 1723 016a 00       		.byte	0
 1724 016b 03       		.uleb128 0x3
 1725 016c 08       		.uleb128 0x8
 1726 016d 3A       		.uleb128 0x3a
 1727 016e 0B       		.uleb128 0xb
 1728 016f 3B       		.uleb128 0x3b
 1729 0170 0B       		.uleb128 0xb
 1730 0171 49       		.uleb128 0x49
 1731 0172 13       		.uleb128 0x13
 1732 0173 02       		.uleb128 0x2
 1733 0174 18       		.uleb128 0x18
 1734 0175 00       		.byte	0
 1735 0176 00       		.byte	0
 1736 0177 1D       		.uleb128 0x1d
 1737 0178 34       		.uleb128 0x34
 1738 0179 00       		.byte	0
 1739 017a 03       		.uleb128 0x3
 1740 017b 08       		.uleb128 0x8
 1741 017c 3A       		.uleb128 0x3a
 1742 017d 0B       		.uleb128 0xb
 1743 017e 3B       		.uleb128 0x3b
 1744 017f 0B       		.uleb128 0xb
 1745 0180 49       		.uleb128 0x49
 1746 0181 13       		.uleb128 0x13
 1747 0182 02       		.uleb128 0x2
 1748 0183 17       		.uleb128 0x17
 1749 0184 00       		.byte	0
 1750 0185 00       		.byte	0
 1751 0186 1E       		.uleb128 0x1e
 1752 0187 2E       		.uleb128 0x2e
 1753 0188 00       		.byte	0
 1754 0189 3F       		.uleb128 0x3f
 1755 018a 19       		.uleb128 0x19
 1756 018b 03       		.uleb128 0x3
 1757 018c 0E       		.uleb128 0xe
 1758 018d 3A       		.uleb128 0x3a
 1759 018e 0B       		.uleb128 0xb
 1760 018f 3B       		.uleb128 0x3b
 1761 0190 0B       		.uleb128 0xb
 1762 0191 27       		.uleb128 0x27
 1763 0192 19       		.uleb128 0x19
ARM GAS  /var/folders/qh/xwg3v3kj02qbxczjpdb8lzfr0000gn/T//cctp6d50.s 			page 32


 1764 0193 3C       		.uleb128 0x3c
 1765 0194 19       		.uleb128 0x19
 1766 0195 00       		.byte	0
 1767 0196 00       		.byte	0
 1768 0197 1F       		.uleb128 0x1f
 1769 0198 2E       		.uleb128 0x2e
 1770 0199 01       		.byte	0x1
 1771 019a 3F       		.uleb128 0x3f
 1772 019b 19       		.uleb128 0x19
 1773 019c 03       		.uleb128 0x3
 1774 019d 0E       		.uleb128 0xe
 1775 019e 3A       		.uleb128 0x3a
 1776 019f 0B       		.uleb128 0xb
 1777 01a0 3B       		.uleb128 0x3b
 1778 01a1 0B       		.uleb128 0xb
 1779 01a2 27       		.uleb128 0x27
 1780 01a3 19       		.uleb128 0x19
 1781 01a4 3C       		.uleb128 0x3c
 1782 01a5 19       		.uleb128 0x19
 1783 01a6 01       		.uleb128 0x1
 1784 01a7 13       		.uleb128 0x13
 1785 01a8 00       		.byte	0
 1786 01a9 00       		.byte	0
 1787 01aa 20       		.uleb128 0x20
 1788 01ab 2E       		.uleb128 0x2e
 1789 01ac 01       		.byte	0x1
 1790 01ad 3F       		.uleb128 0x3f
 1791 01ae 19       		.uleb128 0x19
 1792 01af 03       		.uleb128 0x3
 1793 01b0 0E       		.uleb128 0xe
 1794 01b1 3A       		.uleb128 0x3a
 1795 01b2 0B       		.uleb128 0xb
 1796 01b3 3B       		.uleb128 0x3b
 1797 01b4 0B       		.uleb128 0xb
 1798 01b5 27       		.uleb128 0x27
 1799 01b6 19       		.uleb128 0x19
 1800 01b7 49       		.uleb128 0x49
 1801 01b8 13       		.uleb128 0x13
 1802 01b9 3C       		.uleb128 0x3c
 1803 01ba 19       		.uleb128 0x19
 1804 01bb 01       		.uleb128 0x1
 1805 01bc 13       		.uleb128 0x13
 1806 01bd 00       		.byte	0
 1807 01be 00       		.byte	0
 1808 01bf 21       		.uleb128 0x21
 1809 01c0 2E       		.uleb128 0x2e
 1810 01c1 01       		.byte	0x1
 1811 01c2 3F       		.uleb128 0x3f
 1812 01c3 19       		.uleb128 0x19
 1813 01c4 03       		.uleb128 0x3
 1814 01c5 0E       		.uleb128 0xe
 1815 01c6 3A       		.uleb128 0x3a
 1816 01c7 0B       		.uleb128 0xb
 1817 01c8 3B       		.uleb128 0x3b
 1818 01c9 05       		.uleb128 0x5
 1819 01ca 27       		.uleb128 0x27
 1820 01cb 19       		.uleb128 0x19
ARM GAS  /var/folders/qh/xwg3v3kj02qbxczjpdb8lzfr0000gn/T//cctp6d50.s 			page 33


 1821 01cc 49       		.uleb128 0x49
 1822 01cd 13       		.uleb128 0x13
 1823 01ce 3C       		.uleb128 0x3c
 1824 01cf 19       		.uleb128 0x19
 1825 01d0 01       		.uleb128 0x1
 1826 01d1 13       		.uleb128 0x13
 1827 01d2 00       		.byte	0
 1828 01d3 00       		.byte	0
 1829 01d4 22       		.uleb128 0x22
 1830 01d5 2E       		.uleb128 0x2e
 1831 01d6 01       		.byte	0x1
 1832 01d7 3F       		.uleb128 0x3f
 1833 01d8 19       		.uleb128 0x19
 1834 01d9 03       		.uleb128 0x3
 1835 01da 0E       		.uleb128 0xe
 1836 01db 3A       		.uleb128 0x3a
 1837 01dc 0B       		.uleb128 0xb
 1838 01dd 3B       		.uleb128 0x3b
 1839 01de 0B       		.uleb128 0xb
 1840 01df 27       		.uleb128 0x27
 1841 01e0 19       		.uleb128 0x19
 1842 01e1 49       		.uleb128 0x49
 1843 01e2 13       		.uleb128 0x13
 1844 01e3 3C       		.uleb128 0x3c
 1845 01e4 19       		.uleb128 0x19
 1846 01e5 00       		.byte	0
 1847 01e6 00       		.byte	0
 1848 01e7 00       		.byte	0
 1849              		.section	.debug_loc,"",%progbits
 1850              	.Ldebug_loc0:
 1851              	.LLST0:
 1852 0000 00000000 		.4byte	.LVL0
 1853 0004 09000000 		.4byte	.LVL1-1
 1854 0008 0100     		.2byte	0x1
 1855 000a 50       		.byte	0x50
 1856 000b 09000000 		.4byte	.LVL1-1
 1857 000f 18000000 		.4byte	.LVL3
 1858 0013 0100     		.2byte	0x1
 1859 0015 54       		.byte	0x54
 1860 0016 18000000 		.4byte	.LVL3
 1861 001a 1A000000 		.4byte	.LFE7
 1862 001e 0100     		.2byte	0x1
 1863 0020 50       		.byte	0x50
 1864 0021 00000000 		.4byte	0
 1865 0025 00000000 		.4byte	0
 1866              	.LLST1:
 1867 0029 00000000 		.4byte	.LVL4
 1868 002d 09000000 		.4byte	.LVL5-1
 1869 0031 0100     		.2byte	0x1
 1870 0033 50       		.byte	0x50
 1871 0034 09000000 		.4byte	.LVL5-1
 1872 0038 22000000 		.4byte	.LVL8
 1873 003c 0100     		.2byte	0x1
 1874 003e 54       		.byte	0x54
 1875 003f 22000000 		.4byte	.LVL8
 1876 0043 24000000 		.4byte	.LVL10
 1877 0047 0400     		.2byte	0x4
ARM GAS  /var/folders/qh/xwg3v3kj02qbxczjpdb8lzfr0000gn/T//cctp6d50.s 			page 34


 1878 0049 F3       		.byte	0xf3
 1879 004a 01       		.uleb128 0x1
 1880 004b 50       		.byte	0x50
 1881 004c 9F       		.byte	0x9f
 1882 004d 24000000 		.4byte	.LVL10
 1883 0051 58000000 		.4byte	.LFE8
 1884 0055 0100     		.2byte	0x1
 1885 0057 54       		.byte	0x54
 1886 0058 00000000 		.4byte	0
 1887 005c 00000000 		.4byte	0
 1888              	.LLST2:
 1889 0060 12000000 		.4byte	.LVL6
 1890 0064 22000000 		.4byte	.LVL9
 1891 0068 0100     		.2byte	0x1
 1892 006a 55       		.byte	0x55
 1893 006b 24000000 		.4byte	.LVL10
 1894 006f 58000000 		.4byte	.LFE8
 1895 0073 0100     		.2byte	0x1
 1896 0075 55       		.byte	0x55
 1897 0076 00000000 		.4byte	0
 1898 007a 00000000 		.4byte	0
 1899              	.LLST3:
 1900 007e 00000000 		.4byte	.LVL13
 1901 0082 0D000000 		.4byte	.LVL14-1
 1902 0086 0100     		.2byte	0x1
 1903 0088 50       		.byte	0x50
 1904 0089 0D000000 		.4byte	.LVL14-1
 1905 008d 44000000 		.4byte	.LFE9
 1906 0091 0400     		.2byte	0x4
 1907 0093 F3       		.byte	0xf3
 1908 0094 01       		.uleb128 0x1
 1909 0095 50       		.byte	0x50
 1910 0096 9F       		.byte	0x9f
 1911 0097 00000000 		.4byte	0
 1912 009b 00000000 		.4byte	0
 1913              	.LLST4:
 1914 009f 00000000 		.4byte	.LVL13
 1915 00a3 0D000000 		.4byte	.LVL14-1
 1916 00a7 0100     		.2byte	0x1
 1917 00a9 51       		.byte	0x51
 1918 00aa 0D000000 		.4byte	.LVL14-1
 1919 00ae 30000000 		.4byte	.LVL18
 1920 00b2 0100     		.2byte	0x1
 1921 00b4 54       		.byte	0x54
 1922 00b5 30000000 		.4byte	.LVL18
 1923 00b9 40000000 		.4byte	.LVL25
 1924 00bd 0400     		.2byte	0x4
 1925 00bf F3       		.byte	0xf3
 1926 00c0 01       		.uleb128 0x1
 1927 00c1 51       		.byte	0x51
 1928 00c2 9F       		.byte	0x9f
 1929 00c3 40000000 		.4byte	.LVL25
 1930 00c7 44000000 		.4byte	.LFE9
 1931 00cb 0100     		.2byte	0x1
 1932 00cd 54       		.byte	0x54
 1933 00ce 00000000 		.4byte	0
 1934 00d2 00000000 		.4byte	0
ARM GAS  /var/folders/qh/xwg3v3kj02qbxczjpdb8lzfr0000gn/T//cctp6d50.s 			page 35


 1935              	.LLST5:
 1936 00d6 00000000 		.4byte	.LVL13
 1937 00da 0D000000 		.4byte	.LVL14-1
 1938 00de 0100     		.2byte	0x1
 1939 00e0 52       		.byte	0x52
 1940 00e1 0D000000 		.4byte	.LVL14-1
 1941 00e5 3E000000 		.4byte	.LVL24
 1942 00e9 0100     		.2byte	0x1
 1943 00eb 57       		.byte	0x57
 1944 00ec 3E000000 		.4byte	.LVL24
 1945 00f0 40000000 		.4byte	.LVL25
 1946 00f4 0400     		.2byte	0x4
 1947 00f6 F3       		.byte	0xf3
 1948 00f7 01       		.uleb128 0x1
 1949 00f8 52       		.byte	0x52
 1950 00f9 9F       		.byte	0x9f
 1951 00fa 40000000 		.4byte	.LVL25
 1952 00fe 44000000 		.4byte	.LFE9
 1953 0102 0100     		.2byte	0x1
 1954 0104 57       		.byte	0x57
 1955 0105 00000000 		.4byte	0
 1956 0109 00000000 		.4byte	0
 1957              	.LLST6:
 1958 010d 00000000 		.4byte	.LVL13
 1959 0111 0D000000 		.4byte	.LVL14-1
 1960 0115 0100     		.2byte	0x1
 1961 0117 53       		.byte	0x53
 1962 0118 0D000000 		.4byte	.LVL14-1
 1963 011c 3E000000 		.4byte	.LVL23
 1964 0120 0100     		.2byte	0x1
 1965 0122 56       		.byte	0x56
 1966 0123 3E000000 		.4byte	.LVL23
 1967 0127 40000000 		.4byte	.LVL25
 1968 012b 0400     		.2byte	0x4
 1969 012d F3       		.byte	0xf3
 1970 012e 01       		.uleb128 0x1
 1971 012f 53       		.byte	0x53
 1972 0130 9F       		.byte	0x9f
 1973 0131 40000000 		.4byte	.LVL25
 1974 0135 44000000 		.4byte	.LFE9
 1975 0139 0100     		.2byte	0x1
 1976 013b 56       		.byte	0x56
 1977 013c 00000000 		.4byte	0
 1978 0140 00000000 		.4byte	0
 1979              	.LLST7:
 1980 0144 10000000 		.4byte	.LVL15
 1981 0148 17000000 		.4byte	.LVL16-1
 1982 014c 0100     		.2byte	0x1
 1983 014e 50       		.byte	0x50
 1984 014f 17000000 		.4byte	.LVL16-1
 1985 0153 3E000000 		.4byte	.LVL22
 1986 0157 0100     		.2byte	0x1
 1987 0159 55       		.byte	0x55
 1988 015a 40000000 		.4byte	.LVL25
 1989 015e 42000000 		.4byte	.LVL26
 1990 0162 0100     		.2byte	0x1
 1991 0164 50       		.byte	0x50
ARM GAS  /var/folders/qh/xwg3v3kj02qbxczjpdb8lzfr0000gn/T//cctp6d50.s 			page 36


 1992 0165 42000000 		.4byte	.LVL26
 1993 0169 44000000 		.4byte	.LFE9
 1994 016d 0100     		.2byte	0x1
 1995 016f 55       		.byte	0x55
 1996 0170 00000000 		.4byte	0
 1997 0174 00000000 		.4byte	0
 1998              	.LLST8:
 1999 0178 30000000 		.4byte	.LVL18
 2000 017c 33000000 		.4byte	.LVL19-1
 2001 0180 0100     		.2byte	0x1
 2002 0182 50       		.byte	0x50
 2003 0183 33000000 		.4byte	.LVL19-1
 2004 0187 3C000000 		.4byte	.LVL21
 2005 018b 0100     		.2byte	0x1
 2006 018d 54       		.byte	0x54
 2007 018e 00000000 		.4byte	0
 2008 0192 00000000 		.4byte	0
 2009              	.LLST9:
 2010 0196 00000000 		.4byte	.LVL27
 2011 019a 13000000 		.4byte	.LVL28-1
 2012 019e 0100     		.2byte	0x1
 2013 01a0 50       		.byte	0x50
 2014 01a1 13000000 		.4byte	.LVL28-1
 2015 01a5 46000000 		.4byte	.LVL36
 2016 01a9 0100     		.2byte	0x1
 2017 01ab 55       		.byte	0x55
 2018 01ac 46000000 		.4byte	.LVL36
 2019 01b0 4C000000 		.4byte	.LVL40
 2020 01b4 0400     		.2byte	0x4
 2021 01b6 F3       		.byte	0xf3
 2022 01b7 01       		.uleb128 0x1
 2023 01b8 50       		.byte	0x50
 2024 01b9 9F       		.byte	0x9f
 2025 01ba 4C000000 		.4byte	.LVL40
 2026 01be 50000000 		.4byte	.LFE10
 2027 01c2 0100     		.2byte	0x1
 2028 01c4 55       		.byte	0x55
 2029 01c5 00000000 		.4byte	0
 2030 01c9 00000000 		.4byte	0
 2031              	.LLST10:
 2032 01cd 00000000 		.4byte	.LVL27
 2033 01d1 13000000 		.4byte	.LVL28-1
 2034 01d5 0100     		.2byte	0x1
 2035 01d7 51       		.byte	0x51
 2036 01d8 13000000 		.4byte	.LVL28-1
 2037 01dc 46000000 		.4byte	.LVL38
 2038 01e0 0100     		.2byte	0x1
 2039 01e2 57       		.byte	0x57
 2040 01e3 46000000 		.4byte	.LVL38
 2041 01e7 4C000000 		.4byte	.LVL40
 2042 01eb 0400     		.2byte	0x4
 2043 01ed F3       		.byte	0xf3
 2044 01ee 01       		.uleb128 0x1
 2045 01ef 51       		.byte	0x51
 2046 01f0 9F       		.byte	0x9f
 2047 01f1 4C000000 		.4byte	.LVL40
 2048 01f5 50000000 		.4byte	.LFE10
ARM GAS  /var/folders/qh/xwg3v3kj02qbxczjpdb8lzfr0000gn/T//cctp6d50.s 			page 37


 2049 01f9 0100     		.2byte	0x1
 2050 01fb 57       		.byte	0x57
 2051 01fc 00000000 		.4byte	0
 2052 0200 00000000 		.4byte	0
 2053              	.LLST11:
 2054 0204 00000000 		.4byte	.LVL27
 2055 0208 13000000 		.4byte	.LVL28-1
 2056 020c 0100     		.2byte	0x1
 2057 020e 52       		.byte	0x52
 2058 020f 13000000 		.4byte	.LVL28-1
 2059 0213 46000000 		.4byte	.LVL37
 2060 0217 0100     		.2byte	0x1
 2061 0219 56       		.byte	0x56
 2062 021a 46000000 		.4byte	.LVL37
 2063 021e 4C000000 		.4byte	.LVL40
 2064 0222 0400     		.2byte	0x4
 2065 0224 F3       		.byte	0xf3
 2066 0225 01       		.uleb128 0x1
 2067 0226 52       		.byte	0x52
 2068 0227 9F       		.byte	0x9f
 2069 0228 4C000000 		.4byte	.LVL40
 2070 022c 50000000 		.4byte	.LFE10
 2071 0230 0100     		.2byte	0x1
 2072 0232 56       		.byte	0x56
 2073 0233 00000000 		.4byte	0
 2074 0237 00000000 		.4byte	0
 2075              	.LLST12:
 2076 023b 00000000 		.4byte	.LVL27
 2077 023f 13000000 		.4byte	.LVL28-1
 2078 0243 0100     		.2byte	0x1
 2079 0245 53       		.byte	0x53
 2080 0246 13000000 		.4byte	.LVL28-1
 2081 024a 46000000 		.4byte	.LVL39
 2082 024e 0100     		.2byte	0x1
 2083 0250 58       		.byte	0x58
 2084 0251 46000000 		.4byte	.LVL39
 2085 0255 4C000000 		.4byte	.LVL40
 2086 0259 0400     		.2byte	0x4
 2087 025b F3       		.byte	0xf3
 2088 025c 01       		.uleb128 0x1
 2089 025d 53       		.byte	0x53
 2090 025e 9F       		.byte	0x9f
 2091 025f 4C000000 		.4byte	.LVL40
 2092 0263 50000000 		.4byte	.LFE10
 2093 0267 0100     		.2byte	0x1
 2094 0269 58       		.byte	0x58
 2095 026a 00000000 		.4byte	0
 2096 026e 00000000 		.4byte	0
 2097              	.LLST13:
 2098 0272 16000000 		.4byte	.LVL29
 2099 0276 1D000000 		.4byte	.LVL30-1
 2100 027a 0100     		.2byte	0x1
 2101 027c 50       		.byte	0x50
 2102 027d 1D000000 		.4byte	.LVL30-1
 2103 0281 38000000 		.4byte	.LVL32
 2104 0285 0100     		.2byte	0x1
 2105 0287 54       		.byte	0x54
ARM GAS  /var/folders/qh/xwg3v3kj02qbxczjpdb8lzfr0000gn/T//cctp6d50.s 			page 38


 2106 0288 4C000000 		.4byte	.LVL40
 2107 028c 4E000000 		.4byte	.LVL41
 2108 0290 0100     		.2byte	0x1
 2109 0292 50       		.byte	0x50
 2110 0293 4E000000 		.4byte	.LVL41
 2111 0297 50000000 		.4byte	.LFE10
 2112 029b 0100     		.2byte	0x1
 2113 029d 54       		.byte	0x54
 2114 029e 00000000 		.4byte	0
 2115 02a2 00000000 		.4byte	0
 2116              	.LLST14:
 2117 02a6 38000000 		.4byte	.LVL32
 2118 02aa 3B000000 		.4byte	.LVL33-1
 2119 02ae 0100     		.2byte	0x1
 2120 02b0 50       		.byte	0x50
 2121 02b1 3B000000 		.4byte	.LVL33-1
 2122 02b5 44000000 		.4byte	.LVL35
 2123 02b9 0100     		.2byte	0x1
 2124 02bb 54       		.byte	0x54
 2125 02bc 00000000 		.4byte	0
 2126 02c0 00000000 		.4byte	0
 2127              		.section	.debug_aranges,"",%progbits
 2128 0000 34000000 		.4byte	0x34
 2129 0004 0200     		.2byte	0x2
 2130 0006 00000000 		.4byte	.Ldebug_info0
 2131 000a 04       		.byte	0x4
 2132 000b 00       		.byte	0
 2133 000c 0000     		.2byte	0
 2134 000e 0000     		.2byte	0
 2135 0010 00000000 		.4byte	.LFB7
 2136 0014 1A000000 		.4byte	.LFE7-.LFB7
 2137 0018 00000000 		.4byte	.LFB8
 2138 001c 58000000 		.4byte	.LFE8-.LFB8
 2139 0020 00000000 		.4byte	.LFB9
 2140 0024 44000000 		.4byte	.LFE9-.LFB9
 2141 0028 00000000 		.4byte	.LFB10
 2142 002c 50000000 		.4byte	.LFE10-.LFB10
 2143 0030 00000000 		.4byte	0
 2144 0034 00000000 		.4byte	0
 2145              		.section	.debug_ranges,"",%progbits
 2146              	.Ldebug_ranges0:
 2147 0000 00000000 		.4byte	.LFB7
 2148 0004 1A000000 		.4byte	.LFE7
 2149 0008 00000000 		.4byte	.LFB8
 2150 000c 58000000 		.4byte	.LFE8
 2151 0010 00000000 		.4byte	.LFB9
 2152 0014 44000000 		.4byte	.LFE9
 2153 0018 00000000 		.4byte	.LFB10
 2154 001c 50000000 		.4byte	.LFE10
 2155 0020 00000000 		.4byte	0
 2156 0024 00000000 		.4byte	0
 2157              		.section	.debug_line,"",%progbits
 2158              	.Ldebug_line0:
 2159 0000 31020000 		.section	.debug_str,"MS",%progbits,1
 2159      0200A201 
 2159      00000201 
 2159      FB0E0D00 
ARM GAS  /var/folders/qh/xwg3v3kj02qbxczjpdb8lzfr0000gn/T//cctp6d50.s 			page 39


 2159      01010101 
 2160              	.LASF75:
 2161 0000 7466756E 		.ascii	"tfunc_t\000"
 2161      635F7400 
 2162              	.LASF38:
 2163 0008 705F6D73 		.ascii	"p_msg\000"
 2163      6700
 2164              	.LASF91:
 2165 000e 2E2E2F2E 		.ascii	"../../os/kernel/src/chdynamic.c\000"
 2165      2E2F6F73 
 2165      2F6B6572 
 2165      6E656C2F 
 2165      7372632F 
 2166              	.LASF2:
 2167 002e 73697A65 		.ascii	"size_t\000"
 2167      5F7400
 2168              	.LASF70:
 2169 0035 7264796D 		.ascii	"rdymsg\000"
 2169      736700
 2170              	.LASF12:
 2171 003c 75696E74 		.ascii	"uint64_t\000"
 2171      36345F74 
 2171      00
 2172              	.LASF69:
 2173 0045 4D656D6F 		.ascii	"MemoryPool\000"
 2173      7279506F 
 2173      6F6C00
 2174              	.LASF54:
 2175 0050 6D656D67 		.ascii	"memgetfunc_t\000"
 2175      65746675 
 2175      6E635F74 
 2175      00
 2176              	.LASF13:
 2177 005d 6C6F6E67 		.ascii	"long long unsigned int\000"
 2177      206C6F6E 
 2177      6720756E 
 2177      7369676E 
 2177      65642069 
 2178              	.LASF71:
 2179 0074 65786974 		.ascii	"exitcode\000"
 2179      636F6465 
 2179      00
 2180              	.LASF58:
 2181 007d 685F6672 		.ascii	"h_free\000"
 2181      656500
 2182              	.LASF78:
 2183 0084 68656170 		.ascii	"heapp\000"
 2183      7000
 2184              	.LASF60:
 2185 008a 6E657874 		.ascii	"next\000"
 2185      00
 2186              	.LASF26:
 2187 008f 705F7072 		.ascii	"p_prio\000"
 2187      696F00
 2188              	.LASF11:
 2189 0096 6C6F6E67 		.ascii	"long long int\000"
 2189      206C6F6E 
ARM GAS  /var/folders/qh/xwg3v3kj02qbxczjpdb8lzfr0000gn/T//cctp6d50.s 			page 40


 2189      6720696E 
 2189      7400
 2190              	.LASF1:
 2191 00a4 7369676E 		.ascii	"signed char\000"
 2191      65642063 
 2191      68617200 
 2192              	.LASF59:
 2193 00b0 685F6D74 		.ascii	"h_mtx\000"
 2193      7800
 2194              	.LASF42:
 2195 00b6 705F6D70 		.ascii	"p_mpool\000"
 2195      6F6F6C00 
 2196              	.LASF51:
 2197 00be 6D5F7175 		.ascii	"m_queue\000"
 2197      65756500 
 2198              	.LASF85:
 2199 00c6 63684865 		.ascii	"chHeapFree\000"
 2199      61704672 
 2199      656500
 2200              	.LASF18:
 2201 00d1 74736C69 		.ascii	"tslices_t\000"
 2201      6365735F 
 2201      7400
 2202              	.LASF87:
 2203 00db 63685468 		.ascii	"chThdCreateI\000"
 2203      64437265 
 2203      61746549 
 2203      00
 2204              	.LASF8:
 2205 00e8 6C6F6E67 		.ascii	"long int\000"
 2205      20696E74 
 2205      00
 2206              	.LASF77:
 2207 00f1 63685468 		.ascii	"chThdCreateFromHeap\000"
 2207      64437265 
 2207      61746546 
 2207      726F6D48 
 2207      65617000 
 2208              	.LASF16:
 2209 0105 74737461 		.ascii	"tstate_t\000"
 2209      74655F74 
 2209      00
 2210              	.LASF66:
 2211 010e 6D705F6E 		.ascii	"mp_next\000"
 2211      65787400 
 2212              	.LASF28:
 2213 0116 705F6E65 		.ascii	"p_newer\000"
 2213      77657200 
 2214              	.LASF81:
 2215 011e 63685468 		.ascii	"chThdCreateFromMemoryPool\000"
 2215      64437265 
 2215      61746546 
 2215      726F6D4D 
 2215      656D6F72 
 2216              	.LASF68:
 2217 0138 6D705F70 		.ascii	"mp_provider\000"
 2217      726F7669 
ARM GAS  /var/folders/qh/xwg3v3kj02qbxczjpdb8lzfr0000gn/T//cctp6d50.s 			page 41


 2217      64657200 
 2218              	.LASF45:
 2219 0144 72656761 		.ascii	"regarm_t\000"
 2219      726D5F74 
 2219      00
 2220              	.LASF62:
 2221 014d 616C6967 		.ascii	"align\000"
 2221      6E00
 2222              	.LASF0:
 2223 0153 756E7369 		.ascii	"unsigned int\000"
 2223      676E6564 
 2223      20696E74 
 2223      00
 2224              	.LASF10:
 2225 0160 6C6F6E67 		.ascii	"long unsigned int\000"
 2225      20756E73 
 2225      69676E65 
 2225      6420696E 
 2225      7400
 2226              	.LASF92:
 2227 0172 2F557365 		.ascii	"/Users/John/Development/embedded/ChibiOS-RT/BluC/ST"
 2227      72732F4A 
 2227      6F686E2F 
 2227      44657665 
 2227      6C6F706D 
 2228 01a5 4D333246 		.ascii	"M32F051\000"
 2228      30353100 
 2229              	.LASF48:
 2230 01ad 636F6E74 		.ascii	"context\000"
 2230      65787400 
 2231              	.LASF63:
 2232 01b5 73697A65 		.ascii	"size\000"
 2232      00
 2233              	.LASF6:
 2234 01ba 73686F72 		.ascii	"short unsigned int\000"
 2234      7420756E 
 2234      7369676E 
 2234      65642069 
 2234      6E7400
 2235              	.LASF20:
 2236 01cd 6D73675F 		.ascii	"msg_t\000"
 2236      7400
 2237              	.LASF15:
 2238 01d3 746D6F64 		.ascii	"tmode_t\000"
 2238      655F7400 
 2239              	.LASF44:
 2240 01db 54687265 		.ascii	"ThreadsList\000"
 2240      6164734C 
 2240      69737400 
 2241              	.LASF21:
 2242 01e7 6576656E 		.ascii	"eventmask_t\000"
 2242      746D6173 
 2242      6B5F7400 
 2243              	.LASF50:
 2244 01f3 4D757465 		.ascii	"Mutex\000"
 2244      7800
 2245              	.LASF76:
ARM GAS  /var/folders/qh/xwg3v3kj02qbxczjpdb8lzfr0000gn/T//cctp6d50.s 			page 42


 2246 01f9 63685468 		.ascii	"chThdAddRef\000"
 2246      64416464 
 2246      52656600 
 2247              	.LASF46:
 2248 0205 73746B61 		.ascii	"stkalign_t\000"
 2248      6C69676E 
 2248      5F7400
 2249              	.LASF49:
 2250 0210 73697A65 		.ascii	"sizetype\000"
 2250      74797065 
 2250      00
 2251              	.LASF90:
 2252 0219 474E5520 		.ascii	"GNU C 4.8.3 20131129 (release) [ARM/embedded-4_8-br"
 2252      4320342E 
 2252      382E3320 
 2252      32303133 
 2252      31313239 
 2253 024c 616E6368 		.ascii	"anch revision 205641] -mcpu=cortex-m0 -mno-thumb-in"
 2253      20726576 
 2253      6973696F 
 2253      6E203230 
 2253      35363431 
 2254 027f 74657277 		.ascii	"terwork -mthumb -ggdb -O2 -fomit-frame-pointer -fal"
 2254      6F726B20 
 2254      2D6D7468 
 2254      756D6220 
 2254      2D676764 
 2255 02b2 69676E2D 		.ascii	"ign-functions=16 -ffunction-sections -fdata-section"
 2255      66756E63 
 2255      74696F6E 
 2255      733D3136 
 2255      202D6666 
 2256 02e5 73202D66 		.ascii	"s -fno-common\000"
 2256      6E6F2D63 
 2256      6F6D6D6F 
 2256      6E00
 2257              	.LASF29:
 2258 02f3 705F6F6C 		.ascii	"p_older\000"
 2258      64657200 
 2259              	.LASF43:
 2260 02fb 54687265 		.ascii	"ThreadsQueue\000"
 2260      61647351 
 2260      75657565 
 2260      00
 2261              	.LASF67:
 2262 0308 6D705F6F 		.ascii	"mp_object_size\000"
 2262      626A6563 
 2262      745F7369 
 2262      7A6500
 2263              	.LASF79:
 2264 0317 7072696F 		.ascii	"prio\000"
 2264      00
 2265              	.LASF82:
 2266 031c 6462675F 		.ascii	"dbg_check_lock\000"
 2266      63686563 
 2266      6B5F6C6F 
 2266      636B00
ARM GAS  /var/folders/qh/xwg3v3kj02qbxczjpdb8lzfr0000gn/T//cctp6d50.s 			page 43


 2267              	.LASF83:
 2268 032b 6462675F 		.ascii	"dbg_check_unlock\000"
 2268      63686563 
 2268      6B5F756E 
 2268      6C6F636B 
 2268      00
 2269              	.LASF55:
 2270 033c 4D656D6F 		.ascii	"MemoryHeap\000"
 2270      72794865 
 2270      617000
 2271              	.LASF65:
 2272 0347 70685F6E 		.ascii	"ph_next\000"
 2272      65787400 
 2273              	.LASF17:
 2274 034f 74726566 		.ascii	"trefs_t\000"
 2274      735F7400 
 2275              	.LASF80:
 2276 0357 72656673 		.ascii	"refs\000"
 2276      00
 2277              	.LASF25:
 2278 035c 705F7072 		.ascii	"p_prev\000"
 2278      657600
 2279              	.LASF19:
 2280 0363 74707269 		.ascii	"tprio_t\000"
 2280      6F5F7400 
 2281              	.LASF14:
 2282 036b 5F426F6F 		.ascii	"_Bool\000"
 2282      6C00
 2283              	.LASF7:
 2284 0371 696E7433 		.ascii	"int32_t\000"
 2284      325F7400 
 2285              	.LASF4:
 2286 0379 756E7369 		.ascii	"unsigned char\000"
 2286      676E6564 
 2286      20636861 
 2286      7200
 2287              	.LASF57:
 2288 0387 685F7072 		.ascii	"h_provider\000"
 2288      6F766964 
 2288      657200
 2289              	.LASF40:
 2290 0392 705F6D74 		.ascii	"p_mtxlist\000"
 2290      786C6973 
 2290      7400
 2291              	.LASF5:
 2292 039c 73686F72 		.ascii	"short int\000"
 2292      7420696E 
 2292      7400
 2293              	.LASF31:
 2294 03a6 705F7374 		.ascii	"p_state\000"
 2294      61746500 
 2295              	.LASF34:
 2296 03ae 705F7072 		.ascii	"p_preempt\000"
 2296      65656D70 
 2296      7400
 2297              	.LASF93:
 2298 03b8 68656170 		.ascii	"heap_header\000"
ARM GAS  /var/folders/qh/xwg3v3kj02qbxczjpdb8lzfr0000gn/T//cctp6d50.s 			page 44


 2298      5F686561 
 2298      64657200 
 2299              	.LASF73:
 2300 03c4 65776D61 		.ascii	"ewmask\000"
 2300      736B00
 2301              	.LASF24:
 2302 03cb 705F6E65 		.ascii	"p_next\000"
 2302      787400
 2303              	.LASF32:
 2304 03d2 705F666C 		.ascii	"p_flags\000"
 2304      61677300 
 2305              	.LASF94:
 2306 03da 63685468 		.ascii	"chThdRelease\000"
 2306      6452656C 
 2306      65617365 
 2306      00
 2307              	.LASF23:
 2308 03e7 54687265 		.ascii	"Thread\000"
 2308      616400
 2309              	.LASF86:
 2310 03ee 63684865 		.ascii	"chHeapAlloc\000"
 2310      6170416C 
 2310      6C6F6300 
 2311              	.LASF39:
 2312 03fa 705F6570 		.ascii	"p_epending\000"
 2312      656E6469 
 2312      6E6700
 2313              	.LASF9:
 2314 0405 75696E74 		.ascii	"uint32_t\000"
 2314      33325F74 
 2314      00
 2315              	.LASF61:
 2316 040e 68656170 		.ascii	"heap\000"
 2316      00
 2317              	.LASF74:
 2318 0413 63686172 		.ascii	"char\000"
 2318      00
 2319              	.LASF53:
 2320 0418 6D5F6E65 		.ascii	"m_next\000"
 2320      787400
 2321              	.LASF22:
 2322 041f 73797374 		.ascii	"systime_t\000"
 2322      696D655F 
 2322      7400
 2323              	.LASF41:
 2324 0429 705F7265 		.ascii	"p_realprio\000"
 2324      616C7072 
 2324      696F00
 2325              	.LASF35:
 2326 0434 705F7469 		.ascii	"p_time\000"
 2326      6D6500
 2327              	.LASF47:
 2328 043b 696E7463 		.ascii	"intctx\000"
 2328      747800
 2329              	.LASF37:
 2330 0442 705F6D73 		.ascii	"p_msgqueue\000"
 2330      67717565 
ARM GAS  /var/folders/qh/xwg3v3kj02qbxczjpdb8lzfr0000gn/T//cctp6d50.s 			page 45


 2330      756500
 2331              	.LASF88:
 2332 044d 63685363 		.ascii	"chSchWakeupS\000"
 2332      6857616B 
 2332      65757053 
 2332      00
 2333              	.LASF64:
 2334 045a 706F6F6C 		.ascii	"pool_header\000"
 2334      5F686561 
 2334      64657200 
 2335              	.LASF33:
 2336 0466 705F7265 		.ascii	"p_refs\000"
 2336      667300
 2337              	.LASF3:
 2338 046d 75696E74 		.ascii	"uint8_t\000"
 2338      385F7400 
 2339              	.LASF89:
 2340 0475 6368506F 		.ascii	"chPoolAlloc\000"
 2340      6F6C416C 
 2340      6C6F6300 
 2341              	.LASF84:
 2342 0481 6368506F 		.ascii	"chPoolFree\000"
 2342      6F6C4672 
 2342      656500
 2343              	.LASF72:
 2344 048c 77746F62 		.ascii	"wtobjp\000"
 2344      6A7000
 2345              	.LASF30:
 2346 0493 705F6E61 		.ascii	"p_name\000"
 2346      6D6500
 2347              	.LASF52:
 2348 049a 6D5F6F77 		.ascii	"m_owner\000"
 2348      6E657200 
 2349              	.LASF27:
 2350 04a2 705F6374 		.ascii	"p_ctx\000"
 2350      7800
 2351              	.LASF36:
 2352 04a8 705F7761 		.ascii	"p_waiting\000"
 2352      6974696E 
 2352      6700
 2353              	.LASF56:
 2354 04b2 6D656D6F 		.ascii	"memory_heap\000"
 2354      72795F68 
 2354      65617000 
 2355              		.ident	"GCC: (GNU Tools for ARM Embedded Processors) 4.8.3 20131129 (release) [ARM/embedded-4_8-br
ARM GAS  /var/folders/qh/xwg3v3kj02qbxczjpdb8lzfr0000gn/T//cctp6d50.s 			page 46


DEFINED SYMBOLS
                            *ABS*:0000000000000000 chdynamic.c
/var/folders/qh/xwg3v3kj02qbxczjpdb8lzfr0000gn/T//cctp6d50.s:18     .text.chThdAddRef:0000000000000000 $t
/var/folders/qh/xwg3v3kj02qbxczjpdb8lzfr0000gn/T//cctp6d50.s:24     .text.chThdAddRef:0000000000000000 chThdAddRef
/var/folders/qh/xwg3v3kj02qbxczjpdb8lzfr0000gn/T//cctp6d50.s:63     .text.chThdRelease:0000000000000000 $t
/var/folders/qh/xwg3v3kj02qbxczjpdb8lzfr0000gn/T//cctp6d50.s:69     .text.chThdRelease:0000000000000000 chThdRelease
/var/folders/qh/xwg3v3kj02qbxczjpdb8lzfr0000gn/T//cctp6d50.s:161    .text.chThdCreateFromHeap:0000000000000000 $t
/var/folders/qh/xwg3v3kj02qbxczjpdb8lzfr0000gn/T//cctp6d50.s:167    .text.chThdCreateFromHeap:0000000000000000 chThdCreateFromHeap
/var/folders/qh/xwg3v3kj02qbxczjpdb8lzfr0000gn/T//cctp6d50.s:247    .text.chThdCreateFromMemoryPool:0000000000000000 $t
/var/folders/qh/xwg3v3kj02qbxczjpdb8lzfr0000gn/T//cctp6d50.s:253    .text.chThdCreateFromMemoryPool:0000000000000000 chThdCreateFromMemoryPool
                     .debug_frame:0000000000000010 $d

UNDEFINED SYMBOLS
dbg_check_lock
dbg_check_unlock
chPoolFree
chHeapFree
chHeapAlloc
chThdCreateI
chSchWakeupS
chPoolAlloc
