ARM GAS  /var/folders/qh/xwg3v3kj02qbxczjpdb8lzfr0000gn/T//ccBGUT7K.s 			page 1


   1              		.cpu cortex-m0
   2              		.fpu softvfp
   3              		.eabi_attribute 20, 1
   4              		.eabi_attribute 21, 1
   5              		.eabi_attribute 23, 3
   6              		.eabi_attribute 24, 1
   7              		.eabi_attribute 25, 1
   8              		.eabi_attribute 26, 1
   9              		.eabi_attribute 30, 2
  10              		.eabi_attribute 34, 0
  11              		.eabi_attribute 18, 4
  12              		.code	16
  13              		.file	"chevents.c"
  14              		.text
  15              	.Ltext0:
  16              		.cfi_sections	.debug_frame
  17              		.section	.text.chEvtRegisterMask,"ax",%progbits
  18              		.align	2
  19              		.p2align 4,,15
  20              		.global	chEvtRegisterMask
  21              		.code	16
  22              		.thumb_func
  23              		.type	chEvtRegisterMask, %function
  24              	chEvtRegisterMask:
  25              	.LFB7:
  26              		.file 1 "../../os/kernel/src/chevents.c"
  27              		.loc 1 78 0
  28              		.cfi_startproc
  29              	.LVL0:
  30              		.loc 1 82 0
  31              	@ 82 "../../os/kernel/src/chevents.c" 1
  32 0000 72B6     		cpsid   i
  33              	@ 0 "" 2
  34              		.loc 1 83 0
  35              		.code	16
  36 0002 0368     		ldr	r3, [r0]
  37 0004 0B60     		str	r3, [r1]
  38              		.loc 1 85 0
  39 0006 044B     		ldr	r3, .L2
  40              		.loc 1 84 0
  41 0008 0160     		str	r1, [r0]
  42              		.loc 1 85 0
  43 000a 9B69     		ldr	r3, [r3, #24]
  44              		.loc 1 86 0
  45 000c 8A60     		str	r2, [r1, #8]
  46              		.loc 1 85 0
  47 000e 4B60     		str	r3, [r1, #4]
  48              		.loc 1 87 0
  49 0010 0023     		mov	r3, #0
  50 0012 CB60     		str	r3, [r1, #12]
  51              		.loc 1 88 0
  52              	@ 88 "../../os/kernel/src/chevents.c" 1
  53 0014 62B6     		cpsie   i
  54              	@ 0 "" 2
  55              		.loc 1 89 0
  56              		.code	16
  57              		@ sp needed
ARM GAS  /var/folders/qh/xwg3v3kj02qbxczjpdb8lzfr0000gn/T//ccBGUT7K.s 			page 2


  58 0016 7047     		bx	lr
  59              	.L3:
  60              		.align	2
  61              	.L2:
  62 0018 00000000 		.word	rlist
  63              		.cfi_endproc
  64              	.LFE7:
  65              		.size	chEvtRegisterMask, .-chEvtRegisterMask
  66 001c C046C046 		.section	.text.chEvtUnregister,"ax",%progbits
  67              		.align	2
  68              		.p2align 4,,15
  69              		.global	chEvtUnregister
  70              		.code	16
  71              		.thumb_func
  72              		.type	chEvtUnregister, %function
  73              	chEvtUnregister:
  74              	.LFB8:
  75              		.loc 1 104 0
  76              		.cfi_startproc
  77              	.LVL1:
  78              		.loc 1 110 0
  79              	@ 110 "../../os/kernel/src/chevents.c" 1
  80 0000 72B6     		cpsid   i
  81              	@ 0 "" 2
  82              		.loc 1 109 0
  83              		.code	16
  84 0002 021C     		mov	r2, r0
  85              		.loc 1 111 0
  86 0004 02E0     		b	.L5
  87              	.LVL2:
  88              	.L8:
  89              		.loc 1 112 0
  90 0006 9942     		cmp	r1, r3
  91 0008 05D0     		beq	.L10
  92 000a 1A1C     		mov	r2, r3
  93              	.LVL3:
  94              	.L5:
  95              		.loc 1 111 0 discriminator 1
  96 000c 1368     		ldr	r3, [r2]
  97 000e 8342     		cmp	r3, r0
  98 0010 F9D1     		bne	.L8
  99              	.LVL4:
 100              	.L7:
 101              		.loc 1 118 0
 102              	@ 118 "../../os/kernel/src/chevents.c" 1
 103 0012 62B6     		cpsie   i
 104              	@ 0 "" 2
 105              		.loc 1 119 0
 106              		.code	16
 107              		@ sp needed
 108 0014 7047     		bx	lr
 109              	.LVL5:
 110              	.L10:
 111              		.loc 1 113 0
 112 0016 0968     		ldr	r1, [r1]
 113              	.LVL6:
 114 0018 1160     		str	r1, [r2]
ARM GAS  /var/folders/qh/xwg3v3kj02qbxczjpdb8lzfr0000gn/T//ccBGUT7K.s 			page 3


 115              		.loc 1 114 0
 116 001a FAE7     		b	.L7
 117              		.cfi_endproc
 118              	.LFE8:
 119              		.size	chEvtUnregister, .-chEvtUnregister
 120 001c C046C046 		.section	.text.chEvtGetAndClearEvents,"ax",%progbits
 121              		.align	2
 122              		.p2align 4,,15
 123              		.global	chEvtGetAndClearEvents
 124              		.code	16
 125              		.thumb_func
 126              		.type	chEvtGetAndClearEvents, %function
 127              	chEvtGetAndClearEvents:
 128              	.LFB9:
 129              		.loc 1 129 0
 130              		.cfi_startproc
 131              	.LVL7:
 132              		.loc 1 132 0
 133              	@ 132 "../../os/kernel/src/chevents.c" 1
 134 0000 72B6     		cpsid   i
 135              	@ 0 "" 2
 136              		.loc 1 134 0
 137              		.code	16
 138 0002 044B     		ldr	r3, .L12
 139 0004 9A69     		ldr	r2, [r3, #24]
 140 0006 936B     		ldr	r3, [r2, #56]
 141              	.LVL8:
 142              		.loc 1 135 0
 143 0008 191C     		mov	r1, r3
 144 000a 8143     		bic	r1, r0
 145 000c 9163     		str	r1, [r2, #56]
 146              		.loc 1 137 0
 147              	@ 137 "../../os/kernel/src/chevents.c" 1
 148 000e 62B6     		cpsie   i
 149              	@ 0 "" 2
 150              		.loc 1 134 0
 151              		.code	16
 152 0010 1840     		and	r0, r3
 153              	.LVL9:
 154              		.loc 1 139 0
 155              		@ sp needed
 156 0012 7047     		bx	lr
 157              	.L13:
 158              		.align	2
 159              	.L12:
 160 0014 00000000 		.word	rlist
 161              		.cfi_endproc
 162              	.LFE9:
 163              		.size	chEvtGetAndClearEvents, .-chEvtGetAndClearEvents
 164 0018 C046C046 		.section	.text.chEvtAddEvents,"ax",%progbits
 164      C046C046 
 165              		.align	2
 166              		.p2align 4,,15
 167              		.global	chEvtAddEvents
 168              		.code	16
 169              		.thumb_func
 170              		.type	chEvtAddEvents, %function
ARM GAS  /var/folders/qh/xwg3v3kj02qbxczjpdb8lzfr0000gn/T//ccBGUT7K.s 			page 4


 171              	chEvtAddEvents:
 172              	.LFB10:
 173              		.loc 1 150 0
 174              		.cfi_startproc
 175              	.LVL10:
 176              		.loc 1 152 0
 177              	@ 152 "../../os/kernel/src/chevents.c" 1
 178 0000 72B6     		cpsid   i
 179              	@ 0 "" 2
 180              		.loc 1 154 0
 181              		.code	16
 182 0002 034B     		ldr	r3, .L15
 183 0004 9B69     		ldr	r3, [r3, #24]
 184 0006 9A6B     		ldr	r2, [r3, #56]
 185 0008 1043     		orr	r0, r2
 186              	.LVL11:
 187 000a 9863     		str	r0, [r3, #56]
 188              	.LVL12:
 189              		.loc 1 156 0
 190              	@ 156 "../../os/kernel/src/chevents.c" 1
 191 000c 62B6     		cpsie   i
 192              	@ 0 "" 2
 193              		.loc 1 158 0
 194              		.code	16
 195              		@ sp needed
 196 000e 7047     		bx	lr
 197              	.L16:
 198              		.align	2
 199              	.L15:
 200 0010 00000000 		.word	rlist
 201              		.cfi_endproc
 202              	.LFE10:
 203              		.size	chEvtAddEvents, .-chEvtAddEvents
 204 0014 C046C046 		.section	.text.chEvtGetAndClearFlags,"ax",%progbits
 204      C046C046 
 204      C046C046 
 205              		.align	2
 206              		.p2align 4,,15
 207              		.global	chEvtGetAndClearFlags
 208              		.code	16
 209              		.thumb_func
 210              		.type	chEvtGetAndClearFlags, %function
 211              	chEvtGetAndClearFlags:
 212              	.LFB12:
 213              		.loc 1 202 0
 214              		.cfi_startproc
 215              	.LVL13:
 216              		.loc 1 202 0
 217 0000 031C     		mov	r3, r0
 218              		.loc 1 205 0
 219              	@ 205 "../../os/kernel/src/chevents.c" 1
 220 0002 72B6     		cpsid   i
 221              	@ 0 "" 2
 222              		.loc 1 208 0
 223              		.code	16
 224 0004 0022     		mov	r2, #0
 225              		.loc 1 207 0
ARM GAS  /var/folders/qh/xwg3v3kj02qbxczjpdb8lzfr0000gn/T//ccBGUT7K.s 			page 5


 226 0006 C068     		ldr	r0, [r0, #12]
 227              	.LVL14:
 228              		.loc 1 208 0
 229 0008 DA60     		str	r2, [r3, #12]
 230              		.loc 1 210 0
 231              	@ 210 "../../os/kernel/src/chevents.c" 1
 232 000a 62B6     		cpsie   i
 233              	@ 0 "" 2
 234              		.loc 1 212 0
 235              		.code	16
 236              		@ sp needed
 237 000c 7047     		bx	lr
 238              		.cfi_endproc
 239              	.LFE12:
 240              		.size	chEvtGetAndClearFlags, .-chEvtGetAndClearFlags
 241 000e C046     		.section	.text.chEvtSignalI,"ax",%progbits
 242              		.align	2
 243              		.p2align 4,,15
 244              		.global	chEvtSignalI
 245              		.code	16
 246              		.thumb_func
 247              		.type	chEvtSignalI, %function
 248              	chEvtSignalI:
 249              	.LFB14:
 250              		.loc 1 244 0
 251              		.cfi_startproc
 252              	.LVL15:
 253 0000 08B5     		push	{r3, lr}
 254              		.cfi_def_cfa_offset 8
 255              		.cfi_offset 3, -8
 256              		.cfi_offset 14, -4
 257              		.loc 1 249 0
 258 0002 836B     		ldr	r3, [r0, #56]
 259 0004 1943     		orr	r1, r3
 260              	.LVL16:
 261              		.loc 1 251 0
 262 0006 037F     		ldrb	r3, [r0, #28]
 263              		.loc 1 249 0
 264 0008 8163     		str	r1, [r0, #56]
 265              		.loc 1 251 0
 266 000a 082B     		cmp	r3, #8
 267 000c 0BD0     		beq	.L23
 268              		.loc 1 252 0
 269 000e 092B     		cmp	r3, #9
 270 0010 00D0     		beq	.L24
 271              	.LVL17:
 272              	.L18:
 273              		.loc 1 256 0
 274              		@ sp needed
 275 0012 08BD     		pop	{r3, pc}
 276              	.LVL18:
 277              	.L24:
 278              		.loc 1 254 0
 279 0014 436A     		ldr	r3, [r0, #36]
 280 0016 1940     		and	r1, r3
 281              		.loc 1 253 0
 282 0018 8B42     		cmp	r3, r1
ARM GAS  /var/folders/qh/xwg3v3kj02qbxczjpdb8lzfr0000gn/T//ccBGUT7K.s 			page 6


 283 001a FAD1     		bne	.L18
 284              	.LVL19:
 285              	.LBB4:
 286              	.LBB5:
 287              		.loc 1 255 0
 288 001c FFF7FEFF 		bl	chSchReadyI
 289              	.LVL20:
 290 0020 0023     		mov	r3, #0
 291 0022 4362     		str	r3, [r0, #36]
 292 0024 F5E7     		b	.L18
 293              	.LVL21:
 294              	.L23:
 295              	.LBE5:
 296              	.LBE4:
 297              		.loc 1 251 0 discriminator 1
 298 0026 436A     		ldr	r3, [r0, #36]
 299 0028 0B42     		tst	r3, r1
 300 002a F2D0     		beq	.L18
 301              	.LVL22:
 302              	.LBB7:
 303              	.LBB6:
 304              		.loc 1 255 0
 305 002c FFF7FEFF 		bl	chSchReadyI
 306              	.LVL23:
 307 0030 0023     		mov	r3, #0
 308 0032 4362     		str	r3, [r0, #36]
 309 0034 EDE7     		b	.L18
 310              	.LBE6:
 311              	.LBE7:
 312              		.cfi_endproc
 313              	.LFE14:
 314              		.size	chEvtSignalI, .-chEvtSignalI
 315 0036 C046C046 		.section	.text.chEvtBroadcastFlagsI,"ax",%progbits
 315      C046C046 
 315      C046
 316              		.align	2
 317              		.p2align 4,,15
 318              		.global	chEvtBroadcastFlagsI
 319              		.code	16
 320              		.thumb_func
 321              		.type	chEvtBroadcastFlagsI, %function
 322              	chEvtBroadcastFlagsI:
 323              	.LFB11:
 324              		.loc 1 177 0
 325              		.cfi_startproc
 326              	.LVL24:
 327 0000 70B5     		push	{r4, r5, r6, lr}
 328              		.cfi_def_cfa_offset 16
 329              		.cfi_offset 4, -16
 330              		.cfi_offset 5, -12
 331              		.cfi_offset 6, -8
 332              		.cfi_offset 14, -4
 333              		.loc 1 183 0
 334 0002 0468     		ldr	r4, [r0]
 335              	.LVL25:
 336              		.loc 1 177 0
 337 0004 051C     		mov	r5, r0
ARM GAS  /var/folders/qh/xwg3v3kj02qbxczjpdb8lzfr0000gn/T//ccBGUT7K.s 			page 7


 338 0006 0E1C     		mov	r6, r1
 339              		.loc 1 184 0
 340 0008 A042     		cmp	r0, r4
 341 000a 09D0     		beq	.L25
 342              	.LVL26:
 343              	.L29:
 344              		.loc 1 185 0
 345 000c E368     		ldr	r3, [r4, #12]
 346              		.loc 1 186 0
 347 000e 6068     		ldr	r0, [r4, #4]
 348              		.loc 1 185 0
 349 0010 3343     		orr	r3, r6
 350 0012 E360     		str	r3, [r4, #12]
 351              		.loc 1 186 0
 352 0014 A168     		ldr	r1, [r4, #8]
 353 0016 FFF7FEFF 		bl	chEvtSignalI
 354              	.LVL27:
 355              		.loc 1 187 0
 356 001a 2468     		ldr	r4, [r4]
 357              	.LVL28:
 358              		.loc 1 184 0
 359 001c A542     		cmp	r5, r4
 360 001e F5D1     		bne	.L29
 361              	.L25:
 362              		.loc 1 189 0
 363              		@ sp needed
 364              	.LVL29:
 365              	.LVL30:
 366              	.LVL31:
 367 0020 70BD     		pop	{r4, r5, r6, pc}
 368              		.cfi_endproc
 369              	.LFE11:
 370              		.size	chEvtBroadcastFlagsI, .-chEvtBroadcastFlagsI
 371 0022 C046C046 		.section	.text.chEvtSignal,"ax",%progbits
 371      C046C046 
 371      C046C046 
 371      C046
 372              		.align	2
 373              		.p2align 4,,15
 374              		.global	chEvtSignal
 375              		.code	16
 376              		.thumb_func
 377              		.type	chEvtSignal, %function
 378              	chEvtSignal:
 379              	.LFB13:
 380              		.loc 1 222 0
 381              		.cfi_startproc
 382              	.LVL32:
 383 0000 08B5     		push	{r3, lr}
 384              		.cfi_def_cfa_offset 8
 385              		.cfi_offset 3, -8
 386              		.cfi_offset 14, -4
 387              		.loc 1 226 0
 388              	@ 226 "../../os/kernel/src/chevents.c" 1
 389 0002 72B6     		cpsid   i
 390              	@ 0 "" 2
 391              		.loc 1 227 0
ARM GAS  /var/folders/qh/xwg3v3kj02qbxczjpdb8lzfr0000gn/T//ccBGUT7K.s 			page 8


 392              		.code	16
 393 0004 FFF7FEFF 		bl	chEvtSignalI
 394              	.LVL33:
 395              		.loc 1 228 0
 396 0008 FFF7FEFF 		bl	chSchRescheduleS
 397              	.LVL34:
 398              		.loc 1 229 0
 399              	@ 229 "../../os/kernel/src/chevents.c" 1
 400 000c 62B6     		cpsie   i
 401              	@ 0 "" 2
 402              		.loc 1 230 0
 403              		.code	16
 404              		@ sp needed
 405 000e 08BD     		pop	{r3, pc}
 406              		.cfi_endproc
 407              	.LFE13:
 408              		.size	chEvtSignal, .-chEvtSignal
 409              		.section	.text.chEvtBroadcastFlags,"ax",%progbits
 410              		.align	2
 411              		.p2align 4,,15
 412              		.global	chEvtBroadcastFlags
 413              		.code	16
 414              		.thumb_func
 415              		.type	chEvtBroadcastFlags, %function
 416              	chEvtBroadcastFlags:
 417              	.LFB15:
 418              		.loc 1 271 0
 419              		.cfi_startproc
 420              	.LVL35:
 421 0000 08B5     		push	{r3, lr}
 422              		.cfi_def_cfa_offset 8
 423              		.cfi_offset 3, -8
 424              		.cfi_offset 14, -4
 425              		.loc 1 273 0
 426              	@ 273 "../../os/kernel/src/chevents.c" 1
 427 0002 72B6     		cpsid   i
 428              	@ 0 "" 2
 429              		.loc 1 274 0
 430              		.code	16
 431 0004 FFF7FEFF 		bl	chEvtBroadcastFlagsI
 432              	.LVL36:
 433              		.loc 1 275 0
 434 0008 FFF7FEFF 		bl	chSchRescheduleS
 435              	.LVL37:
 436              		.loc 1 276 0
 437              	@ 276 "../../os/kernel/src/chevents.c" 1
 438 000c 62B6     		cpsie   i
 439              	@ 0 "" 2
 440              		.loc 1 277 0
 441              		.code	16
 442              		@ sp needed
 443 000e 08BD     		pop	{r3, pc}
 444              		.cfi_endproc
 445              	.LFE15:
 446              		.size	chEvtBroadcastFlags, .-chEvtBroadcastFlags
 447              		.section	.text.chEvtGetAndClearFlagsI,"ax",%progbits
 448              		.align	2
ARM GAS  /var/folders/qh/xwg3v3kj02qbxczjpdb8lzfr0000gn/T//ccBGUT7K.s 			page 9


 449              		.p2align 4,,15
 450              		.global	chEvtGetAndClearFlagsI
 451              		.code	16
 452              		.thumb_func
 453              		.type	chEvtGetAndClearFlagsI, %function
 454              	chEvtGetAndClearFlagsI:
 455              	.LFB16:
 456              		.loc 1 290 0
 457              		.cfi_startproc
 458              	.LVL38:
 459              		.loc 1 290 0
 460 0000 031C     		mov	r3, r0
 461              		.loc 1 294 0
 462 0002 0022     		mov	r2, #0
 463              		.loc 1 293 0
 464 0004 C068     		ldr	r0, [r0, #12]
 465              	.LVL39:
 466              		.loc 1 297 0
 467              		@ sp needed
 468              		.loc 1 294 0
 469 0006 DA60     		str	r2, [r3, #12]
 470              		.loc 1 297 0
 471 0008 7047     		bx	lr
 472              		.cfi_endproc
 473              	.LFE16:
 474              		.size	chEvtGetAndClearFlagsI, .-chEvtGetAndClearFlagsI
 475 000a C046C046 		.section	.text.chEvtDispatch,"ax",%progbits
 475      C046
 476              		.align	2
 477              		.p2align 4,,15
 478              		.global	chEvtDispatch
 479              		.code	16
 480              		.thumb_func
 481              		.type	chEvtDispatch, %function
 482              	chEvtDispatch:
 483              	.LFB17:
 484              		.loc 1 308 0
 485              		.cfi_startproc
 486              	.LVL40:
 487 0000 F8B5     		push	{r3, r4, r5, r6, r7, lr}
 488              		.cfi_def_cfa_offset 24
 489              		.cfi_offset 3, -24
 490              		.cfi_offset 4, -20
 491              		.cfi_offset 5, -16
 492              		.cfi_offset 6, -12
 493              		.cfi_offset 7, -8
 494              		.cfi_offset 14, -4
 495              		.loc 1 308 0
 496 0002 0D1C     		mov	r5, r1
 497 0004 061C     		mov	r6, r0
 498              		.loc 1 313 0
 499 0006 0024     		mov	r4, #0
 500              		.loc 1 315 0
 501 0008 0127     		mov	r7, #1
 502              		.loc 1 314 0
 503 000a 0029     		cmp	r1, #0
 504 000c 04D1     		bne	.L44
ARM GAS  /var/folders/qh/xwg3v3kj02qbxczjpdb8lzfr0000gn/T//ccBGUT7K.s 			page 10


 505 000e 0FE0     		b	.L33
 506              	.LVL41:
 507              	.L35:
 508              		.loc 1 322 0
 509 0010 0134     		add	r4, r4, #1
 510              	.LVL42:
 511 0012 0436     		add	r6, r6, #4
 512              		.loc 1 314 0
 513 0014 002D     		cmp	r5, #0
 514 0016 0BD0     		beq	.L33
 515              	.LVL43:
 516              	.L44:
 517              		.loc 1 315 0
 518 0018 3B1C     		mov	r3, r7
 519 001a A340     		lsl	r3, r3, r4
 520 001c 1D42     		tst	r5, r3
 521 001e F7D0     		beq	.L35
 522              		.loc 1 320 0
 523 0020 201C     		mov	r0, r4
 524              		.loc 1 319 0
 525 0022 9D43     		bic	r5, r3
 526              	.LVL44:
 527              		.loc 1 320 0
 528 0024 3368     		ldr	r3, [r6]
 529 0026 9847     		blx	r3
 530              	.LVL45:
 531              		.loc 1 322 0
 532 0028 0134     		add	r4, r4, #1
 533              	.LVL46:
 534 002a 0436     		add	r6, r6, #4
 535              		.loc 1 314 0
 536 002c 002D     		cmp	r5, #0
 537 002e F3D1     		bne	.L44
 538              	.LVL47:
 539              	.L33:
 540              		.loc 1 324 0
 541              		@ sp needed
 542              	.LVL48:
 543 0030 F8BD     		pop	{r3, r4, r5, r6, r7, pc}
 544              		.cfi_endproc
 545              	.LFE17:
 546              		.size	chEvtDispatch, .-chEvtDispatch
 547 0032 C046C046 		.section	.text.chEvtWaitOne,"ax",%progbits
 547      C046C046 
 547      C046C046 
 547      C046
 548              		.align	2
 549              		.p2align 4,,15
 550              		.global	chEvtWaitOne
 551              		.code	16
 552              		.thumb_func
 553              		.type	chEvtWaitOne, %function
 554              	chEvtWaitOne:
 555              	.LFB18:
 556              		.loc 1 343 0
 557              		.cfi_startproc
 558              	.LVL49:
ARM GAS  /var/folders/qh/xwg3v3kj02qbxczjpdb8lzfr0000gn/T//ccBGUT7K.s 			page 11


 559 0000 38B5     		push	{r3, r4, r5, lr}
 560              		.cfi_def_cfa_offset 16
 561              		.cfi_offset 3, -16
 562              		.cfi_offset 4, -12
 563              		.cfi_offset 5, -8
 564              		.cfi_offset 14, -4
 565              		.loc 1 344 0
 566 0002 0A4B     		ldr	r3, .L47
 567              		.loc 1 343 0
 568 0004 051C     		mov	r5, r0
 569              		.loc 1 344 0
 570 0006 9C69     		ldr	r4, [r3, #24]
 571              	.LVL50:
 572              		.loc 1 347 0
 573              	@ 347 "../../os/kernel/src/chevents.c" 1
 574 0008 72B6     		cpsid   i
 575              	@ 0 "" 2
 576              		.loc 1 349 0
 577              		.code	16
 578 000a A26B     		ldr	r2, [r4, #56]
 579 000c 131C     		mov	r3, r2
 580 000e 0340     		and	r3, r0
 581              	.LVL51:
 582 0010 06D1     		bne	.L46
 583              		.loc 1 350 0
 584 0012 6062     		str	r0, [r4, #36]
 585              		.loc 1 351 0
 586 0014 0820     		mov	r0, #8
 587              	.LVL52:
 588 0016 FFF7FEFF 		bl	chSchGoSleepS
 589              	.LVL53:
 590              		.loc 1 352 0
 591 001a A26B     		ldr	r2, [r4, #56]
 592 001c 131C     		mov	r3, r2
 593 001e 2B40     		and	r3, r5
 594              	.LVL54:
 595              	.L46:
 596              		.loc 1 354 0
 597 0020 5842     		neg	r0, r3
 598 0022 1840     		and	r0, r3
 599              	.LVL55:
 600              		.loc 1 355 0
 601 0024 8243     		bic	r2, r0
 602 0026 A263     		str	r2, [r4, #56]
 603              		.loc 1 357 0
 604              	@ 357 "../../os/kernel/src/chevents.c" 1
 605 0028 62B6     		cpsie   i
 606              	@ 0 "" 2
 607              		.loc 1 359 0
 608              		.code	16
 609              		@ sp needed
 610              	.LVL56:
 611              	.LVL57:
 612 002a 38BD     		pop	{r3, r4, r5, pc}
 613              	.L48:
 614              		.align	2
 615              	.L47:
ARM GAS  /var/folders/qh/xwg3v3kj02qbxczjpdb8lzfr0000gn/T//ccBGUT7K.s 			page 12


 616 002c 00000000 		.word	rlist
 617              		.cfi_endproc
 618              	.LFE18:
 619              		.size	chEvtWaitOne, .-chEvtWaitOne
 620              		.section	.text.chEvtWaitAny,"ax",%progbits
 621              		.align	2
 622              		.p2align 4,,15
 623              		.global	chEvtWaitAny
 624              		.code	16
 625              		.thumb_func
 626              		.type	chEvtWaitAny, %function
 627              	chEvtWaitAny:
 628              	.LFB19:
 629              		.loc 1 372 0
 630              		.cfi_startproc
 631              	.LVL58:
 632 0000 38B5     		push	{r3, r4, r5, lr}
 633              		.cfi_def_cfa_offset 16
 634              		.cfi_offset 3, -16
 635              		.cfi_offset 4, -12
 636              		.cfi_offset 5, -8
 637              		.cfi_offset 14, -4
 638              		.loc 1 373 0
 639 0002 094B     		ldr	r3, .L51
 640              		.loc 1 372 0
 641 0004 051C     		mov	r5, r0
 642              		.loc 1 373 0
 643 0006 9C69     		ldr	r4, [r3, #24]
 644              	.LVL59:
 645              		.loc 1 376 0
 646              	@ 376 "../../os/kernel/src/chevents.c" 1
 647 0008 72B6     		cpsid   i
 648              	@ 0 "" 2
 649              		.loc 1 378 0
 650              		.code	16
 651 000a A26B     		ldr	r2, [r4, #56]
 652 000c 101C     		mov	r0, r2
 653              	.LVL60:
 654 000e 2840     		and	r0, r5
 655              	.LVL61:
 656 0010 06D1     		bne	.L50
 657              		.loc 1 380 0
 658 0012 0820     		mov	r0, #8
 659              	.LVL62:
 660              		.loc 1 379 0
 661 0014 6562     		str	r5, [r4, #36]
 662              		.loc 1 380 0
 663 0016 FFF7FEFF 		bl	chSchGoSleepS
 664              	.LVL63:
 665              		.loc 1 381 0
 666 001a A26B     		ldr	r2, [r4, #56]
 667 001c 101C     		mov	r0, r2
 668 001e 2840     		and	r0, r5
 669              	.LVL64:
 670              	.L50:
 671              		.loc 1 383 0
 672 0020 8243     		bic	r2, r0
ARM GAS  /var/folders/qh/xwg3v3kj02qbxczjpdb8lzfr0000gn/T//ccBGUT7K.s 			page 13


 673 0022 A263     		str	r2, [r4, #56]
 674              		.loc 1 385 0
 675              	@ 385 "../../os/kernel/src/chevents.c" 1
 676 0024 62B6     		cpsie   i
 677              	@ 0 "" 2
 678              		.loc 1 387 0
 679              		.code	16
 680              		@ sp needed
 681              	.LVL65:
 682              	.LVL66:
 683 0026 38BD     		pop	{r3, r4, r5, pc}
 684              	.L52:
 685              		.align	2
 686              	.L51:
 687 0028 00000000 		.word	rlist
 688              		.cfi_endproc
 689              	.LFE19:
 690              		.size	chEvtWaitAny, .-chEvtWaitAny
 691 002c C046C046 		.section	.text.chEvtWaitAll,"ax",%progbits
 692              		.align	2
 693              		.p2align 4,,15
 694              		.global	chEvtWaitAll
 695              		.code	16
 696              		.thumb_func
 697              		.type	chEvtWaitAll, %function
 698              	chEvtWaitAll:
 699              	.LFB20:
 700              		.loc 1 400 0
 701              		.cfi_startproc
 702              	.LVL67:
 703 0000 38B5     		push	{r3, r4, r5, lr}
 704              		.cfi_def_cfa_offset 16
 705              		.cfi_offset 3, -16
 706              		.cfi_offset 4, -12
 707              		.cfi_offset 5, -8
 708              		.cfi_offset 14, -4
 709              		.loc 1 401 0
 710 0002 094B     		ldr	r3, .L55
 711              		.loc 1 400 0
 712 0004 041C     		mov	r4, r0
 713              		.loc 1 401 0
 714 0006 9D69     		ldr	r5, [r3, #24]
 715              	.LVL68:
 716              		.loc 1 403 0
 717              	@ 403 "../../os/kernel/src/chevents.c" 1
 718 0008 72B6     		cpsid   i
 719              	@ 0 "" 2
 720              		.loc 1 405 0
 721              		.code	16
 722 000a AB6B     		ldr	r3, [r5, #56]
 723 000c 1A1C     		mov	r2, r3
 724 000e 0240     		and	r2, r0
 725 0010 8242     		cmp	r2, r0
 726 0012 04D0     		beq	.L54
 727              		.loc 1 406 0
 728 0014 6862     		str	r0, [r5, #36]
 729              		.loc 1 407 0
ARM GAS  /var/folders/qh/xwg3v3kj02qbxczjpdb8lzfr0000gn/T//ccBGUT7K.s 			page 14


 730 0016 0920     		mov	r0, #9
 731              	.LVL69:
 732 0018 FFF7FEFF 		bl	chSchGoSleepS
 733              	.LVL70:
 734 001c AB6B     		ldr	r3, [r5, #56]
 735              	.L54:
 736              		.loc 1 409 0
 737 001e A343     		bic	r3, r4
 738 0020 AB63     		str	r3, [r5, #56]
 739              		.loc 1 411 0
 740              	@ 411 "../../os/kernel/src/chevents.c" 1
 741 0022 62B6     		cpsie   i
 742              	@ 0 "" 2
 743              		.loc 1 413 0
 744              		.code	16
 745 0024 201C     		mov	r0, r4
 746              		@ sp needed
 747              	.LVL71:
 748              	.LVL72:
 749 0026 38BD     		pop	{r3, r4, r5, pc}
 750              	.L56:
 751              		.align	2
 752              	.L55:
 753 0028 00000000 		.word	rlist
 754              		.cfi_endproc
 755              	.LFE20:
 756              		.size	chEvtWaitAll, .-chEvtWaitAll
 757 002c C046C046 		.section	.text.chEvtWaitOneTimeout,"ax",%progbits
 758              		.align	2
 759              		.p2align 4,,15
 760              		.global	chEvtWaitOneTimeout
 761              		.code	16
 762              		.thumb_func
 763              		.type	chEvtWaitOneTimeout, %function
 764              	chEvtWaitOneTimeout:
 765              	.LFB21:
 766              		.loc 1 439 0
 767              		.cfi_startproc
 768              	.LVL73:
 769 0000 38B5     		push	{r3, r4, r5, lr}
 770              		.cfi_def_cfa_offset 16
 771              		.cfi_offset 3, -16
 772              		.cfi_offset 4, -12
 773              		.cfi_offset 5, -8
 774              		.cfi_offset 14, -4
 775              		.loc 1 440 0
 776 0002 0E4B     		ldr	r3, .L63
 777              		.loc 1 439 0
 778 0004 051C     		mov	r5, r0
 779              		.loc 1 440 0
 780 0006 9C69     		ldr	r4, [r3, #24]
 781              	.LVL74:
 782              		.loc 1 443 0
 783              	@ 443 "../../os/kernel/src/chevents.c" 1
 784 0008 72B6     		cpsid   i
 785              	@ 0 "" 2
 786              		.loc 1 445 0
ARM GAS  /var/folders/qh/xwg3v3kj02qbxczjpdb8lzfr0000gn/T//ccBGUT7K.s 			page 15


 787              		.code	16
 788 000a A26B     		ldr	r2, [r4, #56]
 789 000c 131C     		mov	r3, r2
 790 000e 0340     		and	r3, r0
 791              	.LVL75:
 792 0010 0DD1     		bne	.L58
 793              		.loc 1 446 0
 794 0012 0029     		cmp	r1, #0
 795 0014 02D1     		bne	.L59
 796              	.LVL76:
 797              	.L62:
 798              		.loc 1 452 0
 799              	@ 452 "../../os/kernel/src/chevents.c" 1
 800 0016 62B6     		cpsie   i
 801              	@ 0 "" 2
 802              		.loc 1 453 0
 803              		.code	16
 804 0018 0020     		mov	r0, #0
 805 001a 0EE0     		b	.L60
 806              	.LVL77:
 807              	.L59:
 808              		.loc 1 450 0
 809 001c 6062     		str	r0, [r4, #36]
 810              		.loc 1 451 0
 811 001e 0820     		mov	r0, #8
 812              	.LVL78:
 813 0020 FFF7FEFF 		bl	chSchGoSleepTimeoutS
 814              	.LVL79:
 815 0024 0028     		cmp	r0, #0
 816 0026 F6DB     		blt	.L62
 817              		.loc 1 455 0
 818 0028 A26B     		ldr	r2, [r4, #56]
 819 002a 131C     		mov	r3, r2
 820 002c 2B40     		and	r3, r5
 821              	.LVL80:
 822              	.L58:
 823              		.loc 1 457 0
 824 002e 5842     		neg	r0, r3
 825 0030 0340     		and	r3, r0
 826              	.LVL81:
 827              		.loc 1 458 0
 828 0032 9A43     		bic	r2, r3
 829 0034 A263     		str	r2, [r4, #56]
 830              		.loc 1 460 0
 831              	@ 460 "../../os/kernel/src/chevents.c" 1
 832 0036 62B6     		cpsie   i
 833              	@ 0 "" 2
 834              		.loc 1 461 0
 835              		.code	16
 836 0038 181C     		mov	r0, r3
 837              	.LVL82:
 838              	.L60:
 839              		.loc 1 462 0
 840              		@ sp needed
 841              	.LVL83:
 842              	.LVL84:
 843 003a 38BD     		pop	{r3, r4, r5, pc}
ARM GAS  /var/folders/qh/xwg3v3kj02qbxczjpdb8lzfr0000gn/T//ccBGUT7K.s 			page 16


 844              	.L64:
 845              		.align	2
 846              	.L63:
 847 003c 00000000 		.word	rlist
 848              		.cfi_endproc
 849              	.LFE21:
 850              		.size	chEvtWaitOneTimeout, .-chEvtWaitOneTimeout
 851              		.section	.text.chEvtWaitAnyTimeout,"ax",%progbits
 852              		.align	2
 853              		.p2align 4,,15
 854              		.global	chEvtWaitAnyTimeout
 855              		.code	16
 856              		.thumb_func
 857              		.type	chEvtWaitAnyTimeout, %function
 858              	chEvtWaitAnyTimeout:
 859              	.LFB22:
 860              		.loc 1 482 0
 861              		.cfi_startproc
 862              	.LVL85:
 863 0000 38B5     		push	{r3, r4, r5, lr}
 864              		.cfi_def_cfa_offset 16
 865              		.cfi_offset 3, -16
 866              		.cfi_offset 4, -12
 867              		.cfi_offset 5, -8
 868              		.cfi_offset 14, -4
 869              		.loc 1 483 0
 870 0002 0D4B     		ldr	r3, .L71
 871              		.loc 1 482 0
 872 0004 051C     		mov	r5, r0
 873              		.loc 1 483 0
 874 0006 9C69     		ldr	r4, [r3, #24]
 875              	.LVL86:
 876              		.loc 1 486 0
 877              	@ 486 "../../os/kernel/src/chevents.c" 1
 878 0008 72B6     		cpsid   i
 879              	@ 0 "" 2
 880              		.loc 1 488 0
 881              		.code	16
 882 000a A26B     		ldr	r2, [r4, #56]
 883 000c 131C     		mov	r3, r2
 884 000e 0340     		and	r3, r0
 885              	.LVL87:
 886 0010 0DD1     		bne	.L66
 887              		.loc 1 489 0
 888 0012 0029     		cmp	r1, #0
 889 0014 02D1     		bne	.L67
 890              	.LVL88:
 891              	.L70:
 892              		.loc 1 495 0
 893              	@ 495 "../../os/kernel/src/chevents.c" 1
 894 0016 62B6     		cpsie   i
 895              	@ 0 "" 2
 896              		.loc 1 496 0
 897              		.code	16
 898 0018 0020     		mov	r0, #0
 899 001a 0CE0     		b	.L68
 900              	.LVL89:
ARM GAS  /var/folders/qh/xwg3v3kj02qbxczjpdb8lzfr0000gn/T//ccBGUT7K.s 			page 17


 901              	.L67:
 902              		.loc 1 493 0
 903 001c 6062     		str	r0, [r4, #36]
 904              		.loc 1 494 0
 905 001e 0820     		mov	r0, #8
 906              	.LVL90:
 907 0020 FFF7FEFF 		bl	chSchGoSleepTimeoutS
 908              	.LVL91:
 909 0024 0028     		cmp	r0, #0
 910 0026 F6DB     		blt	.L70
 911              		.loc 1 498 0
 912 0028 A26B     		ldr	r2, [r4, #56]
 913 002a 131C     		mov	r3, r2
 914 002c 2B40     		and	r3, r5
 915              	.LVL92:
 916              	.L66:
 917              		.loc 1 500 0
 918 002e 9A43     		bic	r2, r3
 919 0030 A263     		str	r2, [r4, #56]
 920              		.loc 1 502 0
 921              	@ 502 "../../os/kernel/src/chevents.c" 1
 922 0032 62B6     		cpsie   i
 923              	@ 0 "" 2
 924              		.loc 1 503 0
 925              		.code	16
 926 0034 181C     		mov	r0, r3
 927              	.LVL93:
 928              	.L68:
 929              		.loc 1 504 0
 930              		@ sp needed
 931              	.LVL94:
 932              	.LVL95:
 933 0036 38BD     		pop	{r3, r4, r5, pc}
 934              	.L72:
 935              		.align	2
 936              	.L71:
 937 0038 00000000 		.word	rlist
 938              		.cfi_endproc
 939              	.LFE22:
 940              		.size	chEvtWaitAnyTimeout, .-chEvtWaitAnyTimeout
 941              		.section	.text.chEvtWaitAllTimeout,"ax",%progbits
 942              		.align	2
 943              		.p2align 4,,15
 944              		.global	chEvtWaitAllTimeout
 945              		.code	16
 946              		.thumb_func
 947              		.type	chEvtWaitAllTimeout, %function
 948              	chEvtWaitAllTimeout:
 949              	.LFB23:
 950              		.loc 1 523 0
 951              		.cfi_startproc
 952              	.LVL96:
 953 0000 38B5     		push	{r3, r4, r5, lr}
 954              		.cfi_def_cfa_offset 16
 955              		.cfi_offset 3, -16
 956              		.cfi_offset 4, -12
 957              		.cfi_offset 5, -8
ARM GAS  /var/folders/qh/xwg3v3kj02qbxczjpdb8lzfr0000gn/T//ccBGUT7K.s 			page 18


 958              		.cfi_offset 14, -4
 959              		.loc 1 524 0
 960 0002 0D4B     		ldr	r3, .L78
 961              		.loc 1 523 0
 962 0004 041C     		mov	r4, r0
 963              		.loc 1 524 0
 964 0006 9D69     		ldr	r5, [r3, #24]
 965              	.LVL97:
 966              		.loc 1 526 0
 967              	@ 526 "../../os/kernel/src/chevents.c" 1
 968 0008 72B6     		cpsid   i
 969              	@ 0 "" 2
 970              		.loc 1 528 0
 971              		.code	16
 972 000a AB6B     		ldr	r3, [r5, #56]
 973 000c 1A1C     		mov	r2, r3
 974 000e 0240     		and	r2, r0
 975 0010 8242     		cmp	r2, r0
 976 0012 0BD0     		beq	.L74
 977              		.loc 1 529 0
 978 0014 0029     		cmp	r1, #0
 979 0016 02D1     		bne	.L75
 980              	.LVL98:
 981              	.L77:
 982              		.loc 1 535 0
 983              	@ 535 "../../os/kernel/src/chevents.c" 1
 984 0018 62B6     		cpsie   i
 985              	@ 0 "" 2
 986              		.loc 1 536 0
 987              		.code	16
 988 001a 0020     		mov	r0, #0
 989 001c 0AE0     		b	.L76
 990              	.LVL99:
 991              	.L75:
 992              		.loc 1 533 0
 993 001e 6862     		str	r0, [r5, #36]
 994              		.loc 1 534 0
 995 0020 0920     		mov	r0, #9
 996              	.LVL100:
 997 0022 FFF7FEFF 		bl	chSchGoSleepTimeoutS
 998              	.LVL101:
 999 0026 0028     		cmp	r0, #0
 1000 0028 F6DB     		blt	.L77
 1001 002a AB6B     		ldr	r3, [r5, #56]
 1002              	.L74:
 1003              		.loc 1 539 0
 1004 002c A343     		bic	r3, r4
 1005 002e AB63     		str	r3, [r5, #56]
 1006              		.loc 1 541 0
 1007              	@ 541 "../../os/kernel/src/chevents.c" 1
 1008 0030 62B6     		cpsie   i
 1009              	@ 0 "" 2
 1010              		.loc 1 542 0
 1011              		.code	16
 1012 0032 201C     		mov	r0, r4
 1013              	.L76:
 1014              		.loc 1 543 0
ARM GAS  /var/folders/qh/xwg3v3kj02qbxczjpdb8lzfr0000gn/T//ccBGUT7K.s 			page 19


 1015              		@ sp needed
 1016              	.LVL102:
 1017              	.LVL103:
 1018 0034 38BD     		pop	{r3, r4, r5, pc}
 1019              	.L79:
 1020 0036 C046     		.align	2
 1021              	.L78:
 1022 0038 00000000 		.word	rlist
 1023              		.cfi_endproc
 1024              	.LFE23:
 1025              		.size	chEvtWaitAllTimeout, .-chEvtWaitAllTimeout
 1026 003c C046C046 		.text
 1027              	.Letext0:
 1028              		.file 2 "/usr/local/Cellar/gcc-arm-none-eabi-48/20131218/arm-none-eabi/include/stdint.h"
 1029              		.file 3 "../../os/ports/GCC/ARMCMx/chtypes.h"
 1030              		.file 4 "../../os/kernel/include/chlists.h"
 1031              		.file 5 "../../os/kernel/include/chthreads.h"
 1032              		.file 6 "../../os/ports/GCC/ARMCMx/chcore_v6m.h"
 1033              		.file 7 "../../os/kernel/include/chschd.h"
 1034              		.file 8 "../../os/kernel/include/chmtx.h"
 1035              		.file 9 "../../os/kernel/include/chevents.h"
 1036              		.section	.debug_info,"",%progbits
 1037              	.Ldebug_info0:
 1038 0000 210A0000 		.4byte	0xa21
 1039 0004 0400     		.2byte	0x4
 1040 0006 00000000 		.4byte	.Ldebug_abbrev0
 1041 000a 04       		.byte	0x4
 1042 000b 01       		.uleb128 0x1
 1043 000c 52020000 		.4byte	.LASF96
 1044 0010 01       		.byte	0x1
 1045 0011 D3040000 		.4byte	.LASF97
 1046 0015 8F010000 		.4byte	.LASF98
 1047 0019 18000000 		.4byte	.Ldebug_ranges0+0x18
 1048 001d 00000000 		.4byte	0
 1049 0021 00000000 		.4byte	.Ldebug_line0
 1050 0025 02       		.uleb128 0x2
 1051 0026 04       		.byte	0x4
 1052 0027 05       		.byte	0x5
 1053 0028 696E7400 		.ascii	"int\000"
 1054 002c 03       		.uleb128 0x3
 1055 002d 04       		.byte	0x4
 1056 002e 07       		.byte	0x7
 1057 002f 59010000 		.4byte	.LASF0
 1058 0033 03       		.uleb128 0x3
 1059 0034 01       		.byte	0x1
 1060 0035 06       		.byte	0x6
 1061 0036 71000000 		.4byte	.LASF1
 1062 003a 04       		.uleb128 0x4
 1063 003b C5040000 		.4byte	.LASF5
 1064 003f 02       		.byte	0x2
 1065 0040 2A       		.byte	0x2a
 1066 0041 45000000 		.4byte	0x45
 1067 0045 03       		.uleb128 0x3
 1068 0046 01       		.byte	0x1
 1069 0047 08       		.byte	0x8
 1070 0048 A1030000 		.4byte	.LASF2
 1071 004c 03       		.uleb128 0x3
ARM GAS  /var/folders/qh/xwg3v3kj02qbxczjpdb8lzfr0000gn/T//ccBGUT7K.s 			page 20


 1072 004d 02       		.byte	0x2
 1073 004e 05       		.byte	0x5
 1074 004f DB030000 		.4byte	.LASF3
 1075 0053 03       		.uleb128 0x3
 1076 0054 02       		.byte	0x2
 1077 0055 07       		.byte	0x7
 1078 0056 D2010000 		.4byte	.LASF4
 1079 005a 04       		.uleb128 0x4
 1080 005b 99030000 		.4byte	.LASF6
 1081 005f 02       		.byte	0x2
 1082 0060 4F       		.byte	0x4f
 1083 0061 65000000 		.4byte	0x65
 1084 0065 03       		.uleb128 0x3
 1085 0066 04       		.byte	0x4
 1086 0067 05       		.byte	0x5
 1087 0068 AB000000 		.4byte	.LASF7
 1088 006c 04       		.uleb128 0x4
 1089 006d 4B040000 		.4byte	.LASF8
 1090 0071 02       		.byte	0x2
 1091 0072 50       		.byte	0x50
 1092 0073 77000000 		.4byte	0x77
 1093 0077 03       		.uleb128 0x3
 1094 0078 04       		.byte	0x4
 1095 0079 07       		.byte	0x7
 1096 007a 66010000 		.4byte	.LASF9
 1097 007e 03       		.uleb128 0x3
 1098 007f 08       		.byte	0x8
 1099 0080 05       		.byte	0x5
 1100 0081 63000000 		.4byte	.LASF10
 1101 0085 03       		.uleb128 0x3
 1102 0086 08       		.byte	0x8
 1103 0087 07       		.byte	0x7
 1104 0088 19000000 		.4byte	.LASF11
 1105 008c 03       		.uleb128 0x3
 1106 008d 01       		.byte	0x1
 1107 008e 02       		.byte	0x2
 1108 008f 93030000 		.4byte	.LASF12
 1109 0093 04       		.uleb128 0x4
 1110 0094 15020000 		.4byte	.LASF13
 1111 0098 03       		.byte	0x3
 1112 0099 25       		.byte	0x25
 1113 009a 3A000000 		.4byte	0x3a
 1114 009e 04       		.uleb128 0x4
 1115 009f B4000000 		.4byte	.LASF14
 1116 00a3 03       		.byte	0x3
 1117 00a4 26       		.byte	0x26
 1118 00a5 3A000000 		.4byte	0x3a
 1119 00a9 04       		.uleb128 0x4
 1120 00aa 7C030000 		.4byte	.LASF15
 1121 00ae 03       		.byte	0x3
 1122 00af 27       		.byte	0x27
 1123 00b0 3A000000 		.4byte	0x3a
 1124 00b4 04       		.uleb128 0x4
 1125 00b5 A1000000 		.4byte	.LASF16
 1126 00b9 03       		.byte	0x3
 1127 00ba 28       		.byte	0x28
 1128 00bb 3A000000 		.4byte	0x3a
ARM GAS  /var/folders/qh/xwg3v3kj02qbxczjpdb8lzfr0000gn/T//ccBGUT7K.s 			page 21


 1129 00bf 04       		.uleb128 0x4
 1130 00c0 8B030000 		.4byte	.LASF17
 1131 00c4 03       		.byte	0x3
 1132 00c5 29       		.byte	0x29
 1133 00c6 6C000000 		.4byte	0x6c
 1134 00ca 04       		.uleb128 0x4
 1135 00cb F7010000 		.4byte	.LASF18
 1136 00cf 03       		.byte	0x3
 1137 00d0 2A       		.byte	0x2a
 1138 00d1 5A000000 		.4byte	0x5a
 1139 00d5 04       		.uleb128 0x4
 1140 00d6 37010000 		.4byte	.LASF19
 1141 00da 03       		.byte	0x3
 1142 00db 2B       		.byte	0x2b
 1143 00dc 5A000000 		.4byte	0x5a
 1144 00e0 04       		.uleb128 0x4
 1145 00e1 29020000 		.4byte	.LASF20
 1146 00e5 03       		.byte	0x3
 1147 00e6 2C       		.byte	0x2c
 1148 00e7 6C000000 		.4byte	0x6c
 1149 00eb 04       		.uleb128 0x4
 1150 00ec A2040000 		.4byte	.LASF21
 1151 00f0 03       		.byte	0x3
 1152 00f1 2D       		.byte	0x2d
 1153 00f2 6C000000 		.4byte	0x6c
 1154 00f6 04       		.uleb128 0x4
 1155 00f7 74040000 		.4byte	.LASF22
 1156 00fb 03       		.byte	0x3
 1157 00fc 2E       		.byte	0x2e
 1158 00fd 6C000000 		.4byte	0x6c
 1159 0101 04       		.uleb128 0x4
 1160 0102 2B040000 		.4byte	.LASF23
 1161 0106 04       		.byte	0x4
 1162 0107 23       		.byte	0x23
 1163 0108 0C010000 		.4byte	0x10c
 1164 010c 05       		.uleb128 0x5
 1165 010d 2B040000 		.4byte	.LASF23
 1166 0111 48       		.byte	0x48
 1167 0112 05       		.byte	0x5
 1168 0113 57       		.byte	0x57
 1169 0114 09020000 		.4byte	0x209
 1170 0118 06       		.uleb128 0x6
 1171 0119 1C040000 		.4byte	.LASF24
 1172 011d 05       		.byte	0x5
 1173 011e 58       		.byte	0x58
 1174 011f 2A020000 		.4byte	0x22a
 1175 0123 00       		.byte	0
 1176 0124 06       		.uleb128 0x6
 1177 0125 84030000 		.4byte	.LASF25
 1178 0129 05       		.byte	0x5
 1179 012a 5A       		.byte	0x5a
 1180 012b 2A020000 		.4byte	0x22a
 1181 012f 04       		.byte	0x4
 1182 0130 06       		.uleb128 0x6
 1183 0131 5C000000 		.4byte	.LASF26
 1184 0135 05       		.byte	0x5
 1185 0136 5C       		.byte	0x5c
ARM GAS  /var/folders/qh/xwg3v3kj02qbxczjpdb8lzfr0000gn/T//ccBGUT7K.s 			page 22


 1186 0137 BF000000 		.4byte	0xbf
 1187 013b 08       		.byte	0x8
 1188 013c 06       		.uleb128 0x6
 1189 013d 48050000 		.4byte	.LASF27
 1190 0141 05       		.byte	0x5
 1191 0142 5D       		.byte	0x5d
 1192 0143 DA020000 		.4byte	0x2da
 1193 0147 0C       		.byte	0xc
 1194 0148 06       		.uleb128 0x6
 1195 0149 F4000000 		.4byte	.LASF28
 1196 014d 05       		.byte	0x5
 1197 014e 5F       		.byte	0x5f
 1198 014f 2A020000 		.4byte	0x22a
 1199 0153 10       		.byte	0x10
 1200 0154 06       		.uleb128 0x6
 1201 0155 2C030000 		.4byte	.LASF29
 1202 0159 05       		.byte	0x5
 1203 015a 60       		.byte	0x60
 1204 015b 2A020000 		.4byte	0x22a
 1205 015f 14       		.byte	0x14
 1206 0160 06       		.uleb128 0x6
 1207 0161 1B050000 		.4byte	.LASF30
 1208 0165 05       		.byte	0x5
 1209 0166 67       		.byte	0x67
 1210 0167 66040000 		.4byte	0x466
 1211 016b 18       		.byte	0x18
 1212 016c 06       		.uleb128 0x6
 1213 016d E5030000 		.4byte	.LASF31
 1214 0171 05       		.byte	0x5
 1215 0172 72       		.byte	0x72
 1216 0173 9E000000 		.4byte	0x9e
 1217 0177 1C       		.byte	0x1c
 1218 0178 06       		.uleb128 0x6
 1219 0179 23040000 		.4byte	.LASF32
 1220 017d 05       		.byte	0x5
 1221 017e 76       		.byte	0x76
 1222 017f 93000000 		.4byte	0x93
 1223 0183 1D       		.byte	0x1d
 1224 0184 06       		.uleb128 0x6
 1225 0185 AE040000 		.4byte	.LASF33
 1226 0189 05       		.byte	0x5
 1227 018a 7B       		.byte	0x7b
 1228 018b A9000000 		.4byte	0xa9
 1229 018f 1E       		.byte	0x1e
 1230 0190 06       		.uleb128 0x6
 1231 0191 ED030000 		.4byte	.LASF34
 1232 0195 05       		.byte	0x5
 1233 0196 81       		.byte	0x81
 1234 0197 B4000000 		.4byte	0xb4
 1235 019b 1F       		.byte	0x1f
 1236 019c 06       		.uleb128 0x6
 1237 019d 89040000 		.4byte	.LASF35
 1238 01a1 05       		.byte	0x5
 1239 01a2 88       		.byte	0x88
 1240 01a3 00030000 		.4byte	0x300
 1241 01a7 20       		.byte	0x20
 1242 01a8 07       		.uleb128 0x7
ARM GAS  /var/folders/qh/xwg3v3kj02qbxczjpdb8lzfr0000gn/T//ccBGUT7K.s 			page 23


 1243 01a9 705F7500 		.ascii	"p_u\000"
 1244 01ad 05       		.byte	0x5
 1245 01ae AD       		.byte	0xad
 1246 01af 31040000 		.4byte	0x431
 1247 01b3 24       		.byte	0x24
 1248 01b4 06       		.uleb128 0x6
 1249 01b5 4E050000 		.4byte	.LASF36
 1250 01b9 05       		.byte	0x5
 1251 01ba B2       		.byte	0xb2
 1252 01bb 50020000 		.4byte	0x250
 1253 01bf 28       		.byte	0x28
 1254 01c0 06       		.uleb128 0x6
 1255 01c1 97040000 		.4byte	.LASF37
 1256 01c5 05       		.byte	0x5
 1257 01c6 B8       		.byte	0xb8
 1258 01c7 30020000 		.4byte	0x230
 1259 01cb 2C       		.byte	0x2c
 1260 01cc 06       		.uleb128 0x6
 1261 01cd 00000000 		.4byte	.LASF38
 1262 01d1 05       		.byte	0x5
 1263 01d2 BC       		.byte	0xbc
 1264 01d3 CA000000 		.4byte	0xca
 1265 01d7 34       		.byte	0x34
 1266 01d8 06       		.uleb128 0x6
 1267 01d9 40040000 		.4byte	.LASF39
 1268 01dd 05       		.byte	0x5
 1269 01de C2       		.byte	0xc2
 1270 01df E0000000 		.4byte	0xe0
 1271 01e3 38       		.byte	0x38
 1272 01e4 06       		.uleb128 0x6
 1273 01e5 D1030000 		.4byte	.LASF40
 1274 01e9 05       		.byte	0x5
 1275 01ea C9       		.byte	0xc9
 1276 01eb 78040000 		.4byte	0x478
 1277 01ef 3C       		.byte	0x3c
 1278 01f0 06       		.uleb128 0x6
 1279 01f1 7E040000 		.4byte	.LASF41
 1280 01f5 05       		.byte	0x5
 1281 01f6 CD       		.byte	0xcd
 1282 01f7 BF000000 		.4byte	0xbf
 1283 01fb 40       		.byte	0x40
 1284 01fc 06       		.uleb128 0x6
 1285 01fd 91000000 		.4byte	.LASF42
 1286 0201 05       		.byte	0x5
 1287 0202 D3       		.byte	0xd3
 1288 0203 66020000 		.4byte	0x266
 1289 0207 44       		.byte	0x44
 1290 0208 00       		.byte	0
 1291 0209 08       		.uleb128 0x8
 1292 020a 08       		.byte	0x8
 1293 020b 04       		.byte	0x4
 1294 020c 5A       		.byte	0x5a
 1295 020d 2A020000 		.4byte	0x22a
 1296 0211 06       		.uleb128 0x6
 1297 0212 1C040000 		.4byte	.LASF24
 1298 0216 04       		.byte	0x4
 1299 0217 5B       		.byte	0x5b
ARM GAS  /var/folders/qh/xwg3v3kj02qbxczjpdb8lzfr0000gn/T//ccBGUT7K.s 			page 24


 1300 0218 2A020000 		.4byte	0x22a
 1301 021c 00       		.byte	0
 1302 021d 06       		.uleb128 0x6
 1303 021e 84030000 		.4byte	.LASF25
 1304 0222 04       		.byte	0x4
 1305 0223 5D       		.byte	0x5d
 1306 0224 2A020000 		.4byte	0x22a
 1307 0228 04       		.byte	0x4
 1308 0229 00       		.byte	0
 1309 022a 09       		.uleb128 0x9
 1310 022b 04       		.byte	0x4
 1311 022c 01010000 		.4byte	0x101
 1312 0230 04       		.uleb128 0x4
 1313 0231 3A030000 		.4byte	.LASF43
 1314 0235 04       		.byte	0x4
 1315 0236 5F       		.byte	0x5f
 1316 0237 09020000 		.4byte	0x209
 1317 023b 08       		.uleb128 0x8
 1318 023c 04       		.byte	0x4
 1319 023d 04       		.byte	0x4
 1320 023e 64       		.byte	0x64
 1321 023f 50020000 		.4byte	0x250
 1322 0243 06       		.uleb128 0x6
 1323 0244 1C040000 		.4byte	.LASF24
 1324 0248 04       		.byte	0x4
 1325 0249 66       		.byte	0x66
 1326 024a 2A020000 		.4byte	0x22a
 1327 024e 00       		.byte	0
 1328 024f 00       		.byte	0
 1329 0250 04       		.uleb128 0x4
 1330 0251 1D020000 		.4byte	.LASF44
 1331 0255 04       		.byte	0x4
 1332 0256 69       		.byte	0x69
 1333 0257 3B020000 		.4byte	0x23b
 1334 025b 04       		.uleb128 0x4
 1335 025c 1A010000 		.4byte	.LASF45
 1336 0260 06       		.byte	0x6
 1337 0261 A0       		.byte	0xa0
 1338 0262 66020000 		.4byte	0x266
 1339 0266 0A       		.uleb128 0xa
 1340 0267 04       		.byte	0x4
 1341 0268 05       		.uleb128 0x5
 1342 0269 90040000 		.4byte	.LASF46
 1343 026d 24       		.byte	0x24
 1344 026e 06       		.byte	0x6
 1345 026f B3       		.byte	0xb3
 1346 0270 DA020000 		.4byte	0x2da
 1347 0274 07       		.uleb128 0x7
 1348 0275 723800   		.ascii	"r8\000"
 1349 0278 06       		.byte	0x6
 1350 0279 B4       		.byte	0xb4
 1351 027a 5B020000 		.4byte	0x25b
 1352 027e 00       		.byte	0
 1353 027f 07       		.uleb128 0x7
 1354 0280 723900   		.ascii	"r9\000"
 1355 0283 06       		.byte	0x6
 1356 0284 B5       		.byte	0xb5
ARM GAS  /var/folders/qh/xwg3v3kj02qbxczjpdb8lzfr0000gn/T//ccBGUT7K.s 			page 25


 1357 0285 5B020000 		.4byte	0x25b
 1358 0289 04       		.byte	0x4
 1359 028a 07       		.uleb128 0x7
 1360 028b 72313000 		.ascii	"r10\000"
 1361 028f 06       		.byte	0x6
 1362 0290 B6       		.byte	0xb6
 1363 0291 5B020000 		.4byte	0x25b
 1364 0295 08       		.byte	0x8
 1365 0296 07       		.uleb128 0x7
 1366 0297 72313100 		.ascii	"r11\000"
 1367 029b 06       		.byte	0x6
 1368 029c B7       		.byte	0xb7
 1369 029d 5B020000 		.4byte	0x25b
 1370 02a1 0C       		.byte	0xc
 1371 02a2 07       		.uleb128 0x7
 1372 02a3 723400   		.ascii	"r4\000"
 1373 02a6 06       		.byte	0x6
 1374 02a7 B8       		.byte	0xb8
 1375 02a8 5B020000 		.4byte	0x25b
 1376 02ac 10       		.byte	0x10
 1377 02ad 07       		.uleb128 0x7
 1378 02ae 723500   		.ascii	"r5\000"
 1379 02b1 06       		.byte	0x6
 1380 02b2 B9       		.byte	0xb9
 1381 02b3 5B020000 		.4byte	0x25b
 1382 02b7 14       		.byte	0x14
 1383 02b8 07       		.uleb128 0x7
 1384 02b9 723600   		.ascii	"r6\000"
 1385 02bc 06       		.byte	0x6
 1386 02bd BA       		.byte	0xba
 1387 02be 5B020000 		.4byte	0x25b
 1388 02c2 18       		.byte	0x18
 1389 02c3 07       		.uleb128 0x7
 1390 02c4 723700   		.ascii	"r7\000"
 1391 02c7 06       		.byte	0x6
 1392 02c8 BB       		.byte	0xbb
 1393 02c9 5B020000 		.4byte	0x25b
 1394 02cd 1C       		.byte	0x1c
 1395 02ce 07       		.uleb128 0x7
 1396 02cf 6C7200   		.ascii	"lr\000"
 1397 02d2 06       		.byte	0x6
 1398 02d3 BC       		.byte	0xbc
 1399 02d4 5B020000 		.4byte	0x25b
 1400 02d8 20       		.byte	0x20
 1401 02d9 00       		.byte	0
 1402 02da 05       		.uleb128 0x5
 1403 02db CA010000 		.4byte	.LASF47
 1404 02df 04       		.byte	0x4
 1405 02e0 06       		.byte	0x6
 1406 02e1 C6       		.byte	0xc6
 1407 02e2 F3020000 		.4byte	0x2f3
 1408 02e6 07       		.uleb128 0x7
 1409 02e7 72313300 		.ascii	"r13\000"
 1410 02eb 06       		.byte	0x6
 1411 02ec C7       		.byte	0xc7
 1412 02ed F3020000 		.4byte	0x2f3
 1413 02f1 00       		.byte	0
ARM GAS  /var/folders/qh/xwg3v3kj02qbxczjpdb8lzfr0000gn/T//ccBGUT7K.s 			page 26


 1414 02f2 00       		.byte	0
 1415 02f3 09       		.uleb128 0x9
 1416 02f4 04       		.byte	0x4
 1417 02f5 68020000 		.4byte	0x268
 1418 02f9 03       		.uleb128 0x3
 1419 02fa 04       		.byte	0x4
 1420 02fb 07       		.byte	0x7
 1421 02fc 3B020000 		.4byte	.LASF48
 1422 0300 0B       		.uleb128 0xb
 1423 0301 F6000000 		.4byte	0xf6
 1424 0305 08       		.uleb128 0x8
 1425 0306 1C       		.byte	0x1c
 1426 0307 07       		.byte	0x7
 1427 0308 57       		.byte	0x57
 1428 0309 56030000 		.4byte	0x356
 1429 030d 06       		.uleb128 0x6
 1430 030e 54040000 		.4byte	.LASF49
 1431 0312 07       		.byte	0x7
 1432 0313 58       		.byte	0x58
 1433 0314 30020000 		.4byte	0x230
 1434 0318 00       		.byte	0
 1435 0319 06       		.uleb128 0x6
 1436 031a F7030000 		.4byte	.LASF50
 1437 031e 07       		.byte	0x7
 1438 031f 59       		.byte	0x59
 1439 0320 BF000000 		.4byte	0xbf
 1440 0324 08       		.byte	0x8
 1441 0325 06       		.uleb128 0x6
 1442 0326 34030000 		.4byte	.LASF51
 1443 032a 07       		.byte	0x7
 1444 032b 5B       		.byte	0x5b
 1445 032c DA020000 		.4byte	0x2da
 1446 0330 0C       		.byte	0xc
 1447 0331 06       		.uleb128 0x6
 1448 0332 0D010000 		.4byte	.LASF52
 1449 0336 07       		.byte	0x7
 1450 0337 5E       		.byte	0x5e
 1451 0338 2A020000 		.4byte	0x22a
 1452 033c 10       		.byte	0x10
 1453 033d 06       		.uleb128 0x6
 1454 033e 63030000 		.4byte	.LASF53
 1455 0342 07       		.byte	0x7
 1456 0343 5F       		.byte	0x5f
 1457 0344 2A020000 		.4byte	0x22a
 1458 0348 14       		.byte	0x14
 1459 0349 06       		.uleb128 0x6
 1460 034a 59030000 		.4byte	.LASF54
 1461 034e 07       		.byte	0x7
 1462 034f 62       		.byte	0x62
 1463 0350 2A020000 		.4byte	0x22a
 1464 0354 18       		.byte	0x18
 1465 0355 00       		.byte	0
 1466 0356 04       		.uleb128 0x4
 1467 0357 B5040000 		.4byte	.LASF55
 1468 035b 07       		.byte	0x7
 1469 035c 64       		.byte	0x64
 1470 035d 05030000 		.4byte	0x305
ARM GAS  /var/folders/qh/xwg3v3kj02qbxczjpdb8lzfr0000gn/T//ccBGUT7K.s 			page 27


 1471 0361 05       		.uleb128 0x5
 1472 0362 35020000 		.4byte	.LASF56
 1473 0366 10       		.byte	0x10
 1474 0367 08       		.byte	0x8
 1475 0368 25       		.byte	0x25
 1476 0369 92030000 		.4byte	0x392
 1477 036d 06       		.uleb128 0x6
 1478 036e 99000000 		.4byte	.LASF57
 1479 0372 08       		.byte	0x8
 1480 0373 26       		.byte	0x26
 1481 0374 30020000 		.4byte	0x230
 1482 0378 00       		.byte	0
 1483 0379 06       		.uleb128 0x6
 1484 037a 40050000 		.4byte	.LASF58
 1485 037e 08       		.byte	0x8
 1486 037f 28       		.byte	0x28
 1487 0380 2A020000 		.4byte	0x22a
 1488 0384 08       		.byte	0x8
 1489 0385 06       		.uleb128 0x6
 1490 0386 6D040000 		.4byte	.LASF59
 1491 038a 08       		.byte	0x8
 1492 038b 2A       		.byte	0x2a
 1493 038c 92030000 		.4byte	0x392
 1494 0390 0C       		.byte	0xc
 1495 0391 00       		.byte	0
 1496 0392 09       		.uleb128 0x9
 1497 0393 04       		.byte	0x4
 1498 0394 61030000 		.4byte	0x361
 1499 0398 04       		.uleb128 0x4
 1500 0399 35020000 		.4byte	.LASF56
 1501 039d 08       		.byte	0x8
 1502 039e 2C       		.byte	0x2c
 1503 039f 61030000 		.4byte	0x361
 1504 03a3 04       		.uleb128 0x4
 1505 03a4 F2040000 		.4byte	.LASF60
 1506 03a8 09       		.byte	0x9
 1507 03a9 25       		.byte	0x25
 1508 03aa AE030000 		.4byte	0x3ae
 1509 03ae 05       		.uleb128 0x5
 1510 03af F2040000 		.4byte	.LASF60
 1511 03b3 10       		.byte	0x10
 1512 03b4 09       		.byte	0x9
 1513 03b5 2A       		.byte	0x2a
 1514 03b6 EB030000 		.4byte	0x3eb
 1515 03ba 06       		.uleb128 0x6
 1516 03bb FD010000 		.4byte	.LASF61
 1517 03bf 09       		.byte	0x9
 1518 03c0 2B       		.byte	0x2b
 1519 03c1 EB030000 		.4byte	0x3eb
 1520 03c5 00       		.byte	0
 1521 03c6 06       		.uleb128 0x6
 1522 03c7 BC030000 		.4byte	.LASF62
 1523 03cb 09       		.byte	0x9
 1524 03cc 2E       		.byte	0x2e
 1525 03cd 2A020000 		.4byte	0x22a
 1526 03d1 04       		.byte	0x4
 1527 03d2 06       		.uleb128 0x6
ARM GAS  /var/folders/qh/xwg3v3kj02qbxczjpdb8lzfr0000gn/T//ccBGUT7K.s 			page 28


 1528 03d3 6B030000 		.4byte	.LASF63
 1529 03d7 09       		.byte	0x9
 1530 03d8 30       		.byte	0x30
 1531 03d9 E0000000 		.4byte	0xe0
 1532 03dd 08       		.byte	0x8
 1533 03de 06       		.uleb128 0x6
 1534 03df C8030000 		.4byte	.LASF64
 1535 03e3 09       		.byte	0x9
 1536 03e4 33       		.byte	0x33
 1537 03e5 EB000000 		.4byte	0xeb
 1538 03e9 0C       		.byte	0xc
 1539 03ea 00       		.byte	0
 1540 03eb 09       		.uleb128 0x9
 1541 03ec 04       		.byte	0x4
 1542 03ed A3030000 		.4byte	0x3a3
 1543 03f1 05       		.uleb128 0x5
 1544 03f2 41010000 		.4byte	.LASF65
 1545 03f6 04       		.byte	0x4
 1546 03f7 09       		.byte	0x9
 1547 03f8 3A       		.byte	0x3a
 1548 03f9 0A040000 		.4byte	0x40a
 1549 03fd 06       		.uleb128 0x6
 1550 03fe 22050000 		.4byte	.LASF66
 1551 0402 09       		.byte	0x9
 1552 0403 3B       		.byte	0x3b
 1553 0404 EB030000 		.4byte	0x3eb
 1554 0408 00       		.byte	0
 1555 0409 00       		.byte	0
 1556 040a 04       		.uleb128 0x4
 1557 040b 41010000 		.4byte	.LASF65
 1558 040f 09       		.byte	0x9
 1559 0410 3E       		.byte	0x3e
 1560 0411 F1030000 		.4byte	0x3f1
 1561 0415 04       		.uleb128 0x4
 1562 0416 4D010000 		.4byte	.LASF67
 1563 041a 09       		.byte	0x9
 1564 041b 43       		.byte	0x43
 1565 041c 20040000 		.4byte	0x420
 1566 0420 09       		.uleb128 0x9
 1567 0421 04       		.byte	0x4
 1568 0422 26040000 		.4byte	0x426
 1569 0426 0C       		.uleb128 0xc
 1570 0427 31040000 		.4byte	0x431
 1571 042b 0D       		.uleb128 0xd
 1572 042c D5000000 		.4byte	0xd5
 1573 0430 00       		.byte	0
 1574 0431 0E       		.uleb128 0xe
 1575 0432 04       		.byte	0x4
 1576 0433 05       		.byte	0x5
 1577 0434 8F       		.byte	0x8f
 1578 0435 66040000 		.4byte	0x466
 1579 0439 0F       		.uleb128 0xf
 1580 043a 06000000 		.4byte	.LASF68
 1581 043e 05       		.byte	0x5
 1582 043f 96       		.byte	0x96
 1583 0440 CA000000 		.4byte	0xca
 1584 0444 0F       		.uleb128 0xf
ARM GAS  /var/folders/qh/xwg3v3kj02qbxczjpdb8lzfr0000gn/T//ccBGUT7K.s 			page 29


 1585 0445 3F000000 		.4byte	.LASF69
 1586 0449 05       		.byte	0x5
 1587 044a 9D       		.byte	0x9d
 1588 044b CA000000 		.4byte	0xca
 1589 044f 0F       		.uleb128 0xf
 1590 0450 14050000 		.4byte	.LASF70
 1591 0454 05       		.byte	0x5
 1592 0455 A4       		.byte	0xa4
 1593 0456 66020000 		.4byte	0x266
 1594 045a 0F       		.uleb128 0xf
 1595 045b 15040000 		.4byte	.LASF71
 1596 045f 05       		.byte	0x5
 1597 0460 AB       		.byte	0xab
 1598 0461 E0000000 		.4byte	0xe0
 1599 0465 00       		.byte	0
 1600 0466 09       		.uleb128 0x9
 1601 0467 04       		.byte	0x4
 1602 0468 6C040000 		.4byte	0x46c
 1603 046c 10       		.uleb128 0x10
 1604 046d 71040000 		.4byte	0x471
 1605 0471 03       		.uleb128 0x3
 1606 0472 01       		.byte	0x1
 1607 0473 08       		.byte	0x8
 1608 0474 68040000 		.4byte	.LASF72
 1609 0478 09       		.uleb128 0x9
 1610 0479 04       		.byte	0x4
 1611 047a 98030000 		.4byte	0x398
 1612 047e 11       		.uleb128 0x11
 1613 047f 58050000 		.4byte	.LASF93
 1614 0483 01       		.byte	0x1
 1615 0484 F4       		.byte	0xf4
 1616 0485 01       		.byte	0x1
 1617 0486 A0040000 		.4byte	0x4a0
 1618 048a 12       		.uleb128 0x12
 1619 048b 747000   		.ascii	"tp\000"
 1620 048e 01       		.byte	0x1
 1621 048f F4       		.byte	0xf4
 1622 0490 2A020000 		.4byte	0x22a
 1623 0494 13       		.uleb128 0x13
 1624 0495 15010000 		.4byte	.LASF73
 1625 0499 01       		.byte	0x1
 1626 049a F4       		.byte	0xf4
 1627 049b E0000000 		.4byte	0xe0
 1628 049f 00       		.byte	0
 1629 04a0 14       		.uleb128 0x14
 1630 04a1 E5010000 		.4byte	.LASF74
 1631 04a5 01       		.byte	0x1
 1632 04a6 4E       		.byte	0x4e
 1633 04a7 00000000 		.4byte	.LFB7
 1634 04ab 1C000000 		.4byte	.LFE7-.LFB7
 1635 04af 01       		.uleb128 0x1
 1636 04b0 9C       		.byte	0x9c
 1637 04b1 DD040000 		.4byte	0x4dd
 1638 04b5 15       		.uleb128 0x15
 1639 04b6 65737000 		.ascii	"esp\000"
 1640 04ba 01       		.byte	0x1
 1641 04bb 4E       		.byte	0x4e
ARM GAS  /var/folders/qh/xwg3v3kj02qbxczjpdb8lzfr0000gn/T//ccBGUT7K.s 			page 30


 1642 04bc DD040000 		.4byte	0x4dd
 1643 04c0 01       		.uleb128 0x1
 1644 04c1 50       		.byte	0x50
 1645 04c2 15       		.uleb128 0x15
 1646 04c3 656C7000 		.ascii	"elp\000"
 1647 04c7 01       		.byte	0x1
 1648 04c8 4E       		.byte	0x4e
 1649 04c9 EB030000 		.4byte	0x3eb
 1650 04cd 01       		.uleb128 0x1
 1651 04ce 51       		.byte	0x51
 1652 04cf 16       		.uleb128 0x16
 1653 04d0 15010000 		.4byte	.LASF73
 1654 04d4 01       		.byte	0x1
 1655 04d5 4E       		.byte	0x4e
 1656 04d6 E0000000 		.4byte	0xe0
 1657 04da 01       		.uleb128 0x1
 1658 04db 52       		.byte	0x52
 1659 04dc 00       		.byte	0
 1660 04dd 09       		.uleb128 0x9
 1661 04de 04       		.byte	0x4
 1662 04df 0A040000 		.4byte	0x40a
 1663 04e3 14       		.uleb128 0x14
 1664 04e4 05020000 		.4byte	.LASF75
 1665 04e8 01       		.byte	0x1
 1666 04e9 68       		.byte	0x68
 1667 04ea 00000000 		.4byte	.LFB8
 1668 04ee 1C000000 		.4byte	.LFE8-.LFB8
 1669 04f2 01       		.uleb128 0x1
 1670 04f3 9C       		.byte	0x9c
 1671 04f4 22050000 		.4byte	0x522
 1672 04f8 15       		.uleb128 0x15
 1673 04f9 65737000 		.ascii	"esp\000"
 1674 04fd 01       		.byte	0x1
 1675 04fe 68       		.byte	0x68
 1676 04ff DD040000 		.4byte	0x4dd
 1677 0503 01       		.uleb128 0x1
 1678 0504 50       		.byte	0x50
 1679 0505 17       		.uleb128 0x17
 1680 0506 656C7000 		.ascii	"elp\000"
 1681 050a 01       		.byte	0x1
 1682 050b 68       		.byte	0x68
 1683 050c EB030000 		.4byte	0x3eb
 1684 0510 00000000 		.4byte	.LLST0
 1685 0514 18       		.uleb128 0x18
 1686 0515 7000     		.ascii	"p\000"
 1687 0517 01       		.byte	0x1
 1688 0518 69       		.byte	0x69
 1689 0519 EB030000 		.4byte	0x3eb
 1690 051d 3A000000 		.4byte	.LLST1
 1691 0521 00       		.byte	0
 1692 0522 19       		.uleb128 0x19
 1693 0523 78010000 		.4byte	.LASF76
 1694 0527 01       		.byte	0x1
 1695 0528 81       		.byte	0x81
 1696 0529 E0000000 		.4byte	0xe0
 1697 052d 00000000 		.4byte	.LFB9
 1698 0531 18000000 		.4byte	.LFE9-.LFB9
ARM GAS  /var/folders/qh/xwg3v3kj02qbxczjpdb8lzfr0000gn/T//ccBGUT7K.s 			page 31


 1699 0535 01       		.uleb128 0x1
 1700 0536 9C       		.byte	0x9c
 1701 0537 58050000 		.4byte	0x558
 1702 053b 1A       		.uleb128 0x1a
 1703 053c 15010000 		.4byte	.LASF73
 1704 0540 01       		.byte	0x1
 1705 0541 81       		.byte	0x81
 1706 0542 E0000000 		.4byte	0xe0
 1707 0546 58000000 		.4byte	.LLST2
 1708 054a 18       		.uleb128 0x18
 1709 054b 6D00     		.ascii	"m\000"
 1710 054d 01       		.byte	0x1
 1711 054e 82       		.byte	0x82
 1712 054f E0000000 		.4byte	0xe0
 1713 0553 79000000 		.4byte	.LLST3
 1714 0557 00       		.byte	0
 1715 0558 19       		.uleb128 0x19
 1716 0559 30000000 		.4byte	.LASF77
 1717 055d 01       		.byte	0x1
 1718 055e 96       		.byte	0x96
 1719 055f E0000000 		.4byte	0xe0
 1720 0563 00000000 		.4byte	.LFB10
 1721 0567 14000000 		.4byte	.LFE10-.LFB10
 1722 056b 01       		.uleb128 0x1
 1723 056c 9C       		.byte	0x9c
 1724 056d 81050000 		.4byte	0x581
 1725 0571 1A       		.uleb128 0x1a
 1726 0572 15010000 		.4byte	.LASF73
 1727 0576 01       		.byte	0x1
 1728 0577 96       		.byte	0x96
 1729 0578 E0000000 		.4byte	0xe0
 1730 057c 9C000000 		.4byte	.LLST4
 1731 0580 00       		.byte	0
 1732 0581 19       		.uleb128 0x19
 1733 0582 2A050000 		.4byte	.LASF78
 1734 0586 01       		.byte	0x1
 1735 0587 CA       		.byte	0xca
 1736 0588 EB000000 		.4byte	0xeb
 1737 058c 00000000 		.4byte	.LFB12
 1738 0590 0E000000 		.4byte	.LFE12-.LFB12
 1739 0594 01       		.uleb128 0x1
 1740 0595 9C       		.byte	0x9c
 1741 0596 B7050000 		.4byte	0x5b7
 1742 059a 17       		.uleb128 0x17
 1743 059b 656C7000 		.ascii	"elp\000"
 1744 059f 01       		.byte	0x1
 1745 05a0 CA       		.byte	0xca
 1746 05a1 EB030000 		.4byte	0x3eb
 1747 05a5 C8000000 		.4byte	.LLST5
 1748 05a9 1B       		.uleb128 0x1b
 1749 05aa CD040000 		.4byte	.LASF79
 1750 05ae 01       		.byte	0x1
 1751 05af CB       		.byte	0xcb
 1752 05b0 EB000000 		.4byte	0xeb
 1753 05b4 01       		.uleb128 0x1
 1754 05b5 50       		.byte	0x50
 1755 05b6 00       		.byte	0
ARM GAS  /var/folders/qh/xwg3v3kj02qbxczjpdb8lzfr0000gn/T//ccBGUT7K.s 			page 32


 1756 05b7 1C       		.uleb128 0x1c
 1757 05b8 7E040000 		.4byte	0x47e
 1758 05bc 00000000 		.4byte	.LFB14
 1759 05c0 36000000 		.4byte	.LFE14-.LFB14
 1760 05c4 01       		.uleb128 0x1
 1761 05c5 9C       		.byte	0x9c
 1762 05c6 1B060000 		.4byte	0x61b
 1763 05ca 1D       		.uleb128 0x1d
 1764 05cb 8A040000 		.4byte	0x48a
 1765 05cf E6000000 		.4byte	.LLST6
 1766 05d3 1D       		.uleb128 0x1d
 1767 05d4 94040000 		.4byte	0x494
 1768 05d8 39010000 		.4byte	.LLST7
 1769 05dc 1E       		.uleb128 0x1e
 1770 05dd 00000000 		.4byte	.Ldebug_ranges0+0
 1771 05e1 1D       		.uleb128 0x1d
 1772 05e2 94040000 		.4byte	0x494
 1773 05e6 5A010000 		.4byte	.LLST8
 1774 05ea 1D       		.uleb128 0x1d
 1775 05eb 8A040000 		.4byte	0x48a
 1776 05ef 7E010000 		.4byte	.LLST9
 1777 05f3 1F       		.uleb128 0x1f
 1778 05f4 20000000 		.4byte	.LVL20
 1779 05f8 E1090000 		.4byte	0x9e1
 1780 05fc 08060000 		.4byte	0x608
 1781 0600 20       		.uleb128 0x20
 1782 0601 01       		.uleb128 0x1
 1783 0602 50       		.byte	0x50
 1784 0603 03       		.uleb128 0x3
 1785 0604 F3       		.byte	0xf3
 1786 0605 01       		.uleb128 0x1
 1787 0606 50       		.byte	0x50
 1788 0607 00       		.byte	0
 1789 0608 21       		.uleb128 0x21
 1790 0609 30000000 		.4byte	.LVL23
 1791 060d E1090000 		.4byte	0x9e1
 1792 0611 20       		.uleb128 0x20
 1793 0612 01       		.uleb128 0x1
 1794 0613 50       		.byte	0x50
 1795 0614 03       		.uleb128 0x3
 1796 0615 F3       		.byte	0xf3
 1797 0616 01       		.uleb128 0x1
 1798 0617 50       		.byte	0x50
 1799 0618 00       		.byte	0
 1800 0619 00       		.byte	0
 1801 061a 00       		.byte	0
 1802 061b 14       		.uleb128 0x14
 1803 061c DF000000 		.4byte	.LASF80
 1804 0620 01       		.byte	0x1
 1805 0621 B1       		.byte	0xb1
 1806 0622 00000000 		.4byte	.LFB11
 1807 0626 22000000 		.4byte	.LFE11-.LFB11
 1808 062a 01       		.uleb128 0x1
 1809 062b 9C       		.byte	0x9c
 1810 062c 67060000 		.4byte	0x667
 1811 0630 17       		.uleb128 0x17
 1812 0631 65737000 		.ascii	"esp\000"
ARM GAS  /var/folders/qh/xwg3v3kj02qbxczjpdb8lzfr0000gn/T//ccBGUT7K.s 			page 33


 1813 0635 01       		.byte	0x1
 1814 0636 B1       		.byte	0xb1
 1815 0637 DD040000 		.4byte	0x4dd
 1816 063b B8010000 		.4byte	.LLST10
 1817 063f 1A       		.uleb128 0x1a
 1818 0640 CD040000 		.4byte	.LASF79
 1819 0644 01       		.byte	0x1
 1820 0645 B1       		.byte	0xb1
 1821 0646 EB000000 		.4byte	0xeb
 1822 064a E4010000 		.4byte	.LLST11
 1823 064e 18       		.uleb128 0x18
 1824 064f 656C7000 		.ascii	"elp\000"
 1825 0653 01       		.byte	0x1
 1826 0654 B2       		.byte	0xb2
 1827 0655 EB030000 		.4byte	0x3eb
 1828 0659 10020000 		.4byte	.LLST12
 1829 065d 22       		.uleb128 0x22
 1830 065e 1A000000 		.4byte	.LVL27
 1831 0662 7E040000 		.4byte	0x47e
 1832 0666 00       		.byte	0
 1833 0667 14       		.uleb128 0x14
 1834 0668 0D000000 		.4byte	.LASF81
 1835 066c 01       		.byte	0x1
 1836 066d DE       		.byte	0xde
 1837 066e 00000000 		.4byte	.LFB13
 1838 0672 10000000 		.4byte	.LFE13-.LFB13
 1839 0676 01       		.uleb128 0x1
 1840 0677 9C       		.byte	0x9c
 1841 0678 BF060000 		.4byte	0x6bf
 1842 067c 17       		.uleb128 0x17
 1843 067d 747000   		.ascii	"tp\000"
 1844 0680 01       		.byte	0x1
 1845 0681 DE       		.byte	0xde
 1846 0682 2A020000 		.4byte	0x22a
 1847 0686 23020000 		.4byte	.LLST13
 1848 068a 1A       		.uleb128 0x1a
 1849 068b 15010000 		.4byte	.LASF73
 1850 068f 01       		.byte	0x1
 1851 0690 DE       		.byte	0xde
 1852 0691 E0000000 		.4byte	0xe0
 1853 0695 44020000 		.4byte	.LLST14
 1854 0699 1F       		.uleb128 0x1f
 1855 069a 08000000 		.4byte	.LVL33
 1856 069e 7E040000 		.4byte	0x47e
 1857 06a2 B5060000 		.4byte	0x6b5
 1858 06a6 20       		.uleb128 0x20
 1859 06a7 01       		.uleb128 0x1
 1860 06a8 51       		.byte	0x51
 1861 06a9 03       		.uleb128 0x3
 1862 06aa F3       		.byte	0xf3
 1863 06ab 01       		.uleb128 0x1
 1864 06ac 51       		.byte	0x51
 1865 06ad 20       		.uleb128 0x20
 1866 06ae 01       		.uleb128 0x1
 1867 06af 50       		.byte	0x50
 1868 06b0 03       		.uleb128 0x3
 1869 06b1 F3       		.byte	0xf3
ARM GAS  /var/folders/qh/xwg3v3kj02qbxczjpdb8lzfr0000gn/T//ccBGUT7K.s 			page 34


 1870 06b2 01       		.uleb128 0x1
 1871 06b3 50       		.byte	0x50
 1872 06b4 00       		.byte	0
 1873 06b5 22       		.uleb128 0x22
 1874 06b6 0C000000 		.4byte	.LVL34
 1875 06ba F6090000 		.4byte	0x9f6
 1876 06be 00       		.byte	0
 1877 06bf 23       		.uleb128 0x23
 1878 06c0 23010000 		.4byte	.LASF82
 1879 06c4 01       		.byte	0x1
 1880 06c5 0F01     		.2byte	0x10f
 1881 06c7 00000000 		.4byte	.LFB15
 1882 06cb 10000000 		.4byte	.LFE15-.LFB15
 1883 06cf 01       		.uleb128 0x1
 1884 06d0 9C       		.byte	0x9c
 1885 06d1 1B070000 		.4byte	0x71b
 1886 06d5 24       		.uleb128 0x24
 1887 06d6 65737000 		.ascii	"esp\000"
 1888 06da 01       		.byte	0x1
 1889 06db 0F01     		.2byte	0x10f
 1890 06dd DD040000 		.4byte	0x4dd
 1891 06e1 65020000 		.4byte	.LLST15
 1892 06e5 25       		.uleb128 0x25
 1893 06e6 CD040000 		.4byte	.LASF79
 1894 06ea 01       		.byte	0x1
 1895 06eb 0F01     		.2byte	0x10f
 1896 06ed EB000000 		.4byte	0xeb
 1897 06f1 86020000 		.4byte	.LLST16
 1898 06f5 1F       		.uleb128 0x1f
 1899 06f6 08000000 		.4byte	.LVL36
 1900 06fa 1B060000 		.4byte	0x61b
 1901 06fe 11070000 		.4byte	0x711
 1902 0702 20       		.uleb128 0x20
 1903 0703 01       		.uleb128 0x1
 1904 0704 51       		.byte	0x51
 1905 0705 03       		.uleb128 0x3
 1906 0706 F3       		.byte	0xf3
 1907 0707 01       		.uleb128 0x1
 1908 0708 51       		.byte	0x51
 1909 0709 20       		.uleb128 0x20
 1910 070a 01       		.uleb128 0x1
 1911 070b 50       		.byte	0x50
 1912 070c 03       		.uleb128 0x3
 1913 070d F3       		.byte	0xf3
 1914 070e 01       		.uleb128 0x1
 1915 070f 50       		.byte	0x50
 1916 0710 00       		.byte	0
 1917 0711 22       		.uleb128 0x22
 1918 0712 0C000000 		.4byte	.LVL37
 1919 0716 F6090000 		.4byte	0x9f6
 1920 071a 00       		.byte	0
 1921 071b 26       		.uleb128 0x26
 1922 071c FE030000 		.4byte	.LASF83
 1923 0720 01       		.byte	0x1
 1924 0721 2201     		.2byte	0x122
 1925 0723 EB000000 		.4byte	0xeb
 1926 0727 00000000 		.4byte	.LFB16
ARM GAS  /var/folders/qh/xwg3v3kj02qbxczjpdb8lzfr0000gn/T//ccBGUT7K.s 			page 35


 1927 072b 0A000000 		.4byte	.LFE16-.LFB16
 1928 072f 01       		.uleb128 0x1
 1929 0730 9C       		.byte	0x9c
 1930 0731 54070000 		.4byte	0x754
 1931 0735 24       		.uleb128 0x24
 1932 0736 656C7000 		.ascii	"elp\000"
 1933 073a 01       		.byte	0x1
 1934 073b 2201     		.2byte	0x122
 1935 073d EB030000 		.4byte	0x3eb
 1936 0741 A7020000 		.4byte	.LLST17
 1937 0745 27       		.uleb128 0x27
 1938 0746 CD040000 		.4byte	.LASF79
 1939 074a 01       		.byte	0x1
 1940 074b 2301     		.2byte	0x123
 1941 074d EB000000 		.4byte	0xeb
 1942 0751 01       		.uleb128 0x1
 1943 0752 50       		.byte	0x50
 1944 0753 00       		.byte	0
 1945 0754 23       		.uleb128 0x23
 1946 0755 44020000 		.4byte	.LASF84
 1947 0759 01       		.byte	0x1
 1948 075a 3401     		.2byte	0x134
 1949 075c 00000000 		.4byte	.LFB17
 1950 0760 32000000 		.4byte	.LFE17-.LFB17
 1951 0764 01       		.uleb128 0x1
 1952 0765 9C       		.byte	0x9c
 1953 0766 A7070000 		.4byte	0x7a7
 1954 076a 25       		.uleb128 0x25
 1955 076b 73030000 		.4byte	.LASF85
 1956 076f 01       		.byte	0x1
 1957 0770 3401     		.2byte	0x134
 1958 0772 A7070000 		.4byte	0x7a7
 1959 0776 C5020000 		.4byte	.LLST18
 1960 077a 25       		.uleb128 0x25
 1961 077b 15010000 		.4byte	.LASF73
 1962 077f 01       		.byte	0x1
 1963 0780 3401     		.2byte	0x134
 1964 0782 E0000000 		.4byte	0xe0
 1965 0786 E6020000 		.4byte	.LLST19
 1966 078a 28       		.uleb128 0x28
 1967 078b 65696400 		.ascii	"eid\000"
 1968 078f 01       		.byte	0x1
 1969 0790 3501     		.2byte	0x135
 1970 0792 D5000000 		.4byte	0xd5
 1971 0796 04030000 		.4byte	.LLST20
 1972 079a 29       		.uleb128 0x29
 1973 079b 28000000 		.4byte	.LVL45
 1974 079f 20       		.uleb128 0x20
 1975 07a0 01       		.uleb128 0x1
 1976 07a1 50       		.byte	0x50
 1977 07a2 02       		.uleb128 0x2
 1978 07a3 74       		.byte	0x74
 1979 07a4 00       		.sleb128 0
 1980 07a5 00       		.byte	0
 1981 07a6 00       		.byte	0
 1982 07a7 09       		.uleb128 0x9
 1983 07a8 04       		.byte	0x4
ARM GAS  /var/folders/qh/xwg3v3kj02qbxczjpdb8lzfr0000gn/T//ccBGUT7K.s 			page 36


 1984 07a9 AD070000 		.4byte	0x7ad
 1985 07ad 10       		.uleb128 0x10
 1986 07ae 15040000 		.4byte	0x415
 1987 07b2 26       		.uleb128 0x26
 1988 07b3 AF030000 		.4byte	.LASF86
 1989 07b7 01       		.byte	0x1
 1990 07b8 5701     		.2byte	0x157
 1991 07ba E0000000 		.4byte	0xe0
 1992 07be 00000000 		.4byte	.LFB18
 1993 07c2 30000000 		.4byte	.LFE18-.LFB18
 1994 07c6 01       		.uleb128 0x1
 1995 07c7 9C       		.byte	0x9c
 1996 07c8 0A080000 		.4byte	0x80a
 1997 07cc 25       		.uleb128 0x25
 1998 07cd 15010000 		.4byte	.LASF73
 1999 07d1 01       		.byte	0x1
 2000 07d2 5701     		.2byte	0x157
 2001 07d4 E0000000 		.4byte	0xe0
 2002 07d8 23030000 		.4byte	.LLST21
 2003 07dc 28       		.uleb128 0x28
 2004 07dd 63747000 		.ascii	"ctp\000"
 2005 07e1 01       		.byte	0x1
 2006 07e2 5801     		.2byte	0x158
 2007 07e4 2A020000 		.4byte	0x22a
 2008 07e8 4F030000 		.4byte	.LLST22
 2009 07ec 28       		.uleb128 0x28
 2010 07ed 6D00     		.ascii	"m\000"
 2011 07ef 01       		.byte	0x1
 2012 07f0 5901     		.2byte	0x159
 2013 07f2 E0000000 		.4byte	0xe0
 2014 07f6 62030000 		.4byte	.LLST23
 2015 07fa 21       		.uleb128 0x21
 2016 07fb 1A000000 		.4byte	.LVL53
 2017 07ff FD090000 		.4byte	0x9fd
 2018 0803 20       		.uleb128 0x20
 2019 0804 01       		.uleb128 0x1
 2020 0805 50       		.byte	0x50
 2021 0806 01       		.uleb128 0x1
 2022 0807 38       		.byte	0x38
 2023 0808 00       		.byte	0
 2024 0809 00       		.byte	0
 2025 080a 26       		.uleb128 0x26
 2026 080b BD000000 		.4byte	.LASF87
 2027 080f 01       		.byte	0x1
 2028 0810 7401     		.2byte	0x174
 2029 0812 E0000000 		.4byte	0xe0
 2030 0816 00000000 		.4byte	.LFB19
 2031 081a 2C000000 		.4byte	.LFE19-.LFB19
 2032 081e 01       		.uleb128 0x1
 2033 081f 9C       		.byte	0x9c
 2034 0820 62080000 		.4byte	0x862
 2035 0824 25       		.uleb128 0x25
 2036 0825 15010000 		.4byte	.LASF73
 2037 0829 01       		.byte	0x1
 2038 082a 7401     		.2byte	0x174
 2039 082c E0000000 		.4byte	0xe0
 2040 0830 8B030000 		.4byte	.LLST24
ARM GAS  /var/folders/qh/xwg3v3kj02qbxczjpdb8lzfr0000gn/T//ccBGUT7K.s 			page 37


 2041 0834 28       		.uleb128 0x28
 2042 0835 63747000 		.ascii	"ctp\000"
 2043 0839 01       		.byte	0x1
 2044 083a 7501     		.2byte	0x175
 2045 083c 2A020000 		.4byte	0x22a
 2046 0840 B7030000 		.4byte	.LLST25
 2047 0844 28       		.uleb128 0x28
 2048 0845 6D00     		.ascii	"m\000"
 2049 0847 01       		.byte	0x1
 2050 0848 7601     		.2byte	0x176
 2051 084a E0000000 		.4byte	0xe0
 2052 084e CA030000 		.4byte	.LLST26
 2053 0852 21       		.uleb128 0x21
 2054 0853 1A000000 		.4byte	.LVL63
 2055 0857 FD090000 		.4byte	0x9fd
 2056 085b 20       		.uleb128 0x20
 2057 085c 01       		.uleb128 0x1
 2058 085d 50       		.byte	0x50
 2059 085e 01       		.uleb128 0x1
 2060 085f 38       		.byte	0x38
 2061 0860 00       		.byte	0
 2062 0861 00       		.byte	0
 2063 0862 26       		.uleb128 0x26
 2064 0863 4C030000 		.4byte	.LASF88
 2065 0867 01       		.byte	0x1
 2066 0868 9001     		.2byte	0x190
 2067 086a E0000000 		.4byte	0xe0
 2068 086e 00000000 		.4byte	.LFB20
 2069 0872 2C000000 		.4byte	.LFE20-.LFB20
 2070 0876 01       		.uleb128 0x1
 2071 0877 9C       		.byte	0x9c
 2072 0878 AC080000 		.4byte	0x8ac
 2073 087c 25       		.uleb128 0x25
 2074 087d 15010000 		.4byte	.LASF73
 2075 0881 01       		.byte	0x1
 2076 0882 9001     		.2byte	0x190
 2077 0884 E0000000 		.4byte	0xe0
 2078 0888 F8030000 		.4byte	.LLST27
 2079 088c 28       		.uleb128 0x28
 2080 088d 63747000 		.ascii	"ctp\000"
 2081 0891 01       		.byte	0x1
 2082 0892 9101     		.2byte	0x191
 2083 0894 2A020000 		.4byte	0x22a
 2084 0898 21040000 		.4byte	.LLST28
 2085 089c 21       		.uleb128 0x21
 2086 089d 1C000000 		.4byte	.LVL70
 2087 08a1 FD090000 		.4byte	0x9fd
 2088 08a5 20       		.uleb128 0x20
 2089 08a6 01       		.uleb128 0x1
 2090 08a7 50       		.byte	0x50
 2091 08a8 01       		.uleb128 0x1
 2092 08a9 39       		.byte	0x39
 2093 08aa 00       		.byte	0
 2094 08ab 00       		.byte	0
 2095 08ac 26       		.uleb128 0x26
 2096 08ad 00050000 		.4byte	.LASF89
 2097 08b1 01       		.byte	0x1
ARM GAS  /var/folders/qh/xwg3v3kj02qbxczjpdb8lzfr0000gn/T//ccBGUT7K.s 			page 38


 2098 08b2 B701     		.2byte	0x1b7
 2099 08b4 E0000000 		.4byte	0xe0
 2100 08b8 00000000 		.4byte	.LFB21
 2101 08bc 40000000 		.4byte	.LFE21-.LFB21
 2102 08c0 01       		.uleb128 0x1
 2103 08c1 9C       		.byte	0x9c
 2104 08c2 14090000 		.4byte	0x914
 2105 08c6 25       		.uleb128 0x25
 2106 08c7 15010000 		.4byte	.LASF73
 2107 08cb 01       		.byte	0x1
 2108 08cc B701     		.2byte	0x1b7
 2109 08ce E0000000 		.4byte	0xe0
 2110 08d2 34040000 		.4byte	.LLST29
 2111 08d6 25       		.uleb128 0x25
 2112 08d7 47030000 		.4byte	.LASF90
 2113 08db 01       		.byte	0x1
 2114 08dc B701     		.2byte	0x1b7
 2115 08de F6000000 		.4byte	0xf6
 2116 08e2 76040000 		.4byte	.LLST30
 2117 08e6 28       		.uleb128 0x28
 2118 08e7 63747000 		.ascii	"ctp\000"
 2119 08eb 01       		.byte	0x1
 2120 08ec B801     		.2byte	0x1b8
 2121 08ee 2A020000 		.4byte	0x22a
 2122 08f2 B0040000 		.4byte	.LLST31
 2123 08f6 28       		.uleb128 0x28
 2124 08f7 6D00     		.ascii	"m\000"
 2125 08f9 01       		.byte	0x1
 2126 08fa B901     		.2byte	0x1b9
 2127 08fc E0000000 		.4byte	0xe0
 2128 0900 C3040000 		.4byte	.LLST32
 2129 0904 21       		.uleb128 0x21
 2130 0905 24000000 		.4byte	.LVL79
 2131 0909 0E0A0000 		.4byte	0xa0e
 2132 090d 20       		.uleb128 0x20
 2133 090e 01       		.uleb128 0x1
 2134 090f 50       		.byte	0x50
 2135 0910 01       		.uleb128 0x1
 2136 0911 38       		.byte	0x38
 2137 0912 00       		.byte	0
 2138 0913 00       		.byte	0
 2139 0914 26       		.uleb128 0x26
 2140 0915 48000000 		.4byte	.LASF91
 2141 0919 01       		.byte	0x1
 2142 091a E201     		.2byte	0x1e2
 2143 091c E0000000 		.4byte	0xe0
 2144 0920 00000000 		.4byte	.LFB22
 2145 0924 3C000000 		.4byte	.LFE22-.LFB22
 2146 0928 01       		.uleb128 0x1
 2147 0929 9C       		.byte	0x9c
 2148 092a 7C090000 		.4byte	0x97c
 2149 092e 25       		.uleb128 0x25
 2150 092f 15010000 		.4byte	.LASF73
 2151 0933 01       		.byte	0x1
 2152 0934 E201     		.2byte	0x1e2
 2153 0936 E0000000 		.4byte	0xe0
 2154 093a EC040000 		.4byte	.LLST33
ARM GAS  /var/folders/qh/xwg3v3kj02qbxczjpdb8lzfr0000gn/T//ccBGUT7K.s 			page 39


 2155 093e 25       		.uleb128 0x25
 2156 093f 47030000 		.4byte	.LASF90
 2157 0943 01       		.byte	0x1
 2158 0944 E201     		.2byte	0x1e2
 2159 0946 F6000000 		.4byte	0xf6
 2160 094a 2E050000 		.4byte	.LLST34
 2161 094e 28       		.uleb128 0x28
 2162 094f 63747000 		.ascii	"ctp\000"
 2163 0953 01       		.byte	0x1
 2164 0954 E301     		.2byte	0x1e3
 2165 0956 2A020000 		.4byte	0x22a
 2166 095a 68050000 		.4byte	.LLST35
 2167 095e 28       		.uleb128 0x28
 2168 095f 6D00     		.ascii	"m\000"
 2169 0961 01       		.byte	0x1
 2170 0962 E401     		.2byte	0x1e4
 2171 0964 E0000000 		.4byte	0xe0
 2172 0968 7B050000 		.4byte	.LLST36
 2173 096c 21       		.uleb128 0x21
 2174 096d 24000000 		.4byte	.LVL91
 2175 0971 0E0A0000 		.4byte	0xa0e
 2176 0975 20       		.uleb128 0x20
 2177 0976 01       		.uleb128 0x1
 2178 0977 50       		.byte	0x50
 2179 0978 01       		.uleb128 0x1
 2180 0979 38       		.byte	0x38
 2181 097a 00       		.byte	0
 2182 097b 00       		.byte	0
 2183 097c 26       		.uleb128 0x26
 2184 097d 7D000000 		.4byte	.LASF92
 2185 0981 01       		.byte	0x1
 2186 0982 0B02     		.2byte	0x20b
 2187 0984 E0000000 		.4byte	0xe0
 2188 0988 00000000 		.4byte	.LFB23
 2189 098c 3C000000 		.4byte	.LFE23-.LFB23
 2190 0990 01       		.uleb128 0x1
 2191 0991 9C       		.byte	0x9c
 2192 0992 D6090000 		.4byte	0x9d6
 2193 0996 25       		.uleb128 0x25
 2194 0997 15010000 		.4byte	.LASF73
 2195 099b 01       		.byte	0x1
 2196 099c 0B02     		.2byte	0x20b
 2197 099e E0000000 		.4byte	0xe0
 2198 09a2 A4050000 		.4byte	.LLST37
 2199 09a6 25       		.uleb128 0x25
 2200 09a7 47030000 		.4byte	.LASF90
 2201 09ab 01       		.byte	0x1
 2202 09ac 0B02     		.2byte	0x20b
 2203 09ae F6000000 		.4byte	0xf6
 2204 09b2 E6050000 		.4byte	.LLST38
 2205 09b6 28       		.uleb128 0x28
 2206 09b7 63747000 		.ascii	"ctp\000"
 2207 09bb 01       		.byte	0x1
 2208 09bc 0C02     		.2byte	0x20c
 2209 09be 2A020000 		.4byte	0x22a
 2210 09c2 20060000 		.4byte	.LLST39
 2211 09c6 21       		.uleb128 0x21
ARM GAS  /var/folders/qh/xwg3v3kj02qbxczjpdb8lzfr0000gn/T//ccBGUT7K.s 			page 40


 2212 09c7 26000000 		.4byte	.LVL101
 2213 09cb 0E0A0000 		.4byte	0xa0e
 2214 09cf 20       		.uleb128 0x20
 2215 09d0 01       		.uleb128 0x1
 2216 09d1 50       		.byte	0x50
 2217 09d2 01       		.uleb128 0x1
 2218 09d3 39       		.byte	0x39
 2219 09d4 00       		.byte	0
 2220 09d5 00       		.byte	0
 2221 09d6 2A       		.uleb128 0x2a
 2222 09d7 BF040000 		.4byte	.LASF99
 2223 09db 07       		.byte	0x7
 2224 09dc 68       		.byte	0x68
 2225 09dd 56030000 		.4byte	0x356
 2226 09e1 2B       		.uleb128 0x2b
 2227 09e2 5C040000 		.4byte	.LASF100
 2228 09e6 07       		.byte	0x7
 2229 09e7 89       		.byte	0x89
 2230 09e8 2A020000 		.4byte	0x22a
 2231 09ec F6090000 		.4byte	0x9f6
 2232 09f0 0D       		.uleb128 0xd
 2233 09f1 2A020000 		.4byte	0x22a
 2234 09f5 00       		.byte	0
 2235 09f6 2C       		.uleb128 0x2c
 2236 09f7 FC000000 		.4byte	.LASF101
 2237 09fb 07       		.byte	0x7
 2238 09fc 95       		.byte	0x95
 2239 09fd 2D       		.uleb128 0x2d
 2240 09fe 32040000 		.4byte	.LASF94
 2241 0a02 07       		.byte	0x7
 2242 0a03 8C       		.byte	0x8c
 2243 0a04 0E0A0000 		.4byte	0xa0e
 2244 0a08 0D       		.uleb128 0xd
 2245 0a09 9E000000 		.4byte	0x9e
 2246 0a0d 00       		.byte	0
 2247 0a0e 2E       		.uleb128 0x2e
 2248 0a0f CA000000 		.4byte	.LASF95
 2249 0a13 07       		.byte	0x7
 2250 0a14 8F       		.byte	0x8f
 2251 0a15 CA000000 		.4byte	0xca
 2252 0a19 0D       		.uleb128 0xd
 2253 0a1a 9E000000 		.4byte	0x9e
 2254 0a1e 0D       		.uleb128 0xd
 2255 0a1f F6000000 		.4byte	0xf6
 2256 0a23 00       		.byte	0
 2257 0a24 00       		.byte	0
 2258              		.section	.debug_abbrev,"",%progbits
 2259              	.Ldebug_abbrev0:
 2260 0000 01       		.uleb128 0x1
 2261 0001 11       		.uleb128 0x11
 2262 0002 01       		.byte	0x1
 2263 0003 25       		.uleb128 0x25
 2264 0004 0E       		.uleb128 0xe
 2265 0005 13       		.uleb128 0x13
 2266 0006 0B       		.uleb128 0xb
 2267 0007 03       		.uleb128 0x3
 2268 0008 0E       		.uleb128 0xe
ARM GAS  /var/folders/qh/xwg3v3kj02qbxczjpdb8lzfr0000gn/T//ccBGUT7K.s 			page 41


 2269 0009 1B       		.uleb128 0x1b
 2270 000a 0E       		.uleb128 0xe
 2271 000b 55       		.uleb128 0x55
 2272 000c 17       		.uleb128 0x17
 2273 000d 11       		.uleb128 0x11
 2274 000e 01       		.uleb128 0x1
 2275 000f 10       		.uleb128 0x10
 2276 0010 17       		.uleb128 0x17
 2277 0011 00       		.byte	0
 2278 0012 00       		.byte	0
 2279 0013 02       		.uleb128 0x2
 2280 0014 24       		.uleb128 0x24
 2281 0015 00       		.byte	0
 2282 0016 0B       		.uleb128 0xb
 2283 0017 0B       		.uleb128 0xb
 2284 0018 3E       		.uleb128 0x3e
 2285 0019 0B       		.uleb128 0xb
 2286 001a 03       		.uleb128 0x3
 2287 001b 08       		.uleb128 0x8
 2288 001c 00       		.byte	0
 2289 001d 00       		.byte	0
 2290 001e 03       		.uleb128 0x3
 2291 001f 24       		.uleb128 0x24
 2292 0020 00       		.byte	0
 2293 0021 0B       		.uleb128 0xb
 2294 0022 0B       		.uleb128 0xb
 2295 0023 3E       		.uleb128 0x3e
 2296 0024 0B       		.uleb128 0xb
 2297 0025 03       		.uleb128 0x3
 2298 0026 0E       		.uleb128 0xe
 2299 0027 00       		.byte	0
 2300 0028 00       		.byte	0
 2301 0029 04       		.uleb128 0x4
 2302 002a 16       		.uleb128 0x16
 2303 002b 00       		.byte	0
 2304 002c 03       		.uleb128 0x3
 2305 002d 0E       		.uleb128 0xe
 2306 002e 3A       		.uleb128 0x3a
 2307 002f 0B       		.uleb128 0xb
 2308 0030 3B       		.uleb128 0x3b
 2309 0031 0B       		.uleb128 0xb
 2310 0032 49       		.uleb128 0x49
 2311 0033 13       		.uleb128 0x13
 2312 0034 00       		.byte	0
 2313 0035 00       		.byte	0
 2314 0036 05       		.uleb128 0x5
 2315 0037 13       		.uleb128 0x13
 2316 0038 01       		.byte	0x1
 2317 0039 03       		.uleb128 0x3
 2318 003a 0E       		.uleb128 0xe
 2319 003b 0B       		.uleb128 0xb
 2320 003c 0B       		.uleb128 0xb
 2321 003d 3A       		.uleb128 0x3a
 2322 003e 0B       		.uleb128 0xb
 2323 003f 3B       		.uleb128 0x3b
 2324 0040 0B       		.uleb128 0xb
 2325 0041 01       		.uleb128 0x1
ARM GAS  /var/folders/qh/xwg3v3kj02qbxczjpdb8lzfr0000gn/T//ccBGUT7K.s 			page 42


 2326 0042 13       		.uleb128 0x13
 2327 0043 00       		.byte	0
 2328 0044 00       		.byte	0
 2329 0045 06       		.uleb128 0x6
 2330 0046 0D       		.uleb128 0xd
 2331 0047 00       		.byte	0
 2332 0048 03       		.uleb128 0x3
 2333 0049 0E       		.uleb128 0xe
 2334 004a 3A       		.uleb128 0x3a
 2335 004b 0B       		.uleb128 0xb
 2336 004c 3B       		.uleb128 0x3b
 2337 004d 0B       		.uleb128 0xb
 2338 004e 49       		.uleb128 0x49
 2339 004f 13       		.uleb128 0x13
 2340 0050 38       		.uleb128 0x38
 2341 0051 0B       		.uleb128 0xb
 2342 0052 00       		.byte	0
 2343 0053 00       		.byte	0
 2344 0054 07       		.uleb128 0x7
 2345 0055 0D       		.uleb128 0xd
 2346 0056 00       		.byte	0
 2347 0057 03       		.uleb128 0x3
 2348 0058 08       		.uleb128 0x8
 2349 0059 3A       		.uleb128 0x3a
 2350 005a 0B       		.uleb128 0xb
 2351 005b 3B       		.uleb128 0x3b
 2352 005c 0B       		.uleb128 0xb
 2353 005d 49       		.uleb128 0x49
 2354 005e 13       		.uleb128 0x13
 2355 005f 38       		.uleb128 0x38
 2356 0060 0B       		.uleb128 0xb
 2357 0061 00       		.byte	0
 2358 0062 00       		.byte	0
 2359 0063 08       		.uleb128 0x8
 2360 0064 13       		.uleb128 0x13
 2361 0065 01       		.byte	0x1
 2362 0066 0B       		.uleb128 0xb
 2363 0067 0B       		.uleb128 0xb
 2364 0068 3A       		.uleb128 0x3a
 2365 0069 0B       		.uleb128 0xb
 2366 006a 3B       		.uleb128 0x3b
 2367 006b 0B       		.uleb128 0xb
 2368 006c 01       		.uleb128 0x1
 2369 006d 13       		.uleb128 0x13
 2370 006e 00       		.byte	0
 2371 006f 00       		.byte	0
 2372 0070 09       		.uleb128 0x9
 2373 0071 0F       		.uleb128 0xf
 2374 0072 00       		.byte	0
 2375 0073 0B       		.uleb128 0xb
 2376 0074 0B       		.uleb128 0xb
 2377 0075 49       		.uleb128 0x49
 2378 0076 13       		.uleb128 0x13
 2379 0077 00       		.byte	0
 2380 0078 00       		.byte	0
 2381 0079 0A       		.uleb128 0xa
 2382 007a 0F       		.uleb128 0xf
ARM GAS  /var/folders/qh/xwg3v3kj02qbxczjpdb8lzfr0000gn/T//ccBGUT7K.s 			page 43


 2383 007b 00       		.byte	0
 2384 007c 0B       		.uleb128 0xb
 2385 007d 0B       		.uleb128 0xb
 2386 007e 00       		.byte	0
 2387 007f 00       		.byte	0
 2388 0080 0B       		.uleb128 0xb
 2389 0081 35       		.uleb128 0x35
 2390 0082 00       		.byte	0
 2391 0083 49       		.uleb128 0x49
 2392 0084 13       		.uleb128 0x13
 2393 0085 00       		.byte	0
 2394 0086 00       		.byte	0
 2395 0087 0C       		.uleb128 0xc
 2396 0088 15       		.uleb128 0x15
 2397 0089 01       		.byte	0x1
 2398 008a 27       		.uleb128 0x27
 2399 008b 19       		.uleb128 0x19
 2400 008c 01       		.uleb128 0x1
 2401 008d 13       		.uleb128 0x13
 2402 008e 00       		.byte	0
 2403 008f 00       		.byte	0
 2404 0090 0D       		.uleb128 0xd
 2405 0091 05       		.uleb128 0x5
 2406 0092 00       		.byte	0
 2407 0093 49       		.uleb128 0x49
 2408 0094 13       		.uleb128 0x13
 2409 0095 00       		.byte	0
 2410 0096 00       		.byte	0
 2411 0097 0E       		.uleb128 0xe
 2412 0098 17       		.uleb128 0x17
 2413 0099 01       		.byte	0x1
 2414 009a 0B       		.uleb128 0xb
 2415 009b 0B       		.uleb128 0xb
 2416 009c 3A       		.uleb128 0x3a
 2417 009d 0B       		.uleb128 0xb
 2418 009e 3B       		.uleb128 0x3b
 2419 009f 0B       		.uleb128 0xb
 2420 00a0 01       		.uleb128 0x1
 2421 00a1 13       		.uleb128 0x13
 2422 00a2 00       		.byte	0
 2423 00a3 00       		.byte	0
 2424 00a4 0F       		.uleb128 0xf
 2425 00a5 0D       		.uleb128 0xd
 2426 00a6 00       		.byte	0
 2427 00a7 03       		.uleb128 0x3
 2428 00a8 0E       		.uleb128 0xe
 2429 00a9 3A       		.uleb128 0x3a
 2430 00aa 0B       		.uleb128 0xb
 2431 00ab 3B       		.uleb128 0x3b
 2432 00ac 0B       		.uleb128 0xb
 2433 00ad 49       		.uleb128 0x49
 2434 00ae 13       		.uleb128 0x13
 2435 00af 00       		.byte	0
 2436 00b0 00       		.byte	0
 2437 00b1 10       		.uleb128 0x10
 2438 00b2 26       		.uleb128 0x26
 2439 00b3 00       		.byte	0
ARM GAS  /var/folders/qh/xwg3v3kj02qbxczjpdb8lzfr0000gn/T//ccBGUT7K.s 			page 44


 2440 00b4 49       		.uleb128 0x49
 2441 00b5 13       		.uleb128 0x13
 2442 00b6 00       		.byte	0
 2443 00b7 00       		.byte	0
 2444 00b8 11       		.uleb128 0x11
 2445 00b9 2E       		.uleb128 0x2e
 2446 00ba 01       		.byte	0x1
 2447 00bb 3F       		.uleb128 0x3f
 2448 00bc 19       		.uleb128 0x19
 2449 00bd 03       		.uleb128 0x3
 2450 00be 0E       		.uleb128 0xe
 2451 00bf 3A       		.uleb128 0x3a
 2452 00c0 0B       		.uleb128 0xb
 2453 00c1 3B       		.uleb128 0x3b
 2454 00c2 0B       		.uleb128 0xb
 2455 00c3 27       		.uleb128 0x27
 2456 00c4 19       		.uleb128 0x19
 2457 00c5 20       		.uleb128 0x20
 2458 00c6 0B       		.uleb128 0xb
 2459 00c7 01       		.uleb128 0x1
 2460 00c8 13       		.uleb128 0x13
 2461 00c9 00       		.byte	0
 2462 00ca 00       		.byte	0
 2463 00cb 12       		.uleb128 0x12
 2464 00cc 05       		.uleb128 0x5
 2465 00cd 00       		.byte	0
 2466 00ce 03       		.uleb128 0x3
 2467 00cf 08       		.uleb128 0x8
 2468 00d0 3A       		.uleb128 0x3a
 2469 00d1 0B       		.uleb128 0xb
 2470 00d2 3B       		.uleb128 0x3b
 2471 00d3 0B       		.uleb128 0xb
 2472 00d4 49       		.uleb128 0x49
 2473 00d5 13       		.uleb128 0x13
 2474 00d6 00       		.byte	0
 2475 00d7 00       		.byte	0
 2476 00d8 13       		.uleb128 0x13
 2477 00d9 05       		.uleb128 0x5
 2478 00da 00       		.byte	0
 2479 00db 03       		.uleb128 0x3
 2480 00dc 0E       		.uleb128 0xe
 2481 00dd 3A       		.uleb128 0x3a
 2482 00de 0B       		.uleb128 0xb
 2483 00df 3B       		.uleb128 0x3b
 2484 00e0 0B       		.uleb128 0xb
 2485 00e1 49       		.uleb128 0x49
 2486 00e2 13       		.uleb128 0x13
 2487 00e3 00       		.byte	0
 2488 00e4 00       		.byte	0
 2489 00e5 14       		.uleb128 0x14
 2490 00e6 2E       		.uleb128 0x2e
 2491 00e7 01       		.byte	0x1
 2492 00e8 3F       		.uleb128 0x3f
 2493 00e9 19       		.uleb128 0x19
 2494 00ea 03       		.uleb128 0x3
 2495 00eb 0E       		.uleb128 0xe
 2496 00ec 3A       		.uleb128 0x3a
ARM GAS  /var/folders/qh/xwg3v3kj02qbxczjpdb8lzfr0000gn/T//ccBGUT7K.s 			page 45


 2497 00ed 0B       		.uleb128 0xb
 2498 00ee 3B       		.uleb128 0x3b
 2499 00ef 0B       		.uleb128 0xb
 2500 00f0 27       		.uleb128 0x27
 2501 00f1 19       		.uleb128 0x19
 2502 00f2 11       		.uleb128 0x11
 2503 00f3 01       		.uleb128 0x1
 2504 00f4 12       		.uleb128 0x12
 2505 00f5 06       		.uleb128 0x6
 2506 00f6 40       		.uleb128 0x40
 2507 00f7 18       		.uleb128 0x18
 2508 00f8 9742     		.uleb128 0x2117
 2509 00fa 19       		.uleb128 0x19
 2510 00fb 01       		.uleb128 0x1
 2511 00fc 13       		.uleb128 0x13
 2512 00fd 00       		.byte	0
 2513 00fe 00       		.byte	0
 2514 00ff 15       		.uleb128 0x15
 2515 0100 05       		.uleb128 0x5
 2516 0101 00       		.byte	0
 2517 0102 03       		.uleb128 0x3
 2518 0103 08       		.uleb128 0x8
 2519 0104 3A       		.uleb128 0x3a
 2520 0105 0B       		.uleb128 0xb
 2521 0106 3B       		.uleb128 0x3b
 2522 0107 0B       		.uleb128 0xb
 2523 0108 49       		.uleb128 0x49
 2524 0109 13       		.uleb128 0x13
 2525 010a 02       		.uleb128 0x2
 2526 010b 18       		.uleb128 0x18
 2527 010c 00       		.byte	0
 2528 010d 00       		.byte	0
 2529 010e 16       		.uleb128 0x16
 2530 010f 05       		.uleb128 0x5
 2531 0110 00       		.byte	0
 2532 0111 03       		.uleb128 0x3
 2533 0112 0E       		.uleb128 0xe
 2534 0113 3A       		.uleb128 0x3a
 2535 0114 0B       		.uleb128 0xb
 2536 0115 3B       		.uleb128 0x3b
 2537 0116 0B       		.uleb128 0xb
 2538 0117 49       		.uleb128 0x49
 2539 0118 13       		.uleb128 0x13
 2540 0119 02       		.uleb128 0x2
 2541 011a 18       		.uleb128 0x18
 2542 011b 00       		.byte	0
 2543 011c 00       		.byte	0
 2544 011d 17       		.uleb128 0x17
 2545 011e 05       		.uleb128 0x5
 2546 011f 00       		.byte	0
 2547 0120 03       		.uleb128 0x3
 2548 0121 08       		.uleb128 0x8
 2549 0122 3A       		.uleb128 0x3a
 2550 0123 0B       		.uleb128 0xb
 2551 0124 3B       		.uleb128 0x3b
 2552 0125 0B       		.uleb128 0xb
 2553 0126 49       		.uleb128 0x49
ARM GAS  /var/folders/qh/xwg3v3kj02qbxczjpdb8lzfr0000gn/T//ccBGUT7K.s 			page 46


 2554 0127 13       		.uleb128 0x13
 2555 0128 02       		.uleb128 0x2
 2556 0129 17       		.uleb128 0x17
 2557 012a 00       		.byte	0
 2558 012b 00       		.byte	0
 2559 012c 18       		.uleb128 0x18
 2560 012d 34       		.uleb128 0x34
 2561 012e 00       		.byte	0
 2562 012f 03       		.uleb128 0x3
 2563 0130 08       		.uleb128 0x8
 2564 0131 3A       		.uleb128 0x3a
 2565 0132 0B       		.uleb128 0xb
 2566 0133 3B       		.uleb128 0x3b
 2567 0134 0B       		.uleb128 0xb
 2568 0135 49       		.uleb128 0x49
 2569 0136 13       		.uleb128 0x13
 2570 0137 02       		.uleb128 0x2
 2571 0138 17       		.uleb128 0x17
 2572 0139 00       		.byte	0
 2573 013a 00       		.byte	0
 2574 013b 19       		.uleb128 0x19
 2575 013c 2E       		.uleb128 0x2e
 2576 013d 01       		.byte	0x1
 2577 013e 3F       		.uleb128 0x3f
 2578 013f 19       		.uleb128 0x19
 2579 0140 03       		.uleb128 0x3
 2580 0141 0E       		.uleb128 0xe
 2581 0142 3A       		.uleb128 0x3a
 2582 0143 0B       		.uleb128 0xb
 2583 0144 3B       		.uleb128 0x3b
 2584 0145 0B       		.uleb128 0xb
 2585 0146 27       		.uleb128 0x27
 2586 0147 19       		.uleb128 0x19
 2587 0148 49       		.uleb128 0x49
 2588 0149 13       		.uleb128 0x13
 2589 014a 11       		.uleb128 0x11
 2590 014b 01       		.uleb128 0x1
 2591 014c 12       		.uleb128 0x12
 2592 014d 06       		.uleb128 0x6
 2593 014e 40       		.uleb128 0x40
 2594 014f 18       		.uleb128 0x18
 2595 0150 9742     		.uleb128 0x2117
 2596 0152 19       		.uleb128 0x19
 2597 0153 01       		.uleb128 0x1
 2598 0154 13       		.uleb128 0x13
 2599 0155 00       		.byte	0
 2600 0156 00       		.byte	0
 2601 0157 1A       		.uleb128 0x1a
 2602 0158 05       		.uleb128 0x5
 2603 0159 00       		.byte	0
 2604 015a 03       		.uleb128 0x3
 2605 015b 0E       		.uleb128 0xe
 2606 015c 3A       		.uleb128 0x3a
 2607 015d 0B       		.uleb128 0xb
 2608 015e 3B       		.uleb128 0x3b
 2609 015f 0B       		.uleb128 0xb
 2610 0160 49       		.uleb128 0x49
ARM GAS  /var/folders/qh/xwg3v3kj02qbxczjpdb8lzfr0000gn/T//ccBGUT7K.s 			page 47


 2611 0161 13       		.uleb128 0x13
 2612 0162 02       		.uleb128 0x2
 2613 0163 17       		.uleb128 0x17
 2614 0164 00       		.byte	0
 2615 0165 00       		.byte	0
 2616 0166 1B       		.uleb128 0x1b
 2617 0167 34       		.uleb128 0x34
 2618 0168 00       		.byte	0
 2619 0169 03       		.uleb128 0x3
 2620 016a 0E       		.uleb128 0xe
 2621 016b 3A       		.uleb128 0x3a
 2622 016c 0B       		.uleb128 0xb
 2623 016d 3B       		.uleb128 0x3b
 2624 016e 0B       		.uleb128 0xb
 2625 016f 49       		.uleb128 0x49
 2626 0170 13       		.uleb128 0x13
 2627 0171 02       		.uleb128 0x2
 2628 0172 18       		.uleb128 0x18
 2629 0173 00       		.byte	0
 2630 0174 00       		.byte	0
 2631 0175 1C       		.uleb128 0x1c
 2632 0176 2E       		.uleb128 0x2e
 2633 0177 01       		.byte	0x1
 2634 0178 31       		.uleb128 0x31
 2635 0179 13       		.uleb128 0x13
 2636 017a 11       		.uleb128 0x11
 2637 017b 01       		.uleb128 0x1
 2638 017c 12       		.uleb128 0x12
 2639 017d 06       		.uleb128 0x6
 2640 017e 40       		.uleb128 0x40
 2641 017f 18       		.uleb128 0x18
 2642 0180 9742     		.uleb128 0x2117
 2643 0182 19       		.uleb128 0x19
 2644 0183 01       		.uleb128 0x1
 2645 0184 13       		.uleb128 0x13
 2646 0185 00       		.byte	0
 2647 0186 00       		.byte	0
 2648 0187 1D       		.uleb128 0x1d
 2649 0188 05       		.uleb128 0x5
 2650 0189 00       		.byte	0
 2651 018a 31       		.uleb128 0x31
 2652 018b 13       		.uleb128 0x13
 2653 018c 02       		.uleb128 0x2
 2654 018d 17       		.uleb128 0x17
 2655 018e 00       		.byte	0
 2656 018f 00       		.byte	0
 2657 0190 1E       		.uleb128 0x1e
 2658 0191 0B       		.uleb128 0xb
 2659 0192 01       		.byte	0x1
 2660 0193 55       		.uleb128 0x55
 2661 0194 17       		.uleb128 0x17
 2662 0195 00       		.byte	0
 2663 0196 00       		.byte	0
 2664 0197 1F       		.uleb128 0x1f
 2665 0198 898201   		.uleb128 0x4109
 2666 019b 01       		.byte	0x1
 2667 019c 11       		.uleb128 0x11
ARM GAS  /var/folders/qh/xwg3v3kj02qbxczjpdb8lzfr0000gn/T//ccBGUT7K.s 			page 48


 2668 019d 01       		.uleb128 0x1
 2669 019e 31       		.uleb128 0x31
 2670 019f 13       		.uleb128 0x13
 2671 01a0 01       		.uleb128 0x1
 2672 01a1 13       		.uleb128 0x13
 2673 01a2 00       		.byte	0
 2674 01a3 00       		.byte	0
 2675 01a4 20       		.uleb128 0x20
 2676 01a5 8A8201   		.uleb128 0x410a
 2677 01a8 00       		.byte	0
 2678 01a9 02       		.uleb128 0x2
 2679 01aa 18       		.uleb128 0x18
 2680 01ab 9142     		.uleb128 0x2111
 2681 01ad 18       		.uleb128 0x18
 2682 01ae 00       		.byte	0
 2683 01af 00       		.byte	0
 2684 01b0 21       		.uleb128 0x21
 2685 01b1 898201   		.uleb128 0x4109
 2686 01b4 01       		.byte	0x1
 2687 01b5 11       		.uleb128 0x11
 2688 01b6 01       		.uleb128 0x1
 2689 01b7 31       		.uleb128 0x31
 2690 01b8 13       		.uleb128 0x13
 2691 01b9 00       		.byte	0
 2692 01ba 00       		.byte	0
 2693 01bb 22       		.uleb128 0x22
 2694 01bc 898201   		.uleb128 0x4109
 2695 01bf 00       		.byte	0
 2696 01c0 11       		.uleb128 0x11
 2697 01c1 01       		.uleb128 0x1
 2698 01c2 31       		.uleb128 0x31
 2699 01c3 13       		.uleb128 0x13
 2700 01c4 00       		.byte	0
 2701 01c5 00       		.byte	0
 2702 01c6 23       		.uleb128 0x23
 2703 01c7 2E       		.uleb128 0x2e
 2704 01c8 01       		.byte	0x1
 2705 01c9 3F       		.uleb128 0x3f
 2706 01ca 19       		.uleb128 0x19
 2707 01cb 03       		.uleb128 0x3
 2708 01cc 0E       		.uleb128 0xe
 2709 01cd 3A       		.uleb128 0x3a
 2710 01ce 0B       		.uleb128 0xb
 2711 01cf 3B       		.uleb128 0x3b
 2712 01d0 05       		.uleb128 0x5
 2713 01d1 27       		.uleb128 0x27
 2714 01d2 19       		.uleb128 0x19
 2715 01d3 11       		.uleb128 0x11
 2716 01d4 01       		.uleb128 0x1
 2717 01d5 12       		.uleb128 0x12
 2718 01d6 06       		.uleb128 0x6
 2719 01d7 40       		.uleb128 0x40
 2720 01d8 18       		.uleb128 0x18
 2721 01d9 9742     		.uleb128 0x2117
 2722 01db 19       		.uleb128 0x19
 2723 01dc 01       		.uleb128 0x1
 2724 01dd 13       		.uleb128 0x13
ARM GAS  /var/folders/qh/xwg3v3kj02qbxczjpdb8lzfr0000gn/T//ccBGUT7K.s 			page 49


 2725 01de 00       		.byte	0
 2726 01df 00       		.byte	0
 2727 01e0 24       		.uleb128 0x24
 2728 01e1 05       		.uleb128 0x5
 2729 01e2 00       		.byte	0
 2730 01e3 03       		.uleb128 0x3
 2731 01e4 08       		.uleb128 0x8
 2732 01e5 3A       		.uleb128 0x3a
 2733 01e6 0B       		.uleb128 0xb
 2734 01e7 3B       		.uleb128 0x3b
 2735 01e8 05       		.uleb128 0x5
 2736 01e9 49       		.uleb128 0x49
 2737 01ea 13       		.uleb128 0x13
 2738 01eb 02       		.uleb128 0x2
 2739 01ec 17       		.uleb128 0x17
 2740 01ed 00       		.byte	0
 2741 01ee 00       		.byte	0
 2742 01ef 25       		.uleb128 0x25
 2743 01f0 05       		.uleb128 0x5
 2744 01f1 00       		.byte	0
 2745 01f2 03       		.uleb128 0x3
 2746 01f3 0E       		.uleb128 0xe
 2747 01f4 3A       		.uleb128 0x3a
 2748 01f5 0B       		.uleb128 0xb
 2749 01f6 3B       		.uleb128 0x3b
 2750 01f7 05       		.uleb128 0x5
 2751 01f8 49       		.uleb128 0x49
 2752 01f9 13       		.uleb128 0x13
 2753 01fa 02       		.uleb128 0x2
 2754 01fb 17       		.uleb128 0x17
 2755 01fc 00       		.byte	0
 2756 01fd 00       		.byte	0
 2757 01fe 26       		.uleb128 0x26
 2758 01ff 2E       		.uleb128 0x2e
 2759 0200 01       		.byte	0x1
 2760 0201 3F       		.uleb128 0x3f
 2761 0202 19       		.uleb128 0x19
 2762 0203 03       		.uleb128 0x3
 2763 0204 0E       		.uleb128 0xe
 2764 0205 3A       		.uleb128 0x3a
 2765 0206 0B       		.uleb128 0xb
 2766 0207 3B       		.uleb128 0x3b
 2767 0208 05       		.uleb128 0x5
 2768 0209 27       		.uleb128 0x27
 2769 020a 19       		.uleb128 0x19
 2770 020b 49       		.uleb128 0x49
 2771 020c 13       		.uleb128 0x13
 2772 020d 11       		.uleb128 0x11
 2773 020e 01       		.uleb128 0x1
 2774 020f 12       		.uleb128 0x12
 2775 0210 06       		.uleb128 0x6
 2776 0211 40       		.uleb128 0x40
 2777 0212 18       		.uleb128 0x18
 2778 0213 9742     		.uleb128 0x2117
 2779 0215 19       		.uleb128 0x19
 2780 0216 01       		.uleb128 0x1
 2781 0217 13       		.uleb128 0x13
ARM GAS  /var/folders/qh/xwg3v3kj02qbxczjpdb8lzfr0000gn/T//ccBGUT7K.s 			page 50


 2782 0218 00       		.byte	0
 2783 0219 00       		.byte	0
 2784 021a 27       		.uleb128 0x27
 2785 021b 34       		.uleb128 0x34
 2786 021c 00       		.byte	0
 2787 021d 03       		.uleb128 0x3
 2788 021e 0E       		.uleb128 0xe
 2789 021f 3A       		.uleb128 0x3a
 2790 0220 0B       		.uleb128 0xb
 2791 0221 3B       		.uleb128 0x3b
 2792 0222 05       		.uleb128 0x5
 2793 0223 49       		.uleb128 0x49
 2794 0224 13       		.uleb128 0x13
 2795 0225 02       		.uleb128 0x2
 2796 0226 18       		.uleb128 0x18
 2797 0227 00       		.byte	0
 2798 0228 00       		.byte	0
 2799 0229 28       		.uleb128 0x28
 2800 022a 34       		.uleb128 0x34
 2801 022b 00       		.byte	0
 2802 022c 03       		.uleb128 0x3
 2803 022d 08       		.uleb128 0x8
 2804 022e 3A       		.uleb128 0x3a
 2805 022f 0B       		.uleb128 0xb
 2806 0230 3B       		.uleb128 0x3b
 2807 0231 05       		.uleb128 0x5
 2808 0232 49       		.uleb128 0x49
 2809 0233 13       		.uleb128 0x13
 2810 0234 02       		.uleb128 0x2
 2811 0235 17       		.uleb128 0x17
 2812 0236 00       		.byte	0
 2813 0237 00       		.byte	0
 2814 0238 29       		.uleb128 0x29
 2815 0239 898201   		.uleb128 0x4109
 2816 023c 01       		.byte	0x1
 2817 023d 11       		.uleb128 0x11
 2818 023e 01       		.uleb128 0x1
 2819 023f 00       		.byte	0
 2820 0240 00       		.byte	0
 2821 0241 2A       		.uleb128 0x2a
 2822 0242 34       		.uleb128 0x34
 2823 0243 00       		.byte	0
 2824 0244 03       		.uleb128 0x3
 2825 0245 0E       		.uleb128 0xe
 2826 0246 3A       		.uleb128 0x3a
 2827 0247 0B       		.uleb128 0xb
 2828 0248 3B       		.uleb128 0x3b
 2829 0249 0B       		.uleb128 0xb
 2830 024a 49       		.uleb128 0x49
 2831 024b 13       		.uleb128 0x13
 2832 024c 3F       		.uleb128 0x3f
 2833 024d 19       		.uleb128 0x19
 2834 024e 3C       		.uleb128 0x3c
 2835 024f 19       		.uleb128 0x19
 2836 0250 00       		.byte	0
 2837 0251 00       		.byte	0
 2838 0252 2B       		.uleb128 0x2b
ARM GAS  /var/folders/qh/xwg3v3kj02qbxczjpdb8lzfr0000gn/T//ccBGUT7K.s 			page 51


 2839 0253 2E       		.uleb128 0x2e
 2840 0254 01       		.byte	0x1
 2841 0255 3F       		.uleb128 0x3f
 2842 0256 19       		.uleb128 0x19
 2843 0257 03       		.uleb128 0x3
 2844 0258 0E       		.uleb128 0xe
 2845 0259 3A       		.uleb128 0x3a
 2846 025a 0B       		.uleb128 0xb
 2847 025b 3B       		.uleb128 0x3b
 2848 025c 0B       		.uleb128 0xb
 2849 025d 27       		.uleb128 0x27
 2850 025e 19       		.uleb128 0x19
 2851 025f 49       		.uleb128 0x49
 2852 0260 13       		.uleb128 0x13
 2853 0261 3C       		.uleb128 0x3c
 2854 0262 19       		.uleb128 0x19
 2855 0263 01       		.uleb128 0x1
 2856 0264 13       		.uleb128 0x13
 2857 0265 00       		.byte	0
 2858 0266 00       		.byte	0
 2859 0267 2C       		.uleb128 0x2c
 2860 0268 2E       		.uleb128 0x2e
 2861 0269 00       		.byte	0
 2862 026a 3F       		.uleb128 0x3f
 2863 026b 19       		.uleb128 0x19
 2864 026c 03       		.uleb128 0x3
 2865 026d 0E       		.uleb128 0xe
 2866 026e 3A       		.uleb128 0x3a
 2867 026f 0B       		.uleb128 0xb
 2868 0270 3B       		.uleb128 0x3b
 2869 0271 0B       		.uleb128 0xb
 2870 0272 27       		.uleb128 0x27
 2871 0273 19       		.uleb128 0x19
 2872 0274 3C       		.uleb128 0x3c
 2873 0275 19       		.uleb128 0x19
 2874 0276 00       		.byte	0
 2875 0277 00       		.byte	0
 2876 0278 2D       		.uleb128 0x2d
 2877 0279 2E       		.uleb128 0x2e
 2878 027a 01       		.byte	0x1
 2879 027b 3F       		.uleb128 0x3f
 2880 027c 19       		.uleb128 0x19
 2881 027d 03       		.uleb128 0x3
 2882 027e 0E       		.uleb128 0xe
 2883 027f 3A       		.uleb128 0x3a
 2884 0280 0B       		.uleb128 0xb
 2885 0281 3B       		.uleb128 0x3b
 2886 0282 0B       		.uleb128 0xb
 2887 0283 27       		.uleb128 0x27
 2888 0284 19       		.uleb128 0x19
 2889 0285 3C       		.uleb128 0x3c
 2890 0286 19       		.uleb128 0x19
 2891 0287 01       		.uleb128 0x1
 2892 0288 13       		.uleb128 0x13
 2893 0289 00       		.byte	0
 2894 028a 00       		.byte	0
 2895 028b 2E       		.uleb128 0x2e
ARM GAS  /var/folders/qh/xwg3v3kj02qbxczjpdb8lzfr0000gn/T//ccBGUT7K.s 			page 52


 2896 028c 2E       		.uleb128 0x2e
 2897 028d 01       		.byte	0x1
 2898 028e 3F       		.uleb128 0x3f
 2899 028f 19       		.uleb128 0x19
 2900 0290 03       		.uleb128 0x3
 2901 0291 0E       		.uleb128 0xe
 2902 0292 3A       		.uleb128 0x3a
 2903 0293 0B       		.uleb128 0xb
 2904 0294 3B       		.uleb128 0x3b
 2905 0295 0B       		.uleb128 0xb
 2906 0296 27       		.uleb128 0x27
 2907 0297 19       		.uleb128 0x19
 2908 0298 49       		.uleb128 0x49
 2909 0299 13       		.uleb128 0x13
 2910 029a 3C       		.uleb128 0x3c
 2911 029b 19       		.uleb128 0x19
 2912 029c 00       		.byte	0
 2913 029d 00       		.byte	0
 2914 029e 00       		.byte	0
 2915              		.section	.debug_loc,"",%progbits
 2916              	.Ldebug_loc0:
 2917              	.LLST0:
 2918 0000 00000000 		.4byte	.LVL1
 2919 0004 12000000 		.4byte	.LVL4
 2920 0008 0100     		.2byte	0x1
 2921 000a 51       		.byte	0x51
 2922 000b 12000000 		.4byte	.LVL4
 2923 000f 16000000 		.4byte	.LVL5
 2924 0013 0400     		.2byte	0x4
 2925 0015 F3       		.byte	0xf3
 2926 0016 01       		.uleb128 0x1
 2927 0017 51       		.byte	0x51
 2928 0018 9F       		.byte	0x9f
 2929 0019 16000000 		.4byte	.LVL5
 2930 001d 18000000 		.4byte	.LVL6
 2931 0021 0100     		.2byte	0x1
 2932 0023 51       		.byte	0x51
 2933 0024 18000000 		.4byte	.LVL6
 2934 0028 1C000000 		.4byte	.LFE8
 2935 002c 0400     		.2byte	0x4
 2936 002e F3       		.byte	0xf3
 2937 002f 01       		.uleb128 0x1
 2938 0030 51       		.byte	0x51
 2939 0031 9F       		.byte	0x9f
 2940 0032 00000000 		.4byte	0
 2941 0036 00000000 		.4byte	0
 2942              	.LLST1:
 2943 003a 00000000 		.4byte	.LVL1
 2944 003e 06000000 		.4byte	.LVL2
 2945 0042 0100     		.2byte	0x1
 2946 0044 50       		.byte	0x50
 2947 0045 06000000 		.4byte	.LVL2
 2948 0049 1C000000 		.4byte	.LFE8
 2949 004d 0100     		.2byte	0x1
 2950 004f 52       		.byte	0x52
 2951 0050 00000000 		.4byte	0
 2952 0054 00000000 		.4byte	0
ARM GAS  /var/folders/qh/xwg3v3kj02qbxczjpdb8lzfr0000gn/T//ccBGUT7K.s 			page 53


 2953              	.LLST2:
 2954 0058 00000000 		.4byte	.LVL7
 2955 005c 12000000 		.4byte	.LVL9
 2956 0060 0100     		.2byte	0x1
 2957 0062 50       		.byte	0x50
 2958 0063 12000000 		.4byte	.LVL9
 2959 0067 18000000 		.4byte	.LFE9
 2960 006b 0400     		.2byte	0x4
 2961 006d F3       		.byte	0xf3
 2962 006e 01       		.uleb128 0x1
 2963 006f 50       		.byte	0x50
 2964 0070 9F       		.byte	0x9f
 2965 0071 00000000 		.4byte	0
 2966 0075 00000000 		.4byte	0
 2967              	.LLST3:
 2968 0079 08000000 		.4byte	.LVL8
 2969 007d 12000000 		.4byte	.LVL9
 2970 0081 0600     		.2byte	0x6
 2971 0083 70       		.byte	0x70
 2972 0084 00       		.sleb128 0
 2973 0085 73       		.byte	0x73
 2974 0086 00       		.sleb128 0
 2975 0087 1A       		.byte	0x1a
 2976 0088 9F       		.byte	0x9f
 2977 0089 12000000 		.4byte	.LVL9
 2978 008d 18000000 		.4byte	.LFE9
 2979 0091 0100     		.2byte	0x1
 2980 0093 50       		.byte	0x50
 2981 0094 00000000 		.4byte	0
 2982 0098 00000000 		.4byte	0
 2983              	.LLST4:
 2984 009c 00000000 		.4byte	.LVL10
 2985 00a0 0A000000 		.4byte	.LVL11
 2986 00a4 0100     		.2byte	0x1
 2987 00a6 50       		.byte	0x50
 2988 00a7 0A000000 		.4byte	.LVL11
 2989 00ab 0C000000 		.4byte	.LVL12
 2990 00af 0400     		.2byte	0x4
 2991 00b1 F3       		.byte	0xf3
 2992 00b2 01       		.uleb128 0x1
 2993 00b3 50       		.byte	0x50
 2994 00b4 9F       		.byte	0x9f
 2995 00b5 0C000000 		.4byte	.LVL12
 2996 00b9 14000000 		.4byte	.LFE10
 2997 00bd 0100     		.2byte	0x1
 2998 00bf 50       		.byte	0x50
 2999 00c0 00000000 		.4byte	0
 3000 00c4 00000000 		.4byte	0
 3001              	.LLST5:
 3002 00c8 00000000 		.4byte	.LVL13
 3003 00cc 08000000 		.4byte	.LVL14
 3004 00d0 0100     		.2byte	0x1
 3005 00d2 50       		.byte	0x50
 3006 00d3 08000000 		.4byte	.LVL14
 3007 00d7 0E000000 		.4byte	.LFE12
 3008 00db 0100     		.2byte	0x1
 3009 00dd 53       		.byte	0x53
ARM GAS  /var/folders/qh/xwg3v3kj02qbxczjpdb8lzfr0000gn/T//ccBGUT7K.s 			page 54


 3010 00de 00000000 		.4byte	0
 3011 00e2 00000000 		.4byte	0
 3012              	.LLST6:
 3013 00e6 00000000 		.4byte	.LVL15
 3014 00ea 12000000 		.4byte	.LVL17
 3015 00ee 0100     		.2byte	0x1
 3016 00f0 50       		.byte	0x50
 3017 00f1 12000000 		.4byte	.LVL17
 3018 00f5 14000000 		.4byte	.LVL18
 3019 00f9 0400     		.2byte	0x4
 3020 00fb F3       		.byte	0xf3
 3021 00fc 01       		.uleb128 0x1
 3022 00fd 50       		.byte	0x50
 3023 00fe 9F       		.byte	0x9f
 3024 00ff 14000000 		.4byte	.LVL18
 3025 0103 1F000000 		.4byte	.LVL20-1
 3026 0107 0100     		.2byte	0x1
 3027 0109 50       		.byte	0x50
 3028 010a 1F000000 		.4byte	.LVL20-1
 3029 010e 26000000 		.4byte	.LVL21
 3030 0112 0400     		.2byte	0x4
 3031 0114 F3       		.byte	0xf3
 3032 0115 01       		.uleb128 0x1
 3033 0116 50       		.byte	0x50
 3034 0117 9F       		.byte	0x9f
 3035 0118 26000000 		.4byte	.LVL21
 3036 011c 2F000000 		.4byte	.LVL23-1
 3037 0120 0100     		.2byte	0x1
 3038 0122 50       		.byte	0x50
 3039 0123 2F000000 		.4byte	.LVL23-1
 3040 0127 36000000 		.4byte	.LFE14
 3041 012b 0400     		.2byte	0x4
 3042 012d F3       		.byte	0xf3
 3043 012e 01       		.uleb128 0x1
 3044 012f 50       		.byte	0x50
 3045 0130 9F       		.byte	0x9f
 3046 0131 00000000 		.4byte	0
 3047 0135 00000000 		.4byte	0
 3048              	.LLST7:
 3049 0139 00000000 		.4byte	.LVL15
 3050 013d 06000000 		.4byte	.LVL16
 3051 0141 0100     		.2byte	0x1
 3052 0143 51       		.byte	0x51
 3053 0144 06000000 		.4byte	.LVL16
 3054 0148 36000000 		.4byte	.LFE14
 3055 014c 0400     		.2byte	0x4
 3056 014e F3       		.byte	0xf3
 3057 014f 01       		.uleb128 0x1
 3058 0150 51       		.byte	0x51
 3059 0151 9F       		.byte	0x9f
 3060 0152 00000000 		.4byte	0
 3061 0156 00000000 		.4byte	0
 3062              	.LLST8:
 3063 015a 1C000000 		.4byte	.LVL19
 3064 015e 26000000 		.4byte	.LVL21
 3065 0162 0400     		.2byte	0x4
 3066 0164 F3       		.byte	0xf3
ARM GAS  /var/folders/qh/xwg3v3kj02qbxczjpdb8lzfr0000gn/T//ccBGUT7K.s 			page 55


 3067 0165 01       		.uleb128 0x1
 3068 0166 51       		.byte	0x51
 3069 0167 9F       		.byte	0x9f
 3070 0168 2C000000 		.4byte	.LVL22
 3071 016c 36000000 		.4byte	.LFE14
 3072 0170 0400     		.2byte	0x4
 3073 0172 F3       		.byte	0xf3
 3074 0173 01       		.uleb128 0x1
 3075 0174 51       		.byte	0x51
 3076 0175 9F       		.byte	0x9f
 3077 0176 00000000 		.4byte	0
 3078 017a 00000000 		.4byte	0
 3079              	.LLST9:
 3080 017e 1C000000 		.4byte	.LVL19
 3081 0182 1F000000 		.4byte	.LVL20-1
 3082 0186 0100     		.2byte	0x1
 3083 0188 50       		.byte	0x50
 3084 0189 1F000000 		.4byte	.LVL20-1
 3085 018d 26000000 		.4byte	.LVL21
 3086 0191 0400     		.2byte	0x4
 3087 0193 F3       		.byte	0xf3
 3088 0194 01       		.uleb128 0x1
 3089 0195 50       		.byte	0x50
 3090 0196 9F       		.byte	0x9f
 3091 0197 2C000000 		.4byte	.LVL22
 3092 019b 2F000000 		.4byte	.LVL23-1
 3093 019f 0100     		.2byte	0x1
 3094 01a1 50       		.byte	0x50
 3095 01a2 2F000000 		.4byte	.LVL23-1
 3096 01a6 36000000 		.4byte	.LFE14
 3097 01aa 0400     		.2byte	0x4
 3098 01ac F3       		.byte	0xf3
 3099 01ad 01       		.uleb128 0x1
 3100 01ae 50       		.byte	0x50
 3101 01af 9F       		.byte	0x9f
 3102 01b0 00000000 		.4byte	0
 3103 01b4 00000000 		.4byte	0
 3104              	.LLST10:
 3105 01b8 00000000 		.4byte	.LVL24
 3106 01bc 0C000000 		.4byte	.LVL26
 3107 01c0 0100     		.2byte	0x1
 3108 01c2 50       		.byte	0x50
 3109 01c3 0C000000 		.4byte	.LVL26
 3110 01c7 20000000 		.4byte	.LVL30
 3111 01cb 0100     		.2byte	0x1
 3112 01cd 55       		.byte	0x55
 3113 01ce 20000000 		.4byte	.LVL30
 3114 01d2 22000000 		.4byte	.LFE11
 3115 01d6 0400     		.2byte	0x4
 3116 01d8 F3       		.byte	0xf3
 3117 01d9 01       		.uleb128 0x1
 3118 01da 50       		.byte	0x50
 3119 01db 9F       		.byte	0x9f
 3120 01dc 00000000 		.4byte	0
 3121 01e0 00000000 		.4byte	0
 3122              	.LLST11:
 3123 01e4 00000000 		.4byte	.LVL24
ARM GAS  /var/folders/qh/xwg3v3kj02qbxczjpdb8lzfr0000gn/T//ccBGUT7K.s 			page 56


 3124 01e8 0C000000 		.4byte	.LVL26
 3125 01ec 0100     		.2byte	0x1
 3126 01ee 51       		.byte	0x51
 3127 01ef 0C000000 		.4byte	.LVL26
 3128 01f3 20000000 		.4byte	.LVL31
 3129 01f7 0100     		.2byte	0x1
 3130 01f9 56       		.byte	0x56
 3131 01fa 20000000 		.4byte	.LVL31
 3132 01fe 22000000 		.4byte	.LFE11
 3133 0202 0400     		.2byte	0x4
 3134 0204 F3       		.byte	0xf3
 3135 0205 01       		.uleb128 0x1
 3136 0206 51       		.byte	0x51
 3137 0207 9F       		.byte	0x9f
 3138 0208 00000000 		.4byte	0
 3139 020c 00000000 		.4byte	0
 3140              	.LLST12:
 3141 0210 04000000 		.4byte	.LVL25
 3142 0214 20000000 		.4byte	.LVL29
 3143 0218 0100     		.2byte	0x1
 3144 021a 54       		.byte	0x54
 3145 021b 00000000 		.4byte	0
 3146 021f 00000000 		.4byte	0
 3147              	.LLST13:
 3148 0223 00000000 		.4byte	.LVL32
 3149 0227 07000000 		.4byte	.LVL33-1
 3150 022b 0100     		.2byte	0x1
 3151 022d 50       		.byte	0x50
 3152 022e 07000000 		.4byte	.LVL33-1
 3153 0232 10000000 		.4byte	.LFE13
 3154 0236 0400     		.2byte	0x4
 3155 0238 F3       		.byte	0xf3
 3156 0239 01       		.uleb128 0x1
 3157 023a 50       		.byte	0x50
 3158 023b 9F       		.byte	0x9f
 3159 023c 00000000 		.4byte	0
 3160 0240 00000000 		.4byte	0
 3161              	.LLST14:
 3162 0244 00000000 		.4byte	.LVL32
 3163 0248 07000000 		.4byte	.LVL33-1
 3164 024c 0100     		.2byte	0x1
 3165 024e 51       		.byte	0x51
 3166 024f 07000000 		.4byte	.LVL33-1
 3167 0253 10000000 		.4byte	.LFE13
 3168 0257 0400     		.2byte	0x4
 3169 0259 F3       		.byte	0xf3
 3170 025a 01       		.uleb128 0x1
 3171 025b 51       		.byte	0x51
 3172 025c 9F       		.byte	0x9f
 3173 025d 00000000 		.4byte	0
 3174 0261 00000000 		.4byte	0
 3175              	.LLST15:
 3176 0265 00000000 		.4byte	.LVL35
 3177 0269 07000000 		.4byte	.LVL36-1
 3178 026d 0100     		.2byte	0x1
 3179 026f 50       		.byte	0x50
 3180 0270 07000000 		.4byte	.LVL36-1
ARM GAS  /var/folders/qh/xwg3v3kj02qbxczjpdb8lzfr0000gn/T//ccBGUT7K.s 			page 57


 3181 0274 10000000 		.4byte	.LFE15
 3182 0278 0400     		.2byte	0x4
 3183 027a F3       		.byte	0xf3
 3184 027b 01       		.uleb128 0x1
 3185 027c 50       		.byte	0x50
 3186 027d 9F       		.byte	0x9f
 3187 027e 00000000 		.4byte	0
 3188 0282 00000000 		.4byte	0
 3189              	.LLST16:
 3190 0286 00000000 		.4byte	.LVL35
 3191 028a 07000000 		.4byte	.LVL36-1
 3192 028e 0100     		.2byte	0x1
 3193 0290 51       		.byte	0x51
 3194 0291 07000000 		.4byte	.LVL36-1
 3195 0295 10000000 		.4byte	.LFE15
 3196 0299 0400     		.2byte	0x4
 3197 029b F3       		.byte	0xf3
 3198 029c 01       		.uleb128 0x1
 3199 029d 51       		.byte	0x51
 3200 029e 9F       		.byte	0x9f
 3201 029f 00000000 		.4byte	0
 3202 02a3 00000000 		.4byte	0
 3203              	.LLST17:
 3204 02a7 00000000 		.4byte	.LVL38
 3205 02ab 06000000 		.4byte	.LVL39
 3206 02af 0100     		.2byte	0x1
 3207 02b1 50       		.byte	0x50
 3208 02b2 06000000 		.4byte	.LVL39
 3209 02b6 0A000000 		.4byte	.LFE16
 3210 02ba 0100     		.2byte	0x1
 3211 02bc 53       		.byte	0x53
 3212 02bd 00000000 		.4byte	0
 3213 02c1 00000000 		.4byte	0
 3214              	.LLST18:
 3215 02c5 00000000 		.4byte	.LVL40
 3216 02c9 10000000 		.4byte	.LVL41
 3217 02cd 0100     		.2byte	0x1
 3218 02cf 50       		.byte	0x50
 3219 02d0 10000000 		.4byte	.LVL41
 3220 02d4 32000000 		.4byte	.LFE17
 3221 02d8 0400     		.2byte	0x4
 3222 02da F3       		.byte	0xf3
 3223 02db 01       		.uleb128 0x1
 3224 02dc 50       		.byte	0x50
 3225 02dd 9F       		.byte	0x9f
 3226 02de 00000000 		.4byte	0
 3227 02e2 00000000 		.4byte	0
 3228              	.LLST19:
 3229 02e6 00000000 		.4byte	.LVL40
 3230 02ea 10000000 		.4byte	.LVL41
 3231 02ee 0100     		.2byte	0x1
 3232 02f0 51       		.byte	0x51
 3233 02f1 10000000 		.4byte	.LVL41
 3234 02f5 30000000 		.4byte	.LVL48
 3235 02f9 0100     		.2byte	0x1
 3236 02fb 55       		.byte	0x55
 3237 02fc 00000000 		.4byte	0
ARM GAS  /var/folders/qh/xwg3v3kj02qbxczjpdb8lzfr0000gn/T//ccBGUT7K.s 			page 58


 3238 0300 00000000 		.4byte	0
 3239              	.LLST20:
 3240 0304 00000000 		.4byte	.LVL40
 3241 0308 10000000 		.4byte	.LVL41
 3242 030c 0200     		.2byte	0x2
 3243 030e 30       		.byte	0x30
 3244 030f 9F       		.byte	0x9f
 3245 0310 10000000 		.4byte	.LVL41
 3246 0314 30000000 		.4byte	.LVL47
 3247 0318 0100     		.2byte	0x1
 3248 031a 54       		.byte	0x54
 3249 031b 00000000 		.4byte	0
 3250 031f 00000000 		.4byte	0
 3251              	.LLST21:
 3252 0323 00000000 		.4byte	.LVL49
 3253 0327 16000000 		.4byte	.LVL52
 3254 032b 0100     		.2byte	0x1
 3255 032d 50       		.byte	0x50
 3256 032e 16000000 		.4byte	.LVL52
 3257 0332 2A000000 		.4byte	.LVL57
 3258 0336 0100     		.2byte	0x1
 3259 0338 55       		.byte	0x55
 3260 0339 2A000000 		.4byte	.LVL57
 3261 033d 30000000 		.4byte	.LFE18
 3262 0341 0400     		.2byte	0x4
 3263 0343 F3       		.byte	0xf3
 3264 0344 01       		.uleb128 0x1
 3265 0345 50       		.byte	0x50
 3266 0346 9F       		.byte	0x9f
 3267 0347 00000000 		.4byte	0
 3268 034b 00000000 		.4byte	0
 3269              	.LLST22:
 3270 034f 08000000 		.4byte	.LVL50
 3271 0353 2A000000 		.4byte	.LVL56
 3272 0357 0100     		.2byte	0x1
 3273 0359 54       		.byte	0x54
 3274 035a 00000000 		.4byte	0
 3275 035e 00000000 		.4byte	0
 3276              	.LLST23:
 3277 0362 10000000 		.4byte	.LVL51
 3278 0366 19000000 		.4byte	.LVL53-1
 3279 036a 0100     		.2byte	0x1
 3280 036c 53       		.byte	0x53
 3281 036d 20000000 		.4byte	.LVL54
 3282 0371 24000000 		.4byte	.LVL55
 3283 0375 0100     		.2byte	0x1
 3284 0377 53       		.byte	0x53
 3285 0378 24000000 		.4byte	.LVL55
 3286 037c 30000000 		.4byte	.LFE18
 3287 0380 0100     		.2byte	0x1
 3288 0382 50       		.byte	0x50
 3289 0383 00000000 		.4byte	0
 3290 0387 00000000 		.4byte	0
 3291              	.LLST24:
 3292 038b 00000000 		.4byte	.LVL58
 3293 038f 0E000000 		.4byte	.LVL60
 3294 0393 0100     		.2byte	0x1
ARM GAS  /var/folders/qh/xwg3v3kj02qbxczjpdb8lzfr0000gn/T//ccBGUT7K.s 			page 59


 3295 0395 50       		.byte	0x50
 3296 0396 0E000000 		.4byte	.LVL60
 3297 039a 26000000 		.4byte	.LVL66
 3298 039e 0100     		.2byte	0x1
 3299 03a0 55       		.byte	0x55
 3300 03a1 26000000 		.4byte	.LVL66
 3301 03a5 2C000000 		.4byte	.LFE19
 3302 03a9 0400     		.2byte	0x4
 3303 03ab F3       		.byte	0xf3
 3304 03ac 01       		.uleb128 0x1
 3305 03ad 50       		.byte	0x50
 3306 03ae 9F       		.byte	0x9f
 3307 03af 00000000 		.4byte	0
 3308 03b3 00000000 		.4byte	0
 3309              	.LLST25:
 3310 03b7 08000000 		.4byte	.LVL59
 3311 03bb 26000000 		.4byte	.LVL65
 3312 03bf 0100     		.2byte	0x1
 3313 03c1 54       		.byte	0x54
 3314 03c2 00000000 		.4byte	0
 3315 03c6 00000000 		.4byte	0
 3316              	.LLST26:
 3317 03ca 10000000 		.4byte	.LVL61
 3318 03ce 14000000 		.4byte	.LVL62
 3319 03d2 0100     		.2byte	0x1
 3320 03d4 50       		.byte	0x50
 3321 03d5 14000000 		.4byte	.LVL62
 3322 03d9 19000000 		.4byte	.LVL63-1
 3323 03dd 0600     		.2byte	0x6
 3324 03df 72       		.byte	0x72
 3325 03e0 00       		.sleb128 0
 3326 03e1 75       		.byte	0x75
 3327 03e2 00       		.sleb128 0
 3328 03e3 1A       		.byte	0x1a
 3329 03e4 9F       		.byte	0x9f
 3330 03e5 20000000 		.4byte	.LVL64
 3331 03e9 2C000000 		.4byte	.LFE19
 3332 03ed 0100     		.2byte	0x1
 3333 03ef 50       		.byte	0x50
 3334 03f0 00000000 		.4byte	0
 3335 03f4 00000000 		.4byte	0
 3336              	.LLST27:
 3337 03f8 00000000 		.4byte	.LVL67
 3338 03fc 18000000 		.4byte	.LVL69
 3339 0400 0100     		.2byte	0x1
 3340 0402 50       		.byte	0x50
 3341 0403 18000000 		.4byte	.LVL69
 3342 0407 26000000 		.4byte	.LVL71
 3343 040b 0100     		.2byte	0x1
 3344 040d 54       		.byte	0x54
 3345 040e 26000000 		.4byte	.LVL71
 3346 0412 2C000000 		.4byte	.LFE20
 3347 0416 0100     		.2byte	0x1
 3348 0418 50       		.byte	0x50
 3349 0419 00000000 		.4byte	0
 3350 041d 00000000 		.4byte	0
 3351              	.LLST28:
ARM GAS  /var/folders/qh/xwg3v3kj02qbxczjpdb8lzfr0000gn/T//ccBGUT7K.s 			page 60


 3352 0421 08000000 		.4byte	.LVL68
 3353 0425 26000000 		.4byte	.LVL72
 3354 0429 0100     		.2byte	0x1
 3355 042b 55       		.byte	0x55
 3356 042c 00000000 		.4byte	0
 3357 0430 00000000 		.4byte	0
 3358              	.LLST29:
 3359 0434 00000000 		.4byte	.LVL73
 3360 0438 16000000 		.4byte	.LVL76
 3361 043c 0100     		.2byte	0x1
 3362 043e 50       		.byte	0x50
 3363 043f 16000000 		.4byte	.LVL76
 3364 0443 1C000000 		.4byte	.LVL77
 3365 0447 0100     		.2byte	0x1
 3366 0449 55       		.byte	0x55
 3367 044a 1C000000 		.4byte	.LVL77
 3368 044e 20000000 		.4byte	.LVL78
 3369 0452 0100     		.2byte	0x1
 3370 0454 50       		.byte	0x50
 3371 0455 20000000 		.4byte	.LVL78
 3372 0459 3A000000 		.4byte	.LVL84
 3373 045d 0100     		.2byte	0x1
 3374 045f 55       		.byte	0x55
 3375 0460 3A000000 		.4byte	.LVL84
 3376 0464 40000000 		.4byte	.LFE21
 3377 0468 0400     		.2byte	0x4
 3378 046a F3       		.byte	0xf3
 3379 046b 01       		.uleb128 0x1
 3380 046c 50       		.byte	0x50
 3381 046d 9F       		.byte	0x9f
 3382 046e 00000000 		.4byte	0
 3383 0472 00000000 		.4byte	0
 3384              	.LLST30:
 3385 0476 00000000 		.4byte	.LVL73
 3386 047a 16000000 		.4byte	.LVL76
 3387 047e 0100     		.2byte	0x1
 3388 0480 51       		.byte	0x51
 3389 0481 16000000 		.4byte	.LVL76
 3390 0485 1C000000 		.4byte	.LVL77
 3391 0489 0400     		.2byte	0x4
 3392 048b F3       		.byte	0xf3
 3393 048c 01       		.uleb128 0x1
 3394 048d 51       		.byte	0x51
 3395 048e 9F       		.byte	0x9f
 3396 048f 1C000000 		.4byte	.LVL77
 3397 0493 23000000 		.4byte	.LVL79-1
 3398 0497 0100     		.2byte	0x1
 3399 0499 51       		.byte	0x51
 3400 049a 23000000 		.4byte	.LVL79-1
 3401 049e 40000000 		.4byte	.LFE21
 3402 04a2 0400     		.2byte	0x4
 3403 04a4 F3       		.byte	0xf3
 3404 04a5 01       		.uleb128 0x1
 3405 04a6 51       		.byte	0x51
 3406 04a7 9F       		.byte	0x9f
 3407 04a8 00000000 		.4byte	0
 3408 04ac 00000000 		.4byte	0
ARM GAS  /var/folders/qh/xwg3v3kj02qbxczjpdb8lzfr0000gn/T//ccBGUT7K.s 			page 61


 3409              	.LLST31:
 3410 04b0 08000000 		.4byte	.LVL74
 3411 04b4 3A000000 		.4byte	.LVL83
 3412 04b8 0100     		.2byte	0x1
 3413 04ba 54       		.byte	0x54
 3414 04bb 00000000 		.4byte	0
 3415 04bf 00000000 		.4byte	0
 3416              	.LLST32:
 3417 04c3 10000000 		.4byte	.LVL75
 3418 04c7 16000000 		.4byte	.LVL76
 3419 04cb 0100     		.2byte	0x1
 3420 04cd 53       		.byte	0x53
 3421 04ce 1C000000 		.4byte	.LVL77
 3422 04d2 23000000 		.4byte	.LVL79-1
 3423 04d6 0100     		.2byte	0x1
 3424 04d8 53       		.byte	0x53
 3425 04d9 2E000000 		.4byte	.LVL80
 3426 04dd 3A000000 		.4byte	.LVL82
 3427 04e1 0100     		.2byte	0x1
 3428 04e3 53       		.byte	0x53
 3429 04e4 00000000 		.4byte	0
 3430 04e8 00000000 		.4byte	0
 3431              	.LLST33:
 3432 04ec 00000000 		.4byte	.LVL85
 3433 04f0 16000000 		.4byte	.LVL88
 3434 04f4 0100     		.2byte	0x1
 3435 04f6 50       		.byte	0x50
 3436 04f7 16000000 		.4byte	.LVL88
 3437 04fb 1C000000 		.4byte	.LVL89
 3438 04ff 0100     		.2byte	0x1
 3439 0501 55       		.byte	0x55
 3440 0502 1C000000 		.4byte	.LVL89
 3441 0506 20000000 		.4byte	.LVL90
 3442 050a 0100     		.2byte	0x1
 3443 050c 50       		.byte	0x50
 3444 050d 20000000 		.4byte	.LVL90
 3445 0511 36000000 		.4byte	.LVL95
 3446 0515 0100     		.2byte	0x1
 3447 0517 55       		.byte	0x55
 3448 0518 36000000 		.4byte	.LVL95
 3449 051c 3C000000 		.4byte	.LFE22
 3450 0520 0400     		.2byte	0x4
 3451 0522 F3       		.byte	0xf3
 3452 0523 01       		.uleb128 0x1
 3453 0524 50       		.byte	0x50
 3454 0525 9F       		.byte	0x9f
 3455 0526 00000000 		.4byte	0
 3456 052a 00000000 		.4byte	0
 3457              	.LLST34:
 3458 052e 00000000 		.4byte	.LVL85
 3459 0532 16000000 		.4byte	.LVL88
 3460 0536 0100     		.2byte	0x1
 3461 0538 51       		.byte	0x51
 3462 0539 16000000 		.4byte	.LVL88
 3463 053d 1C000000 		.4byte	.LVL89
 3464 0541 0400     		.2byte	0x4
 3465 0543 F3       		.byte	0xf3
ARM GAS  /var/folders/qh/xwg3v3kj02qbxczjpdb8lzfr0000gn/T//ccBGUT7K.s 			page 62


 3466 0544 01       		.uleb128 0x1
 3467 0545 51       		.byte	0x51
 3468 0546 9F       		.byte	0x9f
 3469 0547 1C000000 		.4byte	.LVL89
 3470 054b 23000000 		.4byte	.LVL91-1
 3471 054f 0100     		.2byte	0x1
 3472 0551 51       		.byte	0x51
 3473 0552 23000000 		.4byte	.LVL91-1
 3474 0556 3C000000 		.4byte	.LFE22
 3475 055a 0400     		.2byte	0x4
 3476 055c F3       		.byte	0xf3
 3477 055d 01       		.uleb128 0x1
 3478 055e 51       		.byte	0x51
 3479 055f 9F       		.byte	0x9f
 3480 0560 00000000 		.4byte	0
 3481 0564 00000000 		.4byte	0
 3482              	.LLST35:
 3483 0568 08000000 		.4byte	.LVL86
 3484 056c 36000000 		.4byte	.LVL94
 3485 0570 0100     		.2byte	0x1
 3486 0572 54       		.byte	0x54
 3487 0573 00000000 		.4byte	0
 3488 0577 00000000 		.4byte	0
 3489              	.LLST36:
 3490 057b 10000000 		.4byte	.LVL87
 3491 057f 16000000 		.4byte	.LVL88
 3492 0583 0100     		.2byte	0x1
 3493 0585 53       		.byte	0x53
 3494 0586 1C000000 		.4byte	.LVL89
 3495 058a 23000000 		.4byte	.LVL91-1
 3496 058e 0100     		.2byte	0x1
 3497 0590 53       		.byte	0x53
 3498 0591 2E000000 		.4byte	.LVL92
 3499 0595 36000000 		.4byte	.LVL93
 3500 0599 0100     		.2byte	0x1
 3501 059b 53       		.byte	0x53
 3502 059c 00000000 		.4byte	0
 3503 05a0 00000000 		.4byte	0
 3504              	.LLST37:
 3505 05a4 00000000 		.4byte	.LVL96
 3506 05a8 18000000 		.4byte	.LVL98
 3507 05ac 0100     		.2byte	0x1
 3508 05ae 50       		.byte	0x50
 3509 05af 18000000 		.4byte	.LVL98
 3510 05b3 1E000000 		.4byte	.LVL99
 3511 05b7 0100     		.2byte	0x1
 3512 05b9 54       		.byte	0x54
 3513 05ba 1E000000 		.4byte	.LVL99
 3514 05be 22000000 		.4byte	.LVL100
 3515 05c2 0100     		.2byte	0x1
 3516 05c4 50       		.byte	0x50
 3517 05c5 22000000 		.4byte	.LVL100
 3518 05c9 34000000 		.4byte	.LVL102
 3519 05cd 0100     		.2byte	0x1
 3520 05cf 54       		.byte	0x54
 3521 05d0 34000000 		.4byte	.LVL102
 3522 05d4 3C000000 		.4byte	.LFE23
ARM GAS  /var/folders/qh/xwg3v3kj02qbxczjpdb8lzfr0000gn/T//ccBGUT7K.s 			page 63


 3523 05d8 0400     		.2byte	0x4
 3524 05da F3       		.byte	0xf3
 3525 05db 01       		.uleb128 0x1
 3526 05dc 50       		.byte	0x50
 3527 05dd 9F       		.byte	0x9f
 3528 05de 00000000 		.4byte	0
 3529 05e2 00000000 		.4byte	0
 3530              	.LLST38:
 3531 05e6 00000000 		.4byte	.LVL96
 3532 05ea 18000000 		.4byte	.LVL98
 3533 05ee 0100     		.2byte	0x1
 3534 05f0 51       		.byte	0x51
 3535 05f1 18000000 		.4byte	.LVL98
 3536 05f5 1E000000 		.4byte	.LVL99
 3537 05f9 0400     		.2byte	0x4
 3538 05fb F3       		.byte	0xf3
 3539 05fc 01       		.uleb128 0x1
 3540 05fd 51       		.byte	0x51
 3541 05fe 9F       		.byte	0x9f
 3542 05ff 1E000000 		.4byte	.LVL99
 3543 0603 25000000 		.4byte	.LVL101-1
 3544 0607 0100     		.2byte	0x1
 3545 0609 51       		.byte	0x51
 3546 060a 25000000 		.4byte	.LVL101-1
 3547 060e 3C000000 		.4byte	.LFE23
 3548 0612 0400     		.2byte	0x4
 3549 0614 F3       		.byte	0xf3
 3550 0615 01       		.uleb128 0x1
 3551 0616 51       		.byte	0x51
 3552 0617 9F       		.byte	0x9f
 3553 0618 00000000 		.4byte	0
 3554 061c 00000000 		.4byte	0
 3555              	.LLST39:
 3556 0620 08000000 		.4byte	.LVL97
 3557 0624 34000000 		.4byte	.LVL103
 3558 0628 0100     		.2byte	0x1
 3559 062a 55       		.byte	0x55
 3560 062b 00000000 		.4byte	0
 3561 062f 00000000 		.4byte	0
 3562              		.section	.debug_aranges,"",%progbits
 3563 0000 9C000000 		.4byte	0x9c
 3564 0004 0200     		.2byte	0x2
 3565 0006 00000000 		.4byte	.Ldebug_info0
 3566 000a 04       		.byte	0x4
 3567 000b 00       		.byte	0
 3568 000c 0000     		.2byte	0
 3569 000e 0000     		.2byte	0
 3570 0010 00000000 		.4byte	.LFB7
 3571 0014 1C000000 		.4byte	.LFE7-.LFB7
 3572 0018 00000000 		.4byte	.LFB8
 3573 001c 1C000000 		.4byte	.LFE8-.LFB8
 3574 0020 00000000 		.4byte	.LFB9
 3575 0024 18000000 		.4byte	.LFE9-.LFB9
 3576 0028 00000000 		.4byte	.LFB10
 3577 002c 14000000 		.4byte	.LFE10-.LFB10
 3578 0030 00000000 		.4byte	.LFB12
 3579 0034 0E000000 		.4byte	.LFE12-.LFB12
ARM GAS  /var/folders/qh/xwg3v3kj02qbxczjpdb8lzfr0000gn/T//ccBGUT7K.s 			page 64


 3580 0038 00000000 		.4byte	.LFB14
 3581 003c 36000000 		.4byte	.LFE14-.LFB14
 3582 0040 00000000 		.4byte	.LFB11
 3583 0044 22000000 		.4byte	.LFE11-.LFB11
 3584 0048 00000000 		.4byte	.LFB13
 3585 004c 10000000 		.4byte	.LFE13-.LFB13
 3586 0050 00000000 		.4byte	.LFB15
 3587 0054 10000000 		.4byte	.LFE15-.LFB15
 3588 0058 00000000 		.4byte	.LFB16
 3589 005c 0A000000 		.4byte	.LFE16-.LFB16
 3590 0060 00000000 		.4byte	.LFB17
 3591 0064 32000000 		.4byte	.LFE17-.LFB17
 3592 0068 00000000 		.4byte	.LFB18
 3593 006c 30000000 		.4byte	.LFE18-.LFB18
 3594 0070 00000000 		.4byte	.LFB19
 3595 0074 2C000000 		.4byte	.LFE19-.LFB19
 3596 0078 00000000 		.4byte	.LFB20
 3597 007c 2C000000 		.4byte	.LFE20-.LFB20
 3598 0080 00000000 		.4byte	.LFB21
 3599 0084 40000000 		.4byte	.LFE21-.LFB21
 3600 0088 00000000 		.4byte	.LFB22
 3601 008c 3C000000 		.4byte	.LFE22-.LFB22
 3602 0090 00000000 		.4byte	.LFB23
 3603 0094 3C000000 		.4byte	.LFE23-.LFB23
 3604 0098 00000000 		.4byte	0
 3605 009c 00000000 		.4byte	0
 3606              		.section	.debug_ranges,"",%progbits
 3607              	.Ldebug_ranges0:
 3608 0000 1C000000 		.4byte	.LBB4
 3609 0004 26000000 		.4byte	.LBE4
 3610 0008 2C000000 		.4byte	.LBB7
 3611 000c 36000000 		.4byte	.LBE7
 3612 0010 00000000 		.4byte	0
 3613 0014 00000000 		.4byte	0
 3614 0018 00000000 		.4byte	.LFB7
 3615 001c 1C000000 		.4byte	.LFE7
 3616 0020 00000000 		.4byte	.LFB8
 3617 0024 1C000000 		.4byte	.LFE8
 3618 0028 00000000 		.4byte	.LFB9
 3619 002c 18000000 		.4byte	.LFE9
 3620 0030 00000000 		.4byte	.LFB10
 3621 0034 14000000 		.4byte	.LFE10
 3622 0038 00000000 		.4byte	.LFB12
 3623 003c 0E000000 		.4byte	.LFE12
 3624 0040 00000000 		.4byte	.LFB14
 3625 0044 36000000 		.4byte	.LFE14
 3626 0048 00000000 		.4byte	.LFB11
 3627 004c 22000000 		.4byte	.LFE11
 3628 0050 00000000 		.4byte	.LFB13
 3629 0054 10000000 		.4byte	.LFE13
 3630 0058 00000000 		.4byte	.LFB15
 3631 005c 10000000 		.4byte	.LFE15
 3632 0060 00000000 		.4byte	.LFB16
 3633 0064 0A000000 		.4byte	.LFE16
 3634 0068 00000000 		.4byte	.LFB17
 3635 006c 32000000 		.4byte	.LFE17
 3636 0070 00000000 		.4byte	.LFB18
ARM GAS  /var/folders/qh/xwg3v3kj02qbxczjpdb8lzfr0000gn/T//ccBGUT7K.s 			page 65


 3637 0074 30000000 		.4byte	.LFE18
 3638 0078 00000000 		.4byte	.LFB19
 3639 007c 2C000000 		.4byte	.LFE19
 3640 0080 00000000 		.4byte	.LFB20
 3641 0084 2C000000 		.4byte	.LFE20
 3642 0088 00000000 		.4byte	.LFB21
 3643 008c 40000000 		.4byte	.LFE21
 3644 0090 00000000 		.4byte	.LFB22
 3645 0094 3C000000 		.4byte	.LFE22
 3646 0098 00000000 		.4byte	.LFB23
 3647 009c 3C000000 		.4byte	.LFE23
 3648 00a0 00000000 		.4byte	0
 3649 00a4 00000000 		.4byte	0
 3650              		.section	.debug_line,"",%progbits
 3651              	.Ldebug_line0:
 3652 0000 E4020000 		.section	.debug_str,"MS",%progbits,1
 3652      02001701 
 3652      00000201 
 3652      FB0E0D00 
 3652      01010101 
 3653              	.LASF38:
 3654 0000 705F6D73 		.ascii	"p_msg\000"
 3654      6700
 3655              	.LASF68:
 3656 0006 7264796D 		.ascii	"rdymsg\000"
 3656      736700
 3657              	.LASF81:
 3658 000d 63684576 		.ascii	"chEvtSignal\000"
 3658      74536967 
 3658      6E616C00 
 3659              	.LASF11:
 3660 0019 6C6F6E67 		.ascii	"long long unsigned int\000"
 3660      206C6F6E 
 3660      6720756E 
 3660      7369676E 
 3660      65642069 
 3661              	.LASF77:
 3662 0030 63684576 		.ascii	"chEvtAddEvents\000"
 3662      74416464 
 3662      4576656E 
 3662      747300
 3663              	.LASF69:
 3664 003f 65786974 		.ascii	"exitcode\000"
 3664      636F6465 
 3664      00
 3665              	.LASF91:
 3666 0048 63684576 		.ascii	"chEvtWaitAnyTimeout\000"
 3666      74576169 
 3666      74416E79 
 3666      54696D65 
 3666      6F757400 
 3667              	.LASF26:
 3668 005c 705F7072 		.ascii	"p_prio\000"
 3668      696F00
 3669              	.LASF10:
 3670 0063 6C6F6E67 		.ascii	"long long int\000"
 3670      206C6F6E 
ARM GAS  /var/folders/qh/xwg3v3kj02qbxczjpdb8lzfr0000gn/T//ccBGUT7K.s 			page 66


 3670      6720696E 
 3670      7400
 3671              	.LASF1:
 3672 0071 7369676E 		.ascii	"signed char\000"
 3672      65642063 
 3672      68617200 
 3673              	.LASF92:
 3674 007d 63684576 		.ascii	"chEvtWaitAllTimeout\000"
 3674      74576169 
 3674      74416C6C 
 3674      54696D65 
 3674      6F757400 
 3675              	.LASF42:
 3676 0091 705F6D70 		.ascii	"p_mpool\000"
 3676      6F6F6C00 
 3677              	.LASF57:
 3678 0099 6D5F7175 		.ascii	"m_queue\000"
 3678      65756500 
 3679              	.LASF16:
 3680 00a1 74736C69 		.ascii	"tslices_t\000"
 3680      6365735F 
 3680      7400
 3681              	.LASF7:
 3682 00ab 6C6F6E67 		.ascii	"long int\000"
 3682      20696E74 
 3682      00
 3683              	.LASF14:
 3684 00b4 74737461 		.ascii	"tstate_t\000"
 3684      74655F74 
 3684      00
 3685              	.LASF87:
 3686 00bd 63684576 		.ascii	"chEvtWaitAny\000"
 3686      74576169 
 3686      74416E79 
 3686      00
 3687              	.LASF95:
 3688 00ca 63685363 		.ascii	"chSchGoSleepTimeoutS\000"
 3688      68476F53 
 3688      6C656570 
 3688      54696D65 
 3688      6F757453 
 3689              	.LASF80:
 3690 00df 63684576 		.ascii	"chEvtBroadcastFlagsI\000"
 3690      7442726F 
 3690      61646361 
 3690      7374466C 
 3690      61677349 
 3691              	.LASF28:
 3692 00f4 705F6E65 		.ascii	"p_newer\000"
 3692      77657200 
 3693              	.LASF101:
 3694 00fc 63685363 		.ascii	"chSchRescheduleS\000"
 3694      68526573 
 3694      63686564 
 3694      756C6553 
 3694      00
 3695              	.LASF52:
ARM GAS  /var/folders/qh/xwg3v3kj02qbxczjpdb8lzfr0000gn/T//ccBGUT7K.s 			page 67


 3696 010d 725F6E65 		.ascii	"r_newer\000"
 3696      77657200 
 3697              	.LASF73:
 3698 0115 6D61736B 		.ascii	"mask\000"
 3698      00
 3699              	.LASF45:
 3700 011a 72656761 		.ascii	"regarm_t\000"
 3700      726D5F74 
 3700      00
 3701              	.LASF82:
 3702 0123 63684576 		.ascii	"chEvtBroadcastFlags\000"
 3702      7442726F 
 3702      61646361 
 3702      7374466C 
 3702      61677300 
 3703              	.LASF19:
 3704 0137 6576656E 		.ascii	"eventid_t\000"
 3704      7469645F 
 3704      7400
 3705              	.LASF65:
 3706 0141 4576656E 		.ascii	"EventSource\000"
 3706      74536F75 
 3706      72636500 
 3707              	.LASF67:
 3708 014d 65766861 		.ascii	"evhandler_t\000"
 3708      6E646C65 
 3708      725F7400 
 3709              	.LASF0:
 3710 0159 756E7369 		.ascii	"unsigned int\000"
 3710      676E6564 
 3710      20696E74 
 3710      00
 3711              	.LASF9:
 3712 0166 6C6F6E67 		.ascii	"long unsigned int\000"
 3712      20756E73 
 3712      69676E65 
 3712      6420696E 
 3712      7400
 3713              	.LASF76:
 3714 0178 63684576 		.ascii	"chEvtGetAndClearEvents\000"
 3714      74476574 
 3714      416E6443 
 3714      6C656172 
 3714      4576656E 
 3715              	.LASF98:
 3716 018f 2F557365 		.ascii	"/Users/John/Development/embedded/ChibiOS-RT/BluC/ST"
 3716      72732F4A 
 3716      6F686E2F 
 3716      44657665 
 3716      6C6F706D 
 3717 01c2 4D333246 		.ascii	"M32F051\000"
 3717      30353100 
 3718              	.LASF47:
 3719 01ca 636F6E74 		.ascii	"context\000"
 3719      65787400 
 3720              	.LASF4:
 3721 01d2 73686F72 		.ascii	"short unsigned int\000"
ARM GAS  /var/folders/qh/xwg3v3kj02qbxczjpdb8lzfr0000gn/T//ccBGUT7K.s 			page 68


 3721      7420756E 
 3721      7369676E 
 3721      65642069 
 3721      6E7400
 3722              	.LASF74:
 3723 01e5 63684576 		.ascii	"chEvtRegisterMask\000"
 3723      74526567 
 3723      69737465 
 3723      724D6173 
 3723      6B00
 3724              	.LASF18:
 3725 01f7 6D73675F 		.ascii	"msg_t\000"
 3725      7400
 3726              	.LASF61:
 3727 01fd 656C5F6E 		.ascii	"el_next\000"
 3727      65787400 
 3728              	.LASF75:
 3729 0205 63684576 		.ascii	"chEvtUnregister\000"
 3729      74556E72 
 3729      65676973 
 3729      74657200 
 3730              	.LASF13:
 3731 0215 746D6F64 		.ascii	"tmode_t\000"
 3731      655F7400 
 3732              	.LASF44:
 3733 021d 54687265 		.ascii	"ThreadsList\000"
 3733      6164734C 
 3733      69737400 
 3734              	.LASF20:
 3735 0229 6576656E 		.ascii	"eventmask_t\000"
 3735      746D6173 
 3735      6B5F7400 
 3736              	.LASF56:
 3737 0235 4D757465 		.ascii	"Mutex\000"
 3737      7800
 3738              	.LASF48:
 3739 023b 73697A65 		.ascii	"sizetype\000"
 3739      74797065 
 3739      00
 3740              	.LASF84:
 3741 0244 63684576 		.ascii	"chEvtDispatch\000"
 3741      74446973 
 3741      70617463 
 3741      6800
 3742              	.LASF96:
 3743 0252 474E5520 		.ascii	"GNU C 4.8.3 20131129 (release) [ARM/embedded-4_8-br"
 3743      4320342E 
 3743      382E3320 
 3743      32303133 
 3743      31313239 
 3744 0285 616E6368 		.ascii	"anch revision 205641] -mcpu=cortex-m0 -mno-thumb-in"
 3744      20726576 
 3744      6973696F 
 3744      6E203230 
 3744      35363431 
 3745 02b8 74657277 		.ascii	"terwork -mthumb -ggdb -O2 -fomit-frame-pointer -fal"
 3745      6F726B20 
ARM GAS  /var/folders/qh/xwg3v3kj02qbxczjpdb8lzfr0000gn/T//ccBGUT7K.s 			page 69


 3745      2D6D7468 
 3745      756D6220 
 3745      2D676764 
 3746 02eb 69676E2D 		.ascii	"ign-functions=16 -ffunction-sections -fdata-section"
 3746      66756E63 
 3746      74696F6E 
 3746      733D3136 
 3746      202D6666 
 3747 031e 73202D66 		.ascii	"s -fno-common\000"
 3747      6E6F2D63 
 3747      6F6D6D6F 
 3747      6E00
 3748              	.LASF29:
 3749 032c 705F6F6C 		.ascii	"p_older\000"
 3749      64657200 
 3750              	.LASF51:
 3751 0334 725F6374 		.ascii	"r_ctx\000"
 3751      7800
 3752              	.LASF43:
 3753 033a 54687265 		.ascii	"ThreadsQueue\000"
 3753      61647351 
 3753      75657565 
 3753      00
 3754              	.LASF90:
 3755 0347 74696D65 		.ascii	"time\000"
 3755      00
 3756              	.LASF88:
 3757 034c 63684576 		.ascii	"chEvtWaitAll\000"
 3757      74576169 
 3757      74416C6C 
 3757      00
 3758              	.LASF54:
 3759 0359 725F6375 		.ascii	"r_current\000"
 3759      7272656E 
 3759      7400
 3760              	.LASF53:
 3761 0363 725F6F6C 		.ascii	"r_older\000"
 3761      64657200 
 3762              	.LASF63:
 3763 036b 656C5F6D 		.ascii	"el_mask\000"
 3763      61736B00 
 3764              	.LASF85:
 3765 0373 68616E64 		.ascii	"handlers\000"
 3765      6C657273 
 3765      00
 3766              	.LASF15:
 3767 037c 74726566 		.ascii	"trefs_t\000"
 3767      735F7400 
 3768              	.LASF25:
 3769 0384 705F7072 		.ascii	"p_prev\000"
 3769      657600
 3770              	.LASF17:
 3771 038b 74707269 		.ascii	"tprio_t\000"
 3771      6F5F7400 
 3772              	.LASF12:
 3773 0393 5F426F6F 		.ascii	"_Bool\000"
 3773      6C00
ARM GAS  /var/folders/qh/xwg3v3kj02qbxczjpdb8lzfr0000gn/T//ccBGUT7K.s 			page 70


 3774              	.LASF6:
 3775 0399 696E7433 		.ascii	"int32_t\000"
 3775      325F7400 
 3776              	.LASF2:
 3777 03a1 756E7369 		.ascii	"unsigned char\000"
 3777      676E6564 
 3777      20636861 
 3777      7200
 3778              	.LASF86:
 3779 03af 63684576 		.ascii	"chEvtWaitOne\000"
 3779      74576169 
 3779      744F6E65 
 3779      00
 3780              	.LASF62:
 3781 03bc 656C5F6C 		.ascii	"el_listener\000"
 3781      69737465 
 3781      6E657200 
 3782              	.LASF64:
 3783 03c8 656C5F66 		.ascii	"el_flags\000"
 3783      6C616773 
 3783      00
 3784              	.LASF40:
 3785 03d1 705F6D74 		.ascii	"p_mtxlist\000"
 3785      786C6973 
 3785      7400
 3786              	.LASF3:
 3787 03db 73686F72 		.ascii	"short int\000"
 3787      7420696E 
 3787      7400
 3788              	.LASF31:
 3789 03e5 705F7374 		.ascii	"p_state\000"
 3789      61746500 
 3790              	.LASF34:
 3791 03ed 705F7072 		.ascii	"p_preempt\000"
 3791      65656D70 
 3791      7400
 3792              	.LASF50:
 3793 03f7 725F7072 		.ascii	"r_prio\000"
 3793      696F00
 3794              	.LASF83:
 3795 03fe 63684576 		.ascii	"chEvtGetAndClearFlagsI\000"
 3795      74476574 
 3795      416E6443 
 3795      6C656172 
 3795      466C6167 
 3796              	.LASF71:
 3797 0415 65776D61 		.ascii	"ewmask\000"
 3797      736B00
 3798              	.LASF24:
 3799 041c 705F6E65 		.ascii	"p_next\000"
 3799      787400
 3800              	.LASF32:
 3801 0423 705F666C 		.ascii	"p_flags\000"
 3801      61677300 
 3802              	.LASF23:
 3803 042b 54687265 		.ascii	"Thread\000"
 3803      616400
ARM GAS  /var/folders/qh/xwg3v3kj02qbxczjpdb8lzfr0000gn/T//ccBGUT7K.s 			page 71


 3804              	.LASF94:
 3805 0432 63685363 		.ascii	"chSchGoSleepS\000"
 3805      68476F53 
 3805      6C656570 
 3805      5300
 3806              	.LASF39:
 3807 0440 705F6570 		.ascii	"p_epending\000"
 3807      656E6469 
 3807      6E6700
 3808              	.LASF8:
 3809 044b 75696E74 		.ascii	"uint32_t\000"
 3809      33325F74 
 3809      00
 3810              	.LASF49:
 3811 0454 725F7175 		.ascii	"r_queue\000"
 3811      65756500 
 3812              	.LASF100:
 3813 045c 63685363 		.ascii	"chSchReadyI\000"
 3813      68526561 
 3813      64794900 
 3814              	.LASF72:
 3815 0468 63686172 		.ascii	"char\000"
 3815      00
 3816              	.LASF59:
 3817 046d 6D5F6E65 		.ascii	"m_next\000"
 3817      787400
 3818              	.LASF22:
 3819 0474 73797374 		.ascii	"systime_t\000"
 3819      696D655F 
 3819      7400
 3820              	.LASF41:
 3821 047e 705F7265 		.ascii	"p_realprio\000"
 3821      616C7072 
 3821      696F00
 3822              	.LASF35:
 3823 0489 705F7469 		.ascii	"p_time\000"
 3823      6D6500
 3824              	.LASF46:
 3825 0490 696E7463 		.ascii	"intctx\000"
 3825      747800
 3826              	.LASF37:
 3827 0497 705F6D73 		.ascii	"p_msgqueue\000"
 3827      67717565 
 3827      756500
 3828              	.LASF21:
 3829 04a2 666C6167 		.ascii	"flagsmask_t\000"
 3829      736D6173 
 3829      6B5F7400 
 3830              	.LASF33:
 3831 04ae 705F7265 		.ascii	"p_refs\000"
 3831      667300
 3832              	.LASF55:
 3833 04b5 52656164 		.ascii	"ReadyList\000"
 3833      794C6973 
 3833      7400
 3834              	.LASF99:
 3835 04bf 726C6973 		.ascii	"rlist\000"
ARM GAS  /var/folders/qh/xwg3v3kj02qbxczjpdb8lzfr0000gn/T//ccBGUT7K.s 			page 72


 3835      7400
 3836              	.LASF5:
 3837 04c5 75696E74 		.ascii	"uint8_t\000"
 3837      385F7400 
 3838              	.LASF79:
 3839 04cd 666C6167 		.ascii	"flags\000"
 3839      7300
 3840              	.LASF97:
 3841 04d3 2E2E2F2E 		.ascii	"../../os/kernel/src/chevents.c\000"
 3841      2E2F6F73 
 3841      2F6B6572 
 3841      6E656C2F 
 3841      7372632F 
 3842              	.LASF60:
 3843 04f2 4576656E 		.ascii	"EventListener\000"
 3843      744C6973 
 3843      74656E65 
 3843      7200
 3844              	.LASF89:
 3845 0500 63684576 		.ascii	"chEvtWaitOneTimeout\000"
 3845      74576169 
 3845      744F6E65 
 3845      54696D65 
 3845      6F757400 
 3846              	.LASF70:
 3847 0514 77746F62 		.ascii	"wtobjp\000"
 3847      6A7000
 3848              	.LASF30:
 3849 051b 705F6E61 		.ascii	"p_name\000"
 3849      6D6500
 3850              	.LASF66:
 3851 0522 65735F6E 		.ascii	"es_next\000"
 3851      65787400 
 3852              	.LASF78:
 3853 052a 63684576 		.ascii	"chEvtGetAndClearFlags\000"
 3853      74476574 
 3853      416E6443 
 3853      6C656172 
 3853      466C6167 
 3854              	.LASF58:
 3855 0540 6D5F6F77 		.ascii	"m_owner\000"
 3855      6E657200 
 3856              	.LASF27:
 3857 0548 705F6374 		.ascii	"p_ctx\000"
 3857      7800
 3858              	.LASF36:
 3859 054e 705F7761 		.ascii	"p_waiting\000"
 3859      6974696E 
 3859      6700
 3860              	.LASF93:
 3861 0558 63684576 		.ascii	"chEvtSignalI\000"
 3861      74536967 
 3861      6E616C49 
 3861      00
 3862              		.ident	"GCC: (GNU Tools for ARM Embedded Processors) 4.8.3 20131129 (release) [ARM/embedded-4_8-br
ARM GAS  /var/folders/qh/xwg3v3kj02qbxczjpdb8lzfr0000gn/T//ccBGUT7K.s 			page 73


DEFINED SYMBOLS
                            *ABS*:0000000000000000 chevents.c
/var/folders/qh/xwg3v3kj02qbxczjpdb8lzfr0000gn/T//ccBGUT7K.s:18     .text.chEvtRegisterMask:0000000000000000 $t
/var/folders/qh/xwg3v3kj02qbxczjpdb8lzfr0000gn/T//ccBGUT7K.s:24     .text.chEvtRegisterMask:0000000000000000 chEvtRegisterMask
/var/folders/qh/xwg3v3kj02qbxczjpdb8lzfr0000gn/T//ccBGUT7K.s:62     .text.chEvtRegisterMask:0000000000000018 $d
/var/folders/qh/xwg3v3kj02qbxczjpdb8lzfr0000gn/T//ccBGUT7K.s:67     .text.chEvtUnregister:0000000000000000 $t
/var/folders/qh/xwg3v3kj02qbxczjpdb8lzfr0000gn/T//ccBGUT7K.s:73     .text.chEvtUnregister:0000000000000000 chEvtUnregister
/var/folders/qh/xwg3v3kj02qbxczjpdb8lzfr0000gn/T//ccBGUT7K.s:121    .text.chEvtGetAndClearEvents:0000000000000000 $t
/var/folders/qh/xwg3v3kj02qbxczjpdb8lzfr0000gn/T//ccBGUT7K.s:127    .text.chEvtGetAndClearEvents:0000000000000000 chEvtGetAndClearEvents
/var/folders/qh/xwg3v3kj02qbxczjpdb8lzfr0000gn/T//ccBGUT7K.s:160    .text.chEvtGetAndClearEvents:0000000000000014 $d
/var/folders/qh/xwg3v3kj02qbxczjpdb8lzfr0000gn/T//ccBGUT7K.s:165    .text.chEvtAddEvents:0000000000000000 $t
/var/folders/qh/xwg3v3kj02qbxczjpdb8lzfr0000gn/T//ccBGUT7K.s:171    .text.chEvtAddEvents:0000000000000000 chEvtAddEvents
/var/folders/qh/xwg3v3kj02qbxczjpdb8lzfr0000gn/T//ccBGUT7K.s:200    .text.chEvtAddEvents:0000000000000010 $d
/var/folders/qh/xwg3v3kj02qbxczjpdb8lzfr0000gn/T//ccBGUT7K.s:205    .text.chEvtGetAndClearFlags:0000000000000000 $t
/var/folders/qh/xwg3v3kj02qbxczjpdb8lzfr0000gn/T//ccBGUT7K.s:211    .text.chEvtGetAndClearFlags:0000000000000000 chEvtGetAndClearFlags
/var/folders/qh/xwg3v3kj02qbxczjpdb8lzfr0000gn/T//ccBGUT7K.s:242    .text.chEvtSignalI:0000000000000000 $t
/var/folders/qh/xwg3v3kj02qbxczjpdb8lzfr0000gn/T//ccBGUT7K.s:248    .text.chEvtSignalI:0000000000000000 chEvtSignalI
/var/folders/qh/xwg3v3kj02qbxczjpdb8lzfr0000gn/T//ccBGUT7K.s:316    .text.chEvtBroadcastFlagsI:0000000000000000 $t
/var/folders/qh/xwg3v3kj02qbxczjpdb8lzfr0000gn/T//ccBGUT7K.s:322    .text.chEvtBroadcastFlagsI:0000000000000000 chEvtBroadcastFlagsI
/var/folders/qh/xwg3v3kj02qbxczjpdb8lzfr0000gn/T//ccBGUT7K.s:372    .text.chEvtSignal:0000000000000000 $t
/var/folders/qh/xwg3v3kj02qbxczjpdb8lzfr0000gn/T//ccBGUT7K.s:378    .text.chEvtSignal:0000000000000000 chEvtSignal
/var/folders/qh/xwg3v3kj02qbxczjpdb8lzfr0000gn/T//ccBGUT7K.s:410    .text.chEvtBroadcastFlags:0000000000000000 $t
/var/folders/qh/xwg3v3kj02qbxczjpdb8lzfr0000gn/T//ccBGUT7K.s:416    .text.chEvtBroadcastFlags:0000000000000000 chEvtBroadcastFlags
/var/folders/qh/xwg3v3kj02qbxczjpdb8lzfr0000gn/T//ccBGUT7K.s:448    .text.chEvtGetAndClearFlagsI:0000000000000000 $t
/var/folders/qh/xwg3v3kj02qbxczjpdb8lzfr0000gn/T//ccBGUT7K.s:454    .text.chEvtGetAndClearFlagsI:0000000000000000 chEvtGetAndClearFlagsI
/var/folders/qh/xwg3v3kj02qbxczjpdb8lzfr0000gn/T//ccBGUT7K.s:476    .text.chEvtDispatch:0000000000000000 $t
/var/folders/qh/xwg3v3kj02qbxczjpdb8lzfr0000gn/T//ccBGUT7K.s:482    .text.chEvtDispatch:0000000000000000 chEvtDispatch
/var/folders/qh/xwg3v3kj02qbxczjpdb8lzfr0000gn/T//ccBGUT7K.s:548    .text.chEvtWaitOne:0000000000000000 $t
/var/folders/qh/xwg3v3kj02qbxczjpdb8lzfr0000gn/T//ccBGUT7K.s:554    .text.chEvtWaitOne:0000000000000000 chEvtWaitOne
/var/folders/qh/xwg3v3kj02qbxczjpdb8lzfr0000gn/T//ccBGUT7K.s:616    .text.chEvtWaitOne:000000000000002c $d
/var/folders/qh/xwg3v3kj02qbxczjpdb8lzfr0000gn/T//ccBGUT7K.s:621    .text.chEvtWaitAny:0000000000000000 $t
/var/folders/qh/xwg3v3kj02qbxczjpdb8lzfr0000gn/T//ccBGUT7K.s:627    .text.chEvtWaitAny:0000000000000000 chEvtWaitAny
/var/folders/qh/xwg3v3kj02qbxczjpdb8lzfr0000gn/T//ccBGUT7K.s:687    .text.chEvtWaitAny:0000000000000028 $d
/var/folders/qh/xwg3v3kj02qbxczjpdb8lzfr0000gn/T//ccBGUT7K.s:692    .text.chEvtWaitAll:0000000000000000 $t
/var/folders/qh/xwg3v3kj02qbxczjpdb8lzfr0000gn/T//ccBGUT7K.s:698    .text.chEvtWaitAll:0000000000000000 chEvtWaitAll
/var/folders/qh/xwg3v3kj02qbxczjpdb8lzfr0000gn/T//ccBGUT7K.s:753    .text.chEvtWaitAll:0000000000000028 $d
/var/folders/qh/xwg3v3kj02qbxczjpdb8lzfr0000gn/T//ccBGUT7K.s:758    .text.chEvtWaitOneTimeout:0000000000000000 $t
/var/folders/qh/xwg3v3kj02qbxczjpdb8lzfr0000gn/T//ccBGUT7K.s:764    .text.chEvtWaitOneTimeout:0000000000000000 chEvtWaitOneTimeout
/var/folders/qh/xwg3v3kj02qbxczjpdb8lzfr0000gn/T//ccBGUT7K.s:847    .text.chEvtWaitOneTimeout:000000000000003c $d
/var/folders/qh/xwg3v3kj02qbxczjpdb8lzfr0000gn/T//ccBGUT7K.s:852    .text.chEvtWaitAnyTimeout:0000000000000000 $t
/var/folders/qh/xwg3v3kj02qbxczjpdb8lzfr0000gn/T//ccBGUT7K.s:858    .text.chEvtWaitAnyTimeout:0000000000000000 chEvtWaitAnyTimeout
/var/folders/qh/xwg3v3kj02qbxczjpdb8lzfr0000gn/T//ccBGUT7K.s:937    .text.chEvtWaitAnyTimeout:0000000000000038 $d
/var/folders/qh/xwg3v3kj02qbxczjpdb8lzfr0000gn/T//ccBGUT7K.s:942    .text.chEvtWaitAllTimeout:0000000000000000 $t
/var/folders/qh/xwg3v3kj02qbxczjpdb8lzfr0000gn/T//ccBGUT7K.s:948    .text.chEvtWaitAllTimeout:0000000000000000 chEvtWaitAllTimeout
/var/folders/qh/xwg3v3kj02qbxczjpdb8lzfr0000gn/T//ccBGUT7K.s:1022   .text.chEvtWaitAllTimeout:0000000000000038 $d
                     .debug_frame:0000000000000010 $d
/var/folders/qh/xwg3v3kj02qbxczjpdb8lzfr0000gn/T//ccBGUT7K.s:66     .text.chEvtRegisterMask:000000000000001c $t
/var/folders/qh/xwg3v3kj02qbxczjpdb8lzfr0000gn/T//ccBGUT7K.s:164    .text.chEvtGetAndClearEvents:0000000000000018 $t
/var/folders/qh/xwg3v3kj02qbxczjpdb8lzfr0000gn/T//ccBGUT7K.s:204    .text.chEvtAddEvents:0000000000000014 $t
/var/folders/qh/xwg3v3kj02qbxczjpdb8lzfr0000gn/T//ccBGUT7K.s:691    .text.chEvtWaitAny:000000000000002c $t
/var/folders/qh/xwg3v3kj02qbxczjpdb8lzfr0000gn/T//ccBGUT7K.s:757    .text.chEvtWaitAll:000000000000002c $t
/var/folders/qh/xwg3v3kj02qbxczjpdb8lzfr0000gn/T//ccBGUT7K.s:3862   .text.chEvtWaitAnyTimeout:000000000000003c $t
/var/folders/qh/xwg3v3kj02qbxczjpdb8lzfr0000gn/T//ccBGUT7K.s:1026   .text.chEvtWaitAllTimeout:000000000000003c $t

UNDEFINED SYMBOLS
rlist
chSchReadyI
ARM GAS  /var/folders/qh/xwg3v3kj02qbxczjpdb8lzfr0000gn/T//ccBGUT7K.s 			page 74


chSchRescheduleS
chSchGoSleepS
chSchGoSleepTimeoutS
