ARM GAS  /var/folders/qh/xwg3v3kj02qbxczjpdb8lzfr0000gn/T//ccBGUT7K.s 			page 1


   1              		.cpu cortex-m0
   2              		.fpu softvfp
   3              		.eabi_attribute 20, 1
   4              		.eabi_attribute 21, 1
   5              		.eabi_attribute 23, 3
   6              		.eabi_attribute 24, 1
   7              		.eabi_attribute 25, 1
   8              		.eabi_attribute 26, 1
   9              		.eabi_attribute 30, 2
  10              		.eabi_attribute 34, 0
  11              		.eabi_attribute 18, 4
  12              		.code	16
  13              		.file	"chevents.c"
  14              		.text
  15              	.Ltext0:
  16              		.cfi_sections	.debug_frame
  17              		.section	.text.chEvtRegisterMask,"ax",%progbits
  18              		.align	2
  19              		.p2align 4,,15
  20              		.global	chEvtRegisterMask
  21              		.code	16
  22              		.thumb_func
  23              		.type	chEvtRegisterMask, %function
  24              	chEvtRegisterMask:
  25              	.LFB7:
  26              		.file 1 "../../os/kernel/src/chevents.c"
  27              		.loc 1 78 0
  28              		.cfi_startproc
  29              	.LVL0:
  30              		.loc 1 82 0
  31              	@ 82 "../../os/kernel/src/chevents.c" 1
  32 0000 72B6     		cpsid   i
  33              	@ 0 "" 2
  34              		.loc 1 83 0
  35              		.code	16
  36 0002 0368     		ldr	r3, [r0]
  37 0004 0B60     		str	r3, [r1]
  38              		.loc 1 85 0
  39 0006 044B     		ldr	r3, .L2
  40              		.loc 1 84 0
  41 0008 0160     		str	r1, [r0]
  42              		.loc 1 85 0
  43 000a 9B69     		ldr	r3, [r3, #24]
  44              		.loc 1 86 0
  45 000c 8A60     		str	r2, [r1, #8]
  46              		.loc 1 85 0
  47 000e 4B60     		str	r3, [r1, #4]
  48              		.loc 1 87 0
  49 0010 0023     		mov	r3, #0
  50 0012 CB60     		str	r3, [r1, #12]
  51              		.loc 1 88 0
  52              	@ 88 "../../os/kernel/src/chevents.c" 1
  53 0014 62B6     		cpsie   i
  54              	@ 0 "" 2
  55              		.loc 1 89 0
  56              		.code	16
  57              		@ sp needed
ARM GAS  /var/folders/qh/xwg3v3kj02qbxczjpdb8lzfr0000gn/T//ccBGUT7K.s 			page 2


  58 0016 7047     		bx	lr
  59              	.L3:
  60              		.align	2
  61              	.L2:
  62 0018 00000000 		.word	rlist
  63              		.cfi_endproc
  64              	.LFE7:
  65              		.size	chEvtRegisterMask, .-chEvtRegisterMask
  66 001c C046C046 		.section	.text.chEvtUnregister,"ax",%progbits
  67              		.align	2
  68              		.p2align 4,,15
  69              		.global	chEvtUnregister
  70              		.code	16
  71              		.thumb_func
  72              		.type	chEvtUnregister, %function
  73              	chEvtUnregister:
  74              	.LFB8:
  75              		.loc 1 104 0
  76              		.cfi_startproc
  77              	.LVL1:
  78              		.loc 1 110 0
  79              	@ 110 "../../os/kernel/src/chevents.c" 1
  80 0000 72B6     		cpsid   i
  81              	@ 0 "" 2
  82              		.loc 1 109 0
  83              		.code	16
  84 0002 021C     		mov	r2, r0
  85              		.loc 1 111 0
  86 0004 02E0     		b	.L5
  87              	.LVL2:
  88              	.L8:
  89              		.loc 1 112 0
  90 0006 9942     		cmp	r1, r3
  91 0008 05D0     		beq	.L10
  92 000a 1A1C     		mov	r2, r3
  93              	.LVL3:
  94              	.L5:
  95              		.loc 1 111 0 discriminator 1
  96 000c 1368     		ldr	r3, [r2]
  97 000e 8342     		cmp	r3, r0
  98 0010 F9D1     		bne	.L8
  99              	.LVL4:
 100              	.L7:
 101              		.loc 1 118 0
 102              	@ 118 "../../os/kernel/src/chevents.c" 1
 103 0012 62B6     		cpsie   i
 104              	@ 0 "" 2
 105              		.loc 1 119 0
 106              		.code	16
 107              		@ sp needed
 108 0014 7047     		bx	lr
 109              	.LVL5:
 110              	.L10:
 111              		.loc 1 113 0
 112 0016 0968     		ldr	r1, [r1]
 113              	.LVL6:
 114 0018 1160     		str	r1, [r2]
ARM GAS  /var/folders/qh/xwg3v3kj02qbxczjpdb8lzfr0000gn/T//ccBGUT7K.s 			page 3


 115              		.loc 1 114 0
 116 001a FAE7     		b	.L7
 117              		.cfi_endproc
 118              	.LFE8:
 119              		.size	chEvtUnregister, .-chEvtUnregister
 120 001c C046C046 		.section	.text.chEvtGetAndClearEvents,"ax",%progbits
 121              		.align	2
 122              		.p2align 4,,15
 123              		.global	chEvtGetAndClearEvents
 124              		.code	16
 125              		.thumb_func
 126              		.type	chEvtGetAndClearEvents, %function
 127              	chEvtGetAndClearEvents:
 128              	.LFB9:
 129              		.loc 1 129 0
 130              		.cfi_startproc
 131              	.LVL7:
 132              		.loc 1 132 0
 133              	@ 132 "../../os/kernel/src/chevents.c" 1
 134 0000 72B6     		cpsid   i
 135              	@ 0 "" 2
 136              		.loc 1 134 0
 137              		.code	16
 138 0002 044B     		ldr	r3, .L12
 139 0004 9A69     		ldr	r2, [r3, #24]
 140 0006 936B     		ldr	r3, [r2, #56]
 141              	.LVL8:
 142              		.loc 1 135 0
 143 0008 191C     		mov	r1, r3
 144 000a 8143     		bic	r1, r0
 145 000c 9163     		str	r1, [r2, #56]
 146              		.loc 1 137 0
 147              	@ 137 "../../os/kernel/src/chevents.c" 1
 148 000e 62B6     		cpsie   i
 149              	@ 0 "" 2
 150              		.loc 1 134 0
 151              		.code	16
 152 0010 1840     		and	r0, r3
 153              	.LVL9:
 154              		.loc 1 139 0
 155              		@ sp needed
 156 0012 7047     		bx	lr
 157              	.L13:
 158              		.align	2
 159              	.L12:
 160 0014 00000000 		.word	rlist
 161              		.cfi_endproc
 162              	.LFE9:
 163              		.size	chEvtGetAndClearEvents, .-chEvtGetAndClearEvents
 164 0018 C046C046 		.section	.text.chEvtAddEvents,"ax",%progbits
 164      C046C046 
 165              		.align	2
 166              		.p2align 4,,15
 167              		.global	chEvtAddEvents
 168              		.code	16
 169              		.thumb_func
 170              		.type	chEvtAddEvents, %function
ARM GAS  /var/folders/qh/xwg3v3kj02qbxczjpdb8lzfr0000gn/T//ccBGUT7K.s 			page 4


 171              	chEvtAddEvents:
 172              	.LFB10:
 173              		.loc 1 150 0
 174              		.cfi_startproc
 175              	.LVL10:
 176              		.loc 1 152 0
 177              	@ 152 "../../os/kernel/src/chevents.c" 1
 178 0000 72B6     		cpsid   i
 179              	@ 0 "" 2
 180              		.loc 1 154 0
 181              		.code	16
 182 0002 034B     		ldr	r3, .L15
 183 0004 9B69     		ldr	r3, [r3, #24]
 184 0006 9A6B     		ldr	r2, [r3, #56]
 185 0008 1043     		orr	r0, r2
 186              	.LVL11:
 187 000a 9863     		str	r0, [r3, #56]
 188              	.LVL12:
 189              		.loc 1 156 0
 190              	@ 156 "../../os/kernel/src/chevents.c" 1
 191 000c 62B6     		cpsie   i
 192              	@ 0 "" 2
 193              		.loc 1 158 0
 194              		.code	16
 195              		@ sp needed
 196 000e 7047     		bx	lr
 197              	.L16:
 198              		.align	2
 199              	.L15:
 200 0010 00000000 		.word	rlist
 201              		.cfi_endproc
 202              	.LFE10:
 203              		.size	chEvtAddEvents, .-chEvtAddEvents
 204 0014 C046C046 		.section	.text.chEvtGetAndClearFlags,"ax",%progbits
 204      C046C046 
 204      C046C046 
 205              		.align	2
 206              		.p2align 4,,15
 207              		.global	chEvtGetAndClearFlags
 208              		.code	16
 209              		.thumb_func
 210              		.type	chEvtGetAndClearFlags, %function
 211              	chEvtGetAndClearFlags:
 212              	.LFB12:
 213              		.loc 1 202 0
 214              		.cfi_startproc
 215              	.LVL13:
 216              		.loc 1 202 0
 217 0000 031C     		mov	r3, r0
 218              		.loc 1 205 0
 219              	@ 205 "../../os/kernel/src/chevents.c" 1
 220 0002 72B6     		cpsid   i
 221              	@ 0 "" 2
 222              		.loc 1 208 0
 223              		.code	16
 224 0004 0022     		mov	r2, #0
 225              		.loc 1 207 0
ARM GAS  /var/folders/qh/xwg3v3kj02qbxczjpdb8lzfr0000gn/T//ccBGUT7K.s 			page 5


 226 0006 C068     		ldr	r0, [r0, #12]
 227              	.LVL14:
 228              		.loc 1 208 0
 229 0008 DA60     		str	r2, [r3, #12]
 230              		.loc 1 210 0
 231              	@ 210 "../../os/kernel/src/chevents.c" 1
 232 000a 62B6     		cpsie   i
 233              	@ 0 "" 2
 234              		.loc 1 212 0
 235              		.code	16
 236              		@ sp needed
 237 000c 7047     		bx	lr
 238              		.cfi_endproc
 239              	.LFE12:
 240              		.size	chEvtGetAndClearFlags, .-chEvtGetAndClearFlags
 241 000e C046     		.section	.text.chEvtSignalI,"ax",%progbits
 242              		.align	2
 243              		.p2align 4,,15
 244              		.global	chEvtSignalI
 245              		.code	16
 246              		.thumb_func
 247              		.type	chEvtSignalI, %function
 248              	chEvtSignalI:
 249              	.LFB14:
 250              		.loc 1 244 0
 251              		.cfi_startproc
 252              	.LVL15:
 253 0000 08B5     		push	{r3, lr}
 254              		.cfi_def_cfa_offset 8
 255              		.cfi_offset 3, -8
 256              		.cfi_offset 14, -4
 257              		.loc 1 249 0
 258 0002 836B     		ldr	r3, [r0, #56]
 259 0004 1943     		orr	r1, r3
 260              	.LVL16:
 261              		.loc 1 251 0
 262 0006 037F     		ldrb	r3, [r0, #28]
 263              		.loc 1 249 0
 264 0008 8163     		str	r1, [r0, #56]
 265              		.loc 1 251 0
 266 000a 082B     		cmp	r3, #8
 267 000c 0BD0     		beq	.L23
 268              		.loc 1 252 0
 269 000e 092B     		cmp	r3, #9
 270 0010 00D0     		beq	.L24
 271              	.LVL17:
 272              	.L18:
 273              		.loc 1 256 0
 274              		@ sp needed
 275 0012 08BD     		pop	{r3, pc}
 276              	.LVL18:
 277              	.L24:
 278              		.loc 1 254 0
 279 0014 436A     		ldr	r3, [r0, #36]
 280 0016 1940     		and	r1, r3
 281              		.loc 1 253 0
 282 0018 8B42     		cmp	r3, r1
ARM GAS  /var/folders/qh/xwg3v3kj02qbxczjpdb8lzfr0000gn/T//ccBGUT7K.s 			page 6


 283 001a FAD1     		bne	.L18
 284              	.LVL19:
 285              	.LBB4:
 286              	.LBB5:
 287              		.loc 1 255 0
 288 001c FFF7FEFF 		bl	chSchReadyI
 289              	.LVL20:
 290 0020 0023     		mov	r3, #0
 291 0022 4362     		str	r3, [r0, #36]
 292 0024 F5E7     		b	.L18
 293              	.LVL21:
 294              	.L23:
 295              	.LBE5:
 296              	.LBE4:
 297              		.loc 1 251 0 discriminator 1
 298 0026 436A     		ldr	r3, [r0, #36]
 299 0028 0B42     		tst	r3, r1
 300 002a F2D0     		beq	.L18
 301              	.LVL22:
 302              	.LBB7:
 303              	.LBB6:
 304              		.loc 1 255 0
 305 002c FFF7FEFF 		bl	chSchReadyI
 306              	.LVL23:
 307 0030 0023     		mov	r3, #0
 308 0032 4362     		str	r3, [r0, #36]
 309 0034 EDE7     		b	.L18
 310              	.LBE6:
 311              	.LBE7:
 312              		.cfi_endproc
 313              	.LFE14:
 314              		.size	chEvtSignalI, .-chEvtSignalI
 315 0036 C046C046 		.section	.text.chEvtBroadcastFlagsI,"ax",%progbits
 315      C046C046 
 315      C046
 316              		.align	2
 317              		.p2align 4,,15
 318              		.global	chEvtBroadcastFlagsI
 319              		.code	16
 320              		.thumb_func
 321              		.type	chEvtBroadcastFlagsI, %function
 322              	chEvtBroadcastFlagsI:
 323              	.LFB11:
 324              		.loc 1 177 0
 325              		.cfi_startproc
 326              	.LVL24:
 327 0000 70B5     		push	{r4, r5, r6, lr}
 328              		.cfi_def_cfa_offset 16
 329              		.cfi_offset 4, -16
 330              		.cfi_offset 5, -12
 331              		.cfi_offset 6, -8
 332              		.cfi_offset 14, -4
 333              		.loc 1 183 0
 334 0002 0468     		ldr	r4, [r0]
 335              	.LVL25:
 336              		.loc 1 177 0
 337 0004 051C     		mov	r5, r0
ARM GAS  /var/folders/qh/xwg3v3kj02qbxczjpdb8lzfr0000gn/T//ccBGUT7K.s 			page 7


 338 0006 0E1C     		mov	r6, r1
 339              		.loc 1 184 0
 340 0008 A042     		cmp	r0, r4
 341 000a 09D0     		beq	.L25
 342              	.LVL26:
 343              	.L29:
 344              		.loc 1 185 0
 345 000c E368     		ldr	r3, [r4, #12]
 346              		.loc 1 186 0
 347 000e 6068     		ldr	r0, [r4, #4]
 348              		.loc 1 185 0
 349 0010 3343     		orr	r3, r6
 350 0012 E360     		str	r3, [r4, #12]
 351              		.loc 1 186 0
 352 0014 A168     		ldr	r1, [r4, #8]
 353 0016 FFF7FEFF 		bl	chEvtSignalI
 354              	.LVL27:
 355              		.loc 1 187 0
 356 001a 2468     		ldr	r4, [r4]
 357              	.LVL28:
 358              		.loc 1 184 0
 359 001c A542     		cmp	r5, r4
 360 001e F5D1     		bne	.L29
 361              	.L25:
 362              		.loc 1 189 0
 363              		@ sp needed
 364              	.LVL29:
 365              	.LVL30:
 366              	.LVL31:
 367 0020 70BD     		pop	{r4, r5, r6, pc}
 368              		.cfi_endproc
 369              	.LFE11:
 370              		.size	chEvtBroadcastFlagsI, .-chEvtBroadcastFlagsI
 371 0022 C046C046 		.section	.text.chEvtSignal,"ax",%progbits
 371      C046C046 
 371      C046C046 
 371      C046
 372              		.align	2
 373              		.p2align 4,,15
 374              		.global	chEvtSignal
 375              		.code	16
 376              		.thumb_func
 377              		.type	chEvtSignal, %function
 378              	chEvtSignal:
 379              	.LFB13:
 380              		.loc 1 222 0
 381              		.cfi_startproc
 382              	.LVL32:
 383 0000 08B5     		push	{r3, lr}
 384              		.cfi_def_cfa_offset 8
 385              		.cfi_offset 3, -8
 386              		.cfi_offset 14, -4
 387              		.loc 1 226 0
 388              	@ 226 "../../os/kernel/src/chevents.c" 1
 389 0002 72B6     		cpsid   i
 390              	@ 0 "" 2
 391              		.loc 1 227 0
ARM GAS  /var/folders/qh/xwg3v3kj02qbxczjpdb8lzfr0000gn/T//ccBGUT7K.s 			page 8


 392              		.code	16
 393 0004 FFF7FEFF 		bl	chEvtSignalI
 394              	.LVL33:
 395              		.loc 1 228 0
 396 0008 FFF7FEFF 		bl	chSchRescheduleS
 397              	.LVL34:
 398              		.loc 1 229 0
 399              	@ 229 "../../os/kernel/src/chevents.c" 1
 400 000c 62B6     		cpsie   i
 401              	@ 0 "" 2
 402              		.loc 1 230 0
 403              		.code	16
 404              		@ sp needed
 405 000e 08BD     		pop	{r3, pc}
 406              		.cfi_endproc
 407              	.LFE13:
 408              		.size	chEvtSignal, .-chEvtSignal
 409              		.section	.text.chEvtBroadcastFlags,"ax",%progbits
 410              		.align	2
 411              		.p2align 4,,15
 412              		.global	chEvtBroadcastFlags
 413              		.code	16
 414              		.thumb_func
 415              		.type	chEvtBroadcastFlags, %function
 416              	chEvtBroadcastFlags:
 417              	.LFB15:
 418              		.loc 1 271 0
 419              		.cfi_startproc
 420              	.LVL35:
 421 0000 08B5     		push	{r3, lr}
 422              		.cfi_def_cfa_offset 8
 423              		.cfi_offset 3, -8
 424              		.cfi_offset 14, -4
 425              		.loc 1 273 0
 426              	@ 273 "../../os/kernel/src/chevents.c" 1
 427 0002 72B6     		cpsid   i
 428              	@ 0 "" 2
 429              		.loc 1 274 0
 430              		.code	16
 431 0004 FFF7FEFF 		bl	chEvtBroadcastFlagsI
 432              	.LVL36:
 433              		.loc 1 275 0
 434 0008 FFF7FEFF 		bl	chSchRescheduleS
 435              	.LVL37:
 436              		.loc 1 276 0
 437              	@ 276 "../../os/kernel/src/chevents.c" 1
 438 000c 62B6     		cpsie   i
 439              	@ 0 "" 2
 440              		.loc 1 277 0
 441              		.code	16
 442              		@ sp needed
 443 000e 08BD     		pop	{r3, pc}
 444              		.cfi_endproc
 445              	.LFE15:
 446              		.size	chEvtBroadcastFlags, .-chEvtBroadcastFlags
 447              		.section	.text.chEvtGetAndClearFlagsI,"ax",%progbits
 448              		.align	2
ARM GAS  /var/folders/qh/xwg3v3kj02qbxczjpdb8lzfr0000gn/T//ccBGUT7K.s 			page 9


 449              		.p2align 4,,15
 450              		.global	chEvtGetAndClearFlagsI
 451              		.code	16
 452              		.thumb_func
 453              		.type	chEvtGetAndClearFlagsI, %function
 454              	chEvtGetAndClearFlagsI:
 455              	.LFB16:
 456              		.loc 1 290 0
 457              		.cfi_startproc
 458              	.LVL38:
 459              		.loc 1 290 0
 460 0000 031C     		mov	r3, r0
 461              		.loc 1 294 0
 462 0002 0022     		mov	r2, #0
 463              		.loc 1 293 0
 464 0004 C068     		ldr	r0, [r0, #12]
 465              	.LVL39:
 466              		.loc 1 297 0
 467              		@ sp needed
 468              		.loc 1 294 0
 469 0006 DA60     		str	r2, [r3, #12]
 470              		.loc 1 297 0
 471 0008 7047     		bx	lr
 472              		.cfi_endproc
 473              	.LFE16:
 474              		.size	chEvtGetAndClearFlagsI, .-chEvtGetAndClearFlagsI
 475 000a C046C046 		.section	.text.chEvtDispatch,"ax",%progbits
 475      C046
 476              		.align	2
 477              		.p2align 4,,15
 478              		.global	chEvtDispatch
 479              		.code	16
 480              		.thumb_func
 481              		.type	chEvtDispatch, %function
 482              	chEvtDispatch:
 483              	.LFB17:
 484              		.loc 1 308 0
 485              		.cfi_startproc
 486              	.LVL40:
 487 0000 F8B5     		push	{r3, r4, r5, r6, r7, lr}
 488              		.cfi_def_cfa_offset 24
 489              		.cfi_offset 3, -24
 490              		.cfi_offset 4, -20
 491              		.cfi_offset 5, -16
 492              		.cfi_offset 6, -12
 493              		.cfi_offset 7, -8
 494              		.cfi_offset 14, -4
 495              		.loc 1 308 0
 496 0002 0D1C     		mov	r5, r1
 497 0004 061C     		mov	r6, r0
 498              		.loc 1 313 0
 499 0006 0024     		mov	r4, #0
 500              		.loc 1 315 0
 501 0008 0127     		mov	r7, #1
 502              		.loc 1 314 0
 503 000a 0029     		cmp	r1, #0
 504 000c 04D1     		bne	.L44
ARM GAS  /var/folders/qh/xwg3v3kj02qbxczjpdb8lzfr0000gn/T//ccBGUT7K.s 			page 10


 505 000e 0FE0     		b	.L33
 506              	.LVL41:
 507              	.L35:
 508              		.loc 1 322 0
 509 0010 0134     		add	r4, r4, #1
 510              	.LVL42:
 511 0012 0436     		add	r6, r6, #4
 512              		.loc 1 314 0
 513 0014 002D     		cmp	r5, #0
 514 0016 0BD0     		beq	.L33
 515              	.LVL43:
 516              	.L44:
 517              		.loc 1 315 0
 518 0018 3B1C     		mov	r3, r7
 519 001a A340     		lsl	r3, r3, r4
 520 001c 1D42     		tst	r5, r3
 521 001e F7D0     		beq	.L35
 522              		.loc 1 320 0
 523 0020 201C     		mov	r0, r4
 524              		.loc 1 319 0
 525 0022 9D43     		bic	r5, r3
 526              	.LVL44:
 527              		.loc 1 320 0
 528 0024 3368     		ldr	r3, [r6]
 529 0026 9847     		blx	r3
 530              	.LVL45:
 531              		.loc 1 322 0
 532 0028 0134     		add	r4, r4, #1
 533              	.LVL46:
 534 002a 0436     		add	r6, r6, #4
 535              		.loc 1 314 0
 536 002c 002D     		cmp	r5, #0
 537 002e F3D1     		bne	.L44
 538              	.LVL47:
 539              	.L33:
 540              		.loc 1 324 0
 541              		@ sp needed
 542              	.LVL48:
 543 0030 F8BD     		pop	{r3, r4, r5, r6, r7, pc}
 544              		.cfi_endproc
 545              	.LFE17:
 546              		.size	chEvtDispatch, .-chEvtDispatch
 547 0032 C046C046 		.section	.text.chEvtWaitOne,"ax",%progbits
 547      C046C046 
 547      C046C046 
 547      C046
 548              		.align	2
 549              		.p2align 4,,15
 550              		.global	chEvtWaitOne
 551              		.code	16
 552              		.thumb_func
 553              		.type	chEvtWaitOne, %function
 554              	chEvtWaitOne:
 555              	.LFB18:
 556              		.loc 1 343 0
 557              		.cfi_startproc
 558              	.LVL49:
ARM GAS  /var/folders/qh/xwg3v3kj02qbxczjpdb8lzfr0000gn/T//ccBGUT7K.s 			page 11


 559 0000 38B5     		push	{r3, r4, r5, lr}
 560              		.cfi_def_cfa_offset 16
 561              		.cfi_offset 3, -16
 562              		.cfi_offset 4, -12
 563              		.cfi_offset 5, -8
 564              		.cfi_offset 14, -4
 565              		.loc 1 344 0
 566 0002 0A4B     		ldr	r3, .L47
 567              		.loc 1 343 0
 568 0004 051C     		mov	r5, r0
 569              		.loc 1 344 0
 570 0006 9C69     		ldr	r4, [r3, #24]
 571              	.LVL50:
 572              		.loc 1 347 0
 573              	@ 347 "../../os/kernel/src/chevents.c" 1
 574 0008 72B6     		cpsid   i
 575              	@ 0 "" 2
 576              		.loc 1 349 0
 577              		.code	16
 578 000a A26B     		ldr	r2, [r4, #56]
 579 000c 131C     		mov	r3, r2
 580 000e 0340     		and	r3, r0
 581              	.LVL51:
 582 0010 06D1     		bne	.L46
 583              		.loc 1 350 0
 584 0012 6062     		str	r0, [r4, #36]
 585              		.loc 1 351 0
 586 0014 0820     		mov	r0, #8
 587              	.LVL52:
 588 0016 FFF7FEFF 		bl	chSchGoSleepS
 589              	.LVL53:
 590              		.loc 1 352 0
 591 001a A26B     		ldr	r2, [r4, #56]
 592 001c 131C     		mov	r3, r2
 593 001e 2B40     		and	r3, r5
 594              	.LVL54:
 595              	.L46:
 596              		.loc 1 354 0
 597 0020 5842     		neg	r0, r3
 598 0022 1840     		and	r0, r3
 599              	.LVL55:
 600              		.loc 1 355 0
 601 0024 8243     		bic	r2, r0
 602 0026 A263     		str	r2, [r4, #56]
 603              		.loc 1 357 0
 604              	@ 357 "../../os/kernel/src/chevents.c" 1
 605 0028 62B6     		cpsie   i
 606              	@ 0 "" 2
 607              		.loc 1 359 0
 608              		.code	16
 609              		@ sp needed
 610              	.LVL56:
 611              	.LVL57:
 612 002a 38BD     		pop	{r3, r4, r5, pc}
 613              	.L48:
 614              		.align	2
 615              	.L47:
ARM GAS  /var/folders/qh/xwg3v3kj02qbxczjpdb8lzfr0000gn/T//ccBGUT7K.s 			page 12


 616 002c 00000000 		.word	rlist
 617              		.cfi_endproc
 618              	.LFE18:
 619              		.size	chEvtWaitOne, .-chEvtWaitOne
 620              		.section	.text.chEvtWaitAny,"ax",%progbits
 621              		.align	2
 622              		.p2align 4,,15
 623              		.global	chEvtWaitAny
 624              		.code	16
 625              		.thumb_func
 626              		.type	chEvtWaitAny, %function
 627              	chEvtWaitAny:
 628              	.LFB19:
 629              		.loc 1 372 0
 630              		.cfi_startproc
 631              	.LVL58:
 632 0000 38B5     		push	{r3, r4, r5, lr}
 633              		.cfi_def_cfa_offset 16
 634              		.cfi_offset 3, -16
 635              		.cfi_offset 4, -12
 636              		.cfi_offset 5, -8
 637              		.cfi_offset 14, -4
 638              		.loc 1 373 0
 639 0002 094B     		ldr	r3, .L51
 640              		.loc 1 372 0
 641 0004 051C     		mov	r5, r0
 642              		.loc 1 373 0
 643 0006 9C69     		ldr	r4, [r3, #24]
 644              	.LVL59:
 645              		.loc 1 376 0
 646              	@ 376 "../../os/kernel/src/chevents.c" 1
 647 0008 72B6     		cpsid   i
 648              	@ 0 "" 2
 649              		.loc 1 378 0
 650              		.code	16
 651 000a A26B     		ldr	r2, [r4, #56]
 652 000c 101C     		mov	r0, r2
 653              	.LVL60:
 654 000e 2840     		and	r0, r5
 655              	.LVL61:
 656 0010 06D1     		bne	.L50
 657              		.loc 1 380 0
 658 0012 0820     		mov	r0, #8
 659              	.LVL62:
 660              		.loc 1 379 0
 661 0014 6562     		str	r5, [r4, #36]
 662              		.loc 1 380 0
 663 0016 FFF7FEFF 		bl	chSchGoSleepS
 664              	.LVL63:
 665              		.loc 1 381 0
 666 001a A26B     		ldr	r2, [r4, #56]
 667 001c 101C     		mov	r0, r2
 668 001e 2840     		and	r0, r5
 669              	.LVL64:
 670              	.L50:
 671              		.loc 1 383 0
 672 0020 8243     		bic	r2, r0
ARM GAS  /var/folders/qh/xwg3v3kj02qbxczjpdb8lzfr0000gn/T//ccBGUT7K.s 			page 13


 673 0022 A263     		str	r2, [r4, #56]
 674              		.loc 1 385 0
 675              	@ 385 "../../os/kernel/src/chevents.c" 1
 676 0024 62B6     		cpsie   i
 677              	@ 0 "" 2
 678              		.loc 1 387 0
 679              		.code	16
 680              		@ sp needed
 681              	.LVL65:
 682              	.LVL66:
 683 0026 38BD     		pop	{r3, r4, r5, pc}
 684              	.L52:
 685              		.align	2
 686              	.L51:
 687 0028 00000000 		.word	rlist
 688              		.cfi_endproc
 689              	.LFE19:
 690              		.size	chEvtWaitAny, .-chEvtWaitAny
 691 002c C046C046 		.section	.text.chEvtWaitAll,"ax",%progbits
 692              		.align	2
 693              		.p2align 4,,15
 694              		.global	chEvtWaitAll
 695              		.code	16
 696              		.thumb_func
 697              		.type	chEvtWaitAll, %function
 698              	chEvtWaitAll:
 699              	.LFB20:
 700              		.loc 1 400 0
 701              		.cfi_startproc
 702              	.LVL67:
 703 0000 38B5     		push	{r3, r4, r5, lr}
 704              		.cfi_def_cfa_offset 16
 705              		.cfi_offset 3, -16
 706              		.cfi_offset 4, -12
 707              		.cfi_offset 5, -8
 708              		.cfi_offset 14, -4
 709              		.loc 1 401 0
 710 0002 094B     		ldr	r3, .L55
 711              		.loc 1 400 0
 712 0004 041C     		mov	r4, r0
 713              		.loc 1 401 0
 714 0006 9D69     		ldr	r5, [r3, #24]
 715              	.LVL68:
 716              		.loc 1 403 0
 717              	@ 403 "../../os/kernel/src/chevents.c" 1
 718 0008 72B6     		cpsid   i
 719              	@ 0 "" 2
 720              		.loc 1 405 0
 721              		.code	16
 722 000a AB6B     		ldr	r3, [r5, #56]
 723 000c 1A1C     		mov	r2, r3
 724 000e 0240     		and	r2, r0
 725 0010 8242     		cmp	r2, r0
 726 0012 04D0     		beq	.L54
 727              		.loc 1 406 0
 728 0014 6862     		str	r0, [r5, #36]
 729              		.loc 1 407 0
ARM GAS  /var/folders/qh/xwg3v3kj02qbxczjpdb8lzfr0000gn/T//ccBGUT7K.s 			page 14


 730 0016 0920     		mov	r0, #9
 731              	.LVL69:
 732 0018 FFF7FEFF 		bl	chSchGoSleepS
 733              	.LVL70:
 734 001c AB6B     		ldr	r3, [r5, #56]
 735              	.L54:
 736              		.loc 1 409 0
 737 001e A343     		bic	r3, r4
 738 0020 AB63     		str	r3, [r5, #56]
 739              		.loc 1 411 0
 740              	@ 411 "../../os/kernel/src/chevents.c" 1
 741 0022 62B6     		cpsie   i
 742              	@ 0 "" 2
 743              		.loc 1 413 0
 744              		.code	16
 745 0024 201C     		mov	r0, r4
 746              		@ sp needed
 747              	.LVL71:
 748              	.LVL72:
 749 0026 38BD     		pop	{r3, r4, r5, pc}
 750              	.L56:
 751              		.align	2
 752              	.L55:
 753 0028 00000000 		.word	rlist
 754              		.cfi_endproc
 755              	.LFE20:
 756              		.size	chEvtWaitAll, .-chEvtWaitAll
 757 002c C046C046 		.section	.text.chEvtWaitOneTimeout,"ax",%progbits
 758              		.align	2
 759              		.p2align 4,,15
 760              		.global	chEvtWaitOneTimeout
 761              		.code	16
 762              		.thumb_func
 763              		.type	chEvtWaitOneTimeout, %function
 764              	chEvtWaitOneTimeout:
 765              	.LFB21:
 766              		.loc 1 439 0
 767              		.cfi_startproc
 768              	.LVL73:
 769 0000 38B5     		push	{r3, r4, r5, lr}
 770              		.cfi_def_cfa_offset 16
 771              		.cfi_offset 3, -16
 772              		.cfi_offset 4, -12
 773              		.cfi_offset 5, -8
 774              		.cfi_offset 14, -4
 775              		.loc 1 440 0
 776 0002 0E4B     		ldr	r3, .L63
 777              		.loc 1 439 0
 778 0004 051C     		mov	r5, r0
 779              		.loc 1 440 0
 780 0006 9C69     		ldr	r4, [r3, #24]
 781              	.LVL74:
 782              		.loc 1 443 0
 783              	@ 443 "../../os/kernel/src/chevents.c" 1
 784 0008 72B6     		cpsid   i
 785              	@ 0 "" 2
 786              		.loc 1 445 0
ARM GAS  /var/folders/qh/xwg3v3kj02qbxczjpdb8lzfr0000gn/T//ccBGUT7K.s 			page 15


 787              		.code	16
 788 000a A26B     		ldr	r2, [r4, #56]
 789 000c 131C     		mov	r3, r2
 790 000e 0340     		and	r3, r0
 791              	.LVL75:
 792 0010 0DD1     		bne	.L58
 793              		.loc 1 446 0
 794 0012 0029     		cmp	r1, #0
 795 0014 02D1     		bne	.L59
 796              	.LVL76:
 797              	.L62:
 798              		.loc 1 452 0
 799              	@ 452 "../../os/kernel/src/chevents.c" 1
 800 0016 62B6     		cpsie   i
 801              	@ 0 "" 2
 802              		.loc 1 453 0
 803              		.code	16
 804 0018 0020     		mov	r0, #0
 805 001a 0EE0     		b	.L60
 806              	.LVL77:
 807              	.L59:
 808              		.loc 1 450 0
 809 001c 6062     		str	r0, [r4, #36]
 810              		.loc 1 451 0
 811 001e 0820     		mov	r0, #8
 812              	.LVL78:
 813 0020 FFF7FEFF 		bl	chSchGoSleepTimeoutS
 814              	.LVL79:
 815 0024 0028     		cmp	r0, #0
 816 0026 F6DB     		blt	.L62
 817              		.loc 1 455 0
 818 0028 A26B     		ldr	r2, [r4, #56]
 819 002a 131C     		mov	r3, r2
 820 002c 2B40     		and	r3, r5
 821              	.LVL80:
 822              	.L58:
 823              		.loc 1 457 0
 824 002e 5842     		neg	r0, r3
 825 0030 0340     		and	r3, r0
 826              	.LVL81:
 827              		.loc 1 458 0
 828 0032 9A43     		bic	r2, r3
 829 0034 A263     		str	r2, [r4, #56]
 830              		.loc 1 460 0
 831              	@ 460 "../../os/kernel/src/chevents.c" 1
 832 0036 62B6     		cpsie   i
 833              	@ 0 "" 2
 834              		.loc 1 461 0
 835              		.code	16
 836 0038 181C     		mov	r0, r3
 837              	.LVL82:
 838              	.L60:
 839              		.loc 1 462 0
 840              		@ sp needed
 841              	.LVL83:
 842              	.LVL84:
 843 003a 38BD     		pop	{r3, r4, r5, pc}
ARM GAS  /var/folders/qh/xwg3v3kj02qbxczjpdb8lzfr0000gn/T//ccBGUT7K.s 			page 16


 844              	.L64:
 845              		.align	2
 846              	.L63:
 847 003c 00000000 		.word	rlist
 848              		.cfi_endproc
 849              	.LFE21:
 850              		.size	chEvtWaitOneTimeout, .-chEvtWaitOneTimeout
 851              		.section	.text.chEvtWaitAnyTimeout,"ax",%progbits
 852              		.align	2
 853              		.p2align 4,,15
 854              		.global	chEvtWaitAnyTimeout
 855              		.code	16
 856              		.thumb_func
 857              		.type	chEvtWaitAnyTimeout, %function
 858              	chEvtWaitAnyTimeout:
 859              	.LFB22:
 860              		.loc 1 482 0
 861              		.cfi_startproc
 862              	.LVL85:
 863 0000 38B5     		push	{r3, r4, r5, lr}
 864              		.cfi_def_cfa_offset 16
 865              		.cfi_offset 3, -16
 866              		.cfi_offset 4, -12
 867              		.cfi_offset 5, -8
 868              		.cfi_offset 14, -4
 869              		.loc 1 483 0
 870 0002 0D4B     		ldr	r3, .L71
 871              		.loc 1 482 0
 872 0004 051C     		mov	r5, r0
 873              		.loc 1 483 0
 874 0006 9C69     		ldr	r4, [r3, #24]
 875              	.LVL86:
 876              		.loc 1 486 0
 877              	@ 486 "../../os/kernel/src/chevents.c" 1
 878 0008 72B6     		cpsid   i
 879              	@ 0 "" 2
 880              		.loc 1 488 0
 881              		.code	16
 882 000a A26B     		ldr	r2, [r4, #56]
 883 000c 131C     		mov	r3, r2
 884 000e 0340     		and	r3, r0
 885              	.LVL87:
 886 0010 0DD1     		bne	.L66
 887              		.loc 1 489 0
 888 0012 0029     		cmp	r1, #0
 889 0014 02D1     		bne	.L67
 890              	.LVL88:
 891              	.L70:
 892              		.loc 1 495 0
 893              	@ 495 "../../os/kernel/src/chevents.c" 1
 894 0016 62B6     		cpsie   i
 895              	@ 0 "" 2
 896              		.loc 1 496 0
 897              		.code	16
 898 0018 0020     		mov	r0, #0
 899 001a 0CE0     		b	.L68
 900              	.LVL89:
ARM GAS  /var/folders/qh/xwg3v3kj02qbxczjpdb8lzfr0000gn/T//ccBGUT7K.s 			page 17


 901              	.L67:
 902              		.loc 1 493 0
 903 001c 6062     		str	r0, [r4, #36]
 904              		.loc 1 494 0
 905 001e 0820     		mov	r0, #8
 906              	.LVL90:
 907 0020 FFF7FEFF 		bl	chSchGoSleepTimeoutS
 908              	.LVL91:
 909 0024 0028     		cmp	r0, #0
 910 0026 F6DB     		blt	.L70
 911              		.loc 1 498 0
 912 0028 A26B     		ldr	r2, [r4, #56]
 913 002a 131C     		mov	r3, r2
 914 002c 2B40     		and	r3, r5
 915              	.LVL92:
 916              	.L66:
 917              		.loc 1 500 0
 918 002e 9A43     		bic	r2, r3
 919 0030 A263     		str	r2, [r4, #56]
 920              		.loc 1 502 0
 921              	@ 502 "../../os/kernel/src/chevents.c" 1
 922 0032 62B6     		cpsie   i
 923              	@ 0 "" 2
 924              		.loc 1 503 0
 925              		.code	16
 926 0034 181C     		mov	r0, r3
 927              	.LVL93:
 928              	.L68:
 929              		.loc 1 504 0
 930              		@ sp needed
 931              	.LVL94:
 932              	.LVL95:
 933 0036 38BD     		pop	{r3, r4, r5, pc}
 934              	.L72:
 935              		.align	2
 936              	.L71:
 937 0038 00000000 		.word	rlist
 938              		.cfi_endproc
 939              	.LFE22:
 940              		.size	chEvtWaitAnyTimeout, .-chEvtWaitAnyTimeout
 941              		.section	.text.chEvtWaitAllTimeout,"ax",%progbits
 942              		.align	2
 943              		.p2align 4,,15
 944              		.global	chEvtWaitAllTimeout
 945              		.code	16
 946              		.thumb_func
 947              		.type	chEvtWaitAllTimeout, %function
 948              	chEvtWaitAllTimeout:
 949              	.LFB23:
 950              		.loc 1 523 0
 951              		.cfi_startproc
 952              	.LVL96:
 953 0000 38B5     		push	{r3, r4, r5, lr}
 954              		.cfi_def_cfa_offset 16
 955              		.cfi_offset 3, -16
 956              		.cfi_offset 4, -12
 957              		.cfi_offset 5, -8
ARM GAS  /var/folders/qh/xwg3v3kj02qbxczjpdb8lzfr0000gn/T//ccBGUT7K.s 			page 18


 958              		.cfi_offset 14, -4
 959              		.loc 1 524 0
 960 0002 0D4B     		ldr	r3, .L78
 961              		.loc 1 523 0
 962 0004 041C     		mov	r4, r0
 963              		.loc 1 524 0
 964 0006 9D69     		ldr	r5, [r3, #24]
 965              	.LVL97:
 966              		.loc 1 526 0
 967              	@ 526 "../../os/kernel/src/chevents.c" 1
 968 0008 72B6     		cpsid   i
 969              	@ 0 "" 2
 970              		.loc 1 528 0
 971              		.code	16
 972 000a AB6B     		ldr	r3, [r5, #56]
 973 000c 1A1C     		mov	r2, r3
 974 000e 0240     		and	r2, r0
 975 0010 8242     		cmp	r2, r0
 976 0012 0BD0     		beq	.L74
 977              		.loc 1 529 0
 978 0014 0029     		cmp	r1, #0
 979 0016 02D1     		bne	.L75
 980              	.LVL98:
 981              	.L77:
 982              		.loc 1 535 0
 983              	@ 535 "../../os/kernel/src/chevents.c" 1
 984 0018 62B6     		cpsie   i
 985              	@ 0 "" 2
 986              		.loc 1 536 0
 987              		.code	16
 988 001a 0020     		mov	r0, #0
 989 001c 0AE0     		b	.L76
 990              	.LVL99:
 991              	.L75:
 992              		.loc 1 533 0
 993 001e 6862     		str	r0, [r5, #36]
 994              		.loc 1 534 0
 995 0020 0920     		mov	r0, #9
 996              	.LVL100:
 997 0022 FFF7FEFF 		bl	chSchGoSleepTimeoutS
 998              	.LVL101:
 999 0026 0028     		cmp	r0, #0
 1000 0028 F6DB     		blt	.L77
 1001 002a AB6B     		ldr	r3, [r5, #56]
 1002              	.L74:
 1003              		.loc 1 539 0
 1004 002c A343     		bic	r3, r4
 1005 002e AB63     		str	r3, [r5, #56]
 1006              		.loc 1 541 0
 1007              	@ 541 "../../os/kernel/src/chevents.c" 1
 1008 0030 62B6     		cpsie   i
 1009              	@ 0 "" 2
 1010              		.loc 1 542 0
 1011              		.code	16
 1012 0032 201C     		mov	r0, r4
 1013              	.L76:
 1014              		.loc 1 543 0
ARM GAS  /var/folders/qh/xwg3v3kj02qbxczjpdb8lzfr0000gn/T//ccBGUT7K.s 			page 19


 1015              		@ sp needed
 1016              	.LVL102:
 1017              	.LVL103:
 1018 0034 38BD     		pop	{r3, r4, r5, pc}
 1019              	.L79:
 1020 0036 C046     		.align	2
 1021              	.L78:
 1022 0038 00000000 		.word	rlist
 1023              		.cfi_endproc
 1024              	.LFE23:
 1025              		.size	chEvtWaitAllTimeout, .-chEvtWaitAllTimeout
 1026 003c C046C046 		.text
 1027              	.Letext0:
 1028              		.file 2 "/usr/local/Cellar/gcc-arm-none-eabi-48/20131218/arm-none-eabi/include/stdint.h"
 1029              		.file 3 "../../os/ports/GCC/ARMCMx/chtypes.h"
 1030              		.file 4 "../../os/kernel/include/chlists.h"
 1031              		.file 5 "../../os/kernel/include/chthreads.h"
 1032              		.file 6 "../../os/ports/GCC/ARMCMx/chcore_v6m.h"
 1033              		.file 7 "../../os/kernel/include/chschd.h"
 1034              		.file 8 "../../os/kernel/include/chmtx.h"
 1035              		.file 9 "../../os/kernel/include/chevents.h"