ARM GAS  /var/folders/qh/xwg3v3kj02qbxczjpdb8lzfr0000gn/T//ccTDBctj.s 			page 1


   1              		.cpu cortex-m0
   2              		.fpu softvfp
   3              		.eabi_attribute 20, 1
   4              		.eabi_attribute 21, 1
   5              		.eabi_attribute 23, 3
   6              		.eabi_attribute 24, 1
   7              		.eabi_attribute 25, 1
   8              		.eabi_attribute 26, 1
   9              		.eabi_attribute 30, 2
  10              		.eabi_attribute 34, 0
  11              		.eabi_attribute 18, 4
  12              		.code	16
  13              		.file	"chevents.c"
  14              		.text
  15              	.Ltext0:
  16              		.cfi_sections	.debug_frame
  17              		.section	.text.chEvtRegisterMask,"ax",%progbits
  18              		.align	2
  19              		.p2align 4,,15
  20              		.global	chEvtRegisterMask
  21              		.code	16
  22              		.thumb_func
  23              		.type	chEvtRegisterMask, %function
  24              	chEvtRegisterMask:
  25              	.LFB7:
  26              		.file 1 "../../os/kernel/src/chevents.c"
  27              		.loc 1 78 0
  28              		.cfi_startproc
  29              	.LVL0:
  30 0000 70B5     		push	{r4, r5, r6, lr}
  31              		.cfi_def_cfa_offset 16
  32              		.cfi_offset 4, -16
  33              		.cfi_offset 5, -12
  34              		.cfi_offset 6, -8
  35              		.cfi_offset 14, -4
  36              		.loc 1 78 0
  37 0002 051C     		mov	r5, r0
  38 0004 0C1C     		mov	r4, r1
  39 0006 161C     		mov	r6, r2
  40              		.loc 1 82 0
  41              	@ 82 "../../os/kernel/src/chevents.c" 1
  42 0008 72B6     		cpsid   i
  43              	@ 0 "" 2
  44              		.code	16
  45 000a FFF7FEFF 		bl	dbg_check_lock
  46              	.LVL1:
  47              		.loc 1 83 0
  48 000e 2B68     		ldr	r3, [r5]
  49 0010 2360     		str	r3, [r4]
  50              		.loc 1 85 0
  51 0012 054B     		ldr	r3, .L2
  52              		.loc 1 84 0
  53 0014 2C60     		str	r4, [r5]
  54              		.loc 1 85 0
  55 0016 9B69     		ldr	r3, [r3, #24]
  56              		.loc 1 86 0
  57 0018 A660     		str	r6, [r4, #8]
ARM GAS  /var/folders/qh/xwg3v3kj02qbxczjpdb8lzfr0000gn/T//ccTDBctj.s 			page 2


  58              		.loc 1 85 0
  59 001a 6360     		str	r3, [r4, #4]
  60              		.loc 1 87 0
  61 001c 0023     		mov	r3, #0
  62 001e E360     		str	r3, [r4, #12]
  63              		.loc 1 88 0
  64 0020 FFF7FEFF 		bl	dbg_check_unlock
  65              	.LVL2:
  66              	@ 88 "../../os/kernel/src/chevents.c" 1
  67 0024 62B6     		cpsie   i
  68              	@ 0 "" 2
  69              		.loc 1 89 0
  70              		.code	16
  71              		@ sp needed
  72              	.LVL3:
  73              	.LVL4:
  74              	.LVL5:
  75 0026 70BD     		pop	{r4, r5, r6, pc}
  76              	.L3:
  77              		.align	2
  78              	.L2:
  79 0028 00000000 		.word	rlist
  80              		.cfi_endproc
  81              	.LFE7:
  82              		.size	chEvtRegisterMask, .-chEvtRegisterMask
  83 002c C046C046 		.section	.text.chEvtUnregister,"ax",%progbits
  84              		.align	2
  85              		.p2align 4,,15
  86              		.global	chEvtUnregister
  87              		.code	16
  88              		.thumb_func
  89              		.type	chEvtUnregister, %function
  90              	chEvtUnregister:
  91              	.LFB8:
  92              		.loc 1 104 0
  93              		.cfi_startproc
  94              	.LVL6:
  95 0000 38B5     		push	{r3, r4, r5, lr}
  96              		.cfi_def_cfa_offset 16
  97              		.cfi_offset 3, -16
  98              		.cfi_offset 4, -12
  99              		.cfi_offset 5, -8
 100              		.cfi_offset 14, -4
 101              		.loc 1 104 0
 102 0002 041C     		mov	r4, r0
 103              	.LVL7:
 104 0004 0D1C     		mov	r5, r1
 105              		.loc 1 110 0
 106              	@ 110 "../../os/kernel/src/chevents.c" 1
 107 0006 72B6     		cpsid   i
 108              	@ 0 "" 2
 109              		.code	16
 110 0008 FFF7FEFF 		bl	dbg_check_lock
 111              	.LVL8:
 112              		.loc 1 109 0
 113 000c 221C     		mov	r2, r4
 114              		.loc 1 111 0
ARM GAS  /var/folders/qh/xwg3v3kj02qbxczjpdb8lzfr0000gn/T//ccTDBctj.s 			page 3


 115 000e 02E0     		b	.L5
 116              	.LVL9:
 117              	.L8:
 118              		.loc 1 112 0
 119 0010 9D42     		cmp	r5, r3
 120 0012 07D0     		beq	.L10
 121 0014 1A1C     		mov	r2, r3
 122              	.LVL10:
 123              	.L5:
 124              		.loc 1 111 0 discriminator 1
 125 0016 1368     		ldr	r3, [r2]
 126 0018 A342     		cmp	r3, r4
 127 001a F9D1     		bne	.L8
 128              	.LVL11:
 129              	.L7:
 130              		.loc 1 118 0
 131 001c FFF7FEFF 		bl	dbg_check_unlock
 132              	.LVL12:
 133              	@ 118 "../../os/kernel/src/chevents.c" 1
 134 0020 62B6     		cpsie   i
 135              	@ 0 "" 2
 136              		.loc 1 119 0
 137              		.code	16
 138              		@ sp needed
 139              	.LVL13:
 140 0022 38BD     		pop	{r3, r4, r5, pc}
 141              	.LVL14:
 142              	.L10:
 143              		.loc 1 113 0
 144 0024 2D68     		ldr	r5, [r5]
 145              	.LVL15:
 146 0026 1560     		str	r5, [r2]
 147              		.loc 1 114 0
 148 0028 F8E7     		b	.L7
 149              		.cfi_endproc
 150              	.LFE8:
 151              		.size	chEvtUnregister, .-chEvtUnregister
 152 002a C046C046 		.section	.text.chEvtGetAndClearEvents,"ax",%progbits
 152      C046
 153              		.align	2
 154              		.p2align 4,,15
 155              		.global	chEvtGetAndClearEvents
 156              		.code	16
 157              		.thumb_func
 158              		.type	chEvtGetAndClearEvents, %function
 159              	chEvtGetAndClearEvents:
 160              	.LFB9:
 161              		.loc 1 129 0
 162              		.cfi_startproc
 163              	.LVL16:
 164 0000 38B5     		push	{r3, r4, r5, lr}
 165              		.cfi_def_cfa_offset 16
 166              		.cfi_offset 3, -16
 167              		.cfi_offset 4, -12
 168              		.cfi_offset 5, -8
 169              		.cfi_offset 14, -4
 170              		.loc 1 129 0
ARM GAS  /var/folders/qh/xwg3v3kj02qbxczjpdb8lzfr0000gn/T//ccTDBctj.s 			page 4


 171 0002 041C     		mov	r4, r0
 172              		.loc 1 132 0
 173              	@ 132 "../../os/kernel/src/chevents.c" 1
 174 0004 72B6     		cpsid   i
 175              	@ 0 "" 2
 176              		.code	16
 177 0006 FFF7FEFF 		bl	dbg_check_lock
 178              	.LVL17:
 179              		.loc 1 134 0
 180 000a 064B     		ldr	r3, .L12
 181 000c 9A69     		ldr	r2, [r3, #24]
 182 000e 936B     		ldr	r3, [r2, #56]
 183 0010 1D1C     		mov	r5, r3
 184              		.loc 1 135 0
 185 0012 A343     		bic	r3, r4
 186 0014 9363     		str	r3, [r2, #56]
 187              		.loc 1 137 0
 188 0016 FFF7FEFF 		bl	dbg_check_unlock
 189              	.LVL18:
 190              		.loc 1 134 0
 191 001a 2540     		and	r5, r4
 192              	.LVL19:
 193              		.loc 1 137 0
 194              	@ 137 "../../os/kernel/src/chevents.c" 1
 195 001c 62B6     		cpsie   i
 196              	@ 0 "" 2
 197              		.loc 1 139 0
 198              		.code	16
 199 001e 281C     		mov	r0, r5
 200              		@ sp needed
 201              	.LVL20:
 202              	.LVL21:
 203 0020 38BD     		pop	{r3, r4, r5, pc}
 204              	.L13:
 205 0022 C046     		.align	2
 206              	.L12:
 207 0024 00000000 		.word	rlist
 208              		.cfi_endproc
 209              	.LFE9:
 210              		.size	chEvtGetAndClearEvents, .-chEvtGetAndClearEvents
 211 0028 C046C046 		.section	.text.chEvtAddEvents,"ax",%progbits
 211      C046C046 
 212              		.align	2
 213              		.p2align 4,,15
 214              		.global	chEvtAddEvents
 215              		.code	16
 216              		.thumb_func
 217              		.type	chEvtAddEvents, %function
 218              	chEvtAddEvents:
 219              	.LFB10:
 220              		.loc 1 150 0
 221              		.cfi_startproc
 222              	.LVL22:
 223 0000 10B5     		push	{r4, lr}
 224              		.cfi_def_cfa_offset 8
 225              		.cfi_offset 4, -8
 226              		.cfi_offset 14, -4
ARM GAS  /var/folders/qh/xwg3v3kj02qbxczjpdb8lzfr0000gn/T//ccTDBctj.s 			page 5


 227              		.loc 1 150 0
 228 0002 041C     		mov	r4, r0
 229              		.loc 1 152 0
 230              	@ 152 "../../os/kernel/src/chevents.c" 1
 231 0004 72B6     		cpsid   i
 232              	@ 0 "" 2
 233              		.code	16
 234 0006 FFF7FEFF 		bl	dbg_check_lock
 235              	.LVL23:
 236              		.loc 1 154 0
 237 000a 054B     		ldr	r3, .L15
 238 000c 9B69     		ldr	r3, [r3, #24]
 239 000e 9A6B     		ldr	r2, [r3, #56]
 240 0010 1443     		orr	r4, r2
 241              	.LVL24:
 242 0012 9C63     		str	r4, [r3, #56]
 243              	.LVL25:
 244              		.loc 1 156 0
 245 0014 FFF7FEFF 		bl	dbg_check_unlock
 246              	.LVL26:
 247              	@ 156 "../../os/kernel/src/chevents.c" 1
 248 0018 62B6     		cpsie   i
 249              	@ 0 "" 2
 250              		.loc 1 158 0
 251              		.code	16
 252 001a 201C     		mov	r0, r4
 253              		@ sp needed
 254              	.LVL27:
 255 001c 10BD     		pop	{r4, pc}
 256              	.L16:
 257 001e C046     		.align	2
 258              	.L15:
 259 0020 00000000 		.word	rlist
 260              		.cfi_endproc
 261              	.LFE10:
 262              		.size	chEvtAddEvents, .-chEvtAddEvents
 263 0024 C046C046 		.section	.text.chEvtGetAndClearFlags,"ax",%progbits
 263      C046C046 
 263      C046C046 
 264              		.align	2
 265              		.p2align 4,,15
 266              		.global	chEvtGetAndClearFlags
 267              		.code	16
 268              		.thumb_func
 269              		.type	chEvtGetAndClearFlags, %function
 270              	chEvtGetAndClearFlags:
 271              	.LFB12:
 272              		.loc 1 202 0
 273              		.cfi_startproc
 274              	.LVL28:
 275 0000 38B5     		push	{r3, r4, r5, lr}
 276              		.cfi_def_cfa_offset 16
 277              		.cfi_offset 3, -16
 278              		.cfi_offset 4, -12
 279              		.cfi_offset 5, -8
 280              		.cfi_offset 14, -4
 281              		.loc 1 202 0
ARM GAS  /var/folders/qh/xwg3v3kj02qbxczjpdb8lzfr0000gn/T//ccTDBctj.s 			page 6


 282 0002 041C     		mov	r4, r0
 283              		.loc 1 205 0
 284              	@ 205 "../../os/kernel/src/chevents.c" 1
 285 0004 72B6     		cpsid   i
 286              	@ 0 "" 2
 287              		.code	16
 288 0006 FFF7FEFF 		bl	dbg_check_lock
 289              	.LVL29:
 290              		.loc 1 208 0
 291 000a 0023     		mov	r3, #0
 292              		.loc 1 207 0
 293 000c E568     		ldr	r5, [r4, #12]
 294              	.LVL30:
 295              		.loc 1 208 0
 296 000e E360     		str	r3, [r4, #12]
 297              		.loc 1 210 0
 298 0010 FFF7FEFF 		bl	dbg_check_unlock
 299              	.LVL31:
 300              	@ 210 "../../os/kernel/src/chevents.c" 1
 301 0014 62B6     		cpsie   i
 302              	@ 0 "" 2
 303              		.loc 1 212 0
 304              		.code	16
 305 0016 281C     		mov	r0, r5
 306              		@ sp needed
 307              	.LVL32:
 308              	.LVL33:
 309 0018 38BD     		pop	{r3, r4, r5, pc}
 310              		.cfi_endproc
 311              	.LFE12:
 312              		.size	chEvtGetAndClearFlags, .-chEvtGetAndClearFlags
 313 001a C046C046 		.section	.text.chEvtSignalI,"ax",%progbits
 313      C046
 314              		.align	2
 315              		.p2align 4,,15
 316              		.global	chEvtSignalI
 317              		.code	16
 318              		.thumb_func
 319              		.type	chEvtSignalI, %function
 320              	chEvtSignalI:
 321              	.LFB14:
 322              		.loc 1 244 0
 323              		.cfi_startproc
 324              	.LVL34:
 325 0000 38B5     		push	{r3, r4, r5, lr}
 326              		.cfi_def_cfa_offset 16
 327              		.cfi_offset 3, -16
 328              		.cfi_offset 4, -12
 329              		.cfi_offset 5, -8
 330              		.cfi_offset 14, -4
 331              		.loc 1 244 0
 332 0002 041C     		mov	r4, r0
 333 0004 0D1C     		mov	r5, r1
 334              		.loc 1 246 0
 335 0006 FFF7FEFF 		bl	chDbgCheckClassI
 336              	.LVL35:
 337              		.loc 1 249 0
ARM GAS  /var/folders/qh/xwg3v3kj02qbxczjpdb8lzfr0000gn/T//ccTDBctj.s 			page 7


 338 000a A16B     		ldr	r1, [r4, #56]
 339              		.loc 1 251 0
 340 000c 237F     		ldrb	r3, [r4, #28]
 341              		.loc 1 249 0
 342 000e 2943     		orr	r1, r5
 343 0010 A163     		str	r1, [r4, #56]
 344              		.loc 1 251 0
 345 0012 082B     		cmp	r3, #8
 346 0014 0CD0     		beq	.L23
 347              		.loc 1 252 0
 348 0016 092B     		cmp	r3, #9
 349 0018 00D0     		beq	.L24
 350              	.L18:
 351              		.loc 1 256 0
 352              		@ sp needed
 353              	.LVL36:
 354              	.LVL37:
 355 001a 38BD     		pop	{r3, r4, r5, pc}
 356              	.LVL38:
 357              	.L24:
 358              		.loc 1 254 0
 359 001c 636A     		ldr	r3, [r4, #36]
 360 001e 1940     		and	r1, r3
 361              		.loc 1 253 0
 362 0020 8B42     		cmp	r3, r1
 363 0022 FAD1     		bne	.L18
 364              	.LVL39:
 365              	.LBB4:
 366              	.LBB5:
 367              		.loc 1 255 0
 368 0024 201C     		mov	r0, r4
 369 0026 FFF7FEFF 		bl	chSchReadyI
 370              	.LVL40:
 371 002a 0023     		mov	r3, #0
 372 002c 4362     		str	r3, [r0, #36]
 373 002e F4E7     		b	.L18
 374              	.LVL41:
 375              	.L23:
 376              	.LBE5:
 377              	.LBE4:
 378              		.loc 1 251 0 discriminator 1
 379 0030 636A     		ldr	r3, [r4, #36]
 380 0032 0B42     		tst	r3, r1
 381 0034 F1D0     		beq	.L18
 382              	.LVL42:
 383              	.LBB7:
 384              	.LBB6:
 385              		.loc 1 255 0
 386 0036 201C     		mov	r0, r4
 387 0038 FFF7FEFF 		bl	chSchReadyI
 388              	.LVL43:
 389 003c 0023     		mov	r3, #0
 390 003e 4362     		str	r3, [r0, #36]
 391 0040 EBE7     		b	.L18
 392              	.LBE6:
 393              	.LBE7:
 394              		.cfi_endproc
ARM GAS  /var/folders/qh/xwg3v3kj02qbxczjpdb8lzfr0000gn/T//ccTDBctj.s 			page 8


 395              	.LFE14:
 396              		.size	chEvtSignalI, .-chEvtSignalI
 397 0042 C046C046 		.section	.text.chEvtBroadcastFlagsI,"ax",%progbits
 397      C046C046 
 397      C046C046 
 397      C046
 398              		.align	2
 399              		.p2align 4,,15
 400              		.global	chEvtBroadcastFlagsI
 401              		.code	16
 402              		.thumb_func
 403              		.type	chEvtBroadcastFlagsI, %function
 404              	chEvtBroadcastFlagsI:
 405              	.LFB11:
 406              		.loc 1 177 0
 407              		.cfi_startproc
 408              	.LVL44:
 409 0000 70B5     		push	{r4, r5, r6, lr}
 410              		.cfi_def_cfa_offset 16
 411              		.cfi_offset 4, -16
 412              		.cfi_offset 5, -12
 413              		.cfi_offset 6, -8
 414              		.cfi_offset 14, -4
 415              		.loc 1 177 0
 416 0002 051C     		mov	r5, r0
 417 0004 0E1C     		mov	r6, r1
 418              		.loc 1 180 0
 419 0006 FFF7FEFF 		bl	chDbgCheckClassI
 420              	.LVL45:
 421              		.loc 1 183 0
 422 000a 2C68     		ldr	r4, [r5]
 423              	.LVL46:
 424              		.loc 1 184 0
 425 000c A542     		cmp	r5, r4
 426 000e 09D0     		beq	.L25
 427              	.L29:
 428              		.loc 1 185 0
 429 0010 E368     		ldr	r3, [r4, #12]
 430              		.loc 1 186 0
 431 0012 6068     		ldr	r0, [r4, #4]
 432              		.loc 1 185 0
 433 0014 3343     		orr	r3, r6
 434 0016 E360     		str	r3, [r4, #12]
 435              		.loc 1 186 0
 436 0018 A168     		ldr	r1, [r4, #8]
 437 001a FFF7FEFF 		bl	chEvtSignalI
 438              	.LVL47:
 439              		.loc 1 187 0
 440 001e 2468     		ldr	r4, [r4]
 441              	.LVL48:
 442              		.loc 1 184 0
 443 0020 A542     		cmp	r5, r4
 444 0022 F5D1     		bne	.L29
 445              	.L25:
 446              		.loc 1 189 0
 447              		@ sp needed
 448              	.LVL49:
ARM GAS  /var/folders/qh/xwg3v3kj02qbxczjpdb8lzfr0000gn/T//ccTDBctj.s 			page 9


 449              	.LVL50:
 450              	.LVL51:
 451 0024 70BD     		pop	{r4, r5, r6, pc}
 452              		.cfi_endproc
 453              	.LFE11:
 454              		.size	chEvtBroadcastFlagsI, .-chEvtBroadcastFlagsI
 455 0026 C046C046 		.section	.text.chEvtSignal,"ax",%progbits
 455      C046C046 
 455      C046
 456              		.align	2
 457              		.p2align 4,,15
 458              		.global	chEvtSignal
 459              		.code	16
 460              		.thumb_func
 461              		.type	chEvtSignal, %function
 462              	chEvtSignal:
 463              	.LFB13:
 464              		.loc 1 222 0
 465              		.cfi_startproc
 466              	.LVL52:
 467 0000 38B5     		push	{r3, r4, r5, lr}
 468              		.cfi_def_cfa_offset 16
 469              		.cfi_offset 3, -16
 470              		.cfi_offset 4, -12
 471              		.cfi_offset 5, -8
 472              		.cfi_offset 14, -4
 473              		.loc 1 222 0
 474 0002 051C     		mov	r5, r0
 475 0004 0C1C     		mov	r4, r1
 476              		.loc 1 226 0
 477              	@ 226 "../../os/kernel/src/chevents.c" 1
 478 0006 72B6     		cpsid   i
 479              	@ 0 "" 2
 480              		.code	16
 481 0008 FFF7FEFF 		bl	dbg_check_lock
 482              	.LVL53:
 483              		.loc 1 227 0
 484 000c 281C     		mov	r0, r5
 485 000e 211C     		mov	r1, r4
 486 0010 FFF7FEFF 		bl	chEvtSignalI
 487              	.LVL54:
 488              		.loc 1 228 0
 489 0014 FFF7FEFF 		bl	chSchRescheduleS
 490              	.LVL55:
 491              		.loc 1 229 0
 492 0018 FFF7FEFF 		bl	dbg_check_unlock
 493              	.LVL56:
 494              	@ 229 "../../os/kernel/src/chevents.c" 1
 495 001c 62B6     		cpsie   i
 496              	@ 0 "" 2
 497              		.loc 1 230 0
 498              		.code	16
 499              		@ sp needed
 500              	.LVL57:
 501              	.LVL58:
 502 001e 38BD     		pop	{r3, r4, r5, pc}
 503              		.cfi_endproc
ARM GAS  /var/folders/qh/xwg3v3kj02qbxczjpdb8lzfr0000gn/T//ccTDBctj.s 			page 10


 504              	.LFE13:
 505              		.size	chEvtSignal, .-chEvtSignal
 506              		.section	.text.chEvtBroadcastFlags,"ax",%progbits
 507              		.align	2
 508              		.p2align 4,,15
 509              		.global	chEvtBroadcastFlags
 510              		.code	16
 511              		.thumb_func
 512              		.type	chEvtBroadcastFlags, %function
 513              	chEvtBroadcastFlags:
 514              	.LFB15:
 515              		.loc 1 271 0
 516              		.cfi_startproc
 517              	.LVL59:
 518 0000 38B5     		push	{r3, r4, r5, lr}
 519              		.cfi_def_cfa_offset 16
 520              		.cfi_offset 3, -16
 521              		.cfi_offset 4, -12
 522              		.cfi_offset 5, -8
 523              		.cfi_offset 14, -4
 524              		.loc 1 271 0
 525 0002 051C     		mov	r5, r0
 526 0004 0C1C     		mov	r4, r1
 527              		.loc 1 273 0
 528              	@ 273 "../../os/kernel/src/chevents.c" 1
 529 0006 72B6     		cpsid   i
 530              	@ 0 "" 2
 531              		.code	16
 532 0008 FFF7FEFF 		bl	dbg_check_lock
 533              	.LVL60:
 534              		.loc 1 274 0
 535 000c 281C     		mov	r0, r5
 536 000e 211C     		mov	r1, r4
 537 0010 FFF7FEFF 		bl	chEvtBroadcastFlagsI
 538              	.LVL61:
 539              		.loc 1 275 0
 540 0014 FFF7FEFF 		bl	chSchRescheduleS
 541              	.LVL62:
 542              		.loc 1 276 0
 543 0018 FFF7FEFF 		bl	dbg_check_unlock
 544              	.LVL63:
 545              	@ 276 "../../os/kernel/src/chevents.c" 1
 546 001c 62B6     		cpsie   i
 547              	@ 0 "" 2
 548              		.loc 1 277 0
 549              		.code	16
 550              		@ sp needed
 551              	.LVL64:
 552              	.LVL65:
 553 001e 38BD     		pop	{r3, r4, r5, pc}
 554              		.cfi_endproc
 555              	.LFE15:
 556              		.size	chEvtBroadcastFlags, .-chEvtBroadcastFlags
 557              		.section	.text.chEvtGetAndClearFlagsI,"ax",%progbits
 558              		.align	2
 559              		.p2align 4,,15
 560              		.global	chEvtGetAndClearFlagsI
ARM GAS  /var/folders/qh/xwg3v3kj02qbxczjpdb8lzfr0000gn/T//ccTDBctj.s 			page 11


 561              		.code	16
 562              		.thumb_func
 563              		.type	chEvtGetAndClearFlagsI, %function
 564              	chEvtGetAndClearFlagsI:
 565              	.LFB16:
 566              		.loc 1 290 0
 567              		.cfi_startproc
 568              	.LVL66:
 569              		.loc 1 290 0
 570 0000 031C     		mov	r3, r0
 571              		.loc 1 294 0
 572 0002 0022     		mov	r2, #0
 573              		.loc 1 293 0
 574 0004 C068     		ldr	r0, [r0, #12]
 575              	.LVL67:
 576              		.loc 1 297 0
 577              		@ sp needed
 578              		.loc 1 294 0
 579 0006 DA60     		str	r2, [r3, #12]
 580              		.loc 1 297 0
 581 0008 7047     		bx	lr
 582              		.cfi_endproc
 583              	.LFE16:
 584              		.size	chEvtGetAndClearFlagsI, .-chEvtGetAndClearFlagsI
 585 000a C046C046 		.section	.text.chEvtDispatch,"ax",%progbits
 585      C046
 586              		.align	2
 587              		.p2align 4,,15
 588              		.global	chEvtDispatch
 589              		.code	16
 590              		.thumb_func
 591              		.type	chEvtDispatch, %function
 592              	chEvtDispatch:
 593              	.LFB17:
 594              		.loc 1 308 0
 595              		.cfi_startproc
 596              	.LVL68:
 597 0000 F8B5     		push	{r3, r4, r5, r6, r7, lr}
 598              		.cfi_def_cfa_offset 24
 599              		.cfi_offset 3, -24
 600              		.cfi_offset 4, -20
 601              		.cfi_offset 5, -16
 602              		.cfi_offset 6, -12
 603              		.cfi_offset 7, -8
 604              		.cfi_offset 14, -4
 605              		.loc 1 308 0
 606 0002 0D1C     		mov	r5, r1
 607 0004 061C     		mov	r6, r0
 608              		.loc 1 313 0
 609 0006 0024     		mov	r4, #0
 610              		.loc 1 315 0
 611 0008 0127     		mov	r7, #1
 612              		.loc 1 314 0
 613 000a 0029     		cmp	r1, #0
 614 000c 04D1     		bne	.L44
 615 000e 0FE0     		b	.L33
 616              	.LVL69:
ARM GAS  /var/folders/qh/xwg3v3kj02qbxczjpdb8lzfr0000gn/T//ccTDBctj.s 			page 12


 617              	.L35:
 618              		.loc 1 322 0
 619 0010 0134     		add	r4, r4, #1
 620              	.LVL70:
 621 0012 0436     		add	r6, r6, #4
 622              		.loc 1 314 0
 623 0014 002D     		cmp	r5, #0
 624 0016 0BD0     		beq	.L33
 625              	.LVL71:
 626              	.L44:
 627              		.loc 1 315 0
 628 0018 3B1C     		mov	r3, r7
 629 001a A340     		lsl	r3, r3, r4
 630 001c 1D42     		tst	r5, r3
 631 001e F7D0     		beq	.L35
 632              		.loc 1 320 0
 633 0020 201C     		mov	r0, r4
 634              		.loc 1 319 0
 635 0022 9D43     		bic	r5, r3
 636              	.LVL72:
 637              		.loc 1 320 0
 638 0024 3368     		ldr	r3, [r6]
 639 0026 9847     		blx	r3
 640              	.LVL73:
 641              		.loc 1 322 0
 642 0028 0134     		add	r4, r4, #1
 643              	.LVL74:
 644 002a 0436     		add	r6, r6, #4
 645              		.loc 1 314 0
 646 002c 002D     		cmp	r5, #0
 647 002e F3D1     		bne	.L44
 648              	.LVL75:
 649              	.L33:
 650              		.loc 1 324 0
 651              		@ sp needed
 652              	.LVL76:
 653 0030 F8BD     		pop	{r3, r4, r5, r6, r7, pc}
 654              		.cfi_endproc
 655              	.LFE17:
 656              		.size	chEvtDispatch, .-chEvtDispatch
 657 0032 C046C046 		.section	.text.chEvtWaitOne,"ax",%progbits
 657      C046C046 
 657      C046C046 
 657      C046
 658              		.align	2
 659              		.p2align 4,,15
 660              		.global	chEvtWaitOne
 661              		.code	16
 662              		.thumb_func
 663              		.type	chEvtWaitOne, %function
 664              	chEvtWaitOne:
 665              	.LFB18:
 666              		.loc 1 343 0
 667              		.cfi_startproc
 668              	.LVL77:
 669 0000 38B5     		push	{r3, r4, r5, lr}
 670              		.cfi_def_cfa_offset 16
ARM GAS  /var/folders/qh/xwg3v3kj02qbxczjpdb8lzfr0000gn/T//ccTDBctj.s 			page 13


 671              		.cfi_offset 3, -16
 672              		.cfi_offset 4, -12
 673              		.cfi_offset 5, -8
 674              		.cfi_offset 14, -4
 675              		.loc 1 344 0
 676 0002 0D4B     		ldr	r3, .L47
 677              		.loc 1 343 0
 678 0004 051C     		mov	r5, r0
 679              		.loc 1 344 0
 680 0006 9C69     		ldr	r4, [r3, #24]
 681              	.LVL78:
 682              		.loc 1 347 0
 683              	@ 347 "../../os/kernel/src/chevents.c" 1
 684 0008 72B6     		cpsid   i
 685              	@ 0 "" 2
 686              		.code	16
 687 000a FFF7FEFF 		bl	dbg_check_lock
 688              	.LVL79:
 689              		.loc 1 349 0
 690 000e A26B     		ldr	r2, [r4, #56]
 691 0010 131C     		mov	r3, r2
 692 0012 2B40     		and	r3, r5
 693              	.LVL80:
 694 0014 06D1     		bne	.L46
 695              		.loc 1 350 0
 696 0016 6562     		str	r5, [r4, #36]
 697              		.loc 1 351 0
 698 0018 0820     		mov	r0, #8
 699 001a FFF7FEFF 		bl	chSchGoSleepS
 700              	.LVL81:
 701              		.loc 1 352 0
 702 001e A26B     		ldr	r2, [r4, #56]
 703 0020 131C     		mov	r3, r2
 704 0022 2B40     		and	r3, r5
 705              	.LVL82:
 706              	.L46:
 707              		.loc 1 354 0
 708 0024 5D42     		neg	r5, r3
 709              	.LVL83:
 710 0026 1D40     		and	r5, r3
 711              	.LVL84:
 712              		.loc 1 355 0
 713 0028 AA43     		bic	r2, r5
 714 002a A263     		str	r2, [r4, #56]
 715              		.loc 1 357 0
 716 002c FFF7FEFF 		bl	dbg_check_unlock
 717              	.LVL85:
 718              	@ 357 "../../os/kernel/src/chevents.c" 1
 719 0030 62B6     		cpsie   i
 720              	@ 0 "" 2
 721              		.loc 1 359 0
 722              		.code	16
 723 0032 281C     		mov	r0, r5
 724              		@ sp needed
 725              	.LVL86:
 726              	.LVL87:
 727 0034 38BD     		pop	{r3, r4, r5, pc}
ARM GAS  /var/folders/qh/xwg3v3kj02qbxczjpdb8lzfr0000gn/T//ccTDBctj.s 			page 14


 728              	.L48:
 729 0036 C046     		.align	2
 730              	.L47:
 731 0038 00000000 		.word	rlist
 732              		.cfi_endproc
 733              	.LFE18:
 734              		.size	chEvtWaitOne, .-chEvtWaitOne
 735 003c C046C046 		.section	.text.chEvtWaitAny,"ax",%progbits
 736              		.align	2
 737              		.p2align 4,,15
 738              		.global	chEvtWaitAny
 739              		.code	16
 740              		.thumb_func
 741              		.type	chEvtWaitAny, %function
 742              	chEvtWaitAny:
 743              	.LFB19:
 744              		.loc 1 372 0
 745              		.cfi_startproc
 746              	.LVL88:
 747              		.loc 1 373 0
 748 0000 0C4B     		ldr	r3, .L51
 749              		.loc 1 372 0
 750 0002 70B5     		push	{r4, r5, r6, lr}
 751              		.cfi_def_cfa_offset 16
 752              		.cfi_offset 4, -16
 753              		.cfi_offset 5, -12
 754              		.cfi_offset 6, -8
 755              		.cfi_offset 14, -4
 756              		.loc 1 372 0
 757 0004 061C     		mov	r6, r0
 758              		.loc 1 373 0
 759 0006 9D69     		ldr	r5, [r3, #24]
 760              	.LVL89:
 761              		.loc 1 376 0
 762              	@ 376 "../../os/kernel/src/chevents.c" 1
 763 0008 72B6     		cpsid   i
 764              	@ 0 "" 2
 765              		.code	16
 766 000a FFF7FEFF 		bl	dbg_check_lock
 767              	.LVL90:
 768              		.loc 1 378 0
 769 000e AB6B     		ldr	r3, [r5, #56]
 770 0010 1C1C     		mov	r4, r3
 771 0012 3440     		and	r4, r6
 772              	.LVL91:
 773 0014 06D1     		bne	.L50
 774              		.loc 1 379 0
 775 0016 6E62     		str	r6, [r5, #36]
 776              		.loc 1 380 0
 777 0018 0820     		mov	r0, #8
 778 001a FFF7FEFF 		bl	chSchGoSleepS
 779              	.LVL92:
 780              		.loc 1 381 0
 781 001e AB6B     		ldr	r3, [r5, #56]
 782 0020 1C1C     		mov	r4, r3
 783              	.LVL93:
 784 0022 3440     		and	r4, r6
ARM GAS  /var/folders/qh/xwg3v3kj02qbxczjpdb8lzfr0000gn/T//ccTDBctj.s 			page 15


 785              	.LVL94:
 786              	.L50:
 787              		.loc 1 383 0
 788 0024 A343     		bic	r3, r4
 789 0026 AB63     		str	r3, [r5, #56]
 790              		.loc 1 385 0
 791 0028 FFF7FEFF 		bl	dbg_check_unlock
 792              	.LVL95:
 793              	@ 385 "../../os/kernel/src/chevents.c" 1
 794 002c 62B6     		cpsie   i
 795              	@ 0 "" 2
 796              		.loc 1 387 0
 797              		.code	16
 798 002e 201C     		mov	r0, r4
 799              		@ sp needed
 800              	.LVL96:
 801              	.LVL97:
 802              	.LVL98:
 803 0030 70BD     		pop	{r4, r5, r6, pc}
 804              	.L52:
 805 0032 C046     		.align	2
 806              	.L51:
 807 0034 00000000 		.word	rlist
 808              		.cfi_endproc
 809              	.LFE19:
 810              		.size	chEvtWaitAny, .-chEvtWaitAny
 811 0038 C046C046 		.section	.text.chEvtWaitAll,"ax",%progbits
 811      C046C046 
 812              		.align	2
 813              		.p2align 4,,15
 814              		.global	chEvtWaitAll
 815              		.code	16
 816              		.thumb_func
 817              		.type	chEvtWaitAll, %function
 818              	chEvtWaitAll:
 819              	.LFB20:
 820              		.loc 1 400 0
 821              		.cfi_startproc
 822              	.LVL99:
 823 0000 38B5     		push	{r3, r4, r5, lr}
 824              		.cfi_def_cfa_offset 16
 825              		.cfi_offset 3, -16
 826              		.cfi_offset 4, -12
 827              		.cfi_offset 5, -8
 828              		.cfi_offset 14, -4
 829              		.loc 1 401 0
 830 0002 0B4B     		ldr	r3, .L55
 831              		.loc 1 400 0
 832 0004 041C     		mov	r4, r0
 833              		.loc 1 401 0
 834 0006 9D69     		ldr	r5, [r3, #24]
 835              	.LVL100:
 836              		.loc 1 403 0
 837              	@ 403 "../../os/kernel/src/chevents.c" 1
 838 0008 72B6     		cpsid   i
 839              	@ 0 "" 2
 840              		.code	16
ARM GAS  /var/folders/qh/xwg3v3kj02qbxczjpdb8lzfr0000gn/T//ccTDBctj.s 			page 16


 841 000a FFF7FEFF 		bl	dbg_check_lock
 842              	.LVL101:
 843              		.loc 1 405 0
 844 000e AB6B     		ldr	r3, [r5, #56]
 845 0010 1A1C     		mov	r2, r3
 846 0012 2240     		and	r2, r4
 847 0014 A242     		cmp	r2, r4
 848 0016 04D0     		beq	.L54
 849              		.loc 1 406 0
 850 0018 6C62     		str	r4, [r5, #36]
 851              		.loc 1 407 0
 852 001a 0920     		mov	r0, #9
 853 001c FFF7FEFF 		bl	chSchGoSleepS
 854              	.LVL102:
 855 0020 AB6B     		ldr	r3, [r5, #56]
 856              	.L54:
 857              		.loc 1 409 0
 858 0022 A343     		bic	r3, r4
 859 0024 AB63     		str	r3, [r5, #56]
 860              		.loc 1 411 0
 861 0026 FFF7FEFF 		bl	dbg_check_unlock
 862              	.LVL103:
 863              	@ 411 "../../os/kernel/src/chevents.c" 1
 864 002a 62B6     		cpsie   i
 865              	@ 0 "" 2
 866              		.loc 1 413 0
 867              		.code	16
 868 002c 201C     		mov	r0, r4
 869              		@ sp needed
 870              	.LVL104:
 871              	.LVL105:
 872 002e 38BD     		pop	{r3, r4, r5, pc}
 873              	.L56:
 874              		.align	2
 875              	.L55:
 876 0030 00000000 		.word	rlist
 877              		.cfi_endproc
 878              	.LFE20:
 879              		.size	chEvtWaitAll, .-chEvtWaitAll
 880 0034 C046C046 		.section	.text.chEvtWaitOneTimeout,"ax",%progbits
 880      C046C046 
 880      C046C046 
 881              		.align	2
 882              		.p2align 4,,15
 883              		.global	chEvtWaitOneTimeout
 884              		.code	16
 885              		.thumb_func
 886              		.type	chEvtWaitOneTimeout, %function
 887              	chEvtWaitOneTimeout:
 888              	.LFB21:
 889              		.loc 1 439 0
 890              		.cfi_startproc
 891              	.LVL106:
 892              		.loc 1 440 0
 893 0000 124B     		ldr	r3, .L63
 894              		.loc 1 439 0
 895 0002 70B5     		push	{r4, r5, r6, lr}
ARM GAS  /var/folders/qh/xwg3v3kj02qbxczjpdb8lzfr0000gn/T//ccTDBctj.s 			page 17


 896              		.cfi_def_cfa_offset 16
 897              		.cfi_offset 4, -16
 898              		.cfi_offset 5, -12
 899              		.cfi_offset 6, -8
 900              		.cfi_offset 14, -4
 901              		.loc 1 439 0
 902 0004 051C     		mov	r5, r0
 903 0006 0E1C     		mov	r6, r1
 904              		.loc 1 440 0
 905 0008 9C69     		ldr	r4, [r3, #24]
 906              	.LVL107:
 907              		.loc 1 443 0
 908              	@ 443 "../../os/kernel/src/chevents.c" 1
 909 000a 72B6     		cpsid   i
 910              	@ 0 "" 2
 911              		.code	16
 912 000c FFF7FEFF 		bl	dbg_check_lock
 913              	.LVL108:
 914              		.loc 1 445 0
 915 0010 A26B     		ldr	r2, [r4, #56]
 916 0012 131C     		mov	r3, r2
 917 0014 2B40     		and	r3, r5
 918              	.LVL109:
 919 0016 0BD1     		bne	.L58
 920              		.loc 1 446 0
 921 0018 002E     		cmp	r6, #0
 922 001a 12D0     		beq	.L62
 923              		.loc 1 450 0
 924 001c 6562     		str	r5, [r4, #36]
 925              		.loc 1 451 0
 926 001e 0820     		mov	r0, #8
 927 0020 311C     		mov	r1, r6
 928 0022 FFF7FEFF 		bl	chSchGoSleepTimeoutS
 929              	.LVL110:
 930 0026 0028     		cmp	r0, #0
 931 0028 0BDB     		blt	.L62
 932              		.loc 1 455 0
 933 002a A26B     		ldr	r2, [r4, #56]
 934 002c 131C     		mov	r3, r2
 935 002e 2B40     		and	r3, r5
 936              	.LVL111:
 937              	.L58:
 938              		.loc 1 457 0
 939 0030 5D42     		neg	r5, r3
 940              	.LVL112:
 941 0032 1D40     		and	r5, r3
 942              	.LVL113:
 943              		.loc 1 458 0
 944 0034 AA43     		bic	r2, r5
 945 0036 A263     		str	r2, [r4, #56]
 946              		.loc 1 460 0
 947 0038 FFF7FEFF 		bl	dbg_check_unlock
 948              	.LVL114:
 949              	@ 460 "../../os/kernel/src/chevents.c" 1
 950 003c 62B6     		cpsie   i
 951              	@ 0 "" 2
 952              		.loc 1 461 0
ARM GAS  /var/folders/qh/xwg3v3kj02qbxczjpdb8lzfr0000gn/T//ccTDBctj.s 			page 18


 953              		.code	16
 954 003e 281C     		mov	r0, r5
 955              	.LVL115:
 956              	.L60:
 957              		.loc 1 462 0
 958              		@ sp needed
 959              	.LVL116:
 960              	.LVL117:
 961 0040 70BD     		pop	{r4, r5, r6, pc}
 962              	.LVL118:
 963              	.L62:
 964              		.loc 1 452 0
 965 0042 FFF7FEFF 		bl	dbg_check_unlock
 966              	.LVL119:
 967              	@ 452 "../../os/kernel/src/chevents.c" 1
 968 0046 62B6     		cpsie   i
 969              	@ 0 "" 2
 970              		.loc 1 453 0
 971              		.code	16
 972 0048 0020     		mov	r0, #0
 973 004a F9E7     		b	.L60
 974              	.L64:
 975              		.align	2
 976              	.L63:
 977 004c 00000000 		.word	rlist
 978              		.cfi_endproc
 979              	.LFE21:
 980              		.size	chEvtWaitOneTimeout, .-chEvtWaitOneTimeout
 981              		.section	.text.chEvtWaitAnyTimeout,"ax",%progbits
 982              		.align	2
 983              		.p2align 4,,15
 984              		.global	chEvtWaitAnyTimeout
 985              		.code	16
 986              		.thumb_func
 987              		.type	chEvtWaitAnyTimeout, %function
 988              	chEvtWaitAnyTimeout:
 989              	.LFB22:
 990              		.loc 1 482 0
 991              		.cfi_startproc
 992              	.LVL120:
 993 0000 F8B5     		push	{r3, r4, r5, r6, r7, lr}
 994              		.cfi_def_cfa_offset 24
 995              		.cfi_offset 3, -24
 996              		.cfi_offset 4, -20
 997              		.cfi_offset 5, -16
 998              		.cfi_offset 6, -12
 999              		.cfi_offset 7, -8
 1000              		.cfi_offset 14, -4
 1001              		.loc 1 483 0
 1002 0002 114B     		ldr	r3, .L71
 1003              		.loc 1 482 0
 1004 0004 061C     		mov	r6, r0
 1005 0006 0F1C     		mov	r7, r1
 1006              		.loc 1 483 0
 1007 0008 9D69     		ldr	r5, [r3, #24]
 1008              	.LVL121:
 1009              		.loc 1 486 0
ARM GAS  /var/folders/qh/xwg3v3kj02qbxczjpdb8lzfr0000gn/T//ccTDBctj.s 			page 19


 1010              	@ 486 "../../os/kernel/src/chevents.c" 1
 1011 000a 72B6     		cpsid   i
 1012              	@ 0 "" 2
 1013              		.code	16
 1014 000c FFF7FEFF 		bl	dbg_check_lock
 1015              	.LVL122:
 1016              		.loc 1 488 0
 1017 0010 AB6B     		ldr	r3, [r5, #56]
 1018 0012 1C1C     		mov	r4, r3
 1019 0014 3440     		and	r4, r6
 1020              	.LVL123:
 1021 0016 0BD1     		bne	.L66
 1022              		.loc 1 489 0
 1023 0018 002F     		cmp	r7, #0
 1024 001a 10D0     		beq	.L70
 1025              		.loc 1 493 0
 1026 001c 6E62     		str	r6, [r5, #36]
 1027              		.loc 1 494 0
 1028 001e 0820     		mov	r0, #8
 1029 0020 391C     		mov	r1, r7
 1030 0022 FFF7FEFF 		bl	chSchGoSleepTimeoutS
 1031              	.LVL124:
 1032 0026 0028     		cmp	r0, #0
 1033 0028 09DB     		blt	.L70
 1034              		.loc 1 498 0
 1035 002a AB6B     		ldr	r3, [r5, #56]
 1036 002c 1C1C     		mov	r4, r3
 1037              	.LVL125:
 1038 002e 3440     		and	r4, r6
 1039              	.LVL126:
 1040              	.L66:
 1041              		.loc 1 500 0
 1042 0030 A343     		bic	r3, r4
 1043 0032 AB63     		str	r3, [r5, #56]
 1044              		.loc 1 502 0
 1045 0034 FFF7FEFF 		bl	dbg_check_unlock
 1046              	.LVL127:
 1047              	@ 502 "../../os/kernel/src/chevents.c" 1
 1048 0038 62B6     		cpsie   i
 1049              	@ 0 "" 2
 1050              		.loc 1 503 0
 1051              		.code	16
 1052 003a 201C     		mov	r0, r4
 1053              	.L68:
 1054              		.loc 1 504 0
 1055              		@ sp needed
 1056              	.LVL128:
 1057              	.LVL129:
 1058              	.LVL130:
 1059              	.LVL131:
 1060 003c F8BD     		pop	{r3, r4, r5, r6, r7, pc}
 1061              	.LVL132:
 1062              	.L70:
 1063              		.loc 1 495 0
 1064 003e FFF7FEFF 		bl	dbg_check_unlock
 1065              	.LVL133:
 1066              	@ 495 "../../os/kernel/src/chevents.c" 1
ARM GAS  /var/folders/qh/xwg3v3kj02qbxczjpdb8lzfr0000gn/T//ccTDBctj.s 			page 20


 1067 0042 62B6     		cpsie   i
 1068              	@ 0 "" 2
 1069              		.loc 1 496 0
 1070              		.code	16
 1071 0044 0020     		mov	r0, #0
 1072 0046 F9E7     		b	.L68
 1073              	.L72:
 1074              		.align	2
 1075              	.L71:
 1076 0048 00000000 		.word	rlist
 1077              		.cfi_endproc
 1078              	.LFE22:
 1079              		.size	chEvtWaitAnyTimeout, .-chEvtWaitAnyTimeout
 1080 004c C046C046 		.section	.text.chEvtWaitAllTimeout,"ax",%progbits
 1081              		.align	2
 1082              		.p2align 4,,15
 1083              		.global	chEvtWaitAllTimeout
 1084              		.code	16
 1085              		.thumb_func
 1086              		.type	chEvtWaitAllTimeout, %function
 1087              	chEvtWaitAllTimeout:
 1088              	.LFB23:
 1089              		.loc 1 523 0
 1090              		.cfi_startproc
 1091              	.LVL134:
 1092              		.loc 1 524 0
 1093 0000 114B     		ldr	r3, .L78
 1094              		.loc 1 523 0
 1095 0002 70B5     		push	{r4, r5, r6, lr}
 1096              		.cfi_def_cfa_offset 16
 1097              		.cfi_offset 4, -16
 1098              		.cfi_offset 5, -12
 1099              		.cfi_offset 6, -8
 1100              		.cfi_offset 14, -4
 1101              		.loc 1 523 0
 1102 0004 041C     		mov	r4, r0
 1103 0006 0E1C     		mov	r6, r1
 1104              		.loc 1 524 0
 1105 0008 9D69     		ldr	r5, [r3, #24]
 1106              	.LVL135:
 1107              		.loc 1 526 0
 1108              	@ 526 "../../os/kernel/src/chevents.c" 1
 1109 000a 72B6     		cpsid   i
 1110              	@ 0 "" 2
 1111              		.code	16
 1112 000c FFF7FEFF 		bl	dbg_check_lock
 1113              	.LVL136:
 1114              		.loc 1 528 0
 1115 0010 AB6B     		ldr	r3, [r5, #56]
 1116 0012 1A1C     		mov	r2, r3
 1117 0014 2240     		and	r2, r4
 1118 0016 A242     		cmp	r2, r4
 1119 0018 09D0     		beq	.L74
 1120              		.loc 1 529 0
 1121 001a 002E     		cmp	r6, #0
 1122 001c 0ED0     		beq	.L77
 1123              		.loc 1 533 0
ARM GAS  /var/folders/qh/xwg3v3kj02qbxczjpdb8lzfr0000gn/T//ccTDBctj.s 			page 21


 1124 001e 6C62     		str	r4, [r5, #36]
 1125              		.loc 1 534 0
 1126 0020 0920     		mov	r0, #9
 1127 0022 311C     		mov	r1, r6
 1128 0024 FFF7FEFF 		bl	chSchGoSleepTimeoutS
 1129              	.LVL137:
 1130 0028 0028     		cmp	r0, #0
 1131 002a 07DB     		blt	.L77
 1132 002c AB6B     		ldr	r3, [r5, #56]
 1133              	.L74:
 1134              		.loc 1 539 0
 1135 002e A343     		bic	r3, r4
 1136 0030 AB63     		str	r3, [r5, #56]
 1137              		.loc 1 541 0
 1138 0032 FFF7FEFF 		bl	dbg_check_unlock
 1139              	.LVL138:
 1140              	@ 541 "../../os/kernel/src/chevents.c" 1
 1141 0036 62B6     		cpsie   i
 1142              	@ 0 "" 2
 1143              		.loc 1 542 0
 1144              		.code	16
 1145 0038 201C     		mov	r0, r4
 1146              	.L76:
 1147              		.loc 1 543 0
 1148              		@ sp needed
 1149              	.LVL139:
 1150              	.LVL140:
 1151              	.LVL141:
 1152 003a 70BD     		pop	{r4, r5, r6, pc}
 1153              	.LVL142:
 1154              	.L77:
 1155              		.loc 1 535 0
 1156 003c FFF7FEFF 		bl	dbg_check_unlock
 1157              	.LVL143:
 1158              	@ 535 "../../os/kernel/src/chevents.c" 1
 1159 0040 62B6     		cpsie   i
 1160              	@ 0 "" 2
 1161              		.loc 1 536 0
 1162              		.code	16
 1163 0042 0020     		mov	r0, #0
 1164 0044 F9E7     		b	.L76
 1165              	.L79:
 1166 0046 C046     		.align	2
 1167              	.L78:
 1168 0048 00000000 		.word	rlist
 1169              		.cfi_endproc
 1170              	.LFE23:
 1171              		.size	chEvtWaitAllTimeout, .-chEvtWaitAllTimeout
 1172 004c C046C046 		.text
 1173              	.Letext0:
 1174              		.file 2 "/usr/local/Cellar/gcc-arm-none-eabi-48/20131218/arm-none-eabi/include/stdint.h"
 1175              		.file 3 "../../os/ports/GCC/ARMCMx/chtypes.h"
 1176              		.file 4 "../../os/kernel/include/chlists.h"
 1177              		.file 5 "../../os/kernel/include/chthreads.h"
 1178              		.file 6 "../../os/ports/GCC/ARMCMx/chcore_v6m.h"
 1179              		.file 7 "../../os/kernel/include/chschd.h"
 1180              		.file 8 "../../os/kernel/include/chmtx.h"
ARM GAS  /var/folders/qh/xwg3v3kj02qbxczjpdb8lzfr0000gn/T//ccTDBctj.s 			page 22


 1181              		.file 9 "../../os/kernel/include/chevents.h"
 1182              		.file 10 "../../os/kernel/include/chdebug.h"
 1183              		.section	.debug_info,"",%progbits
 1184              	.Ldebug_info0:
 1185 0000 7F0B0000 		.4byte	0xb7f
 1186 0004 0400     		.2byte	0x4
 1187 0006 00000000 		.4byte	.Ldebug_abbrev0
 1188 000a 04       		.byte	0x4
 1189 000b 01       		.uleb128 0x1
 1190 000c 72020000 		.4byte	.LASF100
 1191 0010 01       		.byte	0x1
 1192 0011 F3040000 		.4byte	.LASF101
 1193 0015 9E010000 		.4byte	.LASF102
 1194 0019 18000000 		.4byte	.Ldebug_ranges0+0x18
 1195 001d 00000000 		.4byte	0
 1196 0021 00000000 		.4byte	.Ldebug_line0
 1197 0025 02       		.uleb128 0x2
 1198 0026 04       		.byte	0x4
 1199 0027 05       		.byte	0x5
 1200 0028 696E7400 		.ascii	"int\000"
 1201 002c 03       		.uleb128 0x3
 1202 002d 04       		.byte	0x4
 1203 002e 07       		.byte	0x7
 1204 002f 68010000 		.4byte	.LASF0
 1205 0033 03       		.uleb128 0x3
 1206 0034 01       		.byte	0x1
 1207 0035 06       		.byte	0x6
 1208 0036 80000000 		.4byte	.LASF1
 1209 003a 04       		.uleb128 0x4
 1210 003b E5040000 		.4byte	.LASF5
 1211 003f 02       		.byte	0x2
 1212 0040 2A       		.byte	0x2a
 1213 0041 45000000 		.4byte	0x45
 1214 0045 03       		.uleb128 0x3
 1215 0046 01       		.byte	0x1
 1216 0047 08       		.byte	0x8
 1217 0048 C1030000 		.4byte	.LASF2
 1218 004c 03       		.uleb128 0x3
 1219 004d 02       		.byte	0x2
 1220 004e 05       		.byte	0x5
 1221 004f FB030000 		.4byte	.LASF3
 1222 0053 03       		.uleb128 0x3
 1223 0054 02       		.byte	0x2
 1224 0055 07       		.byte	0x7
 1225 0056 E1010000 		.4byte	.LASF4
 1226 005a 04       		.uleb128 0x4
 1227 005b B9030000 		.4byte	.LASF6
 1228 005f 02       		.byte	0x2
 1229 0060 4F       		.byte	0x4f
 1230 0061 65000000 		.4byte	0x65
 1231 0065 03       		.uleb128 0x3
 1232 0066 04       		.byte	0x4
 1233 0067 05       		.byte	0x5
 1234 0068 BA000000 		.4byte	.LASF7
 1235 006c 04       		.uleb128 0x4
 1236 006d 6B040000 		.4byte	.LASF8
 1237 0071 02       		.byte	0x2
ARM GAS  /var/folders/qh/xwg3v3kj02qbxczjpdb8lzfr0000gn/T//ccTDBctj.s 			page 23


 1238 0072 50       		.byte	0x50
 1239 0073 77000000 		.4byte	0x77
 1240 0077 03       		.uleb128 0x3
 1241 0078 04       		.byte	0x4
 1242 0079 07       		.byte	0x7
 1243 007a 75010000 		.4byte	.LASF9
 1244 007e 03       		.uleb128 0x3
 1245 007f 08       		.byte	0x8
 1246 0080 05       		.byte	0x5
 1247 0081 72000000 		.4byte	.LASF10
 1248 0085 03       		.uleb128 0x3
 1249 0086 08       		.byte	0x8
 1250 0087 07       		.byte	0x7
 1251 0088 28000000 		.4byte	.LASF11
 1252 008c 03       		.uleb128 0x3
 1253 008d 01       		.byte	0x1
 1254 008e 02       		.byte	0x2
 1255 008f B3030000 		.4byte	.LASF12
 1256 0093 04       		.uleb128 0x4
 1257 0094 24020000 		.4byte	.LASF13
 1258 0098 03       		.byte	0x3
 1259 0099 25       		.byte	0x25
 1260 009a 3A000000 		.4byte	0x3a
 1261 009e 04       		.uleb128 0x4
 1262 009f C3000000 		.4byte	.LASF14
 1263 00a3 03       		.byte	0x3
 1264 00a4 26       		.byte	0x26
 1265 00a5 3A000000 		.4byte	0x3a
 1266 00a9 04       		.uleb128 0x4
 1267 00aa 9C030000 		.4byte	.LASF15
 1268 00ae 03       		.byte	0x3
 1269 00af 27       		.byte	0x27
 1270 00b0 3A000000 		.4byte	0x3a
 1271 00b4 04       		.uleb128 0x4
 1272 00b5 B0000000 		.4byte	.LASF16
 1273 00b9 03       		.byte	0x3
 1274 00ba 28       		.byte	0x28
 1275 00bb 3A000000 		.4byte	0x3a
 1276 00bf 04       		.uleb128 0x4
 1277 00c0 AB030000 		.4byte	.LASF17
 1278 00c4 03       		.byte	0x3
 1279 00c5 29       		.byte	0x29
 1280 00c6 6C000000 		.4byte	0x6c
 1281 00ca 04       		.uleb128 0x4
 1282 00cb 06020000 		.4byte	.LASF18
 1283 00cf 03       		.byte	0x3
 1284 00d0 2A       		.byte	0x2a
 1285 00d1 5A000000 		.4byte	0x5a
 1286 00d5 04       		.uleb128 0x4
 1287 00d6 46010000 		.4byte	.LASF19
 1288 00da 03       		.byte	0x3
 1289 00db 2B       		.byte	0x2b
 1290 00dc 5A000000 		.4byte	0x5a
 1291 00e0 04       		.uleb128 0x4
 1292 00e1 38020000 		.4byte	.LASF20
 1293 00e5 03       		.byte	0x3
 1294 00e6 2C       		.byte	0x2c
ARM GAS  /var/folders/qh/xwg3v3kj02qbxczjpdb8lzfr0000gn/T//ccTDBctj.s 			page 24


 1295 00e7 6C000000 		.4byte	0x6c
 1296 00eb 04       		.uleb128 0x4
 1297 00ec C2040000 		.4byte	.LASF21
 1298 00f0 03       		.byte	0x3
 1299 00f1 2D       		.byte	0x2d
 1300 00f2 6C000000 		.4byte	0x6c
 1301 00f6 04       		.uleb128 0x4
 1302 00f7 94040000 		.4byte	.LASF22
 1303 00fb 03       		.byte	0x3
 1304 00fc 2E       		.byte	0x2e
 1305 00fd 6C000000 		.4byte	0x6c
 1306 0101 04       		.uleb128 0x4
 1307 0102 4B040000 		.4byte	.LASF23
 1308 0106 04       		.byte	0x4
 1309 0107 23       		.byte	0x23
 1310 0108 0C010000 		.4byte	0x10c
 1311 010c 05       		.uleb128 0x5
 1312 010d 4B040000 		.4byte	.LASF23
 1313 0111 48       		.byte	0x48
 1314 0112 05       		.byte	0x5
 1315 0113 57       		.byte	0x57
 1316 0114 09020000 		.4byte	0x209
 1317 0118 06       		.uleb128 0x6
 1318 0119 3C040000 		.4byte	.LASF24
 1319 011d 05       		.byte	0x5
 1320 011e 58       		.byte	0x58
 1321 011f 2A020000 		.4byte	0x22a
 1322 0123 00       		.byte	0
 1323 0124 06       		.uleb128 0x6
 1324 0125 A4030000 		.4byte	.LASF25
 1325 0129 05       		.byte	0x5
 1326 012a 5A       		.byte	0x5a
 1327 012b 2A020000 		.4byte	0x22a
 1328 012f 04       		.byte	0x4
 1329 0130 06       		.uleb128 0x6
 1330 0131 6B000000 		.4byte	.LASF26
 1331 0135 05       		.byte	0x5
 1332 0136 5C       		.byte	0x5c
 1333 0137 BF000000 		.4byte	0xbf
 1334 013b 08       		.byte	0x8
 1335 013c 06       		.uleb128 0x6
 1336 013d 79050000 		.4byte	.LASF27
 1337 0141 05       		.byte	0x5
 1338 0142 5D       		.byte	0x5d
 1339 0143 DA020000 		.4byte	0x2da
 1340 0147 0C       		.byte	0xc
 1341 0148 06       		.uleb128 0x6
 1342 0149 03010000 		.4byte	.LASF28
 1343 014d 05       		.byte	0x5
 1344 014e 5F       		.byte	0x5f
 1345 014f 2A020000 		.4byte	0x22a
 1346 0153 10       		.byte	0x10
 1347 0154 06       		.uleb128 0x6
 1348 0155 4C030000 		.4byte	.LASF29
 1349 0159 05       		.byte	0x5
 1350 015a 60       		.byte	0x60
 1351 015b 2A020000 		.4byte	0x22a
ARM GAS  /var/folders/qh/xwg3v3kj02qbxczjpdb8lzfr0000gn/T//ccTDBctj.s 			page 25


 1352 015f 14       		.byte	0x14
 1353 0160 06       		.uleb128 0x6
 1354 0161 3B050000 		.4byte	.LASF30
 1355 0165 05       		.byte	0x5
 1356 0166 67       		.byte	0x67
 1357 0167 66040000 		.4byte	0x466
 1358 016b 18       		.byte	0x18
 1359 016c 06       		.uleb128 0x6
 1360 016d 05040000 		.4byte	.LASF31
 1361 0171 05       		.byte	0x5
 1362 0172 72       		.byte	0x72
 1363 0173 9E000000 		.4byte	0x9e
 1364 0177 1C       		.byte	0x1c
 1365 0178 06       		.uleb128 0x6
 1366 0179 43040000 		.4byte	.LASF32
 1367 017d 05       		.byte	0x5
 1368 017e 76       		.byte	0x76
 1369 017f 93000000 		.4byte	0x93
 1370 0183 1D       		.byte	0x1d
 1371 0184 06       		.uleb128 0x6
 1372 0185 CE040000 		.4byte	.LASF33
 1373 0189 05       		.byte	0x5
 1374 018a 7B       		.byte	0x7b
 1375 018b A9000000 		.4byte	0xa9
 1376 018f 1E       		.byte	0x1e
 1377 0190 06       		.uleb128 0x6
 1378 0191 0D040000 		.4byte	.LASF34
 1379 0195 05       		.byte	0x5
 1380 0196 81       		.byte	0x81
 1381 0197 B4000000 		.4byte	0xb4
 1382 019b 1F       		.byte	0x1f
 1383 019c 06       		.uleb128 0x6
 1384 019d A9040000 		.4byte	.LASF35
 1385 01a1 05       		.byte	0x5
 1386 01a2 88       		.byte	0x88
 1387 01a3 00030000 		.4byte	0x300
 1388 01a7 20       		.byte	0x20
 1389 01a8 07       		.uleb128 0x7
 1390 01a9 705F7500 		.ascii	"p_u\000"
 1391 01ad 05       		.byte	0x5
 1392 01ae AD       		.byte	0xad
 1393 01af 31040000 		.4byte	0x431
 1394 01b3 24       		.byte	0x24
 1395 01b4 06       		.uleb128 0x6
 1396 01b5 7F050000 		.4byte	.LASF36
 1397 01b9 05       		.byte	0x5
 1398 01ba B2       		.byte	0xb2
 1399 01bb 50020000 		.4byte	0x250
 1400 01bf 28       		.byte	0x28
 1401 01c0 06       		.uleb128 0x6
 1402 01c1 B7040000 		.4byte	.LASF37
 1403 01c5 05       		.byte	0x5
 1404 01c6 B8       		.byte	0xb8
 1405 01c7 30020000 		.4byte	0x230
 1406 01cb 2C       		.byte	0x2c
 1407 01cc 06       		.uleb128 0x6
 1408 01cd 00000000 		.4byte	.LASF38
ARM GAS  /var/folders/qh/xwg3v3kj02qbxczjpdb8lzfr0000gn/T//ccTDBctj.s 			page 26


 1409 01d1 05       		.byte	0x5
 1410 01d2 BC       		.byte	0xbc
 1411 01d3 CA000000 		.4byte	0xca
 1412 01d7 34       		.byte	0x34
 1413 01d8 06       		.uleb128 0x6
 1414 01d9 60040000 		.4byte	.LASF39
 1415 01dd 05       		.byte	0x5
 1416 01de C2       		.byte	0xc2
 1417 01df E0000000 		.4byte	0xe0
 1418 01e3 38       		.byte	0x38
 1419 01e4 06       		.uleb128 0x6
 1420 01e5 F1030000 		.4byte	.LASF40
 1421 01e9 05       		.byte	0x5
 1422 01ea C9       		.byte	0xc9
 1423 01eb 78040000 		.4byte	0x478
 1424 01ef 3C       		.byte	0x3c
 1425 01f0 06       		.uleb128 0x6
 1426 01f1 9E040000 		.4byte	.LASF41
 1427 01f5 05       		.byte	0x5
 1428 01f6 CD       		.byte	0xcd
 1429 01f7 BF000000 		.4byte	0xbf
 1430 01fb 40       		.byte	0x40
 1431 01fc 06       		.uleb128 0x6
 1432 01fd A0000000 		.4byte	.LASF42
 1433 0201 05       		.byte	0x5
 1434 0202 D3       		.byte	0xd3
 1435 0203 66020000 		.4byte	0x266
 1436 0207 44       		.byte	0x44
 1437 0208 00       		.byte	0
 1438 0209 08       		.uleb128 0x8
 1439 020a 08       		.byte	0x8
 1440 020b 04       		.byte	0x4
 1441 020c 5A       		.byte	0x5a
 1442 020d 2A020000 		.4byte	0x22a
 1443 0211 06       		.uleb128 0x6
 1444 0212 3C040000 		.4byte	.LASF24
 1445 0216 04       		.byte	0x4
 1446 0217 5B       		.byte	0x5b
 1447 0218 2A020000 		.4byte	0x22a
 1448 021c 00       		.byte	0
 1449 021d 06       		.uleb128 0x6
 1450 021e A4030000 		.4byte	.LASF25
 1451 0222 04       		.byte	0x4
 1452 0223 5D       		.byte	0x5d
 1453 0224 2A020000 		.4byte	0x22a
 1454 0228 04       		.byte	0x4
 1455 0229 00       		.byte	0
 1456 022a 09       		.uleb128 0x9
 1457 022b 04       		.byte	0x4
 1458 022c 01010000 		.4byte	0x101
 1459 0230 04       		.uleb128 0x4
 1460 0231 5A030000 		.4byte	.LASF43
 1461 0235 04       		.byte	0x4
 1462 0236 5F       		.byte	0x5f
 1463 0237 09020000 		.4byte	0x209
 1464 023b 08       		.uleb128 0x8
 1465 023c 04       		.byte	0x4
ARM GAS  /var/folders/qh/xwg3v3kj02qbxczjpdb8lzfr0000gn/T//ccTDBctj.s 			page 27


 1466 023d 04       		.byte	0x4
 1467 023e 64       		.byte	0x64
 1468 023f 50020000 		.4byte	0x250
 1469 0243 06       		.uleb128 0x6
 1470 0244 3C040000 		.4byte	.LASF24
 1471 0248 04       		.byte	0x4
 1472 0249 66       		.byte	0x66
 1473 024a 2A020000 		.4byte	0x22a
 1474 024e 00       		.byte	0
 1475 024f 00       		.byte	0
 1476 0250 04       		.uleb128 0x4
 1477 0251 2C020000 		.4byte	.LASF44
 1478 0255 04       		.byte	0x4
 1479 0256 69       		.byte	0x69
 1480 0257 3B020000 		.4byte	0x23b
 1481 025b 04       		.uleb128 0x4
 1482 025c 29010000 		.4byte	.LASF45
 1483 0260 06       		.byte	0x6
 1484 0261 A0       		.byte	0xa0
 1485 0262 66020000 		.4byte	0x266
 1486 0266 0A       		.uleb128 0xa
 1487 0267 04       		.byte	0x4
 1488 0268 05       		.uleb128 0x5
 1489 0269 B0040000 		.4byte	.LASF46
 1490 026d 24       		.byte	0x24
 1491 026e 06       		.byte	0x6
 1492 026f B3       		.byte	0xb3
 1493 0270 DA020000 		.4byte	0x2da
 1494 0274 07       		.uleb128 0x7
 1495 0275 723800   		.ascii	"r8\000"
 1496 0278 06       		.byte	0x6
 1497 0279 B4       		.byte	0xb4
 1498 027a 5B020000 		.4byte	0x25b
 1499 027e 00       		.byte	0
 1500 027f 07       		.uleb128 0x7
 1501 0280 723900   		.ascii	"r9\000"
 1502 0283 06       		.byte	0x6
 1503 0284 B5       		.byte	0xb5
 1504 0285 5B020000 		.4byte	0x25b
 1505 0289 04       		.byte	0x4
 1506 028a 07       		.uleb128 0x7
 1507 028b 72313000 		.ascii	"r10\000"
 1508 028f 06       		.byte	0x6
 1509 0290 B6       		.byte	0xb6
 1510 0291 5B020000 		.4byte	0x25b
 1511 0295 08       		.byte	0x8
 1512 0296 07       		.uleb128 0x7
 1513 0297 72313100 		.ascii	"r11\000"
 1514 029b 06       		.byte	0x6
 1515 029c B7       		.byte	0xb7
 1516 029d 5B020000 		.4byte	0x25b
 1517 02a1 0C       		.byte	0xc
 1518 02a2 07       		.uleb128 0x7
 1519 02a3 723400   		.ascii	"r4\000"
 1520 02a6 06       		.byte	0x6
 1521 02a7 B8       		.byte	0xb8
 1522 02a8 5B020000 		.4byte	0x25b
ARM GAS  /var/folders/qh/xwg3v3kj02qbxczjpdb8lzfr0000gn/T//ccTDBctj.s 			page 28


 1523 02ac 10       		.byte	0x10
 1524 02ad 07       		.uleb128 0x7
 1525 02ae 723500   		.ascii	"r5\000"
 1526 02b1 06       		.byte	0x6
 1527 02b2 B9       		.byte	0xb9
 1528 02b3 5B020000 		.4byte	0x25b
 1529 02b7 14       		.byte	0x14
 1530 02b8 07       		.uleb128 0x7
 1531 02b9 723600   		.ascii	"r6\000"
 1532 02bc 06       		.byte	0x6
 1533 02bd BA       		.byte	0xba
 1534 02be 5B020000 		.4byte	0x25b
 1535 02c2 18       		.byte	0x18
 1536 02c3 07       		.uleb128 0x7
 1537 02c4 723700   		.ascii	"r7\000"
 1538 02c7 06       		.byte	0x6
 1539 02c8 BB       		.byte	0xbb
 1540 02c9 5B020000 		.4byte	0x25b
 1541 02cd 1C       		.byte	0x1c
 1542 02ce 07       		.uleb128 0x7
 1543 02cf 6C7200   		.ascii	"lr\000"
 1544 02d2 06       		.byte	0x6
 1545 02d3 BC       		.byte	0xbc
 1546 02d4 5B020000 		.4byte	0x25b
 1547 02d8 20       		.byte	0x20
 1548 02d9 00       		.byte	0
 1549 02da 05       		.uleb128 0x5
 1550 02db D9010000 		.4byte	.LASF47
 1551 02df 04       		.byte	0x4
 1552 02e0 06       		.byte	0x6
 1553 02e1 C6       		.byte	0xc6
 1554 02e2 F3020000 		.4byte	0x2f3
 1555 02e6 07       		.uleb128 0x7
 1556 02e7 72313300 		.ascii	"r13\000"
 1557 02eb 06       		.byte	0x6
 1558 02ec C7       		.byte	0xc7
 1559 02ed F3020000 		.4byte	0x2f3
 1560 02f1 00       		.byte	0
 1561 02f2 00       		.byte	0
 1562 02f3 09       		.uleb128 0x9
 1563 02f4 04       		.byte	0x4
 1564 02f5 68020000 		.4byte	0x268
 1565 02f9 03       		.uleb128 0x3
 1566 02fa 04       		.byte	0x4
 1567 02fb 07       		.byte	0x7
 1568 02fc 5B020000 		.4byte	.LASF48
 1569 0300 0B       		.uleb128 0xb
 1570 0301 F6000000 		.4byte	0xf6
 1571 0305 08       		.uleb128 0x8
 1572 0306 1C       		.byte	0x1c
 1573 0307 07       		.byte	0x7
 1574 0308 57       		.byte	0x57
 1575 0309 56030000 		.4byte	0x356
 1576 030d 06       		.uleb128 0x6
 1577 030e 74040000 		.4byte	.LASF49
 1578 0312 07       		.byte	0x7
 1579 0313 58       		.byte	0x58
ARM GAS  /var/folders/qh/xwg3v3kj02qbxczjpdb8lzfr0000gn/T//ccTDBctj.s 			page 29


 1580 0314 30020000 		.4byte	0x230
 1581 0318 00       		.byte	0
 1582 0319 06       		.uleb128 0x6
 1583 031a 17040000 		.4byte	.LASF50
 1584 031e 07       		.byte	0x7
 1585 031f 59       		.byte	0x59
 1586 0320 BF000000 		.4byte	0xbf
 1587 0324 08       		.byte	0x8
 1588 0325 06       		.uleb128 0x6
 1589 0326 54030000 		.4byte	.LASF51
 1590 032a 07       		.byte	0x7
 1591 032b 5B       		.byte	0x5b
 1592 032c DA020000 		.4byte	0x2da
 1593 0330 0C       		.byte	0xc
 1594 0331 06       		.uleb128 0x6
 1595 0332 1C010000 		.4byte	.LASF52
 1596 0336 07       		.byte	0x7
 1597 0337 5E       		.byte	0x5e
 1598 0338 2A020000 		.4byte	0x22a
 1599 033c 10       		.byte	0x10
 1600 033d 06       		.uleb128 0x6
 1601 033e 83030000 		.4byte	.LASF53
 1602 0342 07       		.byte	0x7
 1603 0343 5F       		.byte	0x5f
 1604 0344 2A020000 		.4byte	0x22a
 1605 0348 14       		.byte	0x14
 1606 0349 06       		.uleb128 0x6
 1607 034a 79030000 		.4byte	.LASF54
 1608 034e 07       		.byte	0x7
 1609 034f 62       		.byte	0x62
 1610 0350 2A020000 		.4byte	0x22a
 1611 0354 18       		.byte	0x18
 1612 0355 00       		.byte	0
 1613 0356 04       		.uleb128 0x4
 1614 0357 D5040000 		.4byte	.LASF55
 1615 035b 07       		.byte	0x7
 1616 035c 64       		.byte	0x64
 1617 035d 05030000 		.4byte	0x305
 1618 0361 05       		.uleb128 0x5
 1619 0362 44020000 		.4byte	.LASF56
 1620 0366 10       		.byte	0x10
 1621 0367 08       		.byte	0x8
 1622 0368 25       		.byte	0x25
 1623 0369 92030000 		.4byte	0x392
 1624 036d 06       		.uleb128 0x6
 1625 036e A8000000 		.4byte	.LASF57
 1626 0372 08       		.byte	0x8
 1627 0373 26       		.byte	0x26
 1628 0374 30020000 		.4byte	0x230
 1629 0378 00       		.byte	0
 1630 0379 06       		.uleb128 0x6
 1631 037a 71050000 		.4byte	.LASF58
 1632 037e 08       		.byte	0x8
 1633 037f 28       		.byte	0x28
 1634 0380 2A020000 		.4byte	0x22a
 1635 0384 08       		.byte	0x8
 1636 0385 06       		.uleb128 0x6
ARM GAS  /var/folders/qh/xwg3v3kj02qbxczjpdb8lzfr0000gn/T//ccTDBctj.s 			page 30


 1637 0386 8D040000 		.4byte	.LASF59
 1638 038a 08       		.byte	0x8
 1639 038b 2A       		.byte	0x2a
 1640 038c 92030000 		.4byte	0x392
 1641 0390 0C       		.byte	0xc
 1642 0391 00       		.byte	0
 1643 0392 09       		.uleb128 0x9
 1644 0393 04       		.byte	0x4
 1645 0394 61030000 		.4byte	0x361
 1646 0398 04       		.uleb128 0x4
 1647 0399 44020000 		.4byte	.LASF56
 1648 039d 08       		.byte	0x8
 1649 039e 2C       		.byte	0x2c
 1650 039f 61030000 		.4byte	0x361
 1651 03a3 04       		.uleb128 0x4
 1652 03a4 12050000 		.4byte	.LASF60
 1653 03a8 09       		.byte	0x9
 1654 03a9 25       		.byte	0x25
 1655 03aa AE030000 		.4byte	0x3ae
 1656 03ae 05       		.uleb128 0x5
 1657 03af 12050000 		.4byte	.LASF60
 1658 03b3 10       		.byte	0x10
 1659 03b4 09       		.byte	0x9
 1660 03b5 2A       		.byte	0x2a
 1661 03b6 EB030000 		.4byte	0x3eb
 1662 03ba 06       		.uleb128 0x6
 1663 03bb 0C020000 		.4byte	.LASF61
 1664 03bf 09       		.byte	0x9
 1665 03c0 2B       		.byte	0x2b
 1666 03c1 EB030000 		.4byte	0x3eb
 1667 03c5 00       		.byte	0
 1668 03c6 06       		.uleb128 0x6
 1669 03c7 DC030000 		.4byte	.LASF62
 1670 03cb 09       		.byte	0x9
 1671 03cc 2E       		.byte	0x2e
 1672 03cd 2A020000 		.4byte	0x22a
 1673 03d1 04       		.byte	0x4
 1674 03d2 06       		.uleb128 0x6
 1675 03d3 8B030000 		.4byte	.LASF63
 1676 03d7 09       		.byte	0x9
 1677 03d8 30       		.byte	0x30
 1678 03d9 E0000000 		.4byte	0xe0
 1679 03dd 08       		.byte	0x8
 1680 03de 06       		.uleb128 0x6
 1681 03df E8030000 		.4byte	.LASF64
 1682 03e3 09       		.byte	0x9
 1683 03e4 33       		.byte	0x33
 1684 03e5 EB000000 		.4byte	0xeb
 1685 03e9 0C       		.byte	0xc
 1686 03ea 00       		.byte	0
 1687 03eb 09       		.uleb128 0x9
 1688 03ec 04       		.byte	0x4
 1689 03ed A3030000 		.4byte	0x3a3
 1690 03f1 05       		.uleb128 0x5
 1691 03f2 50010000 		.4byte	.LASF65
 1692 03f6 04       		.byte	0x4
 1693 03f7 09       		.byte	0x9
ARM GAS  /var/folders/qh/xwg3v3kj02qbxczjpdb8lzfr0000gn/T//ccTDBctj.s 			page 31


 1694 03f8 3A       		.byte	0x3a
 1695 03f9 0A040000 		.4byte	0x40a
 1696 03fd 06       		.uleb128 0x6
 1697 03fe 42050000 		.4byte	.LASF66
 1698 0402 09       		.byte	0x9
 1699 0403 3B       		.byte	0x3b
 1700 0404 EB030000 		.4byte	0x3eb
 1701 0408 00       		.byte	0
 1702 0409 00       		.byte	0
 1703 040a 04       		.uleb128 0x4
 1704 040b 50010000 		.4byte	.LASF65
 1705 040f 09       		.byte	0x9
 1706 0410 3E       		.byte	0x3e
 1707 0411 F1030000 		.4byte	0x3f1
 1708 0415 04       		.uleb128 0x4
 1709 0416 5C010000 		.4byte	.LASF67
 1710 041a 09       		.byte	0x9
 1711 041b 43       		.byte	0x43
 1712 041c 20040000 		.4byte	0x420
 1713 0420 09       		.uleb128 0x9
 1714 0421 04       		.byte	0x4
 1715 0422 26040000 		.4byte	0x426
 1716 0426 0C       		.uleb128 0xc
 1717 0427 31040000 		.4byte	0x431
 1718 042b 0D       		.uleb128 0xd
 1719 042c D5000000 		.4byte	0xd5
 1720 0430 00       		.byte	0
 1721 0431 0E       		.uleb128 0xe
 1722 0432 04       		.byte	0x4
 1723 0433 05       		.byte	0x5
 1724 0434 8F       		.byte	0x8f
 1725 0435 66040000 		.4byte	0x466
 1726 0439 0F       		.uleb128 0xf
 1727 043a 06000000 		.4byte	.LASF68
 1728 043e 05       		.byte	0x5
 1729 043f 96       		.byte	0x96
 1730 0440 CA000000 		.4byte	0xca
 1731 0444 0F       		.uleb128 0xf
 1732 0445 4E000000 		.4byte	.LASF69
 1733 0449 05       		.byte	0x5
 1734 044a 9D       		.byte	0x9d
 1735 044b CA000000 		.4byte	0xca
 1736 044f 0F       		.uleb128 0xf
 1737 0450 34050000 		.4byte	.LASF70
 1738 0454 05       		.byte	0x5
 1739 0455 A4       		.byte	0xa4
 1740 0456 66020000 		.4byte	0x266
 1741 045a 0F       		.uleb128 0xf
 1742 045b 35040000 		.4byte	.LASF71
 1743 045f 05       		.byte	0x5
 1744 0460 AB       		.byte	0xab
 1745 0461 E0000000 		.4byte	0xe0
 1746 0465 00       		.byte	0
 1747 0466 09       		.uleb128 0x9
 1748 0467 04       		.byte	0x4
 1749 0468 6C040000 		.4byte	0x46c
 1750 046c 10       		.uleb128 0x10
ARM GAS  /var/folders/qh/xwg3v3kj02qbxczjpdb8lzfr0000gn/T//ccTDBctj.s 			page 32


 1751 046d 71040000 		.4byte	0x471
 1752 0471 03       		.uleb128 0x3
 1753 0472 01       		.byte	0x1
 1754 0473 08       		.byte	0x8
 1755 0474 88040000 		.4byte	.LASF72
 1756 0478 09       		.uleb128 0x9
 1757 0479 04       		.byte	0x4
 1758 047a 98030000 		.4byte	0x398
 1759 047e 11       		.uleb128 0x11
 1760 047f 89050000 		.4byte	.LASF97
 1761 0483 01       		.byte	0x1
 1762 0484 F4       		.byte	0xf4
 1763 0485 01       		.byte	0x1
 1764 0486 A0040000 		.4byte	0x4a0
 1765 048a 12       		.uleb128 0x12
 1766 048b 747000   		.ascii	"tp\000"
 1767 048e 01       		.byte	0x1
 1768 048f F4       		.byte	0xf4
 1769 0490 2A020000 		.4byte	0x22a
 1770 0494 13       		.uleb128 0x13
 1771 0495 24010000 		.4byte	.LASF73
 1772 0499 01       		.byte	0x1
 1773 049a F4       		.byte	0xf4
 1774 049b E0000000 		.4byte	0xe0
 1775 049f 00       		.byte	0
 1776 04a0 14       		.uleb128 0x14
 1777 04a1 F4010000 		.4byte	.LASF74
 1778 04a5 01       		.byte	0x1
 1779 04a6 4E       		.byte	0x4e
 1780 04a7 00000000 		.4byte	.LFB7
 1781 04ab 2C000000 		.4byte	.LFE7-.LFB7
 1782 04af 01       		.uleb128 0x1
 1783 04b0 9C       		.byte	0x9c
 1784 04b1 F5040000 		.4byte	0x4f5
 1785 04b5 15       		.uleb128 0x15
 1786 04b6 65737000 		.ascii	"esp\000"
 1787 04ba 01       		.byte	0x1
 1788 04bb 4E       		.byte	0x4e
 1789 04bc F5040000 		.4byte	0x4f5
 1790 04c0 00000000 		.4byte	.LLST0
 1791 04c4 15       		.uleb128 0x15
 1792 04c5 656C7000 		.ascii	"elp\000"
 1793 04c9 01       		.byte	0x1
 1794 04ca 4E       		.byte	0x4e
 1795 04cb EB030000 		.4byte	0x3eb
 1796 04cf 2C000000 		.4byte	.LLST1
 1797 04d3 16       		.uleb128 0x16
 1798 04d4 24010000 		.4byte	.LASF73
 1799 04d8 01       		.byte	0x1
 1800 04d9 4E       		.byte	0x4e
 1801 04da E0000000 		.4byte	0xe0
 1802 04de 58000000 		.4byte	.LLST2
 1803 04e2 17       		.uleb128 0x17
 1804 04e3 0E000000 		.4byte	.LVL1
 1805 04e7 2A0B0000 		.4byte	0xb2a
 1806 04eb 17       		.uleb128 0x17
 1807 04ec 24000000 		.4byte	.LVL2
ARM GAS  /var/folders/qh/xwg3v3kj02qbxczjpdb8lzfr0000gn/T//ccTDBctj.s 			page 33


 1808 04f0 310B0000 		.4byte	0xb31
 1809 04f4 00       		.byte	0
 1810 04f5 09       		.uleb128 0x9
 1811 04f6 04       		.byte	0x4
 1812 04f7 0A040000 		.4byte	0x40a
 1813 04fb 14       		.uleb128 0x14
 1814 04fc 14020000 		.4byte	.LASF75
 1815 0500 01       		.byte	0x1
 1816 0501 68       		.byte	0x68
 1817 0502 00000000 		.4byte	.LFB8
 1818 0506 2A000000 		.4byte	.LFE8-.LFB8
 1819 050a 01       		.uleb128 0x1
 1820 050b 9C       		.byte	0x9c
 1821 050c 4E050000 		.4byte	0x54e
 1822 0510 15       		.uleb128 0x15
 1823 0511 65737000 		.ascii	"esp\000"
 1824 0515 01       		.byte	0x1
 1825 0516 68       		.byte	0x68
 1826 0517 F5040000 		.4byte	0x4f5
 1827 051b 84000000 		.4byte	.LLST3
 1828 051f 15       		.uleb128 0x15
 1829 0520 656C7000 		.ascii	"elp\000"
 1830 0524 01       		.byte	0x1
 1831 0525 68       		.byte	0x68
 1832 0526 EB030000 		.4byte	0x3eb
 1833 052a BB000000 		.4byte	.LLST4
 1834 052e 18       		.uleb128 0x18
 1835 052f 7000     		.ascii	"p\000"
 1836 0531 01       		.byte	0x1
 1837 0532 69       		.byte	0x69
 1838 0533 EB030000 		.4byte	0x3eb
 1839 0537 00010000 		.4byte	.LLST5
 1840 053b 17       		.uleb128 0x17
 1841 053c 0C000000 		.4byte	.LVL8
 1842 0540 2A0B0000 		.4byte	0xb2a
 1843 0544 17       		.uleb128 0x17
 1844 0545 20000000 		.4byte	.LVL12
 1845 0549 310B0000 		.4byte	0xb31
 1846 054d 00       		.byte	0
 1847 054e 19       		.uleb128 0x19
 1848 054f 87010000 		.4byte	.LASF76
 1849 0553 01       		.byte	0x1
 1850 0554 81       		.byte	0x81
 1851 0555 E0000000 		.4byte	0xe0
 1852 0559 00000000 		.4byte	.LFB9
 1853 055d 28000000 		.4byte	.LFE9-.LFB9
 1854 0561 01       		.uleb128 0x1
 1855 0562 9C       		.byte	0x9c
 1856 0563 96050000 		.4byte	0x596
 1857 0567 16       		.uleb128 0x16
 1858 0568 24010000 		.4byte	.LASF73
 1859 056c 01       		.byte	0x1
 1860 056d 81       		.byte	0x81
 1861 056e E0000000 		.4byte	0xe0
 1862 0572 34010000 		.4byte	.LLST6
 1863 0576 18       		.uleb128 0x18
 1864 0577 6D00     		.ascii	"m\000"
ARM GAS  /var/folders/qh/xwg3v3kj02qbxczjpdb8lzfr0000gn/T//ccTDBctj.s 			page 34


 1865 0579 01       		.byte	0x1
 1866 057a 82       		.byte	0x82
 1867 057b E0000000 		.4byte	0xe0
 1868 057f 60010000 		.4byte	.LLST7
 1869 0583 17       		.uleb128 0x17
 1870 0584 0A000000 		.4byte	.LVL17
 1871 0588 2A0B0000 		.4byte	0xb2a
 1872 058c 17       		.uleb128 0x17
 1873 058d 1A000000 		.4byte	.LVL18
 1874 0591 310B0000 		.4byte	0xb31
 1875 0595 00       		.byte	0
 1876 0596 19       		.uleb128 0x19
 1877 0597 3F000000 		.4byte	.LASF77
 1878 059b 01       		.byte	0x1
 1879 059c 96       		.byte	0x96
 1880 059d E0000000 		.4byte	0xe0
 1881 05a1 00000000 		.4byte	.LFB10
 1882 05a5 24000000 		.4byte	.LFE10-.LFB10
 1883 05a9 01       		.uleb128 0x1
 1884 05aa 9C       		.byte	0x9c
 1885 05ab D1050000 		.4byte	0x5d1
 1886 05af 16       		.uleb128 0x16
 1887 05b0 24010000 		.4byte	.LASF73
 1888 05b4 01       		.byte	0x1
 1889 05b5 96       		.byte	0x96
 1890 05b6 E0000000 		.4byte	0xe0
 1891 05ba 7E010000 		.4byte	.LLST8
 1892 05be 17       		.uleb128 0x17
 1893 05bf 0A000000 		.4byte	.LVL23
 1894 05c3 2A0B0000 		.4byte	0xb2a
 1895 05c7 17       		.uleb128 0x17
 1896 05c8 18000000 		.4byte	.LVL26
 1897 05cc 310B0000 		.4byte	0xb31
 1898 05d0 00       		.byte	0
 1899 05d1 19       		.uleb128 0x19
 1900 05d2 4A050000 		.4byte	.LASF78
 1901 05d6 01       		.byte	0x1
 1902 05d7 CA       		.byte	0xca
 1903 05d8 EB000000 		.4byte	0xeb
 1904 05dc 00000000 		.4byte	.LFB12
 1905 05e0 1A000000 		.4byte	.LFE12-.LFB12
 1906 05e4 01       		.uleb128 0x1
 1907 05e5 9C       		.byte	0x9c
 1908 05e6 1B060000 		.4byte	0x61b
 1909 05ea 15       		.uleb128 0x15
 1910 05eb 656C7000 		.ascii	"elp\000"
 1911 05ef 01       		.byte	0x1
 1912 05f0 CA       		.byte	0xca
 1913 05f1 EB030000 		.4byte	0x3eb
 1914 05f5 C0010000 		.4byte	.LLST9
 1915 05f9 1A       		.uleb128 0x1a
 1916 05fa ED040000 		.4byte	.LASF79
 1917 05fe 01       		.byte	0x1
 1918 05ff CB       		.byte	0xcb
 1919 0600 EB000000 		.4byte	0xeb
 1920 0604 EC010000 		.4byte	.LLST10
 1921 0608 17       		.uleb128 0x17
ARM GAS  /var/folders/qh/xwg3v3kj02qbxczjpdb8lzfr0000gn/T//ccTDBctj.s 			page 35


 1922 0609 0A000000 		.4byte	.LVL29
 1923 060d 2A0B0000 		.4byte	0xb2a
 1924 0611 17       		.uleb128 0x17
 1925 0612 14000000 		.4byte	.LVL31
 1926 0616 310B0000 		.4byte	0xb31
 1927 061a 00       		.byte	0
 1928 061b 1B       		.uleb128 0x1b
 1929 061c 7E040000 		.4byte	0x47e
 1930 0620 00000000 		.4byte	.LFB14
 1931 0624 42000000 		.4byte	.LFE14-.LFB14
 1932 0628 01       		.uleb128 0x1
 1933 0629 9C       		.byte	0x9c
 1934 062a 8A060000 		.4byte	0x68a
 1935 062e 1C       		.uleb128 0x1c
 1936 062f 8A040000 		.4byte	0x48a
 1937 0633 0A020000 		.4byte	.LLST11
 1938 0637 1C       		.uleb128 0x1c
 1939 0638 94040000 		.4byte	0x494
 1940 063c 41020000 		.4byte	.LLST12
 1941 0640 1D       		.uleb128 0x1d
 1942 0641 00000000 		.4byte	.Ldebug_ranges0+0
 1943 0645 80060000 		.4byte	0x680
 1944 0649 1C       		.uleb128 0x1c
 1945 064a 94040000 		.4byte	0x494
 1946 064e 78020000 		.4byte	.LLST13
 1947 0652 1C       		.uleb128 0x1c
 1948 0653 8A040000 		.4byte	0x48a
 1949 0657 96020000 		.4byte	.LLST14
 1950 065b 1E       		.uleb128 0x1e
 1951 065c 2A000000 		.4byte	.LVL40
 1952 0660 380B0000 		.4byte	0xb38
 1953 0664 6F060000 		.4byte	0x66f
 1954 0668 1F       		.uleb128 0x1f
 1955 0669 01       		.uleb128 0x1
 1956 066a 50       		.byte	0x50
 1957 066b 02       		.uleb128 0x2
 1958 066c 74       		.byte	0x74
 1959 066d 00       		.sleb128 0
 1960 066e 00       		.byte	0
 1961 066f 20       		.uleb128 0x20
 1962 0670 3C000000 		.4byte	.LVL43
 1963 0674 380B0000 		.4byte	0xb38
 1964 0678 1F       		.uleb128 0x1f
 1965 0679 01       		.uleb128 0x1
 1966 067a 50       		.byte	0x50
 1967 067b 02       		.uleb128 0x2
 1968 067c 74       		.byte	0x74
 1969 067d 00       		.sleb128 0
 1970 067e 00       		.byte	0
 1971 067f 00       		.byte	0
 1972 0680 17       		.uleb128 0x17
 1973 0681 0A000000 		.4byte	.LVL35
 1974 0685 4D0B0000 		.4byte	0xb4d
 1975 0689 00       		.byte	0
 1976 068a 14       		.uleb128 0x14
 1977 068b EE000000 		.4byte	.LASF80
 1978 068f 01       		.byte	0x1
ARM GAS  /var/folders/qh/xwg3v3kj02qbxczjpdb8lzfr0000gn/T//ccTDBctj.s 			page 36


 1979 0690 B1       		.byte	0xb1
 1980 0691 00000000 		.4byte	.LFB11
 1981 0695 26000000 		.4byte	.LFE11-.LFB11
 1982 0699 01       		.uleb128 0x1
 1983 069a 9C       		.byte	0x9c
 1984 069b DF060000 		.4byte	0x6df
 1985 069f 15       		.uleb128 0x15
 1986 06a0 65737000 		.ascii	"esp\000"
 1987 06a4 01       		.byte	0x1
 1988 06a5 B1       		.byte	0xb1
 1989 06a6 F5040000 		.4byte	0x4f5
 1990 06aa B4020000 		.4byte	.LLST15
 1991 06ae 16       		.uleb128 0x16
 1992 06af ED040000 		.4byte	.LASF79
 1993 06b3 01       		.byte	0x1
 1994 06b4 B1       		.byte	0xb1
 1995 06b5 EB000000 		.4byte	0xeb
 1996 06b9 E0020000 		.4byte	.LLST16
 1997 06bd 18       		.uleb128 0x18
 1998 06be 656C7000 		.ascii	"elp\000"
 1999 06c2 01       		.byte	0x1
 2000 06c3 B2       		.byte	0xb2
 2001 06c4 EB030000 		.4byte	0x3eb
 2002 06c8 0C030000 		.4byte	.LLST17
 2003 06cc 17       		.uleb128 0x17
 2004 06cd 0A000000 		.4byte	.LVL45
 2005 06d1 4D0B0000 		.4byte	0xb4d
 2006 06d5 17       		.uleb128 0x17
 2007 06d6 1E000000 		.4byte	.LVL47
 2008 06da 7E040000 		.4byte	0x47e
 2009 06de 00       		.byte	0
 2010 06df 14       		.uleb128 0x14
 2011 06e0 1C000000 		.4byte	.LASF81
 2012 06e4 01       		.byte	0x1
 2013 06e5 DE       		.byte	0xde
 2014 06e6 00000000 		.4byte	.LFB13
 2015 06ea 20000000 		.4byte	.LFE13-.LFB13
 2016 06ee 01       		.uleb128 0x1
 2017 06ef 9C       		.byte	0x9c
 2018 06f0 47070000 		.4byte	0x747
 2019 06f4 15       		.uleb128 0x15
 2020 06f5 747000   		.ascii	"tp\000"
 2021 06f8 01       		.byte	0x1
 2022 06f9 DE       		.byte	0xde
 2023 06fa 2A020000 		.4byte	0x22a
 2024 06fe 1F030000 		.4byte	.LLST18
 2025 0702 16       		.uleb128 0x16
 2026 0703 24010000 		.4byte	.LASF73
 2027 0707 01       		.byte	0x1
 2028 0708 DE       		.byte	0xde
 2029 0709 E0000000 		.4byte	0xe0
 2030 070d 4B030000 		.4byte	.LLST19
 2031 0711 17       		.uleb128 0x17
 2032 0712 0C000000 		.4byte	.LVL53
 2033 0716 2A0B0000 		.4byte	0xb2a
 2034 071a 1E       		.uleb128 0x1e
 2035 071b 14000000 		.4byte	.LVL54
ARM GAS  /var/folders/qh/xwg3v3kj02qbxczjpdb8lzfr0000gn/T//ccTDBctj.s 			page 37


 2036 071f 7E040000 		.4byte	0x47e
 2037 0723 34070000 		.4byte	0x734
 2038 0727 1F       		.uleb128 0x1f
 2039 0728 01       		.uleb128 0x1
 2040 0729 51       		.byte	0x51
 2041 072a 02       		.uleb128 0x2
 2042 072b 74       		.byte	0x74
 2043 072c 00       		.sleb128 0
 2044 072d 1F       		.uleb128 0x1f
 2045 072e 01       		.uleb128 0x1
 2046 072f 50       		.byte	0x50
 2047 0730 02       		.uleb128 0x2
 2048 0731 75       		.byte	0x75
 2049 0732 00       		.sleb128 0
 2050 0733 00       		.byte	0
 2051 0734 17       		.uleb128 0x17
 2052 0735 18000000 		.4byte	.LVL55
 2053 0739 540B0000 		.4byte	0xb54
 2054 073d 17       		.uleb128 0x17
 2055 073e 1C000000 		.4byte	.LVL56
 2056 0742 310B0000 		.4byte	0xb31
 2057 0746 00       		.byte	0
 2058 0747 21       		.uleb128 0x21
 2059 0748 32010000 		.4byte	.LASF82
 2060 074c 01       		.byte	0x1
 2061 074d 0F01     		.2byte	0x10f
 2062 074f 00000000 		.4byte	.LFB15
 2063 0753 20000000 		.4byte	.LFE15-.LFB15
 2064 0757 01       		.uleb128 0x1
 2065 0758 9C       		.byte	0x9c
 2066 0759 B3070000 		.4byte	0x7b3
 2067 075d 22       		.uleb128 0x22
 2068 075e 65737000 		.ascii	"esp\000"
 2069 0762 01       		.byte	0x1
 2070 0763 0F01     		.2byte	0x10f
 2071 0765 F5040000 		.4byte	0x4f5
 2072 0769 77030000 		.4byte	.LLST20
 2073 076d 23       		.uleb128 0x23
 2074 076e ED040000 		.4byte	.LASF79
 2075 0772 01       		.byte	0x1
 2076 0773 0F01     		.2byte	0x10f
 2077 0775 EB000000 		.4byte	0xeb
 2078 0779 A3030000 		.4byte	.LLST21
 2079 077d 17       		.uleb128 0x17
 2080 077e 0C000000 		.4byte	.LVL60
 2081 0782 2A0B0000 		.4byte	0xb2a
 2082 0786 1E       		.uleb128 0x1e
 2083 0787 14000000 		.4byte	.LVL61
 2084 078b 8A060000 		.4byte	0x68a
 2085 078f A0070000 		.4byte	0x7a0
 2086 0793 1F       		.uleb128 0x1f
 2087 0794 01       		.uleb128 0x1
 2088 0795 51       		.byte	0x51
 2089 0796 02       		.uleb128 0x2
 2090 0797 74       		.byte	0x74
 2091 0798 00       		.sleb128 0
 2092 0799 1F       		.uleb128 0x1f
ARM GAS  /var/folders/qh/xwg3v3kj02qbxczjpdb8lzfr0000gn/T//ccTDBctj.s 			page 38


 2093 079a 01       		.uleb128 0x1
 2094 079b 50       		.byte	0x50
 2095 079c 02       		.uleb128 0x2
 2096 079d 75       		.byte	0x75
 2097 079e 00       		.sleb128 0
 2098 079f 00       		.byte	0
 2099 07a0 17       		.uleb128 0x17
 2100 07a1 18000000 		.4byte	.LVL62
 2101 07a5 540B0000 		.4byte	0xb54
 2102 07a9 17       		.uleb128 0x17
 2103 07aa 1C000000 		.4byte	.LVL63
 2104 07ae 310B0000 		.4byte	0xb31
 2105 07b2 00       		.byte	0
 2106 07b3 24       		.uleb128 0x24
 2107 07b4 1E040000 		.4byte	.LASF83
 2108 07b8 01       		.byte	0x1
 2109 07b9 2201     		.2byte	0x122
 2110 07bb EB000000 		.4byte	0xeb
 2111 07bf 00000000 		.4byte	.LFB16
 2112 07c3 0A000000 		.4byte	.LFE16-.LFB16
 2113 07c7 01       		.uleb128 0x1
 2114 07c8 9C       		.byte	0x9c
 2115 07c9 EC070000 		.4byte	0x7ec
 2116 07cd 22       		.uleb128 0x22
 2117 07ce 656C7000 		.ascii	"elp\000"
 2118 07d2 01       		.byte	0x1
 2119 07d3 2201     		.2byte	0x122
 2120 07d5 EB030000 		.4byte	0x3eb
 2121 07d9 CF030000 		.4byte	.LLST22
 2122 07dd 25       		.uleb128 0x25
 2123 07de ED040000 		.4byte	.LASF79
 2124 07e2 01       		.byte	0x1
 2125 07e3 2301     		.2byte	0x123
 2126 07e5 EB000000 		.4byte	0xeb
 2127 07e9 01       		.uleb128 0x1
 2128 07ea 50       		.byte	0x50
 2129 07eb 00       		.byte	0
 2130 07ec 21       		.uleb128 0x21
 2131 07ed 64020000 		.4byte	.LASF84
 2132 07f1 01       		.byte	0x1
 2133 07f2 3401     		.2byte	0x134
 2134 07f4 00000000 		.4byte	.LFB17
 2135 07f8 32000000 		.4byte	.LFE17-.LFB17
 2136 07fc 01       		.uleb128 0x1
 2137 07fd 9C       		.byte	0x9c
 2138 07fe 3F080000 		.4byte	0x83f
 2139 0802 23       		.uleb128 0x23
 2140 0803 93030000 		.4byte	.LASF85
 2141 0807 01       		.byte	0x1
 2142 0808 3401     		.2byte	0x134
 2143 080a 3F080000 		.4byte	0x83f
 2144 080e ED030000 		.4byte	.LLST23
 2145 0812 23       		.uleb128 0x23
 2146 0813 24010000 		.4byte	.LASF73
 2147 0817 01       		.byte	0x1
 2148 0818 3401     		.2byte	0x134
 2149 081a E0000000 		.4byte	0xe0
ARM GAS  /var/folders/qh/xwg3v3kj02qbxczjpdb8lzfr0000gn/T//ccTDBctj.s 			page 39


 2150 081e 0E040000 		.4byte	.LLST24
 2151 0822 26       		.uleb128 0x26
 2152 0823 65696400 		.ascii	"eid\000"
 2153 0827 01       		.byte	0x1
 2154 0828 3501     		.2byte	0x135
 2155 082a D5000000 		.4byte	0xd5
 2156 082e 2C040000 		.4byte	.LLST25
 2157 0832 27       		.uleb128 0x27
 2158 0833 28000000 		.4byte	.LVL73
 2159 0837 1F       		.uleb128 0x1f
 2160 0838 01       		.uleb128 0x1
 2161 0839 50       		.byte	0x50
 2162 083a 02       		.uleb128 0x2
 2163 083b 74       		.byte	0x74
 2164 083c 00       		.sleb128 0
 2165 083d 00       		.byte	0
 2166 083e 00       		.byte	0
 2167 083f 09       		.uleb128 0x9
 2168 0840 04       		.byte	0x4
 2169 0841 45080000 		.4byte	0x845
 2170 0845 10       		.uleb128 0x10
 2171 0846 15040000 		.4byte	0x415
 2172 084a 24       		.uleb128 0x24
 2173 084b CF030000 		.4byte	.LASF86
 2174 084f 01       		.byte	0x1
 2175 0850 5701     		.2byte	0x157
 2176 0852 E0000000 		.4byte	0xe0
 2177 0856 00000000 		.4byte	.LFB18
 2178 085a 3C000000 		.4byte	.LFE18-.LFB18
 2179 085e 01       		.uleb128 0x1
 2180 085f 9C       		.byte	0x9c
 2181 0860 B8080000 		.4byte	0x8b8
 2182 0864 23       		.uleb128 0x23
 2183 0865 24010000 		.4byte	.LASF73
 2184 0869 01       		.byte	0x1
 2185 086a 5701     		.2byte	0x157
 2186 086c E0000000 		.4byte	0xe0
 2187 0870 4B040000 		.4byte	.LLST26
 2188 0874 26       		.uleb128 0x26
 2189 0875 63747000 		.ascii	"ctp\000"
 2190 0879 01       		.byte	0x1
 2191 087a 5801     		.2byte	0x158
 2192 087c 2A020000 		.4byte	0x22a
 2193 0880 77040000 		.4byte	.LLST27
 2194 0884 26       		.uleb128 0x26
 2195 0885 6D00     		.ascii	"m\000"
 2196 0887 01       		.byte	0x1
 2197 0888 5901     		.2byte	0x159
 2198 088a E0000000 		.4byte	0xe0
 2199 088e 8A040000 		.4byte	.LLST28
 2200 0892 17       		.uleb128 0x17
 2201 0893 0E000000 		.4byte	.LVL79
 2202 0897 2A0B0000 		.4byte	0xb2a
 2203 089b 1E       		.uleb128 0x1e
 2204 089c 1E000000 		.4byte	.LVL81
 2205 08a0 5B0B0000 		.4byte	0xb5b
 2206 08a4 AE080000 		.4byte	0x8ae
ARM GAS  /var/folders/qh/xwg3v3kj02qbxczjpdb8lzfr0000gn/T//ccTDBctj.s 			page 40


 2207 08a8 1F       		.uleb128 0x1f
 2208 08a9 01       		.uleb128 0x1
 2209 08aa 50       		.byte	0x50
 2210 08ab 01       		.uleb128 0x1
 2211 08ac 38       		.byte	0x38
 2212 08ad 00       		.byte	0
 2213 08ae 17       		.uleb128 0x17
 2214 08af 30000000 		.4byte	.LVL85
 2215 08b3 310B0000 		.4byte	0xb31
 2216 08b7 00       		.byte	0
 2217 08b8 24       		.uleb128 0x24
 2218 08b9 CC000000 		.4byte	.LASF87
 2219 08bd 01       		.byte	0x1
 2220 08be 7401     		.2byte	0x174
 2221 08c0 E0000000 		.4byte	0xe0
 2222 08c4 00000000 		.4byte	.LFB19
 2223 08c8 38000000 		.4byte	.LFE19-.LFB19
 2224 08cc 01       		.uleb128 0x1
 2225 08cd 9C       		.byte	0x9c
 2226 08ce 26090000 		.4byte	0x926
 2227 08d2 23       		.uleb128 0x23
 2228 08d3 24010000 		.4byte	.LASF73
 2229 08d7 01       		.byte	0x1
 2230 08d8 7401     		.2byte	0x174
 2231 08da E0000000 		.4byte	0xe0
 2232 08de BE040000 		.4byte	.LLST29
 2233 08e2 26       		.uleb128 0x26
 2234 08e3 63747000 		.ascii	"ctp\000"
 2235 08e7 01       		.byte	0x1
 2236 08e8 7501     		.2byte	0x175
 2237 08ea 2A020000 		.4byte	0x22a
 2238 08ee EA040000 		.4byte	.LLST30
 2239 08f2 26       		.uleb128 0x26
 2240 08f3 6D00     		.ascii	"m\000"
 2241 08f5 01       		.byte	0x1
 2242 08f6 7601     		.2byte	0x176
 2243 08f8 E0000000 		.4byte	0xe0
 2244 08fc FD040000 		.4byte	.LLST31
 2245 0900 17       		.uleb128 0x17
 2246 0901 0E000000 		.4byte	.LVL90
 2247 0905 2A0B0000 		.4byte	0xb2a
 2248 0909 1E       		.uleb128 0x1e
 2249 090a 1E000000 		.4byte	.LVL92
 2250 090e 5B0B0000 		.4byte	0xb5b
 2251 0912 1C090000 		.4byte	0x91c
 2252 0916 1F       		.uleb128 0x1f
 2253 0917 01       		.uleb128 0x1
 2254 0918 50       		.byte	0x50
 2255 0919 01       		.uleb128 0x1
 2256 091a 38       		.byte	0x38
 2257 091b 00       		.byte	0
 2258 091c 17       		.uleb128 0x17
 2259 091d 2C000000 		.4byte	.LVL95
 2260 0921 310B0000 		.4byte	0xb31
 2261 0925 00       		.byte	0
 2262 0926 24       		.uleb128 0x24
 2263 0927 6C030000 		.4byte	.LASF88
ARM GAS  /var/folders/qh/xwg3v3kj02qbxczjpdb8lzfr0000gn/T//ccTDBctj.s 			page 41


 2264 092b 01       		.byte	0x1
 2265 092c 9001     		.2byte	0x190
 2266 092e E0000000 		.4byte	0xe0
 2267 0932 00000000 		.4byte	.LFB20
 2268 0936 34000000 		.4byte	.LFE20-.LFB20
 2269 093a 01       		.uleb128 0x1
 2270 093b 9C       		.byte	0x9c
 2271 093c 86090000 		.4byte	0x986
 2272 0940 23       		.uleb128 0x23
 2273 0941 24010000 		.4byte	.LASF73
 2274 0945 01       		.byte	0x1
 2275 0946 9001     		.2byte	0x190
 2276 0948 E0000000 		.4byte	0xe0
 2277 094c 26050000 		.4byte	.LLST32
 2278 0950 26       		.uleb128 0x26
 2279 0951 63747000 		.ascii	"ctp\000"
 2280 0955 01       		.byte	0x1
 2281 0956 9101     		.2byte	0x191
 2282 0958 2A020000 		.4byte	0x22a
 2283 095c 4F050000 		.4byte	.LLST33
 2284 0960 17       		.uleb128 0x17
 2285 0961 0E000000 		.4byte	.LVL101
 2286 0965 2A0B0000 		.4byte	0xb2a
 2287 0969 1E       		.uleb128 0x1e
 2288 096a 20000000 		.4byte	.LVL102
 2289 096e 5B0B0000 		.4byte	0xb5b
 2290 0972 7C090000 		.4byte	0x97c
 2291 0976 1F       		.uleb128 0x1f
 2292 0977 01       		.uleb128 0x1
 2293 0978 50       		.byte	0x50
 2294 0979 01       		.uleb128 0x1
 2295 097a 39       		.byte	0x39
 2296 097b 00       		.byte	0
 2297 097c 17       		.uleb128 0x17
 2298 097d 2A000000 		.4byte	.LVL103
 2299 0981 310B0000 		.4byte	0xb31
 2300 0985 00       		.byte	0
 2301 0986 24       		.uleb128 0x24
 2302 0987 20050000 		.4byte	.LASF89
 2303 098b 01       		.byte	0x1
 2304 098c B701     		.2byte	0x1b7
 2305 098e E0000000 		.4byte	0xe0
 2306 0992 00000000 		.4byte	.LFB21
 2307 0996 50000000 		.4byte	.LFE21-.LFB21
 2308 099a 01       		.uleb128 0x1
 2309 099b 9C       		.byte	0x9c
 2310 099c 130A0000 		.4byte	0xa13
 2311 09a0 23       		.uleb128 0x23
 2312 09a1 24010000 		.4byte	.LASF73
 2313 09a5 01       		.byte	0x1
 2314 09a6 B701     		.2byte	0x1b7
 2315 09a8 E0000000 		.4byte	0xe0
 2316 09ac 62050000 		.4byte	.LLST34
 2317 09b0 23       		.uleb128 0x23
 2318 09b1 67030000 		.4byte	.LASF90
 2319 09b5 01       		.byte	0x1
 2320 09b6 B701     		.2byte	0x1b7
ARM GAS  /var/folders/qh/xwg3v3kj02qbxczjpdb8lzfr0000gn/T//ccTDBctj.s 			page 42


 2321 09b8 F6000000 		.4byte	0xf6
 2322 09bc 99050000 		.4byte	.LLST35
 2323 09c0 26       		.uleb128 0x26
 2324 09c1 63747000 		.ascii	"ctp\000"
 2325 09c5 01       		.byte	0x1
 2326 09c6 B801     		.2byte	0x1b8
 2327 09c8 2A020000 		.4byte	0x22a
 2328 09cc D0050000 		.4byte	.LLST36
 2329 09d0 26       		.uleb128 0x26
 2330 09d1 6D00     		.ascii	"m\000"
 2331 09d3 01       		.byte	0x1
 2332 09d4 B901     		.2byte	0x1b9
 2333 09d6 E0000000 		.4byte	0xe0
 2334 09da EE050000 		.4byte	.LLST37
 2335 09de 17       		.uleb128 0x17
 2336 09df 10000000 		.4byte	.LVL108
 2337 09e3 2A0B0000 		.4byte	0xb2a
 2338 09e7 1E       		.uleb128 0x1e
 2339 09e8 26000000 		.4byte	.LVL110
 2340 09ec 6C0B0000 		.4byte	0xb6c
 2341 09f0 000A0000 		.4byte	0xa00
 2342 09f4 1F       		.uleb128 0x1f
 2343 09f5 01       		.uleb128 0x1
 2344 09f6 51       		.byte	0x51
 2345 09f7 02       		.uleb128 0x2
 2346 09f8 76       		.byte	0x76
 2347 09f9 00       		.sleb128 0
 2348 09fa 1F       		.uleb128 0x1f
 2349 09fb 01       		.uleb128 0x1
 2350 09fc 50       		.byte	0x50
 2351 09fd 01       		.uleb128 0x1
 2352 09fe 38       		.byte	0x38
 2353 09ff 00       		.byte	0
 2354 0a00 17       		.uleb128 0x17
 2355 0a01 3C000000 		.4byte	.LVL114
 2356 0a05 310B0000 		.4byte	0xb31
 2357 0a09 17       		.uleb128 0x17
 2358 0a0a 46000000 		.4byte	.LVL119
 2359 0a0e 310B0000 		.4byte	0xb31
 2360 0a12 00       		.byte	0
 2361 0a13 24       		.uleb128 0x24
 2362 0a14 57000000 		.4byte	.LASF91
 2363 0a18 01       		.byte	0x1
 2364 0a19 E201     		.2byte	0x1e2
 2365 0a1b E0000000 		.4byte	0xe0
 2366 0a1f 00000000 		.4byte	.LFB22
 2367 0a23 4C000000 		.4byte	.LFE22-.LFB22
 2368 0a27 01       		.uleb128 0x1
 2369 0a28 9C       		.byte	0x9c
 2370 0a29 A00A0000 		.4byte	0xaa0
 2371 0a2d 23       		.uleb128 0x23
 2372 0a2e 24010000 		.4byte	.LASF73
 2373 0a32 01       		.byte	0x1
 2374 0a33 E201     		.2byte	0x1e2
 2375 0a35 E0000000 		.4byte	0xe0
 2376 0a39 17060000 		.4byte	.LLST38
 2377 0a3d 23       		.uleb128 0x23
ARM GAS  /var/folders/qh/xwg3v3kj02qbxczjpdb8lzfr0000gn/T//ccTDBctj.s 			page 43


 2378 0a3e 67030000 		.4byte	.LASF90
 2379 0a42 01       		.byte	0x1
 2380 0a43 E201     		.2byte	0x1e2
 2381 0a45 F6000000 		.4byte	0xf6
 2382 0a49 4E060000 		.4byte	.LLST39
 2383 0a4d 26       		.uleb128 0x26
 2384 0a4e 63747000 		.ascii	"ctp\000"
 2385 0a52 01       		.byte	0x1
 2386 0a53 E301     		.2byte	0x1e3
 2387 0a55 2A020000 		.4byte	0x22a
 2388 0a59 85060000 		.4byte	.LLST40
 2389 0a5d 26       		.uleb128 0x26
 2390 0a5e 6D00     		.ascii	"m\000"
 2391 0a60 01       		.byte	0x1
 2392 0a61 E401     		.2byte	0x1e4
 2393 0a63 E0000000 		.4byte	0xe0
 2394 0a67 A3060000 		.4byte	.LLST41
 2395 0a6b 17       		.uleb128 0x17
 2396 0a6c 10000000 		.4byte	.LVL122
 2397 0a70 2A0B0000 		.4byte	0xb2a
 2398 0a74 1E       		.uleb128 0x1e
 2399 0a75 26000000 		.4byte	.LVL124
 2400 0a79 6C0B0000 		.4byte	0xb6c
 2401 0a7d 8D0A0000 		.4byte	0xa8d
 2402 0a81 1F       		.uleb128 0x1f
 2403 0a82 01       		.uleb128 0x1
 2404 0a83 51       		.byte	0x51
 2405 0a84 02       		.uleb128 0x2
 2406 0a85 77       		.byte	0x77
 2407 0a86 00       		.sleb128 0
 2408 0a87 1F       		.uleb128 0x1f
 2409 0a88 01       		.uleb128 0x1
 2410 0a89 50       		.byte	0x50
 2411 0a8a 01       		.uleb128 0x1
 2412 0a8b 38       		.byte	0x38
 2413 0a8c 00       		.byte	0
 2414 0a8d 17       		.uleb128 0x17
 2415 0a8e 38000000 		.4byte	.LVL127
 2416 0a92 310B0000 		.4byte	0xb31
 2417 0a96 17       		.uleb128 0x17
 2418 0a97 42000000 		.4byte	.LVL133
 2419 0a9b 310B0000 		.4byte	0xb31
 2420 0a9f 00       		.byte	0
 2421 0aa0 24       		.uleb128 0x24
 2422 0aa1 8C000000 		.4byte	.LASF92
 2423 0aa5 01       		.byte	0x1
 2424 0aa6 0B02     		.2byte	0x20b
 2425 0aa8 E0000000 		.4byte	0xe0
 2426 0aac 00000000 		.4byte	.LFB23
 2427 0ab0 4C000000 		.4byte	.LFE23-.LFB23
 2428 0ab4 01       		.uleb128 0x1
 2429 0ab5 9C       		.byte	0x9c
 2430 0ab6 1F0B0000 		.4byte	0xb1f
 2431 0aba 23       		.uleb128 0x23
 2432 0abb 24010000 		.4byte	.LASF73
 2433 0abf 01       		.byte	0x1
 2434 0ac0 0B02     		.2byte	0x20b
ARM GAS  /var/folders/qh/xwg3v3kj02qbxczjpdb8lzfr0000gn/T//ccTDBctj.s 			page 44


 2435 0ac2 E0000000 		.4byte	0xe0
 2436 0ac6 CC060000 		.4byte	.LLST42
 2437 0aca 23       		.uleb128 0x23
 2438 0acb 67030000 		.4byte	.LASF90
 2439 0acf 01       		.byte	0x1
 2440 0ad0 0B02     		.2byte	0x20b
 2441 0ad2 F6000000 		.4byte	0xf6
 2442 0ad6 03070000 		.4byte	.LLST43
 2443 0ada 26       		.uleb128 0x26
 2444 0adb 63747000 		.ascii	"ctp\000"
 2445 0adf 01       		.byte	0x1
 2446 0ae0 0C02     		.2byte	0x20c
 2447 0ae2 2A020000 		.4byte	0x22a
 2448 0ae6 3A070000 		.4byte	.LLST44
 2449 0aea 17       		.uleb128 0x17
 2450 0aeb 10000000 		.4byte	.LVL136
 2451 0aef 2A0B0000 		.4byte	0xb2a
 2452 0af3 1E       		.uleb128 0x1e
 2453 0af4 28000000 		.4byte	.LVL137
 2454 0af8 6C0B0000 		.4byte	0xb6c
 2455 0afc 0C0B0000 		.4byte	0xb0c
 2456 0b00 1F       		.uleb128 0x1f
 2457 0b01 01       		.uleb128 0x1
 2458 0b02 51       		.byte	0x51
 2459 0b03 02       		.uleb128 0x2
 2460 0b04 76       		.byte	0x76
 2461 0b05 00       		.sleb128 0
 2462 0b06 1F       		.uleb128 0x1f
 2463 0b07 01       		.uleb128 0x1
 2464 0b08 50       		.byte	0x50
 2465 0b09 01       		.uleb128 0x1
 2466 0b0a 39       		.byte	0x39
 2467 0b0b 00       		.byte	0
 2468 0b0c 17       		.uleb128 0x17
 2469 0b0d 36000000 		.4byte	.LVL138
 2470 0b11 310B0000 		.4byte	0xb31
 2471 0b15 17       		.uleb128 0x17
 2472 0b16 40000000 		.4byte	.LVL143
 2473 0b1a 310B0000 		.4byte	0xb31
 2474 0b1e 00       		.byte	0
 2475 0b1f 28       		.uleb128 0x28
 2476 0b20 DF040000 		.4byte	.LASF103
 2477 0b24 07       		.byte	0x7
 2478 0b25 68       		.byte	0x68
 2479 0b26 56030000 		.4byte	0x356
 2480 0b2a 29       		.uleb128 0x29
 2481 0b2b 0D000000 		.4byte	.LASF93
 2482 0b2f 0A       		.byte	0xa
 2483 0b30 E0       		.byte	0xe0
 2484 0b31 29       		.uleb128 0x29
 2485 0b32 4A020000 		.4byte	.LASF94
 2486 0b36 0A       		.byte	0xa
 2487 0b37 E1       		.byte	0xe1
 2488 0b38 2A       		.uleb128 0x2a
 2489 0b39 7C040000 		.4byte	.LASF104
 2490 0b3d 07       		.byte	0x7
 2491 0b3e 89       		.byte	0x89
ARM GAS  /var/folders/qh/xwg3v3kj02qbxczjpdb8lzfr0000gn/T//ccTDBctj.s 			page 45


 2492 0b3f 2A020000 		.4byte	0x22a
 2493 0b43 4D0B0000 		.4byte	0xb4d
 2494 0b47 0D       		.uleb128 0xd
 2495 0b48 2A020000 		.4byte	0x22a
 2496 0b4c 00       		.byte	0
 2497 0b4d 29       		.uleb128 0x29
 2498 0b4e 60050000 		.4byte	.LASF95
 2499 0b52 0A       		.byte	0xa
 2500 0b53 E6       		.byte	0xe6
 2501 0b54 29       		.uleb128 0x29
 2502 0b55 0B010000 		.4byte	.LASF96
 2503 0b59 07       		.byte	0x7
 2504 0b5a 95       		.byte	0x95
 2505 0b5b 2B       		.uleb128 0x2b
 2506 0b5c 52040000 		.4byte	.LASF98
 2507 0b60 07       		.byte	0x7
 2508 0b61 8C       		.byte	0x8c
 2509 0b62 6C0B0000 		.4byte	0xb6c
 2510 0b66 0D       		.uleb128 0xd
 2511 0b67 9E000000 		.4byte	0x9e
 2512 0b6b 00       		.byte	0
 2513 0b6c 2C       		.uleb128 0x2c
 2514 0b6d D9000000 		.4byte	.LASF99
 2515 0b71 07       		.byte	0x7
 2516 0b72 8F       		.byte	0x8f
 2517 0b73 CA000000 		.4byte	0xca
 2518 0b77 0D       		.uleb128 0xd
 2519 0b78 9E000000 		.4byte	0x9e
 2520 0b7c 0D       		.uleb128 0xd
 2521 0b7d F6000000 		.4byte	0xf6
 2522 0b81 00       		.byte	0
 2523 0b82 00       		.byte	0
 2524              		.section	.debug_abbrev,"",%progbits
 2525              	.Ldebug_abbrev0:
 2526 0000 01       		.uleb128 0x1
 2527 0001 11       		.uleb128 0x11
 2528 0002 01       		.byte	0x1
 2529 0003 25       		.uleb128 0x25
 2530 0004 0E       		.uleb128 0xe
 2531 0005 13       		.uleb128 0x13
 2532 0006 0B       		.uleb128 0xb
 2533 0007 03       		.uleb128 0x3
 2534 0008 0E       		.uleb128 0xe
 2535 0009 1B       		.uleb128 0x1b
 2536 000a 0E       		.uleb128 0xe
 2537 000b 55       		.uleb128 0x55
 2538 000c 17       		.uleb128 0x17
 2539 000d 11       		.uleb128 0x11
 2540 000e 01       		.uleb128 0x1
 2541 000f 10       		.uleb128 0x10
 2542 0010 17       		.uleb128 0x17
 2543 0011 00       		.byte	0
 2544 0012 00       		.byte	0
 2545 0013 02       		.uleb128 0x2
 2546 0014 24       		.uleb128 0x24
 2547 0015 00       		.byte	0
 2548 0016 0B       		.uleb128 0xb
ARM GAS  /var/folders/qh/xwg3v3kj02qbxczjpdb8lzfr0000gn/T//ccTDBctj.s 			page 46


 2549 0017 0B       		.uleb128 0xb
 2550 0018 3E       		.uleb128 0x3e
 2551 0019 0B       		.uleb128 0xb
 2552 001a 03       		.uleb128 0x3
 2553 001b 08       		.uleb128 0x8
 2554 001c 00       		.byte	0
 2555 001d 00       		.byte	0
 2556 001e 03       		.uleb128 0x3
 2557 001f 24       		.uleb128 0x24
 2558 0020 00       		.byte	0
 2559 0021 0B       		.uleb128 0xb
 2560 0022 0B       		.uleb128 0xb
 2561 0023 3E       		.uleb128 0x3e
 2562 0024 0B       		.uleb128 0xb
 2563 0025 03       		.uleb128 0x3
 2564 0026 0E       		.uleb128 0xe
 2565 0027 00       		.byte	0
 2566 0028 00       		.byte	0
 2567 0029 04       		.uleb128 0x4
 2568 002a 16       		.uleb128 0x16
 2569 002b 00       		.byte	0
 2570 002c 03       		.uleb128 0x3
 2571 002d 0E       		.uleb128 0xe
 2572 002e 3A       		.uleb128 0x3a
 2573 002f 0B       		.uleb128 0xb
 2574 0030 3B       		.uleb128 0x3b
 2575 0031 0B       		.uleb128 0xb
 2576 0032 49       		.uleb128 0x49
 2577 0033 13       		.uleb128 0x13
 2578 0034 00       		.byte	0
 2579 0035 00       		.byte	0
 2580 0036 05       		.uleb128 0x5
 2581 0037 13       		.uleb128 0x13
 2582 0038 01       		.byte	0x1
 2583 0039 03       		.uleb128 0x3
 2584 003a 0E       		.uleb128 0xe
 2585 003b 0B       		.uleb128 0xb
 2586 003c 0B       		.uleb128 0xb
 2587 003d 3A       		.uleb128 0x3a
 2588 003e 0B       		.uleb128 0xb
 2589 003f 3B       		.uleb128 0x3b
 2590 0040 0B       		.uleb128 0xb
 2591 0041 01       		.uleb128 0x1
 2592 0042 13       		.uleb128 0x13
 2593 0043 00       		.byte	0
 2594 0044 00       		.byte	0
 2595 0045 06       		.uleb128 0x6
 2596 0046 0D       		.uleb128 0xd
 2597 0047 00       		.byte	0
 2598 0048 03       		.uleb128 0x3
 2599 0049 0E       		.uleb128 0xe
 2600 004a 3A       		.uleb128 0x3a
 2601 004b 0B       		.uleb128 0xb
 2602 004c 3B       		.uleb128 0x3b
 2603 004d 0B       		.uleb128 0xb
 2604 004e 49       		.uleb128 0x49
 2605 004f 13       		.uleb128 0x13
ARM GAS  /var/folders/qh/xwg3v3kj02qbxczjpdb8lzfr0000gn/T//ccTDBctj.s 			page 47


 2606 0050 38       		.uleb128 0x38
 2607 0051 0B       		.uleb128 0xb
 2608 0052 00       		.byte	0
 2609 0053 00       		.byte	0
 2610 0054 07       		.uleb128 0x7
 2611 0055 0D       		.uleb128 0xd
 2612 0056 00       		.byte	0
 2613 0057 03       		.uleb128 0x3
 2614 0058 08       		.uleb128 0x8
 2615 0059 3A       		.uleb128 0x3a
 2616 005a 0B       		.uleb128 0xb
 2617 005b 3B       		.uleb128 0x3b
 2618 005c 0B       		.uleb128 0xb
 2619 005d 49       		.uleb128 0x49
 2620 005e 13       		.uleb128 0x13
 2621 005f 38       		.uleb128 0x38
 2622 0060 0B       		.uleb128 0xb
 2623 0061 00       		.byte	0
 2624 0062 00       		.byte	0
 2625 0063 08       		.uleb128 0x8
 2626 0064 13       		.uleb128 0x13
 2627 0065 01       		.byte	0x1
 2628 0066 0B       		.uleb128 0xb
 2629 0067 0B       		.uleb128 0xb
 2630 0068 3A       		.uleb128 0x3a
 2631 0069 0B       		.uleb128 0xb
 2632 006a 3B       		.uleb128 0x3b
 2633 006b 0B       		.uleb128 0xb
 2634 006c 01       		.uleb128 0x1
 2635 006d 13       		.uleb128 0x13
 2636 006e 00       		.byte	0
 2637 006f 00       		.byte	0
 2638 0070 09       		.uleb128 0x9
 2639 0071 0F       		.uleb128 0xf
 2640 0072 00       		.byte	0
 2641 0073 0B       		.uleb128 0xb
 2642 0074 0B       		.uleb128 0xb
 2643 0075 49       		.uleb128 0x49
 2644 0076 13       		.uleb128 0x13
 2645 0077 00       		.byte	0
 2646 0078 00       		.byte	0
 2647 0079 0A       		.uleb128 0xa
 2648 007a 0F       		.uleb128 0xf
 2649 007b 00       		.byte	0
 2650 007c 0B       		.uleb128 0xb
 2651 007d 0B       		.uleb128 0xb
 2652 007e 00       		.byte	0
 2653 007f 00       		.byte	0
 2654 0080 0B       		.uleb128 0xb
 2655 0081 35       		.uleb128 0x35
 2656 0082 00       		.byte	0
 2657 0083 49       		.uleb128 0x49
 2658 0084 13       		.uleb128 0x13
 2659 0085 00       		.byte	0
 2660 0086 00       		.byte	0
 2661 0087 0C       		.uleb128 0xc
 2662 0088 15       		.uleb128 0x15
ARM GAS  /var/folders/qh/xwg3v3kj02qbxczjpdb8lzfr0000gn/T//ccTDBctj.s 			page 48


 2663 0089 01       		.byte	0x1
 2664 008a 27       		.uleb128 0x27
 2665 008b 19       		.uleb128 0x19
 2666 008c 01       		.uleb128 0x1
 2667 008d 13       		.uleb128 0x13
 2668 008e 00       		.byte	0
 2669 008f 00       		.byte	0
 2670 0090 0D       		.uleb128 0xd
 2671 0091 05       		.uleb128 0x5
 2672 0092 00       		.byte	0
 2673 0093 49       		.uleb128 0x49
 2674 0094 13       		.uleb128 0x13
 2675 0095 00       		.byte	0
 2676 0096 00       		.byte	0
 2677 0097 0E       		.uleb128 0xe
 2678 0098 17       		.uleb128 0x17
 2679 0099 01       		.byte	0x1
 2680 009a 0B       		.uleb128 0xb
 2681 009b 0B       		.uleb128 0xb
 2682 009c 3A       		.uleb128 0x3a
 2683 009d 0B       		.uleb128 0xb
 2684 009e 3B       		.uleb128 0x3b
 2685 009f 0B       		.uleb128 0xb
 2686 00a0 01       		.uleb128 0x1
 2687 00a1 13       		.uleb128 0x13
 2688 00a2 00       		.byte	0
 2689 00a3 00       		.byte	0
 2690 00a4 0F       		.uleb128 0xf
 2691 00a5 0D       		.uleb128 0xd
 2692 00a6 00       		.byte	0
 2693 00a7 03       		.uleb128 0x3
 2694 00a8 0E       		.uleb128 0xe
 2695 00a9 3A       		.uleb128 0x3a
 2696 00aa 0B       		.uleb128 0xb
 2697 00ab 3B       		.uleb128 0x3b
 2698 00ac 0B       		.uleb128 0xb
 2699 00ad 49       		.uleb128 0x49
 2700 00ae 13       		.uleb128 0x13
 2701 00af 00       		.byte	0
 2702 00b0 00       		.byte	0
 2703 00b1 10       		.uleb128 0x10
 2704 00b2 26       		.uleb128 0x26
 2705 00b3 00       		.byte	0
 2706 00b4 49       		.uleb128 0x49
 2707 00b5 13       		.uleb128 0x13
 2708 00b6 00       		.byte	0
 2709 00b7 00       		.byte	0
 2710 00b8 11       		.uleb128 0x11
 2711 00b9 2E       		.uleb128 0x2e
 2712 00ba 01       		.byte	0x1
 2713 00bb 3F       		.uleb128 0x3f
 2714 00bc 19       		.uleb128 0x19
 2715 00bd 03       		.uleb128 0x3
 2716 00be 0E       		.uleb128 0xe
 2717 00bf 3A       		.uleb128 0x3a
 2718 00c0 0B       		.uleb128 0xb
 2719 00c1 3B       		.uleb128 0x3b
ARM GAS  /var/folders/qh/xwg3v3kj02qbxczjpdb8lzfr0000gn/T//ccTDBctj.s 			page 49


 2720 00c2 0B       		.uleb128 0xb
 2721 00c3 27       		.uleb128 0x27
 2722 00c4 19       		.uleb128 0x19
 2723 00c5 20       		.uleb128 0x20
 2724 00c6 0B       		.uleb128 0xb
 2725 00c7 01       		.uleb128 0x1
 2726 00c8 13       		.uleb128 0x13
 2727 00c9 00       		.byte	0
 2728 00ca 00       		.byte	0
 2729 00cb 12       		.uleb128 0x12
 2730 00cc 05       		.uleb128 0x5
 2731 00cd 00       		.byte	0
 2732 00ce 03       		.uleb128 0x3
 2733 00cf 08       		.uleb128 0x8
 2734 00d0 3A       		.uleb128 0x3a
 2735 00d1 0B       		.uleb128 0xb
 2736 00d2 3B       		.uleb128 0x3b
 2737 00d3 0B       		.uleb128 0xb
 2738 00d4 49       		.uleb128 0x49
 2739 00d5 13       		.uleb128 0x13
 2740 00d6 00       		.byte	0
 2741 00d7 00       		.byte	0
 2742 00d8 13       		.uleb128 0x13
 2743 00d9 05       		.uleb128 0x5
 2744 00da 00       		.byte	0
 2745 00db 03       		.uleb128 0x3
 2746 00dc 0E       		.uleb128 0xe
 2747 00dd 3A       		.uleb128 0x3a
 2748 00de 0B       		.uleb128 0xb
 2749 00df 3B       		.uleb128 0x3b
 2750 00e0 0B       		.uleb128 0xb
 2751 00e1 49       		.uleb128 0x49
 2752 00e2 13       		.uleb128 0x13
 2753 00e3 00       		.byte	0
 2754 00e4 00       		.byte	0
 2755 00e5 14       		.uleb128 0x14
 2756 00e6 2E       		.uleb128 0x2e
 2757 00e7 01       		.byte	0x1
 2758 00e8 3F       		.uleb128 0x3f
 2759 00e9 19       		.uleb128 0x19
 2760 00ea 03       		.uleb128 0x3
 2761 00eb 0E       		.uleb128 0xe
 2762 00ec 3A       		.uleb128 0x3a
 2763 00ed 0B       		.uleb128 0xb
 2764 00ee 3B       		.uleb128 0x3b
 2765 00ef 0B       		.uleb128 0xb
 2766 00f0 27       		.uleb128 0x27
 2767 00f1 19       		.uleb128 0x19
 2768 00f2 11       		.uleb128 0x11
 2769 00f3 01       		.uleb128 0x1
 2770 00f4 12       		.uleb128 0x12
 2771 00f5 06       		.uleb128 0x6
 2772 00f6 40       		.uleb128 0x40
 2773 00f7 18       		.uleb128 0x18
 2774 00f8 9742     		.uleb128 0x2117
 2775 00fa 19       		.uleb128 0x19
 2776 00fb 01       		.uleb128 0x1
ARM GAS  /var/folders/qh/xwg3v3kj02qbxczjpdb8lzfr0000gn/T//ccTDBctj.s 			page 50


 2777 00fc 13       		.uleb128 0x13
 2778 00fd 00       		.byte	0
 2779 00fe 00       		.byte	0
 2780 00ff 15       		.uleb128 0x15
 2781 0100 05       		.uleb128 0x5
 2782 0101 00       		.byte	0
 2783 0102 03       		.uleb128 0x3
 2784 0103 08       		.uleb128 0x8
 2785 0104 3A       		.uleb128 0x3a
 2786 0105 0B       		.uleb128 0xb
 2787 0106 3B       		.uleb128 0x3b
 2788 0107 0B       		.uleb128 0xb
 2789 0108 49       		.uleb128 0x49
 2790 0109 13       		.uleb128 0x13
 2791 010a 02       		.uleb128 0x2
 2792 010b 17       		.uleb128 0x17
 2793 010c 00       		.byte	0
 2794 010d 00       		.byte	0
 2795 010e 16       		.uleb128 0x16
 2796 010f 05       		.uleb128 0x5
 2797 0110 00       		.byte	0
 2798 0111 03       		.uleb128 0x3
 2799 0112 0E       		.uleb128 0xe
 2800 0113 3A       		.uleb128 0x3a
 2801 0114 0B       		.uleb128 0xb
 2802 0115 3B       		.uleb128 0x3b
 2803 0116 0B       		.uleb128 0xb
 2804 0117 49       		.uleb128 0x49
 2805 0118 13       		.uleb128 0x13
 2806 0119 02       		.uleb128 0x2
 2807 011a 17       		.uleb128 0x17
 2808 011b 00       		.byte	0
 2809 011c 00       		.byte	0
 2810 011d 17       		.uleb128 0x17
 2811 011e 898201   		.uleb128 0x4109
 2812 0121 00       		.byte	0
 2813 0122 11       		.uleb128 0x11
 2814 0123 01       		.uleb128 0x1
 2815 0124 31       		.uleb128 0x31
 2816 0125 13       		.uleb128 0x13
 2817 0126 00       		.byte	0
 2818 0127 00       		.byte	0
 2819 0128 18       		.uleb128 0x18
 2820 0129 34       		.uleb128 0x34
 2821 012a 00       		.byte	0
 2822 012b 03       		.uleb128 0x3
 2823 012c 08       		.uleb128 0x8
 2824 012d 3A       		.uleb128 0x3a
 2825 012e 0B       		.uleb128 0xb
 2826 012f 3B       		.uleb128 0x3b
 2827 0130 0B       		.uleb128 0xb
 2828 0131 49       		.uleb128 0x49
 2829 0132 13       		.uleb128 0x13
 2830 0133 02       		.uleb128 0x2
 2831 0134 17       		.uleb128 0x17
 2832 0135 00       		.byte	0
 2833 0136 00       		.byte	0
ARM GAS  /var/folders/qh/xwg3v3kj02qbxczjpdb8lzfr0000gn/T//ccTDBctj.s 			page 51


 2834 0137 19       		.uleb128 0x19
 2835 0138 2E       		.uleb128 0x2e
 2836 0139 01       		.byte	0x1
 2837 013a 3F       		.uleb128 0x3f
 2838 013b 19       		.uleb128 0x19
 2839 013c 03       		.uleb128 0x3
 2840 013d 0E       		.uleb128 0xe
 2841 013e 3A       		.uleb128 0x3a
 2842 013f 0B       		.uleb128 0xb
 2843 0140 3B       		.uleb128 0x3b
 2844 0141 0B       		.uleb128 0xb
 2845 0142 27       		.uleb128 0x27
 2846 0143 19       		.uleb128 0x19
 2847 0144 49       		.uleb128 0x49
 2848 0145 13       		.uleb128 0x13
 2849 0146 11       		.uleb128 0x11
 2850 0147 01       		.uleb128 0x1
 2851 0148 12       		.uleb128 0x12
 2852 0149 06       		.uleb128 0x6
 2853 014a 40       		.uleb128 0x40
 2854 014b 18       		.uleb128 0x18
 2855 014c 9742     		.uleb128 0x2117
 2856 014e 19       		.uleb128 0x19
 2857 014f 01       		.uleb128 0x1
 2858 0150 13       		.uleb128 0x13
 2859 0151 00       		.byte	0
 2860 0152 00       		.byte	0
 2861 0153 1A       		.uleb128 0x1a
 2862 0154 34       		.uleb128 0x34
 2863 0155 00       		.byte	0
 2864 0156 03       		.uleb128 0x3
 2865 0157 0E       		.uleb128 0xe
 2866 0158 3A       		.uleb128 0x3a
 2867 0159 0B       		.uleb128 0xb
 2868 015a 3B       		.uleb128 0x3b
 2869 015b 0B       		.uleb128 0xb
 2870 015c 49       		.uleb128 0x49
 2871 015d 13       		.uleb128 0x13
 2872 015e 02       		.uleb128 0x2
 2873 015f 17       		.uleb128 0x17
 2874 0160 00       		.byte	0
 2875 0161 00       		.byte	0
 2876 0162 1B       		.uleb128 0x1b
 2877 0163 2E       		.uleb128 0x2e
 2878 0164 01       		.byte	0x1
 2879 0165 31       		.uleb128 0x31
 2880 0166 13       		.uleb128 0x13
 2881 0167 11       		.uleb128 0x11
 2882 0168 01       		.uleb128 0x1
 2883 0169 12       		.uleb128 0x12
 2884 016a 06       		.uleb128 0x6
 2885 016b 40       		.uleb128 0x40
 2886 016c 18       		.uleb128 0x18
 2887 016d 9742     		.uleb128 0x2117
 2888 016f 19       		.uleb128 0x19
 2889 0170 01       		.uleb128 0x1
 2890 0171 13       		.uleb128 0x13
ARM GAS  /var/folders/qh/xwg3v3kj02qbxczjpdb8lzfr0000gn/T//ccTDBctj.s 			page 52


 2891 0172 00       		.byte	0
 2892 0173 00       		.byte	0
 2893 0174 1C       		.uleb128 0x1c
 2894 0175 05       		.uleb128 0x5
 2895 0176 00       		.byte	0
 2896 0177 31       		.uleb128 0x31
 2897 0178 13       		.uleb128 0x13
 2898 0179 02       		.uleb128 0x2
 2899 017a 17       		.uleb128 0x17
 2900 017b 00       		.byte	0
 2901 017c 00       		.byte	0
 2902 017d 1D       		.uleb128 0x1d
 2903 017e 0B       		.uleb128 0xb
 2904 017f 01       		.byte	0x1
 2905 0180 55       		.uleb128 0x55
 2906 0181 17       		.uleb128 0x17
 2907 0182 01       		.uleb128 0x1
 2908 0183 13       		.uleb128 0x13
 2909 0184 00       		.byte	0
 2910 0185 00       		.byte	0
 2911 0186 1E       		.uleb128 0x1e
 2912 0187 898201   		.uleb128 0x4109
 2913 018a 01       		.byte	0x1
 2914 018b 11       		.uleb128 0x11
 2915 018c 01       		.uleb128 0x1
 2916 018d 31       		.uleb128 0x31
 2917 018e 13       		.uleb128 0x13
 2918 018f 01       		.uleb128 0x1
 2919 0190 13       		.uleb128 0x13
 2920 0191 00       		.byte	0
 2921 0192 00       		.byte	0
 2922 0193 1F       		.uleb128 0x1f
 2923 0194 8A8201   		.uleb128 0x410a
 2924 0197 00       		.byte	0
 2925 0198 02       		.uleb128 0x2
 2926 0199 18       		.uleb128 0x18
 2927 019a 9142     		.uleb128 0x2111
 2928 019c 18       		.uleb128 0x18
 2929 019d 00       		.byte	0
 2930 019e 00       		.byte	0
 2931 019f 20       		.uleb128 0x20
 2932 01a0 898201   		.uleb128 0x4109
 2933 01a3 01       		.byte	0x1
 2934 01a4 11       		.uleb128 0x11
 2935 01a5 01       		.uleb128 0x1
 2936 01a6 31       		.uleb128 0x31
 2937 01a7 13       		.uleb128 0x13
 2938 01a8 00       		.byte	0
 2939 01a9 00       		.byte	0
 2940 01aa 21       		.uleb128 0x21
 2941 01ab 2E       		.uleb128 0x2e
 2942 01ac 01       		.byte	0x1
 2943 01ad 3F       		.uleb128 0x3f
 2944 01ae 19       		.uleb128 0x19
 2945 01af 03       		.uleb128 0x3
 2946 01b0 0E       		.uleb128 0xe
 2947 01b1 3A       		.uleb128 0x3a
ARM GAS  /var/folders/qh/xwg3v3kj02qbxczjpdb8lzfr0000gn/T//ccTDBctj.s 			page 53


 2948 01b2 0B       		.uleb128 0xb
 2949 01b3 3B       		.uleb128 0x3b
 2950 01b4 05       		.uleb128 0x5
 2951 01b5 27       		.uleb128 0x27
 2952 01b6 19       		.uleb128 0x19
 2953 01b7 11       		.uleb128 0x11
 2954 01b8 01       		.uleb128 0x1
 2955 01b9 12       		.uleb128 0x12
 2956 01ba 06       		.uleb128 0x6
 2957 01bb 40       		.uleb128 0x40
 2958 01bc 18       		.uleb128 0x18
 2959 01bd 9742     		.uleb128 0x2117
 2960 01bf 19       		.uleb128 0x19
 2961 01c0 01       		.uleb128 0x1
 2962 01c1 13       		.uleb128 0x13
 2963 01c2 00       		.byte	0
 2964 01c3 00       		.byte	0
 2965 01c4 22       		.uleb128 0x22
 2966 01c5 05       		.uleb128 0x5
 2967 01c6 00       		.byte	0
 2968 01c7 03       		.uleb128 0x3
 2969 01c8 08       		.uleb128 0x8
 2970 01c9 3A       		.uleb128 0x3a
 2971 01ca 0B       		.uleb128 0xb
 2972 01cb 3B       		.uleb128 0x3b
 2973 01cc 05       		.uleb128 0x5
 2974 01cd 49       		.uleb128 0x49
 2975 01ce 13       		.uleb128 0x13
 2976 01cf 02       		.uleb128 0x2
 2977 01d0 17       		.uleb128 0x17
 2978 01d1 00       		.byte	0
 2979 01d2 00       		.byte	0
 2980 01d3 23       		.uleb128 0x23
 2981 01d4 05       		.uleb128 0x5
 2982 01d5 00       		.byte	0
 2983 01d6 03       		.uleb128 0x3
 2984 01d7 0E       		.uleb128 0xe
 2985 01d8 3A       		.uleb128 0x3a
 2986 01d9 0B       		.uleb128 0xb
 2987 01da 3B       		.uleb128 0x3b
 2988 01db 05       		.uleb128 0x5
 2989 01dc 49       		.uleb128 0x49
 2990 01dd 13       		.uleb128 0x13
 2991 01de 02       		.uleb128 0x2
 2992 01df 17       		.uleb128 0x17
 2993 01e0 00       		.byte	0
 2994 01e1 00       		.byte	0
 2995 01e2 24       		.uleb128 0x24
 2996 01e3 2E       		.uleb128 0x2e
 2997 01e4 01       		.byte	0x1
 2998 01e5 3F       		.uleb128 0x3f
 2999 01e6 19       		.uleb128 0x19
 3000 01e7 03       		.uleb128 0x3
 3001 01e8 0E       		.uleb128 0xe
 3002 01e9 3A       		.uleb128 0x3a
 3003 01ea 0B       		.uleb128 0xb
 3004 01eb 3B       		.uleb128 0x3b
ARM GAS  /var/folders/qh/xwg3v3kj02qbxczjpdb8lzfr0000gn/T//ccTDBctj.s 			page 54


 3005 01ec 05       		.uleb128 0x5
 3006 01ed 27       		.uleb128 0x27
 3007 01ee 19       		.uleb128 0x19
 3008 01ef 49       		.uleb128 0x49
 3009 01f0 13       		.uleb128 0x13
 3010 01f1 11       		.uleb128 0x11
 3011 01f2 01       		.uleb128 0x1
 3012 01f3 12       		.uleb128 0x12
 3013 01f4 06       		.uleb128 0x6
 3014 01f5 40       		.uleb128 0x40
 3015 01f6 18       		.uleb128 0x18
 3016 01f7 9742     		.uleb128 0x2117
 3017 01f9 19       		.uleb128 0x19
 3018 01fa 01       		.uleb128 0x1
 3019 01fb 13       		.uleb128 0x13
 3020 01fc 00       		.byte	0
 3021 01fd 00       		.byte	0
 3022 01fe 25       		.uleb128 0x25
 3023 01ff 34       		.uleb128 0x34
 3024 0200 00       		.byte	0
 3025 0201 03       		.uleb128 0x3
 3026 0202 0E       		.uleb128 0xe
 3027 0203 3A       		.uleb128 0x3a
 3028 0204 0B       		.uleb128 0xb
 3029 0205 3B       		.uleb128 0x3b
 3030 0206 05       		.uleb128 0x5
 3031 0207 49       		.uleb128 0x49
 3032 0208 13       		.uleb128 0x13
 3033 0209 02       		.uleb128 0x2
 3034 020a 18       		.uleb128 0x18
 3035 020b 00       		.byte	0
 3036 020c 00       		.byte	0
 3037 020d 26       		.uleb128 0x26
 3038 020e 34       		.uleb128 0x34
 3039 020f 00       		.byte	0
 3040 0210 03       		.uleb128 0x3
 3041 0211 08       		.uleb128 0x8
 3042 0212 3A       		.uleb128 0x3a
 3043 0213 0B       		.uleb128 0xb
 3044 0214 3B       		.uleb128 0x3b
 3045 0215 05       		.uleb128 0x5
 3046 0216 49       		.uleb128 0x49
 3047 0217 13       		.uleb128 0x13
 3048 0218 02       		.uleb128 0x2
 3049 0219 17       		.uleb128 0x17
 3050 021a 00       		.byte	0
 3051 021b 00       		.byte	0
 3052 021c 27       		.uleb128 0x27
 3053 021d 898201   		.uleb128 0x4109
 3054 0220 01       		.byte	0x1
 3055 0221 11       		.uleb128 0x11
 3056 0222 01       		.uleb128 0x1
 3057 0223 00       		.byte	0
 3058 0224 00       		.byte	0
 3059 0225 28       		.uleb128 0x28
 3060 0226 34       		.uleb128 0x34
 3061 0227 00       		.byte	0
ARM GAS  /var/folders/qh/xwg3v3kj02qbxczjpdb8lzfr0000gn/T//ccTDBctj.s 			page 55


 3062 0228 03       		.uleb128 0x3
 3063 0229 0E       		.uleb128 0xe
 3064 022a 3A       		.uleb128 0x3a
 3065 022b 0B       		.uleb128 0xb
 3066 022c 3B       		.uleb128 0x3b
 3067 022d 0B       		.uleb128 0xb
 3068 022e 49       		.uleb128 0x49
 3069 022f 13       		.uleb128 0x13
 3070 0230 3F       		.uleb128 0x3f
 3071 0231 19       		.uleb128 0x19
 3072 0232 3C       		.uleb128 0x3c
 3073 0233 19       		.uleb128 0x19
 3074 0234 00       		.byte	0
 3075 0235 00       		.byte	0
 3076 0236 29       		.uleb128 0x29
 3077 0237 2E       		.uleb128 0x2e
 3078 0238 00       		.byte	0
 3079 0239 3F       		.uleb128 0x3f
 3080 023a 19       		.uleb128 0x19
 3081 023b 03       		.uleb128 0x3
 3082 023c 0E       		.uleb128 0xe
 3083 023d 3A       		.uleb128 0x3a
 3084 023e 0B       		.uleb128 0xb
 3085 023f 3B       		.uleb128 0x3b
 3086 0240 0B       		.uleb128 0xb
 3087 0241 27       		.uleb128 0x27
 3088 0242 19       		.uleb128 0x19
 3089 0243 3C       		.uleb128 0x3c
 3090 0244 19       		.uleb128 0x19
 3091 0245 00       		.byte	0
 3092 0246 00       		.byte	0
 3093 0247 2A       		.uleb128 0x2a
 3094 0248 2E       		.uleb128 0x2e
 3095 0249 01       		.byte	0x1
 3096 024a 3F       		.uleb128 0x3f
 3097 024b 19       		.uleb128 0x19
 3098 024c 03       		.uleb128 0x3
 3099 024d 0E       		.uleb128 0xe
 3100 024e 3A       		.uleb128 0x3a
 3101 024f 0B       		.uleb128 0xb
 3102 0250 3B       		.uleb128 0x3b
 3103 0251 0B       		.uleb128 0xb
 3104 0252 27       		.uleb128 0x27
 3105 0253 19       		.uleb128 0x19
 3106 0254 49       		.uleb128 0x49
 3107 0255 13       		.uleb128 0x13
 3108 0256 3C       		.uleb128 0x3c
 3109 0257 19       		.uleb128 0x19
 3110 0258 01       		.uleb128 0x1
 3111 0259 13       		.uleb128 0x13
 3112 025a 00       		.byte	0
 3113 025b 00       		.byte	0
 3114 025c 2B       		.uleb128 0x2b
 3115 025d 2E       		.uleb128 0x2e
 3116 025e 01       		.byte	0x1
 3117 025f 3F       		.uleb128 0x3f
 3118 0260 19       		.uleb128 0x19
ARM GAS  /var/folders/qh/xwg3v3kj02qbxczjpdb8lzfr0000gn/T//ccTDBctj.s 			page 56


 3119 0261 03       		.uleb128 0x3
 3120 0262 0E       		.uleb128 0xe
 3121 0263 3A       		.uleb128 0x3a
 3122 0264 0B       		.uleb128 0xb
 3123 0265 3B       		.uleb128 0x3b
 3124 0266 0B       		.uleb128 0xb
 3125 0267 27       		.uleb128 0x27
 3126 0268 19       		.uleb128 0x19
 3127 0269 3C       		.uleb128 0x3c
 3128 026a 19       		.uleb128 0x19
 3129 026b 01       		.uleb128 0x1
 3130 026c 13       		.uleb128 0x13
 3131 026d 00       		.byte	0
 3132 026e 00       		.byte	0
 3133 026f 2C       		.uleb128 0x2c
 3134 0270 2E       		.uleb128 0x2e
 3135 0271 01       		.byte	0x1
 3136 0272 3F       		.uleb128 0x3f
 3137 0273 19       		.uleb128 0x19
 3138 0274 03       		.uleb128 0x3
 3139 0275 0E       		.uleb128 0xe
 3140 0276 3A       		.uleb128 0x3a
 3141 0277 0B       		.uleb128 0xb
 3142 0278 3B       		.uleb128 0x3b
 3143 0279 0B       		.uleb128 0xb
 3144 027a 27       		.uleb128 0x27
 3145 027b 19       		.uleb128 0x19
 3146 027c 49       		.uleb128 0x49
 3147 027d 13       		.uleb128 0x13
 3148 027e 3C       		.uleb128 0x3c
 3149 027f 19       		.uleb128 0x19
 3150 0280 00       		.byte	0
 3151 0281 00       		.byte	0
 3152 0282 00       		.byte	0
 3153              		.section	.debug_loc,"",%progbits
 3154              	.Ldebug_loc0:
 3155              	.LLST0:
 3156 0000 00000000 		.4byte	.LVL0
 3157 0004 0D000000 		.4byte	.LVL1-1
 3158 0008 0100     		.2byte	0x1
 3159 000a 50       		.byte	0x50
 3160 000b 0D000000 		.4byte	.LVL1-1
 3161 000f 26000000 		.4byte	.LVL4
 3162 0013 0100     		.2byte	0x1
 3163 0015 55       		.byte	0x55
 3164 0016 26000000 		.4byte	.LVL4
 3165 001a 2C000000 		.4byte	.LFE7
 3166 001e 0400     		.2byte	0x4
 3167 0020 F3       		.byte	0xf3
 3168 0021 01       		.uleb128 0x1
 3169 0022 50       		.byte	0x50
 3170 0023 9F       		.byte	0x9f
 3171 0024 00000000 		.4byte	0
 3172 0028 00000000 		.4byte	0
 3173              	.LLST1:
 3174 002c 00000000 		.4byte	.LVL0
 3175 0030 0D000000 		.4byte	.LVL1-1
ARM GAS  /var/folders/qh/xwg3v3kj02qbxczjpdb8lzfr0000gn/T//ccTDBctj.s 			page 57


 3176 0034 0100     		.2byte	0x1
 3177 0036 51       		.byte	0x51
 3178 0037 0D000000 		.4byte	.LVL1-1
 3179 003b 26000000 		.4byte	.LVL3
 3180 003f 0100     		.2byte	0x1
 3181 0041 54       		.byte	0x54
 3182 0042 26000000 		.4byte	.LVL3
 3183 0046 2C000000 		.4byte	.LFE7
 3184 004a 0400     		.2byte	0x4
 3185 004c F3       		.byte	0xf3
 3186 004d 01       		.uleb128 0x1
 3187 004e 51       		.byte	0x51
 3188 004f 9F       		.byte	0x9f
 3189 0050 00000000 		.4byte	0
 3190 0054 00000000 		.4byte	0
 3191              	.LLST2:
 3192 0058 00000000 		.4byte	.LVL0
 3193 005c 0D000000 		.4byte	.LVL1-1
 3194 0060 0100     		.2byte	0x1
 3195 0062 52       		.byte	0x52
 3196 0063 0D000000 		.4byte	.LVL1-1
 3197 0067 26000000 		.4byte	.LVL5
 3198 006b 0100     		.2byte	0x1
 3199 006d 56       		.byte	0x56
 3200 006e 26000000 		.4byte	.LVL5
 3201 0072 2C000000 		.4byte	.LFE7
 3202 0076 0400     		.2byte	0x4
 3203 0078 F3       		.byte	0xf3
 3204 0079 01       		.uleb128 0x1
 3205 007a 52       		.byte	0x52
 3206 007b 9F       		.byte	0x9f
 3207 007c 00000000 		.4byte	0
 3208 0080 00000000 		.4byte	0
 3209              	.LLST3:
 3210 0084 00000000 		.4byte	.LVL6
 3211 0088 0B000000 		.4byte	.LVL8-1
 3212 008c 0100     		.2byte	0x1
 3213 008e 50       		.byte	0x50
 3214 008f 0B000000 		.4byte	.LVL8-1
 3215 0093 22000000 		.4byte	.LVL13
 3216 0097 0100     		.2byte	0x1
 3217 0099 54       		.byte	0x54
 3218 009a 22000000 		.4byte	.LVL13
 3219 009e 24000000 		.4byte	.LVL14
 3220 00a2 0400     		.2byte	0x4
 3221 00a4 F3       		.byte	0xf3
 3222 00a5 01       		.uleb128 0x1
 3223 00a6 50       		.byte	0x50
 3224 00a7 9F       		.byte	0x9f
 3225 00a8 24000000 		.4byte	.LVL14
 3226 00ac 2A000000 		.4byte	.LFE8
 3227 00b0 0100     		.2byte	0x1
 3228 00b2 54       		.byte	0x54
 3229 00b3 00000000 		.4byte	0
 3230 00b7 00000000 		.4byte	0
 3231              	.LLST4:
 3232 00bb 00000000 		.4byte	.LVL6
ARM GAS  /var/folders/qh/xwg3v3kj02qbxczjpdb8lzfr0000gn/T//ccTDBctj.s 			page 58


 3233 00bf 0B000000 		.4byte	.LVL8-1
 3234 00c3 0100     		.2byte	0x1
 3235 00c5 51       		.byte	0x51
 3236 00c6 0B000000 		.4byte	.LVL8-1
 3237 00ca 1C000000 		.4byte	.LVL11
 3238 00ce 0100     		.2byte	0x1
 3239 00d0 55       		.byte	0x55
 3240 00d1 1C000000 		.4byte	.LVL11
 3241 00d5 24000000 		.4byte	.LVL14
 3242 00d9 0400     		.2byte	0x4
 3243 00db F3       		.byte	0xf3
 3244 00dc 01       		.uleb128 0x1
 3245 00dd 51       		.byte	0x51
 3246 00de 9F       		.byte	0x9f
 3247 00df 24000000 		.4byte	.LVL14
 3248 00e3 26000000 		.4byte	.LVL15
 3249 00e7 0100     		.2byte	0x1
 3250 00e9 55       		.byte	0x55
 3251 00ea 26000000 		.4byte	.LVL15
 3252 00ee 2A000000 		.4byte	.LFE8
 3253 00f2 0400     		.2byte	0x4
 3254 00f4 F3       		.byte	0xf3
 3255 00f5 01       		.uleb128 0x1
 3256 00f6 51       		.byte	0x51
 3257 00f7 9F       		.byte	0x9f
 3258 00f8 00000000 		.4byte	0
 3259 00fc 00000000 		.4byte	0
 3260              	.LLST5:
 3261 0100 04000000 		.4byte	.LVL7
 3262 0104 0B000000 		.4byte	.LVL8-1
 3263 0108 0100     		.2byte	0x1
 3264 010a 50       		.byte	0x50
 3265 010b 0B000000 		.4byte	.LVL8-1
 3266 010f 10000000 		.4byte	.LVL9
 3267 0113 0100     		.2byte	0x1
 3268 0115 54       		.byte	0x54
 3269 0116 10000000 		.4byte	.LVL9
 3270 011a 1F000000 		.4byte	.LVL12-1
 3271 011e 0100     		.2byte	0x1
 3272 0120 52       		.byte	0x52
 3273 0121 24000000 		.4byte	.LVL14
 3274 0125 2A000000 		.4byte	.LFE8
 3275 0129 0100     		.2byte	0x1
 3276 012b 52       		.byte	0x52
 3277 012c 00000000 		.4byte	0
 3278 0130 00000000 		.4byte	0
 3279              	.LLST6:
 3280 0134 00000000 		.4byte	.LVL16
 3281 0138 09000000 		.4byte	.LVL17-1
 3282 013c 0100     		.2byte	0x1
 3283 013e 50       		.byte	0x50
 3284 013f 09000000 		.4byte	.LVL17-1
 3285 0143 20000000 		.4byte	.LVL20
 3286 0147 0100     		.2byte	0x1
 3287 0149 54       		.byte	0x54
 3288 014a 20000000 		.4byte	.LVL20
 3289 014e 28000000 		.4byte	.LFE9
ARM GAS  /var/folders/qh/xwg3v3kj02qbxczjpdb8lzfr0000gn/T//ccTDBctj.s 			page 59


 3290 0152 0400     		.2byte	0x4
 3291 0154 F3       		.byte	0xf3
 3292 0155 01       		.uleb128 0x1
 3293 0156 50       		.byte	0x50
 3294 0157 9F       		.byte	0x9f
 3295 0158 00000000 		.4byte	0
 3296 015c 00000000 		.4byte	0
 3297              	.LLST7:
 3298 0160 1C000000 		.4byte	.LVL19
 3299 0164 20000000 		.4byte	.LVL21
 3300 0168 0100     		.2byte	0x1
 3301 016a 55       		.byte	0x55
 3302 016b 20000000 		.4byte	.LVL21
 3303 016f 28000000 		.4byte	.LFE9
 3304 0173 0100     		.2byte	0x1
 3305 0175 50       		.byte	0x50
 3306 0176 00000000 		.4byte	0
 3307 017a 00000000 		.4byte	0
 3308              	.LLST8:
 3309 017e 00000000 		.4byte	.LVL22
 3310 0182 09000000 		.4byte	.LVL23-1
 3311 0186 0100     		.2byte	0x1
 3312 0188 50       		.byte	0x50
 3313 0189 09000000 		.4byte	.LVL23-1
 3314 018d 12000000 		.4byte	.LVL24
 3315 0191 0100     		.2byte	0x1
 3316 0193 54       		.byte	0x54
 3317 0194 12000000 		.4byte	.LVL24
 3318 0198 14000000 		.4byte	.LVL25
 3319 019c 0400     		.2byte	0x4
 3320 019e F3       		.byte	0xf3
 3321 019f 01       		.uleb128 0x1
 3322 01a0 50       		.byte	0x50
 3323 01a1 9F       		.byte	0x9f
 3324 01a2 14000000 		.4byte	.LVL25
 3325 01a6 1C000000 		.4byte	.LVL27
 3326 01aa 0100     		.2byte	0x1
 3327 01ac 54       		.byte	0x54
 3328 01ad 1C000000 		.4byte	.LVL27
 3329 01b1 24000000 		.4byte	.LFE10
 3330 01b5 0100     		.2byte	0x1
 3331 01b7 50       		.byte	0x50
 3332 01b8 00000000 		.4byte	0
 3333 01bc 00000000 		.4byte	0
 3334              	.LLST9:
 3335 01c0 00000000 		.4byte	.LVL28
 3336 01c4 09000000 		.4byte	.LVL29-1
 3337 01c8 0100     		.2byte	0x1
 3338 01ca 50       		.byte	0x50
 3339 01cb 09000000 		.4byte	.LVL29-1
 3340 01cf 18000000 		.4byte	.LVL32
 3341 01d3 0100     		.2byte	0x1
 3342 01d5 54       		.byte	0x54
 3343 01d6 18000000 		.4byte	.LVL32
 3344 01da 1A000000 		.4byte	.LFE12
 3345 01de 0400     		.2byte	0x4
 3346 01e0 F3       		.byte	0xf3
ARM GAS  /var/folders/qh/xwg3v3kj02qbxczjpdb8lzfr0000gn/T//ccTDBctj.s 			page 60


 3347 01e1 01       		.uleb128 0x1
 3348 01e2 50       		.byte	0x50
 3349 01e3 9F       		.byte	0x9f
 3350 01e4 00000000 		.4byte	0
 3351 01e8 00000000 		.4byte	0
 3352              	.LLST10:
 3353 01ec 0E000000 		.4byte	.LVL30
 3354 01f0 18000000 		.4byte	.LVL33
 3355 01f4 0100     		.2byte	0x1
 3356 01f6 55       		.byte	0x55
 3357 01f7 18000000 		.4byte	.LVL33
 3358 01fb 1A000000 		.4byte	.LFE12
 3359 01ff 0100     		.2byte	0x1
 3360 0201 50       		.byte	0x50
 3361 0202 00000000 		.4byte	0
 3362 0206 00000000 		.4byte	0
 3363              	.LLST11:
 3364 020a 00000000 		.4byte	.LVL34
 3365 020e 09000000 		.4byte	.LVL35-1
 3366 0212 0100     		.2byte	0x1
 3367 0214 50       		.byte	0x50
 3368 0215 09000000 		.4byte	.LVL35-1
 3369 0219 1A000000 		.4byte	.LVL36
 3370 021d 0100     		.2byte	0x1
 3371 021f 54       		.byte	0x54
 3372 0220 1A000000 		.4byte	.LVL36
 3373 0224 1C000000 		.4byte	.LVL38
 3374 0228 0400     		.2byte	0x4
 3375 022a F3       		.byte	0xf3
 3376 022b 01       		.uleb128 0x1
 3377 022c 50       		.byte	0x50
 3378 022d 9F       		.byte	0x9f
 3379 022e 1C000000 		.4byte	.LVL38
 3380 0232 42000000 		.4byte	.LFE14
 3381 0236 0100     		.2byte	0x1
 3382 0238 54       		.byte	0x54
 3383 0239 00000000 		.4byte	0
 3384 023d 00000000 		.4byte	0
 3385              	.LLST12:
 3386 0241 00000000 		.4byte	.LVL34
 3387 0245 09000000 		.4byte	.LVL35-1
 3388 0249 0100     		.2byte	0x1
 3389 024b 51       		.byte	0x51
 3390 024c 09000000 		.4byte	.LVL35-1
 3391 0250 1A000000 		.4byte	.LVL37
 3392 0254 0100     		.2byte	0x1
 3393 0256 55       		.byte	0x55
 3394 0257 1A000000 		.4byte	.LVL37
 3395 025b 1C000000 		.4byte	.LVL38
 3396 025f 0400     		.2byte	0x4
 3397 0261 F3       		.byte	0xf3
 3398 0262 01       		.uleb128 0x1
 3399 0263 51       		.byte	0x51
 3400 0264 9F       		.byte	0x9f
 3401 0265 1C000000 		.4byte	.LVL38
 3402 0269 42000000 		.4byte	.LFE14
 3403 026d 0100     		.2byte	0x1
ARM GAS  /var/folders/qh/xwg3v3kj02qbxczjpdb8lzfr0000gn/T//ccTDBctj.s 			page 61


 3404 026f 55       		.byte	0x55
 3405 0270 00000000 		.4byte	0
 3406 0274 00000000 		.4byte	0
 3407              	.LLST13:
 3408 0278 24000000 		.4byte	.LVL39
 3409 027c 30000000 		.4byte	.LVL41
 3410 0280 0100     		.2byte	0x1
 3411 0282 55       		.byte	0x55
 3412 0283 36000000 		.4byte	.LVL42
 3413 0287 42000000 		.4byte	.LFE14
 3414 028b 0100     		.2byte	0x1
 3415 028d 55       		.byte	0x55
 3416 028e 00000000 		.4byte	0
 3417 0292 00000000 		.4byte	0
 3418              	.LLST14:
 3419 0296 24000000 		.4byte	.LVL39
 3420 029a 30000000 		.4byte	.LVL41
 3421 029e 0100     		.2byte	0x1
 3422 02a0 54       		.byte	0x54
 3423 02a1 36000000 		.4byte	.LVL42
 3424 02a5 42000000 		.4byte	.LFE14
 3425 02a9 0100     		.2byte	0x1
 3426 02ab 54       		.byte	0x54
 3427 02ac 00000000 		.4byte	0
 3428 02b0 00000000 		.4byte	0
 3429              	.LLST15:
 3430 02b4 00000000 		.4byte	.LVL44
 3431 02b8 09000000 		.4byte	.LVL45-1
 3432 02bc 0100     		.2byte	0x1
 3433 02be 50       		.byte	0x50
 3434 02bf 09000000 		.4byte	.LVL45-1
 3435 02c3 24000000 		.4byte	.LVL50
 3436 02c7 0100     		.2byte	0x1
 3437 02c9 55       		.byte	0x55
 3438 02ca 24000000 		.4byte	.LVL50
 3439 02ce 26000000 		.4byte	.LFE11
 3440 02d2 0400     		.2byte	0x4
 3441 02d4 F3       		.byte	0xf3
 3442 02d5 01       		.uleb128 0x1
 3443 02d6 50       		.byte	0x50
 3444 02d7 9F       		.byte	0x9f
 3445 02d8 00000000 		.4byte	0
 3446 02dc 00000000 		.4byte	0
 3447              	.LLST16:
 3448 02e0 00000000 		.4byte	.LVL44
 3449 02e4 09000000 		.4byte	.LVL45-1
 3450 02e8 0100     		.2byte	0x1
 3451 02ea 51       		.byte	0x51
 3452 02eb 09000000 		.4byte	.LVL45-1
 3453 02ef 24000000 		.4byte	.LVL51
 3454 02f3 0100     		.2byte	0x1
 3455 02f5 56       		.byte	0x56
 3456 02f6 24000000 		.4byte	.LVL51
 3457 02fa 26000000 		.4byte	.LFE11
 3458 02fe 0400     		.2byte	0x4
 3459 0300 F3       		.byte	0xf3
 3460 0301 01       		.uleb128 0x1
ARM GAS  /var/folders/qh/xwg3v3kj02qbxczjpdb8lzfr0000gn/T//ccTDBctj.s 			page 62


 3461 0302 51       		.byte	0x51
 3462 0303 9F       		.byte	0x9f
 3463 0304 00000000 		.4byte	0
 3464 0308 00000000 		.4byte	0
 3465              	.LLST17:
 3466 030c 0C000000 		.4byte	.LVL46
 3467 0310 24000000 		.4byte	.LVL49
 3468 0314 0100     		.2byte	0x1
 3469 0316 54       		.byte	0x54
 3470 0317 00000000 		.4byte	0
 3471 031b 00000000 		.4byte	0
 3472              	.LLST18:
 3473 031f 00000000 		.4byte	.LVL52
 3474 0323 0B000000 		.4byte	.LVL53-1
 3475 0327 0100     		.2byte	0x1
 3476 0329 50       		.byte	0x50
 3477 032a 0B000000 		.4byte	.LVL53-1
 3478 032e 1E000000 		.4byte	.LVL58
 3479 0332 0100     		.2byte	0x1
 3480 0334 55       		.byte	0x55
 3481 0335 1E000000 		.4byte	.LVL58
 3482 0339 20000000 		.4byte	.LFE13
 3483 033d 0400     		.2byte	0x4
 3484 033f F3       		.byte	0xf3
 3485 0340 01       		.uleb128 0x1
 3486 0341 50       		.byte	0x50
 3487 0342 9F       		.byte	0x9f
 3488 0343 00000000 		.4byte	0
 3489 0347 00000000 		.4byte	0
 3490              	.LLST19:
 3491 034b 00000000 		.4byte	.LVL52
 3492 034f 0B000000 		.4byte	.LVL53-1
 3493 0353 0100     		.2byte	0x1
 3494 0355 51       		.byte	0x51
 3495 0356 0B000000 		.4byte	.LVL53-1
 3496 035a 1E000000 		.4byte	.LVL57
 3497 035e 0100     		.2byte	0x1
 3498 0360 54       		.byte	0x54
 3499 0361 1E000000 		.4byte	.LVL57
 3500 0365 20000000 		.4byte	.LFE13
 3501 0369 0400     		.2byte	0x4
 3502 036b F3       		.byte	0xf3
 3503 036c 01       		.uleb128 0x1
 3504 036d 51       		.byte	0x51
 3505 036e 9F       		.byte	0x9f
 3506 036f 00000000 		.4byte	0
 3507 0373 00000000 		.4byte	0
 3508              	.LLST20:
 3509 0377 00000000 		.4byte	.LVL59
 3510 037b 0B000000 		.4byte	.LVL60-1
 3511 037f 0100     		.2byte	0x1
 3512 0381 50       		.byte	0x50
 3513 0382 0B000000 		.4byte	.LVL60-1
 3514 0386 1E000000 		.4byte	.LVL65
 3515 038a 0100     		.2byte	0x1
 3516 038c 55       		.byte	0x55
 3517 038d 1E000000 		.4byte	.LVL65
ARM GAS  /var/folders/qh/xwg3v3kj02qbxczjpdb8lzfr0000gn/T//ccTDBctj.s 			page 63


 3518 0391 20000000 		.4byte	.LFE15
 3519 0395 0400     		.2byte	0x4
 3520 0397 F3       		.byte	0xf3
 3521 0398 01       		.uleb128 0x1
 3522 0399 50       		.byte	0x50
 3523 039a 9F       		.byte	0x9f
 3524 039b 00000000 		.4byte	0
 3525 039f 00000000 		.4byte	0
 3526              	.LLST21:
 3527 03a3 00000000 		.4byte	.LVL59
 3528 03a7 0B000000 		.4byte	.LVL60-1
 3529 03ab 0100     		.2byte	0x1
 3530 03ad 51       		.byte	0x51
 3531 03ae 0B000000 		.4byte	.LVL60-1
 3532 03b2 1E000000 		.4byte	.LVL64
 3533 03b6 0100     		.2byte	0x1
 3534 03b8 54       		.byte	0x54
 3535 03b9 1E000000 		.4byte	.LVL64
 3536 03bd 20000000 		.4byte	.LFE15
 3537 03c1 0400     		.2byte	0x4
 3538 03c3 F3       		.byte	0xf3
 3539 03c4 01       		.uleb128 0x1
 3540 03c5 51       		.byte	0x51
 3541 03c6 9F       		.byte	0x9f
 3542 03c7 00000000 		.4byte	0
 3543 03cb 00000000 		.4byte	0
 3544              	.LLST22:
 3545 03cf 00000000 		.4byte	.LVL66
 3546 03d3 06000000 		.4byte	.LVL67
 3547 03d7 0100     		.2byte	0x1
 3548 03d9 50       		.byte	0x50
 3549 03da 06000000 		.4byte	.LVL67
 3550 03de 0A000000 		.4byte	.LFE16
 3551 03e2 0100     		.2byte	0x1
 3552 03e4 53       		.byte	0x53
 3553 03e5 00000000 		.4byte	0
 3554 03e9 00000000 		.4byte	0
 3555              	.LLST23:
 3556 03ed 00000000 		.4byte	.LVL68
 3557 03f1 10000000 		.4byte	.LVL69
 3558 03f5 0100     		.2byte	0x1
 3559 03f7 50       		.byte	0x50
 3560 03f8 10000000 		.4byte	.LVL69
 3561 03fc 32000000 		.4byte	.LFE17
 3562 0400 0400     		.2byte	0x4
 3563 0402 F3       		.byte	0xf3
 3564 0403 01       		.uleb128 0x1
 3565 0404 50       		.byte	0x50
 3566 0405 9F       		.byte	0x9f
 3567 0406 00000000 		.4byte	0
 3568 040a 00000000 		.4byte	0
 3569              	.LLST24:
 3570 040e 00000000 		.4byte	.LVL68
 3571 0412 10000000 		.4byte	.LVL69
 3572 0416 0100     		.2byte	0x1
 3573 0418 51       		.byte	0x51
 3574 0419 10000000 		.4byte	.LVL69
ARM GAS  /var/folders/qh/xwg3v3kj02qbxczjpdb8lzfr0000gn/T//ccTDBctj.s 			page 64


 3575 041d 30000000 		.4byte	.LVL76
 3576 0421 0100     		.2byte	0x1
 3577 0423 55       		.byte	0x55
 3578 0424 00000000 		.4byte	0
 3579 0428 00000000 		.4byte	0
 3580              	.LLST25:
 3581 042c 00000000 		.4byte	.LVL68
 3582 0430 10000000 		.4byte	.LVL69
 3583 0434 0200     		.2byte	0x2
 3584 0436 30       		.byte	0x30
 3585 0437 9F       		.byte	0x9f
 3586 0438 10000000 		.4byte	.LVL69
 3587 043c 30000000 		.4byte	.LVL75
 3588 0440 0100     		.2byte	0x1
 3589 0442 54       		.byte	0x54
 3590 0443 00000000 		.4byte	0
 3591 0447 00000000 		.4byte	0
 3592              	.LLST26:
 3593 044b 00000000 		.4byte	.LVL77
 3594 044f 0D000000 		.4byte	.LVL79-1
 3595 0453 0100     		.2byte	0x1
 3596 0455 50       		.byte	0x50
 3597 0456 0D000000 		.4byte	.LVL79-1
 3598 045a 26000000 		.4byte	.LVL83
 3599 045e 0100     		.2byte	0x1
 3600 0460 55       		.byte	0x55
 3601 0461 26000000 		.4byte	.LVL83
 3602 0465 3C000000 		.4byte	.LFE18
 3603 0469 0400     		.2byte	0x4
 3604 046b F3       		.byte	0xf3
 3605 046c 01       		.uleb128 0x1
 3606 046d 50       		.byte	0x50
 3607 046e 9F       		.byte	0x9f
 3608 046f 00000000 		.4byte	0
 3609 0473 00000000 		.4byte	0
 3610              	.LLST27:
 3611 0477 08000000 		.4byte	.LVL78
 3612 047b 34000000 		.4byte	.LVL86
 3613 047f 0100     		.2byte	0x1
 3614 0481 54       		.byte	0x54
 3615 0482 00000000 		.4byte	0
 3616 0486 00000000 		.4byte	0
 3617              	.LLST28:
 3618 048a 14000000 		.4byte	.LVL80
 3619 048e 1D000000 		.4byte	.LVL81-1
 3620 0492 0100     		.2byte	0x1
 3621 0494 53       		.byte	0x53
 3622 0495 24000000 		.4byte	.LVL82
 3623 0499 28000000 		.4byte	.LVL84
 3624 049d 0100     		.2byte	0x1
 3625 049f 53       		.byte	0x53
 3626 04a0 28000000 		.4byte	.LVL84
 3627 04a4 34000000 		.4byte	.LVL87
 3628 04a8 0100     		.2byte	0x1
 3629 04aa 55       		.byte	0x55
 3630 04ab 34000000 		.4byte	.LVL87
 3631 04af 3C000000 		.4byte	.LFE18
ARM GAS  /var/folders/qh/xwg3v3kj02qbxczjpdb8lzfr0000gn/T//ccTDBctj.s 			page 65


 3632 04b3 0100     		.2byte	0x1
 3633 04b5 50       		.byte	0x50
 3634 04b6 00000000 		.4byte	0
 3635 04ba 00000000 		.4byte	0
 3636              	.LLST29:
 3637 04be 00000000 		.4byte	.LVL88
 3638 04c2 0D000000 		.4byte	.LVL90-1
 3639 04c6 0100     		.2byte	0x1
 3640 04c8 50       		.byte	0x50
 3641 04c9 0D000000 		.4byte	.LVL90-1
 3642 04cd 30000000 		.4byte	.LVL98
 3643 04d1 0100     		.2byte	0x1
 3644 04d3 56       		.byte	0x56
 3645 04d4 30000000 		.4byte	.LVL98
 3646 04d8 38000000 		.4byte	.LFE19
 3647 04dc 0400     		.2byte	0x4
 3648 04de F3       		.byte	0xf3
 3649 04df 01       		.uleb128 0x1
 3650 04e0 50       		.byte	0x50
 3651 04e1 9F       		.byte	0x9f
 3652 04e2 00000000 		.4byte	0
 3653 04e6 00000000 		.4byte	0
 3654              	.LLST30:
 3655 04ea 08000000 		.4byte	.LVL89
 3656 04ee 30000000 		.4byte	.LVL97
 3657 04f2 0100     		.2byte	0x1
 3658 04f4 55       		.byte	0x55
 3659 04f5 00000000 		.4byte	0
 3660 04f9 00000000 		.4byte	0
 3661              	.LLST31:
 3662 04fd 14000000 		.4byte	.LVL91
 3663 0501 22000000 		.4byte	.LVL93
 3664 0505 0100     		.2byte	0x1
 3665 0507 54       		.byte	0x54
 3666 0508 24000000 		.4byte	.LVL94
 3667 050c 30000000 		.4byte	.LVL96
 3668 0510 0100     		.2byte	0x1
 3669 0512 54       		.byte	0x54
 3670 0513 30000000 		.4byte	.LVL96
 3671 0517 38000000 		.4byte	.LFE19
 3672 051b 0100     		.2byte	0x1
 3673 051d 50       		.byte	0x50
 3674 051e 00000000 		.4byte	0
 3675 0522 00000000 		.4byte	0
 3676              	.LLST32:
 3677 0526 00000000 		.4byte	.LVL99
 3678 052a 0D000000 		.4byte	.LVL101-1
 3679 052e 0100     		.2byte	0x1
 3680 0530 50       		.byte	0x50
 3681 0531 0D000000 		.4byte	.LVL101-1
 3682 0535 2E000000 		.4byte	.LVL104
 3683 0539 0100     		.2byte	0x1
 3684 053b 54       		.byte	0x54
 3685 053c 2E000000 		.4byte	.LVL104
 3686 0540 34000000 		.4byte	.LFE20
 3687 0544 0100     		.2byte	0x1
 3688 0546 50       		.byte	0x50
ARM GAS  /var/folders/qh/xwg3v3kj02qbxczjpdb8lzfr0000gn/T//ccTDBctj.s 			page 66


 3689 0547 00000000 		.4byte	0
 3690 054b 00000000 		.4byte	0
 3691              	.LLST33:
 3692 054f 08000000 		.4byte	.LVL100
 3693 0553 2E000000 		.4byte	.LVL105
 3694 0557 0100     		.2byte	0x1
 3695 0559 55       		.byte	0x55
 3696 055a 00000000 		.4byte	0
 3697 055e 00000000 		.4byte	0
 3698              	.LLST34:
 3699 0562 00000000 		.4byte	.LVL106
 3700 0566 0F000000 		.4byte	.LVL108-1
 3701 056a 0100     		.2byte	0x1
 3702 056c 50       		.byte	0x50
 3703 056d 0F000000 		.4byte	.LVL108-1
 3704 0571 32000000 		.4byte	.LVL112
 3705 0575 0100     		.2byte	0x1
 3706 0577 55       		.byte	0x55
 3707 0578 32000000 		.4byte	.LVL112
 3708 057c 42000000 		.4byte	.LVL118
 3709 0580 0400     		.2byte	0x4
 3710 0582 F3       		.byte	0xf3
 3711 0583 01       		.uleb128 0x1
 3712 0584 50       		.byte	0x50
 3713 0585 9F       		.byte	0x9f
 3714 0586 42000000 		.4byte	.LVL118
 3715 058a 50000000 		.4byte	.LFE21
 3716 058e 0100     		.2byte	0x1
 3717 0590 55       		.byte	0x55
 3718 0591 00000000 		.4byte	0
 3719 0595 00000000 		.4byte	0
 3720              	.LLST35:
 3721 0599 00000000 		.4byte	.LVL106
 3722 059d 0F000000 		.4byte	.LVL108-1
 3723 05a1 0100     		.2byte	0x1
 3724 05a3 51       		.byte	0x51
 3725 05a4 0F000000 		.4byte	.LVL108-1
 3726 05a8 40000000 		.4byte	.LVL117
 3727 05ac 0100     		.2byte	0x1
 3728 05ae 56       		.byte	0x56
 3729 05af 40000000 		.4byte	.LVL117
 3730 05b3 42000000 		.4byte	.LVL118
 3731 05b7 0400     		.2byte	0x4
 3732 05b9 F3       		.byte	0xf3
 3733 05ba 01       		.uleb128 0x1
 3734 05bb 51       		.byte	0x51
 3735 05bc 9F       		.byte	0x9f
 3736 05bd 42000000 		.4byte	.LVL118
 3737 05c1 50000000 		.4byte	.LFE21
 3738 05c5 0100     		.2byte	0x1
 3739 05c7 56       		.byte	0x56
 3740 05c8 00000000 		.4byte	0
 3741 05cc 00000000 		.4byte	0
 3742              	.LLST36:
 3743 05d0 0A000000 		.4byte	.LVL107
 3744 05d4 40000000 		.4byte	.LVL116
 3745 05d8 0100     		.2byte	0x1
ARM GAS  /var/folders/qh/xwg3v3kj02qbxczjpdb8lzfr0000gn/T//ccTDBctj.s 			page 67


 3746 05da 54       		.byte	0x54
 3747 05db 42000000 		.4byte	.LVL118
 3748 05df 50000000 		.4byte	.LFE21
 3749 05e3 0100     		.2byte	0x1
 3750 05e5 54       		.byte	0x54
 3751 05e6 00000000 		.4byte	0
 3752 05ea 00000000 		.4byte	0
 3753              	.LLST37:
 3754 05ee 16000000 		.4byte	.LVL109
 3755 05f2 25000000 		.4byte	.LVL110-1
 3756 05f6 0100     		.2byte	0x1
 3757 05f8 53       		.byte	0x53
 3758 05f9 30000000 		.4byte	.LVL111
 3759 05fd 34000000 		.4byte	.LVL113
 3760 0601 0100     		.2byte	0x1
 3761 0603 53       		.byte	0x53
 3762 0604 34000000 		.4byte	.LVL113
 3763 0608 40000000 		.4byte	.LVL115
 3764 060c 0100     		.2byte	0x1
 3765 060e 55       		.byte	0x55
 3766 060f 00000000 		.4byte	0
 3767 0613 00000000 		.4byte	0
 3768              	.LLST38:
 3769 0617 00000000 		.4byte	.LVL120
 3770 061b 0F000000 		.4byte	.LVL122-1
 3771 061f 0100     		.2byte	0x1
 3772 0621 50       		.byte	0x50
 3773 0622 0F000000 		.4byte	.LVL122-1
 3774 0626 3C000000 		.4byte	.LVL130
 3775 062a 0100     		.2byte	0x1
 3776 062c 56       		.byte	0x56
 3777 062d 3C000000 		.4byte	.LVL130
 3778 0631 3E000000 		.4byte	.LVL132
 3779 0635 0400     		.2byte	0x4
 3780 0637 F3       		.byte	0xf3
 3781 0638 01       		.uleb128 0x1
 3782 0639 50       		.byte	0x50
 3783 063a 9F       		.byte	0x9f
 3784 063b 3E000000 		.4byte	.LVL132
 3785 063f 4C000000 		.4byte	.LFE22
 3786 0643 0100     		.2byte	0x1
 3787 0645 56       		.byte	0x56
 3788 0646 00000000 		.4byte	0
 3789 064a 00000000 		.4byte	0
 3790              	.LLST39:
 3791 064e 00000000 		.4byte	.LVL120
 3792 0652 0F000000 		.4byte	.LVL122-1
 3793 0656 0100     		.2byte	0x1
 3794 0658 51       		.byte	0x51
 3795 0659 0F000000 		.4byte	.LVL122-1
 3796 065d 3C000000 		.4byte	.LVL131
 3797 0661 0100     		.2byte	0x1
 3798 0663 57       		.byte	0x57
 3799 0664 3C000000 		.4byte	.LVL131
 3800 0668 3E000000 		.4byte	.LVL132
 3801 066c 0400     		.2byte	0x4
 3802 066e F3       		.byte	0xf3
ARM GAS  /var/folders/qh/xwg3v3kj02qbxczjpdb8lzfr0000gn/T//ccTDBctj.s 			page 68


 3803 066f 01       		.uleb128 0x1
 3804 0670 51       		.byte	0x51
 3805 0671 9F       		.byte	0x9f
 3806 0672 3E000000 		.4byte	.LVL132
 3807 0676 4C000000 		.4byte	.LFE22
 3808 067a 0100     		.2byte	0x1
 3809 067c 57       		.byte	0x57
 3810 067d 00000000 		.4byte	0
 3811 0681 00000000 		.4byte	0
 3812              	.LLST40:
 3813 0685 0A000000 		.4byte	.LVL121
 3814 0689 3C000000 		.4byte	.LVL129
 3815 068d 0100     		.2byte	0x1
 3816 068f 55       		.byte	0x55
 3817 0690 3E000000 		.4byte	.LVL132
 3818 0694 4C000000 		.4byte	.LFE22
 3819 0698 0100     		.2byte	0x1
 3820 069a 55       		.byte	0x55
 3821 069b 00000000 		.4byte	0
 3822 069f 00000000 		.4byte	0
 3823              	.LLST41:
 3824 06a3 16000000 		.4byte	.LVL123
 3825 06a7 2E000000 		.4byte	.LVL125
 3826 06ab 0100     		.2byte	0x1
 3827 06ad 54       		.byte	0x54
 3828 06ae 30000000 		.4byte	.LVL126
 3829 06b2 3C000000 		.4byte	.LVL128
 3830 06b6 0100     		.2byte	0x1
 3831 06b8 54       		.byte	0x54
 3832 06b9 3E000000 		.4byte	.LVL132
 3833 06bd 4C000000 		.4byte	.LFE22
 3834 06c1 0100     		.2byte	0x1
 3835 06c3 54       		.byte	0x54
 3836 06c4 00000000 		.4byte	0
 3837 06c8 00000000 		.4byte	0
 3838              	.LLST42:
 3839 06cc 00000000 		.4byte	.LVL134
 3840 06d0 0F000000 		.4byte	.LVL136-1
 3841 06d4 0100     		.2byte	0x1
 3842 06d6 50       		.byte	0x50
 3843 06d7 0F000000 		.4byte	.LVL136-1
 3844 06db 3A000000 		.4byte	.LVL139
 3845 06df 0100     		.2byte	0x1
 3846 06e1 54       		.byte	0x54
 3847 06e2 3A000000 		.4byte	.LVL139
 3848 06e6 3C000000 		.4byte	.LVL142
 3849 06ea 0400     		.2byte	0x4
 3850 06ec F3       		.byte	0xf3
 3851 06ed 01       		.uleb128 0x1
 3852 06ee 50       		.byte	0x50
 3853 06ef 9F       		.byte	0x9f
 3854 06f0 3C000000 		.4byte	.LVL142
 3855 06f4 4C000000 		.4byte	.LFE23
 3856 06f8 0100     		.2byte	0x1
 3857 06fa 54       		.byte	0x54
 3858 06fb 00000000 		.4byte	0
 3859 06ff 00000000 		.4byte	0
ARM GAS  /var/folders/qh/xwg3v3kj02qbxczjpdb8lzfr0000gn/T//ccTDBctj.s 			page 69


 3860              	.LLST43:
 3861 0703 00000000 		.4byte	.LVL134
 3862 0707 0F000000 		.4byte	.LVL136-1
 3863 070b 0100     		.2byte	0x1
 3864 070d 51       		.byte	0x51
 3865 070e 0F000000 		.4byte	.LVL136-1
 3866 0712 3A000000 		.4byte	.LVL141
 3867 0716 0100     		.2byte	0x1
 3868 0718 56       		.byte	0x56
 3869 0719 3A000000 		.4byte	.LVL141
 3870 071d 3C000000 		.4byte	.LVL142
 3871 0721 0400     		.2byte	0x4
 3872 0723 F3       		.byte	0xf3
 3873 0724 01       		.uleb128 0x1
 3874 0725 51       		.byte	0x51
 3875 0726 9F       		.byte	0x9f
 3876 0727 3C000000 		.4byte	.LVL142
 3877 072b 4C000000 		.4byte	.LFE23
 3878 072f 0100     		.2byte	0x1
 3879 0731 56       		.byte	0x56
 3880 0732 00000000 		.4byte	0
 3881 0736 00000000 		.4byte	0
 3882              	.LLST44:
 3883 073a 0A000000 		.4byte	.LVL135
 3884 073e 3A000000 		.4byte	.LVL140
 3885 0742 0100     		.2byte	0x1
 3886 0744 55       		.byte	0x55
 3887 0745 3C000000 		.4byte	.LVL142
 3888 0749 4C000000 		.4byte	.LFE23
 3889 074d 0100     		.2byte	0x1
 3890 074f 55       		.byte	0x55
 3891 0750 00000000 		.4byte	0
 3892 0754 00000000 		.4byte	0
 3893              		.section	.debug_aranges,"",%progbits
 3894 0000 9C000000 		.4byte	0x9c
 3895 0004 0200     		.2byte	0x2
 3896 0006 00000000 		.4byte	.Ldebug_info0
 3897 000a 04       		.byte	0x4
 3898 000b 00       		.byte	0
 3899 000c 0000     		.2byte	0
 3900 000e 0000     		.2byte	0
 3901 0010 00000000 		.4byte	.LFB7
 3902 0014 2C000000 		.4byte	.LFE7-.LFB7
 3903 0018 00000000 		.4byte	.LFB8
 3904 001c 2A000000 		.4byte	.LFE8-.LFB8
 3905 0020 00000000 		.4byte	.LFB9
 3906 0024 28000000 		.4byte	.LFE9-.LFB9
 3907 0028 00000000 		.4byte	.LFB10
 3908 002c 24000000 		.4byte	.LFE10-.LFB10
 3909 0030 00000000 		.4byte	.LFB12
 3910 0034 1A000000 		.4byte	.LFE12-.LFB12
 3911 0038 00000000 		.4byte	.LFB14
 3912 003c 42000000 		.4byte	.LFE14-.LFB14
 3913 0040 00000000 		.4byte	.LFB11
 3914 0044 26000000 		.4byte	.LFE11-.LFB11
 3915 0048 00000000 		.4byte	.LFB13
 3916 004c 20000000 		.4byte	.LFE13-.LFB13
ARM GAS  /var/folders/qh/xwg3v3kj02qbxczjpdb8lzfr0000gn/T//ccTDBctj.s 			page 70


 3917 0050 00000000 		.4byte	.LFB15
 3918 0054 20000000 		.4byte	.LFE15-.LFB15
 3919 0058 00000000 		.4byte	.LFB16
 3920 005c 0A000000 		.4byte	.LFE16-.LFB16
 3921 0060 00000000 		.4byte	.LFB17
 3922 0064 32000000 		.4byte	.LFE17-.LFB17
 3923 0068 00000000 		.4byte	.LFB18
 3924 006c 3C000000 		.4byte	.LFE18-.LFB18
 3925 0070 00000000 		.4byte	.LFB19
 3926 0074 38000000 		.4byte	.LFE19-.LFB19
 3927 0078 00000000 		.4byte	.LFB20
 3928 007c 34000000 		.4byte	.LFE20-.LFB20
 3929 0080 00000000 		.4byte	.LFB21
 3930 0084 50000000 		.4byte	.LFE21-.LFB21
 3931 0088 00000000 		.4byte	.LFB22
 3932 008c 4C000000 		.4byte	.LFE22-.LFB22
 3933 0090 00000000 		.4byte	.LFB23
 3934 0094 4C000000 		.4byte	.LFE23-.LFB23
 3935 0098 00000000 		.4byte	0
 3936 009c 00000000 		.4byte	0
 3937              		.section	.debug_ranges,"",%progbits
 3938              	.Ldebug_ranges0:
 3939 0000 24000000 		.4byte	.LBB4
 3940 0004 30000000 		.4byte	.LBE4
 3941 0008 36000000 		.4byte	.LBB7
 3942 000c 42000000 		.4byte	.LBE7
 3943 0010 00000000 		.4byte	0
 3944 0014 00000000 		.4byte	0
 3945 0018 00000000 		.4byte	.LFB7
 3946 001c 2C000000 		.4byte	.LFE7
 3947 0020 00000000 		.4byte	.LFB8
 3948 0024 2A000000 		.4byte	.LFE8
 3949 0028 00000000 		.4byte	.LFB9
 3950 002c 28000000 		.4byte	.LFE9
 3951 0030 00000000 		.4byte	.LFB10
 3952 0034 24000000 		.4byte	.LFE10
 3953 0038 00000000 		.4byte	.LFB12
 3954 003c 1A000000 		.4byte	.LFE12
 3955 0040 00000000 		.4byte	.LFB14
 3956 0044 42000000 		.4byte	.LFE14
 3957 0048 00000000 		.4byte	.LFB11
 3958 004c 26000000 		.4byte	.LFE11
 3959 0050 00000000 		.4byte	.LFB13
 3960 0054 20000000 		.4byte	.LFE13
 3961 0058 00000000 		.4byte	.LFB15
 3962 005c 20000000 		.4byte	.LFE15
 3963 0060 00000000 		.4byte	.LFB16
 3964 0064 0A000000 		.4byte	.LFE16
 3965 0068 00000000 		.4byte	.LFB17
 3966 006c 32000000 		.4byte	.LFE17
 3967 0070 00000000 		.4byte	.LFB18
 3968 0074 3C000000 		.4byte	.LFE18
 3969 0078 00000000 		.4byte	.LFB19
 3970 007c 38000000 		.4byte	.LFE19
 3971 0080 00000000 		.4byte	.LFB20
 3972 0084 34000000 		.4byte	.LFE20
 3973 0088 00000000 		.4byte	.LFB21
ARM GAS  /var/folders/qh/xwg3v3kj02qbxczjpdb8lzfr0000gn/T//ccTDBctj.s 			page 71


 3974 008c 50000000 		.4byte	.LFE21
 3975 0090 00000000 		.4byte	.LFB22
 3976 0094 4C000000 		.4byte	.LFE22
 3977 0098 00000000 		.4byte	.LFB23
 3978 009c 4C000000 		.4byte	.LFE23
 3979 00a0 00000000 		.4byte	0
 3980 00a4 00000000 		.4byte	0
 3981              		.section	.debug_line,"",%progbits
 3982              	.Ldebug_line0:
 3983 0000 01030000 		.section	.debug_str,"MS",%progbits,1
 3983      02002401 
 3983      00000201 
 3983      FB0E0D00 
 3983      01010101 
 3984              	.LASF38:
 3985 0000 705F6D73 		.ascii	"p_msg\000"
 3985      6700
 3986              	.LASF68:
 3987 0006 7264796D 		.ascii	"rdymsg\000"
 3987      736700
 3988              	.LASF93:
 3989 000d 6462675F 		.ascii	"dbg_check_lock\000"
 3989      63686563 
 3989      6B5F6C6F 
 3989      636B00
 3990              	.LASF81:
 3991 001c 63684576 		.ascii	"chEvtSignal\000"
 3991      74536967 
 3991      6E616C00 
 3992              	.LASF11:
 3993 0028 6C6F6E67 		.ascii	"long long unsigned int\000"
 3993      206C6F6E 
 3993      6720756E 
 3993      7369676E 
 3993      65642069 
 3994              	.LASF77:
 3995 003f 63684576 		.ascii	"chEvtAddEvents\000"
 3995      74416464 
 3995      4576656E 
 3995      747300
 3996              	.LASF69:
 3997 004e 65786974 		.ascii	"exitcode\000"
 3997      636F6465 
 3997      00
 3998              	.LASF91:
 3999 0057 63684576 		.ascii	"chEvtWaitAnyTimeout\000"
 3999      74576169 
 3999      74416E79 
 3999      54696D65 
 3999      6F757400 
 4000              	.LASF26:
 4001 006b 705F7072 		.ascii	"p_prio\000"
 4001      696F00
 4002              	.LASF10:
 4003 0072 6C6F6E67 		.ascii	"long long int\000"
 4003      206C6F6E 
 4003      6720696E 
ARM GAS  /var/folders/qh/xwg3v3kj02qbxczjpdb8lzfr0000gn/T//ccTDBctj.s 			page 72


 4003      7400
 4004              	.LASF1:
 4005 0080 7369676E 		.ascii	"signed char\000"
 4005      65642063 
 4005      68617200 
 4006              	.LASF92:
 4007 008c 63684576 		.ascii	"chEvtWaitAllTimeout\000"
 4007      74576169 
 4007      74416C6C 
 4007      54696D65 
 4007      6F757400 
 4008              	.LASF42:
 4009 00a0 705F6D70 		.ascii	"p_mpool\000"
 4009      6F6F6C00 
 4010              	.LASF57:
 4011 00a8 6D5F7175 		.ascii	"m_queue\000"
 4011      65756500 
 4012              	.LASF16:
 4013 00b0 74736C69 		.ascii	"tslices_t\000"
 4013      6365735F 
 4013      7400
 4014              	.LASF7:
 4015 00ba 6C6F6E67 		.ascii	"long int\000"
 4015      20696E74 
 4015      00
 4016              	.LASF14:
 4017 00c3 74737461 		.ascii	"tstate_t\000"
 4017      74655F74 
 4017      00
 4018              	.LASF87:
 4019 00cc 63684576 		.ascii	"chEvtWaitAny\000"
 4019      74576169 
 4019      74416E79 
 4019      00
 4020              	.LASF99:
 4021 00d9 63685363 		.ascii	"chSchGoSleepTimeoutS\000"
 4021      68476F53 
 4021      6C656570 
 4021      54696D65 
 4021      6F757453 
 4022              	.LASF80:
 4023 00ee 63684576 		.ascii	"chEvtBroadcastFlagsI\000"
 4023      7442726F 
 4023      61646361 
 4023      7374466C 
 4023      61677349 
 4024              	.LASF28:
 4025 0103 705F6E65 		.ascii	"p_newer\000"
 4025      77657200 
 4026              	.LASF96:
 4027 010b 63685363 		.ascii	"chSchRescheduleS\000"
 4027      68526573 
 4027      63686564 
 4027      756C6553 
 4027      00
 4028              	.LASF52:
 4029 011c 725F6E65 		.ascii	"r_newer\000"
ARM GAS  /var/folders/qh/xwg3v3kj02qbxczjpdb8lzfr0000gn/T//ccTDBctj.s 			page 73


 4029      77657200 
 4030              	.LASF73:
 4031 0124 6D61736B 		.ascii	"mask\000"
 4031      00
 4032              	.LASF45:
 4033 0129 72656761 		.ascii	"regarm_t\000"
 4033      726D5F74 
 4033      00
 4034              	.LASF82:
 4035 0132 63684576 		.ascii	"chEvtBroadcastFlags\000"
 4035      7442726F 
 4035      61646361 
 4035      7374466C 
 4035      61677300 
 4036              	.LASF19:
 4037 0146 6576656E 		.ascii	"eventid_t\000"
 4037      7469645F 
 4037      7400
 4038              	.LASF65:
 4039 0150 4576656E 		.ascii	"EventSource\000"
 4039      74536F75 
 4039      72636500 
 4040              	.LASF67:
 4041 015c 65766861 		.ascii	"evhandler_t\000"
 4041      6E646C65 
 4041      725F7400 
 4042              	.LASF0:
 4043 0168 756E7369 		.ascii	"unsigned int\000"
 4043      676E6564 
 4043      20696E74 
 4043      00
 4044              	.LASF9:
 4045 0175 6C6F6E67 		.ascii	"long unsigned int\000"
 4045      20756E73 
 4045      69676E65 
 4045      6420696E 
 4045      7400
 4046              	.LASF76:
 4047 0187 63684576 		.ascii	"chEvtGetAndClearEvents\000"
 4047      74476574 
 4047      416E6443 
 4047      6C656172 
 4047      4576656E 
 4048              	.LASF102:
 4049 019e 2F557365 		.ascii	"/Users/John/Development/embedded/ChibiOS-RT/BluC/ST"
 4049      72732F4A 
 4049      6F686E2F 
 4049      44657665 
 4049      6C6F706D 
 4050 01d1 4D333246 		.ascii	"M32F051\000"
 4050      30353100 
 4051              	.LASF47:
 4052 01d9 636F6E74 		.ascii	"context\000"
 4052      65787400 
 4053              	.LASF4:
 4054 01e1 73686F72 		.ascii	"short unsigned int\000"
 4054      7420756E 
ARM GAS  /var/folders/qh/xwg3v3kj02qbxczjpdb8lzfr0000gn/T//ccTDBctj.s 			page 74


 4054      7369676E 
 4054      65642069 
 4054      6E7400
 4055              	.LASF74:
 4056 01f4 63684576 		.ascii	"chEvtRegisterMask\000"
 4056      74526567 
 4056      69737465 
 4056      724D6173 
 4056      6B00
 4057              	.LASF18:
 4058 0206 6D73675F 		.ascii	"msg_t\000"
 4058      7400
 4059              	.LASF61:
 4060 020c 656C5F6E 		.ascii	"el_next\000"
 4060      65787400 
 4061              	.LASF75:
 4062 0214 63684576 		.ascii	"chEvtUnregister\000"
 4062      74556E72 
 4062      65676973 
 4062      74657200 
 4063              	.LASF13:
 4064 0224 746D6F64 		.ascii	"tmode_t\000"
 4064      655F7400 
 4065              	.LASF44:
 4066 022c 54687265 		.ascii	"ThreadsList\000"
 4066      6164734C 
 4066      69737400 
 4067              	.LASF20:
 4068 0238 6576656E 		.ascii	"eventmask_t\000"
 4068      746D6173 
 4068      6B5F7400 
 4069              	.LASF56:
 4070 0244 4D757465 		.ascii	"Mutex\000"
 4070      7800
 4071              	.LASF94:
 4072 024a 6462675F 		.ascii	"dbg_check_unlock\000"
 4072      63686563 
 4072      6B5F756E 
 4072      6C6F636B 
 4072      00
 4073              	.LASF48:
 4074 025b 73697A65 		.ascii	"sizetype\000"
 4074      74797065 
 4074      00
 4075              	.LASF84:
 4076 0264 63684576 		.ascii	"chEvtDispatch\000"
 4076      74446973 
 4076      70617463 
 4076      6800
 4077              	.LASF100:
 4078 0272 474E5520 		.ascii	"GNU C 4.8.3 20131129 (release) [ARM/embedded-4_8-br"
 4078      4320342E 
 4078      382E3320 
 4078      32303133 
 4078      31313239 
 4079 02a5 616E6368 		.ascii	"anch revision 205641] -mcpu=cortex-m0 -mno-thumb-in"
 4079      20726576 
ARM GAS  /var/folders/qh/xwg3v3kj02qbxczjpdb8lzfr0000gn/T//ccTDBctj.s 			page 75


 4079      6973696F 
 4079      6E203230 
 4079      35363431 
 4080 02d8 74657277 		.ascii	"terwork -mthumb -ggdb -O2 -fomit-frame-pointer -fal"
 4080      6F726B20 
 4080      2D6D7468 
 4080      756D6220 
 4080      2D676764 
 4081 030b 69676E2D 		.ascii	"ign-functions=16 -ffunction-sections -fdata-section"
 4081      66756E63 
 4081      74696F6E 
 4081      733D3136 
 4081      202D6666 
 4082 033e 73202D66 		.ascii	"s -fno-common\000"
 4082      6E6F2D63 
 4082      6F6D6D6F 
 4082      6E00
 4083              	.LASF29:
 4084 034c 705F6F6C 		.ascii	"p_older\000"
 4084      64657200 
 4085              	.LASF51:
 4086 0354 725F6374 		.ascii	"r_ctx\000"
 4086      7800
 4087              	.LASF43:
 4088 035a 54687265 		.ascii	"ThreadsQueue\000"
 4088      61647351 
 4088      75657565 
 4088      00
 4089              	.LASF90:
 4090 0367 74696D65 		.ascii	"time\000"
 4090      00
 4091              	.LASF88:
 4092 036c 63684576 		.ascii	"chEvtWaitAll\000"
 4092      74576169 
 4092      74416C6C 
 4092      00
 4093              	.LASF54:
 4094 0379 725F6375 		.ascii	"r_current\000"
 4094      7272656E 
 4094      7400
 4095              	.LASF53:
 4096 0383 725F6F6C 		.ascii	"r_older\000"
 4096      64657200 
 4097              	.LASF63:
 4098 038b 656C5F6D 		.ascii	"el_mask\000"
 4098      61736B00 
 4099              	.LASF85:
 4100 0393 68616E64 		.ascii	"handlers\000"
 4100      6C657273 
 4100      00
 4101              	.LASF15:
 4102 039c 74726566 		.ascii	"trefs_t\000"
 4102      735F7400 
 4103              	.LASF25:
 4104 03a4 705F7072 		.ascii	"p_prev\000"
 4104      657600
 4105              	.LASF17:
ARM GAS  /var/folders/qh/xwg3v3kj02qbxczjpdb8lzfr0000gn/T//ccTDBctj.s 			page 76


 4106 03ab 74707269 		.ascii	"tprio_t\000"
 4106      6F5F7400 
 4107              	.LASF12:
 4108 03b3 5F426F6F 		.ascii	"_Bool\000"
 4108      6C00
 4109              	.LASF6:
 4110 03b9 696E7433 		.ascii	"int32_t\000"
 4110      325F7400 
 4111              	.LASF2:
 4112 03c1 756E7369 		.ascii	"unsigned char\000"
 4112      676E6564 
 4112      20636861 
 4112      7200
 4113              	.LASF86:
 4114 03cf 63684576 		.ascii	"chEvtWaitOne\000"
 4114      74576169 
 4114      744F6E65 
 4114      00
 4115              	.LASF62:
 4116 03dc 656C5F6C 		.ascii	"el_listener\000"
 4116      69737465 
 4116      6E657200 
 4117              	.LASF64:
 4118 03e8 656C5F66 		.ascii	"el_flags\000"
 4118      6C616773 
 4118      00
 4119              	.LASF40:
 4120 03f1 705F6D74 		.ascii	"p_mtxlist\000"
 4120      786C6973 
 4120      7400
 4121              	.LASF3:
 4122 03fb 73686F72 		.ascii	"short int\000"
 4122      7420696E 
 4122      7400
 4123              	.LASF31:
 4124 0405 705F7374 		.ascii	"p_state\000"
 4124      61746500 
 4125              	.LASF34:
 4126 040d 705F7072 		.ascii	"p_preempt\000"
 4126      65656D70 
 4126      7400
 4127              	.LASF50:
 4128 0417 725F7072 		.ascii	"r_prio\000"
 4128      696F00
 4129              	.LASF83:
 4130 041e 63684576 		.ascii	"chEvtGetAndClearFlagsI\000"
 4130      74476574 
 4130      416E6443 
 4130      6C656172 
 4130      466C6167 
 4131              	.LASF71:
 4132 0435 65776D61 		.ascii	"ewmask\000"
 4132      736B00
 4133              	.LASF24:
 4134 043c 705F6E65 		.ascii	"p_next\000"
 4134      787400
 4135              	.LASF32:
ARM GAS  /var/folders/qh/xwg3v3kj02qbxczjpdb8lzfr0000gn/T//ccTDBctj.s 			page 77


 4136 0443 705F666C 		.ascii	"p_flags\000"
 4136      61677300 
 4137              	.LASF23:
 4138 044b 54687265 		.ascii	"Thread\000"
 4138      616400
 4139              	.LASF98:
 4140 0452 63685363 		.ascii	"chSchGoSleepS\000"
 4140      68476F53 
 4140      6C656570 
 4140      5300
 4141              	.LASF39:
 4142 0460 705F6570 		.ascii	"p_epending\000"
 4142      656E6469 
 4142      6E6700
 4143              	.LASF8:
 4144 046b 75696E74 		.ascii	"uint32_t\000"
 4144      33325F74 
 4144      00
 4145              	.LASF49:
 4146 0474 725F7175 		.ascii	"r_queue\000"
 4146      65756500 
 4147              	.LASF104:
 4148 047c 63685363 		.ascii	"chSchReadyI\000"
 4148      68526561 
 4148      64794900 
 4149              	.LASF72:
 4150 0488 63686172 		.ascii	"char\000"
 4150      00
 4151              	.LASF59:
 4152 048d 6D5F6E65 		.ascii	"m_next\000"
 4152      787400
 4153              	.LASF22:
 4154 0494 73797374 		.ascii	"systime_t\000"
 4154      696D655F 
 4154      7400
 4155              	.LASF41:
 4156 049e 705F7265 		.ascii	"p_realprio\000"
 4156      616C7072 
 4156      696F00
 4157              	.LASF35:
 4158 04a9 705F7469 		.ascii	"p_time\000"
 4158      6D6500
 4159              	.LASF46:
 4160 04b0 696E7463 		.ascii	"intctx\000"
 4160      747800
 4161              	.LASF37:
 4162 04b7 705F6D73 		.ascii	"p_msgqueue\000"
 4162      67717565 
 4162      756500
 4163              	.LASF21:
 4164 04c2 666C6167 		.ascii	"flagsmask_t\000"
 4164      736D6173 
 4164      6B5F7400 
 4165              	.LASF33:
 4166 04ce 705F7265 		.ascii	"p_refs\000"
 4166      667300
 4167              	.LASF55:
ARM GAS  /var/folders/qh/xwg3v3kj02qbxczjpdb8lzfr0000gn/T//ccTDBctj.s 			page 78


 4168 04d5 52656164 		.ascii	"ReadyList\000"
 4168      794C6973 
 4168      7400
 4169              	.LASF103:
 4170 04df 726C6973 		.ascii	"rlist\000"
 4170      7400
 4171              	.LASF5:
 4172 04e5 75696E74 		.ascii	"uint8_t\000"
 4172      385F7400 
 4173              	.LASF79:
 4174 04ed 666C6167 		.ascii	"flags\000"
 4174      7300
 4175              	.LASF101:
 4176 04f3 2E2E2F2E 		.ascii	"../../os/kernel/src/chevents.c\000"
 4176      2E2F6F73 
 4176      2F6B6572 
 4176      6E656C2F 
 4176      7372632F 
 4177              	.LASF60:
 4178 0512 4576656E 		.ascii	"EventListener\000"
 4178      744C6973 
 4178      74656E65 
 4178      7200
 4179              	.LASF89:
 4180 0520 63684576 		.ascii	"chEvtWaitOneTimeout\000"
 4180      74576169 
 4180      744F6E65 
 4180      54696D65 
 4180      6F757400 
 4181              	.LASF70:
 4182 0534 77746F62 		.ascii	"wtobjp\000"
 4182      6A7000
 4183              	.LASF30:
 4184 053b 705F6E61 		.ascii	"p_name\000"
 4184      6D6500
 4185              	.LASF66:
 4186 0542 65735F6E 		.ascii	"es_next\000"
 4186      65787400 
 4187              	.LASF78:
 4188 054a 63684576 		.ascii	"chEvtGetAndClearFlags\000"
 4188      74476574 
 4188      416E6443 
 4188      6C656172 
 4188      466C6167 
 4189              	.LASF95:
 4190 0560 63684462 		.ascii	"chDbgCheckClassI\000"
 4190      67436865 
 4190      636B436C 
 4190      61737349 
 4190      00
 4191              	.LASF58:
 4192 0571 6D5F6F77 		.ascii	"m_owner\000"
 4192      6E657200 
 4193              	.LASF27:
 4194 0579 705F6374 		.ascii	"p_ctx\000"
 4194      7800
 4195              	.LASF36:
ARM GAS  /var/folders/qh/xwg3v3kj02qbxczjpdb8lzfr0000gn/T//ccTDBctj.s 			page 79


 4196 057f 705F7761 		.ascii	"p_waiting\000"
 4196      6974696E 
 4196      6700
 4197              	.LASF97:
 4198 0589 63684576 		.ascii	"chEvtSignalI\000"
 4198      74536967 
 4198      6E616C49 
 4198      00
 4199              		.ident	"GCC: (GNU Tools for ARM Embedded Processors) 4.8.3 20131129 (release) [ARM/embedded-4_8-br
ARM GAS  /var/folders/qh/xwg3v3kj02qbxczjpdb8lzfr0000gn/T//ccTDBctj.s 			page 80


DEFINED SYMBOLS
                            *ABS*:0000000000000000 chevents.c
/var/folders/qh/xwg3v3kj02qbxczjpdb8lzfr0000gn/T//ccTDBctj.s:18     .text.chEvtRegisterMask:0000000000000000 $t
/var/folders/qh/xwg3v3kj02qbxczjpdb8lzfr0000gn/T//ccTDBctj.s:24     .text.chEvtRegisterMask:0000000000000000 chEvtRegisterMask
/var/folders/qh/xwg3v3kj02qbxczjpdb8lzfr0000gn/T//ccTDBctj.s:79     .text.chEvtRegisterMask:0000000000000028 $d
/var/folders/qh/xwg3v3kj02qbxczjpdb8lzfr0000gn/T//ccTDBctj.s:84     .text.chEvtUnregister:0000000000000000 $t
/var/folders/qh/xwg3v3kj02qbxczjpdb8lzfr0000gn/T//ccTDBctj.s:90     .text.chEvtUnregister:0000000000000000 chEvtUnregister
/var/folders/qh/xwg3v3kj02qbxczjpdb8lzfr0000gn/T//ccTDBctj.s:153    .text.chEvtGetAndClearEvents:0000000000000000 $t
/var/folders/qh/xwg3v3kj02qbxczjpdb8lzfr0000gn/T//ccTDBctj.s:159    .text.chEvtGetAndClearEvents:0000000000000000 chEvtGetAndClearEvents
/var/folders/qh/xwg3v3kj02qbxczjpdb8lzfr0000gn/T//ccTDBctj.s:207    .text.chEvtGetAndClearEvents:0000000000000024 $d
/var/folders/qh/xwg3v3kj02qbxczjpdb8lzfr0000gn/T//ccTDBctj.s:212    .text.chEvtAddEvents:0000000000000000 $t
/var/folders/qh/xwg3v3kj02qbxczjpdb8lzfr0000gn/T//ccTDBctj.s:218    .text.chEvtAddEvents:0000000000000000 chEvtAddEvents
/var/folders/qh/xwg3v3kj02qbxczjpdb8lzfr0000gn/T//ccTDBctj.s:259    .text.chEvtAddEvents:0000000000000020 $d
/var/folders/qh/xwg3v3kj02qbxczjpdb8lzfr0000gn/T//ccTDBctj.s:264    .text.chEvtGetAndClearFlags:0000000000000000 $t
/var/folders/qh/xwg3v3kj02qbxczjpdb8lzfr0000gn/T//ccTDBctj.s:270    .text.chEvtGetAndClearFlags:0000000000000000 chEvtGetAndClearFlags
/var/folders/qh/xwg3v3kj02qbxczjpdb8lzfr0000gn/T//ccTDBctj.s:314    .text.chEvtSignalI:0000000000000000 $t
/var/folders/qh/xwg3v3kj02qbxczjpdb8lzfr0000gn/T//ccTDBctj.s:320    .text.chEvtSignalI:0000000000000000 chEvtSignalI
/var/folders/qh/xwg3v3kj02qbxczjpdb8lzfr0000gn/T//ccTDBctj.s:398    .text.chEvtBroadcastFlagsI:0000000000000000 $t
/var/folders/qh/xwg3v3kj02qbxczjpdb8lzfr0000gn/T//ccTDBctj.s:404    .text.chEvtBroadcastFlagsI:0000000000000000 chEvtBroadcastFlagsI
/var/folders/qh/xwg3v3kj02qbxczjpdb8lzfr0000gn/T//ccTDBctj.s:456    .text.chEvtSignal:0000000000000000 $t
/var/folders/qh/xwg3v3kj02qbxczjpdb8lzfr0000gn/T//ccTDBctj.s:462    .text.chEvtSignal:0000000000000000 chEvtSignal
/var/folders/qh/xwg3v3kj02qbxczjpdb8lzfr0000gn/T//ccTDBctj.s:507    .text.chEvtBroadcastFlags:0000000000000000 $t
/var/folders/qh/xwg3v3kj02qbxczjpdb8lzfr0000gn/T//ccTDBctj.s:513    .text.chEvtBroadcastFlags:0000000000000000 chEvtBroadcastFlags
/var/folders/qh/xwg3v3kj02qbxczjpdb8lzfr0000gn/T//ccTDBctj.s:558    .text.chEvtGetAndClearFlagsI:0000000000000000 $t
/var/folders/qh/xwg3v3kj02qbxczjpdb8lzfr0000gn/T//ccTDBctj.s:564    .text.chEvtGetAndClearFlagsI:0000000000000000 chEvtGetAndClearFlagsI
/var/folders/qh/xwg3v3kj02qbxczjpdb8lzfr0000gn/T//ccTDBctj.s:586    .text.chEvtDispatch:0000000000000000 $t
/var/folders/qh/xwg3v3kj02qbxczjpdb8lzfr0000gn/T//ccTDBctj.s:592    .text.chEvtDispatch:0000000000000000 chEvtDispatch
/var/folders/qh/xwg3v3kj02qbxczjpdb8lzfr0000gn/T//ccTDBctj.s:658    .text.chEvtWaitOne:0000000000000000 $t
/var/folders/qh/xwg3v3kj02qbxczjpdb8lzfr0000gn/T//ccTDBctj.s:664    .text.chEvtWaitOne:0000000000000000 chEvtWaitOne
/var/folders/qh/xwg3v3kj02qbxczjpdb8lzfr0000gn/T//ccTDBctj.s:731    .text.chEvtWaitOne:0000000000000038 $d
/var/folders/qh/xwg3v3kj02qbxczjpdb8lzfr0000gn/T//ccTDBctj.s:736    .text.chEvtWaitAny:0000000000000000 $t
/var/folders/qh/xwg3v3kj02qbxczjpdb8lzfr0000gn/T//ccTDBctj.s:742    .text.chEvtWaitAny:0000000000000000 chEvtWaitAny
/var/folders/qh/xwg3v3kj02qbxczjpdb8lzfr0000gn/T//ccTDBctj.s:807    .text.chEvtWaitAny:0000000000000034 $d
/var/folders/qh/xwg3v3kj02qbxczjpdb8lzfr0000gn/T//ccTDBctj.s:812    .text.chEvtWaitAll:0000000000000000 $t
/var/folders/qh/xwg3v3kj02qbxczjpdb8lzfr0000gn/T//ccTDBctj.s:818    .text.chEvtWaitAll:0000000000000000 chEvtWaitAll
/var/folders/qh/xwg3v3kj02qbxczjpdb8lzfr0000gn/T//ccTDBctj.s:876    .text.chEvtWaitAll:0000000000000030 $d
/var/folders/qh/xwg3v3kj02qbxczjpdb8lzfr0000gn/T//ccTDBctj.s:881    .text.chEvtWaitOneTimeout:0000000000000000 $t
/var/folders/qh/xwg3v3kj02qbxczjpdb8lzfr0000gn/T//ccTDBctj.s:887    .text.chEvtWaitOneTimeout:0000000000000000 chEvtWaitOneTimeout
/var/folders/qh/xwg3v3kj02qbxczjpdb8lzfr0000gn/T//ccTDBctj.s:977    .text.chEvtWaitOneTimeout:000000000000004c $d
/var/folders/qh/xwg3v3kj02qbxczjpdb8lzfr0000gn/T//ccTDBctj.s:982    .text.chEvtWaitAnyTimeout:0000000000000000 $t
/var/folders/qh/xwg3v3kj02qbxczjpdb8lzfr0000gn/T//ccTDBctj.s:988    .text.chEvtWaitAnyTimeout:0000000000000000 chEvtWaitAnyTimeout
/var/folders/qh/xwg3v3kj02qbxczjpdb8lzfr0000gn/T//ccTDBctj.s:1076   .text.chEvtWaitAnyTimeout:0000000000000048 $d
/var/folders/qh/xwg3v3kj02qbxczjpdb8lzfr0000gn/T//ccTDBctj.s:1081   .text.chEvtWaitAllTimeout:0000000000000000 $t
/var/folders/qh/xwg3v3kj02qbxczjpdb8lzfr0000gn/T//ccTDBctj.s:1087   .text.chEvtWaitAllTimeout:0000000000000000 chEvtWaitAllTimeout
/var/folders/qh/xwg3v3kj02qbxczjpdb8lzfr0000gn/T//ccTDBctj.s:1168   .text.chEvtWaitAllTimeout:0000000000000048 $d
                     .debug_frame:0000000000000010 $d
/var/folders/qh/xwg3v3kj02qbxczjpdb8lzfr0000gn/T//ccTDBctj.s:83     .text.chEvtRegisterMask:000000000000002c $t
/var/folders/qh/xwg3v3kj02qbxczjpdb8lzfr0000gn/T//ccTDBctj.s:211    .text.chEvtGetAndClearEvents:0000000000000028 $t
/var/folders/qh/xwg3v3kj02qbxczjpdb8lzfr0000gn/T//ccTDBctj.s:263    .text.chEvtAddEvents:0000000000000024 $t
/var/folders/qh/xwg3v3kj02qbxczjpdb8lzfr0000gn/T//ccTDBctj.s:735    .text.chEvtWaitOne:000000000000003c $t
/var/folders/qh/xwg3v3kj02qbxczjpdb8lzfr0000gn/T//ccTDBctj.s:811    .text.chEvtWaitAny:0000000000000038 $t
/var/folders/qh/xwg3v3kj02qbxczjpdb8lzfr0000gn/T//ccTDBctj.s:880    .text.chEvtWaitAll:0000000000000034 $t
/var/folders/qh/xwg3v3kj02qbxczjpdb8lzfr0000gn/T//ccTDBctj.s:1080   .text.chEvtWaitAnyTimeout:000000000000004c $t
/var/folders/qh/xwg3v3kj02qbxczjpdb8lzfr0000gn/T//ccTDBctj.s:1172   .text.chEvtWaitAllTimeout:000000000000004c $t

UNDEFINED SYMBOLS
dbg_check_lock
ARM GAS  /var/folders/qh/xwg3v3kj02qbxczjpdb8lzfr0000gn/T//ccTDBctj.s 			page 81


dbg_check_unlock
rlist
chDbgCheckClassI
chSchReadyI
chSchRescheduleS
chSchGoSleepS
chSchGoSleepTimeoutS
