ARM GAS  /var/folders/qh/xwg3v3kj02qbxczjpdb8lzfr0000gn/T//cc0rwue4.s 			page 1


   1              		.cpu cortex-m0
   2              		.fpu softvfp
   3              		.eabi_attribute 20, 1
   4              		.eabi_attribute 21, 1
   5              		.eabi_attribute 23, 3
   6              		.eabi_attribute 24, 1
   7              		.eabi_attribute 25, 1
   8              		.eabi_attribute 26, 1
   9              		.eabi_attribute 30, 2
  10              		.eabi_attribute 34, 0
  11              		.eabi_attribute 18, 4
  12              		.code	16
  13              		.file	"chheap.c"
  14              		.text
  15              	.Ltext0:
  16              		.cfi_sections	.debug_frame
  17              		.section	.text._heap_init,"ax",%progbits
  18              		.align	2
  19              		.p2align 4,,15
  20              		.global	_heap_init
  21              		.code	16
  22              		.thumb_func
  23              		.type	_heap_init, %function
  24              	_heap_init:
  25              	.LFB7:
  26              		.file 1 "../../os/kernel/src/chheap.c"
  27              		.loc 1 68 0
  28              		.cfi_startproc
  29 0000 08B5     		push	{r3, lr}
  30              		.cfi_def_cfa_offset 8
  31              		.cfi_offset 3, -8
  32              		.cfi_offset 14, -4
  33              		.loc 1 69 0
  34 0002 0548     		ldr	r0, .L2
  35 0004 054B     		ldr	r3, .L2+4
  36              		.loc 1 77 0
  37              		@ sp needed
  38              		.loc 1 69 0
  39 0006 0360     		str	r3, [r0]
  40              		.loc 1 70 0
  41 0008 0023     		mov	r3, #0
  42 000a 8360     		str	r3, [r0, #8]
  43              		.loc 1 71 0
  44 000c C360     		str	r3, [r0, #12]
  45              		.loc 1 73 0
  46 000e 1030     		add	r0, r0, #16
  47 0010 FFF7FEFF 		bl	chMtxInit
  48              	.LVL0:
  49              		.loc 1 77 0
  50 0014 08BD     		pop	{r3, pc}
  51              	.L3:
  52 0016 C046     		.align	2
  53              	.L2:
  54 0018 00000000 		.word	.LANCHOR0
  55 001c 00000000 		.word	chCoreAlloc
  56              		.cfi_endproc
  57              	.LFE7:
ARM GAS  /var/folders/qh/xwg3v3kj02qbxczjpdb8lzfr0000gn/T//cc0rwue4.s 			page 2


  58              		.size	_heap_init, .-_heap_init
  59              		.section	.text.chHeapInit,"ax",%progbits
  60              		.align	2
  61              		.p2align 4,,15
  62              		.global	chHeapInit
  63              		.code	16
  64              		.thumb_func
  65              		.type	chHeapInit, %function
  66              	chHeapInit:
  67              	.LFB8:
  68              		.loc 1 92 0
  69              		.cfi_startproc
  70              	.LVL1:
  71 0000 08B5     		push	{r3, lr}
  72              		.cfi_def_cfa_offset 8
  73              		.cfi_offset 3, -8
  74              		.cfi_offset 14, -4
  75              		.loc 1 101 0
  76 0002 083A     		sub	r2, r2, #8
  77              	.LVL2:
  78              		.loc 1 97 0
  79 0004 0023     		mov	r3, #0
  80 0006 0360     		str	r3, [r0]
  81              	.LVL3:
  82              		.loc 1 98 0
  83 0008 8160     		str	r1, [r0, #8]
  84              		.loc 1 99 0
  85 000a C360     		str	r3, [r0, #12]
  86              		.loc 1 100 0
  87 000c 0B60     		str	r3, [r1]
  88              		.loc 1 101 0
  89 000e 4A60     		str	r2, [r1, #4]
  90              		.loc 1 103 0
  91 0010 1030     		add	r0, r0, #16
  92              	.LVL4:
  93 0012 FFF7FEFF 		bl	chMtxInit
  94              	.LVL5:
  95              		.loc 1 107 0
  96              		@ sp needed
  97 0016 08BD     		pop	{r3, pc}
  98              		.cfi_endproc
  99              	.LFE8:
 100              		.size	chHeapInit, .-chHeapInit
 101 0018 C046C046 		.section	.text.chHeapAlloc,"ax",%progbits
 101      C046C046 
 102              		.align	2
 103              		.p2align 4,,15
 104              		.global	chHeapAlloc
 105              		.code	16
 106              		.thumb_func
 107              		.type	chHeapAlloc, %function
 108              	chHeapAlloc:
 109              	.LFB9:
 110              		.loc 1 125 0
 111              		.cfi_startproc
 112              	.LVL6:
 113 0000 F8B5     		push	{r3, r4, r5, r6, r7, lr}
ARM GAS  /var/folders/qh/xwg3v3kj02qbxczjpdb8lzfr0000gn/T//cc0rwue4.s 			page 3


 114              		.cfi_def_cfa_offset 24
 115              		.cfi_offset 3, -24
 116              		.cfi_offset 4, -20
 117              		.cfi_offset 5, -16
 118              		.cfi_offset 6, -12
 119              		.cfi_offset 7, -8
 120              		.cfi_offset 14, -4
 121              		.loc 1 125 0
 122 0002 071E     		sub	r7, r0, #0
 123              		.loc 1 128 0
 124 0004 33D0     		beq	.L20
 125              	.L6:
 126              	.LVL7:
 127              		.loc 1 133 0
 128 0006 381C     		mov	r0, r7
 129              		.loc 1 131 0
 130 0008 CE1D     		add	r6, r1, #7
 131 000a 0723     		mov	r3, #7
 132              		.loc 1 132 0
 133 000c 3D1C     		mov	r5, r7
 134              		.loc 1 133 0
 135 000e 1030     		add	r0, r0, #16
 136              		.loc 1 131 0
 137 0010 9E43     		bic	r6, r3
 138              	.LVL8:
 139              		.loc 1 132 0
 140 0012 0835     		add	r5, r5, #8
 141              	.LVL9:
 142              		.loc 1 133 0
 143 0014 FFF7FEFF 		bl	chMtxLock
 144              	.LVL10:
 145              		.loc 1 135 0
 146 0018 03E0     		b	.L7
 147              	.L12:
 148              	.LVL11:
 149              		.loc 1 137 0
 150 001a 6368     		ldr	r3, [r4, #4]
 151 001c 9E42     		cmp	r6, r3
 152 001e 11D9     		bls	.L21
 153 0020 251C     		mov	r5, r4
 154              	.LVL12:
 155              	.L7:
 156              		.loc 1 135 0 discriminator 1
 157 0022 2C68     		ldr	r4, [r5]
 158 0024 002C     		cmp	r4, #0
 159 0026 F8D1     		bne	.L12
 160              		.loc 1 160 0
 161 0028 FFF7FEFF 		bl	chMtxUnlock
 162              	.LVL13:
 163              		.loc 1 164 0
 164 002c 3B68     		ldr	r3, [r7]
 165 002e 002B     		cmp	r3, #0
 166 0030 1FD0     		beq	.L14
 167              		.loc 1 165 0
 168 0032 301C     		mov	r0, r6
 169 0034 0830     		add	r0, r0, #8
 170 0036 9847     		blx	r3
ARM GAS  /var/folders/qh/xwg3v3kj02qbxczjpdb8lzfr0000gn/T//cc0rwue4.s 			page 4


 171              	.LVL14:
 172              		.loc 1 166 0
 173 0038 0028     		cmp	r0, #0
 174 003a 1AD0     		beq	.L14
 175              		.loc 1 167 0
 176 003c 0760     		str	r7, [r0]
 177              		.loc 1 168 0
 178 003e 4660     		str	r6, [r0, #4]
 179              	.LVL15:
 180              		.loc 1 170 0
 181 0040 0830     		add	r0, r0, #8
 182              	.LVL16:
 183              	.L11:
 184              		.loc 1 174 0
 185              		@ sp needed
 186              	.LVL17:
 187              	.LVL18:
 188              	.LVL19:
 189 0042 F8BD     		pop	{r3, r4, r5, r6, r7, pc}
 190              	.LVL20:
 191              	.L21:
 192              		.loc 1 138 0
 193 0044 321C     		mov	r2, r6
 194 0046 0832     		add	r2, r2, #8
 195 0048 9A42     		cmp	r2, r3
 196 004a 07D9     		bls	.L9
 197              		.loc 1 142 0
 198 004c 2168     		ldr	r1, [r4]
 199 004e 2960     		str	r1, [r5]
 200              	.L10:
 201              		.loc 1 152 0
 202 0050 2760     		str	r7, [r4]
 203              		.loc 1 154 0
 204 0052 FFF7FEFF 		bl	chMtxUnlock
 205              	.LVL21:
 206              		.loc 1 155 0
 207 0056 201C     		mov	r0, r4
 208 0058 0830     		add	r0, r0, #8
 209 005a F2E7     		b	.L11
 210              	.L9:
 211              		.loc 1 147 0
 212 005c 2168     		ldr	r1, [r4]
 213              		.loc 1 148 0
 214 005e 9B1B     		sub	r3, r3, r6
 215              		.loc 1 146 0
 216 0060 A218     		add	r2, r4, r2
 217              	.LVL22:
 218              		.loc 1 148 0
 219 0062 083B     		sub	r3, r3, #8
 220              		.loc 1 147 0
 221 0064 1160     		str	r1, [r2]
 222              		.loc 1 148 0
 223 0066 5360     		str	r3, [r2, #4]
 224              		.loc 1 149 0
 225 0068 2A60     		str	r2, [r5]
 226              		.loc 1 150 0
 227 006a 6660     		str	r6, [r4, #4]
ARM GAS  /var/folders/qh/xwg3v3kj02qbxczjpdb8lzfr0000gn/T//cc0rwue4.s 			page 5


 228 006c F0E7     		b	.L10
 229              	.LVL23:
 230              	.L20:
 231              		.loc 1 129 0
 232 006e 024F     		ldr	r7, .L22
 233 0070 C9E7     		b	.L6
 234              	.LVL24:
 235              	.L14:
 236              		.loc 1 173 0
 237 0072 0020     		mov	r0, #0
 238 0074 E5E7     		b	.L11
 239              	.L23:
 240 0076 C046     		.align	2
 241              	.L22:
 242 0078 00000000 		.word	.LANCHOR0
 243              		.cfi_endproc
 244              	.LFE9:
 245              		.size	chHeapAlloc, .-chHeapAlloc
 246 007c C046C046 		.section	.text.chHeapFree,"ax",%progbits
 247              		.align	2
 248              		.p2align 4,,15
 249              		.global	chHeapFree
 250              		.code	16
 251              		.thumb_func
 252              		.type	chHeapFree, %function
 253              	chHeapFree:
 254              	.LFB10:
 255              		.loc 1 187 0
 256              		.cfi_startproc
 257              	.LVL25:
 258 0000 38B5     		push	{r3, r4, r5, lr}
 259              		.cfi_def_cfa_offset 16
 260              		.cfi_offset 3, -16
 261              		.cfi_offset 4, -12
 262              		.cfi_offset 5, -8
 263              		.cfi_offset 14, -4
 264              		.loc 1 193 0
 265 0002 041C     		mov	r4, r0
 266 0004 083C     		sub	r4, r4, #8
 267              	.LVL26:
 268              		.loc 1 194 0
 269 0006 2068     		ldr	r0, [r4]
 270              	.LVL27:
 271              		.loc 1 195 0
 272 0008 051C     		mov	r5, r0
 273 000a 0835     		add	r5, r5, #8
 274              	.LVL28:
 275              		.loc 1 196 0
 276 000c 1030     		add	r0, r0, #16
 277              	.LVL29:
 278 000e FFF7FEFF 		bl	chMtxLock
 279              	.LVL30:
 280              		.loc 1 195 0
 281 0012 2B1C     		mov	r3, r5
 282              	.LVL31:
 283              	.L31:
 284              		.loc 1 203 0
ARM GAS  /var/folders/qh/xwg3v3kj02qbxczjpdb8lzfr0000gn/T//cc0rwue4.s 			page 6


 285 0014 AB42     		cmp	r3, r5
 286 0016 04D0     		beq	.L25
 287              	.L36:
 288              		.loc 1 203 0 is_stmt 0 discriminator 2
 289 0018 A342     		cmp	r3, r4
 290 001a 02D3     		bcc	.L25
 291 001c 1B68     		ldr	r3, [r3]
 292              	.LVL32:
 293              		.loc 1 203 0
 294 001e AB42     		cmp	r3, r5
 295 0020 FAD1     		bne	.L36
 296              	.L25:
 297              		.loc 1 204 0 is_stmt 1 discriminator 1
 298 0022 1A68     		ldr	r2, [r3]
 299              		.loc 1 203 0 discriminator 1
 300 0024 002A     		cmp	r2, #0
 301 0026 03D0     		beq	.L27
 302              		.loc 1 204 0
 303 0028 9442     		cmp	r4, r2
 304 002a 01D3     		bcc	.L27
 305 002c 131C     		mov	r3, r2
 306              	.LVL33:
 307              		.loc 1 222 0
 308 002e F1E7     		b	.L31
 309              	.LVL34:
 310              	.L27:
 311              		.loc 1 209 0
 312 0030 6168     		ldr	r1, [r4, #4]
 313              		.loc 1 206 0
 314 0032 2260     		str	r2, [r4]
 315              		.loc 1 207 0
 316 0034 1C60     		str	r4, [r3]
 317              		.loc 1 209 0
 318 0036 0A1C     		mov	r2, r1
 319 0038 0832     		add	r2, r2, #8
 320 003a 2068     		ldr	r0, [r4]
 321 003c A218     		add	r2, r4, r2
 322 003e 8242     		cmp	r2, r0
 323 0040 08D0     		beq	.L37
 324              		.loc 1 214 0
 325 0042 5A68     		ldr	r2, [r3, #4]
 326 0044 111C     		mov	r1, r2
 327 0046 0831     		add	r1, r1, #8
 328 0048 5918     		add	r1, r3, r1
 329 004a 8C42     		cmp	r4, r1
 330 004c 0ED0     		beq	.L38
 331              	.LVL35:
 332              	.L30:
 333              		.loc 1 224 0
 334 004e FFF7FEFF 		bl	chMtxUnlock
 335              	.LVL36:
 336              		.loc 1 226 0
 337              		@ sp needed
 338              	.LVL37:
 339 0052 38BD     		pop	{r3, r4, r5, pc}
 340              	.LVL38:
 341              	.L37:
ARM GAS  /var/folders/qh/xwg3v3kj02qbxczjpdb8lzfr0000gn/T//cc0rwue4.s 			page 7


 342              		.loc 1 211 0
 343 0054 5068     		ldr	r0, [r2, #4]
 344              		.loc 1 212 0
 345 0056 1268     		ldr	r2, [r2]
 346              		.loc 1 211 0
 347 0058 0918     		add	r1, r1, r0
 348 005a 0831     		add	r1, r1, #8
 349 005c 6160     		str	r1, [r4, #4]
 350              		.loc 1 212 0
 351 005e 2260     		str	r2, [r4]
 352              		.loc 1 214 0
 353 0060 5A68     		ldr	r2, [r3, #4]
 354 0062 111C     		mov	r1, r2
 355 0064 0831     		add	r1, r1, #8
 356 0066 5918     		add	r1, r3, r1
 357 0068 8C42     		cmp	r4, r1
 358 006a F0D1     		bne	.L30
 359              	.L38:
 360              		.loc 1 216 0
 361 006c 6168     		ldr	r1, [r4, #4]
 362              		.loc 1 217 0
 363 006e 2468     		ldr	r4, [r4]
 364              	.LVL39:
 365              		.loc 1 216 0
 366 0070 5218     		add	r2, r2, r1
 367 0072 0832     		add	r2, r2, #8
 368 0074 5A60     		str	r2, [r3, #4]
 369              		.loc 1 217 0
 370 0076 1C60     		str	r4, [r3]
 371 0078 E9E7     		b	.L30
 372              		.cfi_endproc
 373              	.LFE10:
 374              		.size	chHeapFree, .-chHeapFree
 375 007a C046C046 		.section	.text.chHeapStatus,"ax",%progbits
 375      C046
 376              		.align	2
 377              		.p2align 4,,15
 378              		.global	chHeapStatus
 379              		.code	16
 380              		.thumb_func
 381              		.type	chHeapStatus, %function
 382              	chHeapStatus:
 383              	.LFB11:
 384              		.loc 1 243 0
 385              		.cfi_startproc
 386              	.LVL40:
 387 0000 38B5     		push	{r3, r4, r5, lr}
 388              		.cfi_def_cfa_offset 16
 389              		.cfi_offset 3, -16
 390              		.cfi_offset 4, -12
 391              		.cfi_offset 5, -8
 392              		.cfi_offset 14, -4
 393              		.loc 1 243 0
 394 0002 041C     		mov	r4, r0
 395 0004 0D1C     		mov	r5, r1
 396              		.loc 1 247 0
 397 0006 0028     		cmp	r0, #0
ARM GAS  /var/folders/qh/xwg3v3kj02qbxczjpdb8lzfr0000gn/T//cc0rwue4.s 			page 8


 398 0008 15D0     		beq	.L52
 399              	.L40:
 400              	.LVL41:
 401              		.loc 1 250 0
 402 000a 201C     		mov	r0, r4
 403 000c 1030     		add	r0, r0, #16
 404 000e FFF7FEFF 		bl	chMtxLock
 405              	.LVL42:
 406              		.loc 1 253 0
 407 0012 A368     		ldr	r3, [r4, #8]
 408              		.loc 1 252 0
 409 0014 0022     		mov	r2, #0
 410              		.loc 1 253 0
 411 0016 0024     		mov	r4, #0
 412              	.LVL43:
 413 0018 002B     		cmp	r3, #0
 414 001a 05D0     		beq	.L41
 415              	.LVL44:
 416              	.L42:
 417              		.loc 1 254 0 discriminator 2
 418 001c 5968     		ldr	r1, [r3, #4]
 419              		.loc 1 253 0 discriminator 2
 420 001e 1B68     		ldr	r3, [r3]
 421              		.loc 1 254 0 discriminator 2
 422 0020 5218     		add	r2, r2, r1
 423              	.LVL45:
 424              		.loc 1 253 0 discriminator 2
 425 0022 0134     		add	r4, r4, #1
 426              	.LVL46:
 427 0024 002B     		cmp	r3, #0
 428 0026 F9D1     		bne	.L42
 429              	.LVL47:
 430              	.L41:
 431              		.loc 1 255 0
 432 0028 002D     		cmp	r5, #0
 433 002a 00D0     		beq	.L43
 434              		.loc 1 256 0
 435 002c 2A60     		str	r2, [r5]
 436              	.L43:
 437              		.loc 1 258 0
 438 002e FFF7FEFF 		bl	chMtxUnlock
 439              	.LVL48:
 440              		.loc 1 260 0
 441              		@ sp needed
 442 0032 201C     		mov	r0, r4
 443              	.LVL49:
 444 0034 38BD     		pop	{r3, r4, r5, pc}
 445              	.LVL50:
 446              	.L52:
 447              		.loc 1 248 0
 448 0036 014C     		ldr	r4, .L53
 449 0038 E7E7     		b	.L40
 450              	.L54:
 451 003a C046     		.align	2
 452              	.L53:
 453 003c 00000000 		.word	.LANCHOR0
 454              		.cfi_endproc
ARM GAS  /var/folders/qh/xwg3v3kj02qbxczjpdb8lzfr0000gn/T//cc0rwue4.s 			page 9


 455              	.LFE11:
 456              		.size	chHeapStatus, .-chHeapStatus
 457              		.section	.bss.default_heap,"aw",%nobits
 458              		.align	3
 459              		.set	.LANCHOR0,. + 0
 460              		.type	default_heap, %object
 461              		.size	default_heap, 32
 462              	default_heap:
 463 0000 00000000 		.space	32
 463      00000000 
 463      00000000 
 463      00000000 
 463      00000000 
 464              		.text
 465              	.Letext0:
 466              		.file 2 "/usr/local/Cellar/gcc-arm-none-eabi-48/20131218/lib/gcc/arm-none-eabi/4.8.3/include/stdde
 467              		.file 3 "/usr/local/Cellar/gcc-arm-none-eabi-48/20131218/arm-none-eabi/include/stdint.h"
 468              		.file 4 "../../os/ports/GCC/ARMCMx/chtypes.h"
 469              		.file 5 "../../os/kernel/include/chlists.h"
 470              		.file 6 "../../os/kernel/include/chthreads.h"
 471              		.file 7 "../../os/ports/GCC/ARMCMx/chcore_v6m.h"
 472              		.file 8 "../../os/kernel/include/chmtx.h"
 473              		.file 9 "../../os/kernel/include/chmemcore.h"
 474              		.file 10 "../../os/kernel/include/chheap.h"