ARM GAS  /var/folders/qh/xwg3v3kj02qbxczjpdb8lzfr0000gn/T//cccW2fsI.s 			page 1


   1              		.cpu cortex-m0
   2              		.fpu softvfp
   3              		.eabi_attribute 20, 1
   4              		.eabi_attribute 21, 1
   5              		.eabi_attribute 23, 3
   6              		.eabi_attribute 24, 1
   7              		.eabi_attribute 25, 1
   8              		.eabi_attribute 26, 1
   9              		.eabi_attribute 30, 2
  10              		.eabi_attribute 34, 0
  11              		.eabi_attribute 18, 4
  12              		.code	16
  13              		.file	"chmboxes.c"
  14              		.text
  15              	.Ltext0:
  16              		.cfi_sections	.debug_frame
  17              		.section	.text.chMBInit,"ax",%progbits
  18              		.align	2
  19              		.p2align 4,,15
  20              		.global	chMBInit
  21              		.code	16
  22              		.thumb_func
  23              		.type	chMBInit, %function
  24              	chMBInit:
  25              	.LFB7:
  26              		.file 1 "../../os/kernel/src/chmboxes.c"
  27              		.loc 1 65 0
  28              		.cfi_startproc
  29              	.LVL0:
  30 0000 10B5     		push	{r4, lr}
  31              		.cfi_def_cfa_offset 8
  32              		.cfi_offset 4, -8
  33              		.cfi_offset 14, -4
  34              		.loc 1 65 0
  35 0002 041C     		mov	r4, r0
  36              		.loc 1 69 0
  37 0004 E160     		str	r1, [r4, #12]
  38 0006 A160     		str	r1, [r4, #8]
  39 0008 2160     		str	r1, [r4]
  40              		.loc 1 65 0
  41 000a 0B1C     		mov	r3, r1
  42              		.loc 1 70 0
  43 000c 9100     		lsl	r1, r2, #2
  44              	.LVL1:
  45 000e 5B18     		add	r3, r3, r1
  46              	.LVL2:
  47 0010 4360     		str	r3, [r0, #4]
  48              		.loc 1 71 0
  49 0012 111C     		mov	r1, r2
  50 0014 1C30     		add	r0, r0, #28
  51              	.LVL3:
  52 0016 FFF7FEFF 		bl	chSemInit
  53              	.LVL4:
  54              		.loc 1 72 0
  55 001a 201C     		mov	r0, r4
  56 001c 1030     		add	r0, r0, #16
  57 001e 0021     		mov	r1, #0
ARM GAS  /var/folders/qh/xwg3v3kj02qbxczjpdb8lzfr0000gn/T//cccW2fsI.s 			page 2


  58 0020 FFF7FEFF 		bl	chSemInit
  59              	.LVL5:
  60              		.loc 1 73 0
  61              		@ sp needed
  62              	.LVL6:
  63 0024 10BD     		pop	{r4, pc}
  64              		.cfi_endproc
  65              	.LFE7:
  66              		.size	chMBInit, .-chMBInit
  67 0026 C046C046 		.section	.text.chMBReset,"ax",%progbits
  67      C046C046 
  67      C046
  68              		.align	2
  69              		.p2align 4,,15
  70              		.global	chMBReset
  71              		.code	16
  72              		.thumb_func
  73              		.type	chMBReset, %function
  74              	chMBReset:
  75              	.LFB8:
  76              		.loc 1 84 0
  77              		.cfi_startproc
  78              	.LVL7:
  79 0000 10B5     		push	{r4, lr}
  80              		.cfi_def_cfa_offset 8
  81              		.cfi_offset 4, -8
  82              		.cfi_offset 14, -4
  83              		.loc 1 84 0
  84 0002 041C     		mov	r4, r0
  85              		.loc 1 88 0
  86              	@ 88 "../../os/kernel/src/chmboxes.c" 1
  87 0004 72B6     		cpsid   i
  88              	@ 0 "" 2
  89              		.loc 1 89 0
  90              		.code	16
  91 0006 0168     		ldr	r1, [r0]
  92              		.loc 1 90 0
  93 0008 6368     		ldr	r3, [r4, #4]
  94              		.loc 1 89 0
  95 000a C160     		str	r1, [r0, #12]
  96 000c 8160     		str	r1, [r0, #8]
  97              		.loc 1 90 0
  98 000e 591A     		sub	r1, r3, r1
  99 0010 1C30     		add	r0, r0, #28
 100              	.LVL8:
 101 0012 8910     		asr	r1, r1, #2
 102 0014 FFF7FEFF 		bl	chSemResetI
 103              	.LVL9:
 104              		.loc 1 91 0
 105 0018 201C     		mov	r0, r4
 106 001a 1030     		add	r0, r0, #16
 107 001c 0021     		mov	r1, #0
 108 001e FFF7FEFF 		bl	chSemResetI
 109              	.LVL10:
 110              		.loc 1 92 0
 111 0022 FFF7FEFF 		bl	chSchRescheduleS
 112              	.LVL11:
ARM GAS  /var/folders/qh/xwg3v3kj02qbxczjpdb8lzfr0000gn/T//cccW2fsI.s 			page 3


 113              		.loc 1 93 0
 114              	@ 93 "../../os/kernel/src/chmboxes.c" 1
 115 0026 62B6     		cpsie   i
 116              	@ 0 "" 2
 117              		.loc 1 94 0
 118              		.code	16
 119              		@ sp needed
 120              	.LVL12:
 121 0028 10BD     		pop	{r4, pc}
 122              		.cfi_endproc
 123              	.LFE8:
 124              		.size	chMBReset, .-chMBReset
 125 002a C046C046 		.section	.text.chMBPostS,"ax",%progbits
 125      C046
 126              		.align	2
 127              		.p2align 4,,15
 128              		.global	chMBPostS
 129              		.code	16
 130              		.thumb_func
 131              		.type	chMBPostS, %function
 132              	chMBPostS:
 133              	.LFB10:
 134              		.loc 1 143 0
 135              		.cfi_startproc
 136              	.LVL13:
 137 0000 70B5     		push	{r4, r5, r6, lr}
 138              		.cfi_def_cfa_offset 16
 139              		.cfi_offset 4, -16
 140              		.cfi_offset 5, -12
 141              		.cfi_offset 6, -8
 142              		.cfi_offset 14, -4
 143              		.loc 1 143 0
 144 0002 041C     		mov	r4, r0
 145 0004 0E1C     		mov	r6, r1
 146              		.loc 1 149 0
 147 0006 1C30     		add	r0, r0, #28
 148              	.LVL14:
 149 0008 111C     		mov	r1, r2
 150              	.LVL15:
 151 000a FFF7FEFF 		bl	chSemWaitTimeoutS
 152              	.LVL16:
 153 000e 051E     		sub	r5, r0, #0
 154              	.LVL17:
 155              		.loc 1 150 0
 156 0010 0CD1     		bne	.L4
 157              		.loc 1 151 0
 158 0012 A268     		ldr	r2, [r4, #8]
 159 0014 131D     		add	r3, r2, #4
 160 0016 A360     		str	r3, [r4, #8]
 161 0018 1660     		str	r6, [r2]
 162              		.loc 1 152 0
 163 001a 6268     		ldr	r2, [r4, #4]
 164 001c 9342     		cmp	r3, r2
 165 001e 07D2     		bcs	.L7
 166              	.L5:
 167              		.loc 1 154 0
 168 0020 201C     		mov	r0, r4
ARM GAS  /var/folders/qh/xwg3v3kj02qbxczjpdb8lzfr0000gn/T//cccW2fsI.s 			page 4


 169              	.LVL18:
 170 0022 1030     		add	r0, r0, #16
 171 0024 FFF7FEFF 		bl	chSemSignalI
 172              	.LVL19:
 173              		.loc 1 155 0
 174 0028 FFF7FEFF 		bl	chSchRescheduleS
 175              	.LVL20:
 176              	.L4:
 177              		.loc 1 158 0
 178 002c 281C     		mov	r0, r5
 179              		@ sp needed
 180              	.LVL21:
 181              	.LVL22:
 182              	.LVL23:
 183 002e 70BD     		pop	{r4, r5, r6, pc}
 184              	.LVL24:
 185              	.L7:
 186              		.loc 1 153 0
 187 0030 2368     		ldr	r3, [r4]
 188 0032 A360     		str	r3, [r4, #8]
 189 0034 F4E7     		b	.L5
 190              		.cfi_endproc
 191              	.LFE10:
 192              		.size	chMBPostS, .-chMBPostS
 193 0036 C046C046 		.section	.text.chMBPost,"ax",%progbits
 193      C046C046 
 193      C046
 194              		.align	2
 195              		.p2align 4,,15
 196              		.global	chMBPost
 197              		.code	16
 198              		.thumb_func
 199              		.type	chMBPost, %function
 200              	chMBPost:
 201              	.LFB9:
 202              		.loc 1 115 0
 203              		.cfi_startproc
 204              	.LVL25:
 205 0000 08B5     		push	{r3, lr}
 206              		.cfi_def_cfa_offset 8
 207              		.cfi_offset 3, -8
 208              		.cfi_offset 14, -4
 209              		.loc 1 118 0
 210              	@ 118 "../../os/kernel/src/chmboxes.c" 1
 211 0002 72B6     		cpsid   i
 212              	@ 0 "" 2
 213              		.loc 1 119 0
 214              		.code	16
 215 0004 FFF7FEFF 		bl	chMBPostS
 216              	.LVL26:
 217              		.loc 1 120 0
 218              	@ 120 "../../os/kernel/src/chmboxes.c" 1
 219 0008 62B6     		cpsie   i
 220              	@ 0 "" 2
 221              		.loc 1 122 0
 222              		.code	16
 223              		@ sp needed
ARM GAS  /var/folders/qh/xwg3v3kj02qbxczjpdb8lzfr0000gn/T//cccW2fsI.s 			page 5


 224 000a 08BD     		pop	{r3, pc}
 225              		.cfi_endproc
 226              	.LFE9:
 227              		.size	chMBPost, .-chMBPost
 228 000c C046C046 		.section	.text.chMBPostI,"ax",%progbits
 229              		.align	2
 230              		.p2align 4,,15
 231              		.global	chMBPostI
 232              		.code	16
 233              		.thumb_func
 234              		.type	chMBPostI, %function
 235              	chMBPostI:
 236              	.LFB11:
 237              		.loc 1 174 0
 238              		.cfi_startproc
 239              	.LVL27:
 240 0000 08B5     		push	{r3, lr}
 241              		.cfi_def_cfa_offset 8
 242              		.cfi_offset 3, -8
 243              		.cfi_offset 14, -4
 244              		.loc 1 179 0
 245 0002 436A     		ldr	r3, [r0, #36]
 246 0004 002B     		cmp	r3, #0
 247 0006 10DD     		ble	.L12
 248              		.loc 1 182 0
 249 0008 8268     		ldr	r2, [r0, #8]
 250              		.loc 1 181 0
 251 000a 013B     		sub	r3, r3, #1
 252 000c 4362     		str	r3, [r0, #36]
 253              		.loc 1 182 0
 254 000e 131D     		add	r3, r2, #4
 255 0010 8360     		str	r3, [r0, #8]
 256 0012 1160     		str	r1, [r2]
 257              		.loc 1 183 0
 258 0014 4268     		ldr	r2, [r0, #4]
 259 0016 9342     		cmp	r3, r2
 260 0018 04D2     		bcs	.L13
 261              	.L11:
 262              		.loc 1 185 0
 263 001a 1030     		add	r0, r0, #16
 264              	.LVL28:
 265 001c FFF7FEFF 		bl	chSemSignalI
 266              	.LVL29:
 267              		.loc 1 186 0
 268 0020 0020     		mov	r0, #0
 269              	.L10:
 270              		.loc 1 187 0
 271              		@ sp needed
 272 0022 08BD     		pop	{r3, pc}
 273              	.LVL30:
 274              	.L13:
 275              		.loc 1 184 0
 276 0024 0368     		ldr	r3, [r0]
 277 0026 8360     		str	r3, [r0, #8]
 278 0028 F7E7     		b	.L11
 279              	.L12:
 280              		.loc 1 180 0
ARM GAS  /var/folders/qh/xwg3v3kj02qbxczjpdb8lzfr0000gn/T//cccW2fsI.s 			page 6


 281 002a 0120     		mov	r0, #1
 282              	.LVL31:
 283 002c 4042     		neg	r0, r0
 284 002e F8E7     		b	.L10
 285              		.cfi_endproc
 286              	.LFE11:
 287              		.size	chMBPostI, .-chMBPostI
 288              		.section	.text.chMBPostAheadS,"ax",%progbits
 289              		.align	2
 290              		.p2align 4,,15
 291              		.global	chMBPostAheadS
 292              		.code	16
 293              		.thumb_func
 294              		.type	chMBPostAheadS, %function
 295              	chMBPostAheadS:
 296              	.LFB13:
 297              		.loc 1 236 0
 298              		.cfi_startproc
 299              	.LVL32:
 300 0000 70B5     		push	{r4, r5, r6, lr}
 301              		.cfi_def_cfa_offset 16
 302              		.cfi_offset 4, -16
 303              		.cfi_offset 5, -12
 304              		.cfi_offset 6, -8
 305              		.cfi_offset 14, -4
 306              		.loc 1 236 0
 307 0002 041C     		mov	r4, r0
 308 0004 0E1C     		mov	r6, r1
 309              		.loc 1 242 0
 310 0006 1C30     		add	r0, r0, #28
 311              	.LVL33:
 312 0008 111C     		mov	r1, r2
 313              	.LVL34:
 314 000a FFF7FEFF 		bl	chSemWaitTimeoutS
 315              	.LVL35:
 316 000e 051E     		sub	r5, r0, #0
 317              	.LVL36:
 318              		.loc 1 243 0
 319 0010 0CD1     		bne	.L15
 320              		.loc 1 244 0
 321 0012 E368     		ldr	r3, [r4, #12]
 322 0014 2268     		ldr	r2, [r4]
 323 0016 043B     		sub	r3, r3, #4
 324 0018 E360     		str	r3, [r4, #12]
 325 001a 9342     		cmp	r3, r2
 326 001c 08D3     		bcc	.L17
 327              	.L16:
 328              		.loc 1 247 0
 329 001e 201C     		mov	r0, r4
 330              	.LVL37:
 331              		.loc 1 246 0
 332 0020 1E60     		str	r6, [r3]
 333              		.loc 1 247 0
 334 0022 1030     		add	r0, r0, #16
 335 0024 FFF7FEFF 		bl	chSemSignalI
 336              	.LVL38:
 337              		.loc 1 248 0
ARM GAS  /var/folders/qh/xwg3v3kj02qbxczjpdb8lzfr0000gn/T//cccW2fsI.s 			page 7


 338 0028 FFF7FEFF 		bl	chSchRescheduleS
 339              	.LVL39:
 340              	.L15:
 341              		.loc 1 251 0
 342 002c 281C     		mov	r0, r5
 343              		@ sp needed
 344              	.LVL40:
 345              	.LVL41:
 346              	.LVL42:
 347 002e 70BD     		pop	{r4, r5, r6, pc}
 348              	.LVL43:
 349              	.L17:
 350              		.loc 1 245 0
 351 0030 6368     		ldr	r3, [r4, #4]
 352 0032 043B     		sub	r3, r3, #4
 353 0034 E360     		str	r3, [r4, #12]
 354 0036 F2E7     		b	.L16
 355              		.cfi_endproc
 356              	.LFE13:
 357              		.size	chMBPostAheadS, .-chMBPostAheadS
 358 0038 C046C046 		.section	.text.chMBPostAhead,"ax",%progbits
 358      C046C046 
 359              		.align	2
 360              		.p2align 4,,15
 361              		.global	chMBPostAhead
 362              		.code	16
 363              		.thumb_func
 364              		.type	chMBPostAhead, %function
 365              	chMBPostAhead:
 366              	.LFB12:
 367              		.loc 1 208 0
 368              		.cfi_startproc
 369              	.LVL44:
 370 0000 08B5     		push	{r3, lr}
 371              		.cfi_def_cfa_offset 8
 372              		.cfi_offset 3, -8
 373              		.cfi_offset 14, -4
 374              		.loc 1 211 0
 375              	@ 211 "../../os/kernel/src/chmboxes.c" 1
 376 0002 72B6     		cpsid   i
 377              	@ 0 "" 2
 378              		.loc 1 212 0
 379              		.code	16
 380 0004 FFF7FEFF 		bl	chMBPostAheadS
 381              	.LVL45:
 382              		.loc 1 213 0
 383              	@ 213 "../../os/kernel/src/chmboxes.c" 1
 384 0008 62B6     		cpsie   i
 385              	@ 0 "" 2
 386              		.loc 1 215 0
 387              		.code	16
 388              		@ sp needed
 389 000a 08BD     		pop	{r3, pc}
 390              		.cfi_endproc
 391              	.LFE12:
 392              		.size	chMBPostAhead, .-chMBPostAhead
 393 000c C046C046 		.section	.text.chMBPostAheadI,"ax",%progbits
ARM GAS  /var/folders/qh/xwg3v3kj02qbxczjpdb8lzfr0000gn/T//cccW2fsI.s 			page 8


 394              		.align	2
 395              		.p2align 4,,15
 396              		.global	chMBPostAheadI
 397              		.code	16
 398              		.thumb_func
 399              		.type	chMBPostAheadI, %function
 400              	chMBPostAheadI:
 401              	.LFB14:
 402              		.loc 1 267 0
 403              		.cfi_startproc
 404              	.LVL46:
 405 0000 08B5     		push	{r3, lr}
 406              		.cfi_def_cfa_offset 8
 407              		.cfi_offset 3, -8
 408              		.cfi_offset 14, -4
 409              		.loc 1 272 0
 410 0002 436A     		ldr	r3, [r0, #36]
 411 0004 002B     		cmp	r3, #0
 412 0006 11DD     		ble	.L22
 413              		.loc 1 274 0
 414 0008 013B     		sub	r3, r3, #1
 415 000a 4362     		str	r3, [r0, #36]
 416              		.loc 1 275 0
 417 000c C368     		ldr	r3, [r0, #12]
 418 000e 0268     		ldr	r2, [r0]
 419 0010 043B     		sub	r3, r3, #4
 420 0012 C360     		str	r3, [r0, #12]
 421 0014 9342     		cmp	r3, r2
 422 0016 05D3     		bcc	.L23
 423              	.L21:
 424              		.loc 1 278 0
 425 0018 1030     		add	r0, r0, #16
 426              	.LVL47:
 427              		.loc 1 277 0
 428 001a 1960     		str	r1, [r3]
 429              		.loc 1 278 0
 430 001c FFF7FEFF 		bl	chSemSignalI
 431              	.LVL48:
 432              		.loc 1 279 0
 433 0020 0020     		mov	r0, #0
 434              	.L20:
 435              		.loc 1 280 0
 436              		@ sp needed
 437 0022 08BD     		pop	{r3, pc}
 438              	.LVL49:
 439              	.L23:
 440              		.loc 1 276 0
 441 0024 4368     		ldr	r3, [r0, #4]
 442 0026 043B     		sub	r3, r3, #4
 443 0028 C360     		str	r3, [r0, #12]
 444 002a F5E7     		b	.L21
 445              	.L22:
 446              		.loc 1 273 0
 447 002c 0120     		mov	r0, #1
 448              	.LVL50:
 449 002e 4042     		neg	r0, r0
 450 0030 F7E7     		b	.L20
ARM GAS  /var/folders/qh/xwg3v3kj02qbxczjpdb8lzfr0000gn/T//cccW2fsI.s 			page 9


 451              		.cfi_endproc
 452              	.LFE14:
 453              		.size	chMBPostAheadI, .-chMBPostAheadI
 454 0032 C046C046 		.section	.text.chMBFetchS,"ax",%progbits
 454      C046C046 
 454      C046C046 
 454      C046
 455              		.align	2
 456              		.p2align 4,,15
 457              		.global	chMBFetchS
 458              		.code	16
 459              		.thumb_func
 460              		.type	chMBFetchS, %function
 461              	chMBFetchS:
 462              	.LFB16:
 463              		.loc 1 329 0
 464              		.cfi_startproc
 465              	.LVL51:
 466 0000 70B5     		push	{r4, r5, r6, lr}
 467              		.cfi_def_cfa_offset 16
 468              		.cfi_offset 4, -16
 469              		.cfi_offset 5, -12
 470              		.cfi_offset 6, -8
 471              		.cfi_offset 14, -4
 472              		.loc 1 329 0
 473 0002 041C     		mov	r4, r0
 474 0004 0E1C     		mov	r6, r1
 475              		.loc 1 335 0
 476 0006 1030     		add	r0, r0, #16
 477              	.LVL52:
 478 0008 111C     		mov	r1, r2
 479              	.LVL53:
 480 000a FFF7FEFF 		bl	chSemWaitTimeoutS
 481              	.LVL54:
 482 000e 051E     		sub	r5, r0, #0
 483              	.LVL55:
 484              		.loc 1 336 0
 485 0010 0DD1     		bne	.L25
 486              		.loc 1 337 0
 487 0012 E268     		ldr	r2, [r4, #12]
 488 0014 131D     		add	r3, r2, #4
 489 0016 1268     		ldr	r2, [r2]
 490 0018 E360     		str	r3, [r4, #12]
 491 001a 3260     		str	r2, [r6]
 492              		.loc 1 338 0
 493 001c 6268     		ldr	r2, [r4, #4]
 494 001e 9342     		cmp	r3, r2
 495 0020 07D2     		bcs	.L27
 496              	.L26:
 497              		.loc 1 340 0
 498 0022 201C     		mov	r0, r4
 499              	.LVL56:
 500 0024 1C30     		add	r0, r0, #28
 501 0026 FFF7FEFF 		bl	chSemSignalI
 502              	.LVL57:
 503              		.loc 1 341 0
 504 002a FFF7FEFF 		bl	chSchRescheduleS
ARM GAS  /var/folders/qh/xwg3v3kj02qbxczjpdb8lzfr0000gn/T//cccW2fsI.s 			page 10


 505              	.LVL58:
 506              	.L25:
 507              		.loc 1 344 0
 508 002e 281C     		mov	r0, r5
 509              		@ sp needed
 510              	.LVL59:
 511              	.LVL60:
 512              	.LVL61:
 513 0030 70BD     		pop	{r4, r5, r6, pc}
 514              	.LVL62:
 515              	.L27:
 516              		.loc 1 339 0
 517 0032 2368     		ldr	r3, [r4]
 518 0034 E360     		str	r3, [r4, #12]
 519 0036 F4E7     		b	.L26
 520              		.cfi_endproc
 521              	.LFE16:
 522              		.size	chMBFetchS, .-chMBFetchS
 523 0038 C046C046 		.section	.text.chMBFetch,"ax",%progbits
 523      C046C046 
 524              		.align	2
 525              		.p2align 4,,15
 526              		.global	chMBFetch
 527              		.code	16
 528              		.thumb_func
 529              		.type	chMBFetch, %function
 530              	chMBFetch:
 531              	.LFB15:
 532              		.loc 1 301 0
 533              		.cfi_startproc
 534              	.LVL63:
 535 0000 08B5     		push	{r3, lr}
 536              		.cfi_def_cfa_offset 8
 537              		.cfi_offset 3, -8
 538              		.cfi_offset 14, -4
 539              		.loc 1 304 0
 540              	@ 304 "../../os/kernel/src/chmboxes.c" 1
 541 0002 72B6     		cpsid   i
 542              	@ 0 "" 2
 543              		.loc 1 305 0
 544              		.code	16
 545 0004 FFF7FEFF 		bl	chMBFetchS
 546              	.LVL64:
 547              		.loc 1 306 0
 548              	@ 306 "../../os/kernel/src/chmboxes.c" 1
 549 0008 62B6     		cpsie   i
 550              	@ 0 "" 2
 551              		.loc 1 308 0
 552              		.code	16
 553              		@ sp needed
 554 000a 08BD     		pop	{r3, pc}
 555              		.cfi_endproc
 556              	.LFE15:
 557              		.size	chMBFetch, .-chMBFetch
 558 000c C046C046 		.section	.text.chMBFetchI,"ax",%progbits
 559              		.align	2
 560              		.p2align 4,,15
ARM GAS  /var/folders/qh/xwg3v3kj02qbxczjpdb8lzfr0000gn/T//cccW2fsI.s 			page 11


 561              		.global	chMBFetchI
 562              		.code	16
 563              		.thumb_func
 564              		.type	chMBFetchI, %function
 565              	chMBFetchI:
 566              	.LFB17:
 567              		.loc 1 360 0
 568              		.cfi_startproc
 569              	.LVL65:
 570 0000 08B5     		push	{r3, lr}
 571              		.cfi_def_cfa_offset 8
 572              		.cfi_offset 3, -8
 573              		.cfi_offset 14, -4
 574              		.loc 1 365 0
 575 0002 8369     		ldr	r3, [r0, #24]
 576 0004 002B     		cmp	r3, #0
 577 0006 11DD     		ble	.L32
 578              		.loc 1 368 0
 579 0008 C268     		ldr	r2, [r0, #12]
 580              		.loc 1 367 0
 581 000a 013B     		sub	r3, r3, #1
 582 000c 8361     		str	r3, [r0, #24]
 583              		.loc 1 368 0
 584 000e 131D     		add	r3, r2, #4
 585 0010 1268     		ldr	r2, [r2]
 586 0012 C360     		str	r3, [r0, #12]
 587 0014 0A60     		str	r2, [r1]
 588              		.loc 1 369 0
 589 0016 4268     		ldr	r2, [r0, #4]
 590 0018 9342     		cmp	r3, r2
 591 001a 04D2     		bcs	.L33
 592              	.L31:
 593              		.loc 1 371 0
 594 001c 1C30     		add	r0, r0, #28
 595              	.LVL66:
 596 001e FFF7FEFF 		bl	chSemSignalI
 597              	.LVL67:
 598              		.loc 1 372 0
 599 0022 0020     		mov	r0, #0
 600              	.L30:
 601              		.loc 1 373 0
 602              		@ sp needed
 603 0024 08BD     		pop	{r3, pc}
 604              	.LVL68:
 605              	.L33:
 606              		.loc 1 370 0
 607 0026 0368     		ldr	r3, [r0]
 608 0028 C360     		str	r3, [r0, #12]
 609 002a F7E7     		b	.L31
 610              	.L32:
 611              		.loc 1 366 0
 612 002c 0120     		mov	r0, #1
 613              	.LVL69:
 614 002e 4042     		neg	r0, r0
 615 0030 F8E7     		b	.L30
 616              		.cfi_endproc
 617              	.LFE17:
ARM GAS  /var/folders/qh/xwg3v3kj02qbxczjpdb8lzfr0000gn/T//cccW2fsI.s 			page 12


 618              		.size	chMBFetchI, .-chMBFetchI
 619 0032 C046C046 		.text
 619      C046C046 
 619      C046C046 
 619      C046
 620              	.Letext0:
 621              		.file 2 "/usr/local/Cellar/gcc-arm-none-eabi-48/20131218/arm-none-eabi/include/stdint.h"
 622              		.file 3 "../../os/ports/GCC/ARMCMx/chtypes.h"
 623              		.file 4 "../../os/kernel/include/chlists.h"
 624              		.file 5 "../../os/kernel/include/chthreads.h"
 625              		.file 6 "../../os/ports/GCC/ARMCMx/chcore_v6m.h"
 626              		.file 7 "../../os/kernel/include/chsem.h"
 627              		.file 8 "../../os/kernel/include/chmtx.h"
 628              		.file 9 "../../os/kernel/include/chmboxes.h"
 629              		.file 10 "../../os/kernel/include/chschd.h"