ARM GAS  /var/folders/qh/xwg3v3kj02qbxczjpdb8lzfr0000gn/T//cccW2fsI.s 			page 1


   1              		.cpu cortex-m0
   2              		.fpu softvfp
   3              		.eabi_attribute 20, 1
   4              		.eabi_attribute 21, 1
   5              		.eabi_attribute 23, 3
   6              		.eabi_attribute 24, 1
   7              		.eabi_attribute 25, 1
   8              		.eabi_attribute 26, 1
   9              		.eabi_attribute 30, 2
  10              		.eabi_attribute 34, 0
  11              		.eabi_attribute 18, 4
  12              		.code	16
  13              		.file	"chmboxes.c"
  14              		.text
  15              	.Ltext0:
  16              		.cfi_sections	.debug_frame
  17              		.section	.text.chMBInit,"ax",%progbits
  18              		.align	2
  19              		.p2align 4,,15
  20              		.global	chMBInit
  21              		.code	16
  22              		.thumb_func
  23              		.type	chMBInit, %function
  24              	chMBInit:
  25              	.LFB7:
  26              		.file 1 "../../os/kernel/src/chmboxes.c"
  27              		.loc 1 65 0
  28              		.cfi_startproc
  29              	.LVL0:
  30 0000 10B5     		push	{r4, lr}
  31              		.cfi_def_cfa_offset 8
  32              		.cfi_offset 4, -8
  33              		.cfi_offset 14, -4
  34              		.loc 1 65 0
  35 0002 041C     		mov	r4, r0
  36              		.loc 1 69 0
  37 0004 E160     		str	r1, [r4, #12]
  38 0006 A160     		str	r1, [r4, #8]
  39 0008 2160     		str	r1, [r4]
  40              		.loc 1 65 0
  41 000a 0B1C     		mov	r3, r1
  42              		.loc 1 70 0
  43 000c 9100     		lsl	r1, r2, #2
  44              	.LVL1:
  45 000e 5B18     		add	r3, r3, r1
  46              	.LVL2:
  47 0010 4360     		str	r3, [r0, #4]
  48              		.loc 1 71 0
  49 0012 111C     		mov	r1, r2
  50 0014 1C30     		add	r0, r0, #28
  51              	.LVL3:
  52 0016 FFF7FEFF 		bl	chSemInit
  53              	.LVL4:
  54              		.loc 1 72 0
  55 001a 201C     		mov	r0, r4
  56 001c 1030     		add	r0, r0, #16
  57 001e 0021     		mov	r1, #0
ARM GAS  /var/folders/qh/xwg3v3kj02qbxczjpdb8lzfr0000gn/T//cccW2fsI.s 			page 2


  58 0020 FFF7FEFF 		bl	chSemInit
  59              	.LVL5:
  60              		.loc 1 73 0
  61              		@ sp needed
  62              	.LVL6:
  63 0024 10BD     		pop	{r4, pc}
  64              		.cfi_endproc
  65              	.LFE7:
  66              		.size	chMBInit, .-chMBInit
  67 0026 C046C046 		.section	.text.chMBReset,"ax",%progbits
  67      C046C046 
  67      C046
  68              		.align	2
  69              		.p2align 4,,15
  70              		.global	chMBReset
  71              		.code	16
  72              		.thumb_func
  73              		.type	chMBReset, %function
  74              	chMBReset:
  75              	.LFB8:
  76              		.loc 1 84 0
  77              		.cfi_startproc
  78              	.LVL7:
  79 0000 10B5     		push	{r4, lr}
  80              		.cfi_def_cfa_offset 8
  81              		.cfi_offset 4, -8
  82              		.cfi_offset 14, -4
  83              		.loc 1 84 0
  84 0002 041C     		mov	r4, r0
  85              		.loc 1 88 0
  86              	@ 88 "../../os/kernel/src/chmboxes.c" 1
  87 0004 72B6     		cpsid   i
  88              	@ 0 "" 2
  89              		.loc 1 89 0
  90              		.code	16
  91 0006 0168     		ldr	r1, [r0]
  92              		.loc 1 90 0
  93 0008 6368     		ldr	r3, [r4, #4]
  94              		.loc 1 89 0
  95 000a C160     		str	r1, [r0, #12]
  96 000c 8160     		str	r1, [r0, #8]
  97              		.loc 1 90 0
  98 000e 591A     		sub	r1, r3, r1
  99 0010 1C30     		add	r0, r0, #28
 100              	.LVL8:
 101 0012 8910     		asr	r1, r1, #2
 102 0014 FFF7FEFF 		bl	chSemResetI
 103              	.LVL9:
 104              		.loc 1 91 0
 105 0018 201C     		mov	r0, r4
 106 001a 1030     		add	r0, r0, #16
 107 001c 0021     		mov	r1, #0
 108 001e FFF7FEFF 		bl	chSemResetI
 109              	.LVL10:
 110              		.loc 1 92 0
 111 0022 FFF7FEFF 		bl	chSchRescheduleS
 112              	.LVL11:
ARM GAS  /var/folders/qh/xwg3v3kj02qbxczjpdb8lzfr0000gn/T//cccW2fsI.s 			page 3


 113              		.loc 1 93 0
 114              	@ 93 "../../os/kernel/src/chmboxes.c" 1
 115 0026 62B6     		cpsie   i
 116              	@ 0 "" 2
 117              		.loc 1 94 0
 118              		.code	16
 119              		@ sp needed
 120              	.LVL12:
 121 0028 10BD     		pop	{r4, pc}
 122              		.cfi_endproc
 123              	.LFE8:
 124              		.size	chMBReset, .-chMBReset
 125 002a C046C046 		.section	.text.chMBPostS,"ax",%progbits
 125      C046
 126              		.align	2
 127              		.p2align 4,,15
 128              		.global	chMBPostS
 129              		.code	16
 130              		.thumb_func
 131              		.type	chMBPostS, %function
 132              	chMBPostS:
 133              	.LFB10:
 134              		.loc 1 143 0
 135              		.cfi_startproc
 136              	.LVL13:
 137 0000 70B5     		push	{r4, r5, r6, lr}
 138              		.cfi_def_cfa_offset 16
 139              		.cfi_offset 4, -16
 140              		.cfi_offset 5, -12
 141              		.cfi_offset 6, -8
 142              		.cfi_offset 14, -4
 143              		.loc 1 143 0
 144 0002 041C     		mov	r4, r0
 145 0004 0E1C     		mov	r6, r1
 146              		.loc 1 149 0
 147 0006 1C30     		add	r0, r0, #28
 148              	.LVL14:
 149 0008 111C     		mov	r1, r2
 150              	.LVL15:
 151 000a FFF7FEFF 		bl	chSemWaitTimeoutS
 152              	.LVL16:
 153 000e 051E     		sub	r5, r0, #0
 154              	.LVL17:
 155              		.loc 1 150 0
 156 0010 0CD1     		bne	.L4
 157              		.loc 1 151 0
 158 0012 A268     		ldr	r2, [r4, #8]
 159 0014 131D     		add	r3, r2, #4
 160 0016 A360     		str	r3, [r4, #8]
 161 0018 1660     		str	r6, [r2]
 162              		.loc 1 152 0
 163 001a 6268     		ldr	r2, [r4, #4]
 164 001c 9342     		cmp	r3, r2
 165 001e 07D2     		bcs	.L7
 166              	.L5:
 167              		.loc 1 154 0
 168 0020 201C     		mov	r0, r4
ARM GAS  /var/folders/qh/xwg3v3kj02qbxczjpdb8lzfr0000gn/T//cccW2fsI.s 			page 4


 169              	.LVL18:
 170 0022 1030     		add	r0, r0, #16
 171 0024 FFF7FEFF 		bl	chSemSignalI
 172              	.LVL19:
 173              		.loc 1 155 0
 174 0028 FFF7FEFF 		bl	chSchRescheduleS
 175              	.LVL20:
 176              	.L4:
 177              		.loc 1 158 0
 178 002c 281C     		mov	r0, r5
 179              		@ sp needed
 180              	.LVL21:
 181              	.LVL22:
 182              	.LVL23:
 183 002e 70BD     		pop	{r4, r5, r6, pc}
 184              	.LVL24:
 185              	.L7:
 186              		.loc 1 153 0
 187 0030 2368     		ldr	r3, [r4]
 188 0032 A360     		str	r3, [r4, #8]
 189 0034 F4E7     		b	.L5
 190              		.cfi_endproc
 191              	.LFE10:
 192              		.size	chMBPostS, .-chMBPostS
 193 0036 C046C046 		.section	.text.chMBPost,"ax",%progbits
 193      C046C046 
 193      C046
 194              		.align	2
 195              		.p2align 4,,15
 196              		.global	chMBPost
 197              		.code	16
 198              		.thumb_func
 199              		.type	chMBPost, %function
 200              	chMBPost:
 201              	.LFB9:
 202              		.loc 1 115 0
 203              		.cfi_startproc
 204              	.LVL25:
 205 0000 08B5     		push	{r3, lr}
 206              		.cfi_def_cfa_offset 8
 207              		.cfi_offset 3, -8
 208              		.cfi_offset 14, -4
 209              		.loc 1 118 0
 210              	@ 118 "../../os/kernel/src/chmboxes.c" 1
 211 0002 72B6     		cpsid   i
 212              	@ 0 "" 2
 213              		.loc 1 119 0
 214              		.code	16
 215 0004 FFF7FEFF 		bl	chMBPostS
 216              	.LVL26:
 217              		.loc 1 120 0
 218              	@ 120 "../../os/kernel/src/chmboxes.c" 1
 219 0008 62B6     		cpsie   i
 220              	@ 0 "" 2
 221              		.loc 1 122 0
 222              		.code	16
 223              		@ sp needed
ARM GAS  /var/folders/qh/xwg3v3kj02qbxczjpdb8lzfr0000gn/T//cccW2fsI.s 			page 5


 224 000a 08BD     		pop	{r3, pc}
 225              		.cfi_endproc
 226              	.LFE9:
 227              		.size	chMBPost, .-chMBPost
 228 000c C046C046 		.section	.text.chMBPostI,"ax",%progbits
 229              		.align	2
 230              		.p2align 4,,15
 231              		.global	chMBPostI
 232              		.code	16
 233              		.thumb_func
 234              		.type	chMBPostI, %function
 235              	chMBPostI:
 236              	.LFB11:
 237              		.loc 1 174 0
 238              		.cfi_startproc
 239              	.LVL27:
 240 0000 08B5     		push	{r3, lr}
 241              		.cfi_def_cfa_offset 8
 242              		.cfi_offset 3, -8
 243              		.cfi_offset 14, -4
 244              		.loc 1 179 0
 245 0002 436A     		ldr	r3, [r0, #36]
 246 0004 002B     		cmp	r3, #0
 247 0006 10DD     		ble	.L12
 248              		.loc 1 182 0
 249 0008 8268     		ldr	r2, [r0, #8]
 250              		.loc 1 181 0
 251 000a 013B     		sub	r3, r3, #1
 252 000c 4362     		str	r3, [r0, #36]
 253              		.loc 1 182 0
 254 000e 131D     		add	r3, r2, #4
 255 0010 8360     		str	r3, [r0, #8]
 256 0012 1160     		str	r1, [r2]
 257              		.loc 1 183 0
 258 0014 4268     		ldr	r2, [r0, #4]
 259 0016 9342     		cmp	r3, r2
 260 0018 04D2     		bcs	.L13
 261              	.L11:
 262              		.loc 1 185 0
 263 001a 1030     		add	r0, r0, #16
 264              	.LVL28:
 265 001c FFF7FEFF 		bl	chSemSignalI
 266              	.LVL29:
 267              		.loc 1 186 0
 268 0020 0020     		mov	r0, #0
 269              	.L10:
 270              		.loc 1 187 0
 271              		@ sp needed
 272 0022 08BD     		pop	{r3, pc}
 273              	.LVL30:
 274              	.L13:
 275              		.loc 1 184 0
 276 0024 0368     		ldr	r3, [r0]
 277 0026 8360     		str	r3, [r0, #8]
 278 0028 F7E7     		b	.L11
 279              	.L12:
 280              		.loc 1 180 0
ARM GAS  /var/folders/qh/xwg3v3kj02qbxczjpdb8lzfr0000gn/T//cccW2fsI.s 			page 6


 281 002a 0120     		mov	r0, #1
 282              	.LVL31:
 283 002c 4042     		neg	r0, r0
 284 002e F8E7     		b	.L10
 285              		.cfi_endproc
 286              	.LFE11:
 287              		.size	chMBPostI, .-chMBPostI
 288              		.section	.text.chMBPostAheadS,"ax",%progbits
 289              		.align	2
 290              		.p2align 4,,15
 291              		.global	chMBPostAheadS
 292              		.code	16
 293              		.thumb_func
 294              		.type	chMBPostAheadS, %function
 295              	chMBPostAheadS:
 296              	.LFB13:
 297              		.loc 1 236 0
 298              		.cfi_startproc
 299              	.LVL32:
 300 0000 70B5     		push	{r4, r5, r6, lr}
 301              		.cfi_def_cfa_offset 16
 302              		.cfi_offset 4, -16
 303              		.cfi_offset 5, -12
 304              		.cfi_offset 6, -8
 305              		.cfi_offset 14, -4
 306              		.loc 1 236 0
 307 0002 041C     		mov	r4, r0
 308 0004 0E1C     		mov	r6, r1
 309              		.loc 1 242 0
 310 0006 1C30     		add	r0, r0, #28
 311              	.LVL33:
 312 0008 111C     		mov	r1, r2
 313              	.LVL34:
 314 000a FFF7FEFF 		bl	chSemWaitTimeoutS
 315              	.LVL35:
 316 000e 051E     		sub	r5, r0, #0
 317              	.LVL36:
 318              		.loc 1 243 0
 319 0010 0CD1     		bne	.L15
 320              		.loc 1 244 0
 321 0012 E368     		ldr	r3, [r4, #12]
 322 0014 2268     		ldr	r2, [r4]
 323 0016 043B     		sub	r3, r3, #4
 324 0018 E360     		str	r3, [r4, #12]
 325 001a 9342     		cmp	r3, r2
 326 001c 08D3     		bcc	.L17
 327              	.L16:
 328              		.loc 1 247 0
 329 001e 201C     		mov	r0, r4
 330              	.LVL37:
 331              		.loc 1 246 0
 332 0020 1E60     		str	r6, [r3]
 333              		.loc 1 247 0
 334 0022 1030     		add	r0, r0, #16
 335 0024 FFF7FEFF 		bl	chSemSignalI
 336              	.LVL38:
 337              		.loc 1 248 0
ARM GAS  /var/folders/qh/xwg3v3kj02qbxczjpdb8lzfr0000gn/T//cccW2fsI.s 			page 7


 338 0028 FFF7FEFF 		bl	chSchRescheduleS
 339              	.LVL39:
 340              	.L15:
 341              		.loc 1 251 0
 342 002c 281C     		mov	r0, r5
 343              		@ sp needed
 344              	.LVL40:
 345              	.LVL41:
 346              	.LVL42:
 347 002e 70BD     		pop	{r4, r5, r6, pc}
 348              	.LVL43:
 349              	.L17:
 350              		.loc 1 245 0
 351 0030 6368     		ldr	r3, [r4, #4]
 352 0032 043B     		sub	r3, r3, #4
 353 0034 E360     		str	r3, [r4, #12]
 354 0036 F2E7     		b	.L16
 355              		.cfi_endproc
 356              	.LFE13:
 357              		.size	chMBPostAheadS, .-chMBPostAheadS
 358 0038 C046C046 		.section	.text.chMBPostAhead,"ax",%progbits
 358      C046C046 
 359              		.align	2
 360              		.p2align 4,,15
 361              		.global	chMBPostAhead
 362              		.code	16
 363              		.thumb_func
 364              		.type	chMBPostAhead, %function
 365              	chMBPostAhead:
 366              	.LFB12:
 367              		.loc 1 208 0
 368              		.cfi_startproc
 369              	.LVL44:
 370 0000 08B5     		push	{r3, lr}
 371              		.cfi_def_cfa_offset 8
 372              		.cfi_offset 3, -8
 373              		.cfi_offset 14, -4
 374              		.loc 1 211 0
 375              	@ 211 "../../os/kernel/src/chmboxes.c" 1
 376 0002 72B6     		cpsid   i
 377              	@ 0 "" 2
 378              		.loc 1 212 0
 379              		.code	16
 380 0004 FFF7FEFF 		bl	chMBPostAheadS
 381              	.LVL45:
 382              		.loc 1 213 0
 383              	@ 213 "../../os/kernel/src/chmboxes.c" 1
 384 0008 62B6     		cpsie   i
 385              	@ 0 "" 2
 386              		.loc 1 215 0
 387              		.code	16
 388              		@ sp needed
 389 000a 08BD     		pop	{r3, pc}
 390              		.cfi_endproc
 391              	.LFE12:
 392              		.size	chMBPostAhead, .-chMBPostAhead
 393 000c C046C046 		.section	.text.chMBPostAheadI,"ax",%progbits
ARM GAS  /var/folders/qh/xwg3v3kj02qbxczjpdb8lzfr0000gn/T//cccW2fsI.s 			page 8


 394              		.align	2
 395              		.p2align 4,,15
 396              		.global	chMBPostAheadI
 397              		.code	16
 398              		.thumb_func
 399              		.type	chMBPostAheadI, %function
 400              	chMBPostAheadI:
 401              	.LFB14:
 402              		.loc 1 267 0
 403              		.cfi_startproc
 404              	.LVL46:
 405 0000 08B5     		push	{r3, lr}
 406              		.cfi_def_cfa_offset 8
 407              		.cfi_offset 3, -8
 408              		.cfi_offset 14, -4
 409              		.loc 1 272 0
 410 0002 436A     		ldr	r3, [r0, #36]
 411 0004 002B     		cmp	r3, #0
 412 0006 11DD     		ble	.L22
 413              		.loc 1 274 0
 414 0008 013B     		sub	r3, r3, #1
 415 000a 4362     		str	r3, [r0, #36]
 416              		.loc 1 275 0
 417 000c C368     		ldr	r3, [r0, #12]
 418 000e 0268     		ldr	r2, [r0]
 419 0010 043B     		sub	r3, r3, #4
 420 0012 C360     		str	r3, [r0, #12]
 421 0014 9342     		cmp	r3, r2
 422 0016 05D3     		bcc	.L23
 423              	.L21:
 424              		.loc 1 278 0
 425 0018 1030     		add	r0, r0, #16
 426              	.LVL47:
 427              		.loc 1 277 0
 428 001a 1960     		str	r1, [r3]
 429              		.loc 1 278 0
 430 001c FFF7FEFF 		bl	chSemSignalI
 431              	.LVL48:
 432              		.loc 1 279 0
 433 0020 0020     		mov	r0, #0
 434              	.L20:
 435              		.loc 1 280 0
 436              		@ sp needed
 437 0022 08BD     		pop	{r3, pc}
 438              	.LVL49:
 439              	.L23:
 440              		.loc 1 276 0
 441 0024 4368     		ldr	r3, [r0, #4]
 442 0026 043B     		sub	r3, r3, #4
 443 0028 C360     		str	r3, [r0, #12]
 444 002a F5E7     		b	.L21
 445              	.L22:
 446              		.loc 1 273 0
 447 002c 0120     		mov	r0, #1
 448              	.LVL50:
 449 002e 4042     		neg	r0, r0
 450 0030 F7E7     		b	.L20
ARM GAS  /var/folders/qh/xwg3v3kj02qbxczjpdb8lzfr0000gn/T//cccW2fsI.s 			page 9


 451              		.cfi_endproc
 452              	.LFE14:
 453              		.size	chMBPostAheadI, .-chMBPostAheadI
 454 0032 C046C046 		.section	.text.chMBFetchS,"ax",%progbits
 454      C046C046 
 454      C046C046 
 454      C046
 455              		.align	2
 456              		.p2align 4,,15
 457              		.global	chMBFetchS
 458              		.code	16
 459              		.thumb_func
 460              		.type	chMBFetchS, %function
 461              	chMBFetchS:
 462              	.LFB16:
 463              		.loc 1 329 0
 464              		.cfi_startproc
 465              	.LVL51:
 466 0000 70B5     		push	{r4, r5, r6, lr}
 467              		.cfi_def_cfa_offset 16
 468              		.cfi_offset 4, -16
 469              		.cfi_offset 5, -12
 470              		.cfi_offset 6, -8
 471              		.cfi_offset 14, -4
 472              		.loc 1 329 0
 473 0002 041C     		mov	r4, r0
 474 0004 0E1C     		mov	r6, r1
 475              		.loc 1 335 0
 476 0006 1030     		add	r0, r0, #16
 477              	.LVL52:
 478 0008 111C     		mov	r1, r2
 479              	.LVL53:
 480 000a FFF7FEFF 		bl	chSemWaitTimeoutS
 481              	.LVL54:
 482 000e 051E     		sub	r5, r0, #0
 483              	.LVL55:
 484              		.loc 1 336 0
 485 0010 0DD1     		bne	.L25
 486              		.loc 1 337 0
 487 0012 E268     		ldr	r2, [r4, #12]
 488 0014 131D     		add	r3, r2, #4
 489 0016 1268     		ldr	r2, [r2]
 490 0018 E360     		str	r3, [r4, #12]
 491 001a 3260     		str	r2, [r6]
 492              		.loc 1 338 0
 493 001c 6268     		ldr	r2, [r4, #4]
 494 001e 9342     		cmp	r3, r2
 495 0020 07D2     		bcs	.L27
 496              	.L26:
 497              		.loc 1 340 0
 498 0022 201C     		mov	r0, r4
 499              	.LVL56:
 500 0024 1C30     		add	r0, r0, #28
 501 0026 FFF7FEFF 		bl	chSemSignalI
 502              	.LVL57:
 503              		.loc 1 341 0
 504 002a FFF7FEFF 		bl	chSchRescheduleS
ARM GAS  /var/folders/qh/xwg3v3kj02qbxczjpdb8lzfr0000gn/T//cccW2fsI.s 			page 10


 505              	.LVL58:
 506              	.L25:
 507              		.loc 1 344 0
 508 002e 281C     		mov	r0, r5
 509              		@ sp needed
 510              	.LVL59:
 511              	.LVL60:
 512              	.LVL61:
 513 0030 70BD     		pop	{r4, r5, r6, pc}
 514              	.LVL62:
 515              	.L27:
 516              		.loc 1 339 0
 517 0032 2368     		ldr	r3, [r4]
 518 0034 E360     		str	r3, [r4, #12]
 519 0036 F4E7     		b	.L26
 520              		.cfi_endproc
 521              	.LFE16:
 522              		.size	chMBFetchS, .-chMBFetchS
 523 0038 C046C046 		.section	.text.chMBFetch,"ax",%progbits
 523      C046C046 
 524              		.align	2
 525              		.p2align 4,,15
 526              		.global	chMBFetch
 527              		.code	16
 528              		.thumb_func
 529              		.type	chMBFetch, %function
 530              	chMBFetch:
 531              	.LFB15:
 532              		.loc 1 301 0
 533              		.cfi_startproc
 534              	.LVL63:
 535 0000 08B5     		push	{r3, lr}
 536              		.cfi_def_cfa_offset 8
 537              		.cfi_offset 3, -8
 538              		.cfi_offset 14, -4
 539              		.loc 1 304 0
 540              	@ 304 "../../os/kernel/src/chmboxes.c" 1
 541 0002 72B6     		cpsid   i
 542              	@ 0 "" 2
 543              		.loc 1 305 0
 544              		.code	16
 545 0004 FFF7FEFF 		bl	chMBFetchS
 546              	.LVL64:
 547              		.loc 1 306 0
 548              	@ 306 "../../os/kernel/src/chmboxes.c" 1
 549 0008 62B6     		cpsie   i
 550              	@ 0 "" 2
 551              		.loc 1 308 0
 552              		.code	16
 553              		@ sp needed
 554 000a 08BD     		pop	{r3, pc}
 555              		.cfi_endproc
 556              	.LFE15:
 557              		.size	chMBFetch, .-chMBFetch
 558 000c C046C046 		.section	.text.chMBFetchI,"ax",%progbits
 559              		.align	2
 560              		.p2align 4,,15
ARM GAS  /var/folders/qh/xwg3v3kj02qbxczjpdb8lzfr0000gn/T//cccW2fsI.s 			page 11


 561              		.global	chMBFetchI
 562              		.code	16
 563              		.thumb_func
 564              		.type	chMBFetchI, %function
 565              	chMBFetchI:
 566              	.LFB17:
 567              		.loc 1 360 0
 568              		.cfi_startproc
 569              	.LVL65:
 570 0000 08B5     		push	{r3, lr}
 571              		.cfi_def_cfa_offset 8
 572              		.cfi_offset 3, -8
 573              		.cfi_offset 14, -4
 574              		.loc 1 365 0
 575 0002 8369     		ldr	r3, [r0, #24]
 576 0004 002B     		cmp	r3, #0
 577 0006 11DD     		ble	.L32
 578              		.loc 1 368 0
 579 0008 C268     		ldr	r2, [r0, #12]
 580              		.loc 1 367 0
 581 000a 013B     		sub	r3, r3, #1
 582 000c 8361     		str	r3, [r0, #24]
 583              		.loc 1 368 0
 584 000e 131D     		add	r3, r2, #4
 585 0010 1268     		ldr	r2, [r2]
 586 0012 C360     		str	r3, [r0, #12]
 587 0014 0A60     		str	r2, [r1]
 588              		.loc 1 369 0
 589 0016 4268     		ldr	r2, [r0, #4]
 590 0018 9342     		cmp	r3, r2
 591 001a 04D2     		bcs	.L33
 592              	.L31:
 593              		.loc 1 371 0
 594 001c 1C30     		add	r0, r0, #28
 595              	.LVL66:
 596 001e FFF7FEFF 		bl	chSemSignalI
 597              	.LVL67:
 598              		.loc 1 372 0
 599 0022 0020     		mov	r0, #0
 600              	.L30:
 601              		.loc 1 373 0
 602              		@ sp needed
 603 0024 08BD     		pop	{r3, pc}
 604              	.LVL68:
 605              	.L33:
 606              		.loc 1 370 0
 607 0026 0368     		ldr	r3, [r0]
 608 0028 C360     		str	r3, [r0, #12]
 609 002a F7E7     		b	.L31
 610              	.L32:
 611              		.loc 1 366 0
 612 002c 0120     		mov	r0, #1
 613              	.LVL69:
 614 002e 4042     		neg	r0, r0
 615 0030 F8E7     		b	.L30
 616              		.cfi_endproc
 617              	.LFE17:
ARM GAS  /var/folders/qh/xwg3v3kj02qbxczjpdb8lzfr0000gn/T//cccW2fsI.s 			page 12


 618              		.size	chMBFetchI, .-chMBFetchI
 619 0032 C046C046 		.text
 619      C046C046 
 619      C046C046 
 619      C046
 620              	.Letext0:
 621              		.file 2 "/usr/local/Cellar/gcc-arm-none-eabi-48/20131218/arm-none-eabi/include/stdint.h"
 622              		.file 3 "../../os/ports/GCC/ARMCMx/chtypes.h"
 623              		.file 4 "../../os/kernel/include/chlists.h"
 624              		.file 5 "../../os/kernel/include/chthreads.h"
 625              		.file 6 "../../os/ports/GCC/ARMCMx/chcore_v6m.h"
 626              		.file 7 "../../os/kernel/include/chsem.h"
 627              		.file 8 "../../os/kernel/include/chmtx.h"
 628              		.file 9 "../../os/kernel/include/chmboxes.h"
 629              		.file 10 "../../os/kernel/include/chschd.h"
 630              		.section	.debug_info,"",%progbits
 631              	.Ldebug_info0:
 632 0000 3E090000 		.4byte	0x93e
 633 0004 0400     		.2byte	0x4
 634 0006 00000000 		.4byte	.Ldebug_abbrev0
 635 000a 04       		.byte	0x4
 636 000b 01       		.uleb128 0x1
 637 000c 02020000 		.4byte	.LASF82
 638 0010 01       		.byte	0x1
 639 0011 DA000000 		.4byte	.LASF83
 640 0015 4D010000 		.4byte	.LASF84
 641 0019 00000000 		.4byte	.Ldebug_ranges0+0
 642 001d 00000000 		.4byte	0
 643 0021 00000000 		.4byte	.Ldebug_line0
 644 0025 02       		.uleb128 0x2
 645 0026 04       		.byte	0x4
 646 0027 05       		.byte	0x5
 647 0028 696E7400 		.ascii	"int\000"
 648 002c 03       		.uleb128 0x3
 649 002d 04       		.byte	0x4
 650 002e 07       		.byte	0x7
 651 002f 19010000 		.4byte	.LASF0
 652 0033 03       		.uleb128 0x3
 653 0034 01       		.byte	0x1
 654 0035 06       		.byte	0x6
 655 0036 92000000 		.4byte	.LASF1
 656 003a 04       		.uleb128 0x4
 657 003b 30040000 		.4byte	.LASF5
 658 003f 02       		.byte	0x2
 659 0040 2A       		.byte	0x2a
 660 0041 45000000 		.4byte	0x45
 661 0045 03       		.uleb128 0x3
 662 0046 01       		.byte	0x1
 663 0047 08       		.byte	0x8
 664 0048 2F030000 		.4byte	.LASF2
 665 004c 03       		.uleb128 0x3
 666 004d 02       		.byte	0x2
 667 004e 05       		.byte	0x5
 668 004f 4E030000 		.4byte	.LASF3
 669 0053 03       		.uleb128 0x3
 670 0054 02       		.byte	0x2
 671 0055 07       		.byte	0x7
ARM GAS  /var/folders/qh/xwg3v3kj02qbxczjpdb8lzfr0000gn/T//cccW2fsI.s 			page 13


 672 0056 96010000 		.4byte	.LASF4
 673 005a 04       		.uleb128 0x4
 674 005b 27030000 		.4byte	.LASF6
 675 005f 02       		.byte	0x2
 676 0060 4F       		.byte	0x4f
 677 0061 65000000 		.4byte	0x65
 678 0065 03       		.uleb128 0x3
 679 0066 04       		.byte	0x4
 680 0067 05       		.byte	0x5
 681 0068 B8000000 		.4byte	.LASF7
 682 006c 04       		.uleb128 0x4
 683 006d 9B030000 		.4byte	.LASF8
 684 0071 02       		.byte	0x2
 685 0072 50       		.byte	0x50
 686 0073 77000000 		.4byte	0x77
 687 0077 03       		.uleb128 0x3
 688 0078 04       		.byte	0x4
 689 0079 07       		.byte	0x7
 690 007a 2F010000 		.4byte	.LASF9
 691 007e 03       		.uleb128 0x3
 692 007f 08       		.byte	0x8
 693 0080 05       		.byte	0x5
 694 0081 84000000 		.4byte	.LASF10
 695 0085 03       		.uleb128 0x3
 696 0086 08       		.byte	0x8
 697 0087 07       		.byte	0x7
 698 0088 45000000 		.4byte	.LASF11
 699 008c 03       		.uleb128 0x3
 700 008d 01       		.byte	0x1
 701 008e 02       		.byte	0x2
 702 008f 21030000 		.4byte	.LASF12
 703 0093 04       		.uleb128 0x4
 704 0094 C5010000 		.4byte	.LASF13
 705 0098 03       		.byte	0x3
 706 0099 25       		.byte	0x25
 707 009a 3A000000 		.4byte	0x3a
 708 009e 04       		.uleb128 0x4
 709 009f C1000000 		.4byte	.LASF14
 710 00a3 03       		.byte	0x3
 711 00a4 26       		.byte	0x26
 712 00a5 3A000000 		.4byte	0x3a
 713 00a9 04       		.uleb128 0x4
 714 00aa 0A030000 		.4byte	.LASF15
 715 00ae 03       		.byte	0x3
 716 00af 27       		.byte	0x27
 717 00b0 3A000000 		.4byte	0x3a
 718 00b4 04       		.uleb128 0x4
 719 00b5 AE000000 		.4byte	.LASF16
 720 00b9 03       		.byte	0x3
 721 00ba 28       		.byte	0x28
 722 00bb 3A000000 		.4byte	0x3a
 723 00bf 04       		.uleb128 0x4
 724 00c0 19030000 		.4byte	.LASF17
 725 00c4 03       		.byte	0x3
 726 00c5 29       		.byte	0x29
 727 00c6 6C000000 		.4byte	0x6c
 728 00ca 04       		.uleb128 0x4
ARM GAS  /var/folders/qh/xwg3v3kj02qbxczjpdb8lzfr0000gn/T//cccW2fsI.s 			page 14


 729 00cb B4010000 		.4byte	.LASF18
 730 00cf 03       		.byte	0x3
 731 00d0 2A       		.byte	0x2a
 732 00d1 5A000000 		.4byte	0x5a
 733 00d5 04       		.uleb128 0x4
 734 00d6 D9010000 		.4byte	.LASF19
 735 00da 03       		.byte	0x3
 736 00db 2C       		.byte	0x2c
 737 00dc 6C000000 		.4byte	0x6c
 738 00e0 04       		.uleb128 0x4
 739 00e1 C2030000 		.4byte	.LASF20
 740 00e5 03       		.byte	0x3
 741 00e6 2E       		.byte	0x2e
 742 00e7 6C000000 		.4byte	0x6c
 743 00eb 04       		.uleb128 0x4
 744 00ec 13010000 		.4byte	.LASF21
 745 00f0 03       		.byte	0x3
 746 00f1 2F       		.byte	0x2f
 747 00f2 5A000000 		.4byte	0x5a
 748 00f6 04       		.uleb128 0x4
 749 00f7 89030000 		.4byte	.LASF22
 750 00fb 04       		.byte	0x4
 751 00fc 23       		.byte	0x23
 752 00fd 01010000 		.4byte	0x101
 753 0101 05       		.uleb128 0x5
 754 0102 89030000 		.4byte	.LASF22
 755 0106 48       		.byte	0x48
 756 0107 05       		.byte	0x5
 757 0108 57       		.byte	0x57
 758 0109 FE010000 		.4byte	0x1fe
 759 010d 06       		.uleb128 0x6
 760 010e 71030000 		.4byte	.LASF23
 761 0112 05       		.byte	0x5
 762 0113 58       		.byte	0x58
 763 0114 1F020000 		.4byte	0x21f
 764 0118 00       		.byte	0
 765 0119 06       		.uleb128 0x6
 766 011a 12030000 		.4byte	.LASF24
 767 011e 05       		.byte	0x5
 768 011f 5A       		.byte	0x5a
 769 0120 1F020000 		.4byte	0x21f
 770 0124 04       		.byte	0x4
 771 0125 06       		.uleb128 0x6
 772 0126 7D000000 		.4byte	.LASF25
 773 012a 05       		.byte	0x5
 774 012b 5C       		.byte	0x5c
 775 012c BF000000 		.4byte	0xbf
 776 0130 08       		.byte	0x8
 777 0131 06       		.uleb128 0x6
 778 0132 4E040000 		.4byte	.LASF26
 779 0136 05       		.byte	0x5
 780 0137 5D       		.byte	0x5d
 781 0138 CF020000 		.4byte	0x2cf
 782 013c 0C       		.byte	0xc
 783 013d 06       		.uleb128 0x6
 784 013e CA000000 		.4byte	.LASF27
 785 0142 05       		.byte	0x5
ARM GAS  /var/folders/qh/xwg3v3kj02qbxczjpdb8lzfr0000gn/T//cccW2fsI.s 			page 15


 786 0143 5F       		.byte	0x5f
 787 0144 1F020000 		.4byte	0x21f
 788 0148 10       		.byte	0x10
 789 0149 06       		.uleb128 0x6
 790 014a E6020000 		.4byte	.LASF28
 791 014e 05       		.byte	0x5
 792 014f 60       		.byte	0x60
 793 0150 1F020000 		.4byte	0x21f
 794 0154 14       		.byte	0x14
 795 0155 06       		.uleb128 0x6
 796 0156 3F040000 		.4byte	.LASF29
 797 015a 05       		.byte	0x5
 798 015b 67       		.byte	0x67
 799 015c 03040000 		.4byte	0x403
 800 0160 18       		.byte	0x18
 801 0161 06       		.uleb128 0x6
 802 0162 58030000 		.4byte	.LASF30
 803 0166 05       		.byte	0x5
 804 0167 72       		.byte	0x72
 805 0168 9E000000 		.4byte	0x9e
 806 016c 1C       		.byte	0x1c
 807 016d 06       		.uleb128 0x6
 808 016e 78030000 		.4byte	.LASF31
 809 0172 05       		.byte	0x5
 810 0173 76       		.byte	0x76
 811 0174 93000000 		.4byte	0x93
 812 0178 1D       		.byte	0x1d
 813 0179 06       		.uleb128 0x6
 814 017a 1D040000 		.4byte	.LASF32
 815 017e 05       		.byte	0x5
 816 017f 7B       		.byte	0x7b
 817 0180 A9000000 		.4byte	0xa9
 818 0184 1E       		.byte	0x1e
 819 0185 06       		.uleb128 0x6
 820 0186 60030000 		.4byte	.LASF33
 821 018a 05       		.byte	0x5
 822 018b 81       		.byte	0x81
 823 018c B4000000 		.4byte	0xb4
 824 0190 1F       		.byte	0x1f
 825 0191 06       		.uleb128 0x6
 826 0192 D7030000 		.4byte	.LASF34
 827 0196 05       		.byte	0x5
 828 0197 88       		.byte	0x88
 829 0198 F5020000 		.4byte	0x2f5
 830 019c 20       		.byte	0x20
 831 019d 07       		.uleb128 0x7
 832 019e 705F7500 		.ascii	"p_u\000"
 833 01a2 05       		.byte	0x5
 834 01a3 AD       		.byte	0xad
 835 01a4 CE030000 		.4byte	0x3ce
 836 01a8 24       		.byte	0x24
 837 01a9 06       		.uleb128 0x6
 838 01aa 54040000 		.4byte	.LASF35
 839 01ae 05       		.byte	0x5
 840 01af B2       		.byte	0xb2
 841 01b0 45020000 		.4byte	0x245
 842 01b4 28       		.byte	0x28
ARM GAS  /var/folders/qh/xwg3v3kj02qbxczjpdb8lzfr0000gn/T//cccW2fsI.s 			page 16


 843 01b5 06       		.uleb128 0x6
 844 01b6 F3030000 		.4byte	.LASF36
 845 01ba 05       		.byte	0x5
 846 01bb B8       		.byte	0xb8
 847 01bc 25020000 		.4byte	0x225
 848 01c0 2C       		.byte	0x2c
 849 01c1 06       		.uleb128 0x6
 850 01c2 00000000 		.4byte	.LASF37
 851 01c6 05       		.byte	0x5
 852 01c7 BC       		.byte	0xbc
 853 01c8 CA000000 		.4byte	0xca
 854 01cc 34       		.byte	0x34
 855 01cd 06       		.uleb128 0x6
 856 01ce 90030000 		.4byte	.LASF38
 857 01d2 05       		.byte	0x5
 858 01d3 C2       		.byte	0xc2
 859 01d4 D5000000 		.4byte	0xd5
 860 01d8 38       		.byte	0x38
 861 01d9 06       		.uleb128 0x6
 862 01da 44030000 		.4byte	.LASF39
 863 01de 05       		.byte	0x5
 864 01df C9       		.byte	0xc9
 865 01e0 15040000 		.4byte	0x415
 866 01e4 3C       		.byte	0x3c
 867 01e5 06       		.uleb128 0x6
 868 01e6 CC030000 		.4byte	.LASF40
 869 01ea 05       		.byte	0x5
 870 01eb CD       		.byte	0xcd
 871 01ec BF000000 		.4byte	0xbf
 872 01f0 40       		.byte	0x40
 873 01f1 06       		.uleb128 0x6
 874 01f2 9E000000 		.4byte	.LASF41
 875 01f6 05       		.byte	0x5
 876 01f7 D3       		.byte	0xd3
 877 01f8 5B020000 		.4byte	0x25b
 878 01fc 44       		.byte	0x44
 879 01fd 00       		.byte	0
 880 01fe 08       		.uleb128 0x8
 881 01ff 08       		.byte	0x8
 882 0200 04       		.byte	0x4
 883 0201 5A       		.byte	0x5a
 884 0202 1F020000 		.4byte	0x21f
 885 0206 06       		.uleb128 0x6
 886 0207 71030000 		.4byte	.LASF23
 887 020b 04       		.byte	0x4
 888 020c 5B       		.byte	0x5b
 889 020d 1F020000 		.4byte	0x21f
 890 0211 00       		.byte	0
 891 0212 06       		.uleb128 0x6
 892 0213 12030000 		.4byte	.LASF24
 893 0217 04       		.byte	0x4
 894 0218 5D       		.byte	0x5d
 895 0219 1F020000 		.4byte	0x21f
 896 021d 04       		.byte	0x4
 897 021e 00       		.byte	0
 898 021f 09       		.uleb128 0x9
 899 0220 04       		.byte	0x4
ARM GAS  /var/folders/qh/xwg3v3kj02qbxczjpdb8lzfr0000gn/T//cccW2fsI.s 			page 17


 900 0221 F6000000 		.4byte	0xf6
 901 0225 04       		.uleb128 0x4
 902 0226 EE020000 		.4byte	.LASF42
 903 022a 04       		.byte	0x4
 904 022b 5F       		.byte	0x5f
 905 022c FE010000 		.4byte	0x1fe
 906 0230 08       		.uleb128 0x8
 907 0231 04       		.byte	0x4
 908 0232 04       		.byte	0x4
 909 0233 64       		.byte	0x64
 910 0234 45020000 		.4byte	0x245
 911 0238 06       		.uleb128 0x6
 912 0239 71030000 		.4byte	.LASF23
 913 023d 04       		.byte	0x4
 914 023e 66       		.byte	0x66
 915 023f 1F020000 		.4byte	0x21f
 916 0243 00       		.byte	0
 917 0244 00       		.byte	0
 918 0245 04       		.uleb128 0x4
 919 0246 CD010000 		.4byte	.LASF43
 920 024a 04       		.byte	0x4
 921 024b 69       		.byte	0x69
 922 024c 30020000 		.4byte	0x230
 923 0250 04       		.uleb128 0x4
 924 0251 0A010000 		.4byte	.LASF44
 925 0255 06       		.byte	0x6
 926 0256 A0       		.byte	0xa0
 927 0257 5B020000 		.4byte	0x25b
 928 025b 0A       		.uleb128 0xa
 929 025c 04       		.byte	0x4
 930 025d 05       		.uleb128 0x5
 931 025e EC030000 		.4byte	.LASF45
 932 0262 24       		.byte	0x24
 933 0263 06       		.byte	0x6
 934 0264 B3       		.byte	0xb3
 935 0265 CF020000 		.4byte	0x2cf
 936 0269 07       		.uleb128 0x7
 937 026a 723800   		.ascii	"r8\000"
 938 026d 06       		.byte	0x6
 939 026e B4       		.byte	0xb4
 940 026f 50020000 		.4byte	0x250
 941 0273 00       		.byte	0
 942 0274 07       		.uleb128 0x7
 943 0275 723900   		.ascii	"r9\000"
 944 0278 06       		.byte	0x6
 945 0279 B5       		.byte	0xb5
 946 027a 50020000 		.4byte	0x250
 947 027e 04       		.byte	0x4
 948 027f 07       		.uleb128 0x7
 949 0280 72313000 		.ascii	"r10\000"
 950 0284 06       		.byte	0x6
 951 0285 B6       		.byte	0xb6
 952 0286 50020000 		.4byte	0x250
 953 028a 08       		.byte	0x8
 954 028b 07       		.uleb128 0x7
 955 028c 72313100 		.ascii	"r11\000"
 956 0290 06       		.byte	0x6
ARM GAS  /var/folders/qh/xwg3v3kj02qbxczjpdb8lzfr0000gn/T//cccW2fsI.s 			page 18


 957 0291 B7       		.byte	0xb7
 958 0292 50020000 		.4byte	0x250
 959 0296 0C       		.byte	0xc
 960 0297 07       		.uleb128 0x7
 961 0298 723400   		.ascii	"r4\000"
 962 029b 06       		.byte	0x6
 963 029c B8       		.byte	0xb8
 964 029d 50020000 		.4byte	0x250
 965 02a1 10       		.byte	0x10
 966 02a2 07       		.uleb128 0x7
 967 02a3 723500   		.ascii	"r5\000"
 968 02a6 06       		.byte	0x6
 969 02a7 B9       		.byte	0xb9
 970 02a8 50020000 		.4byte	0x250
 971 02ac 14       		.byte	0x14
 972 02ad 07       		.uleb128 0x7
 973 02ae 723600   		.ascii	"r6\000"
 974 02b1 06       		.byte	0x6
 975 02b2 BA       		.byte	0xba
 976 02b3 50020000 		.4byte	0x250
 977 02b7 18       		.byte	0x18
 978 02b8 07       		.uleb128 0x7
 979 02b9 723700   		.ascii	"r7\000"
 980 02bc 06       		.byte	0x6
 981 02bd BB       		.byte	0xbb
 982 02be 50020000 		.4byte	0x250
 983 02c2 1C       		.byte	0x1c
 984 02c3 07       		.uleb128 0x7
 985 02c4 6C7200   		.ascii	"lr\000"
 986 02c7 06       		.byte	0x6
 987 02c8 BC       		.byte	0xbc
 988 02c9 50020000 		.4byte	0x250
 989 02cd 20       		.byte	0x20
 990 02ce 00       		.byte	0
 991 02cf 05       		.uleb128 0x5
 992 02d0 8E010000 		.4byte	.LASF46
 993 02d4 04       		.byte	0x4
 994 02d5 06       		.byte	0x6
 995 02d6 C6       		.byte	0xc6
 996 02d7 E8020000 		.4byte	0x2e8
 997 02db 07       		.uleb128 0x7
 998 02dc 72313300 		.ascii	"r13\000"
 999 02e0 06       		.byte	0x6
 1000 02e1 C7       		.byte	0xc7
 1001 02e2 E8020000 		.4byte	0x2e8
 1002 02e6 00       		.byte	0
 1003 02e7 00       		.byte	0
 1004 02e8 09       		.uleb128 0x9
 1005 02e9 04       		.byte	0x4
 1006 02ea 5D020000 		.4byte	0x25d
 1007 02ee 03       		.uleb128 0x3
 1008 02ef 04       		.byte	0x4
 1009 02f0 07       		.byte	0x7
 1010 02f1 F0010000 		.4byte	.LASF47
 1011 02f5 0B       		.uleb128 0xb
 1012 02f6 E0000000 		.4byte	0xe0
 1013 02fa 05       		.uleb128 0x5
ARM GAS  /var/folders/qh/xwg3v3kj02qbxczjpdb8lzfr0000gn/T//cccW2fsI.s 			page 19


 1014 02fb 08040000 		.4byte	.LASF48
 1015 02ff 0C       		.byte	0xc
 1016 0300 07       		.byte	0x7
 1017 0301 25       		.byte	0x25
 1018 0302 1F030000 		.4byte	0x31f
 1019 0306 06       		.uleb128 0x6
 1020 0307 D2000000 		.4byte	.LASF49
 1021 030b 07       		.byte	0x7
 1022 030c 26       		.byte	0x26
 1023 030d 25020000 		.4byte	0x225
 1024 0311 00       		.byte	0
 1025 0312 06       		.uleb128 0x6
 1026 0313 88010000 		.4byte	.LASF50
 1027 0317 07       		.byte	0x7
 1028 0318 28       		.byte	0x28
 1029 0319 EB000000 		.4byte	0xeb
 1030 031d 08       		.byte	0x8
 1031 031e 00       		.byte	0
 1032 031f 04       		.uleb128 0x4
 1033 0320 08040000 		.4byte	.LASF48
 1034 0324 07       		.byte	0x7
 1035 0325 29       		.byte	0x29
 1036 0326 FA020000 		.4byte	0x2fa
 1037 032a 05       		.uleb128 0x5
 1038 032b E5010000 		.4byte	.LASF51
 1039 032f 10       		.byte	0x10
 1040 0330 08       		.byte	0x8
 1041 0331 25       		.byte	0x25
 1042 0332 5B030000 		.4byte	0x35b
 1043 0336 06       		.uleb128 0x6
 1044 0337 A6000000 		.4byte	.LASF52
 1045 033b 08       		.byte	0x8
 1046 033c 26       		.byte	0x26
 1047 033d 25020000 		.4byte	0x225
 1048 0341 00       		.byte	0
 1049 0342 06       		.uleb128 0x6
 1050 0343 46040000 		.4byte	.LASF53
 1051 0347 08       		.byte	0x8
 1052 0348 28       		.byte	0x28
 1053 0349 1F020000 		.4byte	0x21f
 1054 034d 08       		.byte	0x8
 1055 034e 06       		.uleb128 0x6
 1056 034f BB030000 		.4byte	.LASF54
 1057 0353 08       		.byte	0x8
 1058 0354 2A       		.byte	0x2a
 1059 0355 5B030000 		.4byte	0x35b
 1060 0359 0C       		.byte	0xc
 1061 035a 00       		.byte	0
 1062 035b 09       		.uleb128 0x9
 1063 035c 04       		.byte	0x4
 1064 035d 2A030000 		.4byte	0x32a
 1065 0361 04       		.uleb128 0x4
 1066 0362 E5010000 		.4byte	.LASF51
 1067 0366 08       		.byte	0x8
 1068 0367 2C       		.byte	0x2c
 1069 0368 2A030000 		.4byte	0x32a
 1070 036c 08       		.uleb128 0x8
ARM GAS  /var/folders/qh/xwg3v3kj02qbxczjpdb8lzfr0000gn/T//cccW2fsI.s 			page 20


 1071 036d 28       		.byte	0x28
 1072 036e 09       		.byte	0x9
 1073 036f 2C       		.byte	0x2c
 1074 0370 BD030000 		.4byte	0x3bd
 1075 0374 06       		.uleb128 0x6
 1076 0375 FB020000 		.4byte	.LASF55
 1077 0379 09       		.byte	0x9
 1078 037a 2D       		.byte	0x2d
 1079 037b BD030000 		.4byte	0x3bd
 1080 037f 00       		.byte	0
 1081 0380 06       		.uleb128 0x6
 1082 0381 3D030000 		.4byte	.LASF56
 1083 0385 09       		.byte	0x9
 1084 0386 2F       		.byte	0x2f
 1085 0387 BD030000 		.4byte	0x3bd
 1086 038b 04       		.byte	0x4
 1087 038c 06       		.uleb128 0x6
 1088 038d 74000000 		.4byte	.LASF57
 1089 0391 09       		.byte	0x9
 1090 0392 31       		.byte	0x31
 1091 0393 BD030000 		.4byte	0x3bd
 1092 0397 08       		.byte	0x8
 1093 0398 06       		.uleb128 0x6
 1094 0399 F9010000 		.4byte	.LASF58
 1095 039d 09       		.byte	0x9
 1096 039e 32       		.byte	0x32
 1097 039f BD030000 		.4byte	0x3bd
 1098 03a3 0C       		.byte	0xc
 1099 03a4 06       		.uleb128 0x6
 1100 03a5 12040000 		.4byte	.LASF59
 1101 03a9 09       		.byte	0x9
 1102 03aa 33       		.byte	0x33
 1103 03ab 1F030000 		.4byte	0x31f
 1104 03af 10       		.byte	0x10
 1105 03b0 06       		.uleb128 0x6
 1106 03b1 41010000 		.4byte	.LASF60
 1107 03b5 09       		.byte	0x9
 1108 03b6 35       		.byte	0x35
 1109 03b7 1F030000 		.4byte	0x31f
 1110 03bb 1C       		.byte	0x1c
 1111 03bc 00       		.byte	0
 1112 03bd 09       		.uleb128 0x9
 1113 03be 04       		.byte	0x4
 1114 03bf CA000000 		.4byte	0xca
 1115 03c3 04       		.uleb128 0x4
 1116 03c4 2E000000 		.4byte	.LASF61
 1117 03c8 09       		.byte	0x9
 1118 03c9 37       		.byte	0x37
 1119 03ca 6C030000 		.4byte	0x36c
 1120 03ce 0C       		.uleb128 0xc
 1121 03cf 04       		.byte	0x4
 1122 03d0 05       		.byte	0x5
 1123 03d1 8F       		.byte	0x8f
 1124 03d2 03040000 		.4byte	0x403
 1125 03d6 0D       		.uleb128 0xd
 1126 03d7 13000000 		.4byte	.LASF62
 1127 03db 05       		.byte	0x5
ARM GAS  /var/folders/qh/xwg3v3kj02qbxczjpdb8lzfr0000gn/T//cccW2fsI.s 			page 21


 1128 03dc 96       		.byte	0x96
 1129 03dd CA000000 		.4byte	0xca
 1130 03e1 0D       		.uleb128 0xd
 1131 03e2 5C000000 		.4byte	.LASF63
 1132 03e6 05       		.byte	0x5
 1133 03e7 9D       		.byte	0x9d
 1134 03e8 CA000000 		.4byte	0xca
 1135 03ec 0D       		.uleb128 0xd
 1136 03ed 38040000 		.4byte	.LASF64
 1137 03f1 05       		.byte	0x5
 1138 03f2 A4       		.byte	0xa4
 1139 03f3 5B020000 		.4byte	0x25b
 1140 03f7 0D       		.uleb128 0xd
 1141 03f8 6A030000 		.4byte	.LASF65
 1142 03fc 05       		.byte	0x5
 1143 03fd AB       		.byte	0xab
 1144 03fe D5000000 		.4byte	0xd5
 1145 0402 00       		.byte	0
 1146 0403 09       		.uleb128 0x9
 1147 0404 04       		.byte	0x4
 1148 0405 09040000 		.4byte	0x409
 1149 0409 0E       		.uleb128 0xe
 1150 040a 0E040000 		.4byte	0x40e
 1151 040e 03       		.uleb128 0x3
 1152 040f 01       		.byte	0x1
 1153 0410 08       		.byte	0x8
 1154 0411 A4030000 		.4byte	.LASF66
 1155 0415 09       		.uleb128 0x9
 1156 0416 04       		.byte	0x4
 1157 0417 61030000 		.4byte	0x361
 1158 041b 0F       		.uleb128 0xf
 1159 041c 26010000 		.4byte	.LASF67
 1160 0420 01       		.byte	0x1
 1161 0421 41       		.byte	0x41
 1162 0422 00000000 		.4byte	.LFB7
 1163 0426 26000000 		.4byte	.LFE7-.LFB7
 1164 042a 01       		.uleb128 0x1
 1165 042b 9C       		.byte	0x9c
 1166 042c 8C040000 		.4byte	0x48c
 1167 0430 10       		.uleb128 0x10
 1168 0431 6D627000 		.ascii	"mbp\000"
 1169 0435 01       		.byte	0x1
 1170 0436 41       		.byte	0x41
 1171 0437 8C040000 		.4byte	0x48c
 1172 043b 00000000 		.4byte	.LLST0
 1173 043f 10       		.uleb128 0x10
 1174 0440 62756600 		.ascii	"buf\000"
 1175 0444 01       		.byte	0x1
 1176 0445 41       		.byte	0x41
 1177 0446 BD030000 		.4byte	0x3bd
 1178 044a 2C000000 		.4byte	.LLST1
 1179 044e 10       		.uleb128 0x10
 1180 044f 6E00     		.ascii	"n\000"
 1181 0451 01       		.byte	0x1
 1182 0452 41       		.byte	0x41
 1183 0453 EB000000 		.4byte	0xeb
 1184 0457 70000000 		.4byte	.LLST2
ARM GAS  /var/folders/qh/xwg3v3kj02qbxczjpdb8lzfr0000gn/T//cccW2fsI.s 			page 22


 1185 045b 11       		.uleb128 0x11
 1186 045c 1A000000 		.4byte	.LVL4
 1187 0460 E1080000 		.4byte	0x8e1
 1188 0464 76040000 		.4byte	0x476
 1189 0468 12       		.uleb128 0x12
 1190 0469 01       		.uleb128 0x1
 1191 046a 51       		.byte	0x51
 1192 046b 03       		.uleb128 0x3
 1193 046c F3       		.byte	0xf3
 1194 046d 01       		.uleb128 0x1
 1195 046e 52       		.byte	0x52
 1196 046f 12       		.uleb128 0x12
 1197 0470 01       		.uleb128 0x1
 1198 0471 50       		.byte	0x50
 1199 0472 02       		.uleb128 0x2
 1200 0473 74       		.byte	0x74
 1201 0474 1C       		.sleb128 28
 1202 0475 00       		.byte	0
 1203 0476 13       		.uleb128 0x13
 1204 0477 24000000 		.4byte	.LVL5
 1205 047b E1080000 		.4byte	0x8e1
 1206 047f 12       		.uleb128 0x12
 1207 0480 01       		.uleb128 0x1
 1208 0481 51       		.byte	0x51
 1209 0482 01       		.uleb128 0x1
 1210 0483 30       		.byte	0x30
 1211 0484 12       		.uleb128 0x12
 1212 0485 01       		.uleb128 0x1
 1213 0486 50       		.byte	0x50
 1214 0487 02       		.uleb128 0x2
 1215 0488 74       		.byte	0x74
 1216 0489 10       		.sleb128 16
 1217 048a 00       		.byte	0
 1218 048b 00       		.byte	0
 1219 048c 09       		.uleb128 0x9
 1220 048d 04       		.byte	0x4
 1221 048e C3030000 		.4byte	0x3c3
 1222 0492 0F       		.uleb128 0xf
 1223 0493 DC020000 		.4byte	.LASF68
 1224 0497 01       		.byte	0x1
 1225 0498 54       		.byte	0x54
 1226 0499 00000000 		.4byte	.LFB8
 1227 049d 2A000000 		.4byte	.LFE8-.LFB8
 1228 04a1 01       		.uleb128 0x1
 1229 04a2 9C       		.byte	0x9c
 1230 04a3 ED040000 		.4byte	0x4ed
 1231 04a7 10       		.uleb128 0x10
 1232 04a8 6D627000 		.ascii	"mbp\000"
 1233 04ac 01       		.byte	0x1
 1234 04ad 54       		.byte	0x54
 1235 04ae 8C040000 		.4byte	0x48c
 1236 04b2 91000000 		.4byte	.LLST3
 1237 04b6 11       		.uleb128 0x11
 1238 04b7 18000000 		.4byte	.LVL9
 1239 04bb FD080000 		.4byte	0x8fd
 1240 04bf CA040000 		.4byte	0x4ca
 1241 04c3 12       		.uleb128 0x12
ARM GAS  /var/folders/qh/xwg3v3kj02qbxczjpdb8lzfr0000gn/T//cccW2fsI.s 			page 23


 1242 04c4 01       		.uleb128 0x1
 1243 04c5 50       		.byte	0x50
 1244 04c6 02       		.uleb128 0x2
 1245 04c7 74       		.byte	0x74
 1246 04c8 1C       		.sleb128 28
 1247 04c9 00       		.byte	0
 1248 04ca 11       		.uleb128 0x11
 1249 04cb 22000000 		.4byte	.LVL10
 1250 04cf FD080000 		.4byte	0x8fd
 1251 04d3 E3040000 		.4byte	0x4e3
 1252 04d7 12       		.uleb128 0x12
 1253 04d8 01       		.uleb128 0x1
 1254 04d9 51       		.byte	0x51
 1255 04da 01       		.uleb128 0x1
 1256 04db 30       		.byte	0x30
 1257 04dc 12       		.uleb128 0x12
 1258 04dd 01       		.uleb128 0x1
 1259 04de 50       		.byte	0x50
 1260 04df 02       		.uleb128 0x2
 1261 04e0 74       		.byte	0x74
 1262 04e1 10       		.sleb128 16
 1263 04e2 00       		.byte	0
 1264 04e3 14       		.uleb128 0x14
 1265 04e4 26000000 		.4byte	.LVL11
 1266 04e8 13090000 		.4byte	0x913
 1267 04ec 00       		.byte	0
 1268 04ed 15       		.uleb128 0x15
 1269 04ee 24000000 		.4byte	.LASF70
 1270 04f2 01       		.byte	0x1
 1271 04f3 8F       		.byte	0x8f
 1272 04f4 CA000000 		.4byte	0xca
 1273 04f8 00000000 		.4byte	.LFB10
 1274 04fc 36000000 		.4byte	.LFE10-.LFB10
 1275 0500 01       		.uleb128 0x1
 1276 0501 9C       		.byte	0x9c
 1277 0502 7B050000 		.4byte	0x57b
 1278 0506 10       		.uleb128 0x10
 1279 0507 6D627000 		.ascii	"mbp\000"
 1280 050b 01       		.byte	0x1
 1281 050c 8F       		.byte	0x8f
 1282 050d 8C040000 		.4byte	0x48c
 1283 0511 BD000000 		.4byte	.LLST4
 1284 0515 10       		.uleb128 0x10
 1285 0516 6D736700 		.ascii	"msg\000"
 1286 051a 01       		.byte	0x1
 1287 051b 8F       		.byte	0x8f
 1288 051c CA000000 		.4byte	0xca
 1289 0520 F4000000 		.4byte	.LLST5
 1290 0524 16       		.uleb128 0x16
 1291 0525 05030000 		.4byte	.LASF69
 1292 0529 01       		.byte	0x1
 1293 052a 8F       		.byte	0x8f
 1294 052b E0000000 		.4byte	0xe0
 1295 052f 2B010000 		.4byte	.LLST6
 1296 0533 17       		.uleb128 0x17
 1297 0534 13000000 		.4byte	.LASF62
 1298 0538 01       		.byte	0x1
ARM GAS  /var/folders/qh/xwg3v3kj02qbxczjpdb8lzfr0000gn/T//cccW2fsI.s 			page 24


 1299 0539 90       		.byte	0x90
 1300 053a CA000000 		.4byte	0xca
 1301 053e 4C010000 		.4byte	.LLST7
 1302 0542 11       		.uleb128 0x11
 1303 0543 0E000000 		.4byte	.LVL16
 1304 0547 1A090000 		.4byte	0x91a
 1305 054b 5D050000 		.4byte	0x55d
 1306 054f 12       		.uleb128 0x12
 1307 0550 01       		.uleb128 0x1
 1308 0551 51       		.byte	0x51
 1309 0552 03       		.uleb128 0x3
 1310 0553 F3       		.byte	0xf3
 1311 0554 01       		.uleb128 0x1
 1312 0555 52       		.byte	0x52
 1313 0556 12       		.uleb128 0x12
 1314 0557 01       		.uleb128 0x1
 1315 0558 50       		.byte	0x50
 1316 0559 02       		.uleb128 0x2
 1317 055a 74       		.byte	0x74
 1318 055b 1C       		.sleb128 28
 1319 055c 00       		.byte	0
 1320 055d 11       		.uleb128 0x11
 1321 055e 28000000 		.4byte	.LVL19
 1322 0562 34090000 		.4byte	0x934
 1323 0566 71050000 		.4byte	0x571
 1324 056a 12       		.uleb128 0x12
 1325 056b 01       		.uleb128 0x1
 1326 056c 50       		.byte	0x50
 1327 056d 02       		.uleb128 0x2
 1328 056e 74       		.byte	0x74
 1329 056f 10       		.sleb128 16
 1330 0570 00       		.byte	0
 1331 0571 14       		.uleb128 0x14
 1332 0572 2C000000 		.4byte	.LVL20
 1333 0576 13090000 		.4byte	0x913
 1334 057a 00       		.byte	0
 1335 057b 15       		.uleb128 0x15
 1336 057c 80030000 		.4byte	.LASF71
 1337 0580 01       		.byte	0x1
 1338 0581 73       		.byte	0x73
 1339 0582 CA000000 		.4byte	0xca
 1340 0586 00000000 		.4byte	.LFB9
 1341 058a 0C000000 		.4byte	.LFE9-.LFB9
 1342 058e 01       		.uleb128 0x1
 1343 058f 9C       		.byte	0x9c
 1344 0590 EE050000 		.4byte	0x5ee
 1345 0594 10       		.uleb128 0x10
 1346 0595 6D627000 		.ascii	"mbp\000"
 1347 0599 01       		.byte	0x1
 1348 059a 73       		.byte	0x73
 1349 059b 8C040000 		.4byte	0x48c
 1350 059f 75010000 		.4byte	.LLST8
 1351 05a3 10       		.uleb128 0x10
 1352 05a4 6D736700 		.ascii	"msg\000"
 1353 05a8 01       		.byte	0x1
 1354 05a9 73       		.byte	0x73
 1355 05aa CA000000 		.4byte	0xca
ARM GAS  /var/folders/qh/xwg3v3kj02qbxczjpdb8lzfr0000gn/T//cccW2fsI.s 			page 25


 1356 05ae 96010000 		.4byte	.LLST9
 1357 05b2 16       		.uleb128 0x16
 1358 05b3 05030000 		.4byte	.LASF69
 1359 05b7 01       		.byte	0x1
 1360 05b8 73       		.byte	0x73
 1361 05b9 E0000000 		.4byte	0xe0
 1362 05bd B7010000 		.4byte	.LLST10
 1363 05c1 18       		.uleb128 0x18
 1364 05c2 13000000 		.4byte	.LASF62
 1365 05c6 01       		.byte	0x1
 1366 05c7 74       		.byte	0x74
 1367 05c8 CA000000 		.4byte	0xca
 1368 05cc 01       		.uleb128 0x1
 1369 05cd 50       		.byte	0x50
 1370 05ce 13       		.uleb128 0x13
 1371 05cf 08000000 		.4byte	.LVL26
 1372 05d3 ED040000 		.4byte	0x4ed
 1373 05d7 12       		.uleb128 0x12
 1374 05d8 01       		.uleb128 0x1
 1375 05d9 52       		.byte	0x52
 1376 05da 03       		.uleb128 0x3
 1377 05db F3       		.byte	0xf3
 1378 05dc 01       		.uleb128 0x1
 1379 05dd 52       		.byte	0x52
 1380 05de 12       		.uleb128 0x12
 1381 05df 01       		.uleb128 0x1
 1382 05e0 51       		.byte	0x51
 1383 05e1 03       		.uleb128 0x3
 1384 05e2 F3       		.byte	0xf3
 1385 05e3 01       		.uleb128 0x1
 1386 05e4 51       		.byte	0x51
 1387 05e5 12       		.uleb128 0x12
 1388 05e6 01       		.uleb128 0x1
 1389 05e7 50       		.byte	0x50
 1390 05e8 03       		.uleb128 0x3
 1391 05e9 F3       		.byte	0xf3
 1392 05ea 01       		.uleb128 0x1
 1393 05eb 50       		.byte	0x50
 1394 05ec 00       		.byte	0
 1395 05ed 00       		.byte	0
 1396 05ee 15       		.uleb128 0x15
 1397 05ef 1A000000 		.4byte	.LASF72
 1398 05f3 01       		.byte	0x1
 1399 05f4 AE       		.byte	0xae
 1400 05f5 CA000000 		.4byte	0xca
 1401 05f9 00000000 		.4byte	.LFB11
 1402 05fd 30000000 		.4byte	.LFE11-.LFB11
 1403 0601 01       		.uleb128 0x1
 1404 0602 9C       		.byte	0x9c
 1405 0603 39060000 		.4byte	0x639
 1406 0607 10       		.uleb128 0x10
 1407 0608 6D627000 		.ascii	"mbp\000"
 1408 060c 01       		.byte	0x1
 1409 060d AE       		.byte	0xae
 1410 060e 8C040000 		.4byte	0x48c
 1411 0612 D8010000 		.4byte	.LLST11
 1412 0616 10       		.uleb128 0x10
ARM GAS  /var/folders/qh/xwg3v3kj02qbxczjpdb8lzfr0000gn/T//cccW2fsI.s 			page 26


 1413 0617 6D736700 		.ascii	"msg\000"
 1414 061b 01       		.byte	0x1
 1415 061c AE       		.byte	0xae
 1416 061d CA000000 		.4byte	0xca
 1417 0621 1F020000 		.4byte	.LLST12
 1418 0625 13       		.uleb128 0x13
 1419 0626 20000000 		.4byte	.LVL29
 1420 062a 34090000 		.4byte	0x934
 1421 062e 12       		.uleb128 0x12
 1422 062f 01       		.uleb128 0x1
 1423 0630 50       		.byte	0x50
 1424 0631 05       		.uleb128 0x5
 1425 0632 F3       		.byte	0xf3
 1426 0633 01       		.uleb128 0x1
 1427 0634 50       		.byte	0x50
 1428 0635 23       		.byte	0x23
 1429 0636 10       		.uleb128 0x10
 1430 0637 00       		.byte	0
 1431 0638 00       		.byte	0
 1432 0639 15       		.uleb128 0x15
 1433 063a 65000000 		.4byte	.LASF73
 1434 063e 01       		.byte	0x1
 1435 063f EC       		.byte	0xec
 1436 0640 CA000000 		.4byte	0xca
 1437 0644 00000000 		.4byte	.LFB13
 1438 0648 38000000 		.4byte	.LFE13-.LFB13
 1439 064c 01       		.uleb128 0x1
 1440 064d 9C       		.byte	0x9c
 1441 064e C7060000 		.4byte	0x6c7
 1442 0652 10       		.uleb128 0x10
 1443 0653 6D627000 		.ascii	"mbp\000"
 1444 0657 01       		.byte	0x1
 1445 0658 EC       		.byte	0xec
 1446 0659 8C040000 		.4byte	0x48c
 1447 065d 4B020000 		.4byte	.LLST13
 1448 0661 10       		.uleb128 0x10
 1449 0662 6D736700 		.ascii	"msg\000"
 1450 0666 01       		.byte	0x1
 1451 0667 EC       		.byte	0xec
 1452 0668 CA000000 		.4byte	0xca
 1453 066c 82020000 		.4byte	.LLST14
 1454 0670 16       		.uleb128 0x16
 1455 0671 05030000 		.4byte	.LASF69
 1456 0675 01       		.byte	0x1
 1457 0676 EC       		.byte	0xec
 1458 0677 E0000000 		.4byte	0xe0
 1459 067b B9020000 		.4byte	.LLST15
 1460 067f 17       		.uleb128 0x17
 1461 0680 13000000 		.4byte	.LASF62
 1462 0684 01       		.byte	0x1
 1463 0685 ED       		.byte	0xed
 1464 0686 CA000000 		.4byte	0xca
 1465 068a DA020000 		.4byte	.LLST16
 1466 068e 11       		.uleb128 0x11
 1467 068f 0E000000 		.4byte	.LVL35
 1468 0693 1A090000 		.4byte	0x91a
 1469 0697 A9060000 		.4byte	0x6a9
ARM GAS  /var/folders/qh/xwg3v3kj02qbxczjpdb8lzfr0000gn/T//cccW2fsI.s 			page 27


 1470 069b 12       		.uleb128 0x12
 1471 069c 01       		.uleb128 0x1
 1472 069d 51       		.byte	0x51
 1473 069e 03       		.uleb128 0x3
 1474 069f F3       		.byte	0xf3
 1475 06a0 01       		.uleb128 0x1
 1476 06a1 52       		.byte	0x52
 1477 06a2 12       		.uleb128 0x12
 1478 06a3 01       		.uleb128 0x1
 1479 06a4 50       		.byte	0x50
 1480 06a5 02       		.uleb128 0x2
 1481 06a6 74       		.byte	0x74
 1482 06a7 1C       		.sleb128 28
 1483 06a8 00       		.byte	0
 1484 06a9 11       		.uleb128 0x11
 1485 06aa 28000000 		.4byte	.LVL38
 1486 06ae 34090000 		.4byte	0x934
 1487 06b2 BD060000 		.4byte	0x6bd
 1488 06b6 12       		.uleb128 0x12
 1489 06b7 01       		.uleb128 0x1
 1490 06b8 50       		.byte	0x50
 1491 06b9 02       		.uleb128 0x2
 1492 06ba 74       		.byte	0x74
 1493 06bb 10       		.sleb128 16
 1494 06bc 00       		.byte	0
 1495 06bd 14       		.uleb128 0x14
 1496 06be 2C000000 		.4byte	.LVL39
 1497 06c2 13090000 		.4byte	0x913
 1498 06c6 00       		.byte	0
 1499 06c7 15       		.uleb128 0x15
 1500 06c8 DE030000 		.4byte	.LASF74
 1501 06cc 01       		.byte	0x1
 1502 06cd D0       		.byte	0xd0
 1503 06ce CA000000 		.4byte	0xca
 1504 06d2 00000000 		.4byte	.LFB12
 1505 06d6 0C000000 		.4byte	.LFE12-.LFB12
 1506 06da 01       		.uleb128 0x1
 1507 06db 9C       		.byte	0x9c
 1508 06dc 3A070000 		.4byte	0x73a
 1509 06e0 10       		.uleb128 0x10
 1510 06e1 6D627000 		.ascii	"mbp\000"
 1511 06e5 01       		.byte	0x1
 1512 06e6 D0       		.byte	0xd0
 1513 06e7 8C040000 		.4byte	0x48c
 1514 06eb 03030000 		.4byte	.LLST17
 1515 06ef 10       		.uleb128 0x10
 1516 06f0 6D736700 		.ascii	"msg\000"
 1517 06f4 01       		.byte	0x1
 1518 06f5 D0       		.byte	0xd0
 1519 06f6 CA000000 		.4byte	0xca
 1520 06fa 24030000 		.4byte	.LLST18
 1521 06fe 16       		.uleb128 0x16
 1522 06ff 05030000 		.4byte	.LASF69
 1523 0703 01       		.byte	0x1
 1524 0704 D0       		.byte	0xd0
 1525 0705 E0000000 		.4byte	0xe0
 1526 0709 45030000 		.4byte	.LLST19
ARM GAS  /var/folders/qh/xwg3v3kj02qbxczjpdb8lzfr0000gn/T//cccW2fsI.s 			page 28


 1527 070d 18       		.uleb128 0x18
 1528 070e 13000000 		.4byte	.LASF62
 1529 0712 01       		.byte	0x1
 1530 0713 D1       		.byte	0xd1
 1531 0714 CA000000 		.4byte	0xca
 1532 0718 01       		.uleb128 0x1
 1533 0719 50       		.byte	0x50
 1534 071a 13       		.uleb128 0x13
 1535 071b 08000000 		.4byte	.LVL45
 1536 071f 39060000 		.4byte	0x639
 1537 0723 12       		.uleb128 0x12
 1538 0724 01       		.uleb128 0x1
 1539 0725 52       		.byte	0x52
 1540 0726 03       		.uleb128 0x3
 1541 0727 F3       		.byte	0xf3
 1542 0728 01       		.uleb128 0x1
 1543 0729 52       		.byte	0x52
 1544 072a 12       		.uleb128 0x12
 1545 072b 01       		.uleb128 0x1
 1546 072c 51       		.byte	0x51
 1547 072d 03       		.uleb128 0x3
 1548 072e F3       		.byte	0xf3
 1549 072f 01       		.uleb128 0x1
 1550 0730 51       		.byte	0x51
 1551 0731 12       		.uleb128 0x12
 1552 0732 01       		.uleb128 0x1
 1553 0733 50       		.byte	0x50
 1554 0734 03       		.uleb128 0x3
 1555 0735 F3       		.byte	0xf3
 1556 0736 01       		.uleb128 0x1
 1557 0737 50       		.byte	0x50
 1558 0738 00       		.byte	0
 1559 0739 00       		.byte	0
 1560 073a 19       		.uleb128 0x19
 1561 073b 36000000 		.4byte	.LASF75
 1562 073f 01       		.byte	0x1
 1563 0740 0B01     		.2byte	0x10b
 1564 0742 CA000000 		.4byte	0xca
 1565 0746 00000000 		.4byte	.LFB14
 1566 074a 32000000 		.4byte	.LFE14-.LFB14
 1567 074e 01       		.uleb128 0x1
 1568 074f 9C       		.byte	0x9c
 1569 0750 88070000 		.4byte	0x788
 1570 0754 1A       		.uleb128 0x1a
 1571 0755 6D627000 		.ascii	"mbp\000"
 1572 0759 01       		.byte	0x1
 1573 075a 0B01     		.2byte	0x10b
 1574 075c 8C040000 		.4byte	0x48c
 1575 0760 66030000 		.4byte	.LLST20
 1576 0764 1A       		.uleb128 0x1a
 1577 0765 6D736700 		.ascii	"msg\000"
 1578 0769 01       		.byte	0x1
 1579 076a 0B01     		.2byte	0x10b
 1580 076c CA000000 		.4byte	0xca
 1581 0770 AD030000 		.4byte	.LLST21
 1582 0774 13       		.uleb128 0x13
 1583 0775 20000000 		.4byte	.LVL48
ARM GAS  /var/folders/qh/xwg3v3kj02qbxczjpdb8lzfr0000gn/T//cccW2fsI.s 			page 29


 1584 0779 34090000 		.4byte	0x934
 1585 077d 12       		.uleb128 0x12
 1586 077e 01       		.uleb128 0x1
 1587 077f 50       		.byte	0x50
 1588 0780 05       		.uleb128 0x5
 1589 0781 F3       		.byte	0xf3
 1590 0782 01       		.uleb128 0x1
 1591 0783 50       		.byte	0x50
 1592 0784 23       		.byte	0x23
 1593 0785 10       		.uleb128 0x10
 1594 0786 00       		.byte	0
 1595 0787 00       		.byte	0
 1596 0788 19       		.uleb128 0x19
 1597 0789 BA010000 		.4byte	.LASF76
 1598 078d 01       		.byte	0x1
 1599 078e 4901     		.2byte	0x149
 1600 0790 CA000000 		.4byte	0xca
 1601 0794 00000000 		.4byte	.LFB16
 1602 0798 38000000 		.4byte	.LFE16-.LFB16
 1603 079c 01       		.uleb128 0x1
 1604 079d 9C       		.byte	0x9c
 1605 079e 1B080000 		.4byte	0x81b
 1606 07a2 1A       		.uleb128 0x1a
 1607 07a3 6D627000 		.ascii	"mbp\000"
 1608 07a7 01       		.byte	0x1
 1609 07a8 4901     		.2byte	0x149
 1610 07aa 8C040000 		.4byte	0x48c
 1611 07ae D9030000 		.4byte	.LLST22
 1612 07b2 1B       		.uleb128 0x1b
 1613 07b3 EB010000 		.4byte	.LASF77
 1614 07b7 01       		.byte	0x1
 1615 07b8 4901     		.2byte	0x149
 1616 07ba BD030000 		.4byte	0x3bd
 1617 07be 10040000 		.4byte	.LLST23
 1618 07c2 1B       		.uleb128 0x1b
 1619 07c3 05030000 		.4byte	.LASF69
 1620 07c7 01       		.byte	0x1
 1621 07c8 4901     		.2byte	0x149
 1622 07ca E0000000 		.4byte	0xe0
 1623 07ce 47040000 		.4byte	.LLST24
 1624 07d2 1C       		.uleb128 0x1c
 1625 07d3 13000000 		.4byte	.LASF62
 1626 07d7 01       		.byte	0x1
 1627 07d8 4A01     		.2byte	0x14a
 1628 07da CA000000 		.4byte	0xca
 1629 07de 68040000 		.4byte	.LLST25
 1630 07e2 11       		.uleb128 0x11
 1631 07e3 0E000000 		.4byte	.LVL54
 1632 07e7 1A090000 		.4byte	0x91a
 1633 07eb FD070000 		.4byte	0x7fd
 1634 07ef 12       		.uleb128 0x12
 1635 07f0 01       		.uleb128 0x1
 1636 07f1 51       		.byte	0x51
 1637 07f2 03       		.uleb128 0x3
 1638 07f3 F3       		.byte	0xf3
 1639 07f4 01       		.uleb128 0x1
 1640 07f5 52       		.byte	0x52
ARM GAS  /var/folders/qh/xwg3v3kj02qbxczjpdb8lzfr0000gn/T//cccW2fsI.s 			page 30


 1641 07f6 12       		.uleb128 0x12
 1642 07f7 01       		.uleb128 0x1
 1643 07f8 50       		.byte	0x50
 1644 07f9 02       		.uleb128 0x2
 1645 07fa 74       		.byte	0x74
 1646 07fb 10       		.sleb128 16
 1647 07fc 00       		.byte	0
 1648 07fd 11       		.uleb128 0x11
 1649 07fe 2A000000 		.4byte	.LVL57
 1650 0802 34090000 		.4byte	0x934
 1651 0806 11080000 		.4byte	0x811
 1652 080a 12       		.uleb128 0x12
 1653 080b 01       		.uleb128 0x1
 1654 080c 50       		.byte	0x50
 1655 080d 02       		.uleb128 0x2
 1656 080e 74       		.byte	0x74
 1657 080f 1C       		.sleb128 28
 1658 0810 00       		.byte	0
 1659 0811 14       		.uleb128 0x14
 1660 0812 2E000000 		.4byte	.LVL58
 1661 0816 13090000 		.4byte	0x913
 1662 081a 00       		.byte	0
 1663 081b 19       		.uleb128 0x19
 1664 081c FE030000 		.4byte	.LASF78
 1665 0820 01       		.byte	0x1
 1666 0821 2D01     		.2byte	0x12d
 1667 0823 CA000000 		.4byte	0xca
 1668 0827 00000000 		.4byte	.LFB15
 1669 082b 0C000000 		.4byte	.LFE15-.LFB15
 1670 082f 01       		.uleb128 0x1
 1671 0830 9C       		.byte	0x9c
 1672 0831 93080000 		.4byte	0x893
 1673 0835 1A       		.uleb128 0x1a
 1674 0836 6D627000 		.ascii	"mbp\000"
 1675 083a 01       		.byte	0x1
 1676 083b 2D01     		.2byte	0x12d
 1677 083d 8C040000 		.4byte	0x48c
 1678 0841 91040000 		.4byte	.LLST26
 1679 0845 1B       		.uleb128 0x1b
 1680 0846 EB010000 		.4byte	.LASF77
 1681 084a 01       		.byte	0x1
 1682 084b 2D01     		.2byte	0x12d
 1683 084d BD030000 		.4byte	0x3bd
 1684 0851 B2040000 		.4byte	.LLST27
 1685 0855 1B       		.uleb128 0x1b
 1686 0856 05030000 		.4byte	.LASF69
 1687 085a 01       		.byte	0x1
 1688 085b 2D01     		.2byte	0x12d
 1689 085d E0000000 		.4byte	0xe0
 1690 0861 D3040000 		.4byte	.LLST28
 1691 0865 1D       		.uleb128 0x1d
 1692 0866 13000000 		.4byte	.LASF62
 1693 086a 01       		.byte	0x1
 1694 086b 2E01     		.2byte	0x12e
 1695 086d CA000000 		.4byte	0xca
 1696 0871 01       		.uleb128 0x1
 1697 0872 50       		.byte	0x50
ARM GAS  /var/folders/qh/xwg3v3kj02qbxczjpdb8lzfr0000gn/T//cccW2fsI.s 			page 31


 1698 0873 13       		.uleb128 0x13
 1699 0874 08000000 		.4byte	.LVL64
 1700 0878 88070000 		.4byte	0x788
 1701 087c 12       		.uleb128 0x12
 1702 087d 01       		.uleb128 0x1
 1703 087e 52       		.byte	0x52
 1704 087f 03       		.uleb128 0x3
 1705 0880 F3       		.byte	0xf3
 1706 0881 01       		.uleb128 0x1
 1707 0882 52       		.byte	0x52
 1708 0883 12       		.uleb128 0x12
 1709 0884 01       		.uleb128 0x1
 1710 0885 51       		.byte	0x51
 1711 0886 03       		.uleb128 0x3
 1712 0887 F3       		.byte	0xf3
 1713 0888 01       		.uleb128 0x1
 1714 0889 51       		.byte	0x51
 1715 088a 12       		.uleb128 0x12
 1716 088b 01       		.uleb128 0x1
 1717 088c 50       		.byte	0x50
 1718 088d 03       		.uleb128 0x3
 1719 088e F3       		.byte	0xf3
 1720 088f 01       		.uleb128 0x1
 1721 0890 50       		.byte	0x50
 1722 0891 00       		.byte	0
 1723 0892 00       		.byte	0
 1724 0893 19       		.uleb128 0x19
 1725 0894 A9010000 		.4byte	.LASF79
 1726 0898 01       		.byte	0x1
 1727 0899 6801     		.2byte	0x168
 1728 089b CA000000 		.4byte	0xca
 1729 089f 00000000 		.4byte	.LFB17
 1730 08a3 32000000 		.4byte	.LFE17-.LFB17
 1731 08a7 01       		.uleb128 0x1
 1732 08a8 9C       		.byte	0x9c
 1733 08a9 E1080000 		.4byte	0x8e1
 1734 08ad 1A       		.uleb128 0x1a
 1735 08ae 6D627000 		.ascii	"mbp\000"
 1736 08b2 01       		.byte	0x1
 1737 08b3 6801     		.2byte	0x168
 1738 08b5 8C040000 		.4byte	0x48c
 1739 08b9 F4040000 		.4byte	.LLST29
 1740 08bd 1B       		.uleb128 0x1b
 1741 08be EB010000 		.4byte	.LASF77
 1742 08c2 01       		.byte	0x1
 1743 08c3 6801     		.2byte	0x168
 1744 08c5 BD030000 		.4byte	0x3bd
 1745 08c9 3B050000 		.4byte	.LLST30
 1746 08cd 13       		.uleb128 0x13
 1747 08ce 22000000 		.4byte	.LVL67
 1748 08d2 34090000 		.4byte	0x934
 1749 08d6 12       		.uleb128 0x12
 1750 08d7 01       		.uleb128 0x1
 1751 08d8 50       		.byte	0x50
 1752 08d9 05       		.uleb128 0x5
 1753 08da F3       		.byte	0xf3
 1754 08db 01       		.uleb128 0x1
ARM GAS  /var/folders/qh/xwg3v3kj02qbxczjpdb8lzfr0000gn/T//cccW2fsI.s 			page 32


 1755 08dc 50       		.byte	0x50
 1756 08dd 23       		.byte	0x23
 1757 08de 1C       		.uleb128 0x1c
 1758 08df 00       		.byte	0
 1759 08e0 00       		.byte	0
 1760 08e1 1E       		.uleb128 0x1e
 1761 08e2 5E040000 		.4byte	.LASF80
 1762 08e6 07       		.byte	0x7
 1763 08e7 2E       		.byte	0x2e
 1764 08e8 F7080000 		.4byte	0x8f7
 1765 08ec 1F       		.uleb128 0x1f
 1766 08ed F7080000 		.4byte	0x8f7
 1767 08f1 1F       		.uleb128 0x1f
 1768 08f2 EB000000 		.4byte	0xeb
 1769 08f6 00       		.byte	0
 1770 08f7 09       		.uleb128 0x9
 1771 08f8 04       		.byte	0x4
 1772 08f9 1F030000 		.4byte	0x31f
 1773 08fd 1E       		.uleb128 0x1e
 1774 08fe 24040000 		.4byte	.LASF81
 1775 0902 07       		.byte	0x7
 1776 0903 30       		.byte	0x30
 1777 0904 13090000 		.4byte	0x913
 1778 0908 1F       		.uleb128 0x1f
 1779 0909 F7080000 		.4byte	0x8f7
 1780 090d 1F       		.uleb128 0x1f
 1781 090e EB000000 		.4byte	0xeb
 1782 0912 00       		.byte	0
 1783 0913 20       		.uleb128 0x20
 1784 0914 F9000000 		.4byte	.LASF85
 1785 0918 0A       		.byte	0xa
 1786 0919 95       		.byte	0x95
 1787 091a 21       		.uleb128 0x21
 1788 091b A9030000 		.4byte	.LASF86
 1789 091f 07       		.byte	0x7
 1790 0920 34       		.byte	0x34
 1791 0921 CA000000 		.4byte	0xca
 1792 0925 34090000 		.4byte	0x934
 1793 0929 1F       		.uleb128 0x1f
 1794 092a F7080000 		.4byte	0x8f7
 1795 092e 1F       		.uleb128 0x1f
 1796 092f E0000000 		.4byte	0xe0
 1797 0933 00       		.byte	0
 1798 0934 22       		.uleb128 0x22
 1799 0935 06000000 		.4byte	.LASF87
 1800 0939 07       		.byte	0x7
 1801 093a 36       		.byte	0x36
 1802 093b 1F       		.uleb128 0x1f
 1803 093c F7080000 		.4byte	0x8f7
 1804 0940 00       		.byte	0
 1805 0941 00       		.byte	0
 1806              		.section	.debug_abbrev,"",%progbits
 1807              	.Ldebug_abbrev0:
 1808 0000 01       		.uleb128 0x1
 1809 0001 11       		.uleb128 0x11
 1810 0002 01       		.byte	0x1
 1811 0003 25       		.uleb128 0x25
ARM GAS  /var/folders/qh/xwg3v3kj02qbxczjpdb8lzfr0000gn/T//cccW2fsI.s 			page 33


 1812 0004 0E       		.uleb128 0xe
 1813 0005 13       		.uleb128 0x13
 1814 0006 0B       		.uleb128 0xb
 1815 0007 03       		.uleb128 0x3
 1816 0008 0E       		.uleb128 0xe
 1817 0009 1B       		.uleb128 0x1b
 1818 000a 0E       		.uleb128 0xe
 1819 000b 55       		.uleb128 0x55
 1820 000c 17       		.uleb128 0x17
 1821 000d 11       		.uleb128 0x11
 1822 000e 01       		.uleb128 0x1
 1823 000f 10       		.uleb128 0x10
 1824 0010 17       		.uleb128 0x17
 1825 0011 00       		.byte	0
 1826 0012 00       		.byte	0
 1827 0013 02       		.uleb128 0x2
 1828 0014 24       		.uleb128 0x24
 1829 0015 00       		.byte	0
 1830 0016 0B       		.uleb128 0xb
 1831 0017 0B       		.uleb128 0xb
 1832 0018 3E       		.uleb128 0x3e
 1833 0019 0B       		.uleb128 0xb
 1834 001a 03       		.uleb128 0x3
 1835 001b 08       		.uleb128 0x8
 1836 001c 00       		.byte	0
 1837 001d 00       		.byte	0
 1838 001e 03       		.uleb128 0x3
 1839 001f 24       		.uleb128 0x24
 1840 0020 00       		.byte	0
 1841 0021 0B       		.uleb128 0xb
 1842 0022 0B       		.uleb128 0xb
 1843 0023 3E       		.uleb128 0x3e
 1844 0024 0B       		.uleb128 0xb
 1845 0025 03       		.uleb128 0x3
 1846 0026 0E       		.uleb128 0xe
 1847 0027 00       		.byte	0
 1848 0028 00       		.byte	0
 1849 0029 04       		.uleb128 0x4
 1850 002a 16       		.uleb128 0x16
 1851 002b 00       		.byte	0
 1852 002c 03       		.uleb128 0x3
 1853 002d 0E       		.uleb128 0xe
 1854 002e 3A       		.uleb128 0x3a
 1855 002f 0B       		.uleb128 0xb
 1856 0030 3B       		.uleb128 0x3b
 1857 0031 0B       		.uleb128 0xb
 1858 0032 49       		.uleb128 0x49
 1859 0033 13       		.uleb128 0x13
 1860 0034 00       		.byte	0
 1861 0035 00       		.byte	0
 1862 0036 05       		.uleb128 0x5
 1863 0037 13       		.uleb128 0x13
 1864 0038 01       		.byte	0x1
 1865 0039 03       		.uleb128 0x3
 1866 003a 0E       		.uleb128 0xe
 1867 003b 0B       		.uleb128 0xb
 1868 003c 0B       		.uleb128 0xb
ARM GAS  /var/folders/qh/xwg3v3kj02qbxczjpdb8lzfr0000gn/T//cccW2fsI.s 			page 34


 1869 003d 3A       		.uleb128 0x3a
 1870 003e 0B       		.uleb128 0xb
 1871 003f 3B       		.uleb128 0x3b
 1872 0040 0B       		.uleb128 0xb
 1873 0041 01       		.uleb128 0x1
 1874 0042 13       		.uleb128 0x13
 1875 0043 00       		.byte	0
 1876 0044 00       		.byte	0
 1877 0045 06       		.uleb128 0x6
 1878 0046 0D       		.uleb128 0xd
 1879 0047 00       		.byte	0
 1880 0048 03       		.uleb128 0x3
 1881 0049 0E       		.uleb128 0xe
 1882 004a 3A       		.uleb128 0x3a
 1883 004b 0B       		.uleb128 0xb
 1884 004c 3B       		.uleb128 0x3b
 1885 004d 0B       		.uleb128 0xb
 1886 004e 49       		.uleb128 0x49
 1887 004f 13       		.uleb128 0x13
 1888 0050 38       		.uleb128 0x38
 1889 0051 0B       		.uleb128 0xb
 1890 0052 00       		.byte	0
 1891 0053 00       		.byte	0
 1892 0054 07       		.uleb128 0x7
 1893 0055 0D       		.uleb128 0xd
 1894 0056 00       		.byte	0
 1895 0057 03       		.uleb128 0x3
 1896 0058 08       		.uleb128 0x8
 1897 0059 3A       		.uleb128 0x3a
 1898 005a 0B       		.uleb128 0xb
 1899 005b 3B       		.uleb128 0x3b
 1900 005c 0B       		.uleb128 0xb
 1901 005d 49       		.uleb128 0x49
 1902 005e 13       		.uleb128 0x13
 1903 005f 38       		.uleb128 0x38
 1904 0060 0B       		.uleb128 0xb
 1905 0061 00       		.byte	0
 1906 0062 00       		.byte	0
 1907 0063 08       		.uleb128 0x8
 1908 0064 13       		.uleb128 0x13
 1909 0065 01       		.byte	0x1
 1910 0066 0B       		.uleb128 0xb
 1911 0067 0B       		.uleb128 0xb
 1912 0068 3A       		.uleb128 0x3a
 1913 0069 0B       		.uleb128 0xb
 1914 006a 3B       		.uleb128 0x3b
 1915 006b 0B       		.uleb128 0xb
 1916 006c 01       		.uleb128 0x1
 1917 006d 13       		.uleb128 0x13
 1918 006e 00       		.byte	0
 1919 006f 00       		.byte	0
 1920 0070 09       		.uleb128 0x9
 1921 0071 0F       		.uleb128 0xf
 1922 0072 00       		.byte	0
 1923 0073 0B       		.uleb128 0xb
 1924 0074 0B       		.uleb128 0xb
 1925 0075 49       		.uleb128 0x49
ARM GAS  /var/folders/qh/xwg3v3kj02qbxczjpdb8lzfr0000gn/T//cccW2fsI.s 			page 35


 1926 0076 13       		.uleb128 0x13
 1927 0077 00       		.byte	0
 1928 0078 00       		.byte	0
 1929 0079 0A       		.uleb128 0xa
 1930 007a 0F       		.uleb128 0xf
 1931 007b 00       		.byte	0
 1932 007c 0B       		.uleb128 0xb
 1933 007d 0B       		.uleb128 0xb
 1934 007e 00       		.byte	0
 1935 007f 00       		.byte	0
 1936 0080 0B       		.uleb128 0xb
 1937 0081 35       		.uleb128 0x35
 1938 0082 00       		.byte	0
 1939 0083 49       		.uleb128 0x49
 1940 0084 13       		.uleb128 0x13
 1941 0085 00       		.byte	0
 1942 0086 00       		.byte	0
 1943 0087 0C       		.uleb128 0xc
 1944 0088 17       		.uleb128 0x17
 1945 0089 01       		.byte	0x1
 1946 008a 0B       		.uleb128 0xb
 1947 008b 0B       		.uleb128 0xb
 1948 008c 3A       		.uleb128 0x3a
 1949 008d 0B       		.uleb128 0xb
 1950 008e 3B       		.uleb128 0x3b
 1951 008f 0B       		.uleb128 0xb
 1952 0090 01       		.uleb128 0x1
 1953 0091 13       		.uleb128 0x13
 1954 0092 00       		.byte	0
 1955 0093 00       		.byte	0
 1956 0094 0D       		.uleb128 0xd
 1957 0095 0D       		.uleb128 0xd
 1958 0096 00       		.byte	0
 1959 0097 03       		.uleb128 0x3
 1960 0098 0E       		.uleb128 0xe
 1961 0099 3A       		.uleb128 0x3a
 1962 009a 0B       		.uleb128 0xb
 1963 009b 3B       		.uleb128 0x3b
 1964 009c 0B       		.uleb128 0xb
 1965 009d 49       		.uleb128 0x49
 1966 009e 13       		.uleb128 0x13
 1967 009f 00       		.byte	0
 1968 00a0 00       		.byte	0
 1969 00a1 0E       		.uleb128 0xe
 1970 00a2 26       		.uleb128 0x26
 1971 00a3 00       		.byte	0
 1972 00a4 49       		.uleb128 0x49
 1973 00a5 13       		.uleb128 0x13
 1974 00a6 00       		.byte	0
 1975 00a7 00       		.byte	0
 1976 00a8 0F       		.uleb128 0xf
 1977 00a9 2E       		.uleb128 0x2e
 1978 00aa 01       		.byte	0x1
 1979 00ab 3F       		.uleb128 0x3f
 1980 00ac 19       		.uleb128 0x19
 1981 00ad 03       		.uleb128 0x3
 1982 00ae 0E       		.uleb128 0xe
ARM GAS  /var/folders/qh/xwg3v3kj02qbxczjpdb8lzfr0000gn/T//cccW2fsI.s 			page 36


 1983 00af 3A       		.uleb128 0x3a
 1984 00b0 0B       		.uleb128 0xb
 1985 00b1 3B       		.uleb128 0x3b
 1986 00b2 0B       		.uleb128 0xb
 1987 00b3 27       		.uleb128 0x27
 1988 00b4 19       		.uleb128 0x19
 1989 00b5 11       		.uleb128 0x11
 1990 00b6 01       		.uleb128 0x1
 1991 00b7 12       		.uleb128 0x12
 1992 00b8 06       		.uleb128 0x6
 1993 00b9 40       		.uleb128 0x40
 1994 00ba 18       		.uleb128 0x18
 1995 00bb 9742     		.uleb128 0x2117
 1996 00bd 19       		.uleb128 0x19
 1997 00be 01       		.uleb128 0x1
 1998 00bf 13       		.uleb128 0x13
 1999 00c0 00       		.byte	0
 2000 00c1 00       		.byte	0
 2001 00c2 10       		.uleb128 0x10
 2002 00c3 05       		.uleb128 0x5
 2003 00c4 00       		.byte	0
 2004 00c5 03       		.uleb128 0x3
 2005 00c6 08       		.uleb128 0x8
 2006 00c7 3A       		.uleb128 0x3a
 2007 00c8 0B       		.uleb128 0xb
 2008 00c9 3B       		.uleb128 0x3b
 2009 00ca 0B       		.uleb128 0xb
 2010 00cb 49       		.uleb128 0x49
 2011 00cc 13       		.uleb128 0x13
 2012 00cd 02       		.uleb128 0x2
 2013 00ce 17       		.uleb128 0x17
 2014 00cf 00       		.byte	0
 2015 00d0 00       		.byte	0
 2016 00d1 11       		.uleb128 0x11
 2017 00d2 898201   		.uleb128 0x4109
 2018 00d5 01       		.byte	0x1
 2019 00d6 11       		.uleb128 0x11
 2020 00d7 01       		.uleb128 0x1
 2021 00d8 31       		.uleb128 0x31
 2022 00d9 13       		.uleb128 0x13
 2023 00da 01       		.uleb128 0x1
 2024 00db 13       		.uleb128 0x13
 2025 00dc 00       		.byte	0
 2026 00dd 00       		.byte	0
 2027 00de 12       		.uleb128 0x12
 2028 00df 8A8201   		.uleb128 0x410a
 2029 00e2 00       		.byte	0
 2030 00e3 02       		.uleb128 0x2
 2031 00e4 18       		.uleb128 0x18
 2032 00e5 9142     		.uleb128 0x2111
 2033 00e7 18       		.uleb128 0x18
 2034 00e8 00       		.byte	0
 2035 00e9 00       		.byte	0
 2036 00ea 13       		.uleb128 0x13
 2037 00eb 898201   		.uleb128 0x4109
 2038 00ee 01       		.byte	0x1
 2039 00ef 11       		.uleb128 0x11
ARM GAS  /var/folders/qh/xwg3v3kj02qbxczjpdb8lzfr0000gn/T//cccW2fsI.s 			page 37


 2040 00f0 01       		.uleb128 0x1
 2041 00f1 31       		.uleb128 0x31
 2042 00f2 13       		.uleb128 0x13
 2043 00f3 00       		.byte	0
 2044 00f4 00       		.byte	0
 2045 00f5 14       		.uleb128 0x14
 2046 00f6 898201   		.uleb128 0x4109
 2047 00f9 00       		.byte	0
 2048 00fa 11       		.uleb128 0x11
 2049 00fb 01       		.uleb128 0x1
 2050 00fc 31       		.uleb128 0x31
 2051 00fd 13       		.uleb128 0x13
 2052 00fe 00       		.byte	0
 2053 00ff 00       		.byte	0
 2054 0100 15       		.uleb128 0x15
 2055 0101 2E       		.uleb128 0x2e
 2056 0102 01       		.byte	0x1
 2057 0103 3F       		.uleb128 0x3f
 2058 0104 19       		.uleb128 0x19
 2059 0105 03       		.uleb128 0x3
 2060 0106 0E       		.uleb128 0xe
 2061 0107 3A       		.uleb128 0x3a
 2062 0108 0B       		.uleb128 0xb
 2063 0109 3B       		.uleb128 0x3b
 2064 010a 0B       		.uleb128 0xb
 2065 010b 27       		.uleb128 0x27
 2066 010c 19       		.uleb128 0x19
 2067 010d 49       		.uleb128 0x49
 2068 010e 13       		.uleb128 0x13
 2069 010f 11       		.uleb128 0x11
 2070 0110 01       		.uleb128 0x1
 2071 0111 12       		.uleb128 0x12
 2072 0112 06       		.uleb128 0x6
 2073 0113 40       		.uleb128 0x40
 2074 0114 18       		.uleb128 0x18
 2075 0115 9742     		.uleb128 0x2117
 2076 0117 19       		.uleb128 0x19
 2077 0118 01       		.uleb128 0x1
 2078 0119 13       		.uleb128 0x13
 2079 011a 00       		.byte	0
 2080 011b 00       		.byte	0
 2081 011c 16       		.uleb128 0x16
 2082 011d 05       		.uleb128 0x5
 2083 011e 00       		.byte	0
 2084 011f 03       		.uleb128 0x3
 2085 0120 0E       		.uleb128 0xe
 2086 0121 3A       		.uleb128 0x3a
 2087 0122 0B       		.uleb128 0xb
 2088 0123 3B       		.uleb128 0x3b
 2089 0124 0B       		.uleb128 0xb
 2090 0125 49       		.uleb128 0x49
 2091 0126 13       		.uleb128 0x13
 2092 0127 02       		.uleb128 0x2
 2093 0128 17       		.uleb128 0x17
 2094 0129 00       		.byte	0
 2095 012a 00       		.byte	0
 2096 012b 17       		.uleb128 0x17
ARM GAS  /var/folders/qh/xwg3v3kj02qbxczjpdb8lzfr0000gn/T//cccW2fsI.s 			page 38


 2097 012c 34       		.uleb128 0x34
 2098 012d 00       		.byte	0
 2099 012e 03       		.uleb128 0x3
 2100 012f 0E       		.uleb128 0xe
 2101 0130 3A       		.uleb128 0x3a
 2102 0131 0B       		.uleb128 0xb
 2103 0132 3B       		.uleb128 0x3b
 2104 0133 0B       		.uleb128 0xb
 2105 0134 49       		.uleb128 0x49
 2106 0135 13       		.uleb128 0x13
 2107 0136 02       		.uleb128 0x2
 2108 0137 17       		.uleb128 0x17
 2109 0138 00       		.byte	0
 2110 0139 00       		.byte	0
 2111 013a 18       		.uleb128 0x18
 2112 013b 34       		.uleb128 0x34
 2113 013c 00       		.byte	0
 2114 013d 03       		.uleb128 0x3
 2115 013e 0E       		.uleb128 0xe
 2116 013f 3A       		.uleb128 0x3a
 2117 0140 0B       		.uleb128 0xb
 2118 0141 3B       		.uleb128 0x3b
 2119 0142 0B       		.uleb128 0xb
 2120 0143 49       		.uleb128 0x49
 2121 0144 13       		.uleb128 0x13
 2122 0145 02       		.uleb128 0x2
 2123 0146 18       		.uleb128 0x18
 2124 0147 00       		.byte	0
 2125 0148 00       		.byte	0
 2126 0149 19       		.uleb128 0x19
 2127 014a 2E       		.uleb128 0x2e
 2128 014b 01       		.byte	0x1
 2129 014c 3F       		.uleb128 0x3f
 2130 014d 19       		.uleb128 0x19
 2131 014e 03       		.uleb128 0x3
 2132 014f 0E       		.uleb128 0xe
 2133 0150 3A       		.uleb128 0x3a
 2134 0151 0B       		.uleb128 0xb
 2135 0152 3B       		.uleb128 0x3b
 2136 0153 05       		.uleb128 0x5
 2137 0154 27       		.uleb128 0x27
 2138 0155 19       		.uleb128 0x19
 2139 0156 49       		.uleb128 0x49
 2140 0157 13       		.uleb128 0x13
 2141 0158 11       		.uleb128 0x11
 2142 0159 01       		.uleb128 0x1
 2143 015a 12       		.uleb128 0x12
 2144 015b 06       		.uleb128 0x6
 2145 015c 40       		.uleb128 0x40
 2146 015d 18       		.uleb128 0x18
 2147 015e 9742     		.uleb128 0x2117
 2148 0160 19       		.uleb128 0x19
 2149 0161 01       		.uleb128 0x1
 2150 0162 13       		.uleb128 0x13
 2151 0163 00       		.byte	0
 2152 0164 00       		.byte	0
 2153 0165 1A       		.uleb128 0x1a
ARM GAS  /var/folders/qh/xwg3v3kj02qbxczjpdb8lzfr0000gn/T//cccW2fsI.s 			page 39


 2154 0166 05       		.uleb128 0x5
 2155 0167 00       		.byte	0
 2156 0168 03       		.uleb128 0x3
 2157 0169 08       		.uleb128 0x8
 2158 016a 3A       		.uleb128 0x3a
 2159 016b 0B       		.uleb128 0xb
 2160 016c 3B       		.uleb128 0x3b
 2161 016d 05       		.uleb128 0x5
 2162 016e 49       		.uleb128 0x49
 2163 016f 13       		.uleb128 0x13
 2164 0170 02       		.uleb128 0x2
 2165 0171 17       		.uleb128 0x17
 2166 0172 00       		.byte	0
 2167 0173 00       		.byte	0
 2168 0174 1B       		.uleb128 0x1b
 2169 0175 05       		.uleb128 0x5
 2170 0176 00       		.byte	0
 2171 0177 03       		.uleb128 0x3
 2172 0178 0E       		.uleb128 0xe
 2173 0179 3A       		.uleb128 0x3a
 2174 017a 0B       		.uleb128 0xb
 2175 017b 3B       		.uleb128 0x3b
 2176 017c 05       		.uleb128 0x5
 2177 017d 49       		.uleb128 0x49
 2178 017e 13       		.uleb128 0x13
 2179 017f 02       		.uleb128 0x2
 2180 0180 17       		.uleb128 0x17
 2181 0181 00       		.byte	0
 2182 0182 00       		.byte	0
 2183 0183 1C       		.uleb128 0x1c
 2184 0184 34       		.uleb128 0x34
 2185 0185 00       		.byte	0
 2186 0186 03       		.uleb128 0x3
 2187 0187 0E       		.uleb128 0xe
 2188 0188 3A       		.uleb128 0x3a
 2189 0189 0B       		.uleb128 0xb
 2190 018a 3B       		.uleb128 0x3b
 2191 018b 05       		.uleb128 0x5
 2192 018c 49       		.uleb128 0x49
 2193 018d 13       		.uleb128 0x13
 2194 018e 02       		.uleb128 0x2
 2195 018f 17       		.uleb128 0x17
 2196 0190 00       		.byte	0
 2197 0191 00       		.byte	0
 2198 0192 1D       		.uleb128 0x1d
 2199 0193 34       		.uleb128 0x34
 2200 0194 00       		.byte	0
 2201 0195 03       		.uleb128 0x3
 2202 0196 0E       		.uleb128 0xe
 2203 0197 3A       		.uleb128 0x3a
 2204 0198 0B       		.uleb128 0xb
 2205 0199 3B       		.uleb128 0x3b
 2206 019a 05       		.uleb128 0x5
 2207 019b 49       		.uleb128 0x49
 2208 019c 13       		.uleb128 0x13
 2209 019d 02       		.uleb128 0x2
 2210 019e 18       		.uleb128 0x18
ARM GAS  /var/folders/qh/xwg3v3kj02qbxczjpdb8lzfr0000gn/T//cccW2fsI.s 			page 40


 2211 019f 00       		.byte	0
 2212 01a0 00       		.byte	0
 2213 01a1 1E       		.uleb128 0x1e
 2214 01a2 2E       		.uleb128 0x2e
 2215 01a3 01       		.byte	0x1
 2216 01a4 3F       		.uleb128 0x3f
 2217 01a5 19       		.uleb128 0x19
 2218 01a6 03       		.uleb128 0x3
 2219 01a7 0E       		.uleb128 0xe
 2220 01a8 3A       		.uleb128 0x3a
 2221 01a9 0B       		.uleb128 0xb
 2222 01aa 3B       		.uleb128 0x3b
 2223 01ab 0B       		.uleb128 0xb
 2224 01ac 27       		.uleb128 0x27
 2225 01ad 19       		.uleb128 0x19
 2226 01ae 3C       		.uleb128 0x3c
 2227 01af 19       		.uleb128 0x19
 2228 01b0 01       		.uleb128 0x1
 2229 01b1 13       		.uleb128 0x13
 2230 01b2 00       		.byte	0
 2231 01b3 00       		.byte	0
 2232 01b4 1F       		.uleb128 0x1f
 2233 01b5 05       		.uleb128 0x5
 2234 01b6 00       		.byte	0
 2235 01b7 49       		.uleb128 0x49
 2236 01b8 13       		.uleb128 0x13
 2237 01b9 00       		.byte	0
 2238 01ba 00       		.byte	0
 2239 01bb 20       		.uleb128 0x20
 2240 01bc 2E       		.uleb128 0x2e
 2241 01bd 00       		.byte	0
 2242 01be 3F       		.uleb128 0x3f
 2243 01bf 19       		.uleb128 0x19
 2244 01c0 03       		.uleb128 0x3
 2245 01c1 0E       		.uleb128 0xe
 2246 01c2 3A       		.uleb128 0x3a
 2247 01c3 0B       		.uleb128 0xb
 2248 01c4 3B       		.uleb128 0x3b
 2249 01c5 0B       		.uleb128 0xb
 2250 01c6 27       		.uleb128 0x27
 2251 01c7 19       		.uleb128 0x19
 2252 01c8 3C       		.uleb128 0x3c
 2253 01c9 19       		.uleb128 0x19
 2254 01ca 00       		.byte	0
 2255 01cb 00       		.byte	0
 2256 01cc 21       		.uleb128 0x21
 2257 01cd 2E       		.uleb128 0x2e
 2258 01ce 01       		.byte	0x1
 2259 01cf 3F       		.uleb128 0x3f
 2260 01d0 19       		.uleb128 0x19
 2261 01d1 03       		.uleb128 0x3
 2262 01d2 0E       		.uleb128 0xe
 2263 01d3 3A       		.uleb128 0x3a
 2264 01d4 0B       		.uleb128 0xb
 2265 01d5 3B       		.uleb128 0x3b
 2266 01d6 0B       		.uleb128 0xb
 2267 01d7 27       		.uleb128 0x27
ARM GAS  /var/folders/qh/xwg3v3kj02qbxczjpdb8lzfr0000gn/T//cccW2fsI.s 			page 41


 2268 01d8 19       		.uleb128 0x19
 2269 01d9 49       		.uleb128 0x49
 2270 01da 13       		.uleb128 0x13
 2271 01db 3C       		.uleb128 0x3c
 2272 01dc 19       		.uleb128 0x19
 2273 01dd 01       		.uleb128 0x1
 2274 01de 13       		.uleb128 0x13
 2275 01df 00       		.byte	0
 2276 01e0 00       		.byte	0
 2277 01e1 22       		.uleb128 0x22
 2278 01e2 2E       		.uleb128 0x2e
 2279 01e3 01       		.byte	0x1
 2280 01e4 3F       		.uleb128 0x3f
 2281 01e5 19       		.uleb128 0x19
 2282 01e6 03       		.uleb128 0x3
 2283 01e7 0E       		.uleb128 0xe
 2284 01e8 3A       		.uleb128 0x3a
 2285 01e9 0B       		.uleb128 0xb
 2286 01ea 3B       		.uleb128 0x3b
 2287 01eb 0B       		.uleb128 0xb
 2288 01ec 27       		.uleb128 0x27
 2289 01ed 19       		.uleb128 0x19
 2290 01ee 3C       		.uleb128 0x3c
 2291 01ef 19       		.uleb128 0x19
 2292 01f0 00       		.byte	0
 2293 01f1 00       		.byte	0
 2294 01f2 00       		.byte	0
 2295              		.section	.debug_loc,"",%progbits
 2296              	.Ldebug_loc0:
 2297              	.LLST0:
 2298 0000 00000000 		.4byte	.LVL0
 2299 0004 16000000 		.4byte	.LVL3
 2300 0008 0100     		.2byte	0x1
 2301 000a 50       		.byte	0x50
 2302 000b 16000000 		.4byte	.LVL3
 2303 000f 24000000 		.4byte	.LVL6
 2304 0013 0100     		.2byte	0x1
 2305 0015 54       		.byte	0x54
 2306 0016 24000000 		.4byte	.LVL6
 2307 001a 26000000 		.4byte	.LFE7
 2308 001e 0400     		.2byte	0x4
 2309 0020 F3       		.byte	0xf3
 2310 0021 01       		.uleb128 0x1
 2311 0022 50       		.byte	0x50
 2312 0023 9F       		.byte	0x9f
 2313 0024 00000000 		.4byte	0
 2314 0028 00000000 		.4byte	0
 2315              	.LLST1:
 2316 002c 00000000 		.4byte	.LVL0
 2317 0030 0E000000 		.4byte	.LVL1
 2318 0034 0100     		.2byte	0x1
 2319 0036 51       		.byte	0x51
 2320 0037 0E000000 		.4byte	.LVL1
 2321 003b 10000000 		.4byte	.LVL2
 2322 003f 0100     		.2byte	0x1
 2323 0041 53       		.byte	0x53
 2324 0042 10000000 		.4byte	.LVL2
ARM GAS  /var/folders/qh/xwg3v3kj02qbxczjpdb8lzfr0000gn/T//cccW2fsI.s 			page 42


 2325 0046 16000000 		.4byte	.LVL3
 2326 004a 0200     		.2byte	0x2
 2327 004c 70       		.byte	0x70
 2328 004d 00       		.sleb128 0
 2329 004e 16000000 		.4byte	.LVL3
 2330 0052 19000000 		.4byte	.LVL4-1
 2331 0056 0200     		.2byte	0x2
 2332 0058 74       		.byte	0x74
 2333 0059 00       		.sleb128 0
 2334 005a 19000000 		.4byte	.LVL4-1
 2335 005e 26000000 		.4byte	.LFE7
 2336 0062 0400     		.2byte	0x4
 2337 0064 F3       		.byte	0xf3
 2338 0065 01       		.uleb128 0x1
 2339 0066 51       		.byte	0x51
 2340 0067 9F       		.byte	0x9f
 2341 0068 00000000 		.4byte	0
 2342 006c 00000000 		.4byte	0
 2343              	.LLST2:
 2344 0070 00000000 		.4byte	.LVL0
 2345 0074 19000000 		.4byte	.LVL4-1
 2346 0078 0100     		.2byte	0x1
 2347 007a 52       		.byte	0x52
 2348 007b 19000000 		.4byte	.LVL4-1
 2349 007f 26000000 		.4byte	.LFE7
 2350 0083 0400     		.2byte	0x4
 2351 0085 F3       		.byte	0xf3
 2352 0086 01       		.uleb128 0x1
 2353 0087 52       		.byte	0x52
 2354 0088 9F       		.byte	0x9f
 2355 0089 00000000 		.4byte	0
 2356 008d 00000000 		.4byte	0
 2357              	.LLST3:
 2358 0091 00000000 		.4byte	.LVL7
 2359 0095 12000000 		.4byte	.LVL8
 2360 0099 0100     		.2byte	0x1
 2361 009b 50       		.byte	0x50
 2362 009c 12000000 		.4byte	.LVL8
 2363 00a0 28000000 		.4byte	.LVL12
 2364 00a4 0100     		.2byte	0x1
 2365 00a6 54       		.byte	0x54
 2366 00a7 28000000 		.4byte	.LVL12
 2367 00ab 2A000000 		.4byte	.LFE8
 2368 00af 0400     		.2byte	0x4
 2369 00b1 F3       		.byte	0xf3
 2370 00b2 01       		.uleb128 0x1
 2371 00b3 50       		.byte	0x50
 2372 00b4 9F       		.byte	0x9f
 2373 00b5 00000000 		.4byte	0
 2374 00b9 00000000 		.4byte	0
 2375              	.LLST4:
 2376 00bd 00000000 		.4byte	.LVL13
 2377 00c1 08000000 		.4byte	.LVL14
 2378 00c5 0100     		.2byte	0x1
 2379 00c7 50       		.byte	0x50
 2380 00c8 08000000 		.4byte	.LVL14
 2381 00cc 2E000000 		.4byte	.LVL21
ARM GAS  /var/folders/qh/xwg3v3kj02qbxczjpdb8lzfr0000gn/T//cccW2fsI.s 			page 43


 2382 00d0 0100     		.2byte	0x1
 2383 00d2 54       		.byte	0x54
 2384 00d3 2E000000 		.4byte	.LVL21
 2385 00d7 30000000 		.4byte	.LVL24
 2386 00db 0400     		.2byte	0x4
 2387 00dd F3       		.byte	0xf3
 2388 00de 01       		.uleb128 0x1
 2389 00df 50       		.byte	0x50
 2390 00e0 9F       		.byte	0x9f
 2391 00e1 30000000 		.4byte	.LVL24
 2392 00e5 36000000 		.4byte	.LFE10
 2393 00e9 0100     		.2byte	0x1
 2394 00eb 54       		.byte	0x54
 2395 00ec 00000000 		.4byte	0
 2396 00f0 00000000 		.4byte	0
 2397              	.LLST5:
 2398 00f4 00000000 		.4byte	.LVL13
 2399 00f8 0A000000 		.4byte	.LVL15
 2400 00fc 0100     		.2byte	0x1
 2401 00fe 51       		.byte	0x51
 2402 00ff 0A000000 		.4byte	.LVL15
 2403 0103 2E000000 		.4byte	.LVL23
 2404 0107 0100     		.2byte	0x1
 2405 0109 56       		.byte	0x56
 2406 010a 2E000000 		.4byte	.LVL23
 2407 010e 30000000 		.4byte	.LVL24
 2408 0112 0400     		.2byte	0x4
 2409 0114 F3       		.byte	0xf3
 2410 0115 01       		.uleb128 0x1
 2411 0116 51       		.byte	0x51
 2412 0117 9F       		.byte	0x9f
 2413 0118 30000000 		.4byte	.LVL24
 2414 011c 36000000 		.4byte	.LFE10
 2415 0120 0100     		.2byte	0x1
 2416 0122 56       		.byte	0x56
 2417 0123 00000000 		.4byte	0
 2418 0127 00000000 		.4byte	0
 2419              	.LLST6:
 2420 012b 00000000 		.4byte	.LVL13
 2421 012f 0D000000 		.4byte	.LVL16-1
 2422 0133 0100     		.2byte	0x1
 2423 0135 52       		.byte	0x52
 2424 0136 0D000000 		.4byte	.LVL16-1
 2425 013a 36000000 		.4byte	.LFE10
 2426 013e 0400     		.2byte	0x4
 2427 0140 F3       		.byte	0xf3
 2428 0141 01       		.uleb128 0x1
 2429 0142 52       		.byte	0x52
 2430 0143 9F       		.byte	0x9f
 2431 0144 00000000 		.4byte	0
 2432 0148 00000000 		.4byte	0
 2433              	.LLST7:
 2434 014c 10000000 		.4byte	.LVL17
 2435 0150 22000000 		.4byte	.LVL18
 2436 0154 0100     		.2byte	0x1
 2437 0156 50       		.byte	0x50
 2438 0157 22000000 		.4byte	.LVL18
ARM GAS  /var/folders/qh/xwg3v3kj02qbxczjpdb8lzfr0000gn/T//cccW2fsI.s 			page 44


 2439 015b 2E000000 		.4byte	.LVL22
 2440 015f 0100     		.2byte	0x1
 2441 0161 55       		.byte	0x55
 2442 0162 2E000000 		.4byte	.LVL22
 2443 0166 36000000 		.4byte	.LFE10
 2444 016a 0100     		.2byte	0x1
 2445 016c 50       		.byte	0x50
 2446 016d 00000000 		.4byte	0
 2447 0171 00000000 		.4byte	0
 2448              	.LLST8:
 2449 0175 00000000 		.4byte	.LVL25
 2450 0179 07000000 		.4byte	.LVL26-1
 2451 017d 0100     		.2byte	0x1
 2452 017f 50       		.byte	0x50
 2453 0180 07000000 		.4byte	.LVL26-1
 2454 0184 0C000000 		.4byte	.LFE9
 2455 0188 0400     		.2byte	0x4
 2456 018a F3       		.byte	0xf3
 2457 018b 01       		.uleb128 0x1
 2458 018c 50       		.byte	0x50
 2459 018d 9F       		.byte	0x9f
 2460 018e 00000000 		.4byte	0
 2461 0192 00000000 		.4byte	0
 2462              	.LLST9:
 2463 0196 00000000 		.4byte	.LVL25
 2464 019a 07000000 		.4byte	.LVL26-1
 2465 019e 0100     		.2byte	0x1
 2466 01a0 51       		.byte	0x51
 2467 01a1 07000000 		.4byte	.LVL26-1
 2468 01a5 0C000000 		.4byte	.LFE9
 2469 01a9 0400     		.2byte	0x4
 2470 01ab F3       		.byte	0xf3
 2471 01ac 01       		.uleb128 0x1
 2472 01ad 51       		.byte	0x51
 2473 01ae 9F       		.byte	0x9f
 2474 01af 00000000 		.4byte	0
 2475 01b3 00000000 		.4byte	0
 2476              	.LLST10:
 2477 01b7 00000000 		.4byte	.LVL25
 2478 01bb 07000000 		.4byte	.LVL26-1
 2479 01bf 0100     		.2byte	0x1
 2480 01c1 52       		.byte	0x52
 2481 01c2 07000000 		.4byte	.LVL26-1
 2482 01c6 0C000000 		.4byte	.LFE9
 2483 01ca 0400     		.2byte	0x4
 2484 01cc F3       		.byte	0xf3
 2485 01cd 01       		.uleb128 0x1
 2486 01ce 52       		.byte	0x52
 2487 01cf 9F       		.byte	0x9f
 2488 01d0 00000000 		.4byte	0
 2489 01d4 00000000 		.4byte	0
 2490              	.LLST11:
 2491 01d8 00000000 		.4byte	.LVL27
 2492 01dc 1C000000 		.4byte	.LVL28
 2493 01e0 0100     		.2byte	0x1
 2494 01e2 50       		.byte	0x50
 2495 01e3 1C000000 		.4byte	.LVL28
ARM GAS  /var/folders/qh/xwg3v3kj02qbxczjpdb8lzfr0000gn/T//cccW2fsI.s 			page 45


 2496 01e7 1F000000 		.4byte	.LVL29-1
 2497 01eb 0300     		.2byte	0x3
 2498 01ed 70       		.byte	0x70
 2499 01ee 70       		.sleb128 -16
 2500 01ef 9F       		.byte	0x9f
 2501 01f0 1F000000 		.4byte	.LVL29-1
 2502 01f4 24000000 		.4byte	.LVL30
 2503 01f8 0400     		.2byte	0x4
 2504 01fa F3       		.byte	0xf3
 2505 01fb 01       		.uleb128 0x1
 2506 01fc 50       		.byte	0x50
 2507 01fd 9F       		.byte	0x9f
 2508 01fe 24000000 		.4byte	.LVL30
 2509 0202 2C000000 		.4byte	.LVL31
 2510 0206 0100     		.2byte	0x1
 2511 0208 50       		.byte	0x50
 2512 0209 2C000000 		.4byte	.LVL31
 2513 020d 30000000 		.4byte	.LFE11
 2514 0211 0400     		.2byte	0x4
 2515 0213 F3       		.byte	0xf3
 2516 0214 01       		.uleb128 0x1
 2517 0215 50       		.byte	0x50
 2518 0216 9F       		.byte	0x9f
 2519 0217 00000000 		.4byte	0
 2520 021b 00000000 		.4byte	0
 2521              	.LLST12:
 2522 021f 00000000 		.4byte	.LVL27
 2523 0223 1F000000 		.4byte	.LVL29-1
 2524 0227 0100     		.2byte	0x1
 2525 0229 51       		.byte	0x51
 2526 022a 1F000000 		.4byte	.LVL29-1
 2527 022e 24000000 		.4byte	.LVL30
 2528 0232 0400     		.2byte	0x4
 2529 0234 F3       		.byte	0xf3
 2530 0235 01       		.uleb128 0x1
 2531 0236 51       		.byte	0x51
 2532 0237 9F       		.byte	0x9f
 2533 0238 24000000 		.4byte	.LVL30
 2534 023c 30000000 		.4byte	.LFE11
 2535 0240 0100     		.2byte	0x1
 2536 0242 51       		.byte	0x51
 2537 0243 00000000 		.4byte	0
 2538 0247 00000000 		.4byte	0
 2539              	.LLST13:
 2540 024b 00000000 		.4byte	.LVL32
 2541 024f 08000000 		.4byte	.LVL33
 2542 0253 0100     		.2byte	0x1
 2543 0255 50       		.byte	0x50
 2544 0256 08000000 		.4byte	.LVL33
 2545 025a 2E000000 		.4byte	.LVL40
 2546 025e 0100     		.2byte	0x1
 2547 0260 54       		.byte	0x54
 2548 0261 2E000000 		.4byte	.LVL40
 2549 0265 30000000 		.4byte	.LVL43
 2550 0269 0400     		.2byte	0x4
 2551 026b F3       		.byte	0xf3
 2552 026c 01       		.uleb128 0x1
ARM GAS  /var/folders/qh/xwg3v3kj02qbxczjpdb8lzfr0000gn/T//cccW2fsI.s 			page 46


 2553 026d 50       		.byte	0x50
 2554 026e 9F       		.byte	0x9f
 2555 026f 30000000 		.4byte	.LVL43
 2556 0273 38000000 		.4byte	.LFE13
 2557 0277 0100     		.2byte	0x1
 2558 0279 54       		.byte	0x54
 2559 027a 00000000 		.4byte	0
 2560 027e 00000000 		.4byte	0
 2561              	.LLST14:
 2562 0282 00000000 		.4byte	.LVL32
 2563 0286 0A000000 		.4byte	.LVL34
 2564 028a 0100     		.2byte	0x1
 2565 028c 51       		.byte	0x51
 2566 028d 0A000000 		.4byte	.LVL34
 2567 0291 2E000000 		.4byte	.LVL42
 2568 0295 0100     		.2byte	0x1
 2569 0297 56       		.byte	0x56
 2570 0298 2E000000 		.4byte	.LVL42
 2571 029c 30000000 		.4byte	.LVL43
 2572 02a0 0400     		.2byte	0x4
 2573 02a2 F3       		.byte	0xf3
 2574 02a3 01       		.uleb128 0x1
 2575 02a4 51       		.byte	0x51
 2576 02a5 9F       		.byte	0x9f
 2577 02a6 30000000 		.4byte	.LVL43
 2578 02aa 38000000 		.4byte	.LFE13
 2579 02ae 0100     		.2byte	0x1
 2580 02b0 56       		.byte	0x56
 2581 02b1 00000000 		.4byte	0
 2582 02b5 00000000 		.4byte	0
 2583              	.LLST15:
 2584 02b9 00000000 		.4byte	.LVL32
 2585 02bd 0D000000 		.4byte	.LVL35-1
 2586 02c1 0100     		.2byte	0x1
 2587 02c3 52       		.byte	0x52
 2588 02c4 0D000000 		.4byte	.LVL35-1
 2589 02c8 38000000 		.4byte	.LFE13
 2590 02cc 0400     		.2byte	0x4
 2591 02ce F3       		.byte	0xf3
 2592 02cf 01       		.uleb128 0x1
 2593 02d0 52       		.byte	0x52
 2594 02d1 9F       		.byte	0x9f
 2595 02d2 00000000 		.4byte	0
 2596 02d6 00000000 		.4byte	0
 2597              	.LLST16:
 2598 02da 10000000 		.4byte	.LVL36
 2599 02de 20000000 		.4byte	.LVL37
 2600 02e2 0100     		.2byte	0x1
 2601 02e4 50       		.byte	0x50
 2602 02e5 20000000 		.4byte	.LVL37
 2603 02e9 2E000000 		.4byte	.LVL41
 2604 02ed 0100     		.2byte	0x1
 2605 02ef 55       		.byte	0x55
 2606 02f0 2E000000 		.4byte	.LVL41
 2607 02f4 38000000 		.4byte	.LFE13
 2608 02f8 0100     		.2byte	0x1
 2609 02fa 50       		.byte	0x50
ARM GAS  /var/folders/qh/xwg3v3kj02qbxczjpdb8lzfr0000gn/T//cccW2fsI.s 			page 47


 2610 02fb 00000000 		.4byte	0
 2611 02ff 00000000 		.4byte	0
 2612              	.LLST17:
 2613 0303 00000000 		.4byte	.LVL44
 2614 0307 07000000 		.4byte	.LVL45-1
 2615 030b 0100     		.2byte	0x1
 2616 030d 50       		.byte	0x50
 2617 030e 07000000 		.4byte	.LVL45-1
 2618 0312 0C000000 		.4byte	.LFE12
 2619 0316 0400     		.2byte	0x4
 2620 0318 F3       		.byte	0xf3
 2621 0319 01       		.uleb128 0x1
 2622 031a 50       		.byte	0x50
 2623 031b 9F       		.byte	0x9f
 2624 031c 00000000 		.4byte	0
 2625 0320 00000000 		.4byte	0
 2626              	.LLST18:
 2627 0324 00000000 		.4byte	.LVL44
 2628 0328 07000000 		.4byte	.LVL45-1
 2629 032c 0100     		.2byte	0x1
 2630 032e 51       		.byte	0x51
 2631 032f 07000000 		.4byte	.LVL45-1
 2632 0333 0C000000 		.4byte	.LFE12
 2633 0337 0400     		.2byte	0x4
 2634 0339 F3       		.byte	0xf3
 2635 033a 01       		.uleb128 0x1
 2636 033b 51       		.byte	0x51
 2637 033c 9F       		.byte	0x9f
 2638 033d 00000000 		.4byte	0
 2639 0341 00000000 		.4byte	0
 2640              	.LLST19:
 2641 0345 00000000 		.4byte	.LVL44
 2642 0349 07000000 		.4byte	.LVL45-1
 2643 034d 0100     		.2byte	0x1
 2644 034f 52       		.byte	0x52
 2645 0350 07000000 		.4byte	.LVL45-1
 2646 0354 0C000000 		.4byte	.LFE12
 2647 0358 0400     		.2byte	0x4
 2648 035a F3       		.byte	0xf3
 2649 035b 01       		.uleb128 0x1
 2650 035c 52       		.byte	0x52
 2651 035d 9F       		.byte	0x9f
 2652 035e 00000000 		.4byte	0
 2653 0362 00000000 		.4byte	0
 2654              	.LLST20:
 2655 0366 00000000 		.4byte	.LVL46
 2656 036a 1A000000 		.4byte	.LVL47
 2657 036e 0100     		.2byte	0x1
 2658 0370 50       		.byte	0x50
 2659 0371 1A000000 		.4byte	.LVL47
 2660 0375 1F000000 		.4byte	.LVL48-1
 2661 0379 0300     		.2byte	0x3
 2662 037b 70       		.byte	0x70
 2663 037c 70       		.sleb128 -16
 2664 037d 9F       		.byte	0x9f
 2665 037e 1F000000 		.4byte	.LVL48-1
 2666 0382 24000000 		.4byte	.LVL49
ARM GAS  /var/folders/qh/xwg3v3kj02qbxczjpdb8lzfr0000gn/T//cccW2fsI.s 			page 48


 2667 0386 0400     		.2byte	0x4
 2668 0388 F3       		.byte	0xf3
 2669 0389 01       		.uleb128 0x1
 2670 038a 50       		.byte	0x50
 2671 038b 9F       		.byte	0x9f
 2672 038c 24000000 		.4byte	.LVL49
 2673 0390 2E000000 		.4byte	.LVL50
 2674 0394 0100     		.2byte	0x1
 2675 0396 50       		.byte	0x50
 2676 0397 2E000000 		.4byte	.LVL50
 2677 039b 32000000 		.4byte	.LFE14
 2678 039f 0400     		.2byte	0x4
 2679 03a1 F3       		.byte	0xf3
 2680 03a2 01       		.uleb128 0x1
 2681 03a3 50       		.byte	0x50
 2682 03a4 9F       		.byte	0x9f
 2683 03a5 00000000 		.4byte	0
 2684 03a9 00000000 		.4byte	0
 2685              	.LLST21:
 2686 03ad 00000000 		.4byte	.LVL46
 2687 03b1 1F000000 		.4byte	.LVL48-1
 2688 03b5 0100     		.2byte	0x1
 2689 03b7 51       		.byte	0x51
 2690 03b8 1F000000 		.4byte	.LVL48-1
 2691 03bc 24000000 		.4byte	.LVL49
 2692 03c0 0400     		.2byte	0x4
 2693 03c2 F3       		.byte	0xf3
 2694 03c3 01       		.uleb128 0x1
 2695 03c4 51       		.byte	0x51
 2696 03c5 9F       		.byte	0x9f
 2697 03c6 24000000 		.4byte	.LVL49
 2698 03ca 32000000 		.4byte	.LFE14
 2699 03ce 0100     		.2byte	0x1
 2700 03d0 51       		.byte	0x51
 2701 03d1 00000000 		.4byte	0
 2702 03d5 00000000 		.4byte	0
 2703              	.LLST22:
 2704 03d9 00000000 		.4byte	.LVL51
 2705 03dd 08000000 		.4byte	.LVL52
 2706 03e1 0100     		.2byte	0x1
 2707 03e3 50       		.byte	0x50
 2708 03e4 08000000 		.4byte	.LVL52
 2709 03e8 30000000 		.4byte	.LVL59
 2710 03ec 0100     		.2byte	0x1
 2711 03ee 54       		.byte	0x54
 2712 03ef 30000000 		.4byte	.LVL59
 2713 03f3 32000000 		.4byte	.LVL62
 2714 03f7 0400     		.2byte	0x4
 2715 03f9 F3       		.byte	0xf3
 2716 03fa 01       		.uleb128 0x1
 2717 03fb 50       		.byte	0x50
 2718 03fc 9F       		.byte	0x9f
 2719 03fd 32000000 		.4byte	.LVL62
 2720 0401 38000000 		.4byte	.LFE16
 2721 0405 0100     		.2byte	0x1
 2722 0407 54       		.byte	0x54
 2723 0408 00000000 		.4byte	0
ARM GAS  /var/folders/qh/xwg3v3kj02qbxczjpdb8lzfr0000gn/T//cccW2fsI.s 			page 49


 2724 040c 00000000 		.4byte	0
 2725              	.LLST23:
 2726 0410 00000000 		.4byte	.LVL51
 2727 0414 0A000000 		.4byte	.LVL53
 2728 0418 0100     		.2byte	0x1
 2729 041a 51       		.byte	0x51
 2730 041b 0A000000 		.4byte	.LVL53
 2731 041f 30000000 		.4byte	.LVL61
 2732 0423 0100     		.2byte	0x1
 2733 0425 56       		.byte	0x56
 2734 0426 30000000 		.4byte	.LVL61
 2735 042a 32000000 		.4byte	.LVL62
 2736 042e 0400     		.2byte	0x4
 2737 0430 F3       		.byte	0xf3
 2738 0431 01       		.uleb128 0x1
 2739 0432 51       		.byte	0x51
 2740 0433 9F       		.byte	0x9f
 2741 0434 32000000 		.4byte	.LVL62
 2742 0438 38000000 		.4byte	.LFE16
 2743 043c 0100     		.2byte	0x1
 2744 043e 56       		.byte	0x56
 2745 043f 00000000 		.4byte	0
 2746 0443 00000000 		.4byte	0
 2747              	.LLST24:
 2748 0447 00000000 		.4byte	.LVL51
 2749 044b 0D000000 		.4byte	.LVL54-1
 2750 044f 0100     		.2byte	0x1
 2751 0451 52       		.byte	0x52
 2752 0452 0D000000 		.4byte	.LVL54-1
 2753 0456 38000000 		.4byte	.LFE16
 2754 045a 0400     		.2byte	0x4
 2755 045c F3       		.byte	0xf3
 2756 045d 01       		.uleb128 0x1
 2757 045e 52       		.byte	0x52
 2758 045f 9F       		.byte	0x9f
 2759 0460 00000000 		.4byte	0
 2760 0464 00000000 		.4byte	0
 2761              	.LLST25:
 2762 0468 10000000 		.4byte	.LVL55
 2763 046c 24000000 		.4byte	.LVL56
 2764 0470 0100     		.2byte	0x1
 2765 0472 50       		.byte	0x50
 2766 0473 24000000 		.4byte	.LVL56
 2767 0477 30000000 		.4byte	.LVL60
 2768 047b 0100     		.2byte	0x1
 2769 047d 55       		.byte	0x55
 2770 047e 30000000 		.4byte	.LVL60
 2771 0482 38000000 		.4byte	.LFE16
 2772 0486 0100     		.2byte	0x1
 2773 0488 50       		.byte	0x50
 2774 0489 00000000 		.4byte	0
 2775 048d 00000000 		.4byte	0
 2776              	.LLST26:
 2777 0491 00000000 		.4byte	.LVL63
 2778 0495 07000000 		.4byte	.LVL64-1
 2779 0499 0100     		.2byte	0x1
 2780 049b 50       		.byte	0x50
ARM GAS  /var/folders/qh/xwg3v3kj02qbxczjpdb8lzfr0000gn/T//cccW2fsI.s 			page 50


 2781 049c 07000000 		.4byte	.LVL64-1
 2782 04a0 0C000000 		.4byte	.LFE15
 2783 04a4 0400     		.2byte	0x4
 2784 04a6 F3       		.byte	0xf3
 2785 04a7 01       		.uleb128 0x1
 2786 04a8 50       		.byte	0x50
 2787 04a9 9F       		.byte	0x9f
 2788 04aa 00000000 		.4byte	0
 2789 04ae 00000000 		.4byte	0
 2790              	.LLST27:
 2791 04b2 00000000 		.4byte	.LVL63
 2792 04b6 07000000 		.4byte	.LVL64-1
 2793 04ba 0100     		.2byte	0x1
 2794 04bc 51       		.byte	0x51
 2795 04bd 07000000 		.4byte	.LVL64-1
 2796 04c1 0C000000 		.4byte	.LFE15
 2797 04c5 0400     		.2byte	0x4
 2798 04c7 F3       		.byte	0xf3
 2799 04c8 01       		.uleb128 0x1
 2800 04c9 51       		.byte	0x51
 2801 04ca 9F       		.byte	0x9f
 2802 04cb 00000000 		.4byte	0
 2803 04cf 00000000 		.4byte	0
 2804              	.LLST28:
 2805 04d3 00000000 		.4byte	.LVL63
 2806 04d7 07000000 		.4byte	.LVL64-1
 2807 04db 0100     		.2byte	0x1
 2808 04dd 52       		.byte	0x52
 2809 04de 07000000 		.4byte	.LVL64-1
 2810 04e2 0C000000 		.4byte	.LFE15
 2811 04e6 0400     		.2byte	0x4
 2812 04e8 F3       		.byte	0xf3
 2813 04e9 01       		.uleb128 0x1
 2814 04ea 52       		.byte	0x52
 2815 04eb 9F       		.byte	0x9f
 2816 04ec 00000000 		.4byte	0
 2817 04f0 00000000 		.4byte	0
 2818              	.LLST29:
 2819 04f4 00000000 		.4byte	.LVL65
 2820 04f8 1E000000 		.4byte	.LVL66
 2821 04fc 0100     		.2byte	0x1
 2822 04fe 50       		.byte	0x50
 2823 04ff 1E000000 		.4byte	.LVL66
 2824 0503 21000000 		.4byte	.LVL67-1
 2825 0507 0300     		.2byte	0x3
 2826 0509 70       		.byte	0x70
 2827 050a 64       		.sleb128 -28
 2828 050b 9F       		.byte	0x9f
 2829 050c 21000000 		.4byte	.LVL67-1
 2830 0510 26000000 		.4byte	.LVL68
 2831 0514 0400     		.2byte	0x4
 2832 0516 F3       		.byte	0xf3
 2833 0517 01       		.uleb128 0x1
 2834 0518 50       		.byte	0x50
 2835 0519 9F       		.byte	0x9f
 2836 051a 26000000 		.4byte	.LVL68
 2837 051e 2E000000 		.4byte	.LVL69
ARM GAS  /var/folders/qh/xwg3v3kj02qbxczjpdb8lzfr0000gn/T//cccW2fsI.s 			page 51


 2838 0522 0100     		.2byte	0x1
 2839 0524 50       		.byte	0x50
 2840 0525 2E000000 		.4byte	.LVL69
 2841 0529 32000000 		.4byte	.LFE17
 2842 052d 0400     		.2byte	0x4
 2843 052f F3       		.byte	0xf3
 2844 0530 01       		.uleb128 0x1
 2845 0531 50       		.byte	0x50
 2846 0532 9F       		.byte	0x9f
 2847 0533 00000000 		.4byte	0
 2848 0537 00000000 		.4byte	0
 2849              	.LLST30:
 2850 053b 00000000 		.4byte	.LVL65
 2851 053f 21000000 		.4byte	.LVL67-1
 2852 0543 0100     		.2byte	0x1
 2853 0545 51       		.byte	0x51
 2854 0546 21000000 		.4byte	.LVL67-1
 2855 054a 26000000 		.4byte	.LVL68
 2856 054e 0400     		.2byte	0x4
 2857 0550 F3       		.byte	0xf3
 2858 0551 01       		.uleb128 0x1
 2859 0552 51       		.byte	0x51
 2860 0553 9F       		.byte	0x9f
 2861 0554 26000000 		.4byte	.LVL68
 2862 0558 32000000 		.4byte	.LFE17
 2863 055c 0100     		.2byte	0x1
 2864 055e 51       		.byte	0x51
 2865 055f 00000000 		.4byte	0
 2866 0563 00000000 		.4byte	0
 2867              		.section	.debug_aranges,"",%progbits
 2868 0000 6C000000 		.4byte	0x6c
 2869 0004 0200     		.2byte	0x2
 2870 0006 00000000 		.4byte	.Ldebug_info0
 2871 000a 04       		.byte	0x4
 2872 000b 00       		.byte	0
 2873 000c 0000     		.2byte	0
 2874 000e 0000     		.2byte	0
 2875 0010 00000000 		.4byte	.LFB7
 2876 0014 26000000 		.4byte	.LFE7-.LFB7
 2877 0018 00000000 		.4byte	.LFB8
 2878 001c 2A000000 		.4byte	.LFE8-.LFB8
 2879 0020 00000000 		.4byte	.LFB10
 2880 0024 36000000 		.4byte	.LFE10-.LFB10
 2881 0028 00000000 		.4byte	.LFB9
 2882 002c 0C000000 		.4byte	.LFE9-.LFB9
 2883 0030 00000000 		.4byte	.LFB11
 2884 0034 30000000 		.4byte	.LFE11-.LFB11
 2885 0038 00000000 		.4byte	.LFB13
 2886 003c 38000000 		.4byte	.LFE13-.LFB13
 2887 0040 00000000 		.4byte	.LFB12
 2888 0044 0C000000 		.4byte	.LFE12-.LFB12
 2889 0048 00000000 		.4byte	.LFB14
 2890 004c 32000000 		.4byte	.LFE14-.LFB14
 2891 0050 00000000 		.4byte	.LFB16
 2892 0054 38000000 		.4byte	.LFE16-.LFB16
 2893 0058 00000000 		.4byte	.LFB15
 2894 005c 0C000000 		.4byte	.LFE15-.LFB15
ARM GAS  /var/folders/qh/xwg3v3kj02qbxczjpdb8lzfr0000gn/T//cccW2fsI.s 			page 52


 2895 0060 00000000 		.4byte	.LFB17
 2896 0064 32000000 		.4byte	.LFE17-.LFB17
 2897 0068 00000000 		.4byte	0
 2898 006c 00000000 		.4byte	0
 2899              		.section	.debug_ranges,"",%progbits
 2900              	.Ldebug_ranges0:
 2901 0000 00000000 		.4byte	.LFB7
 2902 0004 26000000 		.4byte	.LFE7
 2903 0008 00000000 		.4byte	.LFB8
 2904 000c 2A000000 		.4byte	.LFE8
 2905 0010 00000000 		.4byte	.LFB10
 2906 0014 36000000 		.4byte	.LFE10
 2907 0018 00000000 		.4byte	.LFB9
 2908 001c 0C000000 		.4byte	.LFE9
 2909 0020 00000000 		.4byte	.LFB11
 2910 0024 30000000 		.4byte	.LFE11
 2911 0028 00000000 		.4byte	.LFB13
 2912 002c 38000000 		.4byte	.LFE13
 2913 0030 00000000 		.4byte	.LFB12
 2914 0034 0C000000 		.4byte	.LFE12
 2915 0038 00000000 		.4byte	.LFB14
 2916 003c 32000000 		.4byte	.LFE14
 2917 0040 00000000 		.4byte	.LFB16
 2918 0044 38000000 		.4byte	.LFE16
 2919 0048 00000000 		.4byte	.LFB15
 2920 004c 0C000000 		.4byte	.LFE15
 2921 0050 00000000 		.4byte	.LFB17
 2922 0054 32000000 		.4byte	.LFE17
 2923 0058 00000000 		.4byte	0
 2924 005c 00000000 		.4byte	0
 2925              		.section	.debug_line,"",%progbits
 2926              	.Ldebug_line0:
 2927 0000 31020000 		.section	.debug_str,"MS",%progbits,1
 2927      02002201 
 2927      00000201 
 2927      FB0E0D00 
 2927      01010101 
 2928              	.LASF37:
 2929 0000 705F6D73 		.ascii	"p_msg\000"
 2929      6700
 2930              	.LASF87:
 2931 0006 63685365 		.ascii	"chSemSignalI\000"
 2931      6D536967 
 2931      6E616C49 
 2931      00
 2932              	.LASF62:
 2933 0013 7264796D 		.ascii	"rdymsg\000"
 2933      736700
 2934              	.LASF72:
 2935 001a 63684D42 		.ascii	"chMBPostI\000"
 2935      506F7374 
 2935      4900
 2936              	.LASF70:
 2937 0024 63684D42 		.ascii	"chMBPostS\000"
 2937      506F7374 
 2937      5300
 2938              	.LASF61:
ARM GAS  /var/folders/qh/xwg3v3kj02qbxczjpdb8lzfr0000gn/T//cccW2fsI.s 			page 53


 2939 002e 4D61696C 		.ascii	"Mailbox\000"
 2939      626F7800 
 2940              	.LASF75:
 2941 0036 63684D42 		.ascii	"chMBPostAheadI\000"
 2941      506F7374 
 2941      41686561 
 2941      644900
 2942              	.LASF11:
 2943 0045 6C6F6E67 		.ascii	"long long unsigned int\000"
 2943      206C6F6E 
 2943      6720756E 
 2943      7369676E 
 2943      65642069 
 2944              	.LASF63:
 2945 005c 65786974 		.ascii	"exitcode\000"
 2945      636F6465 
 2945      00
 2946              	.LASF73:
 2947 0065 63684D42 		.ascii	"chMBPostAheadS\000"
 2947      506F7374 
 2947      41686561 
 2947      645300
 2948              	.LASF57:
 2949 0074 6D625F77 		.ascii	"mb_wrptr\000"
 2949      72707472 
 2949      00
 2950              	.LASF25:
 2951 007d 705F7072 		.ascii	"p_prio\000"
 2951      696F00
 2952              	.LASF10:
 2953 0084 6C6F6E67 		.ascii	"long long int\000"
 2953      206C6F6E 
 2953      6720696E 
 2953      7400
 2954              	.LASF1:
 2955 0092 7369676E 		.ascii	"signed char\000"
 2955      65642063 
 2955      68617200 
 2956              	.LASF41:
 2957 009e 705F6D70 		.ascii	"p_mpool\000"
 2957      6F6F6C00 
 2958              	.LASF52:
 2959 00a6 6D5F7175 		.ascii	"m_queue\000"
 2959      65756500 
 2960              	.LASF16:
 2961 00ae 74736C69 		.ascii	"tslices_t\000"
 2961      6365735F 
 2961      7400
 2962              	.LASF7:
 2963 00b8 6C6F6E67 		.ascii	"long int\000"
 2963      20696E74 
 2963      00
 2964              	.LASF14:
 2965 00c1 74737461 		.ascii	"tstate_t\000"
 2965      74655F74 
 2965      00
 2966              	.LASF27:
ARM GAS  /var/folders/qh/xwg3v3kj02qbxczjpdb8lzfr0000gn/T//cccW2fsI.s 			page 54


 2967 00ca 705F6E65 		.ascii	"p_newer\000"
 2967      77657200 
 2968              	.LASF49:
 2969 00d2 735F7175 		.ascii	"s_queue\000"
 2969      65756500 
 2970              	.LASF83:
 2971 00da 2E2E2F2E 		.ascii	"../../os/kernel/src/chmboxes.c\000"
 2971      2E2F6F73 
 2971      2F6B6572 
 2971      6E656C2F 
 2971      7372632F 
 2972              	.LASF85:
 2973 00f9 63685363 		.ascii	"chSchRescheduleS\000"
 2973      68526573 
 2973      63686564 
 2973      756C6553 
 2973      00
 2974              	.LASF44:
 2975 010a 72656761 		.ascii	"regarm_t\000"
 2975      726D5F74 
 2975      00
 2976              	.LASF21:
 2977 0113 636E745F 		.ascii	"cnt_t\000"
 2977      7400
 2978              	.LASF0:
 2979 0119 756E7369 		.ascii	"unsigned int\000"
 2979      676E6564 
 2979      20696E74 
 2979      00
 2980              	.LASF67:
 2981 0126 63684D42 		.ascii	"chMBInit\000"
 2981      496E6974 
 2981      00
 2982              	.LASF9:
 2983 012f 6C6F6E67 		.ascii	"long unsigned int\000"
 2983      20756E73 
 2983      69676E65 
 2983      6420696E 
 2983      7400
 2984              	.LASF60:
 2985 0141 6D625F65 		.ascii	"mb_emptysem\000"
 2985      6D707479 
 2985      73656D00 
 2986              	.LASF84:
 2987 014d 2F557365 		.ascii	"/Users/John/Development/embedded/ChibiOS-RT/BluC/ST"
 2987      72732F4A 
 2987      6F686E2F 
 2987      44657665 
 2987      6C6F706D 
 2988 0180 4D333246 		.ascii	"M32F051\000"
 2988      30353100 
 2989              	.LASF50:
 2990 0188 735F636E 		.ascii	"s_cnt\000"
 2990      7400
 2991              	.LASF46:
 2992 018e 636F6E74 		.ascii	"context\000"
 2992      65787400 
ARM GAS  /var/folders/qh/xwg3v3kj02qbxczjpdb8lzfr0000gn/T//cccW2fsI.s 			page 55


 2993              	.LASF4:
 2994 0196 73686F72 		.ascii	"short unsigned int\000"
 2994      7420756E 
 2994      7369676E 
 2994      65642069 
 2994      6E7400
 2995              	.LASF79:
 2996 01a9 63684D42 		.ascii	"chMBFetchI\000"
 2996      46657463 
 2996      684900
 2997              	.LASF18:
 2998 01b4 6D73675F 		.ascii	"msg_t\000"
 2998      7400
 2999              	.LASF76:
 3000 01ba 63684D42 		.ascii	"chMBFetchS\000"
 3000      46657463 
 3000      685300
 3001              	.LASF13:
 3002 01c5 746D6F64 		.ascii	"tmode_t\000"
 3002      655F7400 
 3003              	.LASF43:
 3004 01cd 54687265 		.ascii	"ThreadsList\000"
 3004      6164734C 
 3004      69737400 
 3005              	.LASF19:
 3006 01d9 6576656E 		.ascii	"eventmask_t\000"
 3006      746D6173 
 3006      6B5F7400 
 3007              	.LASF51:
 3008 01e5 4D757465 		.ascii	"Mutex\000"
 3008      7800
 3009              	.LASF77:
 3010 01eb 6D736770 		.ascii	"msgp\000"
 3010      00
 3011              	.LASF47:
 3012 01f0 73697A65 		.ascii	"sizetype\000"
 3012      74797065 
 3012      00
 3013              	.LASF58:
 3014 01f9 6D625F72 		.ascii	"mb_rdptr\000"
 3014      64707472 
 3014      00
 3015              	.LASF82:
 3016 0202 474E5520 		.ascii	"GNU C 4.8.3 20131129 (release) [ARM/embedded-4_8-br"
 3016      4320342E 
 3016      382E3320 
 3016      32303133 
 3016      31313239 
 3017 0235 616E6368 		.ascii	"anch revision 205641] -mcpu=cortex-m0 -mno-thumb-in"
 3017      20726576 
 3017      6973696F 
 3017      6E203230 
 3017      35363431 
 3018 0268 74657277 		.ascii	"terwork -mthumb -ggdb -O2 -fomit-frame-pointer -fal"
 3018      6F726B20 
 3018      2D6D7468 
 3018      756D6220 
ARM GAS  /var/folders/qh/xwg3v3kj02qbxczjpdb8lzfr0000gn/T//cccW2fsI.s 			page 56


 3018      2D676764 
 3019 029b 69676E2D 		.ascii	"ign-functions=16 -ffunction-sections -fdata-section"
 3019      66756E63 
 3019      74696F6E 
 3019      733D3136 
 3019      202D6666 
 3020 02ce 73202D66 		.ascii	"s -fno-common\000"
 3020      6E6F2D63 
 3020      6F6D6D6F 
 3020      6E00
 3021              	.LASF68:
 3022 02dc 63684D42 		.ascii	"chMBReset\000"
 3022      52657365 
 3022      7400
 3023              	.LASF28:
 3024 02e6 705F6F6C 		.ascii	"p_older\000"
 3024      64657200 
 3025              	.LASF42:
 3026 02ee 54687265 		.ascii	"ThreadsQueue\000"
 3026      61647351 
 3026      75657565 
 3026      00
 3027              	.LASF55:
 3028 02fb 6D625F62 		.ascii	"mb_buffer\000"
 3028      75666665 
 3028      7200
 3029              	.LASF69:
 3030 0305 74696D65 		.ascii	"time\000"
 3030      00
 3031              	.LASF15:
 3032 030a 74726566 		.ascii	"trefs_t\000"
 3032      735F7400 
 3033              	.LASF24:
 3034 0312 705F7072 		.ascii	"p_prev\000"
 3034      657600
 3035              	.LASF17:
 3036 0319 74707269 		.ascii	"tprio_t\000"
 3036      6F5F7400 
 3037              	.LASF12:
 3038 0321 5F426F6F 		.ascii	"_Bool\000"
 3038      6C00
 3039              	.LASF6:
 3040 0327 696E7433 		.ascii	"int32_t\000"
 3040      325F7400 
 3041              	.LASF2:
 3042 032f 756E7369 		.ascii	"unsigned char\000"
 3042      676E6564 
 3042      20636861 
 3042      7200
 3043              	.LASF56:
 3044 033d 6D625F74 		.ascii	"mb_top\000"
 3044      6F7000
 3045              	.LASF39:
 3046 0344 705F6D74 		.ascii	"p_mtxlist\000"
 3046      786C6973 
 3046      7400
 3047              	.LASF3:
ARM GAS  /var/folders/qh/xwg3v3kj02qbxczjpdb8lzfr0000gn/T//cccW2fsI.s 			page 57


 3048 034e 73686F72 		.ascii	"short int\000"
 3048      7420696E 
 3048      7400
 3049              	.LASF30:
 3050 0358 705F7374 		.ascii	"p_state\000"
 3050      61746500 
 3051              	.LASF33:
 3052 0360 705F7072 		.ascii	"p_preempt\000"
 3052      65656D70 
 3052      7400
 3053              	.LASF65:
 3054 036a 65776D61 		.ascii	"ewmask\000"
 3054      736B00
 3055              	.LASF23:
 3056 0371 705F6E65 		.ascii	"p_next\000"
 3056      787400
 3057              	.LASF31:
 3058 0378 705F666C 		.ascii	"p_flags\000"
 3058      61677300 
 3059              	.LASF71:
 3060 0380 63684D42 		.ascii	"chMBPost\000"
 3060      506F7374 
 3060      00
 3061              	.LASF22:
 3062 0389 54687265 		.ascii	"Thread\000"
 3062      616400
 3063              	.LASF38:
 3064 0390 705F6570 		.ascii	"p_epending\000"
 3064      656E6469 
 3064      6E6700
 3065              	.LASF8:
 3066 039b 75696E74 		.ascii	"uint32_t\000"
 3066      33325F74 
 3066      00
 3067              	.LASF66:
 3068 03a4 63686172 		.ascii	"char\000"
 3068      00
 3069              	.LASF86:
 3070 03a9 63685365 		.ascii	"chSemWaitTimeoutS\000"
 3070      6D576169 
 3070      7454696D 
 3070      656F7574 
 3070      5300
 3071              	.LASF54:
 3072 03bb 6D5F6E65 		.ascii	"m_next\000"
 3072      787400
 3073              	.LASF20:
 3074 03c2 73797374 		.ascii	"systime_t\000"
 3074      696D655F 
 3074      7400
 3075              	.LASF40:
 3076 03cc 705F7265 		.ascii	"p_realprio\000"
 3076      616C7072 
 3076      696F00
 3077              	.LASF34:
 3078 03d7 705F7469 		.ascii	"p_time\000"
 3078      6D6500
ARM GAS  /var/folders/qh/xwg3v3kj02qbxczjpdb8lzfr0000gn/T//cccW2fsI.s 			page 58


 3079              	.LASF74:
 3080 03de 63684D42 		.ascii	"chMBPostAhead\000"
 3080      506F7374 
 3080      41686561 
 3080      6400
 3081              	.LASF45:
 3082 03ec 696E7463 		.ascii	"intctx\000"
 3082      747800
 3083              	.LASF36:
 3084 03f3 705F6D73 		.ascii	"p_msgqueue\000"
 3084      67717565 
 3084      756500
 3085              	.LASF78:
 3086 03fe 63684D42 		.ascii	"chMBFetch\000"
 3086      46657463 
 3086      6800
 3087              	.LASF48:
 3088 0408 53656D61 		.ascii	"Semaphore\000"
 3088      70686F72 
 3088      6500
 3089              	.LASF59:
 3090 0412 6D625F66 		.ascii	"mb_fullsem\000"
 3090      756C6C73 
 3090      656D00
 3091              	.LASF32:
 3092 041d 705F7265 		.ascii	"p_refs\000"
 3092      667300
 3093              	.LASF81:
 3094 0424 63685365 		.ascii	"chSemResetI\000"
 3094      6D526573 
 3094      65744900 
 3095              	.LASF5:
 3096 0430 75696E74 		.ascii	"uint8_t\000"
 3096      385F7400 
 3097              	.LASF64:
 3098 0438 77746F62 		.ascii	"wtobjp\000"
 3098      6A7000
 3099              	.LASF29:
 3100 043f 705F6E61 		.ascii	"p_name\000"
 3100      6D6500
 3101              	.LASF53:
 3102 0446 6D5F6F77 		.ascii	"m_owner\000"
 3102      6E657200 
 3103              	.LASF26:
 3104 044e 705F6374 		.ascii	"p_ctx\000"
 3104      7800
 3105              	.LASF35:
 3106 0454 705F7761 		.ascii	"p_waiting\000"
 3106      6974696E 
 3106      6700
 3107              	.LASF80:
 3108 045e 63685365 		.ascii	"chSemInit\000"
 3108      6D496E69 
 3108      7400
 3109              		.ident	"GCC: (GNU Tools for ARM Embedded Processors) 4.8.3 20131129 (release) [ARM/embedded-4_8-br
ARM GAS  /var/folders/qh/xwg3v3kj02qbxczjpdb8lzfr0000gn/T//cccW2fsI.s 			page 59


DEFINED SYMBOLS
                            *ABS*:0000000000000000 chmboxes.c
/var/folders/qh/xwg3v3kj02qbxczjpdb8lzfr0000gn/T//cccW2fsI.s:18     .text.chMBInit:0000000000000000 $t
/var/folders/qh/xwg3v3kj02qbxczjpdb8lzfr0000gn/T//cccW2fsI.s:24     .text.chMBInit:0000000000000000 chMBInit
/var/folders/qh/xwg3v3kj02qbxczjpdb8lzfr0000gn/T//cccW2fsI.s:68     .text.chMBReset:0000000000000000 $t
/var/folders/qh/xwg3v3kj02qbxczjpdb8lzfr0000gn/T//cccW2fsI.s:74     .text.chMBReset:0000000000000000 chMBReset
/var/folders/qh/xwg3v3kj02qbxczjpdb8lzfr0000gn/T//cccW2fsI.s:126    .text.chMBPostS:0000000000000000 $t
/var/folders/qh/xwg3v3kj02qbxczjpdb8lzfr0000gn/T//cccW2fsI.s:132    .text.chMBPostS:0000000000000000 chMBPostS
/var/folders/qh/xwg3v3kj02qbxczjpdb8lzfr0000gn/T//cccW2fsI.s:194    .text.chMBPost:0000000000000000 $t
/var/folders/qh/xwg3v3kj02qbxczjpdb8lzfr0000gn/T//cccW2fsI.s:200    .text.chMBPost:0000000000000000 chMBPost
/var/folders/qh/xwg3v3kj02qbxczjpdb8lzfr0000gn/T//cccW2fsI.s:229    .text.chMBPostI:0000000000000000 $t
/var/folders/qh/xwg3v3kj02qbxczjpdb8lzfr0000gn/T//cccW2fsI.s:235    .text.chMBPostI:0000000000000000 chMBPostI
/var/folders/qh/xwg3v3kj02qbxczjpdb8lzfr0000gn/T//cccW2fsI.s:289    .text.chMBPostAheadS:0000000000000000 $t
/var/folders/qh/xwg3v3kj02qbxczjpdb8lzfr0000gn/T//cccW2fsI.s:295    .text.chMBPostAheadS:0000000000000000 chMBPostAheadS
/var/folders/qh/xwg3v3kj02qbxczjpdb8lzfr0000gn/T//cccW2fsI.s:359    .text.chMBPostAhead:0000000000000000 $t
/var/folders/qh/xwg3v3kj02qbxczjpdb8lzfr0000gn/T//cccW2fsI.s:365    .text.chMBPostAhead:0000000000000000 chMBPostAhead
/var/folders/qh/xwg3v3kj02qbxczjpdb8lzfr0000gn/T//cccW2fsI.s:394    .text.chMBPostAheadI:0000000000000000 $t
/var/folders/qh/xwg3v3kj02qbxczjpdb8lzfr0000gn/T//cccW2fsI.s:400    .text.chMBPostAheadI:0000000000000000 chMBPostAheadI
/var/folders/qh/xwg3v3kj02qbxczjpdb8lzfr0000gn/T//cccW2fsI.s:455    .text.chMBFetchS:0000000000000000 $t
/var/folders/qh/xwg3v3kj02qbxczjpdb8lzfr0000gn/T//cccW2fsI.s:461    .text.chMBFetchS:0000000000000000 chMBFetchS
/var/folders/qh/xwg3v3kj02qbxczjpdb8lzfr0000gn/T//cccW2fsI.s:524    .text.chMBFetch:0000000000000000 $t
/var/folders/qh/xwg3v3kj02qbxczjpdb8lzfr0000gn/T//cccW2fsI.s:530    .text.chMBFetch:0000000000000000 chMBFetch
/var/folders/qh/xwg3v3kj02qbxczjpdb8lzfr0000gn/T//cccW2fsI.s:559    .text.chMBFetchI:0000000000000000 $t
/var/folders/qh/xwg3v3kj02qbxczjpdb8lzfr0000gn/T//cccW2fsI.s:565    .text.chMBFetchI:0000000000000000 chMBFetchI
                     .debug_frame:0000000000000010 $d

UNDEFINED SYMBOLS
chSemInit
chSemResetI
chSchRescheduleS
chSemWaitTimeoutS
chSemSignalI
