ARM GAS  /var/folders/qh/xwg3v3kj02qbxczjpdb8lzfr0000gn/T//ccIgkMVn.s 			page 1


   1              		.cpu cortex-m0
   2              		.fpu softvfp
   3              		.eabi_attribute 20, 1
   4              		.eabi_attribute 21, 1
   5              		.eabi_attribute 23, 3
   6              		.eabi_attribute 24, 1
   7              		.eabi_attribute 25, 1
   8              		.eabi_attribute 26, 1
   9              		.eabi_attribute 30, 2
  10              		.eabi_attribute 34, 0
  11              		.eabi_attribute 18, 4
  12              		.code	16
  13              		.file	"chmboxes.c"
  14              		.text
  15              	.Ltext0:
  16              		.cfi_sections	.debug_frame
  17              		.section	.text.chMBInit,"ax",%progbits
  18              		.align	2
  19              		.p2align 4,,15
  20              		.global	chMBInit
  21              		.code	16
  22              		.thumb_func
  23              		.type	chMBInit, %function
  24              	chMBInit:
  25              	.LFB7:
  26              		.file 1 "../../os/kernel/src/chmboxes.c"
  27              		.loc 1 65 0
  28              		.cfi_startproc
  29              	.LVL0:
  30 0000 10B5     		push	{r4, lr}
  31              		.cfi_def_cfa_offset 8
  32              		.cfi_offset 4, -8
  33              		.cfi_offset 14, -4
  34              		.loc 1 65 0
  35 0002 041C     		mov	r4, r0
  36              		.loc 1 69 0
  37 0004 E160     		str	r1, [r4, #12]
  38 0006 A160     		str	r1, [r4, #8]
  39 0008 2160     		str	r1, [r4]
  40              		.loc 1 65 0
  41 000a 0B1C     		mov	r3, r1
  42              		.loc 1 70 0
  43 000c 9100     		lsl	r1, r2, #2
  44              	.LVL1:
  45 000e 5B18     		add	r3, r3, r1
  46              	.LVL2:
  47 0010 4360     		str	r3, [r0, #4]
  48              		.loc 1 71 0
  49 0012 111C     		mov	r1, r2
  50 0014 1C30     		add	r0, r0, #28
  51              	.LVL3:
  52 0016 FFF7FEFF 		bl	chSemInit
  53              	.LVL4:
  54              		.loc 1 72 0
  55 001a 201C     		mov	r0, r4
  56 001c 1030     		add	r0, r0, #16
  57 001e 0021     		mov	r1, #0
ARM GAS  /var/folders/qh/xwg3v3kj02qbxczjpdb8lzfr0000gn/T//ccIgkMVn.s 			page 2


  58 0020 FFF7FEFF 		bl	chSemInit
  59              	.LVL5:
  60              		.loc 1 73 0
  61              		@ sp needed
  62              	.LVL6:
  63 0024 10BD     		pop	{r4, pc}
  64              		.cfi_endproc
  65              	.LFE7:
  66              		.size	chMBInit, .-chMBInit
  67 0026 C046C046 		.section	.text.chMBReset,"ax",%progbits
  67      C046C046 
  67      C046
  68              		.align	2
  69              		.p2align 4,,15
  70              		.global	chMBReset
  71              		.code	16
  72              		.thumb_func
  73              		.type	chMBReset, %function
  74              	chMBReset:
  75              	.LFB8:
  76              		.loc 1 84 0
  77              		.cfi_startproc
  78              	.LVL7:
  79 0000 10B5     		push	{r4, lr}
  80              		.cfi_def_cfa_offset 8
  81              		.cfi_offset 4, -8
  82              		.cfi_offset 14, -4
  83              		.loc 1 84 0
  84 0002 041C     		mov	r4, r0
  85              		.loc 1 88 0
  86              	@ 88 "../../os/kernel/src/chmboxes.c" 1
  87 0004 72B6     		cpsid   i
  88              	@ 0 "" 2
  89              		.code	16
  90 0006 FFF7FEFF 		bl	dbg_check_lock
  91              	.LVL8:
  92              		.loc 1 90 0
  93 000a 6368     		ldr	r3, [r4, #4]
  94              		.loc 1 89 0
  95 000c 2168     		ldr	r1, [r4]
  96              		.loc 1 90 0
  97 000e 201C     		mov	r0, r4
  98              		.loc 1 89 0
  99 0010 E160     		str	r1, [r4, #12]
 100 0012 A160     		str	r1, [r4, #8]
 101              		.loc 1 90 0
 102 0014 591A     		sub	r1, r3, r1
 103 0016 1C30     		add	r0, r0, #28
 104 0018 8910     		asr	r1, r1, #2
 105 001a FFF7FEFF 		bl	chSemResetI
 106              	.LVL9:
 107              		.loc 1 91 0
 108 001e 201C     		mov	r0, r4
 109 0020 1030     		add	r0, r0, #16
 110 0022 0021     		mov	r1, #0
 111 0024 FFF7FEFF 		bl	chSemResetI
 112              	.LVL10:
ARM GAS  /var/folders/qh/xwg3v3kj02qbxczjpdb8lzfr0000gn/T//ccIgkMVn.s 			page 3


 113              		.loc 1 92 0
 114 0028 FFF7FEFF 		bl	chSchRescheduleS
 115              	.LVL11:
 116              		.loc 1 93 0
 117 002c FFF7FEFF 		bl	dbg_check_unlock
 118              	.LVL12:
 119              	@ 93 "../../os/kernel/src/chmboxes.c" 1
 120 0030 62B6     		cpsie   i
 121              	@ 0 "" 2
 122              		.loc 1 94 0
 123              		.code	16
 124              		@ sp needed
 125              	.LVL13:
 126 0032 10BD     		pop	{r4, pc}
 127              		.cfi_endproc
 128              	.LFE8:
 129              		.size	chMBReset, .-chMBReset
 130 0034 C046C046 		.section	.text.chMBPostS,"ax",%progbits
 130      C046C046 
 130      C046C046 
 131              		.align	2
 132              		.p2align 4,,15
 133              		.global	chMBPostS
 134              		.code	16
 135              		.thumb_func
 136              		.type	chMBPostS, %function
 137              	chMBPostS:
 138              	.LFB10:
 139              		.loc 1 143 0
 140              		.cfi_startproc
 141              	.LVL14:
 142 0000 70B5     		push	{r4, r5, r6, lr}
 143              		.cfi_def_cfa_offset 16
 144              		.cfi_offset 4, -16
 145              		.cfi_offset 5, -12
 146              		.cfi_offset 6, -8
 147              		.cfi_offset 14, -4
 148              		.loc 1 143 0
 149 0002 041C     		mov	r4, r0
 150 0004 151C     		mov	r5, r2
 151 0006 0E1C     		mov	r6, r1
 152              		.loc 1 146 0
 153 0008 FFF7FEFF 		bl	chDbgCheckClassS
 154              	.LVL15:
 155              		.loc 1 149 0
 156 000c 201C     		mov	r0, r4
 157 000e 291C     		mov	r1, r5
 158 0010 1C30     		add	r0, r0, #28
 159 0012 FFF7FEFF 		bl	chSemWaitTimeoutS
 160              	.LVL16:
 161 0016 051E     		sub	r5, r0, #0
 162              	.LVL17:
 163              		.loc 1 150 0
 164 0018 0CD1     		bne	.L4
 165              		.loc 1 151 0
 166 001a A268     		ldr	r2, [r4, #8]
 167 001c 131D     		add	r3, r2, #4
ARM GAS  /var/folders/qh/xwg3v3kj02qbxczjpdb8lzfr0000gn/T//ccIgkMVn.s 			page 4


 168 001e A360     		str	r3, [r4, #8]
 169 0020 1660     		str	r6, [r2]
 170              		.loc 1 152 0
 171 0022 6268     		ldr	r2, [r4, #4]
 172 0024 9342     		cmp	r3, r2
 173 0026 07D2     		bcs	.L7
 174              	.L5:
 175              		.loc 1 154 0
 176 0028 201C     		mov	r0, r4
 177              	.LVL18:
 178 002a 1030     		add	r0, r0, #16
 179 002c FFF7FEFF 		bl	chSemSignalI
 180              	.LVL19:
 181              		.loc 1 155 0
 182 0030 FFF7FEFF 		bl	chSchRescheduleS
 183              	.LVL20:
 184              	.L4:
 185              		.loc 1 158 0
 186 0034 281C     		mov	r0, r5
 187              		@ sp needed
 188              	.LVL21:
 189              	.LVL22:
 190              	.LVL23:
 191 0036 70BD     		pop	{r4, r5, r6, pc}
 192              	.LVL24:
 193              	.L7:
 194              		.loc 1 153 0
 195 0038 2368     		ldr	r3, [r4]
 196 003a A360     		str	r3, [r4, #8]
 197 003c F4E7     		b	.L5
 198              		.cfi_endproc
 199              	.LFE10:
 200              		.size	chMBPostS, .-chMBPostS
 201 003e C046     		.section	.text.chMBPost,"ax",%progbits
 202              		.align	2
 203              		.p2align 4,,15
 204              		.global	chMBPost
 205              		.code	16
 206              		.thumb_func
 207              		.type	chMBPost, %function
 208              	chMBPost:
 209              	.LFB9:
 210              		.loc 1 115 0
 211              		.cfi_startproc
 212              	.LVL25:
 213 0000 70B5     		push	{r4, r5, r6, lr}
 214              		.cfi_def_cfa_offset 16
 215              		.cfi_offset 4, -16
 216              		.cfi_offset 5, -12
 217              		.cfi_offset 6, -8
 218              		.cfi_offset 14, -4
 219              		.loc 1 115 0
 220 0002 061C     		mov	r6, r0
 221 0004 0D1C     		mov	r5, r1
 222 0006 141C     		mov	r4, r2
 223              		.loc 1 118 0
 224              	@ 118 "../../os/kernel/src/chmboxes.c" 1
ARM GAS  /var/folders/qh/xwg3v3kj02qbxczjpdb8lzfr0000gn/T//ccIgkMVn.s 			page 5


 225 0008 72B6     		cpsid   i
 226              	@ 0 "" 2
 227              		.code	16
 228 000a FFF7FEFF 		bl	dbg_check_lock
 229              	.LVL26:
 230              		.loc 1 119 0
 231 000e 221C     		mov	r2, r4
 232 0010 291C     		mov	r1, r5
 233 0012 301C     		mov	r0, r6
 234 0014 FFF7FEFF 		bl	chMBPostS
 235              	.LVL27:
 236 0018 041C     		mov	r4, r0
 237              	.LVL28:
 238              		.loc 1 120 0
 239 001a FFF7FEFF 		bl	dbg_check_unlock
 240              	.LVL29:
 241              	@ 120 "../../os/kernel/src/chmboxes.c" 1
 242 001e 62B6     		cpsie   i
 243              	@ 0 "" 2
 244              		.loc 1 122 0
 245              		.code	16
 246 0020 201C     		mov	r0, r4
 247              		@ sp needed
 248              	.LVL30:
 249              	.LVL31:
 250              	.LVL32:
 251 0022 70BD     		pop	{r4, r5, r6, pc}
 252              		.cfi_endproc
 253              	.LFE9:
 254              		.size	chMBPost, .-chMBPost
 255 0024 C046C046 		.section	.text.chMBPostI,"ax",%progbits
 255      C046C046 
 255      C046C046 
 256              		.align	2
 257              		.p2align 4,,15
 258              		.global	chMBPostI
 259              		.code	16
 260              		.thumb_func
 261              		.type	chMBPostI, %function
 262              	chMBPostI:
 263              	.LFB11:
 264              		.loc 1 174 0
 265              		.cfi_startproc
 266              	.LVL33:
 267 0000 38B5     		push	{r3, r4, r5, lr}
 268              		.cfi_def_cfa_offset 16
 269              		.cfi_offset 3, -16
 270              		.cfi_offset 4, -12
 271              		.cfi_offset 5, -8
 272              		.cfi_offset 14, -4
 273              		.loc 1 174 0
 274 0002 041C     		mov	r4, r0
 275 0004 0D1C     		mov	r5, r1
 276              		.loc 1 176 0
 277 0006 FFF7FEFF 		bl	chDbgCheckClassI
 278              	.LVL34:
 279              		.loc 1 179 0
ARM GAS  /var/folders/qh/xwg3v3kj02qbxczjpdb8lzfr0000gn/T//ccIgkMVn.s 			page 6


 280 000a 636A     		ldr	r3, [r4, #36]
 281 000c 002B     		cmp	r3, #0
 282 000e 11DD     		ble	.L12
 283              		.loc 1 182 0
 284 0010 A268     		ldr	r2, [r4, #8]
 285              		.loc 1 181 0
 286 0012 013B     		sub	r3, r3, #1
 287 0014 6362     		str	r3, [r4, #36]
 288              		.loc 1 182 0
 289 0016 131D     		add	r3, r2, #4
 290 0018 A360     		str	r3, [r4, #8]
 291 001a 1560     		str	r5, [r2]
 292              		.loc 1 183 0
 293 001c 6268     		ldr	r2, [r4, #4]
 294 001e 9342     		cmp	r3, r2
 295 0020 05D2     		bcs	.L13
 296              	.L11:
 297              		.loc 1 185 0
 298 0022 201C     		mov	r0, r4
 299 0024 1030     		add	r0, r0, #16
 300 0026 FFF7FEFF 		bl	chSemSignalI
 301              	.LVL35:
 302              		.loc 1 186 0
 303 002a 0020     		mov	r0, #0
 304              	.L10:
 305              		.loc 1 187 0
 306              		@ sp needed
 307              	.LVL36:
 308              	.LVL37:
 309 002c 38BD     		pop	{r3, r4, r5, pc}
 310              	.LVL38:
 311              	.L13:
 312              		.loc 1 184 0
 313 002e 2368     		ldr	r3, [r4]
 314 0030 A360     		str	r3, [r4, #8]
 315 0032 F6E7     		b	.L11
 316              	.L12:
 317              		.loc 1 180 0
 318 0034 0120     		mov	r0, #1
 319 0036 4042     		neg	r0, r0
 320 0038 F8E7     		b	.L10
 321              		.cfi_endproc
 322              	.LFE11:
 323              		.size	chMBPostI, .-chMBPostI
 324 003a C046C046 		.section	.text.chMBPostAheadS,"ax",%progbits
 324      C046
 325              		.align	2
 326              		.p2align 4,,15
 327              		.global	chMBPostAheadS
 328              		.code	16
 329              		.thumb_func
 330              		.type	chMBPostAheadS, %function
 331              	chMBPostAheadS:
 332              	.LFB13:
 333              		.loc 1 236 0
 334              		.cfi_startproc
 335              	.LVL39:
ARM GAS  /var/folders/qh/xwg3v3kj02qbxczjpdb8lzfr0000gn/T//ccIgkMVn.s 			page 7


 336 0000 70B5     		push	{r4, r5, r6, lr}
 337              		.cfi_def_cfa_offset 16
 338              		.cfi_offset 4, -16
 339              		.cfi_offset 5, -12
 340              		.cfi_offset 6, -8
 341              		.cfi_offset 14, -4
 342              		.loc 1 236 0
 343 0002 041C     		mov	r4, r0
 344 0004 151C     		mov	r5, r2
 345 0006 0E1C     		mov	r6, r1
 346              		.loc 1 239 0
 347 0008 FFF7FEFF 		bl	chDbgCheckClassS
 348              	.LVL40:
 349              		.loc 1 242 0
 350 000c 201C     		mov	r0, r4
 351 000e 291C     		mov	r1, r5
 352 0010 1C30     		add	r0, r0, #28
 353 0012 FFF7FEFF 		bl	chSemWaitTimeoutS
 354              	.LVL41:
 355 0016 051E     		sub	r5, r0, #0
 356              	.LVL42:
 357              		.loc 1 243 0
 358 0018 0CD1     		bne	.L15
 359              		.loc 1 244 0
 360 001a E368     		ldr	r3, [r4, #12]
 361 001c 2268     		ldr	r2, [r4]
 362 001e 043B     		sub	r3, r3, #4
 363 0020 E360     		str	r3, [r4, #12]
 364 0022 9342     		cmp	r3, r2
 365 0024 08D3     		bcc	.L17
 366              	.L16:
 367              		.loc 1 247 0
 368 0026 201C     		mov	r0, r4
 369              	.LVL43:
 370              		.loc 1 246 0
 371 0028 1E60     		str	r6, [r3]
 372              		.loc 1 247 0
 373 002a 1030     		add	r0, r0, #16
 374 002c FFF7FEFF 		bl	chSemSignalI
 375              	.LVL44:
 376              		.loc 1 248 0
 377 0030 FFF7FEFF 		bl	chSchRescheduleS
 378              	.LVL45:
 379              	.L15:
 380              		.loc 1 251 0
 381 0034 281C     		mov	r0, r5
 382              		@ sp needed
 383              	.LVL46:
 384              	.LVL47:
 385              	.LVL48:
 386 0036 70BD     		pop	{r4, r5, r6, pc}
 387              	.LVL49:
 388              	.L17:
 389              		.loc 1 245 0
 390 0038 6368     		ldr	r3, [r4, #4]
 391 003a 043B     		sub	r3, r3, #4
 392 003c E360     		str	r3, [r4, #12]
ARM GAS  /var/folders/qh/xwg3v3kj02qbxczjpdb8lzfr0000gn/T//ccIgkMVn.s 			page 8


 393 003e F2E7     		b	.L16
 394              		.cfi_endproc
 395              	.LFE13:
 396              		.size	chMBPostAheadS, .-chMBPostAheadS
 397              		.section	.text.chMBPostAhead,"ax",%progbits
 398              		.align	2
 399              		.p2align 4,,15
 400              		.global	chMBPostAhead
 401              		.code	16
 402              		.thumb_func
 403              		.type	chMBPostAhead, %function
 404              	chMBPostAhead:
 405              	.LFB12:
 406              		.loc 1 208 0
 407              		.cfi_startproc
 408              	.LVL50:
 409 0000 70B5     		push	{r4, r5, r6, lr}
 410              		.cfi_def_cfa_offset 16
 411              		.cfi_offset 4, -16
 412              		.cfi_offset 5, -12
 413              		.cfi_offset 6, -8
 414              		.cfi_offset 14, -4
 415              		.loc 1 208 0
 416 0002 061C     		mov	r6, r0
 417 0004 0D1C     		mov	r5, r1
 418 0006 141C     		mov	r4, r2
 419              		.loc 1 211 0
 420              	@ 211 "../../os/kernel/src/chmboxes.c" 1
 421 0008 72B6     		cpsid   i
 422              	@ 0 "" 2
 423              		.code	16
 424 000a FFF7FEFF 		bl	dbg_check_lock
 425              	.LVL51:
 426              		.loc 1 212 0
 427 000e 221C     		mov	r2, r4
 428 0010 291C     		mov	r1, r5
 429 0012 301C     		mov	r0, r6
 430 0014 FFF7FEFF 		bl	chMBPostAheadS
 431              	.LVL52:
 432 0018 041C     		mov	r4, r0
 433              	.LVL53:
 434              		.loc 1 213 0
 435 001a FFF7FEFF 		bl	dbg_check_unlock
 436              	.LVL54:
 437              	@ 213 "../../os/kernel/src/chmboxes.c" 1
 438 001e 62B6     		cpsie   i
 439              	@ 0 "" 2
 440              		.loc 1 215 0
 441              		.code	16
 442 0020 201C     		mov	r0, r4
 443              		@ sp needed
 444              	.LVL55:
 445              	.LVL56:
 446              	.LVL57:
 447 0022 70BD     		pop	{r4, r5, r6, pc}
 448              		.cfi_endproc
 449              	.LFE12:
ARM GAS  /var/folders/qh/xwg3v3kj02qbxczjpdb8lzfr0000gn/T//ccIgkMVn.s 			page 9


 450              		.size	chMBPostAhead, .-chMBPostAhead
 451 0024 C046C046 		.section	.text.chMBPostAheadI,"ax",%progbits
 451      C046C046 
 451      C046C046 
 452              		.align	2
 453              		.p2align 4,,15
 454              		.global	chMBPostAheadI
 455              		.code	16
 456              		.thumb_func
 457              		.type	chMBPostAheadI, %function
 458              	chMBPostAheadI:
 459              	.LFB14:
 460              		.loc 1 267 0
 461              		.cfi_startproc
 462              	.LVL58:
 463 0000 38B5     		push	{r3, r4, r5, lr}
 464              		.cfi_def_cfa_offset 16
 465              		.cfi_offset 3, -16
 466              		.cfi_offset 4, -12
 467              		.cfi_offset 5, -8
 468              		.cfi_offset 14, -4
 469              		.loc 1 267 0
 470 0002 041C     		mov	r4, r0
 471 0004 0D1C     		mov	r5, r1
 472              		.loc 1 269 0
 473 0006 FFF7FEFF 		bl	chDbgCheckClassI
 474              	.LVL59:
 475              		.loc 1 272 0
 476 000a 636A     		ldr	r3, [r4, #36]
 477 000c 002B     		cmp	r3, #0
 478 000e 12DD     		ble	.L22
 479              		.loc 1 274 0
 480 0010 013B     		sub	r3, r3, #1
 481 0012 6362     		str	r3, [r4, #36]
 482              		.loc 1 275 0
 483 0014 E368     		ldr	r3, [r4, #12]
 484 0016 2268     		ldr	r2, [r4]
 485 0018 043B     		sub	r3, r3, #4
 486 001a E360     		str	r3, [r4, #12]
 487 001c 9342     		cmp	r3, r2
 488 001e 06D3     		bcc	.L23
 489              	.L21:
 490              		.loc 1 278 0
 491 0020 201C     		mov	r0, r4
 492 0022 1030     		add	r0, r0, #16
 493              		.loc 1 277 0
 494 0024 1D60     		str	r5, [r3]
 495              		.loc 1 278 0
 496 0026 FFF7FEFF 		bl	chSemSignalI
 497              	.LVL60:
 498              		.loc 1 279 0
 499 002a 0020     		mov	r0, #0
 500              	.L20:
 501              		.loc 1 280 0
 502              		@ sp needed
 503              	.LVL61:
 504              	.LVL62:
ARM GAS  /var/folders/qh/xwg3v3kj02qbxczjpdb8lzfr0000gn/T//ccIgkMVn.s 			page 10


 505 002c 38BD     		pop	{r3, r4, r5, pc}
 506              	.LVL63:
 507              	.L23:
 508              		.loc 1 276 0
 509 002e 6368     		ldr	r3, [r4, #4]
 510 0030 043B     		sub	r3, r3, #4
 511 0032 E360     		str	r3, [r4, #12]
 512 0034 F4E7     		b	.L21
 513              	.L22:
 514              		.loc 1 273 0
 515 0036 0120     		mov	r0, #1
 516 0038 4042     		neg	r0, r0
 517 003a F7E7     		b	.L20
 518              		.cfi_endproc
 519              	.LFE14:
 520              		.size	chMBPostAheadI, .-chMBPostAheadI
 521 003c C046C046 		.section	.text.chMBFetchS,"ax",%progbits
 522              		.align	2
 523              		.p2align 4,,15
 524              		.global	chMBFetchS
 525              		.code	16
 526              		.thumb_func
 527              		.type	chMBFetchS, %function
 528              	chMBFetchS:
 529              	.LFB16:
 530              		.loc 1 329 0
 531              		.cfi_startproc
 532              	.LVL64:
 533 0000 70B5     		push	{r4, r5, r6, lr}
 534              		.cfi_def_cfa_offset 16
 535              		.cfi_offset 4, -16
 536              		.cfi_offset 5, -12
 537              		.cfi_offset 6, -8
 538              		.cfi_offset 14, -4
 539              		.loc 1 329 0
 540 0002 041C     		mov	r4, r0
 541 0004 151C     		mov	r5, r2
 542 0006 0E1C     		mov	r6, r1
 543              		.loc 1 332 0
 544 0008 FFF7FEFF 		bl	chDbgCheckClassS
 545              	.LVL65:
 546              		.loc 1 335 0
 547 000c 201C     		mov	r0, r4
 548 000e 291C     		mov	r1, r5
 549 0010 1030     		add	r0, r0, #16
 550 0012 FFF7FEFF 		bl	chSemWaitTimeoutS
 551              	.LVL66:
 552 0016 051E     		sub	r5, r0, #0
 553              	.LVL67:
 554              		.loc 1 336 0
 555 0018 0DD1     		bne	.L25
 556              		.loc 1 337 0
 557 001a E268     		ldr	r2, [r4, #12]
 558 001c 131D     		add	r3, r2, #4
 559 001e 1268     		ldr	r2, [r2]
 560 0020 E360     		str	r3, [r4, #12]
 561 0022 3260     		str	r2, [r6]
ARM GAS  /var/folders/qh/xwg3v3kj02qbxczjpdb8lzfr0000gn/T//ccIgkMVn.s 			page 11


 562              		.loc 1 338 0
 563 0024 6268     		ldr	r2, [r4, #4]
 564 0026 9342     		cmp	r3, r2
 565 0028 07D2     		bcs	.L27
 566              	.L26:
 567              		.loc 1 340 0
 568 002a 201C     		mov	r0, r4
 569              	.LVL68:
 570 002c 1C30     		add	r0, r0, #28
 571 002e FFF7FEFF 		bl	chSemSignalI
 572              	.LVL69:
 573              		.loc 1 341 0
 574 0032 FFF7FEFF 		bl	chSchRescheduleS
 575              	.LVL70:
 576              	.L25:
 577              		.loc 1 344 0
 578 0036 281C     		mov	r0, r5
 579              		@ sp needed
 580              	.LVL71:
 581              	.LVL72:
 582              	.LVL73:
 583 0038 70BD     		pop	{r4, r5, r6, pc}
 584              	.LVL74:
 585              	.L27:
 586              		.loc 1 339 0
 587 003a 2368     		ldr	r3, [r4]
 588 003c E360     		str	r3, [r4, #12]
 589 003e F4E7     		b	.L26
 590              		.cfi_endproc
 591              	.LFE16:
 592              		.size	chMBFetchS, .-chMBFetchS
 593              		.section	.text.chMBFetch,"ax",%progbits
 594              		.align	2
 595              		.p2align 4,,15
 596              		.global	chMBFetch
 597              		.code	16
 598              		.thumb_func
 599              		.type	chMBFetch, %function
 600              	chMBFetch:
 601              	.LFB15:
 602              		.loc 1 301 0
 603              		.cfi_startproc
 604              	.LVL75:
 605 0000 70B5     		push	{r4, r5, r6, lr}
 606              		.cfi_def_cfa_offset 16
 607              		.cfi_offset 4, -16
 608              		.cfi_offset 5, -12
 609              		.cfi_offset 6, -8
 610              		.cfi_offset 14, -4
 611              		.loc 1 301 0
 612 0002 061C     		mov	r6, r0
 613 0004 0D1C     		mov	r5, r1
 614 0006 141C     		mov	r4, r2
 615              		.loc 1 304 0
 616              	@ 304 "../../os/kernel/src/chmboxes.c" 1
 617 0008 72B6     		cpsid   i
 618              	@ 0 "" 2
ARM GAS  /var/folders/qh/xwg3v3kj02qbxczjpdb8lzfr0000gn/T//ccIgkMVn.s 			page 12


 619              		.code	16
 620 000a FFF7FEFF 		bl	dbg_check_lock
 621              	.LVL76:
 622              		.loc 1 305 0
 623 000e 221C     		mov	r2, r4
 624 0010 291C     		mov	r1, r5
 625 0012 301C     		mov	r0, r6
 626 0014 FFF7FEFF 		bl	chMBFetchS
 627              	.LVL77:
 628 0018 041C     		mov	r4, r0
 629              	.LVL78:
 630              		.loc 1 306 0
 631 001a FFF7FEFF 		bl	dbg_check_unlock
 632              	.LVL79:
 633              	@ 306 "../../os/kernel/src/chmboxes.c" 1
 634 001e 62B6     		cpsie   i
 635              	@ 0 "" 2
 636              		.loc 1 308 0
 637              		.code	16
 638 0020 201C     		mov	r0, r4
 639              		@ sp needed
 640              	.LVL80:
 641              	.LVL81:
 642              	.LVL82:
 643 0022 70BD     		pop	{r4, r5, r6, pc}
 644              		.cfi_endproc
 645              	.LFE15:
 646              		.size	chMBFetch, .-chMBFetch
 647 0024 C046C046 		.section	.text.chMBFetchI,"ax",%progbits
 647      C046C046 
 647      C046C046 
 648              		.align	2
 649              		.p2align 4,,15
 650              		.global	chMBFetchI
 651              		.code	16
 652              		.thumb_func
 653              		.type	chMBFetchI, %function
 654              	chMBFetchI:
 655              	.LFB17:
 656              		.loc 1 360 0
 657              		.cfi_startproc
 658              	.LVL83:
 659 0000 38B5     		push	{r3, r4, r5, lr}
 660              		.cfi_def_cfa_offset 16
 661              		.cfi_offset 3, -16
 662              		.cfi_offset 4, -12
 663              		.cfi_offset 5, -8
 664              		.cfi_offset 14, -4
 665              		.loc 1 360 0
 666 0002 041C     		mov	r4, r0
 667 0004 0D1C     		mov	r5, r1
 668              		.loc 1 362 0
 669 0006 FFF7FEFF 		bl	chDbgCheckClassI
 670              	.LVL84:
 671              		.loc 1 365 0
 672 000a A369     		ldr	r3, [r4, #24]
 673 000c 002B     		cmp	r3, #0
ARM GAS  /var/folders/qh/xwg3v3kj02qbxczjpdb8lzfr0000gn/T//ccIgkMVn.s 			page 13


 674 000e 12DD     		ble	.L32
 675              		.loc 1 368 0
 676 0010 E268     		ldr	r2, [r4, #12]
 677              		.loc 1 367 0
 678 0012 013B     		sub	r3, r3, #1
 679 0014 A361     		str	r3, [r4, #24]
 680              		.loc 1 368 0
 681 0016 131D     		add	r3, r2, #4
 682 0018 1268     		ldr	r2, [r2]
 683 001a E360     		str	r3, [r4, #12]
 684 001c 2A60     		str	r2, [r5]
 685              		.loc 1 369 0
 686 001e 6268     		ldr	r2, [r4, #4]
 687 0020 9342     		cmp	r3, r2
 688 0022 05D2     		bcs	.L33
 689              	.L31:
 690              		.loc 1 371 0
 691 0024 201C     		mov	r0, r4
 692 0026 1C30     		add	r0, r0, #28
 693 0028 FFF7FEFF 		bl	chSemSignalI
 694              	.LVL85:
 695              		.loc 1 372 0
 696 002c 0020     		mov	r0, #0
 697              	.L30:
 698              		.loc 1 373 0
 699              		@ sp needed
 700              	.LVL86:
 701              	.LVL87:
 702 002e 38BD     		pop	{r3, r4, r5, pc}
 703              	.LVL88:
 704              	.L33:
 705              		.loc 1 370 0
 706 0030 2368     		ldr	r3, [r4]
 707 0032 E360     		str	r3, [r4, #12]
 708 0034 F6E7     		b	.L31
 709              	.L32:
 710              		.loc 1 366 0
 711 0036 0120     		mov	r0, #1
 712 0038 4042     		neg	r0, r0
 713 003a F8E7     		b	.L30
 714              		.cfi_endproc
 715              	.LFE17:
 716              		.size	chMBFetchI, .-chMBFetchI
 717 003c C046C046 		.text
 718              	.Letext0:
 719              		.file 2 "/usr/local/Cellar/gcc-arm-none-eabi-48/20131218/arm-none-eabi/include/stdint.h"
 720              		.file 3 "../../os/ports/GCC/ARMCMx/chtypes.h"
 721              		.file 4 "../../os/kernel/include/chlists.h"
 722              		.file 5 "../../os/kernel/include/chthreads.h"
 723              		.file 6 "../../os/ports/GCC/ARMCMx/chcore_v6m.h"
 724              		.file 7 "../../os/kernel/include/chsem.h"
 725              		.file 8 "../../os/kernel/include/chmtx.h"
 726              		.file 9 "../../os/kernel/include/chmboxes.h"
 727              		.file 10 "../../os/kernel/include/chdebug.h"
 728              		.file 11 "../../os/kernel/include/chschd.h"
 729              		.section	.debug_info,"",%progbits
 730              	.Ldebug_info0:
ARM GAS  /var/folders/qh/xwg3v3kj02qbxczjpdb8lzfr0000gn/T//ccIgkMVn.s 			page 14


 731 0000 D9090000 		.4byte	0x9d9
 732 0004 0400     		.2byte	0x4
 733 0006 00000000 		.4byte	.Ldebug_abbrev0
 734 000a 04       		.byte	0x4
 735 000b 01       		.uleb128 0x1
 736 000c 35020000 		.4byte	.LASF88
 737 0010 01       		.byte	0x1
 738 0011 DA000000 		.4byte	.LASF89
 739 0015 4D010000 		.4byte	.LASF90
 740 0019 00000000 		.4byte	.Ldebug_ranges0+0
 741 001d 00000000 		.4byte	0
 742 0021 00000000 		.4byte	.Ldebug_line0
 743 0025 02       		.uleb128 0x2
 744 0026 04       		.byte	0x4
 745 0027 05       		.byte	0x5
 746 0028 696E7400 		.ascii	"int\000"
 747 002c 03       		.uleb128 0x3
 748 002d 04       		.byte	0x4
 749 002e 07       		.byte	0x7
 750 002f 19010000 		.4byte	.LASF0
 751 0033 03       		.uleb128 0x3
 752 0034 01       		.byte	0x1
 753 0035 06       		.byte	0x6
 754 0036 92000000 		.4byte	.LASF1
 755 003a 04       		.uleb128 0x4
 756 003b 72040000 		.4byte	.LASF5
 757 003f 02       		.byte	0x2
 758 0040 2A       		.byte	0x2a
 759 0041 45000000 		.4byte	0x45
 760 0045 03       		.uleb128 0x3
 761 0046 01       		.byte	0x1
 762 0047 08       		.byte	0x8
 763 0048 71030000 		.4byte	.LASF2
 764 004c 03       		.uleb128 0x3
 765 004d 02       		.byte	0x2
 766 004e 05       		.byte	0x5
 767 004f 90030000 		.4byte	.LASF3
 768 0053 03       		.uleb128 0x3
 769 0054 02       		.byte	0x2
 770 0055 07       		.byte	0x7
 771 0056 96010000 		.4byte	.LASF4
 772 005a 04       		.uleb128 0x4
 773 005b 69030000 		.4byte	.LASF6
 774 005f 02       		.byte	0x2
 775 0060 4F       		.byte	0x4f
 776 0061 65000000 		.4byte	0x65
 777 0065 03       		.uleb128 0x3
 778 0066 04       		.byte	0x4
 779 0067 05       		.byte	0x5
 780 0068 B8000000 		.4byte	.LASF7
 781 006c 04       		.uleb128 0x4
 782 006d DD030000 		.4byte	.LASF8
 783 0071 02       		.byte	0x2
 784 0072 50       		.byte	0x50
 785 0073 77000000 		.4byte	0x77
 786 0077 03       		.uleb128 0x3
 787 0078 04       		.byte	0x4
ARM GAS  /var/folders/qh/xwg3v3kj02qbxczjpdb8lzfr0000gn/T//ccIgkMVn.s 			page 15


 788 0079 07       		.byte	0x7
 789 007a 2F010000 		.4byte	.LASF9
 790 007e 03       		.uleb128 0x3
 791 007f 08       		.byte	0x8
 792 0080 05       		.byte	0x5
 793 0081 84000000 		.4byte	.LASF10
 794 0085 03       		.uleb128 0x3
 795 0086 08       		.byte	0x8
 796 0087 07       		.byte	0x7
 797 0088 45000000 		.4byte	.LASF11
 798 008c 03       		.uleb128 0x3
 799 008d 01       		.byte	0x1
 800 008e 02       		.byte	0x2
 801 008f 63030000 		.4byte	.LASF12
 802 0093 04       		.uleb128 0x4
 803 0094 D6010000 		.4byte	.LASF13
 804 0098 03       		.byte	0x3
 805 0099 25       		.byte	0x25
 806 009a 3A000000 		.4byte	0x3a
 807 009e 04       		.uleb128 0x4
 808 009f C1000000 		.4byte	.LASF14
 809 00a3 03       		.byte	0x3
 810 00a4 26       		.byte	0x26
 811 00a5 3A000000 		.4byte	0x3a
 812 00a9 04       		.uleb128 0x4
 813 00aa 4C030000 		.4byte	.LASF15
 814 00ae 03       		.byte	0x3
 815 00af 27       		.byte	0x27
 816 00b0 3A000000 		.4byte	0x3a
 817 00b4 04       		.uleb128 0x4
 818 00b5 AE000000 		.4byte	.LASF16
 819 00b9 03       		.byte	0x3
 820 00ba 28       		.byte	0x28
 821 00bb 3A000000 		.4byte	0x3a
 822 00bf 04       		.uleb128 0x4
 823 00c0 5B030000 		.4byte	.LASF17
 824 00c4 03       		.byte	0x3
 825 00c5 29       		.byte	0x29
 826 00c6 6C000000 		.4byte	0x6c
 827 00ca 04       		.uleb128 0x4
 828 00cb B4010000 		.4byte	.LASF18
 829 00cf 03       		.byte	0x3
 830 00d0 2A       		.byte	0x2a
 831 00d1 5A000000 		.4byte	0x5a
 832 00d5 04       		.uleb128 0x4
 833 00d6 FB010000 		.4byte	.LASF19
 834 00da 03       		.byte	0x3
 835 00db 2C       		.byte	0x2c
 836 00dc 6C000000 		.4byte	0x6c
 837 00e0 04       		.uleb128 0x4
 838 00e1 04040000 		.4byte	.LASF20
 839 00e5 03       		.byte	0x3
 840 00e6 2E       		.byte	0x2e
 841 00e7 6C000000 		.4byte	0x6c
 842 00eb 04       		.uleb128 0x4
 843 00ec 13010000 		.4byte	.LASF21
 844 00f0 03       		.byte	0x3
ARM GAS  /var/folders/qh/xwg3v3kj02qbxczjpdb8lzfr0000gn/T//ccIgkMVn.s 			page 16


 845 00f1 2F       		.byte	0x2f
 846 00f2 5A000000 		.4byte	0x5a
 847 00f6 04       		.uleb128 0x4
 848 00f7 CB030000 		.4byte	.LASF22
 849 00fb 04       		.byte	0x4
 850 00fc 23       		.byte	0x23
 851 00fd 01010000 		.4byte	0x101
 852 0101 05       		.uleb128 0x5
 853 0102 CB030000 		.4byte	.LASF22
 854 0106 48       		.byte	0x48
 855 0107 05       		.byte	0x5
 856 0108 57       		.byte	0x57
 857 0109 FE010000 		.4byte	0x1fe
 858 010d 06       		.uleb128 0x6
 859 010e B3030000 		.4byte	.LASF23
 860 0112 05       		.byte	0x5
 861 0113 58       		.byte	0x58
 862 0114 1F020000 		.4byte	0x21f
 863 0118 00       		.byte	0
 864 0119 06       		.uleb128 0x6
 865 011a 54030000 		.4byte	.LASF24
 866 011e 05       		.byte	0x5
 867 011f 5A       		.byte	0x5a
 868 0120 1F020000 		.4byte	0x21f
 869 0124 04       		.byte	0x4
 870 0125 06       		.uleb128 0x6
 871 0126 7D000000 		.4byte	.LASF25
 872 012a 05       		.byte	0x5
 873 012b 5C       		.byte	0x5c
 874 012c BF000000 		.4byte	0xbf
 875 0130 08       		.byte	0x8
 876 0131 06       		.uleb128 0x6
 877 0132 90040000 		.4byte	.LASF26
 878 0136 05       		.byte	0x5
 879 0137 5D       		.byte	0x5d
 880 0138 CF020000 		.4byte	0x2cf
 881 013c 0C       		.byte	0xc
 882 013d 06       		.uleb128 0x6
 883 013e CA000000 		.4byte	.LASF27
 884 0142 05       		.byte	0x5
 885 0143 5F       		.byte	0x5f
 886 0144 1F020000 		.4byte	0x21f
 887 0148 10       		.byte	0x10
 888 0149 06       		.uleb128 0x6
 889 014a 19030000 		.4byte	.LASF28
 890 014e 05       		.byte	0x5
 891 014f 60       		.byte	0x60
 892 0150 1F020000 		.4byte	0x21f
 893 0154 14       		.byte	0x14
 894 0155 06       		.uleb128 0x6
 895 0156 81040000 		.4byte	.LASF29
 896 015a 05       		.byte	0x5
 897 015b 67       		.byte	0x67
 898 015c 03040000 		.4byte	0x403
 899 0160 18       		.byte	0x18
 900 0161 06       		.uleb128 0x6
 901 0162 9A030000 		.4byte	.LASF30
ARM GAS  /var/folders/qh/xwg3v3kj02qbxczjpdb8lzfr0000gn/T//ccIgkMVn.s 			page 17


 902 0166 05       		.byte	0x5
 903 0167 72       		.byte	0x72
 904 0168 9E000000 		.4byte	0x9e
 905 016c 1C       		.byte	0x1c
 906 016d 06       		.uleb128 0x6
 907 016e BA030000 		.4byte	.LASF31
 908 0172 05       		.byte	0x5
 909 0173 76       		.byte	0x76
 910 0174 93000000 		.4byte	0x93
 911 0178 1D       		.byte	0x1d
 912 0179 06       		.uleb128 0x6
 913 017a 5F040000 		.4byte	.LASF32
 914 017e 05       		.byte	0x5
 915 017f 7B       		.byte	0x7b
 916 0180 A9000000 		.4byte	0xa9
 917 0184 1E       		.byte	0x1e
 918 0185 06       		.uleb128 0x6
 919 0186 A2030000 		.4byte	.LASF33
 920 018a 05       		.byte	0x5
 921 018b 81       		.byte	0x81
 922 018c B4000000 		.4byte	0xb4
 923 0190 1F       		.byte	0x1f
 924 0191 06       		.uleb128 0x6
 925 0192 19040000 		.4byte	.LASF34
 926 0196 05       		.byte	0x5
 927 0197 88       		.byte	0x88
 928 0198 F5020000 		.4byte	0x2f5
 929 019c 20       		.byte	0x20
 930 019d 07       		.uleb128 0x7
 931 019e 705F7500 		.ascii	"p_u\000"
 932 01a2 05       		.byte	0x5
 933 01a3 AD       		.byte	0xad
 934 01a4 CE030000 		.4byte	0x3ce
 935 01a8 24       		.byte	0x24
 936 01a9 06       		.uleb128 0x6
 937 01aa 96040000 		.4byte	.LASF35
 938 01ae 05       		.byte	0x5
 939 01af B2       		.byte	0xb2
 940 01b0 45020000 		.4byte	0x245
 941 01b4 28       		.byte	0x28
 942 01b5 06       		.uleb128 0x6
 943 01b6 35040000 		.4byte	.LASF36
 944 01ba 05       		.byte	0x5
 945 01bb B8       		.byte	0xb8
 946 01bc 25020000 		.4byte	0x225
 947 01c0 2C       		.byte	0x2c
 948 01c1 06       		.uleb128 0x6
 949 01c2 00000000 		.4byte	.LASF37
 950 01c6 05       		.byte	0x5
 951 01c7 BC       		.byte	0xbc
 952 01c8 CA000000 		.4byte	0xca
 953 01cc 34       		.byte	0x34
 954 01cd 06       		.uleb128 0x6
 955 01ce D2030000 		.4byte	.LASF38
 956 01d2 05       		.byte	0x5
 957 01d3 C2       		.byte	0xc2
 958 01d4 D5000000 		.4byte	0xd5
ARM GAS  /var/folders/qh/xwg3v3kj02qbxczjpdb8lzfr0000gn/T//ccIgkMVn.s 			page 18


 959 01d8 38       		.byte	0x38
 960 01d9 06       		.uleb128 0x6
 961 01da 86030000 		.4byte	.LASF39
 962 01de 05       		.byte	0x5
 963 01df C9       		.byte	0xc9
 964 01e0 15040000 		.4byte	0x415
 965 01e4 3C       		.byte	0x3c
 966 01e5 06       		.uleb128 0x6
 967 01e6 0E040000 		.4byte	.LASF40
 968 01ea 05       		.byte	0x5
 969 01eb CD       		.byte	0xcd
 970 01ec BF000000 		.4byte	0xbf
 971 01f0 40       		.byte	0x40
 972 01f1 06       		.uleb128 0x6
 973 01f2 9E000000 		.4byte	.LASF41
 974 01f6 05       		.byte	0x5
 975 01f7 D3       		.byte	0xd3
 976 01f8 5B020000 		.4byte	0x25b
 977 01fc 44       		.byte	0x44
 978 01fd 00       		.byte	0
 979 01fe 08       		.uleb128 0x8
 980 01ff 08       		.byte	0x8
 981 0200 04       		.byte	0x4
 982 0201 5A       		.byte	0x5a
 983 0202 1F020000 		.4byte	0x21f
 984 0206 06       		.uleb128 0x6
 985 0207 B3030000 		.4byte	.LASF23
 986 020b 04       		.byte	0x4
 987 020c 5B       		.byte	0x5b
 988 020d 1F020000 		.4byte	0x21f
 989 0211 00       		.byte	0
 990 0212 06       		.uleb128 0x6
 991 0213 54030000 		.4byte	.LASF24
 992 0217 04       		.byte	0x4
 993 0218 5D       		.byte	0x5d
 994 0219 1F020000 		.4byte	0x21f
 995 021d 04       		.byte	0x4
 996 021e 00       		.byte	0
 997 021f 09       		.uleb128 0x9
 998 0220 04       		.byte	0x4
 999 0221 F6000000 		.4byte	0xf6
 1000 0225 04       		.uleb128 0x4
 1001 0226 21030000 		.4byte	.LASF42
 1002 022a 04       		.byte	0x4
 1003 022b 5F       		.byte	0x5f
 1004 022c FE010000 		.4byte	0x1fe
 1005 0230 08       		.uleb128 0x8
 1006 0231 04       		.byte	0x4
 1007 0232 04       		.byte	0x4
 1008 0233 64       		.byte	0x64
 1009 0234 45020000 		.4byte	0x245
 1010 0238 06       		.uleb128 0x6
 1011 0239 B3030000 		.4byte	.LASF23
 1012 023d 04       		.byte	0x4
 1013 023e 66       		.byte	0x66
 1014 023f 1F020000 		.4byte	0x21f
 1015 0243 00       		.byte	0
ARM GAS  /var/folders/qh/xwg3v3kj02qbxczjpdb8lzfr0000gn/T//ccIgkMVn.s 			page 19


 1016 0244 00       		.byte	0
 1017 0245 04       		.uleb128 0x4
 1018 0246 EF010000 		.4byte	.LASF43
 1019 024a 04       		.byte	0x4
 1020 024b 69       		.byte	0x69
 1021 024c 30020000 		.4byte	0x230
 1022 0250 04       		.uleb128 0x4
 1023 0251 0A010000 		.4byte	.LASF44
 1024 0255 06       		.byte	0x6
 1025 0256 A0       		.byte	0xa0
 1026 0257 5B020000 		.4byte	0x25b
 1027 025b 0A       		.uleb128 0xa
 1028 025c 04       		.byte	0x4
 1029 025d 05       		.uleb128 0x5
 1030 025e 2E040000 		.4byte	.LASF45
 1031 0262 24       		.byte	0x24
 1032 0263 06       		.byte	0x6
 1033 0264 B3       		.byte	0xb3
 1034 0265 CF020000 		.4byte	0x2cf
 1035 0269 07       		.uleb128 0x7
 1036 026a 723800   		.ascii	"r8\000"
 1037 026d 06       		.byte	0x6
 1038 026e B4       		.byte	0xb4
 1039 026f 50020000 		.4byte	0x250
 1040 0273 00       		.byte	0
 1041 0274 07       		.uleb128 0x7
 1042 0275 723900   		.ascii	"r9\000"
 1043 0278 06       		.byte	0x6
 1044 0279 B5       		.byte	0xb5
 1045 027a 50020000 		.4byte	0x250
 1046 027e 04       		.byte	0x4
 1047 027f 07       		.uleb128 0x7
 1048 0280 72313000 		.ascii	"r10\000"
 1049 0284 06       		.byte	0x6
 1050 0285 B6       		.byte	0xb6
 1051 0286 50020000 		.4byte	0x250
 1052 028a 08       		.byte	0x8
 1053 028b 07       		.uleb128 0x7
 1054 028c 72313100 		.ascii	"r11\000"
 1055 0290 06       		.byte	0x6
 1056 0291 B7       		.byte	0xb7
 1057 0292 50020000 		.4byte	0x250
 1058 0296 0C       		.byte	0xc
 1059 0297 07       		.uleb128 0x7
 1060 0298 723400   		.ascii	"r4\000"
 1061 029b 06       		.byte	0x6
 1062 029c B8       		.byte	0xb8
 1063 029d 50020000 		.4byte	0x250
 1064 02a1 10       		.byte	0x10
 1065 02a2 07       		.uleb128 0x7
 1066 02a3 723500   		.ascii	"r5\000"
 1067 02a6 06       		.byte	0x6
 1068 02a7 B9       		.byte	0xb9
 1069 02a8 50020000 		.4byte	0x250
 1070 02ac 14       		.byte	0x14
 1071 02ad 07       		.uleb128 0x7
 1072 02ae 723600   		.ascii	"r6\000"
ARM GAS  /var/folders/qh/xwg3v3kj02qbxczjpdb8lzfr0000gn/T//ccIgkMVn.s 			page 20


 1073 02b1 06       		.byte	0x6
 1074 02b2 BA       		.byte	0xba
 1075 02b3 50020000 		.4byte	0x250
 1076 02b7 18       		.byte	0x18
 1077 02b8 07       		.uleb128 0x7
 1078 02b9 723700   		.ascii	"r7\000"
 1079 02bc 06       		.byte	0x6
 1080 02bd BB       		.byte	0xbb
 1081 02be 50020000 		.4byte	0x250
 1082 02c2 1C       		.byte	0x1c
 1083 02c3 07       		.uleb128 0x7
 1084 02c4 6C7200   		.ascii	"lr\000"
 1085 02c7 06       		.byte	0x6
 1086 02c8 BC       		.byte	0xbc
 1087 02c9 50020000 		.4byte	0x250
 1088 02cd 20       		.byte	0x20
 1089 02ce 00       		.byte	0
 1090 02cf 05       		.uleb128 0x5
 1091 02d0 8E010000 		.4byte	.LASF46
 1092 02d4 04       		.byte	0x4
 1093 02d5 06       		.byte	0x6
 1094 02d6 C6       		.byte	0xc6
 1095 02d7 E8020000 		.4byte	0x2e8
 1096 02db 07       		.uleb128 0x7
 1097 02dc 72313300 		.ascii	"r13\000"
 1098 02e0 06       		.byte	0x6
 1099 02e1 C7       		.byte	0xc7
 1100 02e2 E8020000 		.4byte	0x2e8
 1101 02e6 00       		.byte	0
 1102 02e7 00       		.byte	0
 1103 02e8 09       		.uleb128 0x9
 1104 02e9 04       		.byte	0x4
 1105 02ea 5D020000 		.4byte	0x25d
 1106 02ee 03       		.uleb128 0x3
 1107 02ef 04       		.byte	0x4
 1108 02f0 07       		.byte	0x7
 1109 02f1 23020000 		.4byte	.LASF47
 1110 02f5 0B       		.uleb128 0xb
 1111 02f6 E0000000 		.4byte	0xe0
 1112 02fa 05       		.uleb128 0x5
 1113 02fb 4A040000 		.4byte	.LASF48
 1114 02ff 0C       		.byte	0xc
 1115 0300 07       		.byte	0x7
 1116 0301 25       		.byte	0x25
 1117 0302 1F030000 		.4byte	0x31f
 1118 0306 06       		.uleb128 0x6
 1119 0307 D2000000 		.4byte	.LASF49
 1120 030b 07       		.byte	0x7
 1121 030c 26       		.byte	0x26
 1122 030d 25020000 		.4byte	0x225
 1123 0311 00       		.byte	0
 1124 0312 06       		.uleb128 0x6
 1125 0313 88010000 		.4byte	.LASF50
 1126 0317 07       		.byte	0x7
 1127 0318 28       		.byte	0x28
 1128 0319 EB000000 		.4byte	0xeb
 1129 031d 08       		.byte	0x8
ARM GAS  /var/folders/qh/xwg3v3kj02qbxczjpdb8lzfr0000gn/T//ccIgkMVn.s 			page 21


 1130 031e 00       		.byte	0
 1131 031f 04       		.uleb128 0x4
 1132 0320 4A040000 		.4byte	.LASF48
 1133 0324 07       		.byte	0x7
 1134 0325 29       		.byte	0x29
 1135 0326 FA020000 		.4byte	0x2fa
 1136 032a 05       		.uleb128 0x5
 1137 032b 07020000 		.4byte	.LASF51
 1138 032f 10       		.byte	0x10
 1139 0330 08       		.byte	0x8
 1140 0331 25       		.byte	0x25
 1141 0332 5B030000 		.4byte	0x35b
 1142 0336 06       		.uleb128 0x6
 1143 0337 A6000000 		.4byte	.LASF52
 1144 033b 08       		.byte	0x8
 1145 033c 26       		.byte	0x26
 1146 033d 25020000 		.4byte	0x225
 1147 0341 00       		.byte	0
 1148 0342 06       		.uleb128 0x6
 1149 0343 88040000 		.4byte	.LASF53
 1150 0347 08       		.byte	0x8
 1151 0348 28       		.byte	0x28
 1152 0349 1F020000 		.4byte	0x21f
 1153 034d 08       		.byte	0x8
 1154 034e 06       		.uleb128 0x6
 1155 034f FD030000 		.4byte	.LASF54
 1156 0353 08       		.byte	0x8
 1157 0354 2A       		.byte	0x2a
 1158 0355 5B030000 		.4byte	0x35b
 1159 0359 0C       		.byte	0xc
 1160 035a 00       		.byte	0
 1161 035b 09       		.uleb128 0x9
 1162 035c 04       		.byte	0x4
 1163 035d 2A030000 		.4byte	0x32a
 1164 0361 04       		.uleb128 0x4
 1165 0362 07020000 		.4byte	.LASF51
 1166 0366 08       		.byte	0x8
 1167 0367 2C       		.byte	0x2c
 1168 0368 2A030000 		.4byte	0x32a
 1169 036c 08       		.uleb128 0x8
 1170 036d 28       		.byte	0x28
 1171 036e 09       		.byte	0x9
 1172 036f 2C       		.byte	0x2c
 1173 0370 BD030000 		.4byte	0x3bd
 1174 0374 06       		.uleb128 0x6
 1175 0375 2E030000 		.4byte	.LASF55
 1176 0379 09       		.byte	0x9
 1177 037a 2D       		.byte	0x2d
 1178 037b BD030000 		.4byte	0x3bd
 1179 037f 00       		.byte	0
 1180 0380 06       		.uleb128 0x6
 1181 0381 7F030000 		.4byte	.LASF56
 1182 0385 09       		.byte	0x9
 1183 0386 2F       		.byte	0x2f
 1184 0387 BD030000 		.4byte	0x3bd
 1185 038b 04       		.byte	0x4
 1186 038c 06       		.uleb128 0x6
ARM GAS  /var/folders/qh/xwg3v3kj02qbxczjpdb8lzfr0000gn/T//ccIgkMVn.s 			page 22


 1187 038d 74000000 		.4byte	.LASF57
 1188 0391 09       		.byte	0x9
 1189 0392 31       		.byte	0x31
 1190 0393 BD030000 		.4byte	0x3bd
 1191 0397 08       		.byte	0x8
 1192 0398 06       		.uleb128 0x6
 1193 0399 2C020000 		.4byte	.LASF58
 1194 039d 09       		.byte	0x9
 1195 039e 32       		.byte	0x32
 1196 039f BD030000 		.4byte	0x3bd
 1197 03a3 0C       		.byte	0xc
 1198 03a4 06       		.uleb128 0x6
 1199 03a5 54040000 		.4byte	.LASF59
 1200 03a9 09       		.byte	0x9
 1201 03aa 33       		.byte	0x33
 1202 03ab 1F030000 		.4byte	0x31f
 1203 03af 10       		.byte	0x10
 1204 03b0 06       		.uleb128 0x6
 1205 03b1 41010000 		.4byte	.LASF60
 1206 03b5 09       		.byte	0x9
 1207 03b6 35       		.byte	0x35
 1208 03b7 1F030000 		.4byte	0x31f
 1209 03bb 1C       		.byte	0x1c
 1210 03bc 00       		.byte	0
 1211 03bd 09       		.uleb128 0x9
 1212 03be 04       		.byte	0x4
 1213 03bf CA000000 		.4byte	0xca
 1214 03c3 04       		.uleb128 0x4
 1215 03c4 2E000000 		.4byte	.LASF61
 1216 03c8 09       		.byte	0x9
 1217 03c9 37       		.byte	0x37
 1218 03ca 6C030000 		.4byte	0x36c
 1219 03ce 0C       		.uleb128 0xc
 1220 03cf 04       		.byte	0x4
 1221 03d0 05       		.byte	0x5
 1222 03d1 8F       		.byte	0x8f
 1223 03d2 03040000 		.4byte	0x403
 1224 03d6 0D       		.uleb128 0xd
 1225 03d7 13000000 		.4byte	.LASF62
 1226 03db 05       		.byte	0x5
 1227 03dc 96       		.byte	0x96
 1228 03dd CA000000 		.4byte	0xca
 1229 03e1 0D       		.uleb128 0xd
 1230 03e2 5C000000 		.4byte	.LASF63
 1231 03e6 05       		.byte	0x5
 1232 03e7 9D       		.byte	0x9d
 1233 03e8 CA000000 		.4byte	0xca
 1234 03ec 0D       		.uleb128 0xd
 1235 03ed 7A040000 		.4byte	.LASF64
 1236 03f1 05       		.byte	0x5
 1237 03f2 A4       		.byte	0xa4
 1238 03f3 5B020000 		.4byte	0x25b
 1239 03f7 0D       		.uleb128 0xd
 1240 03f8 AC030000 		.4byte	.LASF65
 1241 03fc 05       		.byte	0x5
 1242 03fd AB       		.byte	0xab
 1243 03fe D5000000 		.4byte	0xd5
ARM GAS  /var/folders/qh/xwg3v3kj02qbxczjpdb8lzfr0000gn/T//ccIgkMVn.s 			page 23


 1244 0402 00       		.byte	0
 1245 0403 09       		.uleb128 0x9
 1246 0404 04       		.byte	0x4
 1247 0405 09040000 		.4byte	0x409
 1248 0409 0E       		.uleb128 0xe
 1249 040a 0E040000 		.4byte	0x40e
 1250 040e 03       		.uleb128 0x3
 1251 040f 01       		.byte	0x1
 1252 0410 08       		.byte	0x8
 1253 0411 E6030000 		.4byte	.LASF66
 1254 0415 09       		.uleb128 0x9
 1255 0416 04       		.byte	0x4
 1256 0417 61030000 		.4byte	0x361
 1257 041b 0F       		.uleb128 0xf
 1258 041c 26010000 		.4byte	.LASF67
 1259 0420 01       		.byte	0x1
 1260 0421 41       		.byte	0x41
 1261 0422 00000000 		.4byte	.LFB7
 1262 0426 26000000 		.4byte	.LFE7-.LFB7
 1263 042a 01       		.uleb128 0x1
 1264 042b 9C       		.byte	0x9c
 1265 042c 8C040000 		.4byte	0x48c
 1266 0430 10       		.uleb128 0x10
 1267 0431 6D627000 		.ascii	"mbp\000"
 1268 0435 01       		.byte	0x1
 1269 0436 41       		.byte	0x41
 1270 0437 8C040000 		.4byte	0x48c
 1271 043b 00000000 		.4byte	.LLST0
 1272 043f 10       		.uleb128 0x10
 1273 0440 62756600 		.ascii	"buf\000"
 1274 0444 01       		.byte	0x1
 1275 0445 41       		.byte	0x41
 1276 0446 BD030000 		.4byte	0x3bd
 1277 044a 2C000000 		.4byte	.LLST1
 1278 044e 10       		.uleb128 0x10
 1279 044f 6E00     		.ascii	"n\000"
 1280 0451 01       		.byte	0x1
 1281 0452 41       		.byte	0x41
 1282 0453 EB000000 		.4byte	0xeb
 1283 0457 70000000 		.4byte	.LLST2
 1284 045b 11       		.uleb128 0x11
 1285 045c 1A000000 		.4byte	.LVL4
 1286 0460 5C090000 		.4byte	0x95c
 1287 0464 76040000 		.4byte	0x476
 1288 0468 12       		.uleb128 0x12
 1289 0469 01       		.uleb128 0x1
 1290 046a 51       		.byte	0x51
 1291 046b 03       		.uleb128 0x3
 1292 046c F3       		.byte	0xf3
 1293 046d 01       		.uleb128 0x1
 1294 046e 52       		.byte	0x52
 1295 046f 12       		.uleb128 0x12
 1296 0470 01       		.uleb128 0x1
 1297 0471 50       		.byte	0x50
 1298 0472 02       		.uleb128 0x2
 1299 0473 74       		.byte	0x74
 1300 0474 1C       		.sleb128 28
ARM GAS  /var/folders/qh/xwg3v3kj02qbxczjpdb8lzfr0000gn/T//ccIgkMVn.s 			page 24


 1301 0475 00       		.byte	0
 1302 0476 13       		.uleb128 0x13
 1303 0477 24000000 		.4byte	.LVL5
 1304 047b 5C090000 		.4byte	0x95c
 1305 047f 12       		.uleb128 0x12
 1306 0480 01       		.uleb128 0x1
 1307 0481 51       		.byte	0x51
 1308 0482 01       		.uleb128 0x1
 1309 0483 30       		.byte	0x30
 1310 0484 12       		.uleb128 0x12
 1311 0485 01       		.uleb128 0x1
 1312 0486 50       		.byte	0x50
 1313 0487 02       		.uleb128 0x2
 1314 0488 74       		.byte	0x74
 1315 0489 10       		.sleb128 16
 1316 048a 00       		.byte	0
 1317 048b 00       		.byte	0
 1318 048c 09       		.uleb128 0x9
 1319 048d 04       		.byte	0x4
 1320 048e C3030000 		.4byte	0x3c3
 1321 0492 0F       		.uleb128 0xf
 1322 0493 0F030000 		.4byte	.LASF68
 1323 0497 01       		.byte	0x1
 1324 0498 54       		.byte	0x54
 1325 0499 00000000 		.4byte	.LFB8
 1326 049d 34000000 		.4byte	.LFE8-.LFB8
 1327 04a1 01       		.uleb128 0x1
 1328 04a2 9C       		.byte	0x9c
 1329 04a3 FF040000 		.4byte	0x4ff
 1330 04a7 10       		.uleb128 0x10
 1331 04a8 6D627000 		.ascii	"mbp\000"
 1332 04ac 01       		.byte	0x1
 1333 04ad 54       		.byte	0x54
 1334 04ae 8C040000 		.4byte	0x48c
 1335 04b2 91000000 		.4byte	.LLST3
 1336 04b6 14       		.uleb128 0x14
 1337 04b7 0A000000 		.4byte	.LVL8
 1338 04bb 78090000 		.4byte	0x978
 1339 04bf 11       		.uleb128 0x11
 1340 04c0 1E000000 		.4byte	.LVL9
 1341 04c4 7F090000 		.4byte	0x97f
 1342 04c8 D3040000 		.4byte	0x4d3
 1343 04cc 12       		.uleb128 0x12
 1344 04cd 01       		.uleb128 0x1
 1345 04ce 50       		.byte	0x50
 1346 04cf 02       		.uleb128 0x2
 1347 04d0 74       		.byte	0x74
 1348 04d1 1C       		.sleb128 28
 1349 04d2 00       		.byte	0
 1350 04d3 11       		.uleb128 0x11
 1351 04d4 28000000 		.4byte	.LVL10
 1352 04d8 7F090000 		.4byte	0x97f
 1353 04dc EC040000 		.4byte	0x4ec
 1354 04e0 12       		.uleb128 0x12
 1355 04e1 01       		.uleb128 0x1
 1356 04e2 51       		.byte	0x51
 1357 04e3 01       		.uleb128 0x1
ARM GAS  /var/folders/qh/xwg3v3kj02qbxczjpdb8lzfr0000gn/T//ccIgkMVn.s 			page 25


 1358 04e4 30       		.byte	0x30
 1359 04e5 12       		.uleb128 0x12
 1360 04e6 01       		.uleb128 0x1
 1361 04e7 50       		.byte	0x50
 1362 04e8 02       		.uleb128 0x2
 1363 04e9 74       		.byte	0x74
 1364 04ea 10       		.sleb128 16
 1365 04eb 00       		.byte	0
 1366 04ec 14       		.uleb128 0x14
 1367 04ed 2C000000 		.4byte	.LVL11
 1368 04f1 95090000 		.4byte	0x995
 1369 04f5 14       		.uleb128 0x14
 1370 04f6 30000000 		.4byte	.LVL12
 1371 04fa 9C090000 		.4byte	0x99c
 1372 04fe 00       		.byte	0
 1373 04ff 15       		.uleb128 0x15
 1374 0500 24000000 		.4byte	.LASF70
 1375 0504 01       		.byte	0x1
 1376 0505 8F       		.byte	0x8f
 1377 0506 CA000000 		.4byte	0xca
 1378 050a 00000000 		.4byte	.LFB10
 1379 050e 3E000000 		.4byte	.LFE10-.LFB10
 1380 0512 01       		.uleb128 0x1
 1381 0513 9C       		.byte	0x9c
 1382 0514 95050000 		.4byte	0x595
 1383 0518 10       		.uleb128 0x10
 1384 0519 6D627000 		.ascii	"mbp\000"
 1385 051d 01       		.byte	0x1
 1386 051e 8F       		.byte	0x8f
 1387 051f 8C040000 		.4byte	0x48c
 1388 0523 BD000000 		.4byte	.LLST4
 1389 0527 10       		.uleb128 0x10
 1390 0528 6D736700 		.ascii	"msg\000"
 1391 052c 01       		.byte	0x1
 1392 052d 8F       		.byte	0x8f
 1393 052e CA000000 		.4byte	0xca
 1394 0532 F4000000 		.4byte	.LLST5
 1395 0536 16       		.uleb128 0x16
 1396 0537 38030000 		.4byte	.LASF69
 1397 053b 01       		.byte	0x1
 1398 053c 8F       		.byte	0x8f
 1399 053d E0000000 		.4byte	0xe0
 1400 0541 2B010000 		.4byte	.LLST6
 1401 0545 17       		.uleb128 0x17
 1402 0546 13000000 		.4byte	.LASF62
 1403 054a 01       		.byte	0x1
 1404 054b 90       		.byte	0x90
 1405 054c CA000000 		.4byte	0xca
 1406 0550 57010000 		.4byte	.LLST7
 1407 0554 14       		.uleb128 0x14
 1408 0555 0C000000 		.4byte	.LVL15
 1409 0559 A3090000 		.4byte	0x9a3
 1410 055d 11       		.uleb128 0x11
 1411 055e 16000000 		.4byte	.LVL16
 1412 0562 AA090000 		.4byte	0x9aa
 1413 0566 77050000 		.4byte	0x577
 1414 056a 12       		.uleb128 0x12
ARM GAS  /var/folders/qh/xwg3v3kj02qbxczjpdb8lzfr0000gn/T//ccIgkMVn.s 			page 26


 1415 056b 01       		.uleb128 0x1
 1416 056c 51       		.byte	0x51
 1417 056d 02       		.uleb128 0x2
 1418 056e 75       		.byte	0x75
 1419 056f 00       		.sleb128 0
 1420 0570 12       		.uleb128 0x12
 1421 0571 01       		.uleb128 0x1
 1422 0572 50       		.byte	0x50
 1423 0573 02       		.uleb128 0x2
 1424 0574 74       		.byte	0x74
 1425 0575 1C       		.sleb128 28
 1426 0576 00       		.byte	0
 1427 0577 11       		.uleb128 0x11
 1428 0578 30000000 		.4byte	.LVL19
 1429 057c C4090000 		.4byte	0x9c4
 1430 0580 8B050000 		.4byte	0x58b
 1431 0584 12       		.uleb128 0x12
 1432 0585 01       		.uleb128 0x1
 1433 0586 50       		.byte	0x50
 1434 0587 02       		.uleb128 0x2
 1435 0588 74       		.byte	0x74
 1436 0589 10       		.sleb128 16
 1437 058a 00       		.byte	0
 1438 058b 14       		.uleb128 0x14
 1439 058c 34000000 		.4byte	.LVL20
 1440 0590 95090000 		.4byte	0x995
 1441 0594 00       		.byte	0
 1442 0595 15       		.uleb128 0x15
 1443 0596 C2030000 		.4byte	.LASF71
 1444 059a 01       		.byte	0x1
 1445 059b 73       		.byte	0x73
 1446 059c CA000000 		.4byte	0xca
 1447 05a0 00000000 		.4byte	.LFB9
 1448 05a4 24000000 		.4byte	.LFE9-.LFB9
 1449 05a8 01       		.uleb128 0x1
 1450 05a9 9C       		.byte	0x9c
 1451 05aa 1D060000 		.4byte	0x61d
 1452 05ae 10       		.uleb128 0x10
 1453 05af 6D627000 		.ascii	"mbp\000"
 1454 05b3 01       		.byte	0x1
 1455 05b4 73       		.byte	0x73
 1456 05b5 8C040000 		.4byte	0x48c
 1457 05b9 80010000 		.4byte	.LLST8
 1458 05bd 10       		.uleb128 0x10
 1459 05be 6D736700 		.ascii	"msg\000"
 1460 05c2 01       		.byte	0x1
 1461 05c3 73       		.byte	0x73
 1462 05c4 CA000000 		.4byte	0xca
 1463 05c8 AC010000 		.4byte	.LLST9
 1464 05cc 16       		.uleb128 0x16
 1465 05cd 38030000 		.4byte	.LASF69
 1466 05d1 01       		.byte	0x1
 1467 05d2 73       		.byte	0x73
 1468 05d3 E0000000 		.4byte	0xe0
 1469 05d7 D8010000 		.4byte	.LLST10
 1470 05db 17       		.uleb128 0x17
 1471 05dc 13000000 		.4byte	.LASF62
ARM GAS  /var/folders/qh/xwg3v3kj02qbxczjpdb8lzfr0000gn/T//ccIgkMVn.s 			page 27


 1472 05e0 01       		.byte	0x1
 1473 05e1 74       		.byte	0x74
 1474 05e2 CA000000 		.4byte	0xca
 1475 05e6 04020000 		.4byte	.LLST11
 1476 05ea 14       		.uleb128 0x14
 1477 05eb 0E000000 		.4byte	.LVL26
 1478 05ef 78090000 		.4byte	0x978
 1479 05f3 11       		.uleb128 0x11
 1480 05f4 18000000 		.4byte	.LVL27
 1481 05f8 FF040000 		.4byte	0x4ff
 1482 05fc 13060000 		.4byte	0x613
 1483 0600 12       		.uleb128 0x12
 1484 0601 01       		.uleb128 0x1
 1485 0602 52       		.byte	0x52
 1486 0603 02       		.uleb128 0x2
 1487 0604 74       		.byte	0x74
 1488 0605 00       		.sleb128 0
 1489 0606 12       		.uleb128 0x12
 1490 0607 01       		.uleb128 0x1
 1491 0608 51       		.byte	0x51
 1492 0609 02       		.uleb128 0x2
 1493 060a 75       		.byte	0x75
 1494 060b 00       		.sleb128 0
 1495 060c 12       		.uleb128 0x12
 1496 060d 01       		.uleb128 0x1
 1497 060e 50       		.byte	0x50
 1498 060f 02       		.uleb128 0x2
 1499 0610 76       		.byte	0x76
 1500 0611 00       		.sleb128 0
 1501 0612 00       		.byte	0
 1502 0613 14       		.uleb128 0x14
 1503 0614 1E000000 		.4byte	.LVL29
 1504 0618 9C090000 		.4byte	0x99c
 1505 061c 00       		.byte	0
 1506 061d 15       		.uleb128 0x15
 1507 061e 1A000000 		.4byte	.LASF72
 1508 0622 01       		.byte	0x1
 1509 0623 AE       		.byte	0xae
 1510 0624 CA000000 		.4byte	0xca
 1511 0628 00000000 		.4byte	.LFB11
 1512 062c 3A000000 		.4byte	.LFE11-.LFB11
 1513 0630 01       		.uleb128 0x1
 1514 0631 9C       		.byte	0x9c
 1515 0632 6E060000 		.4byte	0x66e
 1516 0636 10       		.uleb128 0x10
 1517 0637 6D627000 		.ascii	"mbp\000"
 1518 063b 01       		.byte	0x1
 1519 063c AE       		.byte	0xae
 1520 063d 8C040000 		.4byte	0x48c
 1521 0641 2D020000 		.4byte	.LLST12
 1522 0645 10       		.uleb128 0x10
 1523 0646 6D736700 		.ascii	"msg\000"
 1524 064a 01       		.byte	0x1
 1525 064b AE       		.byte	0xae
 1526 064c CA000000 		.4byte	0xca
 1527 0650 64020000 		.4byte	.LLST13
 1528 0654 14       		.uleb128 0x14
ARM GAS  /var/folders/qh/xwg3v3kj02qbxczjpdb8lzfr0000gn/T//ccIgkMVn.s 			page 28


 1529 0655 0A000000 		.4byte	.LVL34
 1530 0659 D5090000 		.4byte	0x9d5
 1531 065d 13       		.uleb128 0x13
 1532 065e 2A000000 		.4byte	.LVL35
 1533 0662 C4090000 		.4byte	0x9c4
 1534 0666 12       		.uleb128 0x12
 1535 0667 01       		.uleb128 0x1
 1536 0668 50       		.byte	0x50
 1537 0669 02       		.uleb128 0x2
 1538 066a 74       		.byte	0x74
 1539 066b 10       		.sleb128 16
 1540 066c 00       		.byte	0
 1541 066d 00       		.byte	0
 1542 066e 15       		.uleb128 0x15
 1543 066f 65000000 		.4byte	.LASF73
 1544 0673 01       		.byte	0x1
 1545 0674 EC       		.byte	0xec
 1546 0675 CA000000 		.4byte	0xca
 1547 0679 00000000 		.4byte	.LFB13
 1548 067d 40000000 		.4byte	.LFE13-.LFB13
 1549 0681 01       		.uleb128 0x1
 1550 0682 9C       		.byte	0x9c
 1551 0683 04070000 		.4byte	0x704
 1552 0687 10       		.uleb128 0x10
 1553 0688 6D627000 		.ascii	"mbp\000"
 1554 068c 01       		.byte	0x1
 1555 068d EC       		.byte	0xec
 1556 068e 8C040000 		.4byte	0x48c
 1557 0692 9B020000 		.4byte	.LLST14
 1558 0696 10       		.uleb128 0x10
 1559 0697 6D736700 		.ascii	"msg\000"
 1560 069b 01       		.byte	0x1
 1561 069c EC       		.byte	0xec
 1562 069d CA000000 		.4byte	0xca
 1563 06a1 D2020000 		.4byte	.LLST15
 1564 06a5 16       		.uleb128 0x16
 1565 06a6 38030000 		.4byte	.LASF69
 1566 06aa 01       		.byte	0x1
 1567 06ab EC       		.byte	0xec
 1568 06ac E0000000 		.4byte	0xe0
 1569 06b0 09030000 		.4byte	.LLST16
 1570 06b4 17       		.uleb128 0x17
 1571 06b5 13000000 		.4byte	.LASF62
 1572 06b9 01       		.byte	0x1
 1573 06ba ED       		.byte	0xed
 1574 06bb CA000000 		.4byte	0xca
 1575 06bf 35030000 		.4byte	.LLST17
 1576 06c3 14       		.uleb128 0x14
 1577 06c4 0C000000 		.4byte	.LVL40
 1578 06c8 A3090000 		.4byte	0x9a3
 1579 06cc 11       		.uleb128 0x11
 1580 06cd 16000000 		.4byte	.LVL41
 1581 06d1 AA090000 		.4byte	0x9aa
 1582 06d5 E6060000 		.4byte	0x6e6
 1583 06d9 12       		.uleb128 0x12
 1584 06da 01       		.uleb128 0x1
 1585 06db 51       		.byte	0x51
ARM GAS  /var/folders/qh/xwg3v3kj02qbxczjpdb8lzfr0000gn/T//ccIgkMVn.s 			page 29


 1586 06dc 02       		.uleb128 0x2
 1587 06dd 75       		.byte	0x75
 1588 06de 00       		.sleb128 0
 1589 06df 12       		.uleb128 0x12
 1590 06e0 01       		.uleb128 0x1
 1591 06e1 50       		.byte	0x50
 1592 06e2 02       		.uleb128 0x2
 1593 06e3 74       		.byte	0x74
 1594 06e4 1C       		.sleb128 28
 1595 06e5 00       		.byte	0
 1596 06e6 11       		.uleb128 0x11
 1597 06e7 30000000 		.4byte	.LVL44
 1598 06eb C4090000 		.4byte	0x9c4
 1599 06ef FA060000 		.4byte	0x6fa
 1600 06f3 12       		.uleb128 0x12
 1601 06f4 01       		.uleb128 0x1
 1602 06f5 50       		.byte	0x50
 1603 06f6 02       		.uleb128 0x2
 1604 06f7 74       		.byte	0x74
 1605 06f8 10       		.sleb128 16
 1606 06f9 00       		.byte	0
 1607 06fa 14       		.uleb128 0x14
 1608 06fb 34000000 		.4byte	.LVL45
 1609 06ff 95090000 		.4byte	0x995
 1610 0703 00       		.byte	0
 1611 0704 15       		.uleb128 0x15
 1612 0705 20040000 		.4byte	.LASF74
 1613 0709 01       		.byte	0x1
 1614 070a D0       		.byte	0xd0
 1615 070b CA000000 		.4byte	0xca
 1616 070f 00000000 		.4byte	.LFB12
 1617 0713 24000000 		.4byte	.LFE12-.LFB12
 1618 0717 01       		.uleb128 0x1
 1619 0718 9C       		.byte	0x9c
 1620 0719 8C070000 		.4byte	0x78c
 1621 071d 10       		.uleb128 0x10
 1622 071e 6D627000 		.ascii	"mbp\000"
 1623 0722 01       		.byte	0x1
 1624 0723 D0       		.byte	0xd0
 1625 0724 8C040000 		.4byte	0x48c
 1626 0728 5E030000 		.4byte	.LLST18
 1627 072c 10       		.uleb128 0x10
 1628 072d 6D736700 		.ascii	"msg\000"
 1629 0731 01       		.byte	0x1
 1630 0732 D0       		.byte	0xd0
 1631 0733 CA000000 		.4byte	0xca
 1632 0737 8A030000 		.4byte	.LLST19
 1633 073b 16       		.uleb128 0x16
 1634 073c 38030000 		.4byte	.LASF69
 1635 0740 01       		.byte	0x1
 1636 0741 D0       		.byte	0xd0
 1637 0742 E0000000 		.4byte	0xe0
 1638 0746 B6030000 		.4byte	.LLST20
 1639 074a 17       		.uleb128 0x17
 1640 074b 13000000 		.4byte	.LASF62
 1641 074f 01       		.byte	0x1
 1642 0750 D1       		.byte	0xd1
ARM GAS  /var/folders/qh/xwg3v3kj02qbxczjpdb8lzfr0000gn/T//ccIgkMVn.s 			page 30


 1643 0751 CA000000 		.4byte	0xca
 1644 0755 E2030000 		.4byte	.LLST21
 1645 0759 14       		.uleb128 0x14
 1646 075a 0E000000 		.4byte	.LVL51
 1647 075e 78090000 		.4byte	0x978
 1648 0762 11       		.uleb128 0x11
 1649 0763 18000000 		.4byte	.LVL52
 1650 0767 6E060000 		.4byte	0x66e
 1651 076b 82070000 		.4byte	0x782
 1652 076f 12       		.uleb128 0x12
 1653 0770 01       		.uleb128 0x1
 1654 0771 52       		.byte	0x52
 1655 0772 02       		.uleb128 0x2
 1656 0773 74       		.byte	0x74
 1657 0774 00       		.sleb128 0
 1658 0775 12       		.uleb128 0x12
 1659 0776 01       		.uleb128 0x1
 1660 0777 51       		.byte	0x51
 1661 0778 02       		.uleb128 0x2
 1662 0779 75       		.byte	0x75
 1663 077a 00       		.sleb128 0
 1664 077b 12       		.uleb128 0x12
 1665 077c 01       		.uleb128 0x1
 1666 077d 50       		.byte	0x50
 1667 077e 02       		.uleb128 0x2
 1668 077f 76       		.byte	0x76
 1669 0780 00       		.sleb128 0
 1670 0781 00       		.byte	0
 1671 0782 14       		.uleb128 0x14
 1672 0783 1E000000 		.4byte	.LVL54
 1673 0787 9C090000 		.4byte	0x99c
 1674 078b 00       		.byte	0
 1675 078c 18       		.uleb128 0x18
 1676 078d 36000000 		.4byte	.LASF75
 1677 0791 01       		.byte	0x1
 1678 0792 0B01     		.2byte	0x10b
 1679 0794 CA000000 		.4byte	0xca
 1680 0798 00000000 		.4byte	.LFB14
 1681 079c 3C000000 		.4byte	.LFE14-.LFB14
 1682 07a0 01       		.uleb128 0x1
 1683 07a1 9C       		.byte	0x9c
 1684 07a2 E0070000 		.4byte	0x7e0
 1685 07a6 19       		.uleb128 0x19
 1686 07a7 6D627000 		.ascii	"mbp\000"
 1687 07ab 01       		.byte	0x1
 1688 07ac 0B01     		.2byte	0x10b
 1689 07ae 8C040000 		.4byte	0x48c
 1690 07b2 0B040000 		.4byte	.LLST22
 1691 07b6 19       		.uleb128 0x19
 1692 07b7 6D736700 		.ascii	"msg\000"
 1693 07bb 01       		.byte	0x1
 1694 07bc 0B01     		.2byte	0x10b
 1695 07be CA000000 		.4byte	0xca
 1696 07c2 42040000 		.4byte	.LLST23
 1697 07c6 14       		.uleb128 0x14
 1698 07c7 0A000000 		.4byte	.LVL59
 1699 07cb D5090000 		.4byte	0x9d5
ARM GAS  /var/folders/qh/xwg3v3kj02qbxczjpdb8lzfr0000gn/T//ccIgkMVn.s 			page 31


 1700 07cf 13       		.uleb128 0x13
 1701 07d0 2A000000 		.4byte	.LVL60
 1702 07d4 C4090000 		.4byte	0x9c4
 1703 07d8 12       		.uleb128 0x12
 1704 07d9 01       		.uleb128 0x1
 1705 07da 50       		.byte	0x50
 1706 07db 02       		.uleb128 0x2
 1707 07dc 74       		.byte	0x74
 1708 07dd 10       		.sleb128 16
 1709 07de 00       		.byte	0
 1710 07df 00       		.byte	0
 1711 07e0 18       		.uleb128 0x18
 1712 07e1 CB010000 		.4byte	.LASF76
 1713 07e5 01       		.byte	0x1
 1714 07e6 4901     		.2byte	0x149
 1715 07e8 CA000000 		.4byte	0xca
 1716 07ec 00000000 		.4byte	.LFB16
 1717 07f0 40000000 		.4byte	.LFE16-.LFB16
 1718 07f4 01       		.uleb128 0x1
 1719 07f5 9C       		.byte	0x9c
 1720 07f6 7B080000 		.4byte	0x87b
 1721 07fa 19       		.uleb128 0x19
 1722 07fb 6D627000 		.ascii	"mbp\000"
 1723 07ff 01       		.byte	0x1
 1724 0800 4901     		.2byte	0x149
 1725 0802 8C040000 		.4byte	0x48c
 1726 0806 79040000 		.4byte	.LLST24
 1727 080a 1A       		.uleb128 0x1a
 1728 080b 0D020000 		.4byte	.LASF77
 1729 080f 01       		.byte	0x1
 1730 0810 4901     		.2byte	0x149
 1731 0812 BD030000 		.4byte	0x3bd
 1732 0816 B0040000 		.4byte	.LLST25
 1733 081a 1A       		.uleb128 0x1a
 1734 081b 38030000 		.4byte	.LASF69
 1735 081f 01       		.byte	0x1
 1736 0820 4901     		.2byte	0x149
 1737 0822 E0000000 		.4byte	0xe0
 1738 0826 E7040000 		.4byte	.LLST26
 1739 082a 1B       		.uleb128 0x1b
 1740 082b 13000000 		.4byte	.LASF62
 1741 082f 01       		.byte	0x1
 1742 0830 4A01     		.2byte	0x14a
 1743 0832 CA000000 		.4byte	0xca
 1744 0836 13050000 		.4byte	.LLST27
 1745 083a 14       		.uleb128 0x14
 1746 083b 0C000000 		.4byte	.LVL65
 1747 083f A3090000 		.4byte	0x9a3
 1748 0843 11       		.uleb128 0x11
 1749 0844 16000000 		.4byte	.LVL66
 1750 0848 AA090000 		.4byte	0x9aa
 1751 084c 5D080000 		.4byte	0x85d
 1752 0850 12       		.uleb128 0x12
 1753 0851 01       		.uleb128 0x1
 1754 0852 51       		.byte	0x51
 1755 0853 02       		.uleb128 0x2
 1756 0854 75       		.byte	0x75
ARM GAS  /var/folders/qh/xwg3v3kj02qbxczjpdb8lzfr0000gn/T//ccIgkMVn.s 			page 32


 1757 0855 00       		.sleb128 0
 1758 0856 12       		.uleb128 0x12
 1759 0857 01       		.uleb128 0x1
 1760 0858 50       		.byte	0x50
 1761 0859 02       		.uleb128 0x2
 1762 085a 74       		.byte	0x74
 1763 085b 10       		.sleb128 16
 1764 085c 00       		.byte	0
 1765 085d 11       		.uleb128 0x11
 1766 085e 32000000 		.4byte	.LVL69
 1767 0862 C4090000 		.4byte	0x9c4
 1768 0866 71080000 		.4byte	0x871
 1769 086a 12       		.uleb128 0x12
 1770 086b 01       		.uleb128 0x1
 1771 086c 50       		.byte	0x50
 1772 086d 02       		.uleb128 0x2
 1773 086e 74       		.byte	0x74
 1774 086f 1C       		.sleb128 28
 1775 0870 00       		.byte	0
 1776 0871 14       		.uleb128 0x14
 1777 0872 36000000 		.4byte	.LVL70
 1778 0876 95090000 		.4byte	0x995
 1779 087a 00       		.byte	0
 1780 087b 18       		.uleb128 0x18
 1781 087c 40040000 		.4byte	.LASF78
 1782 0880 01       		.byte	0x1
 1783 0881 2D01     		.2byte	0x12d
 1784 0883 CA000000 		.4byte	0xca
 1785 0887 00000000 		.4byte	.LFB15
 1786 088b 24000000 		.4byte	.LFE15-.LFB15
 1787 088f 01       		.uleb128 0x1
 1788 0890 9C       		.byte	0x9c
 1789 0891 08090000 		.4byte	0x908
 1790 0895 19       		.uleb128 0x19
 1791 0896 6D627000 		.ascii	"mbp\000"
 1792 089a 01       		.byte	0x1
 1793 089b 2D01     		.2byte	0x12d
 1794 089d 8C040000 		.4byte	0x48c
 1795 08a1 3C050000 		.4byte	.LLST28
 1796 08a5 1A       		.uleb128 0x1a
 1797 08a6 0D020000 		.4byte	.LASF77
 1798 08aa 01       		.byte	0x1
 1799 08ab 2D01     		.2byte	0x12d
 1800 08ad BD030000 		.4byte	0x3bd
 1801 08b1 68050000 		.4byte	.LLST29
 1802 08b5 1A       		.uleb128 0x1a
 1803 08b6 38030000 		.4byte	.LASF69
 1804 08ba 01       		.byte	0x1
 1805 08bb 2D01     		.2byte	0x12d
 1806 08bd E0000000 		.4byte	0xe0
 1807 08c1 94050000 		.4byte	.LLST30
 1808 08c5 1B       		.uleb128 0x1b
 1809 08c6 13000000 		.4byte	.LASF62
 1810 08ca 01       		.byte	0x1
 1811 08cb 2E01     		.2byte	0x12e
 1812 08cd CA000000 		.4byte	0xca
 1813 08d1 C0050000 		.4byte	.LLST31
ARM GAS  /var/folders/qh/xwg3v3kj02qbxczjpdb8lzfr0000gn/T//ccIgkMVn.s 			page 33


 1814 08d5 14       		.uleb128 0x14
 1815 08d6 0E000000 		.4byte	.LVL76
 1816 08da 78090000 		.4byte	0x978
 1817 08de 11       		.uleb128 0x11
 1818 08df 18000000 		.4byte	.LVL77
 1819 08e3 E0070000 		.4byte	0x7e0
 1820 08e7 FE080000 		.4byte	0x8fe
 1821 08eb 12       		.uleb128 0x12
 1822 08ec 01       		.uleb128 0x1
 1823 08ed 52       		.byte	0x52
 1824 08ee 02       		.uleb128 0x2
 1825 08ef 74       		.byte	0x74
 1826 08f0 00       		.sleb128 0
 1827 08f1 12       		.uleb128 0x12
 1828 08f2 01       		.uleb128 0x1
 1829 08f3 51       		.byte	0x51
 1830 08f4 02       		.uleb128 0x2
 1831 08f5 75       		.byte	0x75
 1832 08f6 00       		.sleb128 0
 1833 08f7 12       		.uleb128 0x12
 1834 08f8 01       		.uleb128 0x1
 1835 08f9 50       		.byte	0x50
 1836 08fa 02       		.uleb128 0x2
 1837 08fb 76       		.byte	0x76
 1838 08fc 00       		.sleb128 0
 1839 08fd 00       		.byte	0
 1840 08fe 14       		.uleb128 0x14
 1841 08ff 1E000000 		.4byte	.LVL79
 1842 0903 9C090000 		.4byte	0x99c
 1843 0907 00       		.byte	0
 1844 0908 18       		.uleb128 0x18
 1845 0909 A9010000 		.4byte	.LASF79
 1846 090d 01       		.byte	0x1
 1847 090e 6801     		.2byte	0x168
 1848 0910 CA000000 		.4byte	0xca
 1849 0914 00000000 		.4byte	.LFB17
 1850 0918 3C000000 		.4byte	.LFE17-.LFB17
 1851 091c 01       		.uleb128 0x1
 1852 091d 9C       		.byte	0x9c
 1853 091e 5C090000 		.4byte	0x95c
 1854 0922 19       		.uleb128 0x19
 1855 0923 6D627000 		.ascii	"mbp\000"
 1856 0927 01       		.byte	0x1
 1857 0928 6801     		.2byte	0x168
 1858 092a 8C040000 		.4byte	0x48c
 1859 092e E9050000 		.4byte	.LLST32
 1860 0932 1A       		.uleb128 0x1a
 1861 0933 0D020000 		.4byte	.LASF77
 1862 0937 01       		.byte	0x1
 1863 0938 6801     		.2byte	0x168
 1864 093a BD030000 		.4byte	0x3bd
 1865 093e 20060000 		.4byte	.LLST33
 1866 0942 14       		.uleb128 0x14
 1867 0943 0A000000 		.4byte	.LVL84
 1868 0947 D5090000 		.4byte	0x9d5
 1869 094b 13       		.uleb128 0x13
 1870 094c 2C000000 		.4byte	.LVL85
ARM GAS  /var/folders/qh/xwg3v3kj02qbxczjpdb8lzfr0000gn/T//ccIgkMVn.s 			page 34


 1871 0950 C4090000 		.4byte	0x9c4
 1872 0954 12       		.uleb128 0x12
 1873 0955 01       		.uleb128 0x1
 1874 0956 50       		.byte	0x50
 1875 0957 02       		.uleb128 0x2
 1876 0958 74       		.byte	0x74
 1877 0959 1C       		.sleb128 28
 1878 095a 00       		.byte	0
 1879 095b 00       		.byte	0
 1880 095c 1C       		.uleb128 0x1c
 1881 095d A0040000 		.4byte	.LASF80
 1882 0961 07       		.byte	0x7
 1883 0962 2E       		.byte	0x2e
 1884 0963 72090000 		.4byte	0x972
 1885 0967 1D       		.uleb128 0x1d
 1886 0968 72090000 		.4byte	0x972
 1887 096c 1D       		.uleb128 0x1d
 1888 096d EB000000 		.4byte	0xeb
 1889 0971 00       		.byte	0
 1890 0972 09       		.uleb128 0x9
 1891 0973 04       		.byte	0x4
 1892 0974 1F030000 		.4byte	0x31f
 1893 0978 1E       		.uleb128 0x1e
 1894 0979 3D030000 		.4byte	.LASF82
 1895 097d 0A       		.byte	0xa
 1896 097e E0       		.byte	0xe0
 1897 097f 1C       		.uleb128 0x1c
 1898 0980 66040000 		.4byte	.LASF81
 1899 0984 07       		.byte	0x7
 1900 0985 30       		.byte	0x30
 1901 0986 95090000 		.4byte	0x995
 1902 098a 1D       		.uleb128 0x1d
 1903 098b 72090000 		.4byte	0x972
 1904 098f 1D       		.uleb128 0x1d
 1905 0990 EB000000 		.4byte	0xeb
 1906 0994 00       		.byte	0
 1907 0995 1E       		.uleb128 0x1e
 1908 0996 F9000000 		.4byte	.LASF83
 1909 099a 0B       		.byte	0xb
 1910 099b 95       		.byte	0x95
 1911 099c 1E       		.uleb128 0x1e
 1912 099d 12020000 		.4byte	.LASF84
 1913 09a1 0A       		.byte	0xa
 1914 09a2 E1       		.byte	0xe1
 1915 09a3 1E       		.uleb128 0x1e
 1916 09a4 DE010000 		.4byte	.LASF85
 1917 09a8 0A       		.byte	0xa
 1918 09a9 E7       		.byte	0xe7
 1919 09aa 1F       		.uleb128 0x1f
 1920 09ab EB030000 		.4byte	.LASF91
 1921 09af 07       		.byte	0x7
 1922 09b0 34       		.byte	0x34
 1923 09b1 CA000000 		.4byte	0xca
 1924 09b5 C4090000 		.4byte	0x9c4
 1925 09b9 1D       		.uleb128 0x1d
 1926 09ba 72090000 		.4byte	0x972
 1927 09be 1D       		.uleb128 0x1d
ARM GAS  /var/folders/qh/xwg3v3kj02qbxczjpdb8lzfr0000gn/T//ccIgkMVn.s 			page 35


 1928 09bf E0000000 		.4byte	0xe0
 1929 09c3 00       		.byte	0
 1930 09c4 1C       		.uleb128 0x1c
 1931 09c5 06000000 		.4byte	.LASF86
 1932 09c9 07       		.byte	0x7
 1933 09ca 36       		.byte	0x36
 1934 09cb D5090000 		.4byte	0x9d5
 1935 09cf 1D       		.uleb128 0x1d
 1936 09d0 72090000 		.4byte	0x972
 1937 09d4 00       		.byte	0
 1938 09d5 1E       		.uleb128 0x1e
 1939 09d6 BA010000 		.4byte	.LASF87
 1940 09da 0A       		.byte	0xa
 1941 09db E6       		.byte	0xe6
 1942 09dc 00       		.byte	0
 1943              		.section	.debug_abbrev,"",%progbits
 1944              	.Ldebug_abbrev0:
 1945 0000 01       		.uleb128 0x1
 1946 0001 11       		.uleb128 0x11
 1947 0002 01       		.byte	0x1
 1948 0003 25       		.uleb128 0x25
 1949 0004 0E       		.uleb128 0xe
 1950 0005 13       		.uleb128 0x13
 1951 0006 0B       		.uleb128 0xb
 1952 0007 03       		.uleb128 0x3
 1953 0008 0E       		.uleb128 0xe
 1954 0009 1B       		.uleb128 0x1b
 1955 000a 0E       		.uleb128 0xe
 1956 000b 55       		.uleb128 0x55
 1957 000c 17       		.uleb128 0x17
 1958 000d 11       		.uleb128 0x11
 1959 000e 01       		.uleb128 0x1
 1960 000f 10       		.uleb128 0x10
 1961 0010 17       		.uleb128 0x17
 1962 0011 00       		.byte	0
 1963 0012 00       		.byte	0
 1964 0013 02       		.uleb128 0x2
 1965 0014 24       		.uleb128 0x24
 1966 0015 00       		.byte	0
 1967 0016 0B       		.uleb128 0xb
 1968 0017 0B       		.uleb128 0xb
 1969 0018 3E       		.uleb128 0x3e
 1970 0019 0B       		.uleb128 0xb
 1971 001a 03       		.uleb128 0x3
 1972 001b 08       		.uleb128 0x8
 1973 001c 00       		.byte	0
 1974 001d 00       		.byte	0
 1975 001e 03       		.uleb128 0x3
 1976 001f 24       		.uleb128 0x24
 1977 0020 00       		.byte	0
 1978 0021 0B       		.uleb128 0xb
 1979 0022 0B       		.uleb128 0xb
 1980 0023 3E       		.uleb128 0x3e
 1981 0024 0B       		.uleb128 0xb
 1982 0025 03       		.uleb128 0x3
 1983 0026 0E       		.uleb128 0xe
 1984 0027 00       		.byte	0
ARM GAS  /var/folders/qh/xwg3v3kj02qbxczjpdb8lzfr0000gn/T//ccIgkMVn.s 			page 36


 1985 0028 00       		.byte	0
 1986 0029 04       		.uleb128 0x4
 1987 002a 16       		.uleb128 0x16
 1988 002b 00       		.byte	0
 1989 002c 03       		.uleb128 0x3
 1990 002d 0E       		.uleb128 0xe
 1991 002e 3A       		.uleb128 0x3a
 1992 002f 0B       		.uleb128 0xb
 1993 0030 3B       		.uleb128 0x3b
 1994 0031 0B       		.uleb128 0xb
 1995 0032 49       		.uleb128 0x49
 1996 0033 13       		.uleb128 0x13
 1997 0034 00       		.byte	0
 1998 0035 00       		.byte	0
 1999 0036 05       		.uleb128 0x5
 2000 0037 13       		.uleb128 0x13
 2001 0038 01       		.byte	0x1
 2002 0039 03       		.uleb128 0x3
 2003 003a 0E       		.uleb128 0xe
 2004 003b 0B       		.uleb128 0xb
 2005 003c 0B       		.uleb128 0xb
 2006 003d 3A       		.uleb128 0x3a
 2007 003e 0B       		.uleb128 0xb
 2008 003f 3B       		.uleb128 0x3b
 2009 0040 0B       		.uleb128 0xb
 2010 0041 01       		.uleb128 0x1
 2011 0042 13       		.uleb128 0x13
 2012 0043 00       		.byte	0
 2013 0044 00       		.byte	0
 2014 0045 06       		.uleb128 0x6
 2015 0046 0D       		.uleb128 0xd
 2016 0047 00       		.byte	0
 2017 0048 03       		.uleb128 0x3
 2018 0049 0E       		.uleb128 0xe
 2019 004a 3A       		.uleb128 0x3a
 2020 004b 0B       		.uleb128 0xb
 2021 004c 3B       		.uleb128 0x3b
 2022 004d 0B       		.uleb128 0xb
 2023 004e 49       		.uleb128 0x49
 2024 004f 13       		.uleb128 0x13
 2025 0050 38       		.uleb128 0x38
 2026 0051 0B       		.uleb128 0xb
 2027 0052 00       		.byte	0
 2028 0053 00       		.byte	0
 2029 0054 07       		.uleb128 0x7
 2030 0055 0D       		.uleb128 0xd
 2031 0056 00       		.byte	0
 2032 0057 03       		.uleb128 0x3
 2033 0058 08       		.uleb128 0x8
 2034 0059 3A       		.uleb128 0x3a
 2035 005a 0B       		.uleb128 0xb
 2036 005b 3B       		.uleb128 0x3b
 2037 005c 0B       		.uleb128 0xb
 2038 005d 49       		.uleb128 0x49
 2039 005e 13       		.uleb128 0x13
 2040 005f 38       		.uleb128 0x38
 2041 0060 0B       		.uleb128 0xb
ARM GAS  /var/folders/qh/xwg3v3kj02qbxczjpdb8lzfr0000gn/T//ccIgkMVn.s 			page 37


 2042 0061 00       		.byte	0
 2043 0062 00       		.byte	0
 2044 0063 08       		.uleb128 0x8
 2045 0064 13       		.uleb128 0x13
 2046 0065 01       		.byte	0x1
 2047 0066 0B       		.uleb128 0xb
 2048 0067 0B       		.uleb128 0xb
 2049 0068 3A       		.uleb128 0x3a
 2050 0069 0B       		.uleb128 0xb
 2051 006a 3B       		.uleb128 0x3b
 2052 006b 0B       		.uleb128 0xb
 2053 006c 01       		.uleb128 0x1
 2054 006d 13       		.uleb128 0x13
 2055 006e 00       		.byte	0
 2056 006f 00       		.byte	0
 2057 0070 09       		.uleb128 0x9
 2058 0071 0F       		.uleb128 0xf
 2059 0072 00       		.byte	0
 2060 0073 0B       		.uleb128 0xb
 2061 0074 0B       		.uleb128 0xb
 2062 0075 49       		.uleb128 0x49
 2063 0076 13       		.uleb128 0x13
 2064 0077 00       		.byte	0
 2065 0078 00       		.byte	0
 2066 0079 0A       		.uleb128 0xa
 2067 007a 0F       		.uleb128 0xf
 2068 007b 00       		.byte	0
 2069 007c 0B       		.uleb128 0xb
 2070 007d 0B       		.uleb128 0xb
 2071 007e 00       		.byte	0
 2072 007f 00       		.byte	0
 2073 0080 0B       		.uleb128 0xb
 2074 0081 35       		.uleb128 0x35
 2075 0082 00       		.byte	0
 2076 0083 49       		.uleb128 0x49
 2077 0084 13       		.uleb128 0x13
 2078 0085 00       		.byte	0
 2079 0086 00       		.byte	0
 2080 0087 0C       		.uleb128 0xc
 2081 0088 17       		.uleb128 0x17
 2082 0089 01       		.byte	0x1
 2083 008a 0B       		.uleb128 0xb
 2084 008b 0B       		.uleb128 0xb
 2085 008c 3A       		.uleb128 0x3a
 2086 008d 0B       		.uleb128 0xb
 2087 008e 3B       		.uleb128 0x3b
 2088 008f 0B       		.uleb128 0xb
 2089 0090 01       		.uleb128 0x1
 2090 0091 13       		.uleb128 0x13
 2091 0092 00       		.byte	0
 2092 0093 00       		.byte	0
 2093 0094 0D       		.uleb128 0xd
 2094 0095 0D       		.uleb128 0xd
 2095 0096 00       		.byte	0
 2096 0097 03       		.uleb128 0x3
 2097 0098 0E       		.uleb128 0xe
 2098 0099 3A       		.uleb128 0x3a
ARM GAS  /var/folders/qh/xwg3v3kj02qbxczjpdb8lzfr0000gn/T//ccIgkMVn.s 			page 38


 2099 009a 0B       		.uleb128 0xb
 2100 009b 3B       		.uleb128 0x3b
 2101 009c 0B       		.uleb128 0xb
 2102 009d 49       		.uleb128 0x49
 2103 009e 13       		.uleb128 0x13
 2104 009f 00       		.byte	0
 2105 00a0 00       		.byte	0
 2106 00a1 0E       		.uleb128 0xe
 2107 00a2 26       		.uleb128 0x26
 2108 00a3 00       		.byte	0
 2109 00a4 49       		.uleb128 0x49
 2110 00a5 13       		.uleb128 0x13
 2111 00a6 00       		.byte	0
 2112 00a7 00       		.byte	0
 2113 00a8 0F       		.uleb128 0xf
 2114 00a9 2E       		.uleb128 0x2e
 2115 00aa 01       		.byte	0x1
 2116 00ab 3F       		.uleb128 0x3f
 2117 00ac 19       		.uleb128 0x19
 2118 00ad 03       		.uleb128 0x3
 2119 00ae 0E       		.uleb128 0xe
 2120 00af 3A       		.uleb128 0x3a
 2121 00b0 0B       		.uleb128 0xb
 2122 00b1 3B       		.uleb128 0x3b
 2123 00b2 0B       		.uleb128 0xb
 2124 00b3 27       		.uleb128 0x27
 2125 00b4 19       		.uleb128 0x19
 2126 00b5 11       		.uleb128 0x11
 2127 00b6 01       		.uleb128 0x1
 2128 00b7 12       		.uleb128 0x12
 2129 00b8 06       		.uleb128 0x6
 2130 00b9 40       		.uleb128 0x40
 2131 00ba 18       		.uleb128 0x18
 2132 00bb 9742     		.uleb128 0x2117
 2133 00bd 19       		.uleb128 0x19
 2134 00be 01       		.uleb128 0x1
 2135 00bf 13       		.uleb128 0x13
 2136 00c0 00       		.byte	0
 2137 00c1 00       		.byte	0
 2138 00c2 10       		.uleb128 0x10
 2139 00c3 05       		.uleb128 0x5
 2140 00c4 00       		.byte	0
 2141 00c5 03       		.uleb128 0x3
 2142 00c6 08       		.uleb128 0x8
 2143 00c7 3A       		.uleb128 0x3a
 2144 00c8 0B       		.uleb128 0xb
 2145 00c9 3B       		.uleb128 0x3b
 2146 00ca 0B       		.uleb128 0xb
 2147 00cb 49       		.uleb128 0x49
 2148 00cc 13       		.uleb128 0x13
 2149 00cd 02       		.uleb128 0x2
 2150 00ce 17       		.uleb128 0x17
 2151 00cf 00       		.byte	0
 2152 00d0 00       		.byte	0
 2153 00d1 11       		.uleb128 0x11
 2154 00d2 898201   		.uleb128 0x4109
 2155 00d5 01       		.byte	0x1
ARM GAS  /var/folders/qh/xwg3v3kj02qbxczjpdb8lzfr0000gn/T//ccIgkMVn.s 			page 39


 2156 00d6 11       		.uleb128 0x11
 2157 00d7 01       		.uleb128 0x1
 2158 00d8 31       		.uleb128 0x31
 2159 00d9 13       		.uleb128 0x13
 2160 00da 01       		.uleb128 0x1
 2161 00db 13       		.uleb128 0x13
 2162 00dc 00       		.byte	0
 2163 00dd 00       		.byte	0
 2164 00de 12       		.uleb128 0x12
 2165 00df 8A8201   		.uleb128 0x410a
 2166 00e2 00       		.byte	0
 2167 00e3 02       		.uleb128 0x2
 2168 00e4 18       		.uleb128 0x18
 2169 00e5 9142     		.uleb128 0x2111
 2170 00e7 18       		.uleb128 0x18
 2171 00e8 00       		.byte	0
 2172 00e9 00       		.byte	0
 2173 00ea 13       		.uleb128 0x13
 2174 00eb 898201   		.uleb128 0x4109
 2175 00ee 01       		.byte	0x1
 2176 00ef 11       		.uleb128 0x11
 2177 00f0 01       		.uleb128 0x1
 2178 00f1 31       		.uleb128 0x31
 2179 00f2 13       		.uleb128 0x13
 2180 00f3 00       		.byte	0
 2181 00f4 00       		.byte	0
 2182 00f5 14       		.uleb128 0x14
 2183 00f6 898201   		.uleb128 0x4109
 2184 00f9 00       		.byte	0
 2185 00fa 11       		.uleb128 0x11
 2186 00fb 01       		.uleb128 0x1
 2187 00fc 31       		.uleb128 0x31
 2188 00fd 13       		.uleb128 0x13
 2189 00fe 00       		.byte	0
 2190 00ff 00       		.byte	0
 2191 0100 15       		.uleb128 0x15
 2192 0101 2E       		.uleb128 0x2e
 2193 0102 01       		.byte	0x1
 2194 0103 3F       		.uleb128 0x3f
 2195 0104 19       		.uleb128 0x19
 2196 0105 03       		.uleb128 0x3
 2197 0106 0E       		.uleb128 0xe
 2198 0107 3A       		.uleb128 0x3a
 2199 0108 0B       		.uleb128 0xb
 2200 0109 3B       		.uleb128 0x3b
 2201 010a 0B       		.uleb128 0xb
 2202 010b 27       		.uleb128 0x27
 2203 010c 19       		.uleb128 0x19
 2204 010d 49       		.uleb128 0x49
 2205 010e 13       		.uleb128 0x13
 2206 010f 11       		.uleb128 0x11
 2207 0110 01       		.uleb128 0x1
 2208 0111 12       		.uleb128 0x12
 2209 0112 06       		.uleb128 0x6
 2210 0113 40       		.uleb128 0x40
 2211 0114 18       		.uleb128 0x18
 2212 0115 9742     		.uleb128 0x2117
ARM GAS  /var/folders/qh/xwg3v3kj02qbxczjpdb8lzfr0000gn/T//ccIgkMVn.s 			page 40


 2213 0117 19       		.uleb128 0x19
 2214 0118 01       		.uleb128 0x1
 2215 0119 13       		.uleb128 0x13
 2216 011a 00       		.byte	0
 2217 011b 00       		.byte	0
 2218 011c 16       		.uleb128 0x16
 2219 011d 05       		.uleb128 0x5
 2220 011e 00       		.byte	0
 2221 011f 03       		.uleb128 0x3
 2222 0120 0E       		.uleb128 0xe
 2223 0121 3A       		.uleb128 0x3a
 2224 0122 0B       		.uleb128 0xb
 2225 0123 3B       		.uleb128 0x3b
 2226 0124 0B       		.uleb128 0xb
 2227 0125 49       		.uleb128 0x49
 2228 0126 13       		.uleb128 0x13
 2229 0127 02       		.uleb128 0x2
 2230 0128 17       		.uleb128 0x17
 2231 0129 00       		.byte	0
 2232 012a 00       		.byte	0
 2233 012b 17       		.uleb128 0x17
 2234 012c 34       		.uleb128 0x34
 2235 012d 00       		.byte	0
 2236 012e 03       		.uleb128 0x3
 2237 012f 0E       		.uleb128 0xe
 2238 0130 3A       		.uleb128 0x3a
 2239 0131 0B       		.uleb128 0xb
 2240 0132 3B       		.uleb128 0x3b
 2241 0133 0B       		.uleb128 0xb
 2242 0134 49       		.uleb128 0x49
 2243 0135 13       		.uleb128 0x13
 2244 0136 02       		.uleb128 0x2
 2245 0137 17       		.uleb128 0x17
 2246 0138 00       		.byte	0
 2247 0139 00       		.byte	0
 2248 013a 18       		.uleb128 0x18
 2249 013b 2E       		.uleb128 0x2e
 2250 013c 01       		.byte	0x1
 2251 013d 3F       		.uleb128 0x3f
 2252 013e 19       		.uleb128 0x19
 2253 013f 03       		.uleb128 0x3
 2254 0140 0E       		.uleb128 0xe
 2255 0141 3A       		.uleb128 0x3a
 2256 0142 0B       		.uleb128 0xb
 2257 0143 3B       		.uleb128 0x3b
 2258 0144 05       		.uleb128 0x5
 2259 0145 27       		.uleb128 0x27
 2260 0146 19       		.uleb128 0x19
 2261 0147 49       		.uleb128 0x49
 2262 0148 13       		.uleb128 0x13
 2263 0149 11       		.uleb128 0x11
 2264 014a 01       		.uleb128 0x1
 2265 014b 12       		.uleb128 0x12
 2266 014c 06       		.uleb128 0x6
 2267 014d 40       		.uleb128 0x40
 2268 014e 18       		.uleb128 0x18
 2269 014f 9742     		.uleb128 0x2117
ARM GAS  /var/folders/qh/xwg3v3kj02qbxczjpdb8lzfr0000gn/T//ccIgkMVn.s 			page 41


 2270 0151 19       		.uleb128 0x19
 2271 0152 01       		.uleb128 0x1
 2272 0153 13       		.uleb128 0x13
 2273 0154 00       		.byte	0
 2274 0155 00       		.byte	0
 2275 0156 19       		.uleb128 0x19
 2276 0157 05       		.uleb128 0x5
 2277 0158 00       		.byte	0
 2278 0159 03       		.uleb128 0x3
 2279 015a 08       		.uleb128 0x8
 2280 015b 3A       		.uleb128 0x3a
 2281 015c 0B       		.uleb128 0xb
 2282 015d 3B       		.uleb128 0x3b
 2283 015e 05       		.uleb128 0x5
 2284 015f 49       		.uleb128 0x49
 2285 0160 13       		.uleb128 0x13
 2286 0161 02       		.uleb128 0x2
 2287 0162 17       		.uleb128 0x17
 2288 0163 00       		.byte	0
 2289 0164 00       		.byte	0
 2290 0165 1A       		.uleb128 0x1a
 2291 0166 05       		.uleb128 0x5
 2292 0167 00       		.byte	0
 2293 0168 03       		.uleb128 0x3
 2294 0169 0E       		.uleb128 0xe
 2295 016a 3A       		.uleb128 0x3a
 2296 016b 0B       		.uleb128 0xb
 2297 016c 3B       		.uleb128 0x3b
 2298 016d 05       		.uleb128 0x5
 2299 016e 49       		.uleb128 0x49
 2300 016f 13       		.uleb128 0x13
 2301 0170 02       		.uleb128 0x2
 2302 0171 17       		.uleb128 0x17
 2303 0172 00       		.byte	0
 2304 0173 00       		.byte	0
 2305 0174 1B       		.uleb128 0x1b
 2306 0175 34       		.uleb128 0x34
 2307 0176 00       		.byte	0
 2308 0177 03       		.uleb128 0x3
 2309 0178 0E       		.uleb128 0xe
 2310 0179 3A       		.uleb128 0x3a
 2311 017a 0B       		.uleb128 0xb
 2312 017b 3B       		.uleb128 0x3b
 2313 017c 05       		.uleb128 0x5
 2314 017d 49       		.uleb128 0x49
 2315 017e 13       		.uleb128 0x13
 2316 017f 02       		.uleb128 0x2
 2317 0180 17       		.uleb128 0x17
 2318 0181 00       		.byte	0
 2319 0182 00       		.byte	0
 2320 0183 1C       		.uleb128 0x1c
 2321 0184 2E       		.uleb128 0x2e
 2322 0185 01       		.byte	0x1
 2323 0186 3F       		.uleb128 0x3f
 2324 0187 19       		.uleb128 0x19
 2325 0188 03       		.uleb128 0x3
 2326 0189 0E       		.uleb128 0xe
ARM GAS  /var/folders/qh/xwg3v3kj02qbxczjpdb8lzfr0000gn/T//ccIgkMVn.s 			page 42


 2327 018a 3A       		.uleb128 0x3a
 2328 018b 0B       		.uleb128 0xb
 2329 018c 3B       		.uleb128 0x3b
 2330 018d 0B       		.uleb128 0xb
 2331 018e 27       		.uleb128 0x27
 2332 018f 19       		.uleb128 0x19
 2333 0190 3C       		.uleb128 0x3c
 2334 0191 19       		.uleb128 0x19
 2335 0192 01       		.uleb128 0x1
 2336 0193 13       		.uleb128 0x13
 2337 0194 00       		.byte	0
 2338 0195 00       		.byte	0
 2339 0196 1D       		.uleb128 0x1d
 2340 0197 05       		.uleb128 0x5
 2341 0198 00       		.byte	0
 2342 0199 49       		.uleb128 0x49
 2343 019a 13       		.uleb128 0x13
 2344 019b 00       		.byte	0
 2345 019c 00       		.byte	0
 2346 019d 1E       		.uleb128 0x1e
 2347 019e 2E       		.uleb128 0x2e
 2348 019f 00       		.byte	0
 2349 01a0 3F       		.uleb128 0x3f
 2350 01a1 19       		.uleb128 0x19
 2351 01a2 03       		.uleb128 0x3
 2352 01a3 0E       		.uleb128 0xe
 2353 01a4 3A       		.uleb128 0x3a
 2354 01a5 0B       		.uleb128 0xb
 2355 01a6 3B       		.uleb128 0x3b
 2356 01a7 0B       		.uleb128 0xb
 2357 01a8 27       		.uleb128 0x27
 2358 01a9 19       		.uleb128 0x19
 2359 01aa 3C       		.uleb128 0x3c
 2360 01ab 19       		.uleb128 0x19
 2361 01ac 00       		.byte	0
 2362 01ad 00       		.byte	0
 2363 01ae 1F       		.uleb128 0x1f
 2364 01af 2E       		.uleb128 0x2e
 2365 01b0 01       		.byte	0x1
 2366 01b1 3F       		.uleb128 0x3f
 2367 01b2 19       		.uleb128 0x19
 2368 01b3 03       		.uleb128 0x3
 2369 01b4 0E       		.uleb128 0xe
 2370 01b5 3A       		.uleb128 0x3a
 2371 01b6 0B       		.uleb128 0xb
 2372 01b7 3B       		.uleb128 0x3b
 2373 01b8 0B       		.uleb128 0xb
 2374 01b9 27       		.uleb128 0x27
 2375 01ba 19       		.uleb128 0x19
 2376 01bb 49       		.uleb128 0x49
 2377 01bc 13       		.uleb128 0x13
 2378 01bd 3C       		.uleb128 0x3c
 2379 01be 19       		.uleb128 0x19
 2380 01bf 01       		.uleb128 0x1
 2381 01c0 13       		.uleb128 0x13
 2382 01c1 00       		.byte	0
 2383 01c2 00       		.byte	0
ARM GAS  /var/folders/qh/xwg3v3kj02qbxczjpdb8lzfr0000gn/T//ccIgkMVn.s 			page 43


 2384 01c3 00       		.byte	0
 2385              		.section	.debug_loc,"",%progbits
 2386              	.Ldebug_loc0:
 2387              	.LLST0:
 2388 0000 00000000 		.4byte	.LVL0
 2389 0004 16000000 		.4byte	.LVL3
 2390 0008 0100     		.2byte	0x1
 2391 000a 50       		.byte	0x50
 2392 000b 16000000 		.4byte	.LVL3
 2393 000f 24000000 		.4byte	.LVL6
 2394 0013 0100     		.2byte	0x1
 2395 0015 54       		.byte	0x54
 2396 0016 24000000 		.4byte	.LVL6
 2397 001a 26000000 		.4byte	.LFE7
 2398 001e 0400     		.2byte	0x4
 2399 0020 F3       		.byte	0xf3
 2400 0021 01       		.uleb128 0x1
 2401 0022 50       		.byte	0x50
 2402 0023 9F       		.byte	0x9f
 2403 0024 00000000 		.4byte	0
 2404 0028 00000000 		.4byte	0
 2405              	.LLST1:
 2406 002c 00000000 		.4byte	.LVL0
 2407 0030 0E000000 		.4byte	.LVL1
 2408 0034 0100     		.2byte	0x1
 2409 0036 51       		.byte	0x51
 2410 0037 0E000000 		.4byte	.LVL1
 2411 003b 10000000 		.4byte	.LVL2
 2412 003f 0100     		.2byte	0x1
 2413 0041 53       		.byte	0x53
 2414 0042 10000000 		.4byte	.LVL2
 2415 0046 16000000 		.4byte	.LVL3
 2416 004a 0200     		.2byte	0x2
 2417 004c 70       		.byte	0x70
 2418 004d 00       		.sleb128 0
 2419 004e 16000000 		.4byte	.LVL3
 2420 0052 19000000 		.4byte	.LVL4-1
 2421 0056 0200     		.2byte	0x2
 2422 0058 74       		.byte	0x74
 2423 0059 00       		.sleb128 0
 2424 005a 19000000 		.4byte	.LVL4-1
 2425 005e 26000000 		.4byte	.LFE7
 2426 0062 0400     		.2byte	0x4
 2427 0064 F3       		.byte	0xf3
 2428 0065 01       		.uleb128 0x1
 2429 0066 51       		.byte	0x51
 2430 0067 9F       		.byte	0x9f
 2431 0068 00000000 		.4byte	0
 2432 006c 00000000 		.4byte	0
 2433              	.LLST2:
 2434 0070 00000000 		.4byte	.LVL0
 2435 0074 19000000 		.4byte	.LVL4-1
 2436 0078 0100     		.2byte	0x1
 2437 007a 52       		.byte	0x52
 2438 007b 19000000 		.4byte	.LVL4-1
 2439 007f 26000000 		.4byte	.LFE7
 2440 0083 0400     		.2byte	0x4
ARM GAS  /var/folders/qh/xwg3v3kj02qbxczjpdb8lzfr0000gn/T//ccIgkMVn.s 			page 44


 2441 0085 F3       		.byte	0xf3
 2442 0086 01       		.uleb128 0x1
 2443 0087 52       		.byte	0x52
 2444 0088 9F       		.byte	0x9f
 2445 0089 00000000 		.4byte	0
 2446 008d 00000000 		.4byte	0
 2447              	.LLST3:
 2448 0091 00000000 		.4byte	.LVL7
 2449 0095 09000000 		.4byte	.LVL8-1
 2450 0099 0100     		.2byte	0x1
 2451 009b 50       		.byte	0x50
 2452 009c 09000000 		.4byte	.LVL8-1
 2453 00a0 32000000 		.4byte	.LVL13
 2454 00a4 0100     		.2byte	0x1
 2455 00a6 54       		.byte	0x54
 2456 00a7 32000000 		.4byte	.LVL13
 2457 00ab 34000000 		.4byte	.LFE8
 2458 00af 0400     		.2byte	0x4
 2459 00b1 F3       		.byte	0xf3
 2460 00b2 01       		.uleb128 0x1
 2461 00b3 50       		.byte	0x50
 2462 00b4 9F       		.byte	0x9f
 2463 00b5 00000000 		.4byte	0
 2464 00b9 00000000 		.4byte	0
 2465              	.LLST4:
 2466 00bd 00000000 		.4byte	.LVL14
 2467 00c1 0B000000 		.4byte	.LVL15-1
 2468 00c5 0100     		.2byte	0x1
 2469 00c7 50       		.byte	0x50
 2470 00c8 0B000000 		.4byte	.LVL15-1
 2471 00cc 36000000 		.4byte	.LVL21
 2472 00d0 0100     		.2byte	0x1
 2473 00d2 54       		.byte	0x54
 2474 00d3 36000000 		.4byte	.LVL21
 2475 00d7 38000000 		.4byte	.LVL24
 2476 00db 0400     		.2byte	0x4
 2477 00dd F3       		.byte	0xf3
 2478 00de 01       		.uleb128 0x1
 2479 00df 50       		.byte	0x50
 2480 00e0 9F       		.byte	0x9f
 2481 00e1 38000000 		.4byte	.LVL24
 2482 00e5 3E000000 		.4byte	.LFE10
 2483 00e9 0100     		.2byte	0x1
 2484 00eb 54       		.byte	0x54
 2485 00ec 00000000 		.4byte	0
 2486 00f0 00000000 		.4byte	0
 2487              	.LLST5:
 2488 00f4 00000000 		.4byte	.LVL14
 2489 00f8 0B000000 		.4byte	.LVL15-1
 2490 00fc 0100     		.2byte	0x1
 2491 00fe 51       		.byte	0x51
 2492 00ff 0B000000 		.4byte	.LVL15-1
 2493 0103 36000000 		.4byte	.LVL23
 2494 0107 0100     		.2byte	0x1
 2495 0109 56       		.byte	0x56
 2496 010a 36000000 		.4byte	.LVL23
 2497 010e 38000000 		.4byte	.LVL24
ARM GAS  /var/folders/qh/xwg3v3kj02qbxczjpdb8lzfr0000gn/T//ccIgkMVn.s 			page 45


 2498 0112 0400     		.2byte	0x4
 2499 0114 F3       		.byte	0xf3
 2500 0115 01       		.uleb128 0x1
 2501 0116 51       		.byte	0x51
 2502 0117 9F       		.byte	0x9f
 2503 0118 38000000 		.4byte	.LVL24
 2504 011c 3E000000 		.4byte	.LFE10
 2505 0120 0100     		.2byte	0x1
 2506 0122 56       		.byte	0x56
 2507 0123 00000000 		.4byte	0
 2508 0127 00000000 		.4byte	0
 2509              	.LLST6:
 2510 012b 00000000 		.4byte	.LVL14
 2511 012f 0B000000 		.4byte	.LVL15-1
 2512 0133 0100     		.2byte	0x1
 2513 0135 52       		.byte	0x52
 2514 0136 0B000000 		.4byte	.LVL15-1
 2515 013a 18000000 		.4byte	.LVL17
 2516 013e 0100     		.2byte	0x1
 2517 0140 55       		.byte	0x55
 2518 0141 18000000 		.4byte	.LVL17
 2519 0145 3E000000 		.4byte	.LFE10
 2520 0149 0400     		.2byte	0x4
 2521 014b F3       		.byte	0xf3
 2522 014c 01       		.uleb128 0x1
 2523 014d 52       		.byte	0x52
 2524 014e 9F       		.byte	0x9f
 2525 014f 00000000 		.4byte	0
 2526 0153 00000000 		.4byte	0
 2527              	.LLST7:
 2528 0157 18000000 		.4byte	.LVL17
 2529 015b 2A000000 		.4byte	.LVL18
 2530 015f 0100     		.2byte	0x1
 2531 0161 50       		.byte	0x50
 2532 0162 2A000000 		.4byte	.LVL18
 2533 0166 36000000 		.4byte	.LVL22
 2534 016a 0100     		.2byte	0x1
 2535 016c 55       		.byte	0x55
 2536 016d 36000000 		.4byte	.LVL22
 2537 0171 3E000000 		.4byte	.LFE10
 2538 0175 0100     		.2byte	0x1
 2539 0177 50       		.byte	0x50
 2540 0178 00000000 		.4byte	0
 2541 017c 00000000 		.4byte	0
 2542              	.LLST8:
 2543 0180 00000000 		.4byte	.LVL25
 2544 0184 0D000000 		.4byte	.LVL26-1
 2545 0188 0100     		.2byte	0x1
 2546 018a 50       		.byte	0x50
 2547 018b 0D000000 		.4byte	.LVL26-1
 2548 018f 22000000 		.4byte	.LVL32
 2549 0193 0100     		.2byte	0x1
 2550 0195 56       		.byte	0x56
 2551 0196 22000000 		.4byte	.LVL32
 2552 019a 24000000 		.4byte	.LFE9
 2553 019e 0400     		.2byte	0x4
 2554 01a0 F3       		.byte	0xf3
ARM GAS  /var/folders/qh/xwg3v3kj02qbxczjpdb8lzfr0000gn/T//ccIgkMVn.s 			page 46


 2555 01a1 01       		.uleb128 0x1
 2556 01a2 50       		.byte	0x50
 2557 01a3 9F       		.byte	0x9f
 2558 01a4 00000000 		.4byte	0
 2559 01a8 00000000 		.4byte	0
 2560              	.LLST9:
 2561 01ac 00000000 		.4byte	.LVL25
 2562 01b0 0D000000 		.4byte	.LVL26-1
 2563 01b4 0100     		.2byte	0x1
 2564 01b6 51       		.byte	0x51
 2565 01b7 0D000000 		.4byte	.LVL26-1
 2566 01bb 22000000 		.4byte	.LVL31
 2567 01bf 0100     		.2byte	0x1
 2568 01c1 55       		.byte	0x55
 2569 01c2 22000000 		.4byte	.LVL31
 2570 01c6 24000000 		.4byte	.LFE9
 2571 01ca 0400     		.2byte	0x4
 2572 01cc F3       		.byte	0xf3
 2573 01cd 01       		.uleb128 0x1
 2574 01ce 51       		.byte	0x51
 2575 01cf 9F       		.byte	0x9f
 2576 01d0 00000000 		.4byte	0
 2577 01d4 00000000 		.4byte	0
 2578              	.LLST10:
 2579 01d8 00000000 		.4byte	.LVL25
 2580 01dc 0D000000 		.4byte	.LVL26-1
 2581 01e0 0100     		.2byte	0x1
 2582 01e2 52       		.byte	0x52
 2583 01e3 0D000000 		.4byte	.LVL26-1
 2584 01e7 1A000000 		.4byte	.LVL28
 2585 01eb 0100     		.2byte	0x1
 2586 01ed 54       		.byte	0x54
 2587 01ee 1A000000 		.4byte	.LVL28
 2588 01f2 24000000 		.4byte	.LFE9
 2589 01f6 0400     		.2byte	0x4
 2590 01f8 F3       		.byte	0xf3
 2591 01f9 01       		.uleb128 0x1
 2592 01fa 52       		.byte	0x52
 2593 01fb 9F       		.byte	0x9f
 2594 01fc 00000000 		.4byte	0
 2595 0200 00000000 		.4byte	0
 2596              	.LLST11:
 2597 0204 1A000000 		.4byte	.LVL28
 2598 0208 1D000000 		.4byte	.LVL29-1
 2599 020c 0100     		.2byte	0x1
 2600 020e 50       		.byte	0x50
 2601 020f 1D000000 		.4byte	.LVL29-1
 2602 0213 22000000 		.4byte	.LVL30
 2603 0217 0100     		.2byte	0x1
 2604 0219 54       		.byte	0x54
 2605 021a 22000000 		.4byte	.LVL30
 2606 021e 24000000 		.4byte	.LFE9
 2607 0222 0100     		.2byte	0x1
 2608 0224 50       		.byte	0x50
 2609 0225 00000000 		.4byte	0
 2610 0229 00000000 		.4byte	0
 2611              	.LLST12:
ARM GAS  /var/folders/qh/xwg3v3kj02qbxczjpdb8lzfr0000gn/T//ccIgkMVn.s 			page 47


 2612 022d 00000000 		.4byte	.LVL33
 2613 0231 09000000 		.4byte	.LVL34-1
 2614 0235 0100     		.2byte	0x1
 2615 0237 50       		.byte	0x50
 2616 0238 09000000 		.4byte	.LVL34-1
 2617 023c 2C000000 		.4byte	.LVL36
 2618 0240 0100     		.2byte	0x1
 2619 0242 54       		.byte	0x54
 2620 0243 2C000000 		.4byte	.LVL36
 2621 0247 2E000000 		.4byte	.LVL38
 2622 024b 0400     		.2byte	0x4
 2623 024d F3       		.byte	0xf3
 2624 024e 01       		.uleb128 0x1
 2625 024f 50       		.byte	0x50
 2626 0250 9F       		.byte	0x9f
 2627 0251 2E000000 		.4byte	.LVL38
 2628 0255 3A000000 		.4byte	.LFE11
 2629 0259 0100     		.2byte	0x1
 2630 025b 54       		.byte	0x54
 2631 025c 00000000 		.4byte	0
 2632 0260 00000000 		.4byte	0
 2633              	.LLST13:
 2634 0264 00000000 		.4byte	.LVL33
 2635 0268 09000000 		.4byte	.LVL34-1
 2636 026c 0100     		.2byte	0x1
 2637 026e 51       		.byte	0x51
 2638 026f 09000000 		.4byte	.LVL34-1
 2639 0273 2C000000 		.4byte	.LVL37
 2640 0277 0100     		.2byte	0x1
 2641 0279 55       		.byte	0x55
 2642 027a 2C000000 		.4byte	.LVL37
 2643 027e 2E000000 		.4byte	.LVL38
 2644 0282 0400     		.2byte	0x4
 2645 0284 F3       		.byte	0xf3
 2646 0285 01       		.uleb128 0x1
 2647 0286 51       		.byte	0x51
 2648 0287 9F       		.byte	0x9f
 2649 0288 2E000000 		.4byte	.LVL38
 2650 028c 3A000000 		.4byte	.LFE11
 2651 0290 0100     		.2byte	0x1
 2652 0292 55       		.byte	0x55
 2653 0293 00000000 		.4byte	0
 2654 0297 00000000 		.4byte	0
 2655              	.LLST14:
 2656 029b 00000000 		.4byte	.LVL39
 2657 029f 0B000000 		.4byte	.LVL40-1
 2658 02a3 0100     		.2byte	0x1
 2659 02a5 50       		.byte	0x50
 2660 02a6 0B000000 		.4byte	.LVL40-1
 2661 02aa 36000000 		.4byte	.LVL46
 2662 02ae 0100     		.2byte	0x1
 2663 02b0 54       		.byte	0x54
 2664 02b1 36000000 		.4byte	.LVL46
 2665 02b5 38000000 		.4byte	.LVL49
 2666 02b9 0400     		.2byte	0x4
 2667 02bb F3       		.byte	0xf3
 2668 02bc 01       		.uleb128 0x1
ARM GAS  /var/folders/qh/xwg3v3kj02qbxczjpdb8lzfr0000gn/T//ccIgkMVn.s 			page 48


 2669 02bd 50       		.byte	0x50
 2670 02be 9F       		.byte	0x9f
 2671 02bf 38000000 		.4byte	.LVL49
 2672 02c3 40000000 		.4byte	.LFE13
 2673 02c7 0100     		.2byte	0x1
 2674 02c9 54       		.byte	0x54
 2675 02ca 00000000 		.4byte	0
 2676 02ce 00000000 		.4byte	0
 2677              	.LLST15:
 2678 02d2 00000000 		.4byte	.LVL39
 2679 02d6 0B000000 		.4byte	.LVL40-1
 2680 02da 0100     		.2byte	0x1
 2681 02dc 51       		.byte	0x51
 2682 02dd 0B000000 		.4byte	.LVL40-1
 2683 02e1 36000000 		.4byte	.LVL48
 2684 02e5 0100     		.2byte	0x1
 2685 02e7 56       		.byte	0x56
 2686 02e8 36000000 		.4byte	.LVL48
 2687 02ec 38000000 		.4byte	.LVL49
 2688 02f0 0400     		.2byte	0x4
 2689 02f2 F3       		.byte	0xf3
 2690 02f3 01       		.uleb128 0x1
 2691 02f4 51       		.byte	0x51
 2692 02f5 9F       		.byte	0x9f
 2693 02f6 38000000 		.4byte	.LVL49
 2694 02fa 40000000 		.4byte	.LFE13
 2695 02fe 0100     		.2byte	0x1
 2696 0300 56       		.byte	0x56
 2697 0301 00000000 		.4byte	0
 2698 0305 00000000 		.4byte	0
 2699              	.LLST16:
 2700 0309 00000000 		.4byte	.LVL39
 2701 030d 0B000000 		.4byte	.LVL40-1
 2702 0311 0100     		.2byte	0x1
 2703 0313 52       		.byte	0x52
 2704 0314 0B000000 		.4byte	.LVL40-1
 2705 0318 18000000 		.4byte	.LVL42
 2706 031c 0100     		.2byte	0x1
 2707 031e 55       		.byte	0x55
 2708 031f 18000000 		.4byte	.LVL42
 2709 0323 40000000 		.4byte	.LFE13
 2710 0327 0400     		.2byte	0x4
 2711 0329 F3       		.byte	0xf3
 2712 032a 01       		.uleb128 0x1
 2713 032b 52       		.byte	0x52
 2714 032c 9F       		.byte	0x9f
 2715 032d 00000000 		.4byte	0
 2716 0331 00000000 		.4byte	0
 2717              	.LLST17:
 2718 0335 18000000 		.4byte	.LVL42
 2719 0339 28000000 		.4byte	.LVL43
 2720 033d 0100     		.2byte	0x1
 2721 033f 50       		.byte	0x50
 2722 0340 28000000 		.4byte	.LVL43
 2723 0344 36000000 		.4byte	.LVL47
 2724 0348 0100     		.2byte	0x1
 2725 034a 55       		.byte	0x55
ARM GAS  /var/folders/qh/xwg3v3kj02qbxczjpdb8lzfr0000gn/T//ccIgkMVn.s 			page 49


 2726 034b 36000000 		.4byte	.LVL47
 2727 034f 40000000 		.4byte	.LFE13
 2728 0353 0100     		.2byte	0x1
 2729 0355 50       		.byte	0x50
 2730 0356 00000000 		.4byte	0
 2731 035a 00000000 		.4byte	0
 2732              	.LLST18:
 2733 035e 00000000 		.4byte	.LVL50
 2734 0362 0D000000 		.4byte	.LVL51-1
 2735 0366 0100     		.2byte	0x1
 2736 0368 50       		.byte	0x50
 2737 0369 0D000000 		.4byte	.LVL51-1
 2738 036d 22000000 		.4byte	.LVL57
 2739 0371 0100     		.2byte	0x1
 2740 0373 56       		.byte	0x56
 2741 0374 22000000 		.4byte	.LVL57
 2742 0378 24000000 		.4byte	.LFE12
 2743 037c 0400     		.2byte	0x4
 2744 037e F3       		.byte	0xf3
 2745 037f 01       		.uleb128 0x1
 2746 0380 50       		.byte	0x50
 2747 0381 9F       		.byte	0x9f
 2748 0382 00000000 		.4byte	0
 2749 0386 00000000 		.4byte	0
 2750              	.LLST19:
 2751 038a 00000000 		.4byte	.LVL50
 2752 038e 0D000000 		.4byte	.LVL51-1
 2753 0392 0100     		.2byte	0x1
 2754 0394 51       		.byte	0x51
 2755 0395 0D000000 		.4byte	.LVL51-1
 2756 0399 22000000 		.4byte	.LVL56
 2757 039d 0100     		.2byte	0x1
 2758 039f 55       		.byte	0x55
 2759 03a0 22000000 		.4byte	.LVL56
 2760 03a4 24000000 		.4byte	.LFE12
 2761 03a8 0400     		.2byte	0x4
 2762 03aa F3       		.byte	0xf3
 2763 03ab 01       		.uleb128 0x1
 2764 03ac 51       		.byte	0x51
 2765 03ad 9F       		.byte	0x9f
 2766 03ae 00000000 		.4byte	0
 2767 03b2 00000000 		.4byte	0
 2768              	.LLST20:
 2769 03b6 00000000 		.4byte	.LVL50
 2770 03ba 0D000000 		.4byte	.LVL51-1
 2771 03be 0100     		.2byte	0x1
 2772 03c0 52       		.byte	0x52
 2773 03c1 0D000000 		.4byte	.LVL51-1
 2774 03c5 1A000000 		.4byte	.LVL53
 2775 03c9 0100     		.2byte	0x1
 2776 03cb 54       		.byte	0x54
 2777 03cc 1A000000 		.4byte	.LVL53
 2778 03d0 24000000 		.4byte	.LFE12
 2779 03d4 0400     		.2byte	0x4
 2780 03d6 F3       		.byte	0xf3
 2781 03d7 01       		.uleb128 0x1
 2782 03d8 52       		.byte	0x52
ARM GAS  /var/folders/qh/xwg3v3kj02qbxczjpdb8lzfr0000gn/T//ccIgkMVn.s 			page 50


 2783 03d9 9F       		.byte	0x9f
 2784 03da 00000000 		.4byte	0
 2785 03de 00000000 		.4byte	0
 2786              	.LLST21:
 2787 03e2 1A000000 		.4byte	.LVL53
 2788 03e6 1D000000 		.4byte	.LVL54-1
 2789 03ea 0100     		.2byte	0x1
 2790 03ec 50       		.byte	0x50
 2791 03ed 1D000000 		.4byte	.LVL54-1
 2792 03f1 22000000 		.4byte	.LVL55
 2793 03f5 0100     		.2byte	0x1
 2794 03f7 54       		.byte	0x54
 2795 03f8 22000000 		.4byte	.LVL55
 2796 03fc 24000000 		.4byte	.LFE12
 2797 0400 0100     		.2byte	0x1
 2798 0402 50       		.byte	0x50
 2799 0403 00000000 		.4byte	0
 2800 0407 00000000 		.4byte	0
 2801              	.LLST22:
 2802 040b 00000000 		.4byte	.LVL58
 2803 040f 09000000 		.4byte	.LVL59-1
 2804 0413 0100     		.2byte	0x1
 2805 0415 50       		.byte	0x50
 2806 0416 09000000 		.4byte	.LVL59-1
 2807 041a 2C000000 		.4byte	.LVL61
 2808 041e 0100     		.2byte	0x1
 2809 0420 54       		.byte	0x54
 2810 0421 2C000000 		.4byte	.LVL61
 2811 0425 2E000000 		.4byte	.LVL63
 2812 0429 0400     		.2byte	0x4
 2813 042b F3       		.byte	0xf3
 2814 042c 01       		.uleb128 0x1
 2815 042d 50       		.byte	0x50
 2816 042e 9F       		.byte	0x9f
 2817 042f 2E000000 		.4byte	.LVL63
 2818 0433 3C000000 		.4byte	.LFE14
 2819 0437 0100     		.2byte	0x1
 2820 0439 54       		.byte	0x54
 2821 043a 00000000 		.4byte	0
 2822 043e 00000000 		.4byte	0
 2823              	.LLST23:
 2824 0442 00000000 		.4byte	.LVL58
 2825 0446 09000000 		.4byte	.LVL59-1
 2826 044a 0100     		.2byte	0x1
 2827 044c 51       		.byte	0x51
 2828 044d 09000000 		.4byte	.LVL59-1
 2829 0451 2C000000 		.4byte	.LVL62
 2830 0455 0100     		.2byte	0x1
 2831 0457 55       		.byte	0x55
 2832 0458 2C000000 		.4byte	.LVL62
 2833 045c 2E000000 		.4byte	.LVL63
 2834 0460 0400     		.2byte	0x4
 2835 0462 F3       		.byte	0xf3
 2836 0463 01       		.uleb128 0x1
 2837 0464 51       		.byte	0x51
 2838 0465 9F       		.byte	0x9f
 2839 0466 2E000000 		.4byte	.LVL63
ARM GAS  /var/folders/qh/xwg3v3kj02qbxczjpdb8lzfr0000gn/T//ccIgkMVn.s 			page 51


 2840 046a 3C000000 		.4byte	.LFE14
 2841 046e 0100     		.2byte	0x1
 2842 0470 55       		.byte	0x55
 2843 0471 00000000 		.4byte	0
 2844 0475 00000000 		.4byte	0
 2845              	.LLST24:
 2846 0479 00000000 		.4byte	.LVL64
 2847 047d 0B000000 		.4byte	.LVL65-1
 2848 0481 0100     		.2byte	0x1
 2849 0483 50       		.byte	0x50
 2850 0484 0B000000 		.4byte	.LVL65-1
 2851 0488 38000000 		.4byte	.LVL71
 2852 048c 0100     		.2byte	0x1
 2853 048e 54       		.byte	0x54
 2854 048f 38000000 		.4byte	.LVL71
 2855 0493 3A000000 		.4byte	.LVL74
 2856 0497 0400     		.2byte	0x4
 2857 0499 F3       		.byte	0xf3
 2858 049a 01       		.uleb128 0x1
 2859 049b 50       		.byte	0x50
 2860 049c 9F       		.byte	0x9f
 2861 049d 3A000000 		.4byte	.LVL74
 2862 04a1 40000000 		.4byte	.LFE16
 2863 04a5 0100     		.2byte	0x1
 2864 04a7 54       		.byte	0x54
 2865 04a8 00000000 		.4byte	0
 2866 04ac 00000000 		.4byte	0
 2867              	.LLST25:
 2868 04b0 00000000 		.4byte	.LVL64
 2869 04b4 0B000000 		.4byte	.LVL65-1
 2870 04b8 0100     		.2byte	0x1
 2871 04ba 51       		.byte	0x51
 2872 04bb 0B000000 		.4byte	.LVL65-1
 2873 04bf 38000000 		.4byte	.LVL73
 2874 04c3 0100     		.2byte	0x1
 2875 04c5 56       		.byte	0x56
 2876 04c6 38000000 		.4byte	.LVL73
 2877 04ca 3A000000 		.4byte	.LVL74
 2878 04ce 0400     		.2byte	0x4
 2879 04d0 F3       		.byte	0xf3
 2880 04d1 01       		.uleb128 0x1
 2881 04d2 51       		.byte	0x51
 2882 04d3 9F       		.byte	0x9f
 2883 04d4 3A000000 		.4byte	.LVL74
 2884 04d8 40000000 		.4byte	.LFE16
 2885 04dc 0100     		.2byte	0x1
 2886 04de 56       		.byte	0x56
 2887 04df 00000000 		.4byte	0
 2888 04e3 00000000 		.4byte	0
 2889              	.LLST26:
 2890 04e7 00000000 		.4byte	.LVL64
 2891 04eb 0B000000 		.4byte	.LVL65-1
 2892 04ef 0100     		.2byte	0x1
 2893 04f1 52       		.byte	0x52
 2894 04f2 0B000000 		.4byte	.LVL65-1
 2895 04f6 18000000 		.4byte	.LVL67
 2896 04fa 0100     		.2byte	0x1
ARM GAS  /var/folders/qh/xwg3v3kj02qbxczjpdb8lzfr0000gn/T//ccIgkMVn.s 			page 52


 2897 04fc 55       		.byte	0x55
 2898 04fd 18000000 		.4byte	.LVL67
 2899 0501 40000000 		.4byte	.LFE16
 2900 0505 0400     		.2byte	0x4
 2901 0507 F3       		.byte	0xf3
 2902 0508 01       		.uleb128 0x1
 2903 0509 52       		.byte	0x52
 2904 050a 9F       		.byte	0x9f
 2905 050b 00000000 		.4byte	0
 2906 050f 00000000 		.4byte	0
 2907              	.LLST27:
 2908 0513 18000000 		.4byte	.LVL67
 2909 0517 2C000000 		.4byte	.LVL68
 2910 051b 0100     		.2byte	0x1
 2911 051d 50       		.byte	0x50
 2912 051e 2C000000 		.4byte	.LVL68
 2913 0522 38000000 		.4byte	.LVL72
 2914 0526 0100     		.2byte	0x1
 2915 0528 55       		.byte	0x55
 2916 0529 38000000 		.4byte	.LVL72
 2917 052d 40000000 		.4byte	.LFE16
 2918 0531 0100     		.2byte	0x1
 2919 0533 50       		.byte	0x50
 2920 0534 00000000 		.4byte	0
 2921 0538 00000000 		.4byte	0
 2922              	.LLST28:
 2923 053c 00000000 		.4byte	.LVL75
 2924 0540 0D000000 		.4byte	.LVL76-1
 2925 0544 0100     		.2byte	0x1
 2926 0546 50       		.byte	0x50
 2927 0547 0D000000 		.4byte	.LVL76-1
 2928 054b 22000000 		.4byte	.LVL82
 2929 054f 0100     		.2byte	0x1
 2930 0551 56       		.byte	0x56
 2931 0552 22000000 		.4byte	.LVL82
 2932 0556 24000000 		.4byte	.LFE15
 2933 055a 0400     		.2byte	0x4
 2934 055c F3       		.byte	0xf3
 2935 055d 01       		.uleb128 0x1
 2936 055e 50       		.byte	0x50
 2937 055f 9F       		.byte	0x9f
 2938 0560 00000000 		.4byte	0
 2939 0564 00000000 		.4byte	0
 2940              	.LLST29:
 2941 0568 00000000 		.4byte	.LVL75
 2942 056c 0D000000 		.4byte	.LVL76-1
 2943 0570 0100     		.2byte	0x1
 2944 0572 51       		.byte	0x51
 2945 0573 0D000000 		.4byte	.LVL76-1
 2946 0577 22000000 		.4byte	.LVL81
 2947 057b 0100     		.2byte	0x1
 2948 057d 55       		.byte	0x55
 2949 057e 22000000 		.4byte	.LVL81
 2950 0582 24000000 		.4byte	.LFE15
 2951 0586 0400     		.2byte	0x4
 2952 0588 F3       		.byte	0xf3
 2953 0589 01       		.uleb128 0x1
ARM GAS  /var/folders/qh/xwg3v3kj02qbxczjpdb8lzfr0000gn/T//ccIgkMVn.s 			page 53


 2954 058a 51       		.byte	0x51
 2955 058b 9F       		.byte	0x9f
 2956 058c 00000000 		.4byte	0
 2957 0590 00000000 		.4byte	0
 2958              	.LLST30:
 2959 0594 00000000 		.4byte	.LVL75
 2960 0598 0D000000 		.4byte	.LVL76-1
 2961 059c 0100     		.2byte	0x1
 2962 059e 52       		.byte	0x52
 2963 059f 0D000000 		.4byte	.LVL76-1
 2964 05a3 1A000000 		.4byte	.LVL78
 2965 05a7 0100     		.2byte	0x1
 2966 05a9 54       		.byte	0x54
 2967 05aa 1A000000 		.4byte	.LVL78
 2968 05ae 24000000 		.4byte	.LFE15
 2969 05b2 0400     		.2byte	0x4
 2970 05b4 F3       		.byte	0xf3
 2971 05b5 01       		.uleb128 0x1
 2972 05b6 52       		.byte	0x52
 2973 05b7 9F       		.byte	0x9f
 2974 05b8 00000000 		.4byte	0
 2975 05bc 00000000 		.4byte	0
 2976              	.LLST31:
 2977 05c0 1A000000 		.4byte	.LVL78
 2978 05c4 1D000000 		.4byte	.LVL79-1
 2979 05c8 0100     		.2byte	0x1
 2980 05ca 50       		.byte	0x50
 2981 05cb 1D000000 		.4byte	.LVL79-1
 2982 05cf 22000000 		.4byte	.LVL80
 2983 05d3 0100     		.2byte	0x1
 2984 05d5 54       		.byte	0x54
 2985 05d6 22000000 		.4byte	.LVL80
 2986 05da 24000000 		.4byte	.LFE15
 2987 05de 0100     		.2byte	0x1
 2988 05e0 50       		.byte	0x50
 2989 05e1 00000000 		.4byte	0
 2990 05e5 00000000 		.4byte	0
 2991              	.LLST32:
 2992 05e9 00000000 		.4byte	.LVL83
 2993 05ed 09000000 		.4byte	.LVL84-1
 2994 05f1 0100     		.2byte	0x1
 2995 05f3 50       		.byte	0x50
 2996 05f4 09000000 		.4byte	.LVL84-1
 2997 05f8 2E000000 		.4byte	.LVL86
 2998 05fc 0100     		.2byte	0x1
 2999 05fe 54       		.byte	0x54
 3000 05ff 2E000000 		.4byte	.LVL86
 3001 0603 30000000 		.4byte	.LVL88
 3002 0607 0400     		.2byte	0x4
 3003 0609 F3       		.byte	0xf3
 3004 060a 01       		.uleb128 0x1
 3005 060b 50       		.byte	0x50
 3006 060c 9F       		.byte	0x9f
 3007 060d 30000000 		.4byte	.LVL88
 3008 0611 3C000000 		.4byte	.LFE17
 3009 0615 0100     		.2byte	0x1
 3010 0617 54       		.byte	0x54
ARM GAS  /var/folders/qh/xwg3v3kj02qbxczjpdb8lzfr0000gn/T//ccIgkMVn.s 			page 54


 3011 0618 00000000 		.4byte	0
 3012 061c 00000000 		.4byte	0
 3013              	.LLST33:
 3014 0620 00000000 		.4byte	.LVL83
 3015 0624 09000000 		.4byte	.LVL84-1
 3016 0628 0100     		.2byte	0x1
 3017 062a 51       		.byte	0x51
 3018 062b 09000000 		.4byte	.LVL84-1
 3019 062f 2E000000 		.4byte	.LVL87
 3020 0633 0100     		.2byte	0x1
 3021 0635 55       		.byte	0x55
 3022 0636 2E000000 		.4byte	.LVL87
 3023 063a 30000000 		.4byte	.LVL88
 3024 063e 0400     		.2byte	0x4
 3025 0640 F3       		.byte	0xf3
 3026 0641 01       		.uleb128 0x1
 3027 0642 51       		.byte	0x51
 3028 0643 9F       		.byte	0x9f
 3029 0644 30000000 		.4byte	.LVL88
 3030 0648 3C000000 		.4byte	.LFE17
 3031 064c 0100     		.2byte	0x1
 3032 064e 55       		.byte	0x55
 3033 064f 00000000 		.4byte	0
 3034 0653 00000000 		.4byte	0
 3035              		.section	.debug_aranges,"",%progbits
 3036 0000 6C000000 		.4byte	0x6c
 3037 0004 0200     		.2byte	0x2
 3038 0006 00000000 		.4byte	.Ldebug_info0
 3039 000a 04       		.byte	0x4
 3040 000b 00       		.byte	0
 3041 000c 0000     		.2byte	0
 3042 000e 0000     		.2byte	0
 3043 0010 00000000 		.4byte	.LFB7
 3044 0014 26000000 		.4byte	.LFE7-.LFB7
 3045 0018 00000000 		.4byte	.LFB8
 3046 001c 34000000 		.4byte	.LFE8-.LFB8
 3047 0020 00000000 		.4byte	.LFB10
 3048 0024 3E000000 		.4byte	.LFE10-.LFB10
 3049 0028 00000000 		.4byte	.LFB9
 3050 002c 24000000 		.4byte	.LFE9-.LFB9
 3051 0030 00000000 		.4byte	.LFB11
 3052 0034 3A000000 		.4byte	.LFE11-.LFB11
 3053 0038 00000000 		.4byte	.LFB13
 3054 003c 40000000 		.4byte	.LFE13-.LFB13
 3055 0040 00000000 		.4byte	.LFB12
 3056 0044 24000000 		.4byte	.LFE12-.LFB12
 3057 0048 00000000 		.4byte	.LFB14
 3058 004c 3C000000 		.4byte	.LFE14-.LFB14
 3059 0050 00000000 		.4byte	.LFB16
 3060 0054 40000000 		.4byte	.LFE16-.LFB16
 3061 0058 00000000 		.4byte	.LFB15
 3062 005c 24000000 		.4byte	.LFE15-.LFB15
 3063 0060 00000000 		.4byte	.LFB17
 3064 0064 3C000000 		.4byte	.LFE17-.LFB17
 3065 0068 00000000 		.4byte	0
 3066 006c 00000000 		.4byte	0
 3067              		.section	.debug_ranges,"",%progbits
ARM GAS  /var/folders/qh/xwg3v3kj02qbxczjpdb8lzfr0000gn/T//ccIgkMVn.s 			page 55


 3068              	.Ldebug_ranges0:
 3069 0000 00000000 		.4byte	.LFB7
 3070 0004 26000000 		.4byte	.LFE7
 3071 0008 00000000 		.4byte	.LFB8
 3072 000c 34000000 		.4byte	.LFE8
 3073 0010 00000000 		.4byte	.LFB10
 3074 0014 3E000000 		.4byte	.LFE10
 3075 0018 00000000 		.4byte	.LFB9
 3076 001c 24000000 		.4byte	.LFE9
 3077 0020 00000000 		.4byte	.LFB11
 3078 0024 3A000000 		.4byte	.LFE11
 3079 0028 00000000 		.4byte	.LFB13
 3080 002c 40000000 		.4byte	.LFE13
 3081 0030 00000000 		.4byte	.LFB12
 3082 0034 24000000 		.4byte	.LFE12
 3083 0038 00000000 		.4byte	.LFB14
 3084 003c 3C000000 		.4byte	.LFE14
 3085 0040 00000000 		.4byte	.LFB16
 3086 0044 40000000 		.4byte	.LFE16
 3087 0048 00000000 		.4byte	.LFB15
 3088 004c 24000000 		.4byte	.LFE15
 3089 0050 00000000 		.4byte	.LFB17
 3090 0054 3C000000 		.4byte	.LFE17
 3091 0058 00000000 		.4byte	0
 3092 005c 00000000 		.4byte	0
 3093              		.section	.debug_line,"",%progbits
 3094              	.Ldebug_line0:
 3095 0000 4B020000 		.section	.debug_str,"MS",%progbits,1
 3095      02002F01 
 3095      00000201 
 3095      FB0E0D00 
 3095      01010101 
 3096              	.LASF37:
 3097 0000 705F6D73 		.ascii	"p_msg\000"
 3097      6700
 3098              	.LASF86:
 3099 0006 63685365 		.ascii	"chSemSignalI\000"
 3099      6D536967 
 3099      6E616C49 
 3099      00
 3100              	.LASF62:
 3101 0013 7264796D 		.ascii	"rdymsg\000"
 3101      736700
 3102              	.LASF72:
 3103 001a 63684D42 		.ascii	"chMBPostI\000"
 3103      506F7374 
 3103      4900
 3104              	.LASF70:
 3105 0024 63684D42 		.ascii	"chMBPostS\000"
 3105      506F7374 
 3105      5300
 3106              	.LASF61:
 3107 002e 4D61696C 		.ascii	"Mailbox\000"
 3107      626F7800 
 3108              	.LASF75:
 3109 0036 63684D42 		.ascii	"chMBPostAheadI\000"
 3109      506F7374 
ARM GAS  /var/folders/qh/xwg3v3kj02qbxczjpdb8lzfr0000gn/T//ccIgkMVn.s 			page 56


 3109      41686561 
 3109      644900
 3110              	.LASF11:
 3111 0045 6C6F6E67 		.ascii	"long long unsigned int\000"
 3111      206C6F6E 
 3111      6720756E 
 3111      7369676E 
 3111      65642069 
 3112              	.LASF63:
 3113 005c 65786974 		.ascii	"exitcode\000"
 3113      636F6465 
 3113      00
 3114              	.LASF73:
 3115 0065 63684D42 		.ascii	"chMBPostAheadS\000"
 3115      506F7374 
 3115      41686561 
 3115      645300
 3116              	.LASF57:
 3117 0074 6D625F77 		.ascii	"mb_wrptr\000"
 3117      72707472 
 3117      00
 3118              	.LASF25:
 3119 007d 705F7072 		.ascii	"p_prio\000"
 3119      696F00
 3120              	.LASF10:
 3121 0084 6C6F6E67 		.ascii	"long long int\000"
 3121      206C6F6E 
 3121      6720696E 
 3121      7400
 3122              	.LASF1:
 3123 0092 7369676E 		.ascii	"signed char\000"
 3123      65642063 
 3123      68617200 
 3124              	.LASF41:
 3125 009e 705F6D70 		.ascii	"p_mpool\000"
 3125      6F6F6C00 
 3126              	.LASF52:
 3127 00a6 6D5F7175 		.ascii	"m_queue\000"
 3127      65756500 
 3128              	.LASF16:
 3129 00ae 74736C69 		.ascii	"tslices_t\000"
 3129      6365735F 
 3129      7400
 3130              	.LASF7:
 3131 00b8 6C6F6E67 		.ascii	"long int\000"
 3131      20696E74 
 3131      00
 3132              	.LASF14:
 3133 00c1 74737461 		.ascii	"tstate_t\000"
 3133      74655F74 
 3133      00
 3134              	.LASF27:
 3135 00ca 705F6E65 		.ascii	"p_newer\000"
 3135      77657200 
 3136              	.LASF49:
 3137 00d2 735F7175 		.ascii	"s_queue\000"
 3137      65756500 
ARM GAS  /var/folders/qh/xwg3v3kj02qbxczjpdb8lzfr0000gn/T//ccIgkMVn.s 			page 57


 3138              	.LASF89:
 3139 00da 2E2E2F2E 		.ascii	"../../os/kernel/src/chmboxes.c\000"
 3139      2E2F6F73 
 3139      2F6B6572 
 3139      6E656C2F 
 3139      7372632F 
 3140              	.LASF83:
 3141 00f9 63685363 		.ascii	"chSchRescheduleS\000"
 3141      68526573 
 3141      63686564 
 3141      756C6553 
 3141      00
 3142              	.LASF44:
 3143 010a 72656761 		.ascii	"regarm_t\000"
 3143      726D5F74 
 3143      00
 3144              	.LASF21:
 3145 0113 636E745F 		.ascii	"cnt_t\000"
 3145      7400
 3146              	.LASF0:
 3147 0119 756E7369 		.ascii	"unsigned int\000"
 3147      676E6564 
 3147      20696E74 
 3147      00
 3148              	.LASF67:
 3149 0126 63684D42 		.ascii	"chMBInit\000"
 3149      496E6974 
 3149      00
 3150              	.LASF9:
 3151 012f 6C6F6E67 		.ascii	"long unsigned int\000"
 3151      20756E73 
 3151      69676E65 
 3151      6420696E 
 3151      7400
 3152              	.LASF60:
 3153 0141 6D625F65 		.ascii	"mb_emptysem\000"
 3153      6D707479 
 3153      73656D00 
 3154              	.LASF90:
 3155 014d 2F557365 		.ascii	"/Users/John/Development/embedded/ChibiOS-RT/BluC/ST"
 3155      72732F4A 
 3155      6F686E2F 
 3155      44657665 
 3155      6C6F706D 
 3156 0180 4D333246 		.ascii	"M32F051\000"
 3156      30353100 
 3157              	.LASF50:
 3158 0188 735F636E 		.ascii	"s_cnt\000"
 3158      7400
 3159              	.LASF46:
 3160 018e 636F6E74 		.ascii	"context\000"
 3160      65787400 
 3161              	.LASF4:
 3162 0196 73686F72 		.ascii	"short unsigned int\000"
 3162      7420756E 
 3162      7369676E 
 3162      65642069 
ARM GAS  /var/folders/qh/xwg3v3kj02qbxczjpdb8lzfr0000gn/T//ccIgkMVn.s 			page 58


 3162      6E7400
 3163              	.LASF79:
 3164 01a9 63684D42 		.ascii	"chMBFetchI\000"
 3164      46657463 
 3164      684900
 3165              	.LASF18:
 3166 01b4 6D73675F 		.ascii	"msg_t\000"
 3166      7400
 3167              	.LASF87:
 3168 01ba 63684462 		.ascii	"chDbgCheckClassI\000"
 3168      67436865 
 3168      636B436C 
 3168      61737349 
 3168      00
 3169              	.LASF76:
 3170 01cb 63684D42 		.ascii	"chMBFetchS\000"
 3170      46657463 
 3170      685300
 3171              	.LASF13:
 3172 01d6 746D6F64 		.ascii	"tmode_t\000"
 3172      655F7400 
 3173              	.LASF85:
 3174 01de 63684462 		.ascii	"chDbgCheckClassS\000"
 3174      67436865 
 3174      636B436C 
 3174      61737353 
 3174      00
 3175              	.LASF43:
 3176 01ef 54687265 		.ascii	"ThreadsList\000"
 3176      6164734C 
 3176      69737400 
 3177              	.LASF19:
 3178 01fb 6576656E 		.ascii	"eventmask_t\000"
 3178      746D6173 
 3178      6B5F7400 
 3179              	.LASF51:
 3180 0207 4D757465 		.ascii	"Mutex\000"
 3180      7800
 3181              	.LASF77:
 3182 020d 6D736770 		.ascii	"msgp\000"
 3182      00
 3183              	.LASF84:
 3184 0212 6462675F 		.ascii	"dbg_check_unlock\000"
 3184      63686563 
 3184      6B5F756E 
 3184      6C6F636B 
 3184      00
 3185              	.LASF47:
 3186 0223 73697A65 		.ascii	"sizetype\000"
 3186      74797065 
 3186      00
 3187              	.LASF58:
 3188 022c 6D625F72 		.ascii	"mb_rdptr\000"
 3188      64707472 
 3188      00
 3189              	.LASF88:
 3190 0235 474E5520 		.ascii	"GNU C 4.8.3 20131129 (release) [ARM/embedded-4_8-br"
ARM GAS  /var/folders/qh/xwg3v3kj02qbxczjpdb8lzfr0000gn/T//ccIgkMVn.s 			page 59


 3190      4320342E 
 3190      382E3320 
 3190      32303133 
 3190      31313239 
 3191 0268 616E6368 		.ascii	"anch revision 205641] -mcpu=cortex-m0 -mno-thumb-in"
 3191      20726576 
 3191      6973696F 
 3191      6E203230 
 3191      35363431 
 3192 029b 74657277 		.ascii	"terwork -mthumb -ggdb -O2 -fomit-frame-pointer -fal"
 3192      6F726B20 
 3192      2D6D7468 
 3192      756D6220 
 3192      2D676764 
 3193 02ce 69676E2D 		.ascii	"ign-functions=16 -ffunction-sections -fdata-section"
 3193      66756E63 
 3193      74696F6E 
 3193      733D3136 
 3193      202D6666 
 3194 0301 73202D66 		.ascii	"s -fno-common\000"
 3194      6E6F2D63 
 3194      6F6D6D6F 
 3194      6E00
 3195              	.LASF68:
 3196 030f 63684D42 		.ascii	"chMBReset\000"
 3196      52657365 
 3196      7400
 3197              	.LASF28:
 3198 0319 705F6F6C 		.ascii	"p_older\000"
 3198      64657200 
 3199              	.LASF42:
 3200 0321 54687265 		.ascii	"ThreadsQueue\000"
 3200      61647351 
 3200      75657565 
 3200      00
 3201              	.LASF55:
 3202 032e 6D625F62 		.ascii	"mb_buffer\000"
 3202      75666665 
 3202      7200
 3203              	.LASF69:
 3204 0338 74696D65 		.ascii	"time\000"
 3204      00
 3205              	.LASF82:
 3206 033d 6462675F 		.ascii	"dbg_check_lock\000"
 3206      63686563 
 3206      6B5F6C6F 
 3206      636B00
 3207              	.LASF15:
 3208 034c 74726566 		.ascii	"trefs_t\000"
 3208      735F7400 
 3209              	.LASF24:
 3210 0354 705F7072 		.ascii	"p_prev\000"
 3210      657600
 3211              	.LASF17:
 3212 035b 74707269 		.ascii	"tprio_t\000"
 3212      6F5F7400 
 3213              	.LASF12:
ARM GAS  /var/folders/qh/xwg3v3kj02qbxczjpdb8lzfr0000gn/T//ccIgkMVn.s 			page 60


 3214 0363 5F426F6F 		.ascii	"_Bool\000"
 3214      6C00
 3215              	.LASF6:
 3216 0369 696E7433 		.ascii	"int32_t\000"
 3216      325F7400 
 3217              	.LASF2:
 3218 0371 756E7369 		.ascii	"unsigned char\000"
 3218      676E6564 
 3218      20636861 
 3218      7200
 3219              	.LASF56:
 3220 037f 6D625F74 		.ascii	"mb_top\000"
 3220      6F7000
 3221              	.LASF39:
 3222 0386 705F6D74 		.ascii	"p_mtxlist\000"
 3222      786C6973 
 3222      7400
 3223              	.LASF3:
 3224 0390 73686F72 		.ascii	"short int\000"
 3224      7420696E 
 3224      7400
 3225              	.LASF30:
 3226 039a 705F7374 		.ascii	"p_state\000"
 3226      61746500 
 3227              	.LASF33:
 3228 03a2 705F7072 		.ascii	"p_preempt\000"
 3228      65656D70 
 3228      7400
 3229              	.LASF65:
 3230 03ac 65776D61 		.ascii	"ewmask\000"
 3230      736B00
 3231              	.LASF23:
 3232 03b3 705F6E65 		.ascii	"p_next\000"
 3232      787400
 3233              	.LASF31:
 3234 03ba 705F666C 		.ascii	"p_flags\000"
 3234      61677300 
 3235              	.LASF71:
 3236 03c2 63684D42 		.ascii	"chMBPost\000"
 3236      506F7374 
 3236      00
 3237              	.LASF22:
 3238 03cb 54687265 		.ascii	"Thread\000"
 3238      616400
 3239              	.LASF38:
 3240 03d2 705F6570 		.ascii	"p_epending\000"
 3240      656E6469 
 3240      6E6700
 3241              	.LASF8:
 3242 03dd 75696E74 		.ascii	"uint32_t\000"
 3242      33325F74 
 3242      00
 3243              	.LASF66:
 3244 03e6 63686172 		.ascii	"char\000"
 3244      00
 3245              	.LASF91:
 3246 03eb 63685365 		.ascii	"chSemWaitTimeoutS\000"
ARM GAS  /var/folders/qh/xwg3v3kj02qbxczjpdb8lzfr0000gn/T//ccIgkMVn.s 			page 61


 3246      6D576169 
 3246      7454696D 
 3246      656F7574 
 3246      5300
 3247              	.LASF54:
 3248 03fd 6D5F6E65 		.ascii	"m_next\000"
 3248      787400
 3249              	.LASF20:
 3250 0404 73797374 		.ascii	"systime_t\000"
 3250      696D655F 
 3250      7400
 3251              	.LASF40:
 3252 040e 705F7265 		.ascii	"p_realprio\000"
 3252      616C7072 
 3252      696F00
 3253              	.LASF34:
 3254 0419 705F7469 		.ascii	"p_time\000"
 3254      6D6500
 3255              	.LASF74:
 3256 0420 63684D42 		.ascii	"chMBPostAhead\000"
 3256      506F7374 
 3256      41686561 
 3256      6400
 3257              	.LASF45:
 3258 042e 696E7463 		.ascii	"intctx\000"
 3258      747800
 3259              	.LASF36:
 3260 0435 705F6D73 		.ascii	"p_msgqueue\000"
 3260      67717565 
 3260      756500
 3261              	.LASF78:
 3262 0440 63684D42 		.ascii	"chMBFetch\000"
 3262      46657463 
 3262      6800
 3263              	.LASF48:
 3264 044a 53656D61 		.ascii	"Semaphore\000"
 3264      70686F72 
 3264      6500
 3265              	.LASF59:
 3266 0454 6D625F66 		.ascii	"mb_fullsem\000"
 3266      756C6C73 
 3266      656D00
 3267              	.LASF32:
 3268 045f 705F7265 		.ascii	"p_refs\000"
 3268      667300
 3269              	.LASF81:
 3270 0466 63685365 		.ascii	"chSemResetI\000"
 3270      6D526573 
 3270      65744900 
 3271              	.LASF5:
 3272 0472 75696E74 		.ascii	"uint8_t\000"
 3272      385F7400 
 3273              	.LASF64:
 3274 047a 77746F62 		.ascii	"wtobjp\000"
 3274      6A7000
 3275              	.LASF29:
 3276 0481 705F6E61 		.ascii	"p_name\000"
ARM GAS  /var/folders/qh/xwg3v3kj02qbxczjpdb8lzfr0000gn/T//ccIgkMVn.s 			page 62


 3276      6D6500
 3277              	.LASF53:
 3278 0488 6D5F6F77 		.ascii	"m_owner\000"
 3278      6E657200 
 3279              	.LASF26:
 3280 0490 705F6374 		.ascii	"p_ctx\000"
 3280      7800
 3281              	.LASF35:
 3282 0496 705F7761 		.ascii	"p_waiting\000"
 3282      6974696E 
 3282      6700
 3283              	.LASF80:
 3284 04a0 63685365 		.ascii	"chSemInit\000"
 3284      6D496E69 
 3284      7400
 3285              		.ident	"GCC: (GNU Tools for ARM Embedded Processors) 4.8.3 20131129 (release) [ARM/embedded-4_8-br
ARM GAS  /var/folders/qh/xwg3v3kj02qbxczjpdb8lzfr0000gn/T//ccIgkMVn.s 			page 63


DEFINED SYMBOLS
                            *ABS*:0000000000000000 chmboxes.c
/var/folders/qh/xwg3v3kj02qbxczjpdb8lzfr0000gn/T//ccIgkMVn.s:18     .text.chMBInit:0000000000000000 $t
/var/folders/qh/xwg3v3kj02qbxczjpdb8lzfr0000gn/T//ccIgkMVn.s:24     .text.chMBInit:0000000000000000 chMBInit
/var/folders/qh/xwg3v3kj02qbxczjpdb8lzfr0000gn/T//ccIgkMVn.s:68     .text.chMBReset:0000000000000000 $t
/var/folders/qh/xwg3v3kj02qbxczjpdb8lzfr0000gn/T//ccIgkMVn.s:74     .text.chMBReset:0000000000000000 chMBReset
/var/folders/qh/xwg3v3kj02qbxczjpdb8lzfr0000gn/T//ccIgkMVn.s:131    .text.chMBPostS:0000000000000000 $t
/var/folders/qh/xwg3v3kj02qbxczjpdb8lzfr0000gn/T//ccIgkMVn.s:137    .text.chMBPostS:0000000000000000 chMBPostS
/var/folders/qh/xwg3v3kj02qbxczjpdb8lzfr0000gn/T//ccIgkMVn.s:202    .text.chMBPost:0000000000000000 $t
/var/folders/qh/xwg3v3kj02qbxczjpdb8lzfr0000gn/T//ccIgkMVn.s:208    .text.chMBPost:0000000000000000 chMBPost
/var/folders/qh/xwg3v3kj02qbxczjpdb8lzfr0000gn/T//ccIgkMVn.s:256    .text.chMBPostI:0000000000000000 $t
/var/folders/qh/xwg3v3kj02qbxczjpdb8lzfr0000gn/T//ccIgkMVn.s:262    .text.chMBPostI:0000000000000000 chMBPostI
/var/folders/qh/xwg3v3kj02qbxczjpdb8lzfr0000gn/T//ccIgkMVn.s:325    .text.chMBPostAheadS:0000000000000000 $t
/var/folders/qh/xwg3v3kj02qbxczjpdb8lzfr0000gn/T//ccIgkMVn.s:331    .text.chMBPostAheadS:0000000000000000 chMBPostAheadS
/var/folders/qh/xwg3v3kj02qbxczjpdb8lzfr0000gn/T//ccIgkMVn.s:398    .text.chMBPostAhead:0000000000000000 $t
/var/folders/qh/xwg3v3kj02qbxczjpdb8lzfr0000gn/T//ccIgkMVn.s:404    .text.chMBPostAhead:0000000000000000 chMBPostAhead
/var/folders/qh/xwg3v3kj02qbxczjpdb8lzfr0000gn/T//ccIgkMVn.s:452    .text.chMBPostAheadI:0000000000000000 $t
/var/folders/qh/xwg3v3kj02qbxczjpdb8lzfr0000gn/T//ccIgkMVn.s:458    .text.chMBPostAheadI:0000000000000000 chMBPostAheadI
/var/folders/qh/xwg3v3kj02qbxczjpdb8lzfr0000gn/T//ccIgkMVn.s:522    .text.chMBFetchS:0000000000000000 $t
/var/folders/qh/xwg3v3kj02qbxczjpdb8lzfr0000gn/T//ccIgkMVn.s:528    .text.chMBFetchS:0000000000000000 chMBFetchS
/var/folders/qh/xwg3v3kj02qbxczjpdb8lzfr0000gn/T//ccIgkMVn.s:594    .text.chMBFetch:0000000000000000 $t
/var/folders/qh/xwg3v3kj02qbxczjpdb8lzfr0000gn/T//ccIgkMVn.s:600    .text.chMBFetch:0000000000000000 chMBFetch
/var/folders/qh/xwg3v3kj02qbxczjpdb8lzfr0000gn/T//ccIgkMVn.s:648    .text.chMBFetchI:0000000000000000 $t
/var/folders/qh/xwg3v3kj02qbxczjpdb8lzfr0000gn/T//ccIgkMVn.s:654    .text.chMBFetchI:0000000000000000 chMBFetchI
                     .debug_frame:0000000000000010 $d

UNDEFINED SYMBOLS
chSemInit
dbg_check_lock
chSemResetI
chSchRescheduleS
dbg_check_unlock
chDbgCheckClassS
chSemWaitTimeoutS
chSemSignalI
chDbgCheckClassI
