ARM GAS  /var/folders/qh/xwg3v3kj02qbxczjpdb8lzfr0000gn/T//cc98kZlw.s 			page 1


   1              		.cpu cortex-m0
   2              		.fpu softvfp
   3              		.eabi_attribute 20, 1
   4              		.eabi_attribute 21, 1
   5              		.eabi_attribute 23, 3
   6              		.eabi_attribute 24, 1
   7              		.eabi_attribute 25, 1
   8              		.eabi_attribute 26, 1
   9              		.eabi_attribute 30, 2
  10              		.eabi_attribute 34, 0
  11              		.eabi_attribute 18, 4
  12              		.code	16
  13              		.file	"chmemcore.c"
  14              		.text
  15              	.Ltext0:
  16              		.cfi_sections	.debug_frame
  17              		.section	.text._core_init,"ax",%progbits
  18              		.align	2
  19              		.p2align 4,,15
  20              		.global	_core_init
  21              		.code	16
  22              		.thumb_func
  23              		.type	_core_init, %function
  24              	_core_init:
  25              	.LFB7:
  26              		.file 1 "../../os/kernel/src/chmemcore.c"
  27              		.loc 1 59 0
  28              		.cfi_startproc
  29              		.loc 1 63 0
  30 0000 0549     		ldr	r1, .L2
  31 0002 0723     		mov	r3, #7
  32 0004 054A     		ldr	r2, .L2+4
  33 0006 0731     		add	r1, r1, #7
  34 0008 9943     		bic	r1, r3
  35 000a 1160     		str	r1, [r2]
  36              		.loc 1 64 0
  37 000c 044A     		ldr	r2, .L2+8
  38              		.loc 1 70 0
  39              		@ sp needed
  40              		.loc 1 64 0
  41 000e 9A43     		bic	r2, r3
  42 0010 044B     		ldr	r3, .L2+12
  43 0012 1A60     		str	r2, [r3]
  44              		.loc 1 70 0
  45 0014 7047     		bx	lr
  46              	.L3:
  47 0016 C046     		.align	2
  48              	.L2:
  49 0018 00000000 		.word	__heap_base__
  50 001c 00000000 		.word	.LANCHOR0
  51 0020 00000000 		.word	__heap_end__
  52 0024 00000000 		.word	.LANCHOR1
  53              		.cfi_endproc
  54              	.LFE7:
  55              		.size	_core_init, .-_core_init
  56 0028 C046C046 		.section	.text.chCoreAllocI,"ax",%progbits
  56      C046C046 
ARM GAS  /var/folders/qh/xwg3v3kj02qbxczjpdb8lzfr0000gn/T//cc98kZlw.s 			page 2


  57              		.align	2
  58              		.p2align 4,,15
  59              		.global	chCoreAllocI
  60              		.code	16
  61              		.thumb_func
  62              		.type	chCoreAllocI, %function
  63              	chCoreAllocI:
  64              	.LFB9:
  65              		.loc 1 105 0
  66              		.cfi_startproc
  67              	.LVL0:
  68 0000 10B5     		push	{r4, lr}
  69              		.cfi_def_cfa_offset 8
  70              		.cfi_offset 4, -8
  71              		.cfi_offset 14, -4
  72              		.loc 1 105 0
  73 0002 041C     		mov	r4, r0
  74              		.loc 1 108 0
  75 0004 FFF7FEFF 		bl	chDbgCheckClassI
  76              	.LVL1:
  77              		.loc 1 110 0
  78 0008 0723     		mov	r3, #7
  79 000a E21D     		add	r2, r4, #7
  80 000c 9A43     		bic	r2, r3
  81              	.LVL2:
  82              		.loc 1 111 0
  83 000e 0649     		ldr	r1, .L8
  84 0010 064B     		ldr	r3, .L8+4
  85 0012 0968     		ldr	r1, [r1]
  86 0014 1868     		ldr	r0, [r3]
  87 0016 091A     		sub	r1, r1, r0
  88 0018 8A42     		cmp	r2, r1
  89 001a 02D8     		bhi	.L6
  90              	.LVL3:
  91              		.loc 1 114 0
  92 001c 8218     		add	r2, r0, r2
  93              	.LVL4:
  94 001e 1A60     		str	r2, [r3]
  95              	.LVL5:
  96              	.L5:
  97              		.loc 1 116 0
  98              		@ sp needed
  99              	.LVL6:
 100 0020 10BD     		pop	{r4, pc}
 101              	.LVL7:
 102              	.L6:
 103              		.loc 1 112 0
 104 0022 0020     		mov	r0, #0
 105 0024 FCE7     		b	.L5
 106              	.L9:
 107 0026 C046     		.align	2
 108              	.L8:
 109 0028 00000000 		.word	.LANCHOR1
 110 002c 00000000 		.word	.LANCHOR0
 111              		.cfi_endproc
 112              	.LFE9:
 113              		.size	chCoreAllocI, .-chCoreAllocI
ARM GAS  /var/folders/qh/xwg3v3kj02qbxczjpdb8lzfr0000gn/T//cc98kZlw.s 			page 3


 114              		.section	.text.chCoreAlloc,"ax",%progbits
 115              		.align	2
 116              		.p2align 4,,15
 117              		.global	chCoreAlloc
 118              		.code	16
 119              		.thumb_func
 120              		.type	chCoreAlloc, %function
 121              	chCoreAlloc:
 122              	.LFB8:
 123              		.loc 1 84 0
 124              		.cfi_startproc
 125              	.LVL8:
 126 0000 10B5     		push	{r4, lr}
 127              		.cfi_def_cfa_offset 8
 128              		.cfi_offset 4, -8
 129              		.cfi_offset 14, -4
 130              		.loc 1 84 0
 131 0002 041C     		mov	r4, r0
 132              		.loc 1 87 0
 133              	@ 87 "../../os/kernel/src/chmemcore.c" 1
 134 0004 72B6     		cpsid   i
 135              	@ 0 "" 2
 136              		.code	16
 137 0006 FFF7FEFF 		bl	dbg_check_lock
 138              	.LVL9:
 139              		.loc 1 88 0
 140 000a 201C     		mov	r0, r4
 141 000c FFF7FEFF 		bl	chCoreAllocI
 142              	.LVL10:
 143 0010 041C     		mov	r4, r0
 144              	.LVL11:
 145              		.loc 1 89 0
 146 0012 FFF7FEFF 		bl	dbg_check_unlock
 147              	.LVL12:
 148              	@ 89 "../../os/kernel/src/chmemcore.c" 1
 149 0016 62B6     		cpsie   i
 150              	@ 0 "" 2
 151              		.loc 1 91 0
 152              		.code	16
 153 0018 201C     		mov	r0, r4
 154              		@ sp needed
 155              	.LVL13:
 156 001a 10BD     		pop	{r4, pc}
 157              		.cfi_endproc
 158              	.LFE8:
 159              		.size	chCoreAlloc, .-chCoreAlloc
 160 001c C046C046 		.section	.text.chCoreStatus,"ax",%progbits
 161              		.align	2
 162              		.p2align 4,,15
 163              		.global	chCoreStatus
 164              		.code	16
 165              		.thumb_func
 166              		.type	chCoreStatus, %function
 167              	chCoreStatus:
 168              	.LFB10:
 169              		.loc 1 125 0
 170              		.cfi_startproc
ARM GAS  /var/folders/qh/xwg3v3kj02qbxczjpdb8lzfr0000gn/T//cc98kZlw.s 			page 4


 171              		.loc 1 127 0
 172 0000 024B     		ldr	r3, .L12
 173              		.loc 1 128 0
 174              		@ sp needed
 175              		.loc 1 127 0
 176 0002 1868     		ldr	r0, [r3]
 177 0004 024B     		ldr	r3, .L12+4
 178 0006 1B68     		ldr	r3, [r3]
 179 0008 C01A     		sub	r0, r0, r3
 180              		.loc 1 128 0
 181 000a 7047     		bx	lr
 182              	.L13:
 183              		.align	2
 184              	.L12:
 185 000c 00000000 		.word	.LANCHOR1
 186 0010 00000000 		.word	.LANCHOR0
 187              		.cfi_endproc
 188              	.LFE10:
 189              		.size	chCoreStatus, .-chCoreStatus
 190 0014 C046C046 		.section	.bss.endmem,"aw",%nobits
 190      C046C046 
 190      C046C046 
 191              		.align	2
 192              		.set	.LANCHOR1,. + 0
 193              		.type	endmem, %object
 194              		.size	endmem, 4
 195              	endmem:
 196 0000 00000000 		.space	4
 197              		.section	.bss.nextmem,"aw",%nobits
 198              		.align	2
 199              		.set	.LANCHOR0,. + 0
 200              		.type	nextmem, %object
 201              		.size	nextmem, 4
 202              	nextmem:
 203 0000 00000000 		.space	4
 204              		.text
 205              	.Letext0:
 206              		.file 2 "/usr/local/Cellar/gcc-arm-none-eabi-48/20131218/lib/gcc/arm-none-eabi/4.8.3/include/stdde
 207              		.file 3 "/usr/local/Cellar/gcc-arm-none-eabi-48/20131218/arm-none-eabi/include/stdint.h"
 208              		.file 4 "../../os/kernel/include/chdebug.h"
 209              		.section	.debug_info,"",%progbits
 210              	.Ldebug_info0:
 211 0000 CF010000 		.4byte	0x1cf
 212 0004 0400     		.2byte	0x4
 213 0006 00000000 		.4byte	.Ldebug_abbrev0
 214 000a 04       		.byte	0x4
 215 000b 01       		.uleb128 0x1
 216 000c 0E000000 		.4byte	.LASF24
 217 0010 01       		.byte	0x1
 218 0011 26020000 		.4byte	.LASF25
 219 0015 AA010000 		.4byte	.LASF26
 220 0019 00000000 		.4byte	.Ldebug_ranges0+0
 221 001d 00000000 		.4byte	0
 222 0021 00000000 		.4byte	.Ldebug_line0
 223 0025 02       		.uleb128 0x2
 224 0026 04       		.byte	0x4
 225 0027 05       		.byte	0x5
ARM GAS  /var/folders/qh/xwg3v3kj02qbxczjpdb8lzfr0000gn/T//cc98kZlw.s 			page 5


 226 0028 696E7400 		.ascii	"int\000"
 227 002c 03       		.uleb128 0x3
 228 002d 07000000 		.4byte	.LASF2
 229 0031 02       		.byte	0x2
 230 0032 D4       		.byte	0xd4
 231 0033 37000000 		.4byte	0x37
 232 0037 04       		.uleb128 0x4
 233 0038 04       		.byte	0x4
 234 0039 07       		.byte	0x7
 235 003a 7E010000 		.4byte	.LASF0
 236 003e 04       		.uleb128 0x4
 237 003f 01       		.byte	0x1
 238 0040 06       		.byte	0x6
 239 0041 5B020000 		.4byte	.LASF1
 240 0045 03       		.uleb128 0x3
 241 0046 A2010000 		.4byte	.LASF3
 242 004a 03       		.byte	0x3
 243 004b 2A       		.byte	0x2a
 244 004c 50000000 		.4byte	0x50
 245 0050 04       		.uleb128 0x4
 246 0051 01       		.byte	0x1
 247 0052 08       		.byte	0x8
 248 0053 65010000 		.4byte	.LASF4
 249 0057 04       		.uleb128 0x4
 250 0058 02       		.byte	0x2
 251 0059 05       		.byte	0x5
 252 005a 1C020000 		.4byte	.LASF5
 253 005e 04       		.uleb128 0x4
 254 005f 02       		.byte	0x2
 255 0060 07       		.byte	0x7
 256 0061 52010000 		.4byte	.LASF6
 257 0065 04       		.uleb128 0x4
 258 0066 04       		.byte	0x4
 259 0067 05       		.byte	0x5
 260 0068 52020000 		.4byte	.LASF7
 261 006c 04       		.uleb128 0x4
 262 006d 04       		.byte	0x4
 263 006e 07       		.byte	0x7
 264 006f 33010000 		.4byte	.LASF8
 265 0073 04       		.uleb128 0x4
 266 0074 08       		.byte	0x8
 267 0075 05       		.byte	0x5
 268 0076 FC010000 		.4byte	.LASF9
 269 007a 04       		.uleb128 0x4
 270 007b 08       		.byte	0x8
 271 007c 07       		.byte	0x7
 272 007d 8B010000 		.4byte	.LASF10
 273 0081 04       		.uleb128 0x4
 274 0082 01       		.byte	0x1
 275 0083 02       		.byte	0x2
 276 0084 67020000 		.4byte	.LASF11
 277 0088 05       		.uleb128 0x5
 278 0089 04       		.byte	0x4
 279 008a 04       		.uleb128 0x4
 280 008b 04       		.byte	0x4
 281 008c 07       		.byte	0x7
 282 008d F3010000 		.4byte	.LASF12
ARM GAS  /var/folders/qh/xwg3v3kj02qbxczjpdb8lzfr0000gn/T//cc98kZlw.s 			page 6


 283 0091 04       		.uleb128 0x4
 284 0092 01       		.byte	0x1
 285 0093 08       		.byte	0x8
 286 0094 0A020000 		.4byte	.LASF13
 287 0098 06       		.uleb128 0x6
 288 0099 04       		.byte	0x4
 289 009a 45000000 		.4byte	0x45
 290 009e 07       		.uleb128 0x7
 291 009f 73010000 		.4byte	.LASF27
 292 00a3 01       		.byte	0x1
 293 00a4 3B       		.byte	0x3b
 294 00a5 00000000 		.4byte	.LFB7
 295 00a9 28000000 		.4byte	.LFE7-.LFB7
 296 00ad 01       		.uleb128 0x1
 297 00ae 9C       		.byte	0x9c
 298 00af CA000000 		.4byte	0xca
 299 00b3 08       		.uleb128 0x8
 300 00b4 E5010000 		.4byte	.LASF14
 301 00b8 01       		.byte	0x1
 302 00b9 3D       		.byte	0x3d
 303 00ba CA000000 		.4byte	0xca
 304 00be 08       		.uleb128 0x8
 305 00bf 0F020000 		.4byte	.LASF15
 306 00c3 01       		.byte	0x1
 307 00c4 3E       		.byte	0x3e
 308 00c5 CA000000 		.4byte	0xca
 309 00c9 00       		.byte	0
 310 00ca 09       		.uleb128 0x9
 311 00cb 45000000 		.4byte	0x45
 312 00cf D5000000 		.4byte	0xd5
 313 00d3 0A       		.uleb128 0xa
 314 00d4 00       		.byte	0
 315 00d5 0B       		.uleb128 0xb
 316 00d6 21010000 		.4byte	.LASF16
 317 00da 01       		.byte	0x1
 318 00db 69       		.byte	0x69
 319 00dc 88000000 		.4byte	0x88
 320 00e0 00000000 		.4byte	.LFB9
 321 00e4 30000000 		.4byte	.LFE9-.LFB9
 322 00e8 01       		.uleb128 0x1
 323 00e9 9C       		.byte	0x9c
 324 00ea 14010000 		.4byte	0x114
 325 00ee 0C       		.uleb128 0xc
 326 00ef 2E010000 		.4byte	.LASF18
 327 00f3 01       		.byte	0x1
 328 00f4 69       		.byte	0x69
 329 00f5 2C000000 		.4byte	0x2c
 330 00f9 00000000 		.4byte	.LLST0
 331 00fd 0D       		.uleb128 0xd
 332 00fe 7000     		.ascii	"p\000"
 333 0100 01       		.byte	0x1
 334 0101 6A       		.byte	0x6a
 335 0102 88000000 		.4byte	0x88
 336 0106 57000000 		.4byte	.LLST1
 337 010a 0E       		.uleb128 0xe
 338 010b 08000000 		.4byte	.LVL1
 339 010f BD010000 		.4byte	0x1bd
ARM GAS  /var/folders/qh/xwg3v3kj02qbxczjpdb8lzfr0000gn/T//cc98kZlw.s 			page 7


 340 0113 00       		.byte	0
 341 0114 0B       		.uleb128 0xb
 342 0115 46020000 		.4byte	.LASF17
 343 0119 01       		.byte	0x1
 344 011a 54       		.byte	0x54
 345 011b 88000000 		.4byte	0x88
 346 011f 00000000 		.4byte	.LFB8
 347 0123 1C000000 		.4byte	.LFE8-.LFB8
 348 0127 01       		.uleb128 0x1
 349 0128 9C       		.byte	0x9c
 350 0129 70010000 		.4byte	0x170
 351 012d 0C       		.uleb128 0xc
 352 012e 2E010000 		.4byte	.LASF18
 353 0132 01       		.byte	0x1
 354 0133 54       		.byte	0x54
 355 0134 2C000000 		.4byte	0x2c
 356 0138 6A000000 		.4byte	.LLST2
 357 013c 0D       		.uleb128 0xd
 358 013d 7000     		.ascii	"p\000"
 359 013f 01       		.byte	0x1
 360 0140 55       		.byte	0x55
 361 0141 88000000 		.4byte	0x88
 362 0145 96000000 		.4byte	.LLST3
 363 0149 0E       		.uleb128 0xe
 364 014a 0A000000 		.4byte	.LVL9
 365 014e C4010000 		.4byte	0x1c4
 366 0152 0F       		.uleb128 0xf
 367 0153 10000000 		.4byte	.LVL10
 368 0157 D5000000 		.4byte	0xd5
 369 015b 66010000 		.4byte	0x166
 370 015f 10       		.uleb128 0x10
 371 0160 01       		.uleb128 0x1
 372 0161 50       		.byte	0x50
 373 0162 02       		.uleb128 0x2
 374 0163 74       		.byte	0x74
 375 0164 00       		.sleb128 0
 376 0165 00       		.byte	0
 377 0166 0E       		.uleb128 0xe
 378 0167 16000000 		.4byte	.LVL12
 379 016b CB010000 		.4byte	0x1cb
 380 016f 00       		.byte	0
 381 0170 11       		.uleb128 0x11
 382 0171 45010000 		.4byte	.LASF28
 383 0175 01       		.byte	0x1
 384 0176 7D       		.byte	0x7d
 385 0177 2C000000 		.4byte	0x2c
 386 017b 00000000 		.4byte	.LFB10
 387 017f 14000000 		.4byte	.LFE10-.LFB10
 388 0183 01       		.uleb128 0x1
 389 0184 9C       		.byte	0x9c
 390 0185 12       		.uleb128 0x12
 391 0186 19010000 		.4byte	.LASF19
 392 018a 01       		.byte	0x1
 393 018b 33       		.byte	0x33
 394 018c 98000000 		.4byte	0x98
 395 0190 05       		.uleb128 0x5
 396 0191 03       		.byte	0x3
ARM GAS  /var/folders/qh/xwg3v3kj02qbxczjpdb8lzfr0000gn/T//cc98kZlw.s 			page 8


 397 0192 00000000 		.4byte	nextmem
 398 0196 12       		.uleb128 0x12
 399 0197 00000000 		.4byte	.LASF20
 400 019b 01       		.byte	0x1
 401 019c 34       		.byte	0x34
 402 019d 98000000 		.4byte	0x98
 403 01a1 05       		.uleb128 0x5
 404 01a2 03       		.byte	0x3
 405 01a3 00000000 		.4byte	endmem
 406 01a7 08       		.uleb128 0x8
 407 01a8 E5010000 		.4byte	.LASF14
 408 01ac 01       		.byte	0x1
 409 01ad 3D       		.byte	0x3d
 410 01ae CA000000 		.4byte	0xca
 411 01b2 08       		.uleb128 0x8
 412 01b3 0F020000 		.4byte	.LASF15
 413 01b7 01       		.byte	0x1
 414 01b8 3E       		.byte	0x3e
 415 01b9 CA000000 		.4byte	0xca
 416 01bd 13       		.uleb128 0x13
 417 01be 08010000 		.4byte	.LASF21
 418 01c2 04       		.byte	0x4
 419 01c3 E6       		.byte	0xe6
 420 01c4 13       		.uleb128 0x13
 421 01c5 E8000000 		.4byte	.LASF22
 422 01c9 04       		.byte	0x4
 423 01ca E0       		.byte	0xe0
 424 01cb 13       		.uleb128 0x13
 425 01cc F7000000 		.4byte	.LASF23
 426 01d0 04       		.byte	0x4
 427 01d1 E1       		.byte	0xe1
 428 01d2 00       		.byte	0
 429              		.section	.debug_abbrev,"",%progbits
 430              	.Ldebug_abbrev0:
 431 0000 01       		.uleb128 0x1
 432 0001 11       		.uleb128 0x11
 433 0002 01       		.byte	0x1
 434 0003 25       		.uleb128 0x25
 435 0004 0E       		.uleb128 0xe
 436 0005 13       		.uleb128 0x13
 437 0006 0B       		.uleb128 0xb
 438 0007 03       		.uleb128 0x3
 439 0008 0E       		.uleb128 0xe
 440 0009 1B       		.uleb128 0x1b
 441 000a 0E       		.uleb128 0xe
 442 000b 55       		.uleb128 0x55
 443 000c 17       		.uleb128 0x17
 444 000d 11       		.uleb128 0x11
 445 000e 01       		.uleb128 0x1
 446 000f 10       		.uleb128 0x10
 447 0010 17       		.uleb128 0x17
 448 0011 00       		.byte	0
 449 0012 00       		.byte	0
 450 0013 02       		.uleb128 0x2
 451 0014 24       		.uleb128 0x24
 452 0015 00       		.byte	0
 453 0016 0B       		.uleb128 0xb
ARM GAS  /var/folders/qh/xwg3v3kj02qbxczjpdb8lzfr0000gn/T//cc98kZlw.s 			page 9


 454 0017 0B       		.uleb128 0xb
 455 0018 3E       		.uleb128 0x3e
 456 0019 0B       		.uleb128 0xb
 457 001a 03       		.uleb128 0x3
 458 001b 08       		.uleb128 0x8
 459 001c 00       		.byte	0
 460 001d 00       		.byte	0
 461 001e 03       		.uleb128 0x3
 462 001f 16       		.uleb128 0x16
 463 0020 00       		.byte	0
 464 0021 03       		.uleb128 0x3
 465 0022 0E       		.uleb128 0xe
 466 0023 3A       		.uleb128 0x3a
 467 0024 0B       		.uleb128 0xb
 468 0025 3B       		.uleb128 0x3b
 469 0026 0B       		.uleb128 0xb
 470 0027 49       		.uleb128 0x49
 471 0028 13       		.uleb128 0x13
 472 0029 00       		.byte	0
 473 002a 00       		.byte	0
 474 002b 04       		.uleb128 0x4
 475 002c 24       		.uleb128 0x24
 476 002d 00       		.byte	0
 477 002e 0B       		.uleb128 0xb
 478 002f 0B       		.uleb128 0xb
 479 0030 3E       		.uleb128 0x3e
 480 0031 0B       		.uleb128 0xb
 481 0032 03       		.uleb128 0x3
 482 0033 0E       		.uleb128 0xe
 483 0034 00       		.byte	0
 484 0035 00       		.byte	0
 485 0036 05       		.uleb128 0x5
 486 0037 0F       		.uleb128 0xf
 487 0038 00       		.byte	0
 488 0039 0B       		.uleb128 0xb
 489 003a 0B       		.uleb128 0xb
 490 003b 00       		.byte	0
 491 003c 00       		.byte	0
 492 003d 06       		.uleb128 0x6
 493 003e 0F       		.uleb128 0xf
 494 003f 00       		.byte	0
 495 0040 0B       		.uleb128 0xb
 496 0041 0B       		.uleb128 0xb
 497 0042 49       		.uleb128 0x49
 498 0043 13       		.uleb128 0x13
 499 0044 00       		.byte	0
 500 0045 00       		.byte	0
 501 0046 07       		.uleb128 0x7
 502 0047 2E       		.uleb128 0x2e
 503 0048 01       		.byte	0x1
 504 0049 3F       		.uleb128 0x3f
 505 004a 19       		.uleb128 0x19
 506 004b 03       		.uleb128 0x3
 507 004c 0E       		.uleb128 0xe
 508 004d 3A       		.uleb128 0x3a
 509 004e 0B       		.uleb128 0xb
 510 004f 3B       		.uleb128 0x3b
ARM GAS  /var/folders/qh/xwg3v3kj02qbxczjpdb8lzfr0000gn/T//cc98kZlw.s 			page 10


 511 0050 0B       		.uleb128 0xb
 512 0051 27       		.uleb128 0x27
 513 0052 19       		.uleb128 0x19
 514 0053 11       		.uleb128 0x11
 515 0054 01       		.uleb128 0x1
 516 0055 12       		.uleb128 0x12
 517 0056 06       		.uleb128 0x6
 518 0057 40       		.uleb128 0x40
 519 0058 18       		.uleb128 0x18
 520 0059 9742     		.uleb128 0x2117
 521 005b 19       		.uleb128 0x19
 522 005c 01       		.uleb128 0x1
 523 005d 13       		.uleb128 0x13
 524 005e 00       		.byte	0
 525 005f 00       		.byte	0
 526 0060 08       		.uleb128 0x8
 527 0061 34       		.uleb128 0x34
 528 0062 00       		.byte	0
 529 0063 03       		.uleb128 0x3
 530 0064 0E       		.uleb128 0xe
 531 0065 3A       		.uleb128 0x3a
 532 0066 0B       		.uleb128 0xb
 533 0067 3B       		.uleb128 0x3b
 534 0068 0B       		.uleb128 0xb
 535 0069 49       		.uleb128 0x49
 536 006a 13       		.uleb128 0x13
 537 006b 3F       		.uleb128 0x3f
 538 006c 19       		.uleb128 0x19
 539 006d 3C       		.uleb128 0x3c
 540 006e 19       		.uleb128 0x19
 541 006f 00       		.byte	0
 542 0070 00       		.byte	0
 543 0071 09       		.uleb128 0x9
 544 0072 01       		.uleb128 0x1
 545 0073 01       		.byte	0x1
 546 0074 49       		.uleb128 0x49
 547 0075 13       		.uleb128 0x13
 548 0076 01       		.uleb128 0x1
 549 0077 13       		.uleb128 0x13
 550 0078 00       		.byte	0
 551 0079 00       		.byte	0
 552 007a 0A       		.uleb128 0xa
 553 007b 21       		.uleb128 0x21
 554 007c 00       		.byte	0
 555 007d 00       		.byte	0
 556 007e 00       		.byte	0
 557 007f 0B       		.uleb128 0xb
 558 0080 2E       		.uleb128 0x2e
 559 0081 01       		.byte	0x1
 560 0082 3F       		.uleb128 0x3f
 561 0083 19       		.uleb128 0x19
 562 0084 03       		.uleb128 0x3
 563 0085 0E       		.uleb128 0xe
 564 0086 3A       		.uleb128 0x3a
 565 0087 0B       		.uleb128 0xb
 566 0088 3B       		.uleb128 0x3b
 567 0089 0B       		.uleb128 0xb
ARM GAS  /var/folders/qh/xwg3v3kj02qbxczjpdb8lzfr0000gn/T//cc98kZlw.s 			page 11


 568 008a 27       		.uleb128 0x27
 569 008b 19       		.uleb128 0x19
 570 008c 49       		.uleb128 0x49
 571 008d 13       		.uleb128 0x13
 572 008e 11       		.uleb128 0x11
 573 008f 01       		.uleb128 0x1
 574 0090 12       		.uleb128 0x12
 575 0091 06       		.uleb128 0x6
 576 0092 40       		.uleb128 0x40
 577 0093 18       		.uleb128 0x18
 578 0094 9742     		.uleb128 0x2117
 579 0096 19       		.uleb128 0x19
 580 0097 01       		.uleb128 0x1
 581 0098 13       		.uleb128 0x13
 582 0099 00       		.byte	0
 583 009a 00       		.byte	0
 584 009b 0C       		.uleb128 0xc
 585 009c 05       		.uleb128 0x5
 586 009d 00       		.byte	0
 587 009e 03       		.uleb128 0x3
 588 009f 0E       		.uleb128 0xe
 589 00a0 3A       		.uleb128 0x3a
 590 00a1 0B       		.uleb128 0xb
 591 00a2 3B       		.uleb128 0x3b
 592 00a3 0B       		.uleb128 0xb
 593 00a4 49       		.uleb128 0x49
 594 00a5 13       		.uleb128 0x13
 595 00a6 02       		.uleb128 0x2
 596 00a7 17       		.uleb128 0x17
 597 00a8 00       		.byte	0
 598 00a9 00       		.byte	0
 599 00aa 0D       		.uleb128 0xd
 600 00ab 34       		.uleb128 0x34
 601 00ac 00       		.byte	0
 602 00ad 03       		.uleb128 0x3
 603 00ae 08       		.uleb128 0x8
 604 00af 3A       		.uleb128 0x3a
 605 00b0 0B       		.uleb128 0xb
 606 00b1 3B       		.uleb128 0x3b
 607 00b2 0B       		.uleb128 0xb
 608 00b3 49       		.uleb128 0x49
 609 00b4 13       		.uleb128 0x13
 610 00b5 02       		.uleb128 0x2
 611 00b6 17       		.uleb128 0x17
 612 00b7 00       		.byte	0
 613 00b8 00       		.byte	0
 614 00b9 0E       		.uleb128 0xe
 615 00ba 898201   		.uleb128 0x4109
 616 00bd 00       		.byte	0
 617 00be 11       		.uleb128 0x11
 618 00bf 01       		.uleb128 0x1
 619 00c0 31       		.uleb128 0x31
 620 00c1 13       		.uleb128 0x13
 621 00c2 00       		.byte	0
 622 00c3 00       		.byte	0
 623 00c4 0F       		.uleb128 0xf
 624 00c5 898201   		.uleb128 0x4109
ARM GAS  /var/folders/qh/xwg3v3kj02qbxczjpdb8lzfr0000gn/T//cc98kZlw.s 			page 12


 625 00c8 01       		.byte	0x1
 626 00c9 11       		.uleb128 0x11
 627 00ca 01       		.uleb128 0x1
 628 00cb 31       		.uleb128 0x31
 629 00cc 13       		.uleb128 0x13
 630 00cd 01       		.uleb128 0x1
 631 00ce 13       		.uleb128 0x13
 632 00cf 00       		.byte	0
 633 00d0 00       		.byte	0
 634 00d1 10       		.uleb128 0x10
 635 00d2 8A8201   		.uleb128 0x410a
 636 00d5 00       		.byte	0
 637 00d6 02       		.uleb128 0x2
 638 00d7 18       		.uleb128 0x18
 639 00d8 9142     		.uleb128 0x2111
 640 00da 18       		.uleb128 0x18
 641 00db 00       		.byte	0
 642 00dc 00       		.byte	0
 643 00dd 11       		.uleb128 0x11
 644 00de 2E       		.uleb128 0x2e
 645 00df 00       		.byte	0
 646 00e0 3F       		.uleb128 0x3f
 647 00e1 19       		.uleb128 0x19
 648 00e2 03       		.uleb128 0x3
 649 00e3 0E       		.uleb128 0xe
 650 00e4 3A       		.uleb128 0x3a
 651 00e5 0B       		.uleb128 0xb
 652 00e6 3B       		.uleb128 0x3b
 653 00e7 0B       		.uleb128 0xb
 654 00e8 27       		.uleb128 0x27
 655 00e9 19       		.uleb128 0x19
 656 00ea 49       		.uleb128 0x49
 657 00eb 13       		.uleb128 0x13
 658 00ec 11       		.uleb128 0x11
 659 00ed 01       		.uleb128 0x1
 660 00ee 12       		.uleb128 0x12
 661 00ef 06       		.uleb128 0x6
 662 00f0 40       		.uleb128 0x40
 663 00f1 18       		.uleb128 0x18
 664 00f2 9742     		.uleb128 0x2117
 665 00f4 19       		.uleb128 0x19
 666 00f5 00       		.byte	0
 667 00f6 00       		.byte	0
 668 00f7 12       		.uleb128 0x12
 669 00f8 34       		.uleb128 0x34
 670 00f9 00       		.byte	0
 671 00fa 03       		.uleb128 0x3
 672 00fb 0E       		.uleb128 0xe
 673 00fc 3A       		.uleb128 0x3a
 674 00fd 0B       		.uleb128 0xb
 675 00fe 3B       		.uleb128 0x3b
 676 00ff 0B       		.uleb128 0xb
 677 0100 49       		.uleb128 0x49
 678 0101 13       		.uleb128 0x13
 679 0102 02       		.uleb128 0x2
 680 0103 18       		.uleb128 0x18
 681 0104 00       		.byte	0
ARM GAS  /var/folders/qh/xwg3v3kj02qbxczjpdb8lzfr0000gn/T//cc98kZlw.s 			page 13


 682 0105 00       		.byte	0
 683 0106 13       		.uleb128 0x13
 684 0107 2E       		.uleb128 0x2e
 685 0108 00       		.byte	0
 686 0109 3F       		.uleb128 0x3f
 687 010a 19       		.uleb128 0x19
 688 010b 03       		.uleb128 0x3
 689 010c 0E       		.uleb128 0xe
 690 010d 3A       		.uleb128 0x3a
 691 010e 0B       		.uleb128 0xb
 692 010f 3B       		.uleb128 0x3b
 693 0110 0B       		.uleb128 0xb
 694 0111 27       		.uleb128 0x27
 695 0112 19       		.uleb128 0x19
 696 0113 3C       		.uleb128 0x3c
 697 0114 19       		.uleb128 0x19
 698 0115 00       		.byte	0
 699 0116 00       		.byte	0
 700 0117 00       		.byte	0
 701              		.section	.debug_loc,"",%progbits
 702              	.Ldebug_loc0:
 703              	.LLST0:
 704 0000 00000000 		.4byte	.LVL0
 705 0004 07000000 		.4byte	.LVL1-1
 706 0008 0100     		.2byte	0x1
 707 000a 50       		.byte	0x50
 708 000b 07000000 		.4byte	.LVL1-1
 709 000f 0E000000 		.4byte	.LVL2
 710 0013 0100     		.2byte	0x1
 711 0015 54       		.byte	0x54
 712 0016 0E000000 		.4byte	.LVL2
 713 001a 1E000000 		.4byte	.LVL4
 714 001e 0100     		.2byte	0x1
 715 0020 52       		.byte	0x52
 716 0021 1E000000 		.4byte	.LVL4
 717 0025 20000000 		.4byte	.LVL6
 718 0029 0600     		.2byte	0x6
 719 002b 74       		.byte	0x74
 720 002c 07       		.sleb128 7
 721 002d 09       		.byte	0x9
 722 002e F8       		.byte	0xf8
 723 002f 1A       		.byte	0x1a
 724 0030 9F       		.byte	0x9f
 725 0031 20000000 		.4byte	.LVL6
 726 0035 22000000 		.4byte	.LVL7
 727 0039 0900     		.2byte	0x9
 728 003b F3       		.byte	0xf3
 729 003c 01       		.uleb128 0x1
 730 003d 50       		.byte	0x50
 731 003e 23       		.byte	0x23
 732 003f 07       		.uleb128 0x7
 733 0040 09       		.byte	0x9
 734 0041 F8       		.byte	0xf8
 735 0042 1A       		.byte	0x1a
 736 0043 9F       		.byte	0x9f
 737 0044 22000000 		.4byte	.LVL7
 738 0048 30000000 		.4byte	.LFE9
ARM GAS  /var/folders/qh/xwg3v3kj02qbxczjpdb8lzfr0000gn/T//cc98kZlw.s 			page 14


 739 004c 0100     		.2byte	0x1
 740 004e 52       		.byte	0x52
 741 004f 00000000 		.4byte	0
 742 0053 00000000 		.4byte	0
 743              	.LLST1:
 744 0057 1C000000 		.4byte	.LVL3
 745 005b 20000000 		.4byte	.LVL5
 746 005f 0100     		.2byte	0x1
 747 0061 50       		.byte	0x50
 748 0062 00000000 		.4byte	0
 749 0066 00000000 		.4byte	0
 750              	.LLST2:
 751 006a 00000000 		.4byte	.LVL8
 752 006e 09000000 		.4byte	.LVL9-1
 753 0072 0100     		.2byte	0x1
 754 0074 50       		.byte	0x50
 755 0075 09000000 		.4byte	.LVL9-1
 756 0079 12000000 		.4byte	.LVL11
 757 007d 0100     		.2byte	0x1
 758 007f 54       		.byte	0x54
 759 0080 12000000 		.4byte	.LVL11
 760 0084 1C000000 		.4byte	.LFE8
 761 0088 0400     		.2byte	0x4
 762 008a F3       		.byte	0xf3
 763 008b 01       		.uleb128 0x1
 764 008c 50       		.byte	0x50
 765 008d 9F       		.byte	0x9f
 766 008e 00000000 		.4byte	0
 767 0092 00000000 		.4byte	0
 768              	.LLST3:
 769 0096 12000000 		.4byte	.LVL11
 770 009a 15000000 		.4byte	.LVL12-1
 771 009e 0100     		.2byte	0x1
 772 00a0 50       		.byte	0x50
 773 00a1 15000000 		.4byte	.LVL12-1
 774 00a5 1A000000 		.4byte	.LVL13
 775 00a9 0100     		.2byte	0x1
 776 00ab 54       		.byte	0x54
 777 00ac 1A000000 		.4byte	.LVL13
 778 00b0 1C000000 		.4byte	.LFE8
 779 00b4 0100     		.2byte	0x1
 780 00b6 50       		.byte	0x50
 781 00b7 00000000 		.4byte	0
 782 00bb 00000000 		.4byte	0
 783              		.section	.debug_aranges,"",%progbits
 784 0000 34000000 		.4byte	0x34
 785 0004 0200     		.2byte	0x2
 786 0006 00000000 		.4byte	.Ldebug_info0
 787 000a 04       		.byte	0x4
 788 000b 00       		.byte	0
 789 000c 0000     		.2byte	0
 790 000e 0000     		.2byte	0
 791 0010 00000000 		.4byte	.LFB7
 792 0014 28000000 		.4byte	.LFE7-.LFB7
 793 0018 00000000 		.4byte	.LFB9
 794 001c 30000000 		.4byte	.LFE9-.LFB9
 795 0020 00000000 		.4byte	.LFB8
ARM GAS  /var/folders/qh/xwg3v3kj02qbxczjpdb8lzfr0000gn/T//cc98kZlw.s 			page 15


 796 0024 1C000000 		.4byte	.LFE8-.LFB8
 797 0028 00000000 		.4byte	.LFB10
 798 002c 14000000 		.4byte	.LFE10-.LFB10
 799 0030 00000000 		.4byte	0
 800 0034 00000000 		.4byte	0
 801              		.section	.debug_ranges,"",%progbits
 802              	.Ldebug_ranges0:
 803 0000 00000000 		.4byte	.LFB7
 804 0004 28000000 		.4byte	.LFE7
 805 0008 00000000 		.4byte	.LFB9
 806 000c 30000000 		.4byte	.LFE9
 807 0010 00000000 		.4byte	.LFB8
 808 0014 1C000000 		.4byte	.LFE8
 809 0018 00000000 		.4byte	.LFB10
 810 001c 14000000 		.4byte	.LFE10
 811 0020 00000000 		.4byte	0
 812 0024 00000000 		.4byte	0
 813              		.section	.debug_line,"",%progbits
 814              	.Ldebug_line0:
 815 0000 69010000 		.section	.debug_str,"MS",%progbits,1
 815      02000D01 
 815      00000201 
 815      FB0E0D00 
 815      01010101 
 816              	.LASF20:
 817 0000 656E646D 		.ascii	"endmem\000"
 817      656D00
 818              	.LASF2:
 819 0007 73697A65 		.ascii	"size_t\000"
 819      5F7400
 820              	.LASF24:
 821 000e 474E5520 		.ascii	"GNU C 4.8.3 20131129 (release) [ARM/embedded-4_8-br"
 821      4320342E 
 821      382E3320 
 821      32303133 
 821      31313239 
 822 0041 616E6368 		.ascii	"anch revision 205641] -mcpu=cortex-m0 -mno-thumb-in"
 822      20726576 
 822      6973696F 
 822      6E203230 
 822      35363431 
 823 0074 74657277 		.ascii	"terwork -mthumb -ggdb -O2 -fomit-frame-pointer -fal"
 823      6F726B20 
 823      2D6D7468 
 823      756D6220 
 823      2D676764 
 824 00a7 69676E2D 		.ascii	"ign-functions=16 -ffunction-sections -fdata-section"
 824      66756E63 
 824      74696F6E 
 824      733D3136 
 824      202D6666 
 825 00da 73202D66 		.ascii	"s -fno-common\000"
 825      6E6F2D63 
 825      6F6D6D6F 
 825      6E00
 826              	.LASF22:
 827 00e8 6462675F 		.ascii	"dbg_check_lock\000"
ARM GAS  /var/folders/qh/xwg3v3kj02qbxczjpdb8lzfr0000gn/T//cc98kZlw.s 			page 16


 827      63686563 
 827      6B5F6C6F 
 827      636B00
 828              	.LASF23:
 829 00f7 6462675F 		.ascii	"dbg_check_unlock\000"
 829      63686563 
 829      6B5F756E 
 829      6C6F636B 
 829      00
 830              	.LASF21:
 831 0108 63684462 		.ascii	"chDbgCheckClassI\000"
 831      67436865 
 831      636B436C 
 831      61737349 
 831      00
 832              	.LASF19:
 833 0119 6E657874 		.ascii	"nextmem\000"
 833      6D656D00 
 834              	.LASF16:
 835 0121 6368436F 		.ascii	"chCoreAllocI\000"
 835      7265416C 
 835      6C6F6349 
 835      00
 836              	.LASF18:
 837 012e 73697A65 		.ascii	"size\000"
 837      00
 838              	.LASF8:
 839 0133 6C6F6E67 		.ascii	"long unsigned int\000"
 839      20756E73 
 839      69676E65 
 839      6420696E 
 839      7400
 840              	.LASF28:
 841 0145 6368436F 		.ascii	"chCoreStatus\000"
 841      72655374 
 841      61747573 
 841      00
 842              	.LASF6:
 843 0152 73686F72 		.ascii	"short unsigned int\000"
 843      7420756E 
 843      7369676E 
 843      65642069 
 843      6E7400
 844              	.LASF4:
 845 0165 756E7369 		.ascii	"unsigned char\000"
 845      676E6564 
 845      20636861 
 845      7200
 846              	.LASF27:
 847 0173 5F636F72 		.ascii	"_core_init\000"
 847      655F696E 
 847      697400
 848              	.LASF0:
 849 017e 756E7369 		.ascii	"unsigned int\000"
 849      676E6564 
 849      20696E74 
 849      00
ARM GAS  /var/folders/qh/xwg3v3kj02qbxczjpdb8lzfr0000gn/T//cc98kZlw.s 			page 17


 850              	.LASF10:
 851 018b 6C6F6E67 		.ascii	"long long unsigned int\000"
 851      206C6F6E 
 851      6720756E 
 851      7369676E 
 851      65642069 
 852              	.LASF3:
 853 01a2 75696E74 		.ascii	"uint8_t\000"
 853      385F7400 
 854              	.LASF26:
 855 01aa 2F557365 		.ascii	"/Users/John/Development/embedded/ChibiOS-RT/BluC/ST"
 855      72732F4A 
 855      6F686E2F 
 855      44657665 
 855      6C6F706D 
 856 01dd 4D333246 		.ascii	"M32F051\000"
 856      30353100 
 857              	.LASF14:
 858 01e5 5F5F6865 		.ascii	"__heap_base__\000"
 858      61705F62 
 858      6173655F 
 858      5F00
 859              	.LASF12:
 860 01f3 73697A65 		.ascii	"sizetype\000"
 860      74797065 
 860      00
 861              	.LASF9:
 862 01fc 6C6F6E67 		.ascii	"long long int\000"
 862      206C6F6E 
 862      6720696E 
 862      7400
 863              	.LASF13:
 864 020a 63686172 		.ascii	"char\000"
 864      00
 865              	.LASF15:
 866 020f 5F5F6865 		.ascii	"__heap_end__\000"
 866      61705F65 
 866      6E645F5F 
 866      00
 867              	.LASF5:
 868 021c 73686F72 		.ascii	"short int\000"
 868      7420696E 
 868      7400
 869              	.LASF25:
 870 0226 2E2E2F2E 		.ascii	"../../os/kernel/src/chmemcore.c\000"
 870      2E2F6F73 
 870      2F6B6572 
 870      6E656C2F 
 870      7372632F 
 871              	.LASF17:
 872 0246 6368436F 		.ascii	"chCoreAlloc\000"
 872      7265416C 
 872      6C6F6300 
 873              	.LASF7:
 874 0252 6C6F6E67 		.ascii	"long int\000"
 874      20696E74 
 874      00
ARM GAS  /var/folders/qh/xwg3v3kj02qbxczjpdb8lzfr0000gn/T//cc98kZlw.s 			page 18


 875              	.LASF1:
 876 025b 7369676E 		.ascii	"signed char\000"
 876      65642063 
 876      68617200 
 877              	.LASF11:
 878 0267 5F426F6F 		.ascii	"_Bool\000"
 878      6C00
 879              		.ident	"GCC: (GNU Tools for ARM Embedded Processors) 4.8.3 20131129 (release) [ARM/embedded-4_8-br
ARM GAS  /var/folders/qh/xwg3v3kj02qbxczjpdb8lzfr0000gn/T//cc98kZlw.s 			page 19


DEFINED SYMBOLS
                            *ABS*:0000000000000000 chmemcore.c
/var/folders/qh/xwg3v3kj02qbxczjpdb8lzfr0000gn/T//cc98kZlw.s:18     .text._core_init:0000000000000000 $t
/var/folders/qh/xwg3v3kj02qbxczjpdb8lzfr0000gn/T//cc98kZlw.s:24     .text._core_init:0000000000000000 _core_init
/var/folders/qh/xwg3v3kj02qbxczjpdb8lzfr0000gn/T//cc98kZlw.s:49     .text._core_init:0000000000000018 $d
/var/folders/qh/xwg3v3kj02qbxczjpdb8lzfr0000gn/T//cc98kZlw.s:57     .text.chCoreAllocI:0000000000000000 $t
/var/folders/qh/xwg3v3kj02qbxczjpdb8lzfr0000gn/T//cc98kZlw.s:63     .text.chCoreAllocI:0000000000000000 chCoreAllocI
/var/folders/qh/xwg3v3kj02qbxczjpdb8lzfr0000gn/T//cc98kZlw.s:109    .text.chCoreAllocI:0000000000000028 $d
/var/folders/qh/xwg3v3kj02qbxczjpdb8lzfr0000gn/T//cc98kZlw.s:115    .text.chCoreAlloc:0000000000000000 $t
/var/folders/qh/xwg3v3kj02qbxczjpdb8lzfr0000gn/T//cc98kZlw.s:121    .text.chCoreAlloc:0000000000000000 chCoreAlloc
/var/folders/qh/xwg3v3kj02qbxczjpdb8lzfr0000gn/T//cc98kZlw.s:161    .text.chCoreStatus:0000000000000000 $t
/var/folders/qh/xwg3v3kj02qbxczjpdb8lzfr0000gn/T//cc98kZlw.s:167    .text.chCoreStatus:0000000000000000 chCoreStatus
/var/folders/qh/xwg3v3kj02qbxczjpdb8lzfr0000gn/T//cc98kZlw.s:185    .text.chCoreStatus:000000000000000c $d
/var/folders/qh/xwg3v3kj02qbxczjpdb8lzfr0000gn/T//cc98kZlw.s:191    .bss.endmem:0000000000000000 $d
/var/folders/qh/xwg3v3kj02qbxczjpdb8lzfr0000gn/T//cc98kZlw.s:195    .bss.endmem:0000000000000000 endmem
/var/folders/qh/xwg3v3kj02qbxczjpdb8lzfr0000gn/T//cc98kZlw.s:198    .bss.nextmem:0000000000000000 $d
/var/folders/qh/xwg3v3kj02qbxczjpdb8lzfr0000gn/T//cc98kZlw.s:202    .bss.nextmem:0000000000000000 nextmem
                     .debug_frame:0000000000000010 $d
/var/folders/qh/xwg3v3kj02qbxczjpdb8lzfr0000gn/T//cc98kZlw.s:56     .text._core_init:0000000000000028 $t
/var/folders/qh/xwg3v3kj02qbxczjpdb8lzfr0000gn/T//cc98kZlw.s:190    .text.chCoreStatus:0000000000000014 $t

UNDEFINED SYMBOLS
__heap_base__
__heap_end__
chDbgCheckClassI
dbg_check_lock
dbg_check_unlock
