ARM GAS  /var/folders/qh/xwg3v3kj02qbxczjpdb8lzfr0000gn/T//ccfaZdch.s 			page 1


   1              		.cpu cortex-m0
   2              		.fpu softvfp
   3              		.eabi_attribute 20, 1
   4              		.eabi_attribute 21, 1
   5              		.eabi_attribute 23, 3
   6              		.eabi_attribute 24, 1
   7              		.eabi_attribute 25, 1
   8              		.eabi_attribute 26, 1
   9              		.eabi_attribute 30, 2
  10              		.eabi_attribute 34, 0
  11              		.eabi_attribute 18, 4
  12              		.code	16
  13              		.file	"chmempools.c"
  14              		.text
  15              	.Ltext0:
  16              		.cfi_sections	.debug_frame
  17              		.section	.text.chPoolInit,"ax",%progbits
  18              		.align	2
  19              		.p2align 4,,15
  20              		.global	chPoolInit
  21              		.code	16
  22              		.thumb_func
  23              		.type	chPoolInit, %function
  24              	chPoolInit:
  25              	.LFB7:
  26              		.file 1 "../../os/kernel/src/chmempools.c"
  27              		.loc 1 55 0
  28              		.cfi_startproc
  29              	.LVL0:
  30              		.loc 1 59 0
  31 0000 0023     		mov	r3, #0
  32 0002 0360     		str	r3, [r0]
  33              		.loc 1 60 0
  34 0004 4160     		str	r1, [r0, #4]
  35              		.loc 1 61 0
  36 0006 8260     		str	r2, [r0, #8]
  37              		.loc 1 62 0
  38              		@ sp needed
  39 0008 7047     		bx	lr
  40              		.cfi_endproc
  41              	.LFE7:
  42              		.size	chPoolInit, .-chPoolInit
  43 000a C046C046 		.section	.text.chPoolLoadArray,"ax",%progbits
  43      C046
  44              		.align	2
  45              		.p2align 4,,15
  46              		.global	chPoolLoadArray
  47              		.code	16
  48              		.thumb_func
  49              		.type	chPoolLoadArray, %function
  50              	chPoolLoadArray:
  51              	.LFB8:
  52              		.loc 1 77 0
  53              		.cfi_startproc
  54              	.LVL1:
  55 0000 07E0     		b	.L10
  56              	.L8:
ARM GAS  /var/folders/qh/xwg3v3kj02qbxczjpdb8lzfr0000gn/T//ccfaZdch.s 			page 2


  57              	.LVL2:
  58              	.LBB10:
  59              	.LBB11:
  60              		.loc 1 166 0
  61              	@ 166 "../../os/kernel/src/chmempools.c" 1
  62 0002 72B6     		cpsid   i
  63              	@ 0 "" 2
  64              	.LVL3:
  65              		.code	16
  66              	.LBB12:
  67              	.LBB13:
  68              		.loc 1 148 0
  69 0004 0368     		ldr	r3, [r0]
  70 0006 0B60     		str	r3, [r1]
  71              		.loc 1 149 0
  72 0008 0160     		str	r1, [r0]
  73              	.LBE13:
  74              	.LBE12:
  75              		.loc 1 168 0
  76              	@ 168 "../../os/kernel/src/chmempools.c" 1
  77 000a 62B6     		cpsie   i
  78              	@ 0 "" 2
  79              		.code	16
  80              	.LBE11:
  81              	.LBE10:
  82              		.loc 1 83 0
  83 000c 4368     		ldr	r3, [r0, #4]
  84              		.loc 1 84 0
  85 000e 013A     		sub	r2, r2, #1
  86              	.LVL4:
  87              		.loc 1 83 0
  88 0010 C918     		add	r1, r1, r3
  89              	.LVL5:
  90              	.L10:
  91              		.loc 1 81 0
  92 0012 002A     		cmp	r2, #0
  93 0014 F5D1     		bne	.L8
  94              		.loc 1 86 0
  95              		@ sp needed
  96 0016 7047     		bx	lr
  97              		.cfi_endproc
  98              	.LFE8:
  99              		.size	chPoolLoadArray, .-chPoolLoadArray
 100 0018 C046C046 		.section	.text.chPoolAllocI,"ax",%progbits
 100      C046C046 
 101              		.align	2
 102              		.p2align 4,,15
 103              		.global	chPoolAllocI
 104              		.code	16
 105              		.thumb_func
 106              		.type	chPoolAllocI, %function
 107              	chPoolAllocI:
 108              	.LFB9:
 109              		.loc 1 98 0
 110              		.cfi_startproc
 111              	.LVL6:
 112 0000 08B5     		push	{r3, lr}
ARM GAS  /var/folders/qh/xwg3v3kj02qbxczjpdb8lzfr0000gn/T//ccfaZdch.s 			page 3


 113              		.cfi_def_cfa_offset 8
 114              		.cfi_offset 3, -8
 115              		.cfi_offset 14, -4
 116              		.loc 1 98 0
 117 0002 031C     		mov	r3, r0
 118              		.loc 1 104 0
 119 0004 0068     		ldr	r0, [r0]
 120              	.LVL7:
 121 0006 0028     		cmp	r0, #0
 122 0008 02D0     		beq	.L13
 123              		.loc 1 105 0
 124 000a 0268     		ldr	r2, [r0]
 125 000c 1A60     		str	r2, [r3]
 126              	.LVL8:
 127              	.L14:
 128              		.loc 1 109 0
 129              		@ sp needed
 130 000e 08BD     		pop	{r3, pc}
 131              	.LVL9:
 132              	.L13:
 133              		.loc 1 106 0
 134 0010 9A68     		ldr	r2, [r3, #8]
 135 0012 002A     		cmp	r2, #0
 136 0014 FBD0     		beq	.L14
 137              		.loc 1 107 0
 138 0016 5868     		ldr	r0, [r3, #4]
 139              	.LVL10:
 140 0018 9047     		blx	r2
 141              	.LVL11:
 142 001a F8E7     		b	.L14
 143              		.cfi_endproc
 144              	.LFE9:
 145              		.size	chPoolAllocI, .-chPoolAllocI
 146 001c C046C046 		.section	.text.chPoolAlloc,"ax",%progbits
 147              		.align	2
 148              		.p2align 4,,15
 149              		.global	chPoolAlloc
 150              		.code	16
 151              		.thumb_func
 152              		.type	chPoolAlloc, %function
 153              	chPoolAlloc:
 154              	.LFB10:
 155              		.loc 1 121 0
 156              		.cfi_startproc
 157              	.LVL12:
 158 0000 08B5     		push	{r3, lr}
 159              		.cfi_def_cfa_offset 8
 160              		.cfi_offset 3, -8
 161              		.cfi_offset 14, -4
 162              		.loc 1 121 0
 163 0002 031C     		mov	r3, r0
 164              		.loc 1 124 0
 165              	@ 124 "../../os/kernel/src/chmempools.c" 1
 166 0004 72B6     		cpsid   i
 167              	@ 0 "" 2
 168              	.LVL13:
 169              		.code	16
ARM GAS  /var/folders/qh/xwg3v3kj02qbxczjpdb8lzfr0000gn/T//ccfaZdch.s 			page 4


 170              	.LBB14:
 171              	.LBB15:
 172              		.loc 1 104 0
 173 0006 0068     		ldr	r0, [r0]
 174              	.LVL14:
 175 0008 0028     		cmp	r0, #0
 176 000a 03D0     		beq	.L19
 177              		.loc 1 105 0
 178 000c 0268     		ldr	r2, [r0]
 179 000e 1A60     		str	r2, [r3]
 180              	.LVL15:
 181              	.L20:
 182              	.LBE15:
 183              	.LBE14:
 184              		.loc 1 126 0
 185              	@ 126 "../../os/kernel/src/chmempools.c" 1
 186 0010 62B6     		cpsie   i
 187              	@ 0 "" 2
 188              		.loc 1 128 0
 189              		.code	16
 190              		@ sp needed
 191 0012 08BD     		pop	{r3, pc}
 192              	.LVL16:
 193              	.L19:
 194              	.LBB17:
 195              	.LBB16:
 196              		.loc 1 106 0
 197 0014 9A68     		ldr	r2, [r3, #8]
 198 0016 002A     		cmp	r2, #0
 199 0018 FAD0     		beq	.L20
 200              		.loc 1 107 0
 201 001a 5868     		ldr	r0, [r3, #4]
 202              	.LVL17:
 203 001c 9047     		blx	r2
 204              	.LVL18:
 205 001e F7E7     		b	.L20
 206              	.LBE16:
 207              	.LBE17:
 208              		.cfi_endproc
 209              	.LFE10:
 210              		.size	chPoolAlloc, .-chPoolAlloc
 211              		.section	.text.chPoolFreeI,"ax",%progbits
 212              		.align	2
 213              		.p2align 4,,15
 214              		.global	chPoolFreeI
 215              		.code	16
 216              		.thumb_func
 217              		.type	chPoolFreeI, %function
 218              	chPoolFreeI:
 219              	.LFB11:
 220              		.loc 1 142 0
 221              		.cfi_startproc
 222              	.LVL19:
 223              		.loc 1 148 0
 224 0000 0368     		ldr	r3, [r0]
 225              		.loc 1 150 0
 226              		@ sp needed
ARM GAS  /var/folders/qh/xwg3v3kj02qbxczjpdb8lzfr0000gn/T//ccfaZdch.s 			page 5


 227              		.loc 1 148 0
 228 0002 0B60     		str	r3, [r1]
 229              		.loc 1 149 0
 230 0004 0160     		str	r1, [r0]
 231              		.loc 1 150 0
 232 0006 7047     		bx	lr
 233              		.cfi_endproc
 234              	.LFE11:
 235              		.size	chPoolFreeI, .-chPoolFreeI
 236 0008 C046C046 		.section	.text.chPoolFree,"ax",%progbits
 236      C046C046 
 237              		.align	2
 238              		.p2align 4,,15
 239              		.global	chPoolFree
 240              		.code	16
 241              		.thumb_func
 242              		.type	chPoolFree, %function
 243              	chPoolFree:
 244              	.LFB12:
 245              		.loc 1 164 0
 246              		.cfi_startproc
 247              	.LVL20:
 248              		.loc 1 166 0
 249              	@ 166 "../../os/kernel/src/chmempools.c" 1
 250 0000 72B6     		cpsid   i
 251              	@ 0 "" 2
 252              	.LVL21:
 253              		.code	16
 254              	.LBB18:
 255              	.LBB19:
 256              		.loc 1 148 0
 257 0002 0368     		ldr	r3, [r0]
 258 0004 0B60     		str	r3, [r1]
 259              		.loc 1 149 0
 260 0006 0160     		str	r1, [r0]
 261              	.LBE19:
 262              	.LBE18:
 263              		.loc 1 168 0
 264              	@ 168 "../../os/kernel/src/chmempools.c" 1
 265 0008 62B6     		cpsie   i
 266              	@ 0 "" 2
 267              		.loc 1 169 0
 268              		.code	16
 269              		@ sp needed
 270 000a 7047     		bx	lr
 271              		.cfi_endproc
 272              	.LFE12:
 273              		.size	chPoolFree, .-chPoolFree
 274 000c C046C046 		.text
 275              	.Letext0:
 276              		.file 2 "/usr/local/Cellar/gcc-arm-none-eabi-48/20131218/lib/gcc/arm-none-eabi/4.8.3/include/stdde
 277              		.file 3 "/usr/local/Cellar/gcc-arm-none-eabi-48/20131218/arm-none-eabi/include/stdint.h"
 278              		.file 4 "../../os/kernel/include/chmemcore.h"
 279              		.file 5 "../../os/kernel/include/chmempools.h"