ARM GAS  /var/folders/qh/xwg3v3kj02qbxczjpdb8lzfr0000gn/T//ccncEaM5.s 			page 1


   1              		.cpu cortex-m0
   2              		.fpu softvfp
   3              		.eabi_attribute 20, 1
   4              		.eabi_attribute 21, 1
   5              		.eabi_attribute 23, 3
   6              		.eabi_attribute 24, 1
   7              		.eabi_attribute 25, 1
   8              		.eabi_attribute 26, 1
   9              		.eabi_attribute 30, 2
  10              		.eabi_attribute 34, 0
  11              		.eabi_attribute 18, 4
  12              		.code	16
  13              		.file	"chmempools.c"
  14              		.text
  15              	.Ltext0:
  16              		.cfi_sections	.debug_frame
  17              		.section	.text.chPoolInit,"ax",%progbits
  18              		.align	2
  19              		.p2align 4,,15
  20              		.global	chPoolInit
  21              		.code	16
  22              		.thumb_func
  23              		.type	chPoolInit, %function
  24              	chPoolInit:
  25              	.LFB7:
  26              		.file 1 "../../os/kernel/src/chmempools.c"
  27              		.loc 1 55 0
  28              		.cfi_startproc
  29              	.LVL0:
  30              		.loc 1 59 0
  31 0000 0023     		mov	r3, #0
  32 0002 0360     		str	r3, [r0]
  33              		.loc 1 60 0
  34 0004 4160     		str	r1, [r0, #4]
  35              		.loc 1 61 0
  36 0006 8260     		str	r2, [r0, #8]
  37              		.loc 1 62 0
  38              		@ sp needed
  39 0008 7047     		bx	lr
  40              		.cfi_endproc
  41              	.LFE7:
  42              		.size	chPoolInit, .-chPoolInit
  43 000a C046C046 		.section	.text.chPoolAllocI,"ax",%progbits
  43      C046
  44              		.align	2
  45              		.p2align 4,,15
  46              		.global	chPoolAllocI
  47              		.code	16
  48              		.thumb_func
  49              		.type	chPoolAllocI, %function
  50              	chPoolAllocI:
  51              	.LFB9:
  52              		.loc 1 98 0
  53              		.cfi_startproc
  54              	.LVL1:
  55 0000 10B5     		push	{r4, lr}
  56              		.cfi_def_cfa_offset 8
ARM GAS  /var/folders/qh/xwg3v3kj02qbxczjpdb8lzfr0000gn/T//ccncEaM5.s 			page 2


  57              		.cfi_offset 4, -8
  58              		.cfi_offset 14, -4
  59              		.loc 1 98 0
  60 0002 041C     		mov	r4, r0
  61              		.loc 1 101 0
  62 0004 FFF7FEFF 		bl	chDbgCheckClassI
  63              	.LVL2:
  64              		.loc 1 104 0
  65 0008 2068     		ldr	r0, [r4]
  66              	.LVL3:
  67 000a 0028     		cmp	r0, #0
  68 000c 02D0     		beq	.L3
  69              		.loc 1 105 0
  70 000e 0368     		ldr	r3, [r0]
  71 0010 2360     		str	r3, [r4]
  72              	.L4:
  73              		.loc 1 109 0
  74              		@ sp needed
  75              	.LVL4:
  76 0012 10BD     		pop	{r4, pc}
  77              	.LVL5:
  78              	.L3:
  79              		.loc 1 106 0
  80 0014 A368     		ldr	r3, [r4, #8]
  81 0016 002B     		cmp	r3, #0
  82 0018 FBD0     		beq	.L4
  83              		.loc 1 107 0
  84 001a 6068     		ldr	r0, [r4, #4]
  85              	.LVL6:
  86 001c 9847     		blx	r3
  87              	.LVL7:
  88 001e F8E7     		b	.L4
  89              		.cfi_endproc
  90              	.LFE9:
  91              		.size	chPoolAllocI, .-chPoolAllocI
  92              		.section	.text.chPoolAlloc,"ax",%progbits
  93              		.align	2
  94              		.p2align 4,,15
  95              		.global	chPoolAlloc
  96              		.code	16
  97              		.thumb_func
  98              		.type	chPoolAlloc, %function
  99              	chPoolAlloc:
 100              	.LFB10:
 101              		.loc 1 121 0
 102              		.cfi_startproc
 103              	.LVL8:
 104 0000 10B5     		push	{r4, lr}
 105              		.cfi_def_cfa_offset 8
 106              		.cfi_offset 4, -8
 107              		.cfi_offset 14, -4
 108              		.loc 1 121 0
 109 0002 041C     		mov	r4, r0
 110              		.loc 1 124 0
 111              	@ 124 "../../os/kernel/src/chmempools.c" 1
 112 0004 72B6     		cpsid   i
 113              	@ 0 "" 2
ARM GAS  /var/folders/qh/xwg3v3kj02qbxczjpdb8lzfr0000gn/T//ccncEaM5.s 			page 3


 114              		.code	16
 115 0006 FFF7FEFF 		bl	dbg_check_lock
 116              	.LVL9:
 117              		.loc 1 125 0
 118 000a 201C     		mov	r0, r4
 119 000c FFF7FEFF 		bl	chPoolAllocI
 120              	.LVL10:
 121 0010 041C     		mov	r4, r0
 122              	.LVL11:
 123              		.loc 1 126 0
 124 0012 FFF7FEFF 		bl	dbg_check_unlock
 125              	.LVL12:
 126              	@ 126 "../../os/kernel/src/chmempools.c" 1
 127 0016 62B6     		cpsie   i
 128              	@ 0 "" 2
 129              		.loc 1 128 0
 130              		.code	16
 131 0018 201C     		mov	r0, r4
 132              		@ sp needed
 133              	.LVL13:
 134 001a 10BD     		pop	{r4, pc}
 135              		.cfi_endproc
 136              	.LFE10:
 137              		.size	chPoolAlloc, .-chPoolAlloc
 138 001c C046C046 		.section	.text.chPoolFreeI,"ax",%progbits
 139              		.align	2
 140              		.p2align 4,,15
 141              		.global	chPoolFreeI
 142              		.code	16
 143              		.thumb_func
 144              		.type	chPoolFreeI, %function
 145              	chPoolFreeI:
 146              	.LFB11:
 147              		.loc 1 142 0
 148              		.cfi_startproc
 149              	.LVL14:
 150 0000 38B5     		push	{r3, r4, r5, lr}
 151              		.cfi_def_cfa_offset 16
 152              		.cfi_offset 3, -16
 153              		.cfi_offset 4, -12
 154              		.cfi_offset 5, -8
 155              		.cfi_offset 14, -4
 156              		.loc 1 142 0
 157 0002 041C     		mov	r4, r0
 158 0004 0D1C     		mov	r5, r1
 159              	.LVL15:
 160              		.loc 1 145 0
 161 0006 FFF7FEFF 		bl	chDbgCheckClassI
 162              	.LVL16:
 163              		.loc 1 148 0
 164 000a 2368     		ldr	r3, [r4]
 165              		.loc 1 150 0
 166              		@ sp needed
 167              		.loc 1 148 0
 168 000c 2B60     		str	r3, [r5]
 169              		.loc 1 149 0
 170 000e 2560     		str	r5, [r4]
ARM GAS  /var/folders/qh/xwg3v3kj02qbxczjpdb8lzfr0000gn/T//ccncEaM5.s 			page 4


 171              	.LVL17:
 172              	.LVL18:
 173              		.loc 1 150 0
 174 0010 38BD     		pop	{r3, r4, r5, pc}
 175              		.cfi_endproc
 176              	.LFE11:
 177              		.size	chPoolFreeI, .-chPoolFreeI
 178 0012 C046C046 		.section	.text.chPoolFree,"ax",%progbits
 178      C046C046 
 178      C046C046 
 178      C046
 179              		.align	2
 180              		.p2align 4,,15
 181              		.global	chPoolFree
 182              		.code	16
 183              		.thumb_func
 184              		.type	chPoolFree, %function
 185              	chPoolFree:
 186              	.LFB12:
 187              		.loc 1 164 0
 188              		.cfi_startproc
 189              	.LVL19:
 190 0000 38B5     		push	{r3, r4, r5, lr}
 191              		.cfi_def_cfa_offset 16
 192              		.cfi_offset 3, -16
 193              		.cfi_offset 4, -12
 194              		.cfi_offset 5, -8
 195              		.cfi_offset 14, -4
 196              		.loc 1 164 0
 197 0002 041C     		mov	r4, r0
 198 0004 0D1C     		mov	r5, r1
 199              		.loc 1 166 0
 200              	@ 166 "../../os/kernel/src/chmempools.c" 1
 201 0006 72B6     		cpsid   i
 202              	@ 0 "" 2
 203              		.code	16
 204 0008 FFF7FEFF 		bl	dbg_check_lock
 205              	.LVL20:
 206              	.LBB4:
 207              	.LBB5:
 208              		.loc 1 145 0
 209 000c FFF7FEFF 		bl	chDbgCheckClassI
 210              	.LVL21:
 211              		.loc 1 148 0
 212 0010 2368     		ldr	r3, [r4]
 213 0012 2B60     		str	r3, [r5]
 214              		.loc 1 149 0
 215 0014 2560     		str	r5, [r4]
 216              	.LBE5:
 217              	.LBE4:
 218              		.loc 1 168 0
 219 0016 FFF7FEFF 		bl	dbg_check_unlock
 220              	.LVL22:
 221              	@ 168 "../../os/kernel/src/chmempools.c" 1
 222 001a 62B6     		cpsie   i
 223              	@ 0 "" 2
 224              		.loc 1 169 0
ARM GAS  /var/folders/qh/xwg3v3kj02qbxczjpdb8lzfr0000gn/T//ccncEaM5.s 			page 5


 225              		.code	16
 226              		@ sp needed
 227              	.LVL23:
 228              	.LVL24:
 229 001c 38BD     		pop	{r3, r4, r5, pc}
 230              		.cfi_endproc
 231              	.LFE12:
 232              		.size	chPoolFree, .-chPoolFree
 233 001e C046     		.section	.text.chPoolLoadArray,"ax",%progbits
 234              		.align	2
 235              		.p2align 4,,15
 236              		.global	chPoolLoadArray
 237              		.code	16
 238              		.thumb_func
 239              		.type	chPoolLoadArray, %function
 240              	chPoolLoadArray:
 241              	.LFB8:
 242              		.loc 1 77 0
 243              		.cfi_startproc
 244              	.LVL25:
 245 0000 70B5     		push	{r4, r5, r6, lr}
 246              		.cfi_def_cfa_offset 16
 247              		.cfi_offset 4, -16
 248              		.cfi_offset 5, -12
 249              		.cfi_offset 6, -8
 250              		.cfi_offset 14, -4
 251              		.loc 1 77 0
 252 0002 061C     		mov	r6, r0
 253 0004 0D1C     		mov	r5, r1
 254 0006 141E     		sub	r4, r2, #0
 255              		.loc 1 81 0
 256 0008 08D0     		beq	.L12
 257              	.LVL26:
 258              	.L18:
 259              		.loc 1 82 0
 260 000a 291C     		mov	r1, r5
 261 000c 301C     		mov	r0, r6
 262 000e FFF7FEFF 		bl	chPoolFree
 263              	.LVL27:
 264              		.loc 1 83 0
 265 0012 7368     		ldr	r3, [r6, #4]
 266              		.loc 1 84 0
 267 0014 013C     		sub	r4, r4, #1
 268              	.LVL28:
 269              		.loc 1 83 0
 270 0016 ED18     		add	r5, r5, r3
 271              	.LVL29:
 272              		.loc 1 81 0
 273 0018 002C     		cmp	r4, #0
 274 001a F6D1     		bne	.L18
 275              	.L12:
 276              		.loc 1 86 0
 277              		@ sp needed
 278              	.LVL30:
 279              	.LVL31:
 280              	.LVL32:
 281 001c 70BD     		pop	{r4, r5, r6, pc}
ARM GAS  /var/folders/qh/xwg3v3kj02qbxczjpdb8lzfr0000gn/T//ccncEaM5.s 			page 6


 282              		.cfi_endproc
 283              	.LFE8:
 284              		.size	chPoolLoadArray, .-chPoolLoadArray
 285 001e C046     		.text
 286              	.Letext0:
 287              		.file 2 "/usr/local/Cellar/gcc-arm-none-eabi-48/20131218/lib/gcc/arm-none-eabi/4.8.3/include/stdde
 288              		.file 3 "/usr/local/Cellar/gcc-arm-none-eabi-48/20131218/arm-none-eabi/include/stdint.h"
 289              		.file 4 "../../os/kernel/include/chmemcore.h"
 290              		.file 5 "../../os/kernel/include/chmempools.h"
 291              		.file 6 "../../os/kernel/include/chdebug.h"
 292              		.section	.debug_info,"",%progbits
 293              	.Ldebug_info0:
 294 0000 40030000 		.4byte	0x340
 295 0004 0400     		.2byte	0x4
 296 0006 00000000 		.4byte	.Ldebug_abbrev0
 297 000a 04       		.byte	0x4
 298 000b 01       		.uleb128 0x1
 299 000c 07000000 		.4byte	.LASF31
 300 0010 01       		.byte	0x1
 301 0011 6C020000 		.4byte	.LASF32
 302 0015 DE010000 		.4byte	.LASF33
 303 0019 00000000 		.4byte	.Ldebug_ranges0+0
 304 001d 00000000 		.4byte	0
 305 0021 00000000 		.4byte	.Ldebug_line0
 306 0025 02       		.uleb128 0x2
 307 0026 04       		.byte	0x4
 308 0027 05       		.byte	0x5
 309 0028 696E7400 		.ascii	"int\000"
 310 002c 03       		.uleb128 0x3
 311 002d 00000000 		.4byte	.LASF2
 312 0031 02       		.byte	0x2
 313 0032 D4       		.byte	0xd4
 314 0033 37000000 		.4byte	0x37
 315 0037 04       		.uleb128 0x4
 316 0038 04       		.byte	0x4
 317 0039 07       		.byte	0x7
 318 003a B2010000 		.4byte	.LASF0
 319 003e 04       		.uleb128 0x4
 320 003f 01       		.byte	0x1
 321 0040 06       		.byte	0x6
 322 0041 96020000 		.4byte	.LASF1
 323 0045 03       		.uleb128 0x3
 324 0046 D6010000 		.4byte	.LASF3
 325 004a 03       		.byte	0x3
 326 004b 2A       		.byte	0x2a
 327 004c 50000000 		.4byte	0x50
 328 0050 04       		.uleb128 0x4
 329 0051 01       		.byte	0x1
 330 0052 08       		.byte	0x8
 331 0053 7C010000 		.4byte	.LASF4
 332 0057 04       		.uleb128 0x4
 333 0058 02       		.byte	0x2
 334 0059 05       		.byte	0x5
 335 005a 56020000 		.4byte	.LASF5
 336 005e 04       		.uleb128 0x4
 337 005f 02       		.byte	0x2
 338 0060 07       		.byte	0x7
ARM GAS  /var/folders/qh/xwg3v3kj02qbxczjpdb8lzfr0000gn/T//ccncEaM5.s 			page 7


 339 0061 54010000 		.4byte	.LASF6
 340 0065 04       		.uleb128 0x4
 341 0066 04       		.byte	0x4
 342 0067 05       		.byte	0x5
 343 0068 8D020000 		.4byte	.LASF7
 344 006c 04       		.uleb128 0x4
 345 006d 04       		.byte	0x4
 346 006e 07       		.byte	0x7
 347 006f 42010000 		.4byte	.LASF8
 348 0073 04       		.uleb128 0x4
 349 0074 08       		.byte	0x8
 350 0075 05       		.byte	0x5
 351 0076 2A020000 		.4byte	.LASF9
 352 007a 04       		.uleb128 0x4
 353 007b 08       		.byte	0x8
 354 007c 07       		.byte	0x7
 355 007d BF010000 		.4byte	.LASF10
 356 0081 04       		.uleb128 0x4
 357 0082 01       		.byte	0x1
 358 0083 02       		.byte	0x2
 359 0084 AA020000 		.4byte	.LASF11
 360 0088 05       		.uleb128 0x5
 361 0089 04       		.byte	0x4
 362 008a 04       		.uleb128 0x4
 363 008b 04       		.byte	0x4
 364 008c 07       		.byte	0x7
 365 008d 21020000 		.4byte	.LASF12
 366 0091 03       		.uleb128 0x3
 367 0092 3D020000 		.4byte	.LASF13
 368 0096 04       		.byte	0x4
 369 0097 25       		.byte	0x25
 370 0098 9C000000 		.4byte	0x9c
 371 009c 06       		.uleb128 0x6
 372 009d 04       		.byte	0x4
 373 009e A2000000 		.4byte	0xa2
 374 00a2 07       		.uleb128 0x7
 375 00a3 88000000 		.4byte	0x88
 376 00a7 B1000000 		.4byte	0xb1
 377 00ab 08       		.uleb128 0x8
 378 00ac 2C000000 		.4byte	0x2c
 379 00b0 00       		.byte	0
 380 00b1 09       		.uleb128 0x9
 381 00b2 31010000 		.4byte	.LASF34
 382 00b6 04       		.byte	0x4
 383 00b7 05       		.byte	0x5
 384 00b8 25       		.byte	0x25
 385 00b9 CA000000 		.4byte	0xca
 386 00bd 0A       		.uleb128 0xa
 387 00be 19020000 		.4byte	.LASF14
 388 00c2 05       		.byte	0x5
 389 00c3 26       		.byte	0x26
 390 00c4 CA000000 		.4byte	0xca
 391 00c8 00       		.byte	0
 392 00c9 00       		.byte	0
 393 00ca 06       		.uleb128 0x6
 394 00cb 04       		.byte	0x4
 395 00cc B1000000 		.4byte	0xb1
ARM GAS  /var/folders/qh/xwg3v3kj02qbxczjpdb8lzfr0000gn/T//ccncEaM5.s 			page 8


 396 00d0 0B       		.uleb128 0xb
 397 00d1 0C       		.byte	0xc
 398 00d2 05       		.byte	0x5
 399 00d3 2D       		.byte	0x2d
 400 00d4 FD000000 		.4byte	0xfd
 401 00d8 0A       		.uleb128 0xa
 402 00d9 A2020000 		.4byte	.LASF15
 403 00dd 05       		.byte	0x5
 404 00de 2E       		.byte	0x2e
 405 00df CA000000 		.4byte	0xca
 406 00e3 00       		.byte	0
 407 00e4 0A       		.uleb128 0xa
 408 00e5 01010000 		.4byte	.LASF16
 409 00e9 05       		.byte	0x5
 410 00ea 2F       		.byte	0x2f
 411 00eb 2C000000 		.4byte	0x2c
 412 00ef 04       		.byte	0x4
 413 00f0 0A       		.uleb128 0xa
 414 00f1 4A020000 		.4byte	.LASF17
 415 00f5 05       		.byte	0x5
 416 00f6 31       		.byte	0x31
 417 00f7 91000000 		.4byte	0x91
 418 00fb 08       		.byte	0x8
 419 00fc 00       		.byte	0
 420 00fd 03       		.uleb128 0x3
 421 00fe 95010000 		.4byte	.LASF18
 422 0102 05       		.byte	0x5
 423 0103 33       		.byte	0x33
 424 0104 D0000000 		.4byte	0xd0
 425 0108 04       		.uleb128 0x4
 426 0109 01       		.byte	0x1
 427 010a 08       		.byte	0x8
 428 010b 38020000 		.4byte	.LASF19
 429 010f 0C       		.uleb128 0xc
 430 0110 70010000 		.4byte	.LASF35
 431 0114 01       		.byte	0x1
 432 0115 8E       		.byte	0x8e
 433 0116 01       		.byte	0x1
 434 0117 3C010000 		.4byte	0x13c
 435 011b 0D       		.uleb128 0xd
 436 011c 6D7000   		.ascii	"mp\000"
 437 011f 01       		.byte	0x1
 438 0120 8E       		.byte	0x8e
 439 0121 3C010000 		.4byte	0x13c
 440 0125 0E       		.uleb128 0xe
 441 0126 A0010000 		.4byte	.LASF20
 442 012a 01       		.byte	0x1
 443 012b 8E       		.byte	0x8e
 444 012c 88000000 		.4byte	0x88
 445 0130 0F       		.uleb128 0xf
 446 0131 70687000 		.ascii	"php\000"
 447 0135 01       		.byte	0x1
 448 0136 8F       		.byte	0x8f
 449 0137 CA000000 		.4byte	0xca
 450 013b 00       		.byte	0
 451 013c 06       		.uleb128 0x6
 452 013d 04       		.byte	0x4
ARM GAS  /var/folders/qh/xwg3v3kj02qbxczjpdb8lzfr0000gn/T//ccncEaM5.s 			page 9


 453 013e FD000000 		.4byte	0xfd
 454 0142 10       		.uleb128 0x10
 455 0143 B0020000 		.4byte	.LASF25
 456 0147 01       		.byte	0x1
 457 0148 37       		.byte	0x37
 458 0149 00000000 		.4byte	.LFB7
 459 014d 0A000000 		.4byte	.LFE7-.LFB7
 460 0151 01       		.uleb128 0x1
 461 0152 9C       		.byte	0x9c
 462 0153 7E010000 		.4byte	0x17e
 463 0157 11       		.uleb128 0x11
 464 0158 6D7000   		.ascii	"mp\000"
 465 015b 01       		.byte	0x1
 466 015c 37       		.byte	0x37
 467 015d 3C010000 		.4byte	0x13c
 468 0161 01       		.uleb128 0x1
 469 0162 50       		.byte	0x50
 470 0163 12       		.uleb128 0x12
 471 0164 3D010000 		.4byte	.LASF21
 472 0168 01       		.byte	0x1
 473 0169 37       		.byte	0x37
 474 016a 2C000000 		.4byte	0x2c
 475 016e 01       		.uleb128 0x1
 476 016f 51       		.byte	0x51
 477 0170 12       		.uleb128 0x12
 478 0171 67010000 		.4byte	.LASF22
 479 0175 01       		.byte	0x1
 480 0176 37       		.byte	0x37
 481 0177 91000000 		.4byte	0x91
 482 017b 01       		.uleb128 0x1
 483 017c 52       		.byte	0x52
 484 017d 00       		.byte	0
 485 017e 13       		.uleb128 0x13
 486 017f A5010000 		.4byte	.LASF23
 487 0183 01       		.byte	0x1
 488 0184 62       		.byte	0x62
 489 0185 88000000 		.4byte	0x88
 490 0189 00000000 		.4byte	.LFB9
 491 018d 20000000 		.4byte	.LFE9-.LFB9
 492 0191 01       		.uleb128 0x1
 493 0192 9C       		.byte	0x9c
 494 0193 BE010000 		.4byte	0x1be
 495 0197 14       		.uleb128 0x14
 496 0198 6D7000   		.ascii	"mp\000"
 497 019b 01       		.byte	0x1
 498 019c 62       		.byte	0x62
 499 019d 3C010000 		.4byte	0x13c
 500 01a1 00000000 		.4byte	.LLST0
 501 01a5 15       		.uleb128 0x15
 502 01a6 A0010000 		.4byte	.LASF20
 503 01aa 01       		.byte	0x1
 504 01ab 63       		.byte	0x63
 505 01ac 88000000 		.4byte	0x88
 506 01b0 37000000 		.4byte	.LLST1
 507 01b4 16       		.uleb128 0x16
 508 01b5 08000000 		.4byte	.LVL2
 509 01b9 2E030000 		.4byte	0x32e
ARM GAS  /var/folders/qh/xwg3v3kj02qbxczjpdb8lzfr0000gn/T//ccncEaM5.s 			page 10


 510 01bd 00       		.byte	0
 511 01be 17       		.uleb128 0x17
 512 01bf 60020000 		.4byte	.LASF24
 513 01c3 01       		.byte	0x1
 514 01c4 79       		.byte	0x79
 515 01c5 88000000 		.4byte	0x88
 516 01c9 00000000 		.4byte	.LFB10
 517 01cd 1C000000 		.4byte	.LFE10-.LFB10
 518 01d1 01       		.uleb128 0x1
 519 01d2 9C       		.byte	0x9c
 520 01d3 1B020000 		.4byte	0x21b
 521 01d7 14       		.uleb128 0x14
 522 01d8 6D7000   		.ascii	"mp\000"
 523 01db 01       		.byte	0x1
 524 01dc 79       		.byte	0x79
 525 01dd 3C010000 		.4byte	0x13c
 526 01e1 61000000 		.4byte	.LLST2
 527 01e5 15       		.uleb128 0x15
 528 01e6 A0010000 		.4byte	.LASF20
 529 01ea 01       		.byte	0x1
 530 01eb 7A       		.byte	0x7a
 531 01ec 88000000 		.4byte	0x88
 532 01f0 8D000000 		.4byte	.LLST3
 533 01f4 16       		.uleb128 0x16
 534 01f5 0A000000 		.4byte	.LVL9
 535 01f9 35030000 		.4byte	0x335
 536 01fd 18       		.uleb128 0x18
 537 01fe 10000000 		.4byte	.LVL10
 538 0202 7E010000 		.4byte	0x17e
 539 0206 11020000 		.4byte	0x211
 540 020a 19       		.uleb128 0x19
 541 020b 01       		.uleb128 0x1
 542 020c 50       		.byte	0x50
 543 020d 02       		.uleb128 0x2
 544 020e 74       		.byte	0x74
 545 020f 00       		.sleb128 0
 546 0210 00       		.byte	0
 547 0211 16       		.uleb128 0x16
 548 0212 16000000 		.4byte	.LVL12
 549 0216 3C030000 		.4byte	0x33c
 550 021a 00       		.byte	0
 551 021b 1A       		.uleb128 0x1a
 552 021c 0F010000 		.4byte	0x10f
 553 0220 00000000 		.4byte	.LFB11
 554 0224 12000000 		.4byte	.LFE11-.LFB11
 555 0228 01       		.uleb128 0x1
 556 0229 9C       		.byte	0x9c
 557 022a 53020000 		.4byte	0x253
 558 022e 1B       		.uleb128 0x1b
 559 022f 1B010000 		.4byte	0x11b
 560 0233 B6000000 		.4byte	.LLST4
 561 0237 1B       		.uleb128 0x1b
 562 0238 25010000 		.4byte	0x125
 563 023c E2000000 		.4byte	.LLST5
 564 0240 1C       		.uleb128 0x1c
 565 0241 30010000 		.4byte	0x130
 566 0245 0D010000 		.4byte	.LLST6
ARM GAS  /var/folders/qh/xwg3v3kj02qbxczjpdb8lzfr0000gn/T//ccncEaM5.s 			page 11


 567 0249 16       		.uleb128 0x16
 568 024a 0A000000 		.4byte	.LVL16
 569 024e 2E030000 		.4byte	0x32e
 570 0252 00       		.byte	0
 571 0253 10       		.uleb128 0x10
 572 0254 8A010000 		.4byte	.LASF26
 573 0258 01       		.byte	0x1
 574 0259 A4       		.byte	0xa4
 575 025a 00000000 		.4byte	.LFB12
 576 025e 1E000000 		.4byte	.LFE12-.LFB12
 577 0262 01       		.uleb128 0x1
 578 0263 9C       		.byte	0x9c
 579 0264 DA020000 		.4byte	0x2da
 580 0268 14       		.uleb128 0x14
 581 0269 6D7000   		.ascii	"mp\000"
 582 026c 01       		.byte	0x1
 583 026d A4       		.byte	0xa4
 584 026e 3C010000 		.4byte	0x13c
 585 0272 38010000 		.4byte	.LLST7
 586 0276 1D       		.uleb128 0x1d
 587 0277 A0010000 		.4byte	.LASF20
 588 027b 01       		.byte	0x1
 589 027c A4       		.byte	0xa4
 590 027d 88000000 		.4byte	0x88
 591 0281 64010000 		.4byte	.LLST8
 592 0285 1E       		.uleb128 0x1e
 593 0286 0F010000 		.4byte	0x10f
 594 028a 0C000000 		.4byte	.LBB4
 595 028e 0A000000 		.4byte	.LBE4-.LBB4
 596 0292 01       		.byte	0x1
 597 0293 A7       		.byte	0xa7
 598 0294 C7020000 		.4byte	0x2c7
 599 0298 1B       		.uleb128 0x1b
 600 0299 25010000 		.4byte	0x125
 601 029d 90010000 		.4byte	.LLST9
 602 02a1 1B       		.uleb128 0x1b
 603 02a2 1B010000 		.4byte	0x11b
 604 02a6 B1010000 		.4byte	.LLST10
 605 02aa 1F       		.uleb128 0x1f
 606 02ab 0C000000 		.4byte	.LBB5
 607 02af 0A000000 		.4byte	.LBE5-.LBB5
 608 02b3 1C       		.uleb128 0x1c
 609 02b4 30010000 		.4byte	0x130
 610 02b8 90010000 		.4byte	.LLST9
 611 02bc 16       		.uleb128 0x16
 612 02bd 10000000 		.4byte	.LVL21
 613 02c1 2E030000 		.4byte	0x32e
 614 02c5 00       		.byte	0
 615 02c6 00       		.byte	0
 616 02c7 16       		.uleb128 0x16
 617 02c8 0C000000 		.4byte	.LVL20
 618 02cc 35030000 		.4byte	0x335
 619 02d0 16       		.uleb128 0x16
 620 02d1 1A000000 		.4byte	.LVL22
 621 02d5 3C030000 		.4byte	0x33c
 622 02d9 00       		.byte	0
 623 02da 10       		.uleb128 0x10
ARM GAS  /var/folders/qh/xwg3v3kj02qbxczjpdb8lzfr0000gn/T//ccncEaM5.s 			page 12


 624 02db 21010000 		.4byte	.LASF27
 625 02df 01       		.byte	0x1
 626 02e0 4D       		.byte	0x4d
 627 02e1 00000000 		.4byte	.LFB8
 628 02e5 1E000000 		.4byte	.LFE8-.LFB8
 629 02e9 01       		.uleb128 0x1
 630 02ea 9C       		.byte	0x9c
 631 02eb 2E030000 		.4byte	0x32e
 632 02ef 14       		.uleb128 0x14
 633 02f0 6D7000   		.ascii	"mp\000"
 634 02f3 01       		.byte	0x1
 635 02f4 4D       		.byte	0x4d
 636 02f5 3C010000 		.4byte	0x13c
 637 02f9 D2010000 		.4byte	.LLST12
 638 02fd 14       		.uleb128 0x14
 639 02fe 7000     		.ascii	"p\000"
 640 0300 01       		.byte	0x1
 641 0301 4D       		.byte	0x4d
 642 0302 88000000 		.4byte	0x88
 643 0306 FE010000 		.4byte	.LLST13
 644 030a 14       		.uleb128 0x14
 645 030b 6E00     		.ascii	"n\000"
 646 030d 01       		.byte	0x1
 647 030e 4D       		.byte	0x4d
 648 030f 2C000000 		.4byte	0x2c
 649 0313 1C020000 		.4byte	.LLST14
 650 0317 20       		.uleb128 0x20
 651 0318 12000000 		.4byte	.LVL27
 652 031c 53020000 		.4byte	0x253
 653 0320 19       		.uleb128 0x19
 654 0321 01       		.uleb128 0x1
 655 0322 51       		.byte	0x51
 656 0323 02       		.uleb128 0x2
 657 0324 75       		.byte	0x75
 658 0325 00       		.sleb128 0
 659 0326 19       		.uleb128 0x19
 660 0327 01       		.uleb128 0x1
 661 0328 50       		.byte	0x50
 662 0329 02       		.uleb128 0x2
 663 032a 76       		.byte	0x76
 664 032b 00       		.sleb128 0
 665 032c 00       		.byte	0
 666 032d 00       		.byte	0
 667 032e 21       		.uleb128 0x21
 668 032f 10010000 		.4byte	.LASF28
 669 0333 06       		.byte	0x6
 670 0334 E6       		.byte	0xe6
 671 0335 21       		.uleb128 0x21
 672 0336 E1000000 		.4byte	.LASF29
 673 033a 06       		.byte	0x6
 674 033b E0       		.byte	0xe0
 675 033c 21       		.uleb128 0x21
 676 033d F0000000 		.4byte	.LASF30
 677 0341 06       		.byte	0x6
 678 0342 E1       		.byte	0xe1
 679 0343 00       		.byte	0
 680              		.section	.debug_abbrev,"",%progbits
ARM GAS  /var/folders/qh/xwg3v3kj02qbxczjpdb8lzfr0000gn/T//ccncEaM5.s 			page 13


 681              	.Ldebug_abbrev0:
 682 0000 01       		.uleb128 0x1
 683 0001 11       		.uleb128 0x11
 684 0002 01       		.byte	0x1
 685 0003 25       		.uleb128 0x25
 686 0004 0E       		.uleb128 0xe
 687 0005 13       		.uleb128 0x13
 688 0006 0B       		.uleb128 0xb
 689 0007 03       		.uleb128 0x3
 690 0008 0E       		.uleb128 0xe
 691 0009 1B       		.uleb128 0x1b
 692 000a 0E       		.uleb128 0xe
 693 000b 55       		.uleb128 0x55
 694 000c 17       		.uleb128 0x17
 695 000d 11       		.uleb128 0x11
 696 000e 01       		.uleb128 0x1
 697 000f 10       		.uleb128 0x10
 698 0010 17       		.uleb128 0x17
 699 0011 00       		.byte	0
 700 0012 00       		.byte	0
 701 0013 02       		.uleb128 0x2
 702 0014 24       		.uleb128 0x24
 703 0015 00       		.byte	0
 704 0016 0B       		.uleb128 0xb
 705 0017 0B       		.uleb128 0xb
 706 0018 3E       		.uleb128 0x3e
 707 0019 0B       		.uleb128 0xb
 708 001a 03       		.uleb128 0x3
 709 001b 08       		.uleb128 0x8
 710 001c 00       		.byte	0
 711 001d 00       		.byte	0
 712 001e 03       		.uleb128 0x3
 713 001f 16       		.uleb128 0x16
 714 0020 00       		.byte	0
 715 0021 03       		.uleb128 0x3
 716 0022 0E       		.uleb128 0xe
 717 0023 3A       		.uleb128 0x3a
 718 0024 0B       		.uleb128 0xb
 719 0025 3B       		.uleb128 0x3b
 720 0026 0B       		.uleb128 0xb
 721 0027 49       		.uleb128 0x49
 722 0028 13       		.uleb128 0x13
 723 0029 00       		.byte	0
 724 002a 00       		.byte	0
 725 002b 04       		.uleb128 0x4
 726 002c 24       		.uleb128 0x24
 727 002d 00       		.byte	0
 728 002e 0B       		.uleb128 0xb
 729 002f 0B       		.uleb128 0xb
 730 0030 3E       		.uleb128 0x3e
 731 0031 0B       		.uleb128 0xb
 732 0032 03       		.uleb128 0x3
 733 0033 0E       		.uleb128 0xe
 734 0034 00       		.byte	0
 735 0035 00       		.byte	0
 736 0036 05       		.uleb128 0x5
 737 0037 0F       		.uleb128 0xf
ARM GAS  /var/folders/qh/xwg3v3kj02qbxczjpdb8lzfr0000gn/T//ccncEaM5.s 			page 14


 738 0038 00       		.byte	0
 739 0039 0B       		.uleb128 0xb
 740 003a 0B       		.uleb128 0xb
 741 003b 00       		.byte	0
 742 003c 00       		.byte	0
 743 003d 06       		.uleb128 0x6
 744 003e 0F       		.uleb128 0xf
 745 003f 00       		.byte	0
 746 0040 0B       		.uleb128 0xb
 747 0041 0B       		.uleb128 0xb
 748 0042 49       		.uleb128 0x49
 749 0043 13       		.uleb128 0x13
 750 0044 00       		.byte	0
 751 0045 00       		.byte	0
 752 0046 07       		.uleb128 0x7
 753 0047 15       		.uleb128 0x15
 754 0048 01       		.byte	0x1
 755 0049 27       		.uleb128 0x27
 756 004a 19       		.uleb128 0x19
 757 004b 49       		.uleb128 0x49
 758 004c 13       		.uleb128 0x13
 759 004d 01       		.uleb128 0x1
 760 004e 13       		.uleb128 0x13
 761 004f 00       		.byte	0
 762 0050 00       		.byte	0
 763 0051 08       		.uleb128 0x8
 764 0052 05       		.uleb128 0x5
 765 0053 00       		.byte	0
 766 0054 49       		.uleb128 0x49
 767 0055 13       		.uleb128 0x13
 768 0056 00       		.byte	0
 769 0057 00       		.byte	0
 770 0058 09       		.uleb128 0x9
 771 0059 13       		.uleb128 0x13
 772 005a 01       		.byte	0x1
 773 005b 03       		.uleb128 0x3
 774 005c 0E       		.uleb128 0xe
 775 005d 0B       		.uleb128 0xb
 776 005e 0B       		.uleb128 0xb
 777 005f 3A       		.uleb128 0x3a
 778 0060 0B       		.uleb128 0xb
 779 0061 3B       		.uleb128 0x3b
 780 0062 0B       		.uleb128 0xb
 781 0063 01       		.uleb128 0x1
 782 0064 13       		.uleb128 0x13
 783 0065 00       		.byte	0
 784 0066 00       		.byte	0
 785 0067 0A       		.uleb128 0xa
 786 0068 0D       		.uleb128 0xd
 787 0069 00       		.byte	0
 788 006a 03       		.uleb128 0x3
 789 006b 0E       		.uleb128 0xe
 790 006c 3A       		.uleb128 0x3a
 791 006d 0B       		.uleb128 0xb
 792 006e 3B       		.uleb128 0x3b
 793 006f 0B       		.uleb128 0xb
 794 0070 49       		.uleb128 0x49
ARM GAS  /var/folders/qh/xwg3v3kj02qbxczjpdb8lzfr0000gn/T//ccncEaM5.s 			page 15


 795 0071 13       		.uleb128 0x13
 796 0072 38       		.uleb128 0x38
 797 0073 0B       		.uleb128 0xb
 798 0074 00       		.byte	0
 799 0075 00       		.byte	0
 800 0076 0B       		.uleb128 0xb
 801 0077 13       		.uleb128 0x13
 802 0078 01       		.byte	0x1
 803 0079 0B       		.uleb128 0xb
 804 007a 0B       		.uleb128 0xb
 805 007b 3A       		.uleb128 0x3a
 806 007c 0B       		.uleb128 0xb
 807 007d 3B       		.uleb128 0x3b
 808 007e 0B       		.uleb128 0xb
 809 007f 01       		.uleb128 0x1
 810 0080 13       		.uleb128 0x13
 811 0081 00       		.byte	0
 812 0082 00       		.byte	0
 813 0083 0C       		.uleb128 0xc
 814 0084 2E       		.uleb128 0x2e
 815 0085 01       		.byte	0x1
 816 0086 3F       		.uleb128 0x3f
 817 0087 19       		.uleb128 0x19
 818 0088 03       		.uleb128 0x3
 819 0089 0E       		.uleb128 0xe
 820 008a 3A       		.uleb128 0x3a
 821 008b 0B       		.uleb128 0xb
 822 008c 3B       		.uleb128 0x3b
 823 008d 0B       		.uleb128 0xb
 824 008e 27       		.uleb128 0x27
 825 008f 19       		.uleb128 0x19
 826 0090 20       		.uleb128 0x20
 827 0091 0B       		.uleb128 0xb
 828 0092 01       		.uleb128 0x1
 829 0093 13       		.uleb128 0x13
 830 0094 00       		.byte	0
 831 0095 00       		.byte	0
 832 0096 0D       		.uleb128 0xd
 833 0097 05       		.uleb128 0x5
 834 0098 00       		.byte	0
 835 0099 03       		.uleb128 0x3
 836 009a 08       		.uleb128 0x8
 837 009b 3A       		.uleb128 0x3a
 838 009c 0B       		.uleb128 0xb
 839 009d 3B       		.uleb128 0x3b
 840 009e 0B       		.uleb128 0xb
 841 009f 49       		.uleb128 0x49
 842 00a0 13       		.uleb128 0x13
 843 00a1 00       		.byte	0
 844 00a2 00       		.byte	0
 845 00a3 0E       		.uleb128 0xe
 846 00a4 05       		.uleb128 0x5
 847 00a5 00       		.byte	0
 848 00a6 03       		.uleb128 0x3
 849 00a7 0E       		.uleb128 0xe
 850 00a8 3A       		.uleb128 0x3a
 851 00a9 0B       		.uleb128 0xb
ARM GAS  /var/folders/qh/xwg3v3kj02qbxczjpdb8lzfr0000gn/T//ccncEaM5.s 			page 16


 852 00aa 3B       		.uleb128 0x3b
 853 00ab 0B       		.uleb128 0xb
 854 00ac 49       		.uleb128 0x49
 855 00ad 13       		.uleb128 0x13
 856 00ae 00       		.byte	0
 857 00af 00       		.byte	0
 858 00b0 0F       		.uleb128 0xf
 859 00b1 34       		.uleb128 0x34
 860 00b2 00       		.byte	0
 861 00b3 03       		.uleb128 0x3
 862 00b4 08       		.uleb128 0x8
 863 00b5 3A       		.uleb128 0x3a
 864 00b6 0B       		.uleb128 0xb
 865 00b7 3B       		.uleb128 0x3b
 866 00b8 0B       		.uleb128 0xb
 867 00b9 49       		.uleb128 0x49
 868 00ba 13       		.uleb128 0x13
 869 00bb 00       		.byte	0
 870 00bc 00       		.byte	0
 871 00bd 10       		.uleb128 0x10
 872 00be 2E       		.uleb128 0x2e
 873 00bf 01       		.byte	0x1
 874 00c0 3F       		.uleb128 0x3f
 875 00c1 19       		.uleb128 0x19
 876 00c2 03       		.uleb128 0x3
 877 00c3 0E       		.uleb128 0xe
 878 00c4 3A       		.uleb128 0x3a
 879 00c5 0B       		.uleb128 0xb
 880 00c6 3B       		.uleb128 0x3b
 881 00c7 0B       		.uleb128 0xb
 882 00c8 27       		.uleb128 0x27
 883 00c9 19       		.uleb128 0x19
 884 00ca 11       		.uleb128 0x11
 885 00cb 01       		.uleb128 0x1
 886 00cc 12       		.uleb128 0x12
 887 00cd 06       		.uleb128 0x6
 888 00ce 40       		.uleb128 0x40
 889 00cf 18       		.uleb128 0x18
 890 00d0 9742     		.uleb128 0x2117
 891 00d2 19       		.uleb128 0x19
 892 00d3 01       		.uleb128 0x1
 893 00d4 13       		.uleb128 0x13
 894 00d5 00       		.byte	0
 895 00d6 00       		.byte	0
 896 00d7 11       		.uleb128 0x11
 897 00d8 05       		.uleb128 0x5
 898 00d9 00       		.byte	0
 899 00da 03       		.uleb128 0x3
 900 00db 08       		.uleb128 0x8
 901 00dc 3A       		.uleb128 0x3a
 902 00dd 0B       		.uleb128 0xb
 903 00de 3B       		.uleb128 0x3b
 904 00df 0B       		.uleb128 0xb
 905 00e0 49       		.uleb128 0x49
 906 00e1 13       		.uleb128 0x13
 907 00e2 02       		.uleb128 0x2
 908 00e3 18       		.uleb128 0x18
ARM GAS  /var/folders/qh/xwg3v3kj02qbxczjpdb8lzfr0000gn/T//ccncEaM5.s 			page 17


 909 00e4 00       		.byte	0
 910 00e5 00       		.byte	0
 911 00e6 12       		.uleb128 0x12
 912 00e7 05       		.uleb128 0x5
 913 00e8 00       		.byte	0
 914 00e9 03       		.uleb128 0x3
 915 00ea 0E       		.uleb128 0xe
 916 00eb 3A       		.uleb128 0x3a
 917 00ec 0B       		.uleb128 0xb
 918 00ed 3B       		.uleb128 0x3b
 919 00ee 0B       		.uleb128 0xb
 920 00ef 49       		.uleb128 0x49
 921 00f0 13       		.uleb128 0x13
 922 00f1 02       		.uleb128 0x2
 923 00f2 18       		.uleb128 0x18
 924 00f3 00       		.byte	0
 925 00f4 00       		.byte	0
 926 00f5 13       		.uleb128 0x13
 927 00f6 2E       		.uleb128 0x2e
 928 00f7 01       		.byte	0x1
 929 00f8 3F       		.uleb128 0x3f
 930 00f9 19       		.uleb128 0x19
 931 00fa 03       		.uleb128 0x3
 932 00fb 0E       		.uleb128 0xe
 933 00fc 3A       		.uleb128 0x3a
 934 00fd 0B       		.uleb128 0xb
 935 00fe 3B       		.uleb128 0x3b
 936 00ff 0B       		.uleb128 0xb
 937 0100 27       		.uleb128 0x27
 938 0101 19       		.uleb128 0x19
 939 0102 49       		.uleb128 0x49
 940 0103 13       		.uleb128 0x13
 941 0104 11       		.uleb128 0x11
 942 0105 01       		.uleb128 0x1
 943 0106 12       		.uleb128 0x12
 944 0107 06       		.uleb128 0x6
 945 0108 40       		.uleb128 0x40
 946 0109 18       		.uleb128 0x18
 947 010a 9642     		.uleb128 0x2116
 948 010c 19       		.uleb128 0x19
 949 010d 01       		.uleb128 0x1
 950 010e 13       		.uleb128 0x13
 951 010f 00       		.byte	0
 952 0110 00       		.byte	0
 953 0111 14       		.uleb128 0x14
 954 0112 05       		.uleb128 0x5
 955 0113 00       		.byte	0
 956 0114 03       		.uleb128 0x3
 957 0115 08       		.uleb128 0x8
 958 0116 3A       		.uleb128 0x3a
 959 0117 0B       		.uleb128 0xb
 960 0118 3B       		.uleb128 0x3b
 961 0119 0B       		.uleb128 0xb
 962 011a 49       		.uleb128 0x49
 963 011b 13       		.uleb128 0x13
 964 011c 02       		.uleb128 0x2
 965 011d 17       		.uleb128 0x17
ARM GAS  /var/folders/qh/xwg3v3kj02qbxczjpdb8lzfr0000gn/T//ccncEaM5.s 			page 18


 966 011e 00       		.byte	0
 967 011f 00       		.byte	0
 968 0120 15       		.uleb128 0x15
 969 0121 34       		.uleb128 0x34
 970 0122 00       		.byte	0
 971 0123 03       		.uleb128 0x3
 972 0124 0E       		.uleb128 0xe
 973 0125 3A       		.uleb128 0x3a
 974 0126 0B       		.uleb128 0xb
 975 0127 3B       		.uleb128 0x3b
 976 0128 0B       		.uleb128 0xb
 977 0129 49       		.uleb128 0x49
 978 012a 13       		.uleb128 0x13
 979 012b 02       		.uleb128 0x2
 980 012c 17       		.uleb128 0x17
 981 012d 00       		.byte	0
 982 012e 00       		.byte	0
 983 012f 16       		.uleb128 0x16
 984 0130 898201   		.uleb128 0x4109
 985 0133 00       		.byte	0
 986 0134 11       		.uleb128 0x11
 987 0135 01       		.uleb128 0x1
 988 0136 31       		.uleb128 0x31
 989 0137 13       		.uleb128 0x13
 990 0138 00       		.byte	0
 991 0139 00       		.byte	0
 992 013a 17       		.uleb128 0x17
 993 013b 2E       		.uleb128 0x2e
 994 013c 01       		.byte	0x1
 995 013d 3F       		.uleb128 0x3f
 996 013e 19       		.uleb128 0x19
 997 013f 03       		.uleb128 0x3
 998 0140 0E       		.uleb128 0xe
 999 0141 3A       		.uleb128 0x3a
 1000 0142 0B       		.uleb128 0xb
 1001 0143 3B       		.uleb128 0x3b
 1002 0144 0B       		.uleb128 0xb
 1003 0145 27       		.uleb128 0x27
 1004 0146 19       		.uleb128 0x19
 1005 0147 49       		.uleb128 0x49
 1006 0148 13       		.uleb128 0x13
 1007 0149 11       		.uleb128 0x11
 1008 014a 01       		.uleb128 0x1
 1009 014b 12       		.uleb128 0x12
 1010 014c 06       		.uleb128 0x6
 1011 014d 40       		.uleb128 0x40
 1012 014e 18       		.uleb128 0x18
 1013 014f 9742     		.uleb128 0x2117
 1014 0151 19       		.uleb128 0x19
 1015 0152 01       		.uleb128 0x1
 1016 0153 13       		.uleb128 0x13
 1017 0154 00       		.byte	0
 1018 0155 00       		.byte	0
 1019 0156 18       		.uleb128 0x18
 1020 0157 898201   		.uleb128 0x4109
 1021 015a 01       		.byte	0x1
 1022 015b 11       		.uleb128 0x11
ARM GAS  /var/folders/qh/xwg3v3kj02qbxczjpdb8lzfr0000gn/T//ccncEaM5.s 			page 19


 1023 015c 01       		.uleb128 0x1
 1024 015d 31       		.uleb128 0x31
 1025 015e 13       		.uleb128 0x13
 1026 015f 01       		.uleb128 0x1
 1027 0160 13       		.uleb128 0x13
 1028 0161 00       		.byte	0
 1029 0162 00       		.byte	0
 1030 0163 19       		.uleb128 0x19
 1031 0164 8A8201   		.uleb128 0x410a
 1032 0167 00       		.byte	0
 1033 0168 02       		.uleb128 0x2
 1034 0169 18       		.uleb128 0x18
 1035 016a 9142     		.uleb128 0x2111
 1036 016c 18       		.uleb128 0x18
 1037 016d 00       		.byte	0
 1038 016e 00       		.byte	0
 1039 016f 1A       		.uleb128 0x1a
 1040 0170 2E       		.uleb128 0x2e
 1041 0171 01       		.byte	0x1
 1042 0172 31       		.uleb128 0x31
 1043 0173 13       		.uleb128 0x13
 1044 0174 11       		.uleb128 0x11
 1045 0175 01       		.uleb128 0x1
 1046 0176 12       		.uleb128 0x12
 1047 0177 06       		.uleb128 0x6
 1048 0178 40       		.uleb128 0x40
 1049 0179 18       		.uleb128 0x18
 1050 017a 9742     		.uleb128 0x2117
 1051 017c 19       		.uleb128 0x19
 1052 017d 01       		.uleb128 0x1
 1053 017e 13       		.uleb128 0x13
 1054 017f 00       		.byte	0
 1055 0180 00       		.byte	0
 1056 0181 1B       		.uleb128 0x1b
 1057 0182 05       		.uleb128 0x5
 1058 0183 00       		.byte	0
 1059 0184 31       		.uleb128 0x31
 1060 0185 13       		.uleb128 0x13
 1061 0186 02       		.uleb128 0x2
 1062 0187 17       		.uleb128 0x17
 1063 0188 00       		.byte	0
 1064 0189 00       		.byte	0
 1065 018a 1C       		.uleb128 0x1c
 1066 018b 34       		.uleb128 0x34
 1067 018c 00       		.byte	0
 1068 018d 31       		.uleb128 0x31
 1069 018e 13       		.uleb128 0x13
 1070 018f 02       		.uleb128 0x2
 1071 0190 17       		.uleb128 0x17
 1072 0191 00       		.byte	0
 1073 0192 00       		.byte	0
 1074 0193 1D       		.uleb128 0x1d
 1075 0194 05       		.uleb128 0x5
 1076 0195 00       		.byte	0
 1077 0196 03       		.uleb128 0x3
 1078 0197 0E       		.uleb128 0xe
 1079 0198 3A       		.uleb128 0x3a
ARM GAS  /var/folders/qh/xwg3v3kj02qbxczjpdb8lzfr0000gn/T//ccncEaM5.s 			page 20


 1080 0199 0B       		.uleb128 0xb
 1081 019a 3B       		.uleb128 0x3b
 1082 019b 0B       		.uleb128 0xb
 1083 019c 49       		.uleb128 0x49
 1084 019d 13       		.uleb128 0x13
 1085 019e 02       		.uleb128 0x2
 1086 019f 17       		.uleb128 0x17
 1087 01a0 00       		.byte	0
 1088 01a1 00       		.byte	0
 1089 01a2 1E       		.uleb128 0x1e
 1090 01a3 1D       		.uleb128 0x1d
 1091 01a4 01       		.byte	0x1
 1092 01a5 31       		.uleb128 0x31
 1093 01a6 13       		.uleb128 0x13
 1094 01a7 11       		.uleb128 0x11
 1095 01a8 01       		.uleb128 0x1
 1096 01a9 12       		.uleb128 0x12
 1097 01aa 06       		.uleb128 0x6
 1098 01ab 58       		.uleb128 0x58
 1099 01ac 0B       		.uleb128 0xb
 1100 01ad 59       		.uleb128 0x59
 1101 01ae 0B       		.uleb128 0xb
 1102 01af 01       		.uleb128 0x1
 1103 01b0 13       		.uleb128 0x13
 1104 01b1 00       		.byte	0
 1105 01b2 00       		.byte	0
 1106 01b3 1F       		.uleb128 0x1f
 1107 01b4 0B       		.uleb128 0xb
 1108 01b5 01       		.byte	0x1
 1109 01b6 11       		.uleb128 0x11
 1110 01b7 01       		.uleb128 0x1
 1111 01b8 12       		.uleb128 0x12
 1112 01b9 06       		.uleb128 0x6
 1113 01ba 00       		.byte	0
 1114 01bb 00       		.byte	0
 1115 01bc 20       		.uleb128 0x20
 1116 01bd 898201   		.uleb128 0x4109
 1117 01c0 01       		.byte	0x1
 1118 01c1 11       		.uleb128 0x11
 1119 01c2 01       		.uleb128 0x1
 1120 01c3 31       		.uleb128 0x31
 1121 01c4 13       		.uleb128 0x13
 1122 01c5 00       		.byte	0
 1123 01c6 00       		.byte	0
 1124 01c7 21       		.uleb128 0x21
 1125 01c8 2E       		.uleb128 0x2e
 1126 01c9 00       		.byte	0
 1127 01ca 3F       		.uleb128 0x3f
 1128 01cb 19       		.uleb128 0x19
 1129 01cc 03       		.uleb128 0x3
 1130 01cd 0E       		.uleb128 0xe
 1131 01ce 3A       		.uleb128 0x3a
 1132 01cf 0B       		.uleb128 0xb
 1133 01d0 3B       		.uleb128 0x3b
 1134 01d1 0B       		.uleb128 0xb
 1135 01d2 27       		.uleb128 0x27
 1136 01d3 19       		.uleb128 0x19
ARM GAS  /var/folders/qh/xwg3v3kj02qbxczjpdb8lzfr0000gn/T//ccncEaM5.s 			page 21


 1137 01d4 3C       		.uleb128 0x3c
 1138 01d5 19       		.uleb128 0x19
 1139 01d6 00       		.byte	0
 1140 01d7 00       		.byte	0
 1141 01d8 00       		.byte	0
 1142              		.section	.debug_loc,"",%progbits
 1143              	.Ldebug_loc0:
 1144              	.LLST0:
 1145 0000 00000000 		.4byte	.LVL1
 1146 0004 07000000 		.4byte	.LVL2-1
 1147 0008 0100     		.2byte	0x1
 1148 000a 50       		.byte	0x50
 1149 000b 07000000 		.4byte	.LVL2-1
 1150 000f 12000000 		.4byte	.LVL4
 1151 0013 0100     		.2byte	0x1
 1152 0015 54       		.byte	0x54
 1153 0016 12000000 		.4byte	.LVL4
 1154 001a 14000000 		.4byte	.LVL5
 1155 001e 0400     		.2byte	0x4
 1156 0020 F3       		.byte	0xf3
 1157 0021 01       		.uleb128 0x1
 1158 0022 50       		.byte	0x50
 1159 0023 9F       		.byte	0x9f
 1160 0024 14000000 		.4byte	.LVL5
 1161 0028 20000000 		.4byte	.LFE9
 1162 002c 0100     		.2byte	0x1
 1163 002e 54       		.byte	0x54
 1164 002f 00000000 		.4byte	0
 1165 0033 00000000 		.4byte	0
 1166              	.LLST1:
 1167 0037 0A000000 		.4byte	.LVL3
 1168 003b 1C000000 		.4byte	.LVL6
 1169 003f 0100     		.2byte	0x1
 1170 0041 50       		.byte	0x50
 1171 0042 1C000000 		.4byte	.LVL6
 1172 0046 1D000000 		.4byte	.LVL7-1
 1173 004a 0200     		.2byte	0x2
 1174 004c 74       		.byte	0x74
 1175 004d 00       		.sleb128 0
 1176 004e 1E000000 		.4byte	.LVL7
 1177 0052 20000000 		.4byte	.LFE9
 1178 0056 0100     		.2byte	0x1
 1179 0058 50       		.byte	0x50
 1180 0059 00000000 		.4byte	0
 1181 005d 00000000 		.4byte	0
 1182              	.LLST2:
 1183 0061 00000000 		.4byte	.LVL8
 1184 0065 09000000 		.4byte	.LVL9-1
 1185 0069 0100     		.2byte	0x1
 1186 006b 50       		.byte	0x50
 1187 006c 09000000 		.4byte	.LVL9-1
 1188 0070 12000000 		.4byte	.LVL11
 1189 0074 0100     		.2byte	0x1
 1190 0076 54       		.byte	0x54
 1191 0077 12000000 		.4byte	.LVL11
 1192 007b 1C000000 		.4byte	.LFE10
 1193 007f 0400     		.2byte	0x4
ARM GAS  /var/folders/qh/xwg3v3kj02qbxczjpdb8lzfr0000gn/T//ccncEaM5.s 			page 22


 1194 0081 F3       		.byte	0xf3
 1195 0082 01       		.uleb128 0x1
 1196 0083 50       		.byte	0x50
 1197 0084 9F       		.byte	0x9f
 1198 0085 00000000 		.4byte	0
 1199 0089 00000000 		.4byte	0
 1200              	.LLST3:
 1201 008d 12000000 		.4byte	.LVL11
 1202 0091 15000000 		.4byte	.LVL12-1
 1203 0095 0100     		.2byte	0x1
 1204 0097 50       		.byte	0x50
 1205 0098 15000000 		.4byte	.LVL12-1
 1206 009c 1A000000 		.4byte	.LVL13
 1207 00a0 0100     		.2byte	0x1
 1208 00a2 54       		.byte	0x54
 1209 00a3 1A000000 		.4byte	.LVL13
 1210 00a7 1C000000 		.4byte	.LFE10
 1211 00ab 0100     		.2byte	0x1
 1212 00ad 50       		.byte	0x50
 1213 00ae 00000000 		.4byte	0
 1214 00b2 00000000 		.4byte	0
 1215              	.LLST4:
 1216 00b6 00000000 		.4byte	.LVL14
 1217 00ba 09000000 		.4byte	.LVL16-1
 1218 00be 0100     		.2byte	0x1
 1219 00c0 50       		.byte	0x50
 1220 00c1 09000000 		.4byte	.LVL16-1
 1221 00c5 10000000 		.4byte	.LVL17
 1222 00c9 0100     		.2byte	0x1
 1223 00cb 54       		.byte	0x54
 1224 00cc 10000000 		.4byte	.LVL17
 1225 00d0 12000000 		.4byte	.LFE11
 1226 00d4 0400     		.2byte	0x4
 1227 00d6 F3       		.byte	0xf3
 1228 00d7 01       		.uleb128 0x1
 1229 00d8 50       		.byte	0x50
 1230 00d9 9F       		.byte	0x9f
 1231 00da 00000000 		.4byte	0
 1232 00de 00000000 		.4byte	0
 1233              	.LLST5:
 1234 00e2 00000000 		.4byte	.LVL14
 1235 00e6 09000000 		.4byte	.LVL16-1
 1236 00ea 0100     		.2byte	0x1
 1237 00ec 51       		.byte	0x51
 1238 00ed 09000000 		.4byte	.LVL16-1
 1239 00f1 10000000 		.4byte	.LVL18
 1240 00f5 0100     		.2byte	0x1
 1241 00f7 55       		.byte	0x55
 1242 00f8 10000000 		.4byte	.LVL18
 1243 00fc 12000000 		.4byte	.LFE11
 1244 0100 0300     		.2byte	0x3
 1245 0102 F3       		.byte	0xf3
 1246 0103 01       		.uleb128 0x1
 1247 0104 50       		.byte	0x50
 1248 0105 00000000 		.4byte	0
 1249 0109 00000000 		.4byte	0
 1250              	.LLST6:
ARM GAS  /var/folders/qh/xwg3v3kj02qbxczjpdb8lzfr0000gn/T//ccncEaM5.s 			page 23


 1251 010d 06000000 		.4byte	.LVL15
 1252 0111 09000000 		.4byte	.LVL16-1
 1253 0115 0100     		.2byte	0x1
 1254 0117 51       		.byte	0x51
 1255 0118 09000000 		.4byte	.LVL16-1
 1256 011c 10000000 		.4byte	.LVL18
 1257 0120 0100     		.2byte	0x1
 1258 0122 55       		.byte	0x55
 1259 0123 10000000 		.4byte	.LVL18
 1260 0127 12000000 		.4byte	.LFE11
 1261 012b 0300     		.2byte	0x3
 1262 012d F3       		.byte	0xf3
 1263 012e 01       		.uleb128 0x1
 1264 012f 50       		.byte	0x50
 1265 0130 00000000 		.4byte	0
 1266 0134 00000000 		.4byte	0
 1267              	.LLST7:
 1268 0138 00000000 		.4byte	.LVL19
 1269 013c 0B000000 		.4byte	.LVL20-1
 1270 0140 0100     		.2byte	0x1
 1271 0142 50       		.byte	0x50
 1272 0143 0B000000 		.4byte	.LVL20-1
 1273 0147 1C000000 		.4byte	.LVL23
 1274 014b 0100     		.2byte	0x1
 1275 014d 54       		.byte	0x54
 1276 014e 1C000000 		.4byte	.LVL23
 1277 0152 1E000000 		.4byte	.LFE12
 1278 0156 0400     		.2byte	0x4
 1279 0158 F3       		.byte	0xf3
 1280 0159 01       		.uleb128 0x1
 1281 015a 50       		.byte	0x50
 1282 015b 9F       		.byte	0x9f
 1283 015c 00000000 		.4byte	0
 1284 0160 00000000 		.4byte	0
 1285              	.LLST8:
 1286 0164 00000000 		.4byte	.LVL19
 1287 0168 0B000000 		.4byte	.LVL20-1
 1288 016c 0100     		.2byte	0x1
 1289 016e 51       		.byte	0x51
 1290 016f 0B000000 		.4byte	.LVL20-1
 1291 0173 1C000000 		.4byte	.LVL24
 1292 0177 0100     		.2byte	0x1
 1293 0179 55       		.byte	0x55
 1294 017a 1C000000 		.4byte	.LVL24
 1295 017e 1E000000 		.4byte	.LFE12
 1296 0182 0400     		.2byte	0x4
 1297 0184 F3       		.byte	0xf3
 1298 0185 01       		.uleb128 0x1
 1299 0186 51       		.byte	0x51
 1300 0187 9F       		.byte	0x9f
 1301 0188 00000000 		.4byte	0
 1302 018c 00000000 		.4byte	0
 1303              	.LLST9:
 1304 0190 0C000000 		.4byte	.LVL20
 1305 0194 1C000000 		.4byte	.LVL24
 1306 0198 0100     		.2byte	0x1
 1307 019a 55       		.byte	0x55
ARM GAS  /var/folders/qh/xwg3v3kj02qbxczjpdb8lzfr0000gn/T//ccncEaM5.s 			page 24


 1308 019b 1C000000 		.4byte	.LVL24
 1309 019f 1E000000 		.4byte	.LFE12
 1310 01a3 0400     		.2byte	0x4
 1311 01a5 F3       		.byte	0xf3
 1312 01a6 01       		.uleb128 0x1
 1313 01a7 51       		.byte	0x51
 1314 01a8 9F       		.byte	0x9f
 1315 01a9 00000000 		.4byte	0
 1316 01ad 00000000 		.4byte	0
 1317              	.LLST10:
 1318 01b1 0C000000 		.4byte	.LVL20
 1319 01b5 1C000000 		.4byte	.LVL23
 1320 01b9 0100     		.2byte	0x1
 1321 01bb 54       		.byte	0x54
 1322 01bc 1C000000 		.4byte	.LVL23
 1323 01c0 1E000000 		.4byte	.LFE12
 1324 01c4 0400     		.2byte	0x4
 1325 01c6 F3       		.byte	0xf3
 1326 01c7 01       		.uleb128 0x1
 1327 01c8 50       		.byte	0x50
 1328 01c9 9F       		.byte	0x9f
 1329 01ca 00000000 		.4byte	0
 1330 01ce 00000000 		.4byte	0
 1331              	.LLST12:
 1332 01d2 00000000 		.4byte	.LVL25
 1333 01d6 0A000000 		.4byte	.LVL26
 1334 01da 0100     		.2byte	0x1
 1335 01dc 50       		.byte	0x50
 1336 01dd 0A000000 		.4byte	.LVL26
 1337 01e1 1C000000 		.4byte	.LVL32
 1338 01e5 0100     		.2byte	0x1
 1339 01e7 56       		.byte	0x56
 1340 01e8 1C000000 		.4byte	.LVL32
 1341 01ec 1E000000 		.4byte	.LFE8
 1342 01f0 0400     		.2byte	0x4
 1343 01f2 F3       		.byte	0xf3
 1344 01f3 01       		.uleb128 0x1
 1345 01f4 50       		.byte	0x50
 1346 01f5 9F       		.byte	0x9f
 1347 01f6 00000000 		.4byte	0
 1348 01fa 00000000 		.4byte	0
 1349              	.LLST13:
 1350 01fe 00000000 		.4byte	.LVL25
 1351 0202 0A000000 		.4byte	.LVL26
 1352 0206 0100     		.2byte	0x1
 1353 0208 51       		.byte	0x51
 1354 0209 0A000000 		.4byte	.LVL26
 1355 020d 1C000000 		.4byte	.LVL31
 1356 0211 0100     		.2byte	0x1
 1357 0213 55       		.byte	0x55
 1358 0214 00000000 		.4byte	0
 1359 0218 00000000 		.4byte	0
 1360              	.LLST14:
 1361 021c 00000000 		.4byte	.LVL25
 1362 0220 0A000000 		.4byte	.LVL26
 1363 0224 0100     		.2byte	0x1
 1364 0226 52       		.byte	0x52
ARM GAS  /var/folders/qh/xwg3v3kj02qbxczjpdb8lzfr0000gn/T//ccncEaM5.s 			page 25


 1365 0227 0A000000 		.4byte	.LVL26
 1366 022b 16000000 		.4byte	.LVL28
 1367 022f 0100     		.2byte	0x1
 1368 0231 54       		.byte	0x54
 1369 0232 16000000 		.4byte	.LVL28
 1370 0236 18000000 		.4byte	.LVL29
 1371 023a 0300     		.2byte	0x3
 1372 023c 74       		.byte	0x74
 1373 023d 01       		.sleb128 1
 1374 023e 9F       		.byte	0x9f
 1375 023f 18000000 		.4byte	.LVL29
 1376 0243 1C000000 		.4byte	.LVL30
 1377 0247 0100     		.2byte	0x1
 1378 0249 54       		.byte	0x54
 1379 024a 00000000 		.4byte	0
 1380 024e 00000000 		.4byte	0
 1381              		.section	.debug_aranges,"",%progbits
 1382 0000 44000000 		.4byte	0x44
 1383 0004 0200     		.2byte	0x2
 1384 0006 00000000 		.4byte	.Ldebug_info0
 1385 000a 04       		.byte	0x4
 1386 000b 00       		.byte	0
 1387 000c 0000     		.2byte	0
 1388 000e 0000     		.2byte	0
 1389 0010 00000000 		.4byte	.LFB7
 1390 0014 0A000000 		.4byte	.LFE7-.LFB7
 1391 0018 00000000 		.4byte	.LFB9
 1392 001c 20000000 		.4byte	.LFE9-.LFB9
 1393 0020 00000000 		.4byte	.LFB10
 1394 0024 1C000000 		.4byte	.LFE10-.LFB10
 1395 0028 00000000 		.4byte	.LFB11
 1396 002c 12000000 		.4byte	.LFE11-.LFB11
 1397 0030 00000000 		.4byte	.LFB12
 1398 0034 1E000000 		.4byte	.LFE12-.LFB12
 1399 0038 00000000 		.4byte	.LFB8
 1400 003c 1E000000 		.4byte	.LFE8-.LFB8
 1401 0040 00000000 		.4byte	0
 1402 0044 00000000 		.4byte	0
 1403              		.section	.debug_ranges,"",%progbits
 1404              	.Ldebug_ranges0:
 1405 0000 00000000 		.4byte	.LFB7
 1406 0004 0A000000 		.4byte	.LFE7
 1407 0008 00000000 		.4byte	.LFB9
 1408 000c 20000000 		.4byte	.LFE9
 1409 0010 00000000 		.4byte	.LFB10
 1410 0014 1C000000 		.4byte	.LFE10
 1411 0018 00000000 		.4byte	.LFB11
 1412 001c 12000000 		.4byte	.LFE11
 1413 0020 00000000 		.4byte	.LFB12
 1414 0024 1E000000 		.4byte	.LFE12
 1415 0028 00000000 		.4byte	.LFB8
 1416 002c 1E000000 		.4byte	.LFE8
 1417 0030 00000000 		.4byte	0
 1418 0034 00000000 		.4byte	0
 1419              		.section	.debug_line,"",%progbits
 1420              	.Ldebug_line0:
 1421 0000 BC010000 		.section	.debug_str,"MS",%progbits,1
ARM GAS  /var/folders/qh/xwg3v3kj02qbxczjpdb8lzfr0000gn/T//ccncEaM5.s 			page 26


 1421      02002D01 
 1421      00000201 
 1421      FB0E0D00 
 1421      01010101 
 1422              	.LASF2:
 1423 0000 73697A65 		.ascii	"size_t\000"
 1423      5F7400
 1424              	.LASF31:
 1425 0007 474E5520 		.ascii	"GNU C 4.8.3 20131129 (release) [ARM/embedded-4_8-br"
 1425      4320342E 
 1425      382E3320 
 1425      32303133 
 1425      31313239 
 1426 003a 616E6368 		.ascii	"anch revision 205641] -mcpu=cortex-m0 -mno-thumb-in"
 1426      20726576 
 1426      6973696F 
 1426      6E203230 
 1426      35363431 
 1427 006d 74657277 		.ascii	"terwork -mthumb -ggdb -O2 -fomit-frame-pointer -fal"
 1427      6F726B20 
 1427      2D6D7468 
 1427      756D6220 
 1427      2D676764 
 1428 00a0 69676E2D 		.ascii	"ign-functions=16 -ffunction-sections -fdata-section"
 1428      66756E63 
 1428      74696F6E 
 1428      733D3136 
 1428      202D6666 
 1429 00d3 73202D66 		.ascii	"s -fno-common\000"
 1429      6E6F2D63 
 1429      6F6D6D6F 
 1429      6E00
 1430              	.LASF29:
 1431 00e1 6462675F 		.ascii	"dbg_check_lock\000"
 1431      63686563 
 1431      6B5F6C6F 
 1431      636B00
 1432              	.LASF30:
 1433 00f0 6462675F 		.ascii	"dbg_check_unlock\000"
 1433      63686563 
 1433      6B5F756E 
 1433      6C6F636B 
 1433      00
 1434              	.LASF16:
 1435 0101 6D705F6F 		.ascii	"mp_object_size\000"
 1435      626A6563 
 1435      745F7369 
 1435      7A6500
 1436              	.LASF28:
 1437 0110 63684462 		.ascii	"chDbgCheckClassI\000"
 1437      67436865 
 1437      636B436C 
 1437      61737349 
 1437      00
 1438              	.LASF27:
 1439 0121 6368506F 		.ascii	"chPoolLoadArray\000"
 1439      6F6C4C6F 
ARM GAS  /var/folders/qh/xwg3v3kj02qbxczjpdb8lzfr0000gn/T//ccncEaM5.s 			page 27


 1439      61644172 
 1439      72617900 
 1440              	.LASF34:
 1441 0131 706F6F6C 		.ascii	"pool_header\000"
 1441      5F686561 
 1441      64657200 
 1442              	.LASF21:
 1443 013d 73697A65 		.ascii	"size\000"
 1443      00
 1444              	.LASF8:
 1445 0142 6C6F6E67 		.ascii	"long unsigned int\000"
 1445      20756E73 
 1445      69676E65 
 1445      6420696E 
 1445      7400
 1446              	.LASF6:
 1447 0154 73686F72 		.ascii	"short unsigned int\000"
 1447      7420756E 
 1447      7369676E 
 1447      65642069 
 1447      6E7400
 1448              	.LASF22:
 1449 0167 70726F76 		.ascii	"provider\000"
 1449      69646572 
 1449      00
 1450              	.LASF35:
 1451 0170 6368506F 		.ascii	"chPoolFreeI\000"
 1451      6F6C4672 
 1451      65654900 
 1452              	.LASF4:
 1453 017c 756E7369 		.ascii	"unsigned char\000"
 1453      676E6564 
 1453      20636861 
 1453      7200
 1454              	.LASF26:
 1455 018a 6368506F 		.ascii	"chPoolFree\000"
 1455      6F6C4672 
 1455      656500
 1456              	.LASF18:
 1457 0195 4D656D6F 		.ascii	"MemoryPool\000"
 1457      7279506F 
 1457      6F6C00
 1458              	.LASF20:
 1459 01a0 6F626A70 		.ascii	"objp\000"
 1459      00
 1460              	.LASF23:
 1461 01a5 6368506F 		.ascii	"chPoolAllocI\000"
 1461      6F6C416C 
 1461      6C6F6349 
 1461      00
 1462              	.LASF0:
 1463 01b2 756E7369 		.ascii	"unsigned int\000"
 1463      676E6564 
 1463      20696E74 
 1463      00
 1464              	.LASF10:
 1465 01bf 6C6F6E67 		.ascii	"long long unsigned int\000"
ARM GAS  /var/folders/qh/xwg3v3kj02qbxczjpdb8lzfr0000gn/T//ccncEaM5.s 			page 28


 1465      206C6F6E 
 1465      6720756E 
 1465      7369676E 
 1465      65642069 
 1466              	.LASF3:
 1467 01d6 75696E74 		.ascii	"uint8_t\000"
 1467      385F7400 
 1468              	.LASF33:
 1469 01de 2F557365 		.ascii	"/Users/John/Development/embedded/ChibiOS-RT/BluC/ST"
 1469      72732F4A 
 1469      6F686E2F 
 1469      44657665 
 1469      6C6F706D 
 1470 0211 4D333246 		.ascii	"M32F051\000"
 1470      30353100 
 1471              	.LASF14:
 1472 0219 70685F6E 		.ascii	"ph_next\000"
 1472      65787400 
 1473              	.LASF12:
 1474 0221 73697A65 		.ascii	"sizetype\000"
 1474      74797065 
 1474      00
 1475              	.LASF9:
 1476 022a 6C6F6E67 		.ascii	"long long int\000"
 1476      206C6F6E 
 1476      6720696E 
 1476      7400
 1477              	.LASF19:
 1478 0238 63686172 		.ascii	"char\000"
 1478      00
 1479              	.LASF13:
 1480 023d 6D656D67 		.ascii	"memgetfunc_t\000"
 1480      65746675 
 1480      6E635F74 
 1480      00
 1481              	.LASF17:
 1482 024a 6D705F70 		.ascii	"mp_provider\000"
 1482      726F7669 
 1482      64657200 
 1483              	.LASF5:
 1484 0256 73686F72 		.ascii	"short int\000"
 1484      7420696E 
 1484      7400
 1485              	.LASF24:
 1486 0260 6368506F 		.ascii	"chPoolAlloc\000"
 1486      6F6C416C 
 1486      6C6F6300 
 1487              	.LASF32:
 1488 026c 2E2E2F2E 		.ascii	"../../os/kernel/src/chmempools.c\000"
 1488      2E2F6F73 
 1488      2F6B6572 
 1488      6E656C2F 
 1488      7372632F 
 1489              	.LASF7:
 1490 028d 6C6F6E67 		.ascii	"long int\000"
 1490      20696E74 
 1490      00
ARM GAS  /var/folders/qh/xwg3v3kj02qbxczjpdb8lzfr0000gn/T//ccncEaM5.s 			page 29


 1491              	.LASF1:
 1492 0296 7369676E 		.ascii	"signed char\000"
 1492      65642063 
 1492      68617200 
 1493              	.LASF15:
 1494 02a2 6D705F6E 		.ascii	"mp_next\000"
 1494      65787400 
 1495              	.LASF11:
 1496 02aa 5F426F6F 		.ascii	"_Bool\000"
 1496      6C00
 1497              	.LASF25:
 1498 02b0 6368506F 		.ascii	"chPoolInit\000"
 1498      6F6C496E 
 1498      697400
 1499              		.ident	"GCC: (GNU Tools for ARM Embedded Processors) 4.8.3 20131129 (release) [ARM/embedded-4_8-br
ARM GAS  /var/folders/qh/xwg3v3kj02qbxczjpdb8lzfr0000gn/T//ccncEaM5.s 			page 30


DEFINED SYMBOLS
                            *ABS*:0000000000000000 chmempools.c
/var/folders/qh/xwg3v3kj02qbxczjpdb8lzfr0000gn/T//ccncEaM5.s:18     .text.chPoolInit:0000000000000000 $t
/var/folders/qh/xwg3v3kj02qbxczjpdb8lzfr0000gn/T//ccncEaM5.s:24     .text.chPoolInit:0000000000000000 chPoolInit
/var/folders/qh/xwg3v3kj02qbxczjpdb8lzfr0000gn/T//ccncEaM5.s:44     .text.chPoolAllocI:0000000000000000 $t
/var/folders/qh/xwg3v3kj02qbxczjpdb8lzfr0000gn/T//ccncEaM5.s:50     .text.chPoolAllocI:0000000000000000 chPoolAllocI
/var/folders/qh/xwg3v3kj02qbxczjpdb8lzfr0000gn/T//ccncEaM5.s:93     .text.chPoolAlloc:0000000000000000 $t
/var/folders/qh/xwg3v3kj02qbxczjpdb8lzfr0000gn/T//ccncEaM5.s:99     .text.chPoolAlloc:0000000000000000 chPoolAlloc
/var/folders/qh/xwg3v3kj02qbxczjpdb8lzfr0000gn/T//ccncEaM5.s:139    .text.chPoolFreeI:0000000000000000 $t
/var/folders/qh/xwg3v3kj02qbxczjpdb8lzfr0000gn/T//ccncEaM5.s:145    .text.chPoolFreeI:0000000000000000 chPoolFreeI
/var/folders/qh/xwg3v3kj02qbxczjpdb8lzfr0000gn/T//ccncEaM5.s:179    .text.chPoolFree:0000000000000000 $t
/var/folders/qh/xwg3v3kj02qbxczjpdb8lzfr0000gn/T//ccncEaM5.s:185    .text.chPoolFree:0000000000000000 chPoolFree
/var/folders/qh/xwg3v3kj02qbxczjpdb8lzfr0000gn/T//ccncEaM5.s:234    .text.chPoolLoadArray:0000000000000000 $t
/var/folders/qh/xwg3v3kj02qbxczjpdb8lzfr0000gn/T//ccncEaM5.s:240    .text.chPoolLoadArray:0000000000000000 chPoolLoadArray
                     .debug_frame:0000000000000010 $d

UNDEFINED SYMBOLS
chDbgCheckClassI
dbg_check_lock
dbg_check_unlock
