ARM GAS  /var/folders/qh/xwg3v3kj02qbxczjpdb8lzfr0000gn/T//ccfaZdch.s 			page 1


   1              		.cpu cortex-m0
   2              		.fpu softvfp
   3              		.eabi_attribute 20, 1
   4              		.eabi_attribute 21, 1
   5              		.eabi_attribute 23, 3
   6              		.eabi_attribute 24, 1
   7              		.eabi_attribute 25, 1
   8              		.eabi_attribute 26, 1
   9              		.eabi_attribute 30, 2
  10              		.eabi_attribute 34, 0
  11              		.eabi_attribute 18, 4
  12              		.code	16
  13              		.file	"chmempools.c"
  14              		.text
  15              	.Ltext0:
  16              		.cfi_sections	.debug_frame
  17              		.section	.text.chPoolInit,"ax",%progbits
  18              		.align	2
  19              		.p2align 4,,15
  20              		.global	chPoolInit
  21              		.code	16
  22              		.thumb_func
  23              		.type	chPoolInit, %function
  24              	chPoolInit:
  25              	.LFB7:
  26              		.file 1 "../../os/kernel/src/chmempools.c"
  27              		.loc 1 55 0
  28              		.cfi_startproc
  29              	.LVL0:
  30              		.loc 1 59 0
  31 0000 0023     		mov	r3, #0
  32 0002 0360     		str	r3, [r0]
  33              		.loc 1 60 0
  34 0004 4160     		str	r1, [r0, #4]
  35              		.loc 1 61 0
  36 0006 8260     		str	r2, [r0, #8]
  37              		.loc 1 62 0
  38              		@ sp needed
  39 0008 7047     		bx	lr
  40              		.cfi_endproc
  41              	.LFE7:
  42              		.size	chPoolInit, .-chPoolInit
  43 000a C046C046 		.section	.text.chPoolLoadArray,"ax",%progbits
  43      C046
  44              		.align	2
  45              		.p2align 4,,15
  46              		.global	chPoolLoadArray
  47              		.code	16
  48              		.thumb_func
  49              		.type	chPoolLoadArray, %function
  50              	chPoolLoadArray:
  51              	.LFB8:
  52              		.loc 1 77 0
  53              		.cfi_startproc
  54              	.LVL1:
  55 0000 07E0     		b	.L10
  56              	.L8:
ARM GAS  /var/folders/qh/xwg3v3kj02qbxczjpdb8lzfr0000gn/T//ccfaZdch.s 			page 2


  57              	.LVL2:
  58              	.LBB10:
  59              	.LBB11:
  60              		.loc 1 166 0
  61              	@ 166 "../../os/kernel/src/chmempools.c" 1
  62 0002 72B6     		cpsid   i
  63              	@ 0 "" 2
  64              	.LVL3:
  65              		.code	16
  66              	.LBB12:
  67              	.LBB13:
  68              		.loc 1 148 0
  69 0004 0368     		ldr	r3, [r0]
  70 0006 0B60     		str	r3, [r1]
  71              		.loc 1 149 0
  72 0008 0160     		str	r1, [r0]
  73              	.LBE13:
  74              	.LBE12:
  75              		.loc 1 168 0
  76              	@ 168 "../../os/kernel/src/chmempools.c" 1
  77 000a 62B6     		cpsie   i
  78              	@ 0 "" 2
  79              		.code	16
  80              	.LBE11:
  81              	.LBE10:
  82              		.loc 1 83 0
  83 000c 4368     		ldr	r3, [r0, #4]
  84              		.loc 1 84 0
  85 000e 013A     		sub	r2, r2, #1
  86              	.LVL4:
  87              		.loc 1 83 0
  88 0010 C918     		add	r1, r1, r3
  89              	.LVL5:
  90              	.L10:
  91              		.loc 1 81 0
  92 0012 002A     		cmp	r2, #0
  93 0014 F5D1     		bne	.L8
  94              		.loc 1 86 0
  95              		@ sp needed
  96 0016 7047     		bx	lr
  97              		.cfi_endproc
  98              	.LFE8:
  99              		.size	chPoolLoadArray, .-chPoolLoadArray
 100 0018 C046C046 		.section	.text.chPoolAllocI,"ax",%progbits
 100      C046C046 
 101              		.align	2
 102              		.p2align 4,,15
 103              		.global	chPoolAllocI
 104              		.code	16
 105              		.thumb_func
 106              		.type	chPoolAllocI, %function
 107              	chPoolAllocI:
 108              	.LFB9:
 109              		.loc 1 98 0
 110              		.cfi_startproc
 111              	.LVL6:
 112 0000 08B5     		push	{r3, lr}
ARM GAS  /var/folders/qh/xwg3v3kj02qbxczjpdb8lzfr0000gn/T//ccfaZdch.s 			page 3


 113              		.cfi_def_cfa_offset 8
 114              		.cfi_offset 3, -8
 115              		.cfi_offset 14, -4
 116              		.loc 1 98 0
 117 0002 031C     		mov	r3, r0
 118              		.loc 1 104 0
 119 0004 0068     		ldr	r0, [r0]
 120              	.LVL7:
 121 0006 0028     		cmp	r0, #0
 122 0008 02D0     		beq	.L13
 123              		.loc 1 105 0
 124 000a 0268     		ldr	r2, [r0]
 125 000c 1A60     		str	r2, [r3]
 126              	.LVL8:
 127              	.L14:
 128              		.loc 1 109 0
 129              		@ sp needed
 130 000e 08BD     		pop	{r3, pc}
 131              	.LVL9:
 132              	.L13:
 133              		.loc 1 106 0
 134 0010 9A68     		ldr	r2, [r3, #8]
 135 0012 002A     		cmp	r2, #0
 136 0014 FBD0     		beq	.L14
 137              		.loc 1 107 0
 138 0016 5868     		ldr	r0, [r3, #4]
 139              	.LVL10:
 140 0018 9047     		blx	r2
 141              	.LVL11:
 142 001a F8E7     		b	.L14
 143              		.cfi_endproc
 144              	.LFE9:
 145              		.size	chPoolAllocI, .-chPoolAllocI
 146 001c C046C046 		.section	.text.chPoolAlloc,"ax",%progbits
 147              		.align	2
 148              		.p2align 4,,15
 149              		.global	chPoolAlloc
 150              		.code	16
 151              		.thumb_func
 152              		.type	chPoolAlloc, %function
 153              	chPoolAlloc:
 154              	.LFB10:
 155              		.loc 1 121 0
 156              		.cfi_startproc
 157              	.LVL12:
 158 0000 08B5     		push	{r3, lr}
 159              		.cfi_def_cfa_offset 8
 160              		.cfi_offset 3, -8
 161              		.cfi_offset 14, -4
 162              		.loc 1 121 0
 163 0002 031C     		mov	r3, r0
 164              		.loc 1 124 0
 165              	@ 124 "../../os/kernel/src/chmempools.c" 1
 166 0004 72B6     		cpsid   i
 167              	@ 0 "" 2
 168              	.LVL13:
 169              		.code	16
ARM GAS  /var/folders/qh/xwg3v3kj02qbxczjpdb8lzfr0000gn/T//ccfaZdch.s 			page 4


 170              	.LBB14:
 171              	.LBB15:
 172              		.loc 1 104 0
 173 0006 0068     		ldr	r0, [r0]
 174              	.LVL14:
 175 0008 0028     		cmp	r0, #0
 176 000a 03D0     		beq	.L19
 177              		.loc 1 105 0
 178 000c 0268     		ldr	r2, [r0]
 179 000e 1A60     		str	r2, [r3]
 180              	.LVL15:
 181              	.L20:
 182              	.LBE15:
 183              	.LBE14:
 184              		.loc 1 126 0
 185              	@ 126 "../../os/kernel/src/chmempools.c" 1
 186 0010 62B6     		cpsie   i
 187              	@ 0 "" 2
 188              		.loc 1 128 0
 189              		.code	16
 190              		@ sp needed
 191 0012 08BD     		pop	{r3, pc}
 192              	.LVL16:
 193              	.L19:
 194              	.LBB17:
 195              	.LBB16:
 196              		.loc 1 106 0
 197 0014 9A68     		ldr	r2, [r3, #8]
 198 0016 002A     		cmp	r2, #0
 199 0018 FAD0     		beq	.L20
 200              		.loc 1 107 0
 201 001a 5868     		ldr	r0, [r3, #4]
 202              	.LVL17:
 203 001c 9047     		blx	r2
 204              	.LVL18:
 205 001e F7E7     		b	.L20
 206              	.LBE16:
 207              	.LBE17:
 208              		.cfi_endproc
 209              	.LFE10:
 210              		.size	chPoolAlloc, .-chPoolAlloc
 211              		.section	.text.chPoolFreeI,"ax",%progbits
 212              		.align	2
 213              		.p2align 4,,15
 214              		.global	chPoolFreeI
 215              		.code	16
 216              		.thumb_func
 217              		.type	chPoolFreeI, %function
 218              	chPoolFreeI:
 219              	.LFB11:
 220              		.loc 1 142 0
 221              		.cfi_startproc
 222              	.LVL19:
 223              		.loc 1 148 0
 224 0000 0368     		ldr	r3, [r0]
 225              		.loc 1 150 0
 226              		@ sp needed
ARM GAS  /var/folders/qh/xwg3v3kj02qbxczjpdb8lzfr0000gn/T//ccfaZdch.s 			page 5


 227              		.loc 1 148 0
 228 0002 0B60     		str	r3, [r1]
 229              		.loc 1 149 0
 230 0004 0160     		str	r1, [r0]
 231              		.loc 1 150 0
 232 0006 7047     		bx	lr
 233              		.cfi_endproc
 234              	.LFE11:
 235              		.size	chPoolFreeI, .-chPoolFreeI
 236 0008 C046C046 		.section	.text.chPoolFree,"ax",%progbits
 236      C046C046 
 237              		.align	2
 238              		.p2align 4,,15
 239              		.global	chPoolFree
 240              		.code	16
 241              		.thumb_func
 242              		.type	chPoolFree, %function
 243              	chPoolFree:
 244              	.LFB12:
 245              		.loc 1 164 0
 246              		.cfi_startproc
 247              	.LVL20:
 248              		.loc 1 166 0
 249              	@ 166 "../../os/kernel/src/chmempools.c" 1
 250 0000 72B6     		cpsid   i
 251              	@ 0 "" 2
 252              	.LVL21:
 253              		.code	16
 254              	.LBB18:
 255              	.LBB19:
 256              		.loc 1 148 0
 257 0002 0368     		ldr	r3, [r0]
 258 0004 0B60     		str	r3, [r1]
 259              		.loc 1 149 0
 260 0006 0160     		str	r1, [r0]
 261              	.LBE19:
 262              	.LBE18:
 263              		.loc 1 168 0
 264              	@ 168 "../../os/kernel/src/chmempools.c" 1
 265 0008 62B6     		cpsie   i
 266              	@ 0 "" 2
 267              		.loc 1 169 0
 268              		.code	16
 269              		@ sp needed
 270 000a 7047     		bx	lr
 271              		.cfi_endproc
 272              	.LFE12:
 273              		.size	chPoolFree, .-chPoolFree
 274 000c C046C046 		.text
 275              	.Letext0:
 276              		.file 2 "/usr/local/Cellar/gcc-arm-none-eabi-48/20131218/lib/gcc/arm-none-eabi/4.8.3/include/stdde
 277              		.file 3 "/usr/local/Cellar/gcc-arm-none-eabi-48/20131218/arm-none-eabi/include/stdint.h"
 278              		.file 4 "../../os/kernel/include/chmemcore.h"
 279              		.file 5 "../../os/kernel/include/chmempools.h"
 280              		.section	.debug_info,"",%progbits
 281              	.Ldebug_info0:
 282 0000 4F030000 		.4byte	0x34f
ARM GAS  /var/folders/qh/xwg3v3kj02qbxczjpdb8lzfr0000gn/T//ccfaZdch.s 			page 6


 283 0004 0400     		.2byte	0x4
 284 0006 00000000 		.4byte	.Ldebug_abbrev0
 285 000a 04       		.byte	0x4
 286 000b 01       		.uleb128 0x1
 287 000c 07000000 		.4byte	.LASF27
 288 0010 01       		.byte	0x1
 289 0011 3B020000 		.4byte	.LASF28
 290 0015 AD010000 		.4byte	.LASF29
 291 0019 18000000 		.4byte	.Ldebug_ranges0+0x18
 292 001d 00000000 		.4byte	0
 293 0021 00000000 		.4byte	.Ldebug_line0
 294 0025 02       		.uleb128 0x2
 295 0026 04       		.byte	0x4
 296 0027 05       		.byte	0x5
 297 0028 696E7400 		.ascii	"int\000"
 298 002c 03       		.uleb128 0x3
 299 002d 00000000 		.4byte	.LASF2
 300 0031 02       		.byte	0x2
 301 0032 D4       		.byte	0xd4
 302 0033 37000000 		.4byte	0x37
 303 0037 04       		.uleb128 0x4
 304 0038 04       		.byte	0x4
 305 0039 07       		.byte	0x7
 306 003a 81010000 		.4byte	.LASF0
 307 003e 04       		.uleb128 0x4
 308 003f 01       		.byte	0x1
 309 0040 06       		.byte	0x6
 310 0041 65020000 		.4byte	.LASF1
 311 0045 03       		.uleb128 0x3
 312 0046 A5010000 		.4byte	.LASF3
 313 004a 03       		.byte	0x3
 314 004b 2A       		.byte	0x2a
 315 004c 50000000 		.4byte	0x50
 316 0050 04       		.uleb128 0x4
 317 0051 01       		.byte	0x1
 318 0052 08       		.byte	0x8
 319 0053 4B010000 		.4byte	.LASF4
 320 0057 04       		.uleb128 0x4
 321 0058 02       		.byte	0x2
 322 0059 05       		.byte	0x5
 323 005a 25020000 		.4byte	.LASF5
 324 005e 04       		.uleb128 0x4
 325 005f 02       		.byte	0x2
 326 0060 07       		.byte	0x7
 327 0061 23010000 		.4byte	.LASF6
 328 0065 04       		.uleb128 0x4
 329 0066 04       		.byte	0x4
 330 0067 05       		.byte	0x5
 331 0068 5C020000 		.4byte	.LASF7
 332 006c 04       		.uleb128 0x4
 333 006d 04       		.byte	0x4
 334 006e 07       		.byte	0x7
 335 006f 11010000 		.4byte	.LASF8
 336 0073 04       		.uleb128 0x4
 337 0074 08       		.byte	0x8
 338 0075 05       		.byte	0x5
 339 0076 F9010000 		.4byte	.LASF9
ARM GAS  /var/folders/qh/xwg3v3kj02qbxczjpdb8lzfr0000gn/T//ccfaZdch.s 			page 7


 340 007a 04       		.uleb128 0x4
 341 007b 08       		.byte	0x8
 342 007c 07       		.byte	0x7
 343 007d 8E010000 		.4byte	.LASF10
 344 0081 04       		.uleb128 0x4
 345 0082 01       		.byte	0x1
 346 0083 02       		.byte	0x2
 347 0084 79020000 		.4byte	.LASF11
 348 0088 05       		.uleb128 0x5
 349 0089 04       		.byte	0x4
 350 008a 04       		.uleb128 0x4
 351 008b 04       		.byte	0x4
 352 008c 07       		.byte	0x7
 353 008d F0010000 		.4byte	.LASF12
 354 0091 03       		.uleb128 0x3
 355 0092 0C020000 		.4byte	.LASF13
 356 0096 04       		.byte	0x4
 357 0097 25       		.byte	0x25
 358 0098 9C000000 		.4byte	0x9c
 359 009c 06       		.uleb128 0x6
 360 009d 04       		.byte	0x4
 361 009e A2000000 		.4byte	0xa2
 362 00a2 07       		.uleb128 0x7
 363 00a3 88000000 		.4byte	0x88
 364 00a7 B1000000 		.4byte	0xb1
 365 00ab 08       		.uleb128 0x8
 366 00ac 2C000000 		.4byte	0x2c
 367 00b0 00       		.byte	0
 368 00b1 09       		.uleb128 0x9
 369 00b2 00010000 		.4byte	.LASF30
 370 00b6 04       		.byte	0x4
 371 00b7 05       		.byte	0x5
 372 00b8 25       		.byte	0x25
 373 00b9 CA000000 		.4byte	0xca
 374 00bd 0A       		.uleb128 0xa
 375 00be E8010000 		.4byte	.LASF14
 376 00c2 05       		.byte	0x5
 377 00c3 26       		.byte	0x26
 378 00c4 CA000000 		.4byte	0xca
 379 00c8 00       		.byte	0
 380 00c9 00       		.byte	0
 381 00ca 06       		.uleb128 0x6
 382 00cb 04       		.byte	0x4
 383 00cc B1000000 		.4byte	0xb1
 384 00d0 0B       		.uleb128 0xb
 385 00d1 0C       		.byte	0xc
 386 00d2 05       		.byte	0x5
 387 00d3 2D       		.byte	0x2d
 388 00d4 FD000000 		.4byte	0xfd
 389 00d8 0A       		.uleb128 0xa
 390 00d9 71020000 		.4byte	.LASF15
 391 00dd 05       		.byte	0x5
 392 00de 2E       		.byte	0x2e
 393 00df CA000000 		.4byte	0xca
 394 00e3 00       		.byte	0
 395 00e4 0A       		.uleb128 0xa
 396 00e5 E1000000 		.4byte	.LASF16
ARM GAS  /var/folders/qh/xwg3v3kj02qbxczjpdb8lzfr0000gn/T//ccfaZdch.s 			page 8


 397 00e9 05       		.byte	0x5
 398 00ea 2F       		.byte	0x2f
 399 00eb 2C000000 		.4byte	0x2c
 400 00ef 04       		.byte	0x4
 401 00f0 0A       		.uleb128 0xa
 402 00f1 19020000 		.4byte	.LASF17
 403 00f5 05       		.byte	0x5
 404 00f6 31       		.byte	0x31
 405 00f7 91000000 		.4byte	0x91
 406 00fb 08       		.byte	0x8
 407 00fc 00       		.byte	0
 408 00fd 03       		.uleb128 0x3
 409 00fe 64010000 		.4byte	.LASF18
 410 0102 05       		.byte	0x5
 411 0103 33       		.byte	0x33
 412 0104 D0000000 		.4byte	0xd0
 413 0108 04       		.uleb128 0x4
 414 0109 01       		.byte	0x1
 415 010a 08       		.byte	0x8
 416 010b 07020000 		.4byte	.LASF19
 417 010f 0C       		.uleb128 0xc
 418 0110 74010000 		.4byte	.LASF31
 419 0114 01       		.byte	0x1
 420 0115 62       		.byte	0x62
 421 0116 88000000 		.4byte	0x88
 422 011a 01       		.byte	0x1
 423 011b 35010000 		.4byte	0x135
 424 011f 0D       		.uleb128 0xd
 425 0120 6D7000   		.ascii	"mp\000"
 426 0123 01       		.byte	0x1
 427 0124 62       		.byte	0x62
 428 0125 35010000 		.4byte	0x135
 429 0129 0E       		.uleb128 0xe
 430 012a 6F010000 		.4byte	.LASF20
 431 012e 01       		.byte	0x1
 432 012f 63       		.byte	0x63
 433 0130 88000000 		.4byte	0x88
 434 0134 00       		.byte	0
 435 0135 06       		.uleb128 0x6
 436 0136 04       		.byte	0x4
 437 0137 FD000000 		.4byte	0xfd
 438 013b 0F       		.uleb128 0xf
 439 013c 3F010000 		.4byte	.LASF21
 440 0140 01       		.byte	0x1
 441 0141 8E       		.byte	0x8e
 442 0142 01       		.byte	0x1
 443 0143 68010000 		.4byte	0x168
 444 0147 0D       		.uleb128 0xd
 445 0148 6D7000   		.ascii	"mp\000"
 446 014b 01       		.byte	0x1
 447 014c 8E       		.byte	0x8e
 448 014d 35010000 		.4byte	0x135
 449 0151 10       		.uleb128 0x10
 450 0152 6F010000 		.4byte	.LASF20
 451 0156 01       		.byte	0x1
 452 0157 8E       		.byte	0x8e
 453 0158 88000000 		.4byte	0x88
ARM GAS  /var/folders/qh/xwg3v3kj02qbxczjpdb8lzfr0000gn/T//ccfaZdch.s 			page 9


 454 015c 11       		.uleb128 0x11
 455 015d 70687000 		.ascii	"php\000"
 456 0161 01       		.byte	0x1
 457 0162 8F       		.byte	0x8f
 458 0163 CA000000 		.4byte	0xca
 459 0167 00       		.byte	0
 460 0168 0F       		.uleb128 0xf
 461 0169 59010000 		.4byte	.LASF22
 462 016d 01       		.byte	0x1
 463 016e A4       		.byte	0xa4
 464 016f 01       		.byte	0x1
 465 0170 8A010000 		.4byte	0x18a
 466 0174 0D       		.uleb128 0xd
 467 0175 6D7000   		.ascii	"mp\000"
 468 0178 01       		.byte	0x1
 469 0179 A4       		.byte	0xa4
 470 017a 35010000 		.4byte	0x135
 471 017e 10       		.uleb128 0x10
 472 017f 6F010000 		.4byte	.LASF20
 473 0183 01       		.byte	0x1
 474 0184 A4       		.byte	0xa4
 475 0185 88000000 		.4byte	0x88
 476 0189 00       		.byte	0
 477 018a 12       		.uleb128 0x12
 478 018b 7F020000 		.4byte	.LASF25
 479 018f 01       		.byte	0x1
 480 0190 37       		.byte	0x37
 481 0191 00000000 		.4byte	.LFB7
 482 0195 0A000000 		.4byte	.LFE7-.LFB7
 483 0199 01       		.uleb128 0x1
 484 019a 9C       		.byte	0x9c
 485 019b C6010000 		.4byte	0x1c6
 486 019f 13       		.uleb128 0x13
 487 01a0 6D7000   		.ascii	"mp\000"
 488 01a3 01       		.byte	0x1
 489 01a4 37       		.byte	0x37
 490 01a5 35010000 		.4byte	0x135
 491 01a9 01       		.uleb128 0x1
 492 01aa 50       		.byte	0x50
 493 01ab 14       		.uleb128 0x14
 494 01ac 0C010000 		.4byte	.LASF23
 495 01b0 01       		.byte	0x1
 496 01b1 37       		.byte	0x37
 497 01b2 2C000000 		.4byte	0x2c
 498 01b6 01       		.uleb128 0x1
 499 01b7 51       		.byte	0x51
 500 01b8 14       		.uleb128 0x14
 501 01b9 36010000 		.4byte	.LASF24
 502 01bd 01       		.byte	0x1
 503 01be 37       		.byte	0x37
 504 01bf 91000000 		.4byte	0x91
 505 01c3 01       		.uleb128 0x1
 506 01c4 52       		.byte	0x52
 507 01c5 00       		.byte	0
 508 01c6 12       		.uleb128 0x12
 509 01c7 F0000000 		.4byte	.LASF26
 510 01cb 01       		.byte	0x1
ARM GAS  /var/folders/qh/xwg3v3kj02qbxczjpdb8lzfr0000gn/T//ccfaZdch.s 			page 10


 511 01cc 4D       		.byte	0x4d
 512 01cd 00000000 		.4byte	.LFB8
 513 01d1 18000000 		.4byte	.LFE8-.LFB8
 514 01d5 01       		.uleb128 0x1
 515 01d6 9C       		.byte	0x9c
 516 01d7 59020000 		.4byte	0x259
 517 01db 13       		.uleb128 0x13
 518 01dc 6D7000   		.ascii	"mp\000"
 519 01df 01       		.byte	0x1
 520 01e0 4D       		.byte	0x4d
 521 01e1 35010000 		.4byte	0x135
 522 01e5 01       		.uleb128 0x1
 523 01e6 50       		.byte	0x50
 524 01e7 15       		.uleb128 0x15
 525 01e8 7000     		.ascii	"p\000"
 526 01ea 01       		.byte	0x1
 527 01eb 4D       		.byte	0x4d
 528 01ec 88000000 		.4byte	0x88
 529 01f0 00000000 		.4byte	.LLST0
 530 01f4 15       		.uleb128 0x15
 531 01f5 6E00     		.ascii	"n\000"
 532 01f7 01       		.byte	0x1
 533 01f8 4D       		.byte	0x4d
 534 01f9 2C000000 		.4byte	0x2c
 535 01fd 1E000000 		.4byte	.LLST1
 536 0201 16       		.uleb128 0x16
 537 0202 68010000 		.4byte	0x168
 538 0206 02000000 		.4byte	.LBB10
 539 020a 0A000000 		.4byte	.LBE10-.LBB10
 540 020e 01       		.byte	0x1
 541 020f 52       		.byte	0x52
 542 0210 17       		.uleb128 0x17
 543 0211 7E010000 		.4byte	0x17e
 544 0215 49000000 		.4byte	.LLST2
 545 0219 17       		.uleb128 0x17
 546 021a 74010000 		.4byte	0x174
 547 021e 5C000000 		.4byte	.LLST3
 548 0222 16       		.uleb128 0x16
 549 0223 3B010000 		.4byte	0x13b
 550 0227 04000000 		.4byte	.LBB12
 551 022b 06000000 		.4byte	.LBE12-.LBB12
 552 022f 01       		.byte	0x1
 553 0230 A7       		.byte	0xa7
 554 0231 17       		.uleb128 0x17
 555 0232 51010000 		.4byte	0x151
 556 0236 6F000000 		.4byte	.LLST4
 557 023a 17       		.uleb128 0x17
 558 023b 47010000 		.4byte	0x147
 559 023f 82000000 		.4byte	.LLST5
 560 0243 18       		.uleb128 0x18
 561 0244 04000000 		.4byte	.LBB13
 562 0248 06000000 		.4byte	.LBE13-.LBB13
 563 024c 19       		.uleb128 0x19
 564 024d 5C010000 		.4byte	0x15c
 565 0251 6F000000 		.4byte	.LLST4
 566 0255 00       		.byte	0
 567 0256 00       		.byte	0
ARM GAS  /var/folders/qh/xwg3v3kj02qbxczjpdb8lzfr0000gn/T//ccfaZdch.s 			page 11


 568 0257 00       		.byte	0
 569 0258 00       		.byte	0
 570 0259 1A       		.uleb128 0x1a
 571 025a 0F010000 		.4byte	0x10f
 572 025e 00000000 		.4byte	.LFB9
 573 0262 1C000000 		.4byte	.LFE9-.LFB9
 574 0266 01       		.uleb128 0x1
 575 0267 9C       		.byte	0x9c
 576 0268 7F020000 		.4byte	0x27f
 577 026c 17       		.uleb128 0x17
 578 026d 1F010000 		.4byte	0x11f
 579 0271 95000000 		.4byte	.LLST7
 580 0275 19       		.uleb128 0x19
 581 0276 29010000 		.4byte	0x129
 582 027a DA000000 		.4byte	.LLST8
 583 027e 00       		.byte	0
 584 027f 1B       		.uleb128 0x1b
 585 0280 2F020000 		.4byte	.LASF32
 586 0284 01       		.byte	0x1
 587 0285 79       		.byte	0x79
 588 0286 88000000 		.4byte	0x88
 589 028a 00000000 		.4byte	.LFB10
 590 028e 20000000 		.4byte	.LFE10-.LFB10
 591 0292 01       		.uleb128 0x1
 592 0293 9C       		.byte	0x9c
 593 0294 DC020000 		.4byte	0x2dc
 594 0298 15       		.uleb128 0x15
 595 0299 6D7000   		.ascii	"mp\000"
 596 029c 01       		.byte	0x1
 597 029d 79       		.byte	0x79
 598 029e 35010000 		.4byte	0x135
 599 02a2 04010000 		.4byte	.LLST9
 600 02a6 1C       		.uleb128 0x1c
 601 02a7 6F010000 		.4byte	.LASF20
 602 02ab 01       		.byte	0x1
 603 02ac 7A       		.byte	0x7a
 604 02ad 88000000 		.4byte	0x88
 605 02b1 01       		.uleb128 0x1
 606 02b2 50       		.byte	0x50
 607 02b3 1D       		.uleb128 0x1d
 608 02b4 0F010000 		.4byte	0x10f
 609 02b8 06000000 		.4byte	.LBB14
 610 02bc 00000000 		.4byte	.Ldebug_ranges0+0
 611 02c0 01       		.byte	0x1
 612 02c1 7D       		.byte	0x7d
 613 02c2 17       		.uleb128 0x17
 614 02c3 1F010000 		.4byte	0x11f
 615 02c7 49010000 		.4byte	.LLST10
 616 02cb 1E       		.uleb128 0x1e
 617 02cc 00000000 		.4byte	.Ldebug_ranges0+0
 618 02d0 19       		.uleb128 0x19
 619 02d1 29010000 		.4byte	0x129
 620 02d5 8E010000 		.4byte	.LLST11
 621 02d9 00       		.byte	0
 622 02da 00       		.byte	0
 623 02db 00       		.byte	0
 624 02dc 1F       		.uleb128 0x1f
ARM GAS  /var/folders/qh/xwg3v3kj02qbxczjpdb8lzfr0000gn/T//ccfaZdch.s 			page 12


 625 02dd 3B010000 		.4byte	0x13b
 626 02e1 00000000 		.4byte	.LFB11
 627 02e5 08000000 		.4byte	.LFE11-.LFB11
 628 02e9 01       		.uleb128 0x1
 629 02ea 9C       		.byte	0x9c
 630 02eb 05030000 		.4byte	0x305
 631 02ef 20       		.uleb128 0x20
 632 02f0 47010000 		.4byte	0x147
 633 02f4 01       		.uleb128 0x1
 634 02f5 50       		.byte	0x50
 635 02f6 20       		.uleb128 0x20
 636 02f7 51010000 		.4byte	0x151
 637 02fb 01       		.uleb128 0x1
 638 02fc 51       		.byte	0x51
 639 02fd 21       		.uleb128 0x21
 640 02fe 5C010000 		.4byte	0x15c
 641 0302 01       		.uleb128 0x1
 642 0303 51       		.byte	0x51
 643 0304 00       		.byte	0
 644 0305 22       		.uleb128 0x22
 645 0306 68010000 		.4byte	0x168
 646 030a 00000000 		.4byte	.LFB12
 647 030e 0C000000 		.4byte	.LFE12-.LFB12
 648 0312 01       		.uleb128 0x1
 649 0313 9C       		.byte	0x9c
 650 0314 20       		.uleb128 0x20
 651 0315 74010000 		.4byte	0x174
 652 0319 01       		.uleb128 0x1
 653 031a 50       		.byte	0x50
 654 031b 20       		.uleb128 0x20
 655 031c 7E010000 		.4byte	0x17e
 656 0320 01       		.uleb128 0x1
 657 0321 51       		.byte	0x51
 658 0322 16       		.uleb128 0x16
 659 0323 3B010000 		.4byte	0x13b
 660 0327 02000000 		.4byte	.LBB18
 661 032b 06000000 		.4byte	.LBE18-.LBB18
 662 032f 01       		.byte	0x1
 663 0330 A7       		.byte	0xa7
 664 0331 20       		.uleb128 0x20
 665 0332 51010000 		.4byte	0x151
 666 0336 01       		.uleb128 0x1
 667 0337 51       		.byte	0x51
 668 0338 20       		.uleb128 0x20
 669 0339 47010000 		.4byte	0x147
 670 033d 01       		.uleb128 0x1
 671 033e 50       		.byte	0x50
 672 033f 18       		.uleb128 0x18
 673 0340 02000000 		.4byte	.LBB19
 674 0344 06000000 		.4byte	.LBE19-.LBB19
 675 0348 21       		.uleb128 0x21
 676 0349 5C010000 		.4byte	0x15c
 677 034d 01       		.uleb128 0x1
 678 034e 51       		.byte	0x51
 679 034f 00       		.byte	0
 680 0350 00       		.byte	0
 681 0351 00       		.byte	0
ARM GAS  /var/folders/qh/xwg3v3kj02qbxczjpdb8lzfr0000gn/T//ccfaZdch.s 			page 13


 682 0352 00       		.byte	0
 683              		.section	.debug_abbrev,"",%progbits
 684              	.Ldebug_abbrev0:
 685 0000 01       		.uleb128 0x1
 686 0001 11       		.uleb128 0x11
 687 0002 01       		.byte	0x1
 688 0003 25       		.uleb128 0x25
 689 0004 0E       		.uleb128 0xe
 690 0005 13       		.uleb128 0x13
 691 0006 0B       		.uleb128 0xb
 692 0007 03       		.uleb128 0x3
 693 0008 0E       		.uleb128 0xe
 694 0009 1B       		.uleb128 0x1b
 695 000a 0E       		.uleb128 0xe
 696 000b 55       		.uleb128 0x55
 697 000c 17       		.uleb128 0x17
 698 000d 11       		.uleb128 0x11
 699 000e 01       		.uleb128 0x1
 700 000f 10       		.uleb128 0x10
 701 0010 17       		.uleb128 0x17
 702 0011 00       		.byte	0
 703 0012 00       		.byte	0
 704 0013 02       		.uleb128 0x2
 705 0014 24       		.uleb128 0x24
 706 0015 00       		.byte	0
 707 0016 0B       		.uleb128 0xb
 708 0017 0B       		.uleb128 0xb
 709 0018 3E       		.uleb128 0x3e
 710 0019 0B       		.uleb128 0xb
 711 001a 03       		.uleb128 0x3
 712 001b 08       		.uleb128 0x8
 713 001c 00       		.byte	0
 714 001d 00       		.byte	0
 715 001e 03       		.uleb128 0x3
 716 001f 16       		.uleb128 0x16
 717 0020 00       		.byte	0
 718 0021 03       		.uleb128 0x3
 719 0022 0E       		.uleb128 0xe
 720 0023 3A       		.uleb128 0x3a
 721 0024 0B       		.uleb128 0xb
 722 0025 3B       		.uleb128 0x3b
 723 0026 0B       		.uleb128 0xb
 724 0027 49       		.uleb128 0x49
 725 0028 13       		.uleb128 0x13
 726 0029 00       		.byte	0
 727 002a 00       		.byte	0
 728 002b 04       		.uleb128 0x4
 729 002c 24       		.uleb128 0x24
 730 002d 00       		.byte	0
 731 002e 0B       		.uleb128 0xb
 732 002f 0B       		.uleb128 0xb
 733 0030 3E       		.uleb128 0x3e
 734 0031 0B       		.uleb128 0xb
 735 0032 03       		.uleb128 0x3
 736 0033 0E       		.uleb128 0xe
 737 0034 00       		.byte	0
 738 0035 00       		.byte	0
ARM GAS  /var/folders/qh/xwg3v3kj02qbxczjpdb8lzfr0000gn/T//ccfaZdch.s 			page 14


 739 0036 05       		.uleb128 0x5
 740 0037 0F       		.uleb128 0xf
 741 0038 00       		.byte	0
 742 0039 0B       		.uleb128 0xb
 743 003a 0B       		.uleb128 0xb
 744 003b 00       		.byte	0
 745 003c 00       		.byte	0
 746 003d 06       		.uleb128 0x6
 747 003e 0F       		.uleb128 0xf
 748 003f 00       		.byte	0
 749 0040 0B       		.uleb128 0xb
 750 0041 0B       		.uleb128 0xb
 751 0042 49       		.uleb128 0x49
 752 0043 13       		.uleb128 0x13
 753 0044 00       		.byte	0
 754 0045 00       		.byte	0
 755 0046 07       		.uleb128 0x7
 756 0047 15       		.uleb128 0x15
 757 0048 01       		.byte	0x1
 758 0049 27       		.uleb128 0x27
 759 004a 19       		.uleb128 0x19
 760 004b 49       		.uleb128 0x49
 761 004c 13       		.uleb128 0x13
 762 004d 01       		.uleb128 0x1
 763 004e 13       		.uleb128 0x13
 764 004f 00       		.byte	0
 765 0050 00       		.byte	0
 766 0051 08       		.uleb128 0x8
 767 0052 05       		.uleb128 0x5
 768 0053 00       		.byte	0
 769 0054 49       		.uleb128 0x49
 770 0055 13       		.uleb128 0x13
 771 0056 00       		.byte	0
 772 0057 00       		.byte	0
 773 0058 09       		.uleb128 0x9
 774 0059 13       		.uleb128 0x13
 775 005a 01       		.byte	0x1
 776 005b 03       		.uleb128 0x3
 777 005c 0E       		.uleb128 0xe
 778 005d 0B       		.uleb128 0xb
 779 005e 0B       		.uleb128 0xb
 780 005f 3A       		.uleb128 0x3a
 781 0060 0B       		.uleb128 0xb
 782 0061 3B       		.uleb128 0x3b
 783 0062 0B       		.uleb128 0xb
 784 0063 01       		.uleb128 0x1
 785 0064 13       		.uleb128 0x13
 786 0065 00       		.byte	0
 787 0066 00       		.byte	0
 788 0067 0A       		.uleb128 0xa
 789 0068 0D       		.uleb128 0xd
 790 0069 00       		.byte	0
 791 006a 03       		.uleb128 0x3
 792 006b 0E       		.uleb128 0xe
 793 006c 3A       		.uleb128 0x3a
 794 006d 0B       		.uleb128 0xb
 795 006e 3B       		.uleb128 0x3b
ARM GAS  /var/folders/qh/xwg3v3kj02qbxczjpdb8lzfr0000gn/T//ccfaZdch.s 			page 15


 796 006f 0B       		.uleb128 0xb
 797 0070 49       		.uleb128 0x49
 798 0071 13       		.uleb128 0x13
 799 0072 38       		.uleb128 0x38
 800 0073 0B       		.uleb128 0xb
 801 0074 00       		.byte	0
 802 0075 00       		.byte	0
 803 0076 0B       		.uleb128 0xb
 804 0077 13       		.uleb128 0x13
 805 0078 01       		.byte	0x1
 806 0079 0B       		.uleb128 0xb
 807 007a 0B       		.uleb128 0xb
 808 007b 3A       		.uleb128 0x3a
 809 007c 0B       		.uleb128 0xb
 810 007d 3B       		.uleb128 0x3b
 811 007e 0B       		.uleb128 0xb
 812 007f 01       		.uleb128 0x1
 813 0080 13       		.uleb128 0x13
 814 0081 00       		.byte	0
 815 0082 00       		.byte	0
 816 0083 0C       		.uleb128 0xc
 817 0084 2E       		.uleb128 0x2e
 818 0085 01       		.byte	0x1
 819 0086 3F       		.uleb128 0x3f
 820 0087 19       		.uleb128 0x19
 821 0088 03       		.uleb128 0x3
 822 0089 0E       		.uleb128 0xe
 823 008a 3A       		.uleb128 0x3a
 824 008b 0B       		.uleb128 0xb
 825 008c 3B       		.uleb128 0x3b
 826 008d 0B       		.uleb128 0xb
 827 008e 27       		.uleb128 0x27
 828 008f 19       		.uleb128 0x19
 829 0090 49       		.uleb128 0x49
 830 0091 13       		.uleb128 0x13
 831 0092 20       		.uleb128 0x20
 832 0093 0B       		.uleb128 0xb
 833 0094 01       		.uleb128 0x1
 834 0095 13       		.uleb128 0x13
 835 0096 00       		.byte	0
 836 0097 00       		.byte	0
 837 0098 0D       		.uleb128 0xd
 838 0099 05       		.uleb128 0x5
 839 009a 00       		.byte	0
 840 009b 03       		.uleb128 0x3
 841 009c 08       		.uleb128 0x8
 842 009d 3A       		.uleb128 0x3a
 843 009e 0B       		.uleb128 0xb
 844 009f 3B       		.uleb128 0x3b
 845 00a0 0B       		.uleb128 0xb
 846 00a1 49       		.uleb128 0x49
 847 00a2 13       		.uleb128 0x13
 848 00a3 00       		.byte	0
 849 00a4 00       		.byte	0
 850 00a5 0E       		.uleb128 0xe
 851 00a6 34       		.uleb128 0x34
 852 00a7 00       		.byte	0
ARM GAS  /var/folders/qh/xwg3v3kj02qbxczjpdb8lzfr0000gn/T//ccfaZdch.s 			page 16


 853 00a8 03       		.uleb128 0x3
 854 00a9 0E       		.uleb128 0xe
 855 00aa 3A       		.uleb128 0x3a
 856 00ab 0B       		.uleb128 0xb
 857 00ac 3B       		.uleb128 0x3b
 858 00ad 0B       		.uleb128 0xb
 859 00ae 49       		.uleb128 0x49
 860 00af 13       		.uleb128 0x13
 861 00b0 00       		.byte	0
 862 00b1 00       		.byte	0
 863 00b2 0F       		.uleb128 0xf
 864 00b3 2E       		.uleb128 0x2e
 865 00b4 01       		.byte	0x1
 866 00b5 3F       		.uleb128 0x3f
 867 00b6 19       		.uleb128 0x19
 868 00b7 03       		.uleb128 0x3
 869 00b8 0E       		.uleb128 0xe
 870 00b9 3A       		.uleb128 0x3a
 871 00ba 0B       		.uleb128 0xb
 872 00bb 3B       		.uleb128 0x3b
 873 00bc 0B       		.uleb128 0xb
 874 00bd 27       		.uleb128 0x27
 875 00be 19       		.uleb128 0x19
 876 00bf 20       		.uleb128 0x20
 877 00c0 0B       		.uleb128 0xb
 878 00c1 01       		.uleb128 0x1
 879 00c2 13       		.uleb128 0x13
 880 00c3 00       		.byte	0
 881 00c4 00       		.byte	0
 882 00c5 10       		.uleb128 0x10
 883 00c6 05       		.uleb128 0x5
 884 00c7 00       		.byte	0
 885 00c8 03       		.uleb128 0x3
 886 00c9 0E       		.uleb128 0xe
 887 00ca 3A       		.uleb128 0x3a
 888 00cb 0B       		.uleb128 0xb
 889 00cc 3B       		.uleb128 0x3b
 890 00cd 0B       		.uleb128 0xb
 891 00ce 49       		.uleb128 0x49
 892 00cf 13       		.uleb128 0x13
 893 00d0 00       		.byte	0
 894 00d1 00       		.byte	0
 895 00d2 11       		.uleb128 0x11
 896 00d3 34       		.uleb128 0x34
 897 00d4 00       		.byte	0
 898 00d5 03       		.uleb128 0x3
 899 00d6 08       		.uleb128 0x8
 900 00d7 3A       		.uleb128 0x3a
 901 00d8 0B       		.uleb128 0xb
 902 00d9 3B       		.uleb128 0x3b
 903 00da 0B       		.uleb128 0xb
 904 00db 49       		.uleb128 0x49
 905 00dc 13       		.uleb128 0x13
 906 00dd 00       		.byte	0
 907 00de 00       		.byte	0
 908 00df 12       		.uleb128 0x12
 909 00e0 2E       		.uleb128 0x2e
ARM GAS  /var/folders/qh/xwg3v3kj02qbxczjpdb8lzfr0000gn/T//ccfaZdch.s 			page 17


 910 00e1 01       		.byte	0x1
 911 00e2 3F       		.uleb128 0x3f
 912 00e3 19       		.uleb128 0x19
 913 00e4 03       		.uleb128 0x3
 914 00e5 0E       		.uleb128 0xe
 915 00e6 3A       		.uleb128 0x3a
 916 00e7 0B       		.uleb128 0xb
 917 00e8 3B       		.uleb128 0x3b
 918 00e9 0B       		.uleb128 0xb
 919 00ea 27       		.uleb128 0x27
 920 00eb 19       		.uleb128 0x19
 921 00ec 11       		.uleb128 0x11
 922 00ed 01       		.uleb128 0x1
 923 00ee 12       		.uleb128 0x12
 924 00ef 06       		.uleb128 0x6
 925 00f0 40       		.uleb128 0x40
 926 00f1 18       		.uleb128 0x18
 927 00f2 9742     		.uleb128 0x2117
 928 00f4 19       		.uleb128 0x19
 929 00f5 01       		.uleb128 0x1
 930 00f6 13       		.uleb128 0x13
 931 00f7 00       		.byte	0
 932 00f8 00       		.byte	0
 933 00f9 13       		.uleb128 0x13
 934 00fa 05       		.uleb128 0x5
 935 00fb 00       		.byte	0
 936 00fc 03       		.uleb128 0x3
 937 00fd 08       		.uleb128 0x8
 938 00fe 3A       		.uleb128 0x3a
 939 00ff 0B       		.uleb128 0xb
 940 0100 3B       		.uleb128 0x3b
 941 0101 0B       		.uleb128 0xb
 942 0102 49       		.uleb128 0x49
 943 0103 13       		.uleb128 0x13
 944 0104 02       		.uleb128 0x2
 945 0105 18       		.uleb128 0x18
 946 0106 00       		.byte	0
 947 0107 00       		.byte	0
 948 0108 14       		.uleb128 0x14
 949 0109 05       		.uleb128 0x5
 950 010a 00       		.byte	0
 951 010b 03       		.uleb128 0x3
 952 010c 0E       		.uleb128 0xe
 953 010d 3A       		.uleb128 0x3a
 954 010e 0B       		.uleb128 0xb
 955 010f 3B       		.uleb128 0x3b
 956 0110 0B       		.uleb128 0xb
 957 0111 49       		.uleb128 0x49
 958 0112 13       		.uleb128 0x13
 959 0113 02       		.uleb128 0x2
 960 0114 18       		.uleb128 0x18
 961 0115 00       		.byte	0
 962 0116 00       		.byte	0
 963 0117 15       		.uleb128 0x15
 964 0118 05       		.uleb128 0x5
 965 0119 00       		.byte	0
 966 011a 03       		.uleb128 0x3
ARM GAS  /var/folders/qh/xwg3v3kj02qbxczjpdb8lzfr0000gn/T//ccfaZdch.s 			page 18


 967 011b 08       		.uleb128 0x8
 968 011c 3A       		.uleb128 0x3a
 969 011d 0B       		.uleb128 0xb
 970 011e 3B       		.uleb128 0x3b
 971 011f 0B       		.uleb128 0xb
 972 0120 49       		.uleb128 0x49
 973 0121 13       		.uleb128 0x13
 974 0122 02       		.uleb128 0x2
 975 0123 17       		.uleb128 0x17
 976 0124 00       		.byte	0
 977 0125 00       		.byte	0
 978 0126 16       		.uleb128 0x16
 979 0127 1D       		.uleb128 0x1d
 980 0128 01       		.byte	0x1
 981 0129 31       		.uleb128 0x31
 982 012a 13       		.uleb128 0x13
 983 012b 11       		.uleb128 0x11
 984 012c 01       		.uleb128 0x1
 985 012d 12       		.uleb128 0x12
 986 012e 06       		.uleb128 0x6
 987 012f 58       		.uleb128 0x58
 988 0130 0B       		.uleb128 0xb
 989 0131 59       		.uleb128 0x59
 990 0132 0B       		.uleb128 0xb
 991 0133 00       		.byte	0
 992 0134 00       		.byte	0
 993 0135 17       		.uleb128 0x17
 994 0136 05       		.uleb128 0x5
 995 0137 00       		.byte	0
 996 0138 31       		.uleb128 0x31
 997 0139 13       		.uleb128 0x13
 998 013a 02       		.uleb128 0x2
 999 013b 17       		.uleb128 0x17
 1000 013c 00       		.byte	0
 1001 013d 00       		.byte	0
 1002 013e 18       		.uleb128 0x18
 1003 013f 0B       		.uleb128 0xb
 1004 0140 01       		.byte	0x1
 1005 0141 11       		.uleb128 0x11
 1006 0142 01       		.uleb128 0x1
 1007 0143 12       		.uleb128 0x12
 1008 0144 06       		.uleb128 0x6
 1009 0145 00       		.byte	0
 1010 0146 00       		.byte	0
 1011 0147 19       		.uleb128 0x19
 1012 0148 34       		.uleb128 0x34
 1013 0149 00       		.byte	0
 1014 014a 31       		.uleb128 0x31
 1015 014b 13       		.uleb128 0x13
 1016 014c 02       		.uleb128 0x2
 1017 014d 17       		.uleb128 0x17
 1018 014e 00       		.byte	0
 1019 014f 00       		.byte	0
 1020 0150 1A       		.uleb128 0x1a
 1021 0151 2E       		.uleb128 0x2e
 1022 0152 01       		.byte	0x1
 1023 0153 31       		.uleb128 0x31
ARM GAS  /var/folders/qh/xwg3v3kj02qbxczjpdb8lzfr0000gn/T//ccfaZdch.s 			page 19


 1024 0154 13       		.uleb128 0x13
 1025 0155 11       		.uleb128 0x11
 1026 0156 01       		.uleb128 0x1
 1027 0157 12       		.uleb128 0x12
 1028 0158 06       		.uleb128 0x6
 1029 0159 40       		.uleb128 0x40
 1030 015a 18       		.uleb128 0x18
 1031 015b 9642     		.uleb128 0x2116
 1032 015d 19       		.uleb128 0x19
 1033 015e 01       		.uleb128 0x1
 1034 015f 13       		.uleb128 0x13
 1035 0160 00       		.byte	0
 1036 0161 00       		.byte	0
 1037 0162 1B       		.uleb128 0x1b
 1038 0163 2E       		.uleb128 0x2e
 1039 0164 01       		.byte	0x1
 1040 0165 3F       		.uleb128 0x3f
 1041 0166 19       		.uleb128 0x19
 1042 0167 03       		.uleb128 0x3
 1043 0168 0E       		.uleb128 0xe
 1044 0169 3A       		.uleb128 0x3a
 1045 016a 0B       		.uleb128 0xb
 1046 016b 3B       		.uleb128 0x3b
 1047 016c 0B       		.uleb128 0xb
 1048 016d 27       		.uleb128 0x27
 1049 016e 19       		.uleb128 0x19
 1050 016f 49       		.uleb128 0x49
 1051 0170 13       		.uleb128 0x13
 1052 0171 11       		.uleb128 0x11
 1053 0172 01       		.uleb128 0x1
 1054 0173 12       		.uleb128 0x12
 1055 0174 06       		.uleb128 0x6
 1056 0175 40       		.uleb128 0x40
 1057 0176 18       		.uleb128 0x18
 1058 0177 9642     		.uleb128 0x2116
 1059 0179 19       		.uleb128 0x19
 1060 017a 01       		.uleb128 0x1
 1061 017b 13       		.uleb128 0x13
 1062 017c 00       		.byte	0
 1063 017d 00       		.byte	0
 1064 017e 1C       		.uleb128 0x1c
 1065 017f 34       		.uleb128 0x34
 1066 0180 00       		.byte	0
 1067 0181 03       		.uleb128 0x3
 1068 0182 0E       		.uleb128 0xe
 1069 0183 3A       		.uleb128 0x3a
 1070 0184 0B       		.uleb128 0xb
 1071 0185 3B       		.uleb128 0x3b
 1072 0186 0B       		.uleb128 0xb
 1073 0187 49       		.uleb128 0x49
 1074 0188 13       		.uleb128 0x13
 1075 0189 02       		.uleb128 0x2
 1076 018a 18       		.uleb128 0x18
 1077 018b 00       		.byte	0
 1078 018c 00       		.byte	0
 1079 018d 1D       		.uleb128 0x1d
 1080 018e 1D       		.uleb128 0x1d
ARM GAS  /var/folders/qh/xwg3v3kj02qbxczjpdb8lzfr0000gn/T//ccfaZdch.s 			page 20


 1081 018f 01       		.byte	0x1
 1082 0190 31       		.uleb128 0x31
 1083 0191 13       		.uleb128 0x13
 1084 0192 52       		.uleb128 0x52
 1085 0193 01       		.uleb128 0x1
 1086 0194 55       		.uleb128 0x55
 1087 0195 17       		.uleb128 0x17
 1088 0196 58       		.uleb128 0x58
 1089 0197 0B       		.uleb128 0xb
 1090 0198 59       		.uleb128 0x59
 1091 0199 0B       		.uleb128 0xb
 1092 019a 00       		.byte	0
 1093 019b 00       		.byte	0
 1094 019c 1E       		.uleb128 0x1e
 1095 019d 0B       		.uleb128 0xb
 1096 019e 01       		.byte	0x1
 1097 019f 55       		.uleb128 0x55
 1098 01a0 17       		.uleb128 0x17
 1099 01a1 00       		.byte	0
 1100 01a2 00       		.byte	0
 1101 01a3 1F       		.uleb128 0x1f
 1102 01a4 2E       		.uleb128 0x2e
 1103 01a5 01       		.byte	0x1
 1104 01a6 31       		.uleb128 0x31
 1105 01a7 13       		.uleb128 0x13
 1106 01a8 11       		.uleb128 0x11
 1107 01a9 01       		.uleb128 0x1
 1108 01aa 12       		.uleb128 0x12
 1109 01ab 06       		.uleb128 0x6
 1110 01ac 40       		.uleb128 0x40
 1111 01ad 18       		.uleb128 0x18
 1112 01ae 9742     		.uleb128 0x2117
 1113 01b0 19       		.uleb128 0x19
 1114 01b1 01       		.uleb128 0x1
 1115 01b2 13       		.uleb128 0x13
 1116 01b3 00       		.byte	0
 1117 01b4 00       		.byte	0
 1118 01b5 20       		.uleb128 0x20
 1119 01b6 05       		.uleb128 0x5
 1120 01b7 00       		.byte	0
 1121 01b8 31       		.uleb128 0x31
 1122 01b9 13       		.uleb128 0x13
 1123 01ba 02       		.uleb128 0x2
 1124 01bb 18       		.uleb128 0x18
 1125 01bc 00       		.byte	0
 1126 01bd 00       		.byte	0
 1127 01be 21       		.uleb128 0x21
 1128 01bf 34       		.uleb128 0x34
 1129 01c0 00       		.byte	0
 1130 01c1 31       		.uleb128 0x31
 1131 01c2 13       		.uleb128 0x13
 1132 01c3 02       		.uleb128 0x2
 1133 01c4 18       		.uleb128 0x18
 1134 01c5 00       		.byte	0
 1135 01c6 00       		.byte	0
 1136 01c7 22       		.uleb128 0x22
 1137 01c8 2E       		.uleb128 0x2e
ARM GAS  /var/folders/qh/xwg3v3kj02qbxczjpdb8lzfr0000gn/T//ccfaZdch.s 			page 21


 1138 01c9 01       		.byte	0x1
 1139 01ca 31       		.uleb128 0x31
 1140 01cb 13       		.uleb128 0x13
 1141 01cc 11       		.uleb128 0x11
 1142 01cd 01       		.uleb128 0x1
 1143 01ce 12       		.uleb128 0x12
 1144 01cf 06       		.uleb128 0x6
 1145 01d0 40       		.uleb128 0x40
 1146 01d1 18       		.uleb128 0x18
 1147 01d2 9742     		.uleb128 0x2117
 1148 01d4 19       		.uleb128 0x19
 1149 01d5 00       		.byte	0
 1150 01d6 00       		.byte	0
 1151 01d7 00       		.byte	0
 1152              		.section	.debug_loc,"",%progbits
 1153              	.Ldebug_loc0:
 1154              	.LLST0:
 1155 0000 00000000 		.4byte	.LVL1
 1156 0004 12000000 		.4byte	.LVL5
 1157 0008 0100     		.2byte	0x1
 1158 000a 51       		.byte	0x51
 1159 000b 12000000 		.4byte	.LVL5
 1160 000f 18000000 		.4byte	.LFE8
 1161 0013 0100     		.2byte	0x1
 1162 0015 51       		.byte	0x51
 1163 0016 00000000 		.4byte	0
 1164 001a 00000000 		.4byte	0
 1165              	.LLST1:
 1166 001e 00000000 		.4byte	.LVL1
 1167 0022 10000000 		.4byte	.LVL4
 1168 0026 0100     		.2byte	0x1
 1169 0028 52       		.byte	0x52
 1170 0029 10000000 		.4byte	.LVL4
 1171 002d 12000000 		.4byte	.LVL5
 1172 0031 0300     		.2byte	0x3
 1173 0033 72       		.byte	0x72
 1174 0034 01       		.sleb128 1
 1175 0035 9F       		.byte	0x9f
 1176 0036 12000000 		.4byte	.LVL5
 1177 003a 18000000 		.4byte	.LFE8
 1178 003e 0100     		.2byte	0x1
 1179 0040 52       		.byte	0x52
 1180 0041 00000000 		.4byte	0
 1181 0045 00000000 		.4byte	0
 1182              	.LLST2:
 1183 0049 02000000 		.4byte	.LVL2
 1184 004d 12000000 		.4byte	.LVL5
 1185 0051 0100     		.2byte	0x1
 1186 0053 51       		.byte	0x51
 1187 0054 00000000 		.4byte	0
 1188 0058 00000000 		.4byte	0
 1189              	.LLST3:
 1190 005c 02000000 		.4byte	.LVL2
 1191 0060 12000000 		.4byte	.LVL5
 1192 0064 0100     		.2byte	0x1
 1193 0066 50       		.byte	0x50
 1194 0067 00000000 		.4byte	0
ARM GAS  /var/folders/qh/xwg3v3kj02qbxczjpdb8lzfr0000gn/T//ccfaZdch.s 			page 22


 1195 006b 00000000 		.4byte	0
 1196              	.LLST4:
 1197 006f 04000000 		.4byte	.LVL3
 1198 0073 12000000 		.4byte	.LVL5
 1199 0077 0100     		.2byte	0x1
 1200 0079 51       		.byte	0x51
 1201 007a 00000000 		.4byte	0
 1202 007e 00000000 		.4byte	0
 1203              	.LLST5:
 1204 0082 04000000 		.4byte	.LVL3
 1205 0086 12000000 		.4byte	.LVL5
 1206 008a 0100     		.2byte	0x1
 1207 008c 50       		.byte	0x50
 1208 008d 00000000 		.4byte	0
 1209 0091 00000000 		.4byte	0
 1210              	.LLST7:
 1211 0095 00000000 		.4byte	.LVL6
 1212 0099 06000000 		.4byte	.LVL7
 1213 009d 0100     		.2byte	0x1
 1214 009f 50       		.byte	0x50
 1215 00a0 06000000 		.4byte	.LVL7
 1216 00a4 0E000000 		.4byte	.LVL8
 1217 00a8 0100     		.2byte	0x1
 1218 00aa 53       		.byte	0x53
 1219 00ab 0E000000 		.4byte	.LVL8
 1220 00af 10000000 		.4byte	.LVL9
 1221 00b3 0400     		.2byte	0x4
 1222 00b5 F3       		.byte	0xf3
 1223 00b6 01       		.uleb128 0x1
 1224 00b7 50       		.byte	0x50
 1225 00b8 9F       		.byte	0x9f
 1226 00b9 10000000 		.4byte	.LVL9
 1227 00bd 19000000 		.4byte	.LVL11-1
 1228 00c1 0100     		.2byte	0x1
 1229 00c3 53       		.byte	0x53
 1230 00c4 19000000 		.4byte	.LVL11-1
 1231 00c8 1C000000 		.4byte	.LFE9
 1232 00cc 0400     		.2byte	0x4
 1233 00ce F3       		.byte	0xf3
 1234 00cf 01       		.uleb128 0x1
 1235 00d0 50       		.byte	0x50
 1236 00d1 9F       		.byte	0x9f
 1237 00d2 00000000 		.4byte	0
 1238 00d6 00000000 		.4byte	0
 1239              	.LLST8:
 1240 00da 06000000 		.4byte	.LVL7
 1241 00de 18000000 		.4byte	.LVL10
 1242 00e2 0100     		.2byte	0x1
 1243 00e4 50       		.byte	0x50
 1244 00e5 18000000 		.4byte	.LVL10
 1245 00e9 19000000 		.4byte	.LVL11-1
 1246 00ed 0200     		.2byte	0x2
 1247 00ef 73       		.byte	0x73
 1248 00f0 00       		.sleb128 0
 1249 00f1 1A000000 		.4byte	.LVL11
 1250 00f5 1C000000 		.4byte	.LFE9
 1251 00f9 0100     		.2byte	0x1
ARM GAS  /var/folders/qh/xwg3v3kj02qbxczjpdb8lzfr0000gn/T//ccfaZdch.s 			page 23


 1252 00fb 50       		.byte	0x50
 1253 00fc 00000000 		.4byte	0
 1254 0100 00000000 		.4byte	0
 1255              	.LLST9:
 1256 0104 00000000 		.4byte	.LVL12
 1257 0108 08000000 		.4byte	.LVL14
 1258 010c 0100     		.2byte	0x1
 1259 010e 50       		.byte	0x50
 1260 010f 08000000 		.4byte	.LVL14
 1261 0113 10000000 		.4byte	.LVL15
 1262 0117 0100     		.2byte	0x1
 1263 0119 53       		.byte	0x53
 1264 011a 10000000 		.4byte	.LVL15
 1265 011e 14000000 		.4byte	.LVL16
 1266 0122 0400     		.2byte	0x4
 1267 0124 F3       		.byte	0xf3
 1268 0125 01       		.uleb128 0x1
 1269 0126 50       		.byte	0x50
 1270 0127 9F       		.byte	0x9f
 1271 0128 14000000 		.4byte	.LVL16
 1272 012c 1D000000 		.4byte	.LVL18-1
 1273 0130 0100     		.2byte	0x1
 1274 0132 53       		.byte	0x53
 1275 0133 1D000000 		.4byte	.LVL18-1
 1276 0137 20000000 		.4byte	.LFE10
 1277 013b 0400     		.2byte	0x4
 1278 013d F3       		.byte	0xf3
 1279 013e 01       		.uleb128 0x1
 1280 013f 50       		.byte	0x50
 1281 0140 9F       		.byte	0x9f
 1282 0141 00000000 		.4byte	0
 1283 0145 00000000 		.4byte	0
 1284              	.LLST10:
 1285 0149 06000000 		.4byte	.LVL13
 1286 014d 08000000 		.4byte	.LVL14
 1287 0151 0100     		.2byte	0x1
 1288 0153 50       		.byte	0x50
 1289 0154 08000000 		.4byte	.LVL14
 1290 0158 10000000 		.4byte	.LVL15
 1291 015c 0100     		.2byte	0x1
 1292 015e 53       		.byte	0x53
 1293 015f 10000000 		.4byte	.LVL15
 1294 0163 14000000 		.4byte	.LVL16
 1295 0167 0400     		.2byte	0x4
 1296 0169 F3       		.byte	0xf3
 1297 016a 01       		.uleb128 0x1
 1298 016b 50       		.byte	0x50
 1299 016c 9F       		.byte	0x9f
 1300 016d 14000000 		.4byte	.LVL16
 1301 0171 1D000000 		.4byte	.LVL18-1
 1302 0175 0100     		.2byte	0x1
 1303 0177 53       		.byte	0x53
 1304 0178 1D000000 		.4byte	.LVL18-1
 1305 017c 20000000 		.4byte	.LFE10
 1306 0180 0400     		.2byte	0x4
 1307 0182 F3       		.byte	0xf3
 1308 0183 01       		.uleb128 0x1
ARM GAS  /var/folders/qh/xwg3v3kj02qbxczjpdb8lzfr0000gn/T//ccfaZdch.s 			page 24


 1309 0184 50       		.byte	0x50
 1310 0185 9F       		.byte	0x9f
 1311 0186 00000000 		.4byte	0
 1312 018a 00000000 		.4byte	0
 1313              	.LLST11:
 1314 018e 08000000 		.4byte	.LVL14
 1315 0192 1C000000 		.4byte	.LVL17
 1316 0196 0100     		.2byte	0x1
 1317 0198 50       		.byte	0x50
 1318 0199 1C000000 		.4byte	.LVL17
 1319 019d 1D000000 		.4byte	.LVL18-1
 1320 01a1 0200     		.2byte	0x2
 1321 01a3 73       		.byte	0x73
 1322 01a4 00       		.sleb128 0
 1323 01a5 1E000000 		.4byte	.LVL18
 1324 01a9 20000000 		.4byte	.LFE10
 1325 01ad 0100     		.2byte	0x1
 1326 01af 50       		.byte	0x50
 1327 01b0 00000000 		.4byte	0
 1328 01b4 00000000 		.4byte	0
 1329              		.section	.debug_aranges,"",%progbits
 1330 0000 44000000 		.4byte	0x44
 1331 0004 0200     		.2byte	0x2
 1332 0006 00000000 		.4byte	.Ldebug_info0
 1333 000a 04       		.byte	0x4
 1334 000b 00       		.byte	0
 1335 000c 0000     		.2byte	0
 1336 000e 0000     		.2byte	0
 1337 0010 00000000 		.4byte	.LFB7
 1338 0014 0A000000 		.4byte	.LFE7-.LFB7
 1339 0018 00000000 		.4byte	.LFB8
 1340 001c 18000000 		.4byte	.LFE8-.LFB8
 1341 0020 00000000 		.4byte	.LFB9
 1342 0024 1C000000 		.4byte	.LFE9-.LFB9
 1343 0028 00000000 		.4byte	.LFB10
 1344 002c 20000000 		.4byte	.LFE10-.LFB10
 1345 0030 00000000 		.4byte	.LFB11
 1346 0034 08000000 		.4byte	.LFE11-.LFB11
 1347 0038 00000000 		.4byte	.LFB12
 1348 003c 0C000000 		.4byte	.LFE12-.LFB12
 1349 0040 00000000 		.4byte	0
 1350 0044 00000000 		.4byte	0
 1351              		.section	.debug_ranges,"",%progbits
 1352              	.Ldebug_ranges0:
 1353 0000 06000000 		.4byte	.LBB14
 1354 0004 10000000 		.4byte	.LBE14
 1355 0008 14000000 		.4byte	.LBB17
 1356 000c 20000000 		.4byte	.LBE17
 1357 0010 00000000 		.4byte	0
 1358 0014 00000000 		.4byte	0
 1359 0018 00000000 		.4byte	.LFB7
 1360 001c 0A000000 		.4byte	.LFE7
 1361 0020 00000000 		.4byte	.LFB8
 1362 0024 18000000 		.4byte	.LFE8
 1363 0028 00000000 		.4byte	.LFB9
 1364 002c 1C000000 		.4byte	.LFE9
 1365 0030 00000000 		.4byte	.LFB10
ARM GAS  /var/folders/qh/xwg3v3kj02qbxczjpdb8lzfr0000gn/T//ccfaZdch.s 			page 25


 1366 0034 20000000 		.4byte	.LFE10
 1367 0038 00000000 		.4byte	.LFB11
 1368 003c 08000000 		.4byte	.LFE11
 1369 0040 00000000 		.4byte	.LFB12
 1370 0044 0C000000 		.4byte	.LFE12
 1371 0048 00000000 		.4byte	0
 1372 004c 00000000 		.4byte	0
 1373              		.section	.debug_line,"",%progbits
 1374              	.Ldebug_line0:
 1375 0000 BE010000 		.section	.debug_str,"MS",%progbits,1
 1375      02002001 
 1375      00000201 
 1375      FB0E0D00 
 1375      01010101 
 1376              	.LASF2:
 1377 0000 73697A65 		.ascii	"size_t\000"
 1377      5F7400
 1378              	.LASF27:
 1379 0007 474E5520 		.ascii	"GNU C 4.8.3 20131129 (release) [ARM/embedded-4_8-br"
 1379      4320342E 
 1379      382E3320 
 1379      32303133 
 1379      31313239 
 1380 003a 616E6368 		.ascii	"anch revision 205641] -mcpu=cortex-m0 -mno-thumb-in"
 1380      20726576 
 1380      6973696F 
 1380      6E203230 
 1380      35363431 
 1381 006d 74657277 		.ascii	"terwork -mthumb -ggdb -O2 -fomit-frame-pointer -fal"
 1381      6F726B20 
 1381      2D6D7468 
 1381      756D6220 
 1381      2D676764 
 1382 00a0 69676E2D 		.ascii	"ign-functions=16 -ffunction-sections -fdata-section"
 1382      66756E63 
 1382      74696F6E 
 1382      733D3136 
 1382      202D6666 
 1383 00d3 73202D66 		.ascii	"s -fno-common\000"
 1383      6E6F2D63 
 1383      6F6D6D6F 
 1383      6E00
 1384              	.LASF16:
 1385 00e1 6D705F6F 		.ascii	"mp_object_size\000"
 1385      626A6563 
 1385      745F7369 
 1385      7A6500
 1386              	.LASF26:
 1387 00f0 6368506F 		.ascii	"chPoolLoadArray\000"
 1387      6F6C4C6F 
 1387      61644172 
 1387      72617900 
 1388              	.LASF30:
 1389 0100 706F6F6C 		.ascii	"pool_header\000"
 1389      5F686561 
 1389      64657200 
 1390              	.LASF23:
ARM GAS  /var/folders/qh/xwg3v3kj02qbxczjpdb8lzfr0000gn/T//ccfaZdch.s 			page 26


 1391 010c 73697A65 		.ascii	"size\000"
 1391      00
 1392              	.LASF8:
 1393 0111 6C6F6E67 		.ascii	"long unsigned int\000"
 1393      20756E73 
 1393      69676E65 
 1393      6420696E 
 1393      7400
 1394              	.LASF6:
 1395 0123 73686F72 		.ascii	"short unsigned int\000"
 1395      7420756E 
 1395      7369676E 
 1395      65642069 
 1395      6E7400
 1396              	.LASF24:
 1397 0136 70726F76 		.ascii	"provider\000"
 1397      69646572 
 1397      00
 1398              	.LASF21:
 1399 013f 6368506F 		.ascii	"chPoolFreeI\000"
 1399      6F6C4672 
 1399      65654900 
 1400              	.LASF4:
 1401 014b 756E7369 		.ascii	"unsigned char\000"
 1401      676E6564 
 1401      20636861 
 1401      7200
 1402              	.LASF22:
 1403 0159 6368506F 		.ascii	"chPoolFree\000"
 1403      6F6C4672 
 1403      656500
 1404              	.LASF18:
 1405 0164 4D656D6F 		.ascii	"MemoryPool\000"
 1405      7279506F 
 1405      6F6C00
 1406              	.LASF20:
 1407 016f 6F626A70 		.ascii	"objp\000"
 1407      00
 1408              	.LASF31:
 1409 0174 6368506F 		.ascii	"chPoolAllocI\000"
 1409      6F6C416C 
 1409      6C6F6349 
 1409      00
 1410              	.LASF0:
 1411 0181 756E7369 		.ascii	"unsigned int\000"
 1411      676E6564 
 1411      20696E74 
 1411      00
 1412              	.LASF10:
 1413 018e 6C6F6E67 		.ascii	"long long unsigned int\000"
 1413      206C6F6E 
 1413      6720756E 
 1413      7369676E 
 1413      65642069 
 1414              	.LASF3:
 1415 01a5 75696E74 		.ascii	"uint8_t\000"
 1415      385F7400 
ARM GAS  /var/folders/qh/xwg3v3kj02qbxczjpdb8lzfr0000gn/T//ccfaZdch.s 			page 27


 1416              	.LASF29:
 1417 01ad 2F557365 		.ascii	"/Users/John/Development/embedded/ChibiOS-RT/BluC/ST"
 1417      72732F4A 
 1417      6F686E2F 
 1417      44657665 
 1417      6C6F706D 
 1418 01e0 4D333246 		.ascii	"M32F051\000"
 1418      30353100 
 1419              	.LASF14:
 1420 01e8 70685F6E 		.ascii	"ph_next\000"
 1420      65787400 
 1421              	.LASF12:
 1422 01f0 73697A65 		.ascii	"sizetype\000"
 1422      74797065 
 1422      00
 1423              	.LASF9:
 1424 01f9 6C6F6E67 		.ascii	"long long int\000"
 1424      206C6F6E 
 1424      6720696E 
 1424      7400
 1425              	.LASF19:
 1426 0207 63686172 		.ascii	"char\000"
 1426      00
 1427              	.LASF13:
 1428 020c 6D656D67 		.ascii	"memgetfunc_t\000"
 1428      65746675 
 1428      6E635F74 
 1428      00
 1429              	.LASF17:
 1430 0219 6D705F70 		.ascii	"mp_provider\000"
 1430      726F7669 
 1430      64657200 
 1431              	.LASF5:
 1432 0225 73686F72 		.ascii	"short int\000"
 1432      7420696E 
 1432      7400
 1433              	.LASF32:
 1434 022f 6368506F 		.ascii	"chPoolAlloc\000"
 1434      6F6C416C 
 1434      6C6F6300 
 1435              	.LASF28:
 1436 023b 2E2E2F2E 		.ascii	"../../os/kernel/src/chmempools.c\000"
 1436      2E2F6F73 
 1436      2F6B6572 
 1436      6E656C2F 
 1436      7372632F 
 1437              	.LASF7:
 1438 025c 6C6F6E67 		.ascii	"long int\000"
 1438      20696E74 
 1438      00
 1439              	.LASF1:
 1440 0265 7369676E 		.ascii	"signed char\000"
 1440      65642063 
 1440      68617200 
 1441              	.LASF15:
 1442 0271 6D705F6E 		.ascii	"mp_next\000"
 1442      65787400 
ARM GAS  /var/folders/qh/xwg3v3kj02qbxczjpdb8lzfr0000gn/T//ccfaZdch.s 			page 28


 1443              	.LASF11:
 1444 0279 5F426F6F 		.ascii	"_Bool\000"
 1444      6C00
 1445              	.LASF25:
 1446 027f 6368506F 		.ascii	"chPoolInit\000"
 1446      6F6C496E 
 1446      697400
 1447              		.ident	"GCC: (GNU Tools for ARM Embedded Processors) 4.8.3 20131129 (release) [ARM/embedded-4_8-br
ARM GAS  /var/folders/qh/xwg3v3kj02qbxczjpdb8lzfr0000gn/T//ccfaZdch.s 			page 29


DEFINED SYMBOLS
                            *ABS*:0000000000000000 chmempools.c
/var/folders/qh/xwg3v3kj02qbxczjpdb8lzfr0000gn/T//ccfaZdch.s:18     .text.chPoolInit:0000000000000000 $t
/var/folders/qh/xwg3v3kj02qbxczjpdb8lzfr0000gn/T//ccfaZdch.s:24     .text.chPoolInit:0000000000000000 chPoolInit
/var/folders/qh/xwg3v3kj02qbxczjpdb8lzfr0000gn/T//ccfaZdch.s:44     .text.chPoolLoadArray:0000000000000000 $t
/var/folders/qh/xwg3v3kj02qbxczjpdb8lzfr0000gn/T//ccfaZdch.s:50     .text.chPoolLoadArray:0000000000000000 chPoolLoadArray
/var/folders/qh/xwg3v3kj02qbxczjpdb8lzfr0000gn/T//ccfaZdch.s:101    .text.chPoolAllocI:0000000000000000 $t
/var/folders/qh/xwg3v3kj02qbxczjpdb8lzfr0000gn/T//ccfaZdch.s:107    .text.chPoolAllocI:0000000000000000 chPoolAllocI
/var/folders/qh/xwg3v3kj02qbxczjpdb8lzfr0000gn/T//ccfaZdch.s:147    .text.chPoolAlloc:0000000000000000 $t
/var/folders/qh/xwg3v3kj02qbxczjpdb8lzfr0000gn/T//ccfaZdch.s:153    .text.chPoolAlloc:0000000000000000 chPoolAlloc
/var/folders/qh/xwg3v3kj02qbxczjpdb8lzfr0000gn/T//ccfaZdch.s:212    .text.chPoolFreeI:0000000000000000 $t
/var/folders/qh/xwg3v3kj02qbxczjpdb8lzfr0000gn/T//ccfaZdch.s:218    .text.chPoolFreeI:0000000000000000 chPoolFreeI
/var/folders/qh/xwg3v3kj02qbxczjpdb8lzfr0000gn/T//ccfaZdch.s:237    .text.chPoolFree:0000000000000000 $t
/var/folders/qh/xwg3v3kj02qbxczjpdb8lzfr0000gn/T//ccfaZdch.s:243    .text.chPoolFree:0000000000000000 chPoolFree
                     .debug_frame:0000000000000010 $d

NO UNDEFINED SYMBOLS
