ARM GAS  /var/folders/qh/xwg3v3kj02qbxczjpdb8lzfr0000gn/T//cc91f84E.s 			page 1


   1              		.cpu cortex-m0
   2              		.fpu softvfp
   3              		.eabi_attribute 20, 1
   4              		.eabi_attribute 21, 1
   5              		.eabi_attribute 23, 3
   6              		.eabi_attribute 24, 1
   7              		.eabi_attribute 25, 1
   8              		.eabi_attribute 26, 1
   9              		.eabi_attribute 30, 2
  10              		.eabi_attribute 34, 0
  11              		.eabi_attribute 18, 4
  12              		.code	16
  13              		.file	"chmsg.c"
  14              		.text
  15              	.Ltext0:
  16              		.cfi_sections	.debug_frame
  17              		.section	.text.chMsgSend,"ax",%progbits
  18              		.align	2
  19              		.p2align 4,,15
  20              		.global	chMsgSend
  21              		.code	16
  22              		.thumb_func
  23              		.type	chMsgSend, %function
  24              	chMsgSend:
  25              	.LFB7:
  26              		.file 1 "../../os/kernel/src/chmsg.c"
  27              		.loc 1 68 0
  28              		.cfi_startproc
  29              	.LVL0:
  30              		.loc 1 69 0
  31 0000 0C4B     		ldr	r3, .L5
  32              		.loc 1 68 0
  33 0002 10B5     		push	{r4, lr}
  34              		.cfi_def_cfa_offset 8
  35              		.cfi_offset 4, -8
  36              		.cfi_offset 14, -4
  37              		.loc 1 69 0
  38 0004 9C69     		ldr	r4, [r3, #24]
  39              	.LVL1:
  40              		.loc 1 73 0
  41              	@ 73 "../../os/kernel/src/chmsg.c" 1
  42 0006 72B6     		cpsid   i
  43              	@ 0 "" 2
  44              		.loc 1 75 0
  45              		.code	16
  46 0008 031C     		mov	r3, r0
  47 000a 2C33     		add	r3, r3, #44
  48 000c 6362     		str	r3, [r4, #36]
  49              	.LVL2:
  50              	.LBB6:
  51              	.LBB7:
  52              		.file 2 "../../os/kernel/include/chinline.h"
  53              		.loc 2 47 0
  54 000e 2360     		str	r3, [r4]
  55              		.loc 2 48 0
  56 0010 036B     		ldr	r3, [r0, #48]
  57              	.LVL3:
ARM GAS  /var/folders/qh/xwg3v3kj02qbxczjpdb8lzfr0000gn/T//cc91f84E.s 			page 2


  58              	.LBE7:
  59              	.LBE6:
  60              		.loc 1 74 0
  61 0012 6163     		str	r1, [r4, #52]
  62              	.LBB9:
  63              	.LBB8:
  64              		.loc 2 48 0
  65 0014 6360     		str	r3, [r4, #4]
  66              		.loc 2 49 0
  67 0016 0463     		str	r4, [r0, #48]
  68 0018 1C60     		str	r4, [r3]
  69              	.LVL4:
  70              	.LBE8:
  71              	.LBE9:
  72              		.loc 1 77 0
  73 001a 037F     		ldrb	r3, [r0, #28]
  74 001c 0C2B     		cmp	r3, #12
  75 001e 05D0     		beq	.L4
  76              	.LVL5:
  77              	.L2:
  78              		.loc 1 79 0
  79 0020 0A20     		mov	r0, #10
  80 0022 FFF7FEFF 		bl	chSchGoSleepS
  81              	.LVL6:
  82              		.loc 1 80 0
  83 0026 606A     		ldr	r0, [r4, #36]
  84              	.LVL7:
  85              		.loc 1 81 0
  86              	@ 81 "../../os/kernel/src/chmsg.c" 1
  87 0028 62B6     		cpsie   i
  88              	@ 0 "" 2
  89              		.loc 1 83 0
  90              		.code	16
  91              		@ sp needed
  92              	.LVL8:
  93 002a 10BD     		pop	{r4, pc}
  94              	.LVL9:
  95              	.L4:
  96              		.loc 1 78 0
  97 002c FFF7FEFF 		bl	chSchReadyI
  98              	.LVL10:
  99 0030 F6E7     		b	.L2
 100              	.L6:
 101 0032 C046     		.align	2
 102              	.L5:
 103 0034 00000000 		.word	rlist
 104              		.cfi_endproc
 105              	.LFE7:
 106              		.size	chMsgSend, .-chMsgSend
 107 0038 C046C046 		.section	.text.chMsgWait,"ax",%progbits
 107      C046C046 
 108              		.align	2
 109              		.p2align 4,,15
 110              		.global	chMsgWait
 111              		.code	16
 112              		.thumb_func
 113              		.type	chMsgWait, %function
ARM GAS  /var/folders/qh/xwg3v3kj02qbxczjpdb8lzfr0000gn/T//cc91f84E.s 			page 3


 114              	chMsgWait:
 115              	.LFB8:
 116              		.loc 1 99 0
 117              		.cfi_startproc
 118 0000 10B5     		push	{r4, lr}
 119              		.cfi_def_cfa_offset 8
 120              		.cfi_offset 4, -8
 121              		.cfi_offset 14, -4
 122              		.loc 1 102 0
 123              	@ 102 "../../os/kernel/src/chmsg.c" 1
 124 0002 72B6     		cpsid   i
 125              	@ 0 "" 2
 126              		.loc 1 103 0
 127              		.code	16
 128 0004 0A4C     		ldr	r4, .L10
 129 0006 A369     		ldr	r3, [r4, #24]
 130 0008 1A1C     		mov	r2, r3
 131 000a D86A     		ldr	r0, [r3, #44]
 132 000c 2C32     		add	r2, r2, #44
 133 000e 9042     		cmp	r0, r2
 134 0010 06D0     		beq	.L9
 135              	.L8:
 136              	.LVL11:
 137              	.LBB10:
 138              	.LBB11:
 139              		.loc 2 55 0
 140 0012 0168     		ldr	r1, [r0]
 141 0014 D962     		str	r1, [r3, #44]
 142              	.LBE11:
 143              	.LBE10:
 144              		.loc 1 106 0
 145 0016 0B23     		mov	r3, #11
 146              	.LBB13:
 147              	.LBB12:
 148              		.loc 2 55 0
 149 0018 4A60     		str	r2, [r1, #4]
 150              	.LBE12:
 151              	.LBE13:
 152              		.loc 1 106 0
 153 001a 0377     		strb	r3, [r0, #28]
 154              		.loc 1 107 0
 155              	@ 107 "../../os/kernel/src/chmsg.c" 1
 156 001c 62B6     		cpsie   i
 157              	@ 0 "" 2
 158              		.loc 1 109 0
 159              		.code	16
 160              		@ sp needed
 161 001e 10BD     		pop	{r4, pc}
 162              	.LVL12:
 163              	.L9:
 164              		.loc 1 104 0
 165 0020 0C20     		mov	r0, #12
 166 0022 FFF7FEFF 		bl	chSchGoSleepS
 167              	.LVL13:
 168 0026 A369     		ldr	r3, [r4, #24]
 169 0028 1A1C     		mov	r2, r3
 170 002a 2C32     		add	r2, r2, #44
ARM GAS  /var/folders/qh/xwg3v3kj02qbxczjpdb8lzfr0000gn/T//cc91f84E.s 			page 4


 171 002c D86A     		ldr	r0, [r3, #44]
 172 002e F0E7     		b	.L8
 173              	.L11:
 174              		.align	2
 175              	.L10:
 176 0030 00000000 		.word	rlist
 177              		.cfi_endproc
 178              	.LFE8:
 179              		.size	chMsgWait, .-chMsgWait
 180 0034 C046C046 		.section	.text.chMsgRelease,"ax",%progbits
 180      C046C046 
 180      C046C046 
 181              		.align	2
 182              		.p2align 4,,15
 183              		.global	chMsgRelease
 184              		.code	16
 185              		.thumb_func
 186              		.type	chMsgRelease, %function
 187              	chMsgRelease:
 188              	.LFB9:
 189              		.loc 1 121 0
 190              		.cfi_startproc
 191              	.LVL14:
 192 0000 08B5     		push	{r3, lr}
 193              		.cfi_def_cfa_offset 8
 194              		.cfi_offset 3, -8
 195              		.cfi_offset 14, -4
 196              		.loc 1 123 0
 197              	@ 123 "../../os/kernel/src/chmsg.c" 1
 198 0002 72B6     		cpsid   i
 199              	@ 0 "" 2
 200              		.loc 1 126 0
 201              		.code	16
 202 0004 FFF7FEFF 		bl	chSchWakeupS
 203              	.LVL15:
 204              		.loc 1 127 0
 205              	@ 127 "../../os/kernel/src/chmsg.c" 1
 206 0008 62B6     		cpsie   i
 207              	@ 0 "" 2
 208              		.loc 1 128 0
 209              		.code	16
 210              		@ sp needed
 211 000a 08BD     		pop	{r3, pc}
 212              		.cfi_endproc
 213              	.LFE9:
 214              		.size	chMsgRelease, .-chMsgRelease
 215 000c C046C046 		.text
 216              	.Letext0:
 217              		.file 3 "/usr/local/Cellar/gcc-arm-none-eabi-48/20131218/arm-none-eabi/include/stdint.h"
 218              		.file 4 "../../os/ports/GCC/ARMCMx/chtypes.h"
 219              		.file 5 "../../os/kernel/include/chlists.h"
 220              		.file 6 "../../os/kernel/include/chthreads.h"
 221              		.file 7 "../../os/ports/GCC/ARMCMx/chcore_v6m.h"
 222              		.file 8 "../../os/kernel/include/chschd.h"
 223              		.file 9 "../../os/kernel/include/chmtx.h"
 224              		.section	.debug_info,"",%progbits
 225              	.Ldebug_info0:
ARM GAS  /var/folders/qh/xwg3v3kj02qbxczjpdb8lzfr0000gn/T//cc91f84E.s 			page 5


 226 0000 9A050000 		.4byte	0x59a
 227 0004 0400     		.2byte	0x4
 228 0006 00000000 		.4byte	.Ldebug_abbrev0
 229 000a 04       		.byte	0x4
 230 000b 01       		.uleb128 0x1
 231 000c 54010000 		.4byte	.LASF65
 232 0010 01       		.byte	0x1
 233 0011 A5030000 		.4byte	.LASF66
 234 0015 C9000000 		.4byte	.LASF67
 235 0019 30000000 		.4byte	.Ldebug_ranges0+0x30
 236 001d 00000000 		.4byte	0
 237 0021 00000000 		.4byte	.Ldebug_line0
 238 0025 02       		.uleb128 0x2
 239 0026 04       		.byte	0x4
 240 0027 05       		.byte	0x5
 241 0028 696E7400 		.ascii	"int\000"
 242 002c 03       		.uleb128 0x3
 243 002d 04       		.byte	0x4
 244 002e 07       		.byte	0x7
 245 002f AA000000 		.4byte	.LASF0
 246 0033 03       		.uleb128 0x3
 247 0034 01       		.byte	0x1
 248 0035 06       		.byte	0x6
 249 0036 4F000000 		.4byte	.LASF1
 250 003a 04       		.uleb128 0x4
 251 003b 8F030000 		.4byte	.LASF5
 252 003f 03       		.byte	0x3
 253 0040 2A       		.byte	0x2a
 254 0041 45000000 		.4byte	0x45
 255 0045 03       		.uleb128 0x3
 256 0046 01       		.byte	0x1
 257 0047 08       		.byte	0x8
 258 0048 80020000 		.4byte	.LASF2
 259 004c 03       		.uleb128 0x3
 260 004d 02       		.byte	0x2
 261 004e 05       		.byte	0x5
 262 004f 98020000 		.4byte	.LASF3
 263 0053 03       		.uleb128 0x3
 264 0054 02       		.byte	0x2
 265 0055 07       		.byte	0x7
 266 0056 0C010000 		.4byte	.LASF4
 267 005a 04       		.uleb128 0x4
 268 005b 78020000 		.4byte	.LASF6
 269 005f 03       		.byte	0x3
 270 0060 4F       		.byte	0x4f
 271 0061 65000000 		.4byte	0x65
 272 0065 03       		.uleb128 0x3
 273 0066 04       		.byte	0x4
 274 0067 05       		.byte	0x5
 275 0068 75000000 		.4byte	.LASF7
 276 006c 04       		.uleb128 0x4
 277 006d FE020000 		.4byte	.LASF8
 278 0071 03       		.byte	0x3
 279 0072 50       		.byte	0x50
 280 0073 77000000 		.4byte	0x77
 281 0077 03       		.uleb128 0x3
 282 0078 04       		.byte	0x4
ARM GAS  /var/folders/qh/xwg3v3kj02qbxczjpdb8lzfr0000gn/T//cc91f84E.s 			page 6


 283 0079 07       		.byte	0x7
 284 007a B7000000 		.4byte	.LASF9
 285 007e 03       		.uleb128 0x3
 286 007f 08       		.byte	0x8
 287 0080 05       		.byte	0x5
 288 0081 41000000 		.4byte	.LASF10
 289 0085 03       		.uleb128 0x3
 290 0086 08       		.byte	0x8
 291 0087 07       		.byte	0x7
 292 0088 1A000000 		.4byte	.LASF11
 293 008c 03       		.uleb128 0x3
 294 008d 01       		.byte	0x1
 295 008e 02       		.byte	0x2
 296 008f 72020000 		.4byte	.LASF12
 297 0093 04       		.uleb128 0x4
 298 0094 25010000 		.4byte	.LASF13
 299 0098 04       		.byte	0x4
 300 0099 25       		.byte	0x25
 301 009a 3A000000 		.4byte	0x3a
 302 009e 04       		.uleb128 0x4
 303 009f 88000000 		.4byte	.LASF14
 304 00a3 04       		.byte	0x4
 305 00a4 26       		.byte	0x26
 306 00a5 3A000000 		.4byte	0x3a
 307 00a9 04       		.uleb128 0x4
 308 00aa 5B020000 		.4byte	.LASF15
 309 00ae 04       		.byte	0x4
 310 00af 27       		.byte	0x27
 311 00b0 3A000000 		.4byte	0x3a
 312 00b4 04       		.uleb128 0x4
 313 00b5 6B000000 		.4byte	.LASF16
 314 00b9 04       		.byte	0x4
 315 00ba 28       		.byte	0x28
 316 00bb 3A000000 		.4byte	0x3a
 317 00bf 04       		.uleb128 0x4
 318 00c0 6A020000 		.4byte	.LASF17
 319 00c4 04       		.byte	0x4
 320 00c5 29       		.byte	0x29
 321 00c6 6C000000 		.4byte	0x6c
 322 00ca 04       		.uleb128 0x4
 323 00cb 1F010000 		.4byte	.LASF18
 324 00cf 04       		.byte	0x4
 325 00d0 2A       		.byte	0x2a
 326 00d1 5A000000 		.4byte	0x5a
 327 00d5 04       		.uleb128 0x4
 328 00d6 39010000 		.4byte	.LASF19
 329 00da 04       		.byte	0x4
 330 00db 2C       		.byte	0x2c
 331 00dc 6C000000 		.4byte	0x6c
 332 00e0 04       		.uleb128 0x4
 333 00e1 33030000 		.4byte	.LASF20
 334 00e5 04       		.byte	0x4
 335 00e6 2E       		.byte	0x2e
 336 00e7 6C000000 		.4byte	0x6c
 337 00eb 04       		.uleb128 0x4
 338 00ec D1020000 		.4byte	.LASF21
 339 00f0 05       		.byte	0x5
ARM GAS  /var/folders/qh/xwg3v3kj02qbxczjpdb8lzfr0000gn/T//cc91f84E.s 			page 7


 340 00f1 23       		.byte	0x23
 341 00f2 F6000000 		.4byte	0xf6
 342 00f6 05       		.uleb128 0x5
 343 00f7 D1020000 		.4byte	.LASF21
 344 00fb 48       		.byte	0x48
 345 00fc 06       		.byte	0x6
 346 00fd 57       		.byte	0x57
 347 00fe F3010000 		.4byte	0x1f3
 348 0102 06       		.uleb128 0x6
 349 0103 C2020000 		.4byte	.LASF22
 350 0107 06       		.byte	0x6
 351 0108 58       		.byte	0x58
 352 0109 14020000 		.4byte	0x214
 353 010d 00       		.byte	0
 354 010e 06       		.uleb128 0x6
 355 010f 63020000 		.4byte	.LASF23
 356 0113 06       		.byte	0x6
 357 0114 5A       		.byte	0x5a
 358 0115 14020000 		.4byte	0x214
 359 0119 04       		.byte	0x4
 360 011a 06       		.uleb128 0x6
 361 011b 3A000000 		.4byte	.LASF24
 362 011f 06       		.byte	0x6
 363 0120 5C       		.byte	0x5c
 364 0121 BF000000 		.4byte	0xbf
 365 0125 08       		.byte	0x8
 366 0126 06       		.uleb128 0x6
 367 0127 C9030000 		.4byte	.LASF25
 368 012b 06       		.byte	0x6
 369 012c 5D       		.byte	0x5d
 370 012d C4020000 		.4byte	0x2c4
 371 0131 0C       		.byte	0xc
 372 0132 06       		.uleb128 0x6
 373 0133 91000000 		.4byte	.LASF26
 374 0137 06       		.byte	0x6
 375 0138 5F       		.byte	0x5f
 376 0139 14020000 		.4byte	0x214
 377 013d 10       		.byte	0x10
 378 013e 06       		.uleb128 0x6
 379 013f 2E020000 		.4byte	.LASF27
 380 0143 06       		.byte	0x6
 381 0144 60       		.byte	0x60
 382 0145 14020000 		.4byte	0x214
 383 0149 14       		.byte	0x14
 384 014a 06       		.uleb128 0x6
 385 014b 9E030000 		.4byte	.LASF28
 386 014f 06       		.byte	0x6
 387 0150 67       		.byte	0x67
 388 0151 C2030000 		.4byte	0x3c2
 389 0155 18       		.byte	0x18
 390 0156 06       		.uleb128 0x6
 391 0157 A2020000 		.4byte	.LASF29
 392 015b 06       		.byte	0x6
 393 015c 72       		.byte	0x72
 394 015d 9E000000 		.4byte	0x9e
 395 0161 1C       		.byte	0x1c
 396 0162 06       		.uleb128 0x6
ARM GAS  /var/folders/qh/xwg3v3kj02qbxczjpdb8lzfr0000gn/T//cc91f84E.s 			page 8


 397 0163 C9020000 		.4byte	.LASF30
 398 0167 06       		.byte	0x6
 399 0168 76       		.byte	0x76
 400 0169 93000000 		.4byte	0x93
 401 016d 1D       		.byte	0x1d
 402 016e 06       		.uleb128 0x6
 403 016f 78030000 		.4byte	.LASF31
 404 0173 06       		.byte	0x6
 405 0174 7B       		.byte	0x7b
 406 0175 A9000000 		.4byte	0xa9
 407 0179 1E       		.byte	0x1e
 408 017a 06       		.uleb128 0x6
 409 017b AA020000 		.4byte	.LASF32
 410 017f 06       		.byte	0x6
 411 0180 81       		.byte	0x81
 412 0181 B4000000 		.4byte	0xb4
 413 0185 1F       		.byte	0x1f
 414 0186 06       		.uleb128 0x6
 415 0187 48030000 		.4byte	.LASF33
 416 018b 06       		.byte	0x6
 417 018c 88       		.byte	0x88
 418 018d EA020000 		.4byte	0x2ea
 419 0191 20       		.byte	0x20
 420 0192 07       		.uleb128 0x7
 421 0193 705F7500 		.ascii	"p_u\000"
 422 0197 06       		.byte	0x6
 423 0198 AD       		.byte	0xad
 424 0199 8D030000 		.4byte	0x38d
 425 019d 24       		.byte	0x24
 426 019e 06       		.uleb128 0x6
 427 019f CF030000 		.4byte	.LASF34
 428 01a3 06       		.byte	0x6
 429 01a4 B2       		.byte	0xb2
 430 01a5 3A020000 		.4byte	0x23a
 431 01a9 28       		.byte	0x28
 432 01aa 06       		.uleb128 0x6
 433 01ab 56030000 		.4byte	.LASF35
 434 01af 06       		.byte	0x6
 435 01b0 B8       		.byte	0xb8
 436 01b1 1A020000 		.4byte	0x21a
 437 01b5 2C       		.byte	0x2c
 438 01b6 06       		.uleb128 0x6
 439 01b7 00000000 		.4byte	.LASF36
 440 01bb 06       		.byte	0x6
 441 01bc BC       		.byte	0xbc
 442 01bd CA000000 		.4byte	0xca
 443 01c1 34       		.byte	0x34
 444 01c2 06       		.uleb128 0x6
 445 01c3 F3020000 		.4byte	.LASF37
 446 01c7 06       		.byte	0x6
 447 01c8 C2       		.byte	0xc2
 448 01c9 D5000000 		.4byte	0xd5
 449 01cd 38       		.byte	0x38
 450 01ce 06       		.uleb128 0x6
 451 01cf 8E020000 		.4byte	.LASF38
 452 01d3 06       		.byte	0x6
 453 01d4 C9       		.byte	0xc9
ARM GAS  /var/folders/qh/xwg3v3kj02qbxczjpdb8lzfr0000gn/T//cc91f84E.s 			page 9


 454 01d5 D4030000 		.4byte	0x3d4
 455 01d9 3C       		.byte	0x3c
 456 01da 06       		.uleb128 0x6
 457 01db 3D030000 		.4byte	.LASF39
 458 01df 06       		.byte	0x6
 459 01e0 CD       		.byte	0xcd
 460 01e1 BF000000 		.4byte	0xbf
 461 01e5 40       		.byte	0x40
 462 01e6 06       		.uleb128 0x6
 463 01e7 5B000000 		.4byte	.LASF40
 464 01eb 06       		.byte	0x6
 465 01ec D3       		.byte	0xd3
 466 01ed 50020000 		.4byte	0x250
 467 01f1 44       		.byte	0x44
 468 01f2 00       		.byte	0
 469 01f3 08       		.uleb128 0x8
 470 01f4 08       		.byte	0x8
 471 01f5 05       		.byte	0x5
 472 01f6 5A       		.byte	0x5a
 473 01f7 14020000 		.4byte	0x214
 474 01fb 06       		.uleb128 0x6
 475 01fc C2020000 		.4byte	.LASF22
 476 0200 05       		.byte	0x5
 477 0201 5B       		.byte	0x5b
 478 0202 14020000 		.4byte	0x214
 479 0206 00       		.byte	0
 480 0207 06       		.uleb128 0x6
 481 0208 63020000 		.4byte	.LASF23
 482 020c 05       		.byte	0x5
 483 020d 5D       		.byte	0x5d
 484 020e 14020000 		.4byte	0x214
 485 0212 04       		.byte	0x4
 486 0213 00       		.byte	0
 487 0214 09       		.uleb128 0x9
 488 0215 04       		.byte	0x4
 489 0216 EB000000 		.4byte	0xeb
 490 021a 04       		.uleb128 0x4
 491 021b 3C020000 		.4byte	.LASF41
 492 021f 05       		.byte	0x5
 493 0220 5F       		.byte	0x5f
 494 0221 F3010000 		.4byte	0x1f3
 495 0225 08       		.uleb128 0x8
 496 0226 04       		.byte	0x4
 497 0227 05       		.byte	0x5
 498 0228 64       		.byte	0x64
 499 0229 3A020000 		.4byte	0x23a
 500 022d 06       		.uleb128 0x6
 501 022e C2020000 		.4byte	.LASF22
 502 0232 05       		.byte	0x5
 503 0233 66       		.byte	0x66
 504 0234 14020000 		.4byte	0x214
 505 0238 00       		.byte	0
 506 0239 00       		.byte	0
 507 023a 04       		.uleb128 0x4
 508 023b 2D010000 		.4byte	.LASF42
 509 023f 05       		.byte	0x5
 510 0240 69       		.byte	0x69
ARM GAS  /var/folders/qh/xwg3v3kj02qbxczjpdb8lzfr0000gn/T//cc91f84E.s 			page 10


 511 0241 25020000 		.4byte	0x225
 512 0245 04       		.uleb128 0x4
 513 0246 A1000000 		.4byte	.LASF43
 514 024a 07       		.byte	0x7
 515 024b A0       		.byte	0xa0
 516 024c 50020000 		.4byte	0x250
 517 0250 0A       		.uleb128 0xa
 518 0251 04       		.byte	0x4
 519 0252 05       		.uleb128 0x5
 520 0253 4F030000 		.4byte	.LASF44
 521 0257 24       		.byte	0x24
 522 0258 07       		.byte	0x7
 523 0259 B3       		.byte	0xb3
 524 025a C4020000 		.4byte	0x2c4
 525 025e 07       		.uleb128 0x7
 526 025f 723800   		.ascii	"r8\000"
 527 0262 07       		.byte	0x7
 528 0263 B4       		.byte	0xb4
 529 0264 45020000 		.4byte	0x245
 530 0268 00       		.byte	0
 531 0269 07       		.uleb128 0x7
 532 026a 723900   		.ascii	"r9\000"
 533 026d 07       		.byte	0x7
 534 026e B5       		.byte	0xb5
 535 026f 45020000 		.4byte	0x245
 536 0273 04       		.byte	0x4
 537 0274 07       		.uleb128 0x7
 538 0275 72313000 		.ascii	"r10\000"
 539 0279 07       		.byte	0x7
 540 027a B6       		.byte	0xb6
 541 027b 45020000 		.4byte	0x245
 542 027f 08       		.byte	0x8
 543 0280 07       		.uleb128 0x7
 544 0281 72313100 		.ascii	"r11\000"
 545 0285 07       		.byte	0x7
 546 0286 B7       		.byte	0xb7
 547 0287 45020000 		.4byte	0x245
 548 028b 0C       		.byte	0xc
 549 028c 07       		.uleb128 0x7
 550 028d 723400   		.ascii	"r4\000"
 551 0290 07       		.byte	0x7
 552 0291 B8       		.byte	0xb8
 553 0292 45020000 		.4byte	0x245
 554 0296 10       		.byte	0x10
 555 0297 07       		.uleb128 0x7
 556 0298 723500   		.ascii	"r5\000"
 557 029b 07       		.byte	0x7
 558 029c B9       		.byte	0xb9
 559 029d 45020000 		.4byte	0x245
 560 02a1 14       		.byte	0x14
 561 02a2 07       		.uleb128 0x7
 562 02a3 723600   		.ascii	"r6\000"
 563 02a6 07       		.byte	0x7
 564 02a7 BA       		.byte	0xba
 565 02a8 45020000 		.4byte	0x245
 566 02ac 18       		.byte	0x18
 567 02ad 07       		.uleb128 0x7
ARM GAS  /var/folders/qh/xwg3v3kj02qbxczjpdb8lzfr0000gn/T//cc91f84E.s 			page 11


 568 02ae 723700   		.ascii	"r7\000"
 569 02b1 07       		.byte	0x7
 570 02b2 BB       		.byte	0xbb
 571 02b3 45020000 		.4byte	0x245
 572 02b7 1C       		.byte	0x1c
 573 02b8 07       		.uleb128 0x7
 574 02b9 6C7200   		.ascii	"lr\000"
 575 02bc 07       		.byte	0x7
 576 02bd BC       		.byte	0xbc
 577 02be 45020000 		.4byte	0x245
 578 02c2 20       		.byte	0x20
 579 02c3 00       		.byte	0
 580 02c4 05       		.uleb128 0x5
 581 02c5 04010000 		.4byte	.LASF45
 582 02c9 04       		.byte	0x4
 583 02ca 07       		.byte	0x7
 584 02cb C6       		.byte	0xc6
 585 02cc DD020000 		.4byte	0x2dd
 586 02d0 07       		.uleb128 0x7
 587 02d1 72313300 		.ascii	"r13\000"
 588 02d5 07       		.byte	0x7
 589 02d6 C7       		.byte	0xc7
 590 02d7 DD020000 		.4byte	0x2dd
 591 02db 00       		.byte	0
 592 02dc 00       		.byte	0
 593 02dd 09       		.uleb128 0x9
 594 02de 04       		.byte	0x4
 595 02df 52020000 		.4byte	0x252
 596 02e3 03       		.uleb128 0x3
 597 02e4 04       		.byte	0x4
 598 02e5 07       		.byte	0x7
 599 02e6 4B010000 		.4byte	.LASF46
 600 02ea 0B       		.uleb128 0xb
 601 02eb E0000000 		.4byte	0xe0
 602 02ef 08       		.uleb128 0x8
 603 02f0 1C       		.byte	0x1c
 604 02f1 08       		.byte	0x8
 605 02f2 57       		.byte	0x57
 606 02f3 40030000 		.4byte	0x340
 607 02f7 06       		.uleb128 0x6
 608 02f8 07030000 		.4byte	.LASF47
 609 02fc 08       		.byte	0x8
 610 02fd 58       		.byte	0x58
 611 02fe 1A020000 		.4byte	0x21a
 612 0302 00       		.byte	0
 613 0303 06       		.uleb128 0x6
 614 0304 B4020000 		.4byte	.LASF48
 615 0308 08       		.byte	0x8
 616 0309 59       		.byte	0x59
 617 030a BF000000 		.4byte	0xbf
 618 030e 08       		.byte	0x8
 619 030f 06       		.uleb128 0x6
 620 0310 36020000 		.4byte	.LASF49
 621 0314 08       		.byte	0x8
 622 0315 5B       		.byte	0x5b
 623 0316 C4020000 		.4byte	0x2c4
 624 031a 0C       		.byte	0xc
ARM GAS  /var/folders/qh/xwg3v3kj02qbxczjpdb8lzfr0000gn/T//cc91f84E.s 			page 12


 625 031b 06       		.uleb128 0x6
 626 031c 99000000 		.4byte	.LASF50
 627 0320 08       		.byte	0x8
 628 0321 5E       		.byte	0x5e
 629 0322 14020000 		.4byte	0x214
 630 0326 10       		.byte	0x10
 631 0327 06       		.uleb128 0x6
 632 0328 53020000 		.4byte	.LASF51
 633 032c 08       		.byte	0x8
 634 032d 5F       		.byte	0x5f
 635 032e 14020000 		.4byte	0x214
 636 0332 14       		.byte	0x14
 637 0333 06       		.uleb128 0x6
 638 0334 49020000 		.4byte	.LASF52
 639 0338 08       		.byte	0x8
 640 0339 62       		.byte	0x62
 641 033a 14020000 		.4byte	0x214
 642 033e 18       		.byte	0x18
 643 033f 00       		.byte	0
 644 0340 04       		.uleb128 0x4
 645 0341 7F030000 		.4byte	.LASF53
 646 0345 08       		.byte	0x8
 647 0346 64       		.byte	0x64
 648 0347 EF020000 		.4byte	0x2ef
 649 034b 05       		.uleb128 0x5
 650 034c 45010000 		.4byte	.LASF54
 651 0350 10       		.byte	0x10
 652 0351 09       		.byte	0x9
 653 0352 25       		.byte	0x25
 654 0353 7C030000 		.4byte	0x37c
 655 0357 06       		.uleb128 0x6
 656 0358 63000000 		.4byte	.LASF55
 657 035c 09       		.byte	0x9
 658 035d 26       		.byte	0x26
 659 035e 1A020000 		.4byte	0x21a
 660 0362 00       		.byte	0
 661 0363 06       		.uleb128 0x6
 662 0364 C1030000 		.4byte	.LASF56
 663 0368 09       		.byte	0x9
 664 0369 28       		.byte	0x28
 665 036a 14020000 		.4byte	0x214
 666 036e 08       		.byte	0x8
 667 036f 06       		.uleb128 0x6
 668 0370 2C030000 		.4byte	.LASF57
 669 0374 09       		.byte	0x9
 670 0375 2A       		.byte	0x2a
 671 0376 7C030000 		.4byte	0x37c
 672 037a 0C       		.byte	0xc
 673 037b 00       		.byte	0
 674 037c 09       		.uleb128 0x9
 675 037d 04       		.byte	0x4
 676 037e 4B030000 		.4byte	0x34b
 677 0382 04       		.uleb128 0x4
 678 0383 45010000 		.4byte	.LASF54
 679 0387 09       		.byte	0x9
 680 0388 2C       		.byte	0x2c
 681 0389 4B030000 		.4byte	0x34b
ARM GAS  /var/folders/qh/xwg3v3kj02qbxczjpdb8lzfr0000gn/T//cc91f84E.s 			page 13


 682 038d 0C       		.uleb128 0xc
 683 038e 04       		.byte	0x4
 684 038f 06       		.byte	0x6
 685 0390 8F       		.byte	0x8f
 686 0391 C2030000 		.4byte	0x3c2
 687 0395 0D       		.uleb128 0xd
 688 0396 13000000 		.4byte	.LASF58
 689 039a 06       		.byte	0x6
 690 039b 96       		.byte	0x96
 691 039c CA000000 		.4byte	0xca
 692 03a0 0D       		.uleb128 0xd
 693 03a1 31000000 		.4byte	.LASF59
 694 03a5 06       		.byte	0x6
 695 03a6 9D       		.byte	0x9d
 696 03a7 CA000000 		.4byte	0xca
 697 03ab 0D       		.uleb128 0xd
 698 03ac 97030000 		.4byte	.LASF60
 699 03b0 06       		.byte	0x6
 700 03b1 A4       		.byte	0xa4
 701 03b2 50020000 		.4byte	0x250
 702 03b6 0D       		.uleb128 0xd
 703 03b7 BB020000 		.4byte	.LASF61
 704 03bb 06       		.byte	0x6
 705 03bc AB       		.byte	0xab
 706 03bd D5000000 		.4byte	0xd5
 707 03c1 00       		.byte	0
 708 03c2 09       		.uleb128 0x9
 709 03c3 04       		.byte	0x4
 710 03c4 C8030000 		.4byte	0x3c8
 711 03c8 0E       		.uleb128 0xe
 712 03c9 CD030000 		.4byte	0x3cd
 713 03cd 03       		.uleb128 0x3
 714 03ce 01       		.byte	0x1
 715 03cf 08       		.byte	0x8
 716 03d0 1B030000 		.4byte	.LASF62
 717 03d4 09       		.uleb128 0x9
 718 03d5 04       		.byte	0x4
 719 03d6 82030000 		.4byte	0x382
 720 03da 0F       		.uleb128 0xf
 721 03db 06000000 		.4byte	.LASF68
 722 03df 02       		.byte	0x2
 723 03e0 2D       		.byte	0x2d
 724 03e1 03       		.byte	0x3
 725 03e2 FC030000 		.4byte	0x3fc
 726 03e6 10       		.uleb128 0x10
 727 03e7 747000   		.ascii	"tp\000"
 728 03ea 02       		.byte	0x2
 729 03eb 2D       		.byte	0x2d
 730 03ec 14020000 		.4byte	0x214
 731 03f0 10       		.uleb128 0x10
 732 03f1 74717000 		.ascii	"tqp\000"
 733 03f5 02       		.byte	0x2
 734 03f6 2D       		.byte	0x2d
 735 03f7 FC030000 		.4byte	0x3fc
 736 03fb 00       		.byte	0
 737 03fc 09       		.uleb128 0x9
 738 03fd 04       		.byte	0x4
ARM GAS  /var/folders/qh/xwg3v3kj02qbxczjpdb8lzfr0000gn/T//cc91f84E.s 			page 14


 739 03fe 1A020000 		.4byte	0x21a
 740 0402 11       		.uleb128 0x11
 741 0403 20030000 		.4byte	.LASF69
 742 0407 02       		.byte	0x2
 743 0408 34       		.byte	0x34
 744 0409 14020000 		.4byte	0x214
 745 040d 03       		.byte	0x3
 746 040e 28040000 		.4byte	0x428
 747 0412 10       		.uleb128 0x10
 748 0413 74717000 		.ascii	"tqp\000"
 749 0417 02       		.byte	0x2
 750 0418 34       		.byte	0x34
 751 0419 FC030000 		.4byte	0x3fc
 752 041d 12       		.uleb128 0x12
 753 041e 747000   		.ascii	"tp\000"
 754 0421 02       		.byte	0x2
 755 0422 35       		.byte	0x35
 756 0423 14020000 		.4byte	0x214
 757 0427 00       		.byte	0
 758 0428 13       		.uleb128 0x13
 759 0429 7E000000 		.4byte	.LASF63
 760 042d 01       		.byte	0x1
 761 042e 44       		.byte	0x44
 762 042f CA000000 		.4byte	0xca
 763 0433 00000000 		.4byte	.LFB7
 764 0437 38000000 		.4byte	.LFE7-.LFB7
 765 043b 01       		.uleb128 0x1
 766 043c 9C       		.byte	0x9c
 767 043d B0040000 		.4byte	0x4b0
 768 0441 14       		.uleb128 0x14
 769 0442 747000   		.ascii	"tp\000"
 770 0445 01       		.byte	0x1
 771 0446 44       		.byte	0x44
 772 0447 14020000 		.4byte	0x214
 773 044b 00000000 		.4byte	.LLST0
 774 044f 14       		.uleb128 0x14
 775 0450 6D736700 		.ascii	"msg\000"
 776 0454 01       		.byte	0x1
 777 0455 44       		.byte	0x44
 778 0456 CA000000 		.4byte	0xca
 779 045a 3A000000 		.4byte	.LLST1
 780 045e 15       		.uleb128 0x15
 781 045f 63747000 		.ascii	"ctp\000"
 782 0463 01       		.byte	0x1
 783 0464 45       		.byte	0x45
 784 0465 14020000 		.4byte	0x214
 785 0469 7F000000 		.4byte	.LLST2
 786 046d 16       		.uleb128 0x16
 787 046e DA030000 		.4byte	0x3da
 788 0472 0E000000 		.4byte	.LBB6
 789 0476 00000000 		.4byte	.Ldebug_ranges0+0
 790 047a 01       		.byte	0x1
 791 047b 4C       		.byte	0x4c
 792 047c 93040000 		.4byte	0x493
 793 0480 17       		.uleb128 0x17
 794 0481 F0030000 		.4byte	0x3f0
 795 0485 9D000000 		.4byte	.LLST3
ARM GAS  /var/folders/qh/xwg3v3kj02qbxczjpdb8lzfr0000gn/T//cc91f84E.s 			page 15


 796 0489 17       		.uleb128 0x17
 797 048a E6030000 		.4byte	0x3e6
 798 048e F6000000 		.4byte	.LLST4
 799 0492 00       		.byte	0
 800 0493 18       		.uleb128 0x18
 801 0494 26000000 		.4byte	.LVL6
 802 0498 65050000 		.4byte	0x565
 803 049c A6040000 		.4byte	0x4a6
 804 04a0 19       		.uleb128 0x19
 805 04a1 01       		.uleb128 0x1
 806 04a2 50       		.byte	0x50
 807 04a3 01       		.uleb128 0x1
 808 04a4 3A       		.byte	0x3a
 809 04a5 00       		.byte	0
 810 04a6 1A       		.uleb128 0x1a
 811 04a7 30000000 		.4byte	.LVL10
 812 04ab 76050000 		.4byte	0x576
 813 04af 00       		.byte	0
 814 04b0 13       		.uleb128 0x13
 815 04b1 6E030000 		.4byte	.LASF64
 816 04b5 01       		.byte	0x1
 817 04b6 63       		.byte	0x63
 818 04b7 14020000 		.4byte	0x214
 819 04bb 00000000 		.4byte	.LFB8
 820 04bf 34000000 		.4byte	.LFE8-.LFB8
 821 04c3 01       		.uleb128 0x1
 822 04c4 9C       		.byte	0x9c
 823 04c5 0F050000 		.4byte	0x50f
 824 04c9 12       		.uleb128 0x12
 825 04ca 747000   		.ascii	"tp\000"
 826 04cd 01       		.byte	0x1
 827 04ce 64       		.byte	0x64
 828 04cf 14020000 		.4byte	0x214
 829 04d3 16       		.uleb128 0x16
 830 04d4 02040000 		.4byte	0x402
 831 04d8 12000000 		.4byte	.LBB10
 832 04dc 18000000 		.4byte	.Ldebug_ranges0+0x18
 833 04e0 01       		.byte	0x1
 834 04e1 69       		.byte	0x69
 835 04e2 FF040000 		.4byte	0x4ff
 836 04e6 17       		.uleb128 0x17
 837 04e7 12040000 		.4byte	0x412
 838 04eb 14010000 		.4byte	.LLST5
 839 04ef 1B       		.uleb128 0x1b
 840 04f0 18000000 		.4byte	.Ldebug_ranges0+0x18
 841 04f4 1C       		.uleb128 0x1c
 842 04f5 1D040000 		.4byte	0x41d
 843 04f9 27010000 		.4byte	.LLST6
 844 04fd 00       		.byte	0
 845 04fe 00       		.byte	0
 846 04ff 1D       		.uleb128 0x1d
 847 0500 26000000 		.4byte	.LVL13
 848 0504 65050000 		.4byte	0x565
 849 0508 19       		.uleb128 0x19
 850 0509 01       		.uleb128 0x1
 851 050a 50       		.byte	0x50
 852 050b 01       		.uleb128 0x1
ARM GAS  /var/folders/qh/xwg3v3kj02qbxczjpdb8lzfr0000gn/T//cc91f84E.s 			page 16


 853 050c 3C       		.byte	0x3c
 854 050d 00       		.byte	0
 855 050e 00       		.byte	0
 856 050f 1E       		.uleb128 0x1e
 857 0510 D8020000 		.4byte	.LASF70
 858 0514 01       		.byte	0x1
 859 0515 79       		.byte	0x79
 860 0516 00000000 		.4byte	.LFB9
 861 051a 0C000000 		.4byte	.LFE9-.LFB9
 862 051e 01       		.uleb128 0x1
 863 051f 9C       		.byte	0x9c
 864 0520 5A050000 		.4byte	0x55a
 865 0524 14       		.uleb128 0x14
 866 0525 747000   		.ascii	"tp\000"
 867 0528 01       		.byte	0x1
 868 0529 79       		.byte	0x79
 869 052a 14020000 		.4byte	0x214
 870 052e 3A010000 		.4byte	.LLST7
 871 0532 14       		.uleb128 0x14
 872 0533 6D736700 		.ascii	"msg\000"
 873 0537 01       		.byte	0x1
 874 0538 79       		.byte	0x79
 875 0539 CA000000 		.4byte	0xca
 876 053d 5B010000 		.4byte	.LLST8
 877 0541 1D       		.uleb128 0x1d
 878 0542 08000000 		.4byte	.LVL15
 879 0546 8B050000 		.4byte	0x58b
 880 054a 19       		.uleb128 0x19
 881 054b 01       		.uleb128 0x1
 882 054c 51       		.byte	0x51
 883 054d 03       		.uleb128 0x3
 884 054e F3       		.byte	0xf3
 885 054f 01       		.uleb128 0x1
 886 0550 51       		.byte	0x51
 887 0551 19       		.uleb128 0x19
 888 0552 01       		.uleb128 0x1
 889 0553 50       		.byte	0x50
 890 0554 03       		.uleb128 0x3
 891 0555 F3       		.byte	0xf3
 892 0556 01       		.uleb128 0x1
 893 0557 50       		.byte	0x50
 894 0558 00       		.byte	0
 895 0559 00       		.byte	0
 896 055a 1F       		.uleb128 0x1f
 897 055b 89030000 		.4byte	.LASF71
 898 055f 08       		.byte	0x8
 899 0560 68       		.byte	0x68
 900 0561 40030000 		.4byte	0x340
 901 0565 20       		.uleb128 0x20
 902 0566 E5020000 		.4byte	.LASF72
 903 056a 08       		.byte	0x8
 904 056b 8C       		.byte	0x8c
 905 056c 76050000 		.4byte	0x576
 906 0570 21       		.uleb128 0x21
 907 0571 9E000000 		.4byte	0x9e
 908 0575 00       		.byte	0
 909 0576 22       		.uleb128 0x22
ARM GAS  /var/folders/qh/xwg3v3kj02qbxczjpdb8lzfr0000gn/T//cc91f84E.s 			page 17


 910 0577 0F030000 		.4byte	.LASF73
 911 057b 08       		.byte	0x8
 912 057c 89       		.byte	0x89
 913 057d 14020000 		.4byte	0x214
 914 0581 8B050000 		.4byte	0x58b
 915 0585 21       		.uleb128 0x21
 916 0586 14020000 		.4byte	0x214
 917 058a 00       		.byte	0
 918 058b 23       		.uleb128 0x23
 919 058c 61030000 		.4byte	.LASF74
 920 0590 08       		.byte	0x8
 921 0591 92       		.byte	0x92
 922 0592 21       		.uleb128 0x21
 923 0593 14020000 		.4byte	0x214
 924 0597 21       		.uleb128 0x21
 925 0598 CA000000 		.4byte	0xca
 926 059c 00       		.byte	0
 927 059d 00       		.byte	0
 928              		.section	.debug_abbrev,"",%progbits
 929              	.Ldebug_abbrev0:
 930 0000 01       		.uleb128 0x1
 931 0001 11       		.uleb128 0x11
 932 0002 01       		.byte	0x1
 933 0003 25       		.uleb128 0x25
 934 0004 0E       		.uleb128 0xe
 935 0005 13       		.uleb128 0x13
 936 0006 0B       		.uleb128 0xb
 937 0007 03       		.uleb128 0x3
 938 0008 0E       		.uleb128 0xe
 939 0009 1B       		.uleb128 0x1b
 940 000a 0E       		.uleb128 0xe
 941 000b 55       		.uleb128 0x55
 942 000c 17       		.uleb128 0x17
 943 000d 11       		.uleb128 0x11
 944 000e 01       		.uleb128 0x1
 945 000f 10       		.uleb128 0x10
 946 0010 17       		.uleb128 0x17
 947 0011 00       		.byte	0
 948 0012 00       		.byte	0
 949 0013 02       		.uleb128 0x2
 950 0014 24       		.uleb128 0x24
 951 0015 00       		.byte	0
 952 0016 0B       		.uleb128 0xb
 953 0017 0B       		.uleb128 0xb
 954 0018 3E       		.uleb128 0x3e
 955 0019 0B       		.uleb128 0xb
 956 001a 03       		.uleb128 0x3
 957 001b 08       		.uleb128 0x8
 958 001c 00       		.byte	0
 959 001d 00       		.byte	0
 960 001e 03       		.uleb128 0x3
 961 001f 24       		.uleb128 0x24
 962 0020 00       		.byte	0
 963 0021 0B       		.uleb128 0xb
 964 0022 0B       		.uleb128 0xb
 965 0023 3E       		.uleb128 0x3e
 966 0024 0B       		.uleb128 0xb
ARM GAS  /var/folders/qh/xwg3v3kj02qbxczjpdb8lzfr0000gn/T//cc91f84E.s 			page 18


 967 0025 03       		.uleb128 0x3
 968 0026 0E       		.uleb128 0xe
 969 0027 00       		.byte	0
 970 0028 00       		.byte	0
 971 0029 04       		.uleb128 0x4
 972 002a 16       		.uleb128 0x16
 973 002b 00       		.byte	0
 974 002c 03       		.uleb128 0x3
 975 002d 0E       		.uleb128 0xe
 976 002e 3A       		.uleb128 0x3a
 977 002f 0B       		.uleb128 0xb
 978 0030 3B       		.uleb128 0x3b
 979 0031 0B       		.uleb128 0xb
 980 0032 49       		.uleb128 0x49
 981 0033 13       		.uleb128 0x13
 982 0034 00       		.byte	0
 983 0035 00       		.byte	0
 984 0036 05       		.uleb128 0x5
 985 0037 13       		.uleb128 0x13
 986 0038 01       		.byte	0x1
 987 0039 03       		.uleb128 0x3
 988 003a 0E       		.uleb128 0xe
 989 003b 0B       		.uleb128 0xb
 990 003c 0B       		.uleb128 0xb
 991 003d 3A       		.uleb128 0x3a
 992 003e 0B       		.uleb128 0xb
 993 003f 3B       		.uleb128 0x3b
 994 0040 0B       		.uleb128 0xb
 995 0041 01       		.uleb128 0x1
 996 0042 13       		.uleb128 0x13
 997 0043 00       		.byte	0
 998 0044 00       		.byte	0
 999 0045 06       		.uleb128 0x6
 1000 0046 0D       		.uleb128 0xd
 1001 0047 00       		.byte	0
 1002 0048 03       		.uleb128 0x3
 1003 0049 0E       		.uleb128 0xe
 1004 004a 3A       		.uleb128 0x3a
 1005 004b 0B       		.uleb128 0xb
 1006 004c 3B       		.uleb128 0x3b
 1007 004d 0B       		.uleb128 0xb
 1008 004e 49       		.uleb128 0x49
 1009 004f 13       		.uleb128 0x13
 1010 0050 38       		.uleb128 0x38
 1011 0051 0B       		.uleb128 0xb
 1012 0052 00       		.byte	0
 1013 0053 00       		.byte	0
 1014 0054 07       		.uleb128 0x7
 1015 0055 0D       		.uleb128 0xd
 1016 0056 00       		.byte	0
 1017 0057 03       		.uleb128 0x3
 1018 0058 08       		.uleb128 0x8
 1019 0059 3A       		.uleb128 0x3a
 1020 005a 0B       		.uleb128 0xb
 1021 005b 3B       		.uleb128 0x3b
 1022 005c 0B       		.uleb128 0xb
 1023 005d 49       		.uleb128 0x49
ARM GAS  /var/folders/qh/xwg3v3kj02qbxczjpdb8lzfr0000gn/T//cc91f84E.s 			page 19


 1024 005e 13       		.uleb128 0x13
 1025 005f 38       		.uleb128 0x38
 1026 0060 0B       		.uleb128 0xb
 1027 0061 00       		.byte	0
 1028 0062 00       		.byte	0
 1029 0063 08       		.uleb128 0x8
 1030 0064 13       		.uleb128 0x13
 1031 0065 01       		.byte	0x1
 1032 0066 0B       		.uleb128 0xb
 1033 0067 0B       		.uleb128 0xb
 1034 0068 3A       		.uleb128 0x3a
 1035 0069 0B       		.uleb128 0xb
 1036 006a 3B       		.uleb128 0x3b
 1037 006b 0B       		.uleb128 0xb
 1038 006c 01       		.uleb128 0x1
 1039 006d 13       		.uleb128 0x13
 1040 006e 00       		.byte	0
 1041 006f 00       		.byte	0
 1042 0070 09       		.uleb128 0x9
 1043 0071 0F       		.uleb128 0xf
 1044 0072 00       		.byte	0
 1045 0073 0B       		.uleb128 0xb
 1046 0074 0B       		.uleb128 0xb
 1047 0075 49       		.uleb128 0x49
 1048 0076 13       		.uleb128 0x13
 1049 0077 00       		.byte	0
 1050 0078 00       		.byte	0
 1051 0079 0A       		.uleb128 0xa
 1052 007a 0F       		.uleb128 0xf
 1053 007b 00       		.byte	0
 1054 007c 0B       		.uleb128 0xb
 1055 007d 0B       		.uleb128 0xb
 1056 007e 00       		.byte	0
 1057 007f 00       		.byte	0
 1058 0080 0B       		.uleb128 0xb
 1059 0081 35       		.uleb128 0x35
 1060 0082 00       		.byte	0
 1061 0083 49       		.uleb128 0x49
 1062 0084 13       		.uleb128 0x13
 1063 0085 00       		.byte	0
 1064 0086 00       		.byte	0
 1065 0087 0C       		.uleb128 0xc
 1066 0088 17       		.uleb128 0x17
 1067 0089 01       		.byte	0x1
 1068 008a 0B       		.uleb128 0xb
 1069 008b 0B       		.uleb128 0xb
 1070 008c 3A       		.uleb128 0x3a
 1071 008d 0B       		.uleb128 0xb
 1072 008e 3B       		.uleb128 0x3b
 1073 008f 0B       		.uleb128 0xb
 1074 0090 01       		.uleb128 0x1
 1075 0091 13       		.uleb128 0x13
 1076 0092 00       		.byte	0
 1077 0093 00       		.byte	0
 1078 0094 0D       		.uleb128 0xd
 1079 0095 0D       		.uleb128 0xd
 1080 0096 00       		.byte	0
ARM GAS  /var/folders/qh/xwg3v3kj02qbxczjpdb8lzfr0000gn/T//cc91f84E.s 			page 20


 1081 0097 03       		.uleb128 0x3
 1082 0098 0E       		.uleb128 0xe
 1083 0099 3A       		.uleb128 0x3a
 1084 009a 0B       		.uleb128 0xb
 1085 009b 3B       		.uleb128 0x3b
 1086 009c 0B       		.uleb128 0xb
 1087 009d 49       		.uleb128 0x49
 1088 009e 13       		.uleb128 0x13
 1089 009f 00       		.byte	0
 1090 00a0 00       		.byte	0
 1091 00a1 0E       		.uleb128 0xe
 1092 00a2 26       		.uleb128 0x26
 1093 00a3 00       		.byte	0
 1094 00a4 49       		.uleb128 0x49
 1095 00a5 13       		.uleb128 0x13
 1096 00a6 00       		.byte	0
 1097 00a7 00       		.byte	0
 1098 00a8 0F       		.uleb128 0xf
 1099 00a9 2E       		.uleb128 0x2e
 1100 00aa 01       		.byte	0x1
 1101 00ab 03       		.uleb128 0x3
 1102 00ac 0E       		.uleb128 0xe
 1103 00ad 3A       		.uleb128 0x3a
 1104 00ae 0B       		.uleb128 0xb
 1105 00af 3B       		.uleb128 0x3b
 1106 00b0 0B       		.uleb128 0xb
 1107 00b1 27       		.uleb128 0x27
 1108 00b2 19       		.uleb128 0x19
 1109 00b3 20       		.uleb128 0x20
 1110 00b4 0B       		.uleb128 0xb
 1111 00b5 01       		.uleb128 0x1
 1112 00b6 13       		.uleb128 0x13
 1113 00b7 00       		.byte	0
 1114 00b8 00       		.byte	0
 1115 00b9 10       		.uleb128 0x10
 1116 00ba 05       		.uleb128 0x5
 1117 00bb 00       		.byte	0
 1118 00bc 03       		.uleb128 0x3
 1119 00bd 08       		.uleb128 0x8
 1120 00be 3A       		.uleb128 0x3a
 1121 00bf 0B       		.uleb128 0xb
 1122 00c0 3B       		.uleb128 0x3b
 1123 00c1 0B       		.uleb128 0xb
 1124 00c2 49       		.uleb128 0x49
 1125 00c3 13       		.uleb128 0x13
 1126 00c4 00       		.byte	0
 1127 00c5 00       		.byte	0
 1128 00c6 11       		.uleb128 0x11
 1129 00c7 2E       		.uleb128 0x2e
 1130 00c8 01       		.byte	0x1
 1131 00c9 03       		.uleb128 0x3
 1132 00ca 0E       		.uleb128 0xe
 1133 00cb 3A       		.uleb128 0x3a
 1134 00cc 0B       		.uleb128 0xb
 1135 00cd 3B       		.uleb128 0x3b
 1136 00ce 0B       		.uleb128 0xb
 1137 00cf 27       		.uleb128 0x27
ARM GAS  /var/folders/qh/xwg3v3kj02qbxczjpdb8lzfr0000gn/T//cc91f84E.s 			page 21


 1138 00d0 19       		.uleb128 0x19
 1139 00d1 49       		.uleb128 0x49
 1140 00d2 13       		.uleb128 0x13
 1141 00d3 20       		.uleb128 0x20
 1142 00d4 0B       		.uleb128 0xb
 1143 00d5 01       		.uleb128 0x1
 1144 00d6 13       		.uleb128 0x13
 1145 00d7 00       		.byte	0
 1146 00d8 00       		.byte	0
 1147 00d9 12       		.uleb128 0x12
 1148 00da 34       		.uleb128 0x34
 1149 00db 00       		.byte	0
 1150 00dc 03       		.uleb128 0x3
 1151 00dd 08       		.uleb128 0x8
 1152 00de 3A       		.uleb128 0x3a
 1153 00df 0B       		.uleb128 0xb
 1154 00e0 3B       		.uleb128 0x3b
 1155 00e1 0B       		.uleb128 0xb
 1156 00e2 49       		.uleb128 0x49
 1157 00e3 13       		.uleb128 0x13
 1158 00e4 00       		.byte	0
 1159 00e5 00       		.byte	0
 1160 00e6 13       		.uleb128 0x13
 1161 00e7 2E       		.uleb128 0x2e
 1162 00e8 01       		.byte	0x1
 1163 00e9 3F       		.uleb128 0x3f
 1164 00ea 19       		.uleb128 0x19
 1165 00eb 03       		.uleb128 0x3
 1166 00ec 0E       		.uleb128 0xe
 1167 00ed 3A       		.uleb128 0x3a
 1168 00ee 0B       		.uleb128 0xb
 1169 00ef 3B       		.uleb128 0x3b
 1170 00f0 0B       		.uleb128 0xb
 1171 00f1 27       		.uleb128 0x27
 1172 00f2 19       		.uleb128 0x19
 1173 00f3 49       		.uleb128 0x49
 1174 00f4 13       		.uleb128 0x13
 1175 00f5 11       		.uleb128 0x11
 1176 00f6 01       		.uleb128 0x1
 1177 00f7 12       		.uleb128 0x12
 1178 00f8 06       		.uleb128 0x6
 1179 00f9 40       		.uleb128 0x40
 1180 00fa 18       		.uleb128 0x18
 1181 00fb 9742     		.uleb128 0x2117
 1182 00fd 19       		.uleb128 0x19
 1183 00fe 01       		.uleb128 0x1
 1184 00ff 13       		.uleb128 0x13
 1185 0100 00       		.byte	0
 1186 0101 00       		.byte	0
 1187 0102 14       		.uleb128 0x14
 1188 0103 05       		.uleb128 0x5
 1189 0104 00       		.byte	0
 1190 0105 03       		.uleb128 0x3
 1191 0106 08       		.uleb128 0x8
 1192 0107 3A       		.uleb128 0x3a
 1193 0108 0B       		.uleb128 0xb
 1194 0109 3B       		.uleb128 0x3b
ARM GAS  /var/folders/qh/xwg3v3kj02qbxczjpdb8lzfr0000gn/T//cc91f84E.s 			page 22


 1195 010a 0B       		.uleb128 0xb
 1196 010b 49       		.uleb128 0x49
 1197 010c 13       		.uleb128 0x13
 1198 010d 02       		.uleb128 0x2
 1199 010e 17       		.uleb128 0x17
 1200 010f 00       		.byte	0
 1201 0110 00       		.byte	0
 1202 0111 15       		.uleb128 0x15
 1203 0112 34       		.uleb128 0x34
 1204 0113 00       		.byte	0
 1205 0114 03       		.uleb128 0x3
 1206 0115 08       		.uleb128 0x8
 1207 0116 3A       		.uleb128 0x3a
 1208 0117 0B       		.uleb128 0xb
 1209 0118 3B       		.uleb128 0x3b
 1210 0119 0B       		.uleb128 0xb
 1211 011a 49       		.uleb128 0x49
 1212 011b 13       		.uleb128 0x13
 1213 011c 02       		.uleb128 0x2
 1214 011d 17       		.uleb128 0x17
 1215 011e 00       		.byte	0
 1216 011f 00       		.byte	0
 1217 0120 16       		.uleb128 0x16
 1218 0121 1D       		.uleb128 0x1d
 1219 0122 01       		.byte	0x1
 1220 0123 31       		.uleb128 0x31
 1221 0124 13       		.uleb128 0x13
 1222 0125 52       		.uleb128 0x52
 1223 0126 01       		.uleb128 0x1
 1224 0127 55       		.uleb128 0x55
 1225 0128 17       		.uleb128 0x17
 1226 0129 58       		.uleb128 0x58
 1227 012a 0B       		.uleb128 0xb
 1228 012b 59       		.uleb128 0x59
 1229 012c 0B       		.uleb128 0xb
 1230 012d 01       		.uleb128 0x1
 1231 012e 13       		.uleb128 0x13
 1232 012f 00       		.byte	0
 1233 0130 00       		.byte	0
 1234 0131 17       		.uleb128 0x17
 1235 0132 05       		.uleb128 0x5
 1236 0133 00       		.byte	0
 1237 0134 31       		.uleb128 0x31
 1238 0135 13       		.uleb128 0x13
 1239 0136 02       		.uleb128 0x2
 1240 0137 17       		.uleb128 0x17
 1241 0138 00       		.byte	0
 1242 0139 00       		.byte	0
 1243 013a 18       		.uleb128 0x18
 1244 013b 898201   		.uleb128 0x4109
 1245 013e 01       		.byte	0x1
 1246 013f 11       		.uleb128 0x11
 1247 0140 01       		.uleb128 0x1
 1248 0141 31       		.uleb128 0x31
 1249 0142 13       		.uleb128 0x13
 1250 0143 01       		.uleb128 0x1
 1251 0144 13       		.uleb128 0x13
ARM GAS  /var/folders/qh/xwg3v3kj02qbxczjpdb8lzfr0000gn/T//cc91f84E.s 			page 23


 1252 0145 00       		.byte	0
 1253 0146 00       		.byte	0
 1254 0147 19       		.uleb128 0x19
 1255 0148 8A8201   		.uleb128 0x410a
 1256 014b 00       		.byte	0
 1257 014c 02       		.uleb128 0x2
 1258 014d 18       		.uleb128 0x18
 1259 014e 9142     		.uleb128 0x2111
 1260 0150 18       		.uleb128 0x18
 1261 0151 00       		.byte	0
 1262 0152 00       		.byte	0
 1263 0153 1A       		.uleb128 0x1a
 1264 0154 898201   		.uleb128 0x4109
 1265 0157 00       		.byte	0
 1266 0158 11       		.uleb128 0x11
 1267 0159 01       		.uleb128 0x1
 1268 015a 31       		.uleb128 0x31
 1269 015b 13       		.uleb128 0x13
 1270 015c 00       		.byte	0
 1271 015d 00       		.byte	0
 1272 015e 1B       		.uleb128 0x1b
 1273 015f 0B       		.uleb128 0xb
 1274 0160 01       		.byte	0x1
 1275 0161 55       		.uleb128 0x55
 1276 0162 17       		.uleb128 0x17
 1277 0163 00       		.byte	0
 1278 0164 00       		.byte	0
 1279 0165 1C       		.uleb128 0x1c
 1280 0166 34       		.uleb128 0x34
 1281 0167 00       		.byte	0
 1282 0168 31       		.uleb128 0x31
 1283 0169 13       		.uleb128 0x13
 1284 016a 02       		.uleb128 0x2
 1285 016b 17       		.uleb128 0x17
 1286 016c 00       		.byte	0
 1287 016d 00       		.byte	0
 1288 016e 1D       		.uleb128 0x1d
 1289 016f 898201   		.uleb128 0x4109
 1290 0172 01       		.byte	0x1
 1291 0173 11       		.uleb128 0x11
 1292 0174 01       		.uleb128 0x1
 1293 0175 31       		.uleb128 0x31
 1294 0176 13       		.uleb128 0x13
 1295 0177 00       		.byte	0
 1296 0178 00       		.byte	0
 1297 0179 1E       		.uleb128 0x1e
 1298 017a 2E       		.uleb128 0x2e
 1299 017b 01       		.byte	0x1
 1300 017c 3F       		.uleb128 0x3f
 1301 017d 19       		.uleb128 0x19
 1302 017e 03       		.uleb128 0x3
 1303 017f 0E       		.uleb128 0xe
 1304 0180 3A       		.uleb128 0x3a
 1305 0181 0B       		.uleb128 0xb
 1306 0182 3B       		.uleb128 0x3b
 1307 0183 0B       		.uleb128 0xb
 1308 0184 27       		.uleb128 0x27
ARM GAS  /var/folders/qh/xwg3v3kj02qbxczjpdb8lzfr0000gn/T//cc91f84E.s 			page 24


 1309 0185 19       		.uleb128 0x19
 1310 0186 11       		.uleb128 0x11
 1311 0187 01       		.uleb128 0x1
 1312 0188 12       		.uleb128 0x12
 1313 0189 06       		.uleb128 0x6
 1314 018a 40       		.uleb128 0x40
 1315 018b 18       		.uleb128 0x18
 1316 018c 9742     		.uleb128 0x2117
 1317 018e 19       		.uleb128 0x19
 1318 018f 01       		.uleb128 0x1
 1319 0190 13       		.uleb128 0x13
 1320 0191 00       		.byte	0
 1321 0192 00       		.byte	0
 1322 0193 1F       		.uleb128 0x1f
 1323 0194 34       		.uleb128 0x34
 1324 0195 00       		.byte	0
 1325 0196 03       		.uleb128 0x3
 1326 0197 0E       		.uleb128 0xe
 1327 0198 3A       		.uleb128 0x3a
 1328 0199 0B       		.uleb128 0xb
 1329 019a 3B       		.uleb128 0x3b
 1330 019b 0B       		.uleb128 0xb
 1331 019c 49       		.uleb128 0x49
 1332 019d 13       		.uleb128 0x13
 1333 019e 3F       		.uleb128 0x3f
 1334 019f 19       		.uleb128 0x19
 1335 01a0 3C       		.uleb128 0x3c
 1336 01a1 19       		.uleb128 0x19
 1337 01a2 00       		.byte	0
 1338 01a3 00       		.byte	0
 1339 01a4 20       		.uleb128 0x20
 1340 01a5 2E       		.uleb128 0x2e
 1341 01a6 01       		.byte	0x1
 1342 01a7 3F       		.uleb128 0x3f
 1343 01a8 19       		.uleb128 0x19
 1344 01a9 03       		.uleb128 0x3
 1345 01aa 0E       		.uleb128 0xe
 1346 01ab 3A       		.uleb128 0x3a
 1347 01ac 0B       		.uleb128 0xb
 1348 01ad 3B       		.uleb128 0x3b
 1349 01ae 0B       		.uleb128 0xb
 1350 01af 27       		.uleb128 0x27
 1351 01b0 19       		.uleb128 0x19
 1352 01b1 3C       		.uleb128 0x3c
 1353 01b2 19       		.uleb128 0x19
 1354 01b3 01       		.uleb128 0x1
 1355 01b4 13       		.uleb128 0x13
 1356 01b5 00       		.byte	0
 1357 01b6 00       		.byte	0
 1358 01b7 21       		.uleb128 0x21
 1359 01b8 05       		.uleb128 0x5
 1360 01b9 00       		.byte	0
 1361 01ba 49       		.uleb128 0x49
 1362 01bb 13       		.uleb128 0x13
 1363 01bc 00       		.byte	0
 1364 01bd 00       		.byte	0
 1365 01be 22       		.uleb128 0x22
ARM GAS  /var/folders/qh/xwg3v3kj02qbxczjpdb8lzfr0000gn/T//cc91f84E.s 			page 25


 1366 01bf 2E       		.uleb128 0x2e
 1367 01c0 01       		.byte	0x1
 1368 01c1 3F       		.uleb128 0x3f
 1369 01c2 19       		.uleb128 0x19
 1370 01c3 03       		.uleb128 0x3
 1371 01c4 0E       		.uleb128 0xe
 1372 01c5 3A       		.uleb128 0x3a
 1373 01c6 0B       		.uleb128 0xb
 1374 01c7 3B       		.uleb128 0x3b
 1375 01c8 0B       		.uleb128 0xb
 1376 01c9 27       		.uleb128 0x27
 1377 01ca 19       		.uleb128 0x19
 1378 01cb 49       		.uleb128 0x49
 1379 01cc 13       		.uleb128 0x13
 1380 01cd 3C       		.uleb128 0x3c
 1381 01ce 19       		.uleb128 0x19
 1382 01cf 01       		.uleb128 0x1
 1383 01d0 13       		.uleb128 0x13
 1384 01d1 00       		.byte	0
 1385 01d2 00       		.byte	0
 1386 01d3 23       		.uleb128 0x23
 1387 01d4 2E       		.uleb128 0x2e
 1388 01d5 01       		.byte	0x1
 1389 01d6 3F       		.uleb128 0x3f
 1390 01d7 19       		.uleb128 0x19
 1391 01d8 03       		.uleb128 0x3
 1392 01d9 0E       		.uleb128 0xe
 1393 01da 3A       		.uleb128 0x3a
 1394 01db 0B       		.uleb128 0xb
 1395 01dc 3B       		.uleb128 0x3b
 1396 01dd 0B       		.uleb128 0xb
 1397 01de 27       		.uleb128 0x27
 1398 01df 19       		.uleb128 0x19
 1399 01e0 3C       		.uleb128 0x3c
 1400 01e1 19       		.uleb128 0x19
 1401 01e2 00       		.byte	0
 1402 01e3 00       		.byte	0
 1403 01e4 00       		.byte	0
 1404              		.section	.debug_loc,"",%progbits
 1405              	.Ldebug_loc0:
 1406              	.LLST0:
 1407 0000 00000000 		.4byte	.LVL0
 1408 0004 20000000 		.4byte	.LVL5
 1409 0008 0100     		.2byte	0x1
 1410 000a 50       		.byte	0x50
 1411 000b 20000000 		.4byte	.LVL5
 1412 000f 2C000000 		.4byte	.LVL9
 1413 0013 0400     		.2byte	0x4
 1414 0015 F3       		.byte	0xf3
 1415 0016 01       		.uleb128 0x1
 1416 0017 50       		.byte	0x50
 1417 0018 9F       		.byte	0x9f
 1418 0019 2C000000 		.4byte	.LVL9
 1419 001d 2F000000 		.4byte	.LVL10-1
 1420 0021 0100     		.2byte	0x1
 1421 0023 50       		.byte	0x50
 1422 0024 2F000000 		.4byte	.LVL10-1
ARM GAS  /var/folders/qh/xwg3v3kj02qbxczjpdb8lzfr0000gn/T//cc91f84E.s 			page 26


 1423 0028 38000000 		.4byte	.LFE7
 1424 002c 0400     		.2byte	0x4
 1425 002e F3       		.byte	0xf3
 1426 002f 01       		.uleb128 0x1
 1427 0030 50       		.byte	0x50
 1428 0031 9F       		.byte	0x9f
 1429 0032 00000000 		.4byte	0
 1430 0036 00000000 		.4byte	0
 1431              	.LLST1:
 1432 003a 00000000 		.4byte	.LVL0
 1433 003e 20000000 		.4byte	.LVL5
 1434 0042 0100     		.2byte	0x1
 1435 0044 51       		.byte	0x51
 1436 0045 20000000 		.4byte	.LVL5
 1437 0049 28000000 		.4byte	.LVL7
 1438 004d 0400     		.2byte	0x4
 1439 004f F3       		.byte	0xf3
 1440 0050 01       		.uleb128 0x1
 1441 0051 51       		.byte	0x51
 1442 0052 9F       		.byte	0x9f
 1443 0053 28000000 		.4byte	.LVL7
 1444 0057 2C000000 		.4byte	.LVL9
 1445 005b 0100     		.2byte	0x1
 1446 005d 50       		.byte	0x50
 1447 005e 2C000000 		.4byte	.LVL9
 1448 0062 2F000000 		.4byte	.LVL10-1
 1449 0066 0100     		.2byte	0x1
 1450 0068 51       		.byte	0x51
 1451 0069 2F000000 		.4byte	.LVL10-1
 1452 006d 38000000 		.4byte	.LFE7
 1453 0071 0400     		.2byte	0x4
 1454 0073 F3       		.byte	0xf3
 1455 0074 01       		.uleb128 0x1
 1456 0075 51       		.byte	0x51
 1457 0076 9F       		.byte	0x9f
 1458 0077 00000000 		.4byte	0
 1459 007b 00000000 		.4byte	0
 1460              	.LLST2:
 1461 007f 06000000 		.4byte	.LVL1
 1462 0083 2A000000 		.4byte	.LVL8
 1463 0087 0100     		.2byte	0x1
 1464 0089 54       		.byte	0x54
 1465 008a 2C000000 		.4byte	.LVL9
 1466 008e 38000000 		.4byte	.LFE7
 1467 0092 0100     		.2byte	0x1
 1468 0094 54       		.byte	0x54
 1469 0095 00000000 		.4byte	0
 1470 0099 00000000 		.4byte	0
 1471              	.LLST3:
 1472 009d 0E000000 		.4byte	.LVL2
 1473 00a1 12000000 		.4byte	.LVL3
 1474 00a5 0100     		.2byte	0x1
 1475 00a7 53       		.byte	0x53
 1476 00a8 12000000 		.4byte	.LVL3
 1477 00ac 1A000000 		.4byte	.LVL4
 1478 00b0 0200     		.2byte	0x2
 1479 00b2 74       		.byte	0x74
ARM GAS  /var/folders/qh/xwg3v3kj02qbxczjpdb8lzfr0000gn/T//cc91f84E.s 			page 27


 1480 00b3 00       		.sleb128 0
 1481 00b4 1A000000 		.4byte	.LVL4
 1482 00b8 20000000 		.4byte	.LVL5
 1483 00bc 0300     		.2byte	0x3
 1484 00be 70       		.byte	0x70
 1485 00bf 2C       		.sleb128 44
 1486 00c0 9F       		.byte	0x9f
 1487 00c1 20000000 		.4byte	.LVL5
 1488 00c5 2C000000 		.4byte	.LVL9
 1489 00c9 0600     		.2byte	0x6
 1490 00cb F3       		.byte	0xf3
 1491 00cc 01       		.uleb128 0x1
 1492 00cd 50       		.byte	0x50
 1493 00ce 23       		.byte	0x23
 1494 00cf 2C       		.uleb128 0x2c
 1495 00d0 9F       		.byte	0x9f
 1496 00d1 2C000000 		.4byte	.LVL9
 1497 00d5 2F000000 		.4byte	.LVL10-1
 1498 00d9 0300     		.2byte	0x3
 1499 00db 70       		.byte	0x70
 1500 00dc 2C       		.sleb128 44
 1501 00dd 9F       		.byte	0x9f
 1502 00de 2F000000 		.4byte	.LVL10-1
 1503 00e2 38000000 		.4byte	.LFE7
 1504 00e6 0600     		.2byte	0x6
 1505 00e8 F3       		.byte	0xf3
 1506 00e9 01       		.uleb128 0x1
 1507 00ea 50       		.byte	0x50
 1508 00eb 23       		.byte	0x23
 1509 00ec 2C       		.uleb128 0x2c
 1510 00ed 9F       		.byte	0x9f
 1511 00ee 00000000 		.4byte	0
 1512 00f2 00000000 		.4byte	0
 1513              	.LLST4:
 1514 00f6 0E000000 		.4byte	.LVL2
 1515 00fa 2A000000 		.4byte	.LVL8
 1516 00fe 0100     		.2byte	0x1
 1517 0100 54       		.byte	0x54
 1518 0101 2C000000 		.4byte	.LVL9
 1519 0105 38000000 		.4byte	.LFE7
 1520 0109 0100     		.2byte	0x1
 1521 010b 54       		.byte	0x54
 1522 010c 00000000 		.4byte	0
 1523 0110 00000000 		.4byte	0
 1524              	.LLST5:
 1525 0114 12000000 		.4byte	.LVL11
 1526 0118 20000000 		.4byte	.LVL12
 1527 011c 0100     		.2byte	0x1
 1528 011e 52       		.byte	0x52
 1529 011f 00000000 		.4byte	0
 1530 0123 00000000 		.4byte	0
 1531              	.LLST6:
 1532 0127 12000000 		.4byte	.LVL11
 1533 012b 20000000 		.4byte	.LVL12
 1534 012f 0100     		.2byte	0x1
 1535 0131 50       		.byte	0x50
 1536 0132 00000000 		.4byte	0
ARM GAS  /var/folders/qh/xwg3v3kj02qbxczjpdb8lzfr0000gn/T//cc91f84E.s 			page 28


 1537 0136 00000000 		.4byte	0
 1538              	.LLST7:
 1539 013a 00000000 		.4byte	.LVL14
 1540 013e 07000000 		.4byte	.LVL15-1
 1541 0142 0100     		.2byte	0x1
 1542 0144 50       		.byte	0x50
 1543 0145 07000000 		.4byte	.LVL15-1
 1544 0149 0C000000 		.4byte	.LFE9
 1545 014d 0400     		.2byte	0x4
 1546 014f F3       		.byte	0xf3
 1547 0150 01       		.uleb128 0x1
 1548 0151 50       		.byte	0x50
 1549 0152 9F       		.byte	0x9f
 1550 0153 00000000 		.4byte	0
 1551 0157 00000000 		.4byte	0
 1552              	.LLST8:
 1553 015b 00000000 		.4byte	.LVL14
 1554 015f 07000000 		.4byte	.LVL15-1
 1555 0163 0100     		.2byte	0x1
 1556 0165 51       		.byte	0x51
 1557 0166 07000000 		.4byte	.LVL15-1
 1558 016a 0C000000 		.4byte	.LFE9
 1559 016e 0400     		.2byte	0x4
 1560 0170 F3       		.byte	0xf3
 1561 0171 01       		.uleb128 0x1
 1562 0172 51       		.byte	0x51
 1563 0173 9F       		.byte	0x9f
 1564 0174 00000000 		.4byte	0
 1565 0178 00000000 		.4byte	0
 1566              		.section	.debug_aranges,"",%progbits
 1567 0000 2C000000 		.4byte	0x2c
 1568 0004 0200     		.2byte	0x2
 1569 0006 00000000 		.4byte	.Ldebug_info0
 1570 000a 04       		.byte	0x4
 1571 000b 00       		.byte	0
 1572 000c 0000     		.2byte	0
 1573 000e 0000     		.2byte	0
 1574 0010 00000000 		.4byte	.LFB7
 1575 0014 38000000 		.4byte	.LFE7-.LFB7
 1576 0018 00000000 		.4byte	.LFB8
 1577 001c 34000000 		.4byte	.LFE8-.LFB8
 1578 0020 00000000 		.4byte	.LFB9
 1579 0024 0C000000 		.4byte	.LFE9-.LFB9
 1580 0028 00000000 		.4byte	0
 1581 002c 00000000 		.4byte	0
 1582              		.section	.debug_ranges,"",%progbits
 1583              	.Ldebug_ranges0:
 1584 0000 0E000000 		.4byte	.LBB6
 1585 0004 12000000 		.4byte	.LBE6
 1586 0008 14000000 		.4byte	.LBB9
 1587 000c 1A000000 		.4byte	.LBE9
 1588 0010 00000000 		.4byte	0
 1589 0014 00000000 		.4byte	0
 1590 0018 12000000 		.4byte	.LBB10
 1591 001c 16000000 		.4byte	.LBE10
 1592 0020 18000000 		.4byte	.LBB13
 1593 0024 1A000000 		.4byte	.LBE13
ARM GAS  /var/folders/qh/xwg3v3kj02qbxczjpdb8lzfr0000gn/T//cc91f84E.s 			page 29


 1594 0028 00000000 		.4byte	0
 1595 002c 00000000 		.4byte	0
 1596 0030 00000000 		.4byte	.LFB7
 1597 0034 38000000 		.4byte	.LFE7
 1598 0038 00000000 		.4byte	.LFB8
 1599 003c 34000000 		.4byte	.LFE8
 1600 0040 00000000 		.4byte	.LFB9
 1601 0044 0C000000 		.4byte	.LFE9
 1602 0048 00000000 		.4byte	0
 1603 004c 00000000 		.4byte	0
 1604              		.section	.debug_line,"",%progbits
 1605              	.Ldebug_line0:
 1606 0000 87010000 		.section	.debug_str,"MS",%progbits,1
 1606      02001401 
 1606      00000201 
 1606      FB0E0D00 
 1606      01010101 
 1607              	.LASF36:
 1608 0000 705F6D73 		.ascii	"p_msg\000"
 1608      6700
 1609              	.LASF68:
 1610 0006 71756575 		.ascii	"queue_insert\000"
 1610      655F696E 
 1610      73657274 
 1610      00
 1611              	.LASF58:
 1612 0013 7264796D 		.ascii	"rdymsg\000"
 1612      736700
 1613              	.LASF11:
 1614 001a 6C6F6E67 		.ascii	"long long unsigned int\000"
 1614      206C6F6E 
 1614      6720756E 
 1614      7369676E 
 1614      65642069 
 1615              	.LASF59:
 1616 0031 65786974 		.ascii	"exitcode\000"
 1616      636F6465 
 1616      00
 1617              	.LASF24:
 1618 003a 705F7072 		.ascii	"p_prio\000"
 1618      696F00
 1619              	.LASF10:
 1620 0041 6C6F6E67 		.ascii	"long long int\000"
 1620      206C6F6E 
 1620      6720696E 
 1620      7400
 1621              	.LASF1:
 1622 004f 7369676E 		.ascii	"signed char\000"
 1622      65642063 
 1622      68617200 
 1623              	.LASF40:
 1624 005b 705F6D70 		.ascii	"p_mpool\000"
 1624      6F6F6C00 
 1625              	.LASF55:
 1626 0063 6D5F7175 		.ascii	"m_queue\000"
 1626      65756500 
 1627              	.LASF16:
ARM GAS  /var/folders/qh/xwg3v3kj02qbxczjpdb8lzfr0000gn/T//cc91f84E.s 			page 30


 1628 006b 74736C69 		.ascii	"tslices_t\000"
 1628      6365735F 
 1628      7400
 1629              	.LASF7:
 1630 0075 6C6F6E67 		.ascii	"long int\000"
 1630      20696E74 
 1630      00
 1631              	.LASF63:
 1632 007e 63684D73 		.ascii	"chMsgSend\000"
 1632      6753656E 
 1632      6400
 1633              	.LASF14:
 1634 0088 74737461 		.ascii	"tstate_t\000"
 1634      74655F74 
 1634      00
 1635              	.LASF26:
 1636 0091 705F6E65 		.ascii	"p_newer\000"
 1636      77657200 
 1637              	.LASF50:
 1638 0099 725F6E65 		.ascii	"r_newer\000"
 1638      77657200 
 1639              	.LASF43:
 1640 00a1 72656761 		.ascii	"regarm_t\000"
 1640      726D5F74 
 1640      00
 1641              	.LASF0:
 1642 00aa 756E7369 		.ascii	"unsigned int\000"
 1642      676E6564 
 1642      20696E74 
 1642      00
 1643              	.LASF9:
 1644 00b7 6C6F6E67 		.ascii	"long unsigned int\000"
 1644      20756E73 
 1644      69676E65 
 1644      6420696E 
 1644      7400
 1645              	.LASF67:
 1646 00c9 2F557365 		.ascii	"/Users/John/Development/embedded/ChibiOS-RT/BluC/ST"
 1646      72732F4A 
 1646      6F686E2F 
 1646      44657665 
 1646      6C6F706D 
 1647 00fc 4D333246 		.ascii	"M32F051\000"
 1647      30353100 
 1648              	.LASF45:
 1649 0104 636F6E74 		.ascii	"context\000"
 1649      65787400 
 1650              	.LASF4:
 1651 010c 73686F72 		.ascii	"short unsigned int\000"
 1651      7420756E 
 1651      7369676E 
 1651      65642069 
 1651      6E7400
 1652              	.LASF18:
 1653 011f 6D73675F 		.ascii	"msg_t\000"
 1653      7400
 1654              	.LASF13:
ARM GAS  /var/folders/qh/xwg3v3kj02qbxczjpdb8lzfr0000gn/T//cc91f84E.s 			page 31


 1655 0125 746D6F64 		.ascii	"tmode_t\000"
 1655      655F7400 
 1656              	.LASF42:
 1657 012d 54687265 		.ascii	"ThreadsList\000"
 1657      6164734C 
 1657      69737400 
 1658              	.LASF19:
 1659 0139 6576656E 		.ascii	"eventmask_t\000"
 1659      746D6173 
 1659      6B5F7400 
 1660              	.LASF54:
 1661 0145 4D757465 		.ascii	"Mutex\000"
 1661      7800
 1662              	.LASF46:
 1663 014b 73697A65 		.ascii	"sizetype\000"
 1663      74797065 
 1663      00
 1664              	.LASF65:
 1665 0154 474E5520 		.ascii	"GNU C 4.8.3 20131129 (release) [ARM/embedded-4_8-br"
 1665      4320342E 
 1665      382E3320 
 1665      32303133 
 1665      31313239 
 1666 0187 616E6368 		.ascii	"anch revision 205641] -mcpu=cortex-m0 -mno-thumb-in"
 1666      20726576 
 1666      6973696F 
 1666      6E203230 
 1666      35363431 
 1667 01ba 74657277 		.ascii	"terwork -mthumb -ggdb -O2 -fomit-frame-pointer -fal"
 1667      6F726B20 
 1667      2D6D7468 
 1667      756D6220 
 1667      2D676764 
 1668 01ed 69676E2D 		.ascii	"ign-functions=16 -ffunction-sections -fdata-section"
 1668      66756E63 
 1668      74696F6E 
 1668      733D3136 
 1668      202D6666 
 1669 0220 73202D66 		.ascii	"s -fno-common\000"
 1669      6E6F2D63 
 1669      6F6D6D6F 
 1669      6E00
 1670              	.LASF27:
 1671 022e 705F6F6C 		.ascii	"p_older\000"
 1671      64657200 
 1672              	.LASF49:
 1673 0236 725F6374 		.ascii	"r_ctx\000"
 1673      7800
 1674              	.LASF41:
 1675 023c 54687265 		.ascii	"ThreadsQueue\000"
 1675      61647351 
 1675      75657565 
 1675      00
 1676              	.LASF52:
 1677 0249 725F6375 		.ascii	"r_current\000"
 1677      7272656E 
 1677      7400
ARM GAS  /var/folders/qh/xwg3v3kj02qbxczjpdb8lzfr0000gn/T//cc91f84E.s 			page 32


 1678              	.LASF51:
 1679 0253 725F6F6C 		.ascii	"r_older\000"
 1679      64657200 
 1680              	.LASF15:
 1681 025b 74726566 		.ascii	"trefs_t\000"
 1681      735F7400 
 1682              	.LASF23:
 1683 0263 705F7072 		.ascii	"p_prev\000"
 1683      657600
 1684              	.LASF17:
 1685 026a 74707269 		.ascii	"tprio_t\000"
 1685      6F5F7400 
 1686              	.LASF12:
 1687 0272 5F426F6F 		.ascii	"_Bool\000"
 1687      6C00
 1688              	.LASF6:
 1689 0278 696E7433 		.ascii	"int32_t\000"
 1689      325F7400 
 1690              	.LASF2:
 1691 0280 756E7369 		.ascii	"unsigned char\000"
 1691      676E6564 
 1691      20636861 
 1691      7200
 1692              	.LASF38:
 1693 028e 705F6D74 		.ascii	"p_mtxlist\000"
 1693      786C6973 
 1693      7400
 1694              	.LASF3:
 1695 0298 73686F72 		.ascii	"short int\000"
 1695      7420696E 
 1695      7400
 1696              	.LASF29:
 1697 02a2 705F7374 		.ascii	"p_state\000"
 1697      61746500 
 1698              	.LASF32:
 1699 02aa 705F7072 		.ascii	"p_preempt\000"
 1699      65656D70 
 1699      7400
 1700              	.LASF48:
 1701 02b4 725F7072 		.ascii	"r_prio\000"
 1701      696F00
 1702              	.LASF61:
 1703 02bb 65776D61 		.ascii	"ewmask\000"
 1703      736B00
 1704              	.LASF22:
 1705 02c2 705F6E65 		.ascii	"p_next\000"
 1705      787400
 1706              	.LASF30:
 1707 02c9 705F666C 		.ascii	"p_flags\000"
 1707      61677300 
 1708              	.LASF21:
 1709 02d1 54687265 		.ascii	"Thread\000"
 1709      616400
 1710              	.LASF70:
 1711 02d8 63684D73 		.ascii	"chMsgRelease\000"
 1711      6752656C 
 1711      65617365 
ARM GAS  /var/folders/qh/xwg3v3kj02qbxczjpdb8lzfr0000gn/T//cc91f84E.s 			page 33


 1711      00
 1712              	.LASF72:
 1713 02e5 63685363 		.ascii	"chSchGoSleepS\000"
 1713      68476F53 
 1713      6C656570 
 1713      5300
 1714              	.LASF37:
 1715 02f3 705F6570 		.ascii	"p_epending\000"
 1715      656E6469 
 1715      6E6700
 1716              	.LASF8:
 1717 02fe 75696E74 		.ascii	"uint32_t\000"
 1717      33325F74 
 1717      00
 1718              	.LASF47:
 1719 0307 725F7175 		.ascii	"r_queue\000"
 1719      65756500 
 1720              	.LASF73:
 1721 030f 63685363 		.ascii	"chSchReadyI\000"
 1721      68526561 
 1721      64794900 
 1722              	.LASF62:
 1723 031b 63686172 		.ascii	"char\000"
 1723      00
 1724              	.LASF69:
 1725 0320 6669666F 		.ascii	"fifo_remove\000"
 1725      5F72656D 
 1725      6F766500 
 1726              	.LASF57:
 1727 032c 6D5F6E65 		.ascii	"m_next\000"
 1727      787400
 1728              	.LASF20:
 1729 0333 73797374 		.ascii	"systime_t\000"
 1729      696D655F 
 1729      7400
 1730              	.LASF39:
 1731 033d 705F7265 		.ascii	"p_realprio\000"
 1731      616C7072 
 1731      696F00
 1732              	.LASF33:
 1733 0348 705F7469 		.ascii	"p_time\000"
 1733      6D6500
 1734              	.LASF44:
 1735 034f 696E7463 		.ascii	"intctx\000"
 1735      747800
 1736              	.LASF35:
 1737 0356 705F6D73 		.ascii	"p_msgqueue\000"
 1737      67717565 
 1737      756500
 1738              	.LASF74:
 1739 0361 63685363 		.ascii	"chSchWakeupS\000"
 1739      6857616B 
 1739      65757053 
 1739      00
 1740              	.LASF64:
 1741 036e 63684D73 		.ascii	"chMsgWait\000"
 1741      67576169 
ARM GAS  /var/folders/qh/xwg3v3kj02qbxczjpdb8lzfr0000gn/T//cc91f84E.s 			page 34


 1741      7400
 1742              	.LASF31:
 1743 0378 705F7265 		.ascii	"p_refs\000"
 1743      667300
 1744              	.LASF53:
 1745 037f 52656164 		.ascii	"ReadyList\000"
 1745      794C6973 
 1745      7400
 1746              	.LASF71:
 1747 0389 726C6973 		.ascii	"rlist\000"
 1747      7400
 1748              	.LASF5:
 1749 038f 75696E74 		.ascii	"uint8_t\000"
 1749      385F7400 
 1750              	.LASF60:
 1751 0397 77746F62 		.ascii	"wtobjp\000"
 1751      6A7000
 1752              	.LASF28:
 1753 039e 705F6E61 		.ascii	"p_name\000"
 1753      6D6500
 1754              	.LASF66:
 1755 03a5 2E2E2F2E 		.ascii	"../../os/kernel/src/chmsg.c\000"
 1755      2E2F6F73 
 1755      2F6B6572 
 1755      6E656C2F 
 1755      7372632F 
 1756              	.LASF56:
 1757 03c1 6D5F6F77 		.ascii	"m_owner\000"
 1757      6E657200 
 1758              	.LASF25:
 1759 03c9 705F6374 		.ascii	"p_ctx\000"
 1759      7800
 1760              	.LASF34:
 1761 03cf 705F7761 		.ascii	"p_waiting\000"
 1761      6974696E 
 1761      6700
 1762              		.ident	"GCC: (GNU Tools for ARM Embedded Processors) 4.8.3 20131129 (release) [ARM/embedded-4_8-br
ARM GAS  /var/folders/qh/xwg3v3kj02qbxczjpdb8lzfr0000gn/T//cc91f84E.s 			page 35


DEFINED SYMBOLS
                            *ABS*:0000000000000000 chmsg.c
/var/folders/qh/xwg3v3kj02qbxczjpdb8lzfr0000gn/T//cc91f84E.s:18     .text.chMsgSend:0000000000000000 $t
/var/folders/qh/xwg3v3kj02qbxczjpdb8lzfr0000gn/T//cc91f84E.s:24     .text.chMsgSend:0000000000000000 chMsgSend
/var/folders/qh/xwg3v3kj02qbxczjpdb8lzfr0000gn/T//cc91f84E.s:103    .text.chMsgSend:0000000000000034 $d
/var/folders/qh/xwg3v3kj02qbxczjpdb8lzfr0000gn/T//cc91f84E.s:108    .text.chMsgWait:0000000000000000 $t
/var/folders/qh/xwg3v3kj02qbxczjpdb8lzfr0000gn/T//cc91f84E.s:114    .text.chMsgWait:0000000000000000 chMsgWait
/var/folders/qh/xwg3v3kj02qbxczjpdb8lzfr0000gn/T//cc91f84E.s:176    .text.chMsgWait:0000000000000030 $d
/var/folders/qh/xwg3v3kj02qbxczjpdb8lzfr0000gn/T//cc91f84E.s:181    .text.chMsgRelease:0000000000000000 $t
/var/folders/qh/xwg3v3kj02qbxczjpdb8lzfr0000gn/T//cc91f84E.s:187    .text.chMsgRelease:0000000000000000 chMsgRelease
                     .debug_frame:0000000000000010 $d
/var/folders/qh/xwg3v3kj02qbxczjpdb8lzfr0000gn/T//cc91f84E.s:107    .text.chMsgSend:0000000000000038 $t
/var/folders/qh/xwg3v3kj02qbxczjpdb8lzfr0000gn/T//cc91f84E.s:180    .text.chMsgWait:0000000000000034 $t

UNDEFINED SYMBOLS
chSchGoSleepS
chSchReadyI
rlist
chSchWakeupS
