ARM GAS  /var/folders/qh/xwg3v3kj02qbxczjpdb8lzfr0000gn/T//cc91f84E.s 			page 1


   1              		.cpu cortex-m0
   2              		.fpu softvfp
   3              		.eabi_attribute 20, 1
   4              		.eabi_attribute 21, 1
   5              		.eabi_attribute 23, 3
   6              		.eabi_attribute 24, 1
   7              		.eabi_attribute 25, 1
   8              		.eabi_attribute 26, 1
   9              		.eabi_attribute 30, 2
  10              		.eabi_attribute 34, 0
  11              		.eabi_attribute 18, 4
  12              		.code	16
  13              		.file	"chmsg.c"
  14              		.text
  15              	.Ltext0:
  16              		.cfi_sections	.debug_frame
  17              		.section	.text.chMsgSend,"ax",%progbits
  18              		.align	2
  19              		.p2align 4,,15
  20              		.global	chMsgSend
  21              		.code	16
  22              		.thumb_func
  23              		.type	chMsgSend, %function
  24              	chMsgSend:
  25              	.LFB7:
  26              		.file 1 "../../os/kernel/src/chmsg.c"
  27              		.loc 1 68 0
  28              		.cfi_startproc
  29              	.LVL0:
  30              		.loc 1 69 0
  31 0000 0C4B     		ldr	r3, .L5
  32              		.loc 1 68 0
  33 0002 10B5     		push	{r4, lr}
  34              		.cfi_def_cfa_offset 8
  35              		.cfi_offset 4, -8
  36              		.cfi_offset 14, -4
  37              		.loc 1 69 0
  38 0004 9C69     		ldr	r4, [r3, #24]
  39              	.LVL1:
  40              		.loc 1 73 0
  41              	@ 73 "../../os/kernel/src/chmsg.c" 1
  42 0006 72B6     		cpsid   i
  43              	@ 0 "" 2
  44              		.loc 1 75 0
  45              		.code	16
  46 0008 031C     		mov	r3, r0
  47 000a 2C33     		add	r3, r3, #44
  48 000c 6362     		str	r3, [r4, #36]
  49              	.LVL2:
  50              	.LBB6:
  51              	.LBB7:
  52              		.file 2 "../../os/kernel/include/chinline.h"
  53              		.loc 2 47 0
  54 000e 2360     		str	r3, [r4]
  55              		.loc 2 48 0
  56 0010 036B     		ldr	r3, [r0, #48]
  57              	.LVL3:
ARM GAS  /var/folders/qh/xwg3v3kj02qbxczjpdb8lzfr0000gn/T//cc91f84E.s 			page 2


  58              	.LBE7:
  59              	.LBE6:
  60              		.loc 1 74 0
  61 0012 6163     		str	r1, [r4, #52]
  62              	.LBB9:
  63              	.LBB8:
  64              		.loc 2 48 0
  65 0014 6360     		str	r3, [r4, #4]
  66              		.loc 2 49 0
  67 0016 0463     		str	r4, [r0, #48]
  68 0018 1C60     		str	r4, [r3]
  69              	.LVL4:
  70              	.LBE8:
  71              	.LBE9:
  72              		.loc 1 77 0
  73 001a 037F     		ldrb	r3, [r0, #28]
  74 001c 0C2B     		cmp	r3, #12
  75 001e 05D0     		beq	.L4
  76              	.LVL5:
  77              	.L2:
  78              		.loc 1 79 0
  79 0020 0A20     		mov	r0, #10
  80 0022 FFF7FEFF 		bl	chSchGoSleepS
  81              	.LVL6:
  82              		.loc 1 80 0
  83 0026 606A     		ldr	r0, [r4, #36]
  84              	.LVL7:
  85              		.loc 1 81 0
  86              	@ 81 "../../os/kernel/src/chmsg.c" 1
  87 0028 62B6     		cpsie   i
  88              	@ 0 "" 2
  89              		.loc 1 83 0
  90              		.code	16
  91              		@ sp needed
  92              	.LVL8:
  93 002a 10BD     		pop	{r4, pc}
  94              	.LVL9:
  95              	.L4:
  96              		.loc 1 78 0
  97 002c FFF7FEFF 		bl	chSchReadyI
  98              	.LVL10:
  99 0030 F6E7     		b	.L2
 100              	.L6:
 101 0032 C046     		.align	2
 102              	.L5:
 103 0034 00000000 		.word	rlist
 104              		.cfi_endproc
 105              	.LFE7:
 106              		.size	chMsgSend, .-chMsgSend
 107 0038 C046C046 		.section	.text.chMsgWait,"ax",%progbits
 107      C046C046 
 108              		.align	2
 109              		.p2align 4,,15
 110              		.global	chMsgWait
 111              		.code	16
 112              		.thumb_func
 113              		.type	chMsgWait, %function
ARM GAS  /var/folders/qh/xwg3v3kj02qbxczjpdb8lzfr0000gn/T//cc91f84E.s 			page 3


 114              	chMsgWait:
 115              	.LFB8:
 116              		.loc 1 99 0
 117              		.cfi_startproc
 118 0000 10B5     		push	{r4, lr}
 119              		.cfi_def_cfa_offset 8
 120              		.cfi_offset 4, -8
 121              		.cfi_offset 14, -4
 122              		.loc 1 102 0
 123              	@ 102 "../../os/kernel/src/chmsg.c" 1
 124 0002 72B6     		cpsid   i
 125              	@ 0 "" 2
 126              		.loc 1 103 0
 127              		.code	16
 128 0004 0A4C     		ldr	r4, .L10
 129 0006 A369     		ldr	r3, [r4, #24]
 130 0008 1A1C     		mov	r2, r3
 131 000a D86A     		ldr	r0, [r3, #44]
 132 000c 2C32     		add	r2, r2, #44
 133 000e 9042     		cmp	r0, r2
 134 0010 06D0     		beq	.L9
 135              	.L8:
 136              	.LVL11:
 137              	.LBB10:
 138              	.LBB11:
 139              		.loc 2 55 0
 140 0012 0168     		ldr	r1, [r0]
 141 0014 D962     		str	r1, [r3, #44]
 142              	.LBE11:
 143              	.LBE10:
 144              		.loc 1 106 0
 145 0016 0B23     		mov	r3, #11
 146              	.LBB13:
 147              	.LBB12:
 148              		.loc 2 55 0
 149 0018 4A60     		str	r2, [r1, #4]
 150              	.LBE12:
 151              	.LBE13:
 152              		.loc 1 106 0
 153 001a 0377     		strb	r3, [r0, #28]
 154              		.loc 1 107 0
 155              	@ 107 "../../os/kernel/src/chmsg.c" 1
 156 001c 62B6     		cpsie   i
 157              	@ 0 "" 2
 158              		.loc 1 109 0
 159              		.code	16
 160              		@ sp needed
 161 001e 10BD     		pop	{r4, pc}
 162              	.LVL12:
 163              	.L9:
 164              		.loc 1 104 0
 165 0020 0C20     		mov	r0, #12
 166 0022 FFF7FEFF 		bl	chSchGoSleepS
 167              	.LVL13:
 168 0026 A369     		ldr	r3, [r4, #24]
 169 0028 1A1C     		mov	r2, r3
 170 002a 2C32     		add	r2, r2, #44
ARM GAS  /var/folders/qh/xwg3v3kj02qbxczjpdb8lzfr0000gn/T//cc91f84E.s 			page 4


 171 002c D86A     		ldr	r0, [r3, #44]
 172 002e F0E7     		b	.L8
 173              	.L11:
 174              		.align	2
 175              	.L10:
 176 0030 00000000 		.word	rlist
 177              		.cfi_endproc
 178              	.LFE8:
 179              		.size	chMsgWait, .-chMsgWait
 180 0034 C046C046 		.section	.text.chMsgRelease,"ax",%progbits
 180      C046C046 
 180      C046C046 
 181              		.align	2
 182              		.p2align 4,,15
 183              		.global	chMsgRelease
 184              		.code	16
 185              		.thumb_func
 186              		.type	chMsgRelease, %function
 187              	chMsgRelease:
 188              	.LFB9:
 189              		.loc 1 121 0
 190              		.cfi_startproc
 191              	.LVL14:
 192 0000 08B5     		push	{r3, lr}
 193              		.cfi_def_cfa_offset 8
 194              		.cfi_offset 3, -8
 195              		.cfi_offset 14, -4
 196              		.loc 1 123 0
 197              	@ 123 "../../os/kernel/src/chmsg.c" 1
 198 0002 72B6     		cpsid   i
 199              	@ 0 "" 2
 200              		.loc 1 126 0
 201              		.code	16
 202 0004 FFF7FEFF 		bl	chSchWakeupS
 203              	.LVL15:
 204              		.loc 1 127 0
 205              	@ 127 "../../os/kernel/src/chmsg.c" 1
 206 0008 62B6     		cpsie   i
 207              	@ 0 "" 2
 208              		.loc 1 128 0
 209              		.code	16
 210              		@ sp needed
 211 000a 08BD     		pop	{r3, pc}
 212              		.cfi_endproc
 213              	.LFE9:
 214              		.size	chMsgRelease, .-chMsgRelease
 215 000c C046C046 		.text
 216              	.Letext0:
 217              		.file 3 "/usr/local/Cellar/gcc-arm-none-eabi-48/20131218/arm-none-eabi/include/stdint.h"
 218              		.file 4 "../../os/ports/GCC/ARMCMx/chtypes.h"
 219              		.file 5 "../../os/kernel/include/chlists.h"
 220              		.file 6 "../../os/kernel/include/chthreads.h"
 221              		.file 7 "../../os/ports/GCC/ARMCMx/chcore_v6m.h"
 222              		.file 8 "../../os/kernel/include/chschd.h"
 223              		.file 9 "../../os/kernel/include/chmtx.h"