ARM GAS  /var/folders/qh/xwg3v3kj02qbxczjpdb8lzfr0000gn/T//ccY8qlwd.s 			page 1


   1              		.cpu cortex-m0
   2              		.fpu softvfp
   3              		.eabi_attribute 20, 1
   4              		.eabi_attribute 21, 1
   5              		.eabi_attribute 23, 3
   6              		.eabi_attribute 24, 1
   7              		.eabi_attribute 25, 1
   8              		.eabi_attribute 26, 1
   9              		.eabi_attribute 30, 2
  10              		.eabi_attribute 34, 0
  11              		.eabi_attribute 18, 4
  12              		.code	16
  13              		.file	"chmtx.c"
  14              		.text
  15              	.Ltext0:
  16              		.cfi_sections	.debug_frame
  17              		.section	.text.chMtxInit,"ax",%progbits
  18              		.align	2
  19              		.p2align 4,,15
  20              		.global	chMtxInit
  21              		.code	16
  22              		.thumb_func
  23              		.type	chMtxInit, %function
  24              	chMtxInit:
  25              	.LFB7:
  26              		.file 1 "../../os/kernel/src/chmtx.c"
  27              		.loc 1 79 0
  28              		.cfi_startproc
  29              	.LVL0:
  30              		.loc 1 84 0
  31 0000 0023     		mov	r3, #0
  32              		.loc 1 83 0
  33 0002 4060     		str	r0, [r0, #4]
  34 0004 0060     		str	r0, [r0]
  35              		.loc 1 84 0
  36 0006 8360     		str	r3, [r0, #8]
  37              		.loc 1 85 0
  38              		@ sp needed
  39 0008 7047     		bx	lr
  40              		.cfi_endproc
  41              	.LFE7:
  42              		.size	chMtxInit, .-chMtxInit
  43 000a C046C046 		.section	.text.chMtxLockS,"ax",%progbits
  43      C046
  44              		.align	2
  45              		.p2align 4,,15
  46              		.global	chMtxLockS
  47              		.code	16
  48              		.thumb_func
  49              		.type	chMtxLockS, %function
  50              	chMtxLockS:
  51              	.LFB9:
  52              		.loc 1 114 0
  53              		.cfi_startproc
  54              	.LVL1:
  55 0000 70B5     		push	{r4, r5, r6, lr}
  56              		.cfi_def_cfa_offset 16
ARM GAS  /var/folders/qh/xwg3v3kj02qbxczjpdb8lzfr0000gn/T//ccY8qlwd.s 			page 2


  57              		.cfi_offset 4, -16
  58              		.cfi_offset 5, -12
  59              		.cfi_offset 6, -8
  60              		.cfi_offset 14, -4
  61              		.loc 1 115 0
  62 0002 2F4B     		ldr	r3, .L25
  63              		.loc 1 114 0
  64 0004 051C     		mov	r5, r0
  65              		.loc 1 121 0
  66 0006 8068     		ldr	r0, [r0, #8]
  67              	.LVL2:
  68              		.loc 1 115 0
  69 0008 9C69     		ldr	r4, [r3, #24]
  70              	.LVL3:
  71              		.loc 1 121 0
  72 000a 0028     		cmp	r0, #0
  73 000c 53D0     		beq	.L3
  74              	.LVL4:
  75              	.LBB27:
  76              		.loc 1 128 0 discriminator 1
  77 000e A268     		ldr	r2, [r4, #8]
  78 0010 8168     		ldr	r1, [r0, #8]
  79 0012 8A42     		cmp	r2, r1
  80 0014 07D9     		bls	.L5
  81              	.L22:
  82              		.loc 1 132 0
  83 0016 037F     		ldrb	r3, [r0, #28]
  84              		.loc 1 130 0
  85 0018 8260     		str	r2, [r0, #8]
  86              		.loc 1 132 0
  87 001a 042B     		cmp	r3, #4
  88 001c 32D0     		beq	.L6
  89 001e 052B     		cmp	r3, #5
  90 0020 1CD0     		beq	.L7
  91 0022 002B     		cmp	r3, #0
  92 0024 12D0     		beq	.L24
  93              	.LVL5:
  94              	.L5:
  95              	.LBB28:
  96              	.LBB29:
  97              		.file 2 "../../os/kernel/include/chinline.h"
  98              		.loc 2 36 0
  99 0026 2B1C     		mov	r3, r5
 100 0028 03E0     		b	.L21
 101              	.LVL6:
 102              	.L18:
 103              		.loc 2 39 0
 104 002a 9A68     		ldr	r2, [r3, #8]
 105 002c A668     		ldr	r6, [r4, #8]
 106 002e B242     		cmp	r2, r6
 107 0030 02D3     		bcc	.L20
 108              	.L21:
 109              		.loc 2 38 0
 110 0032 1B68     		ldr	r3, [r3]
 111              	.LVL7:
 112              		.loc 2 39 0
 113 0034 9D42     		cmp	r5, r3
ARM GAS  /var/folders/qh/xwg3v3kj02qbxczjpdb8lzfr0000gn/T//ccY8qlwd.s 			page 3


 114 0036 F8D1     		bne	.L18
 115              	.L20:
 116              		.loc 2 41 0
 117 0038 5A68     		ldr	r2, [r3, #4]
 118              		.loc 2 40 0
 119 003a 2360     		str	r3, [r4]
 120              		.loc 2 41 0
 121 003c 6260     		str	r2, [r4, #4]
 122              	.LBE29:
 123              	.LBE28:
 124              		.loc 1 168 0
 125 003e 0420     		mov	r0, #4
 126              	.LBB31:
 127              	.LBB30:
 128              		.loc 2 42 0
 129 0040 5C60     		str	r4, [r3, #4]
 130 0042 1460     		str	r4, [r2]
 131              	.LBE30:
 132              	.LBE31:
 133              		.loc 1 167 0
 134 0044 6562     		str	r5, [r4, #36]
 135              		.loc 1 168 0
 136 0046 FFF7FEFF 		bl	chSchGoSleepS
 137              	.LVL8:
 138              	.L2:
 139              	.LBE27:
 140              		.loc 1 180 0
 141              		@ sp needed
 142              	.LVL9:
 143              	.LVL10:
 144 004a 70BD     		pop	{r4, r5, r6, pc}
 145              	.LVL11:
 146              	.L24:
 147              	.LBB42:
 148              	.LBB32:
 149              	.LBB33:
 150              		.loc 2 68 0
 151 004c 4368     		ldr	r3, [r0, #4]
 152 004e 0168     		ldr	r1, [r0]
 153 0050 1960     		str	r1, [r3]
 154              		.loc 2 69 0
 155 0052 0268     		ldr	r2, [r0]
 156 0054 5360     		str	r3, [r2, #4]
 157              	.LBE33:
 158              	.LBE32:
 159              		.loc 1 160 0
 160 0056 FFF7FEFF 		bl	chSchReadyI
 161              	.LVL12:
 162              		.loc 1 161 0
 163 005a E4E7     		b	.L5
 164              	.LVL13:
 165              	.L7:
 166              	.LBB34:
 167              	.LBB35:
 168              		.loc 2 68 0
 169 005c 4368     		ldr	r3, [r0, #4]
 170 005e 0168     		ldr	r1, [r0]
ARM GAS  /var/folders/qh/xwg3v3kj02qbxczjpdb8lzfr0000gn/T//ccY8qlwd.s 			page 4


 171 0060 1960     		str	r1, [r3]
 172              		.loc 2 69 0
 173 0062 0168     		ldr	r1, [r0]
 174 0064 4B60     		str	r3, [r1, #4]
 175              	.LBE35:
 176              	.LBE34:
 177              		.loc 1 151 0
 178 0066 416A     		ldr	r1, [r0, #36]
 179              	.LVL14:
 180              	.LBB36:
 181              	.LBB37:
 182              		.loc 2 36 0
 183 0068 0B1C     		mov	r3, r1
 184 006a 02E0     		b	.L17
 185              	.LVL15:
 186              	.L15:
 187              		.loc 2 39 0
 188 006c 9E68     		ldr	r6, [r3, #8]
 189 006e 9642     		cmp	r6, r2
 190 0070 02D3     		bcc	.L16
 191              	.L17:
 192              		.loc 2 38 0
 193 0072 1B68     		ldr	r3, [r3]
 194              	.LVL16:
 195              		.loc 2 39 0
 196 0074 9942     		cmp	r1, r3
 197 0076 F9D1     		bne	.L15
 198              	.L16:
 199              		.loc 2 41 0
 200 0078 5A68     		ldr	r2, [r3, #4]
 201              		.loc 2 40 0
 202 007a 0360     		str	r3, [r0]
 203              		.loc 2 41 0
 204 007c 4260     		str	r2, [r0, #4]
 205              		.loc 2 42 0
 206 007e 5860     		str	r0, [r3, #4]
 207 0080 1060     		str	r0, [r2]
 208 0082 D0E7     		b	.L5
 209              	.LVL17:
 210              	.L6:
 211              	.LBE37:
 212              	.LBE36:
 213              	.LBB38:
 214              	.LBB39:
 215              		.loc 2 68 0
 216 0084 4368     		ldr	r3, [r0, #4]
 217 0086 0668     		ldr	r6, [r0]
 218 0088 1E60     		str	r6, [r3]
 219              		.loc 2 69 0
 220 008a 0168     		ldr	r1, [r0]
 221 008c 4B60     		str	r3, [r1, #4]
 222              	.LBE39:
 223              	.LBE38:
 224              		.loc 1 135 0
 225 008e 416A     		ldr	r1, [r0, #36]
 226              	.LVL18:
 227 0090 0B1C     		mov	r3, r1
ARM GAS  /var/folders/qh/xwg3v3kj02qbxczjpdb8lzfr0000gn/T//ccY8qlwd.s 			page 5


 228 0092 02E0     		b	.L13
 229              	.LVL19:
 230              	.L9:
 231              	.LBB40:
 232              	.LBB41:
 233              		.loc 2 39 0
 234 0094 9E68     		ldr	r6, [r3, #8]
 235 0096 9642     		cmp	r6, r2
 236 0098 02D3     		bcc	.L12
 237              	.L13:
 238              		.loc 2 38 0
 239 009a 1B68     		ldr	r3, [r3]
 240              	.LVL20:
 241              		.loc 2 39 0
 242 009c 9942     		cmp	r1, r3
 243 009e F9D1     		bne	.L9
 244              	.L12:
 245              		.loc 2 41 0
 246 00a0 5A68     		ldr	r2, [r3, #4]
 247              		.loc 2 40 0
 248 00a2 0360     		str	r3, [r0]
 249              		.loc 2 41 0
 250 00a4 4260     		str	r2, [r0, #4]
 251              		.loc 2 42 0
 252 00a6 5860     		str	r0, [r3, #4]
 253 00a8 1060     		str	r0, [r2]
 254              	.LBE41:
 255              	.LBE40:
 256              		.loc 1 136 0
 257 00aa 8868     		ldr	r0, [r1, #8]
 258              	.LVL21:
 259              		.loc 1 128 0
 260 00ac A268     		ldr	r2, [r4, #8]
 261 00ae 8168     		ldr	r1, [r0, #8]
 262              	.LVL22:
 263 00b0 9142     		cmp	r1, r2
 264 00b2 B0D3     		bcc	.L22
 265 00b4 B7E7     		b	.L5
 266              	.LVL23:
 267              	.L3:
 268              	.LBE42:
 269              		.loc 1 177 0
 270 00b6 E16B     		ldr	r1, [r4, #60]
 271              		.loc 1 176 0
 272 00b8 AC60     		str	r4, [r5, #8]
 273              		.loc 1 177 0
 274 00ba E960     		str	r1, [r5, #12]
 275              		.loc 1 178 0
 276 00bc E563     		str	r5, [r4, #60]
 277 00be C4E7     		b	.L2
 278              	.L26:
 279              		.align	2
 280              	.L25:
 281 00c0 00000000 		.word	rlist
 282              		.cfi_endproc
 283              	.LFE9:
 284              		.size	chMtxLockS, .-chMtxLockS
ARM GAS  /var/folders/qh/xwg3v3kj02qbxczjpdb8lzfr0000gn/T//ccY8qlwd.s 			page 6


 285 00c4 C046C046 		.section	.text.chMtxLock,"ax",%progbits
 285      C046C046 
 285      C046C046 
 286              		.align	2
 287              		.p2align 4,,15
 288              		.global	chMtxLock
 289              		.code	16
 290              		.thumb_func
 291              		.type	chMtxLock, %function
 292              	chMtxLock:
 293              	.LFB8:
 294              		.loc 1 96 0
 295              		.cfi_startproc
 296              	.LVL24:
 297 0000 08B5     		push	{r3, lr}
 298              		.cfi_def_cfa_offset 8
 299              		.cfi_offset 3, -8
 300              		.cfi_offset 14, -4
 301              		.loc 1 98 0
 302              	@ 98 "../../os/kernel/src/chmtx.c" 1
 303 0002 72B6     		cpsid   i
 304              	@ 0 "" 2
 305              		.loc 1 100 0
 306              		.code	16
 307 0004 FFF7FEFF 		bl	chMtxLockS
 308              	.LVL25:
 309              		.loc 1 102 0
 310              	@ 102 "../../os/kernel/src/chmtx.c" 1
 311 0008 62B6     		cpsie   i
 312              	@ 0 "" 2
 313              		.loc 1 103 0
 314              		.code	16
 315              		@ sp needed
 316 000a 08BD     		pop	{r3, pc}
 317              		.cfi_endproc
 318              	.LFE8:
 319              		.size	chMtxLock, .-chMtxLock
 320 000c C046C046 		.section	.text.chMtxTryLock,"ax",%progbits
 321              		.align	2
 322              		.p2align 4,,15
 323              		.global	chMtxTryLock
 324              		.code	16
 325              		.thumb_func
 326              		.type	chMtxTryLock, %function
 327              	chMtxTryLock:
 328              	.LFB10:
 329              		.loc 1 199 0
 330              		.cfi_startproc
 331              	.LVL26:
 332              		.loc 1 199 0
 333 0000 031C     		mov	r3, r0
 334              		.loc 1 202 0
 335              	@ 202 "../../os/kernel/src/chmtx.c" 1
 336 0002 72B6     		cpsid   i
 337              	@ 0 "" 2
 338              	.LVL27:
 339              		.code	16
ARM GAS  /var/folders/qh/xwg3v3kj02qbxczjpdb8lzfr0000gn/T//ccY8qlwd.s 			page 7


 340              	.LBB43:
 341              	.LBB44:
 342              		.loc 1 232 0
 343 0004 9968     		ldr	r1, [r3, #8]
 344              		.loc 1 233 0
 345 0006 0020     		mov	r0, #0
 346              	.LVL28:
 347              		.loc 1 232 0
 348 0008 0029     		cmp	r1, #0
 349 000a 01D0     		beq	.L31
 350              	.L29:
 351              	.LBE44:
 352              	.LBE43:
 353              		.loc 1 206 0
 354              	@ 206 "../../os/kernel/src/chmtx.c" 1
 355 000c 62B6     		cpsie   i
 356              	@ 0 "" 2
 357              		.loc 1 208 0
 358              		.code	16
 359              		@ sp needed
 360 000e 7047     		bx	lr
 361              	.L31:
 362              	.LBB46:
 363              	.LBB45:
 364              		.loc 1 234 0
 365 0010 034A     		ldr	r2, .L32
 366              		.loc 1 237 0
 367 0012 0120     		mov	r0, #1
 368              		.loc 1 234 0
 369 0014 9269     		ldr	r2, [r2, #24]
 370              		.loc 1 235 0
 371 0016 D16B     		ldr	r1, [r2, #60]
 372              		.loc 1 234 0
 373 0018 9A60     		str	r2, [r3, #8]
 374              		.loc 1 235 0
 375 001a D960     		str	r1, [r3, #12]
 376              		.loc 1 236 0
 377 001c D363     		str	r3, [r2, #60]
 378 001e F5E7     		b	.L29
 379              	.L33:
 380              		.align	2
 381              	.L32:
 382 0020 00000000 		.word	rlist
 383              	.LBE45:
 384              	.LBE46:
 385              		.cfi_endproc
 386              	.LFE10:
 387              		.size	chMtxTryLock, .-chMtxTryLock
 388 0024 C046C046 		.section	.text.chMtxTryLockS,"ax",%progbits
 388      C046C046 
 388      C046C046 
 389              		.align	2
 390              		.p2align 4,,15
 391              		.global	chMtxTryLockS
 392              		.code	16
 393              		.thumb_func
 394              		.type	chMtxTryLockS, %function
ARM GAS  /var/folders/qh/xwg3v3kj02qbxczjpdb8lzfr0000gn/T//ccY8qlwd.s 			page 8


 395              	chMtxTryLockS:
 396              	.LFB11:
 397              		.loc 1 227 0
 398              		.cfi_startproc
 399              	.LVL29:
 400              		.loc 1 227 0
 401 0000 031C     		mov	r3, r0
 402              		.loc 1 232 0
 403 0002 9968     		ldr	r1, [r3, #8]
 404              		.loc 1 233 0
 405 0004 0020     		mov	r0, #0
 406              	.LVL30:
 407              		.loc 1 232 0
 408 0006 0029     		cmp	r1, #0
 409 0008 00D0     		beq	.L37
 410              	.L35:
 411              		.loc 1 238 0
 412              		@ sp needed
 413 000a 7047     		bx	lr
 414              	.L37:
 415              		.loc 1 234 0
 416 000c 034A     		ldr	r2, .L38
 417              		.loc 1 237 0
 418 000e 0120     		mov	r0, #1
 419              		.loc 1 234 0
 420 0010 9269     		ldr	r2, [r2, #24]
 421              		.loc 1 235 0
 422 0012 D16B     		ldr	r1, [r2, #60]
 423              		.loc 1 234 0
 424 0014 9A60     		str	r2, [r3, #8]
 425              		.loc 1 235 0
 426 0016 D960     		str	r1, [r3, #12]
 427              		.loc 1 236 0
 428 0018 D363     		str	r3, [r2, #60]
 429              		.loc 1 237 0
 430 001a F6E7     		b	.L35
 431              	.L39:
 432              		.align	2
 433              	.L38:
 434 001c 00000000 		.word	rlist
 435              		.cfi_endproc
 436              	.LFE11:
 437              		.size	chMtxTryLockS, .-chMtxTryLockS
 438              		.section	.text.chMtxUnlock,"ax",%progbits
 439              		.align	2
 440              		.p2align 4,,15
 441              		.global	chMtxUnlock
 442              		.code	16
 443              		.thumb_func
 444              		.type	chMtxUnlock, %function
 445              	chMtxUnlock:
 446              	.LFB12:
 447              		.loc 1 250 0
 448              		.cfi_startproc
 449 0000 38B5     		push	{r3, r4, r5, lr}
 450              		.cfi_def_cfa_offset 16
 451              		.cfi_offset 3, -16
ARM GAS  /var/folders/qh/xwg3v3kj02qbxczjpdb8lzfr0000gn/T//ccY8qlwd.s 			page 9


 452              		.cfi_offset 4, -12
 453              		.cfi_offset 5, -8
 454              		.cfi_offset 14, -4
 455              		.loc 1 251 0
 456 0002 134B     		ldr	r3, .L53
 457 0004 9D69     		ldr	r5, [r3, #24]
 458              	.LVL31:
 459              		.loc 1 254 0
 460              	@ 254 "../../os/kernel/src/chmtx.c" 1
 461 0006 72B6     		cpsid   i
 462              	@ 0 "" 2
 463              		.loc 1 263 0
 464              		.code	16
 465 0008 EC6B     		ldr	r4, [r5, #60]
 466              	.LVL32:
 467              		.loc 1 264 0
 468 000a E368     		ldr	r3, [r4, #12]
 469              		.loc 1 266 0
 470 000c 2068     		ldr	r0, [r4]
 471              		.loc 1 264 0
 472 000e EB63     		str	r3, [r5, #60]
 473              		.loc 1 266 0
 474 0010 A042     		cmp	r0, r4
 475 0012 1AD0     		beq	.L41
 476              	.LBB47:
 477              		.loc 1 271 0
 478 0014 296C     		ldr	r1, [r5, #64]
 479              	.LVL33:
 480              		.loc 1 273 0
 481 0016 002B     		cmp	r3, #0
 482 0018 09D0     		beq	.L42
 483              	.L45:
 484              		.loc 1 277 0
 485 001a 1A68     		ldr	r2, [r3]
 486 001c 9A42     		cmp	r2, r3
 487 001e 03D0     		beq	.L43
 488              		.loc 1 277 0 is_stmt 0 discriminator 1
 489 0020 9268     		ldr	r2, [r2, #8]
 490 0022 9142     		cmp	r1, r2
 491 0024 00D2     		bcs	.L43
 492 0026 111C     		mov	r1, r2
 493              	.LVL34:
 494              	.L43:
 495              		.loc 1 279 0 is_stmt 1
 496 0028 DB68     		ldr	r3, [r3, #12]
 497              	.LVL35:
 498              		.loc 1 273 0
 499 002a 002B     		cmp	r3, #0
 500 002c F5D1     		bne	.L45
 501              	.L42:
 502              	.LBB48:
 503              	.LBB49:
 504              		.loc 2 55 0
 505 002e 0368     		ldr	r3, [r0]
 506              	.LVL36:
 507              	.LBE49:
 508              	.LBE48:
ARM GAS  /var/folders/qh/xwg3v3kj02qbxczjpdb8lzfr0000gn/T//ccY8qlwd.s 			page 10


 509              		.loc 1 283 0
 510 0030 A960     		str	r1, [r5, #8]
 511              	.LVL37:
 512              	.LBB51:
 513              	.LBB50:
 514              		.loc 2 55 0
 515 0032 2360     		str	r3, [r4]
 516 0034 5C60     		str	r4, [r3, #4]
 517              	.LBE50:
 518              	.LBE51:
 519              		.loc 1 288 0
 520 0036 C36B     		ldr	r3, [r0, #60]
 521              		.loc 1 287 0
 522 0038 A060     		str	r0, [r4, #8]
 523              		.loc 1 288 0
 524 003a E360     		str	r3, [r4, #12]
 525              		.loc 1 290 0
 526 003c 0021     		mov	r1, #0
 527              	.LVL38:
 528              		.loc 1 289 0
 529 003e C463     		str	r4, [r0, #60]
 530              		.loc 1 290 0
 531 0040 FFF7FEFF 		bl	chSchWakeupS
 532              	.LVL39:
 533              	.L46:
 534              	.LBE47:
 535              		.loc 1 294 0
 536              	@ 294 "../../os/kernel/src/chmtx.c" 1
 537 0044 62B6     		cpsie   i
 538              	@ 0 "" 2
 539              		.loc 1 296 0
 540              		.code	16
 541 0046 201C     		mov	r0, r4
 542              		@ sp needed
 543              	.LVL40:
 544              	.LVL41:
 545 0048 38BD     		pop	{r3, r4, r5, pc}
 546              	.LVL42:
 547              	.L41:
 548              		.loc 1 293 0
 549 004a 0023     		mov	r3, #0
 550 004c A360     		str	r3, [r4, #8]
 551 004e F9E7     		b	.L46
 552              	.L54:
 553              		.align	2
 554              	.L53:
 555 0050 00000000 		.word	rlist
 556              		.cfi_endproc
 557              	.LFE12:
 558              		.size	chMtxUnlock, .-chMtxUnlock
 559 0054 C046C046 		.section	.text.chMtxUnlockS,"ax",%progbits
 559      C046C046 
 559      C046C046 
 560              		.align	2
 561              		.p2align 4,,15
 562              		.global	chMtxUnlockS
 563              		.code	16
ARM GAS  /var/folders/qh/xwg3v3kj02qbxczjpdb8lzfr0000gn/T//ccY8qlwd.s 			page 11


 564              		.thumb_func
 565              		.type	chMtxUnlockS, %function
 566              	chMtxUnlockS:
 567              	.LFB13:
 568              		.loc 1 310 0
 569              		.cfi_startproc
 570 0000 38B5     		push	{r3, r4, r5, lr}
 571              		.cfi_def_cfa_offset 16
 572              		.cfi_offset 3, -16
 573              		.cfi_offset 4, -12
 574              		.cfi_offset 5, -8
 575              		.cfi_offset 14, -4
 576              		.loc 1 311 0
 577 0002 124B     		ldr	r3, .L68
 578 0004 9D69     		ldr	r5, [r3, #24]
 579              	.LVL43:
 580              		.loc 1 324 0
 581 0006 EC6B     		ldr	r4, [r5, #60]
 582              	.LVL44:
 583              		.loc 1 325 0
 584 0008 E368     		ldr	r3, [r4, #12]
 585              		.loc 1 327 0
 586 000a 2068     		ldr	r0, [r4]
 587              		.loc 1 325 0
 588 000c EB63     		str	r3, [r5, #60]
 589              		.loc 1 327 0
 590 000e A042     		cmp	r0, r4
 591 0010 18D0     		beq	.L56
 592              	.LBB52:
 593              		.loc 1 332 0
 594 0012 296C     		ldr	r1, [r5, #64]
 595              	.LVL45:
 596              		.loc 1 334 0
 597 0014 002B     		cmp	r3, #0
 598 0016 09D0     		beq	.L57
 599              	.L60:
 600              		.loc 1 338 0
 601 0018 1A68     		ldr	r2, [r3]
 602 001a 9A42     		cmp	r2, r3
 603 001c 03D0     		beq	.L58
 604              		.loc 1 338 0 is_stmt 0 discriminator 1
 605 001e 9268     		ldr	r2, [r2, #8]
 606 0020 9142     		cmp	r1, r2
 607 0022 00D2     		bcs	.L58
 608 0024 111C     		mov	r1, r2
 609              	.LVL46:
 610              	.L58:
 611              		.loc 1 340 0 is_stmt 1
 612 0026 DB68     		ldr	r3, [r3, #12]
 613              	.LVL47:
 614              		.loc 1 334 0
 615 0028 002B     		cmp	r3, #0
 616 002a F5D1     		bne	.L60
 617              	.L57:
 618              	.LBB53:
 619              	.LBB54:
 620              		.loc 2 55 0
ARM GAS  /var/folders/qh/xwg3v3kj02qbxczjpdb8lzfr0000gn/T//ccY8qlwd.s 			page 12


 621 002c 0368     		ldr	r3, [r0]
 622              	.LVL48:
 623              	.LBE54:
 624              	.LBE53:
 625              		.loc 1 342 0
 626 002e A960     		str	r1, [r5, #8]
 627              	.LVL49:
 628              	.LBB56:
 629              	.LBB55:
 630              		.loc 2 55 0
 631 0030 2360     		str	r3, [r4]
 632 0032 5C60     		str	r4, [r3, #4]
 633              	.LBE55:
 634              	.LBE56:
 635              		.loc 1 347 0
 636 0034 C36B     		ldr	r3, [r0, #60]
 637              		.loc 1 346 0
 638 0036 A060     		str	r0, [r4, #8]
 639              		.loc 1 347 0
 640 0038 E360     		str	r3, [r4, #12]
 641              		.loc 1 348 0
 642 003a C463     		str	r4, [r0, #60]
 643              		.loc 1 349 0
 644 003c FFF7FEFF 		bl	chSchReadyI
 645              	.LVL50:
 646              	.L61:
 647              	.LBE52:
 648              		.loc 1 354 0
 649 0040 201C     		mov	r0, r4
 650              		@ sp needed
 651              	.LVL51:
 652              	.LVL52:
 653 0042 38BD     		pop	{r3, r4, r5, pc}
 654              	.LVL53:
 655              	.L56:
 656              		.loc 1 352 0
 657 0044 0023     		mov	r3, #0
 658 0046 A360     		str	r3, [r4, #8]
 659 0048 FAE7     		b	.L61
 660              	.L69:
 661 004a C046     		.align	2
 662              	.L68:
 663 004c 00000000 		.word	rlist
 664              		.cfi_endproc
 665              	.LFE13:
 666              		.size	chMtxUnlockS, .-chMtxUnlockS
 667              		.section	.text.chMtxUnlockAll,"ax",%progbits
 668              		.align	2
 669              		.p2align 4,,15
 670              		.global	chMtxUnlockAll
 671              		.code	16
 672              		.thumb_func
 673              		.type	chMtxUnlockAll, %function
 674              	chMtxUnlockAll:
 675              	.LFB14:
 676              		.loc 1 367 0
 677              		.cfi_startproc
ARM GAS  /var/folders/qh/xwg3v3kj02qbxczjpdb8lzfr0000gn/T//ccY8qlwd.s 			page 13


 678 0000 38B5     		push	{r3, r4, r5, lr}
 679              		.cfi_def_cfa_offset 16
 680              		.cfi_offset 3, -16
 681              		.cfi_offset 4, -12
 682              		.cfi_offset 5, -8
 683              		.cfi_offset 14, -4
 684              		.loc 1 368 0
 685 0002 114B     		ldr	r3, .L81
 686 0004 9C69     		ldr	r4, [r3, #24]
 687              	.LVL54:
 688              		.loc 1 370 0
 689              	@ 370 "../../os/kernel/src/chmtx.c" 1
 690 0006 72B6     		cpsid   i
 691              	@ 0 "" 2
 692              		.loc 1 371 0
 693              		.code	16
 694 0008 E36B     		ldr	r3, [r4, #60]
 695 000a 002B     		cmp	r3, #0
 696 000c 1AD0     		beq	.L71
 697              	.LBB57:
 698              		.loc 1 383 0
 699 000e 0025     		mov	r5, #0
 700 0010 0BE0     		b	.L75
 701              	.LVL55:
 702              	.L80:
 703              	.LBB58:
 704              	.LBB59:
 705              	.LBB60:
 706              		.loc 2 55 0
 707 0012 0268     		ldr	r2, [r0]
 708 0014 1A60     		str	r2, [r3]
 709 0016 5360     		str	r3, [r2, #4]
 710              	.LBE60:
 711              	.LBE59:
 712              		.loc 1 378 0
 713 0018 C26B     		ldr	r2, [r0, #60]
 714              		.loc 1 377 0
 715 001a 9860     		str	r0, [r3, #8]
 716              		.loc 1 378 0
 717 001c DA60     		str	r2, [r3, #12]
 718              		.loc 1 379 0
 719 001e C363     		str	r3, [r0, #60]
 720              		.loc 1 380 0
 721 0020 FFF7FEFF 		bl	chSchReadyI
 722              	.LVL56:
 723              	.LBE58:
 724              	.LBE57:
 725              		.loc 1 384 0
 726 0024 E36B     		ldr	r3, [r4, #60]
 727 0026 002B     		cmp	r3, #0
 728 0028 08D0     		beq	.L79
 729              	.L75:
 730              	.LVL57:
 731              	.LBB61:
 732              		.loc 1 374 0
 733 002a DA68     		ldr	r2, [r3, #12]
 734              		.loc 1 375 0
ARM GAS  /var/folders/qh/xwg3v3kj02qbxczjpdb8lzfr0000gn/T//ccY8qlwd.s 			page 14


 735 002c 1868     		ldr	r0, [r3]
 736              		.loc 1 374 0
 737 002e E263     		str	r2, [r4, #60]
 738              		.loc 1 375 0
 739 0030 9842     		cmp	r0, r3
 740 0032 EED1     		bne	.L80
 741              		.loc 1 383 0
 742 0034 9D60     		str	r5, [r3, #8]
 743              	.LBE61:
 744              		.loc 1 384 0
 745 0036 E36B     		ldr	r3, [r4, #60]
 746              	.LVL58:
 747 0038 002B     		cmp	r3, #0
 748 003a F6D1     		bne	.L75
 749              	.L79:
 750              		.loc 1 385 0
 751 003c 236C     		ldr	r3, [r4, #64]
 752 003e A360     		str	r3, [r4, #8]
 753              		.loc 1 386 0
 754 0040 FFF7FEFF 		bl	chSchRescheduleS
 755              	.LVL59:
 756              	.L71:
 757              		.loc 1 388 0
 758              	@ 388 "../../os/kernel/src/chmtx.c" 1
 759 0044 62B6     		cpsie   i
 760              	@ 0 "" 2
 761              		.loc 1 389 0
 762              		.code	16
 763              		@ sp needed
 764              	.LVL60:
 765 0046 38BD     		pop	{r3, r4, r5, pc}
 766              	.L82:
 767              		.align	2
 768              	.L81:
 769 0048 00000000 		.word	rlist
 770              		.cfi_endproc
 771              	.LFE14:
 772              		.size	chMtxUnlockAll, .-chMtxUnlockAll
 773 004c C046C046 		.text
 774              	.Letext0:
 775              		.file 3 "/usr/local/Cellar/gcc-arm-none-eabi-48/20131218/arm-none-eabi/include/stdint.h"
 776              		.file 4 "../../os/ports/GCC/ARMCMx/chtypes.h"
 777              		.file 5 "../../os/kernel/include/chlists.h"
 778              		.file 6 "../../os/kernel/include/chthreads.h"
 779              		.file 7 "../../os/ports/GCC/ARMCMx/chcore_v6m.h"
 780              		.file 8 "../../os/kernel/include/chschd.h"
 781              		.file 9 "../../os/kernel/include/chmtx.h"