ARM GAS  /var/folders/qh/xwg3v3kj02qbxczjpdb8lzfr0000gn/T//ccY8qlwd.s 			page 1


   1              		.cpu cortex-m0
   2              		.fpu softvfp
   3              		.eabi_attribute 20, 1
   4              		.eabi_attribute 21, 1
   5              		.eabi_attribute 23, 3
   6              		.eabi_attribute 24, 1
   7              		.eabi_attribute 25, 1
   8              		.eabi_attribute 26, 1
   9              		.eabi_attribute 30, 2
  10              		.eabi_attribute 34, 0
  11              		.eabi_attribute 18, 4
  12              		.code	16
  13              		.file	"chmtx.c"
  14              		.text
  15              	.Ltext0:
  16              		.cfi_sections	.debug_frame
  17              		.section	.text.chMtxInit,"ax",%progbits
  18              		.align	2
  19              		.p2align 4,,15
  20              		.global	chMtxInit
  21              		.code	16
  22              		.thumb_func
  23              		.type	chMtxInit, %function
  24              	chMtxInit:
  25              	.LFB7:
  26              		.file 1 "../../os/kernel/src/chmtx.c"
  27              		.loc 1 79 0
  28              		.cfi_startproc
  29              	.LVL0:
  30              		.loc 1 84 0
  31 0000 0023     		mov	r3, #0
  32              		.loc 1 83 0
  33 0002 4060     		str	r0, [r0, #4]
  34 0004 0060     		str	r0, [r0]
  35              		.loc 1 84 0
  36 0006 8360     		str	r3, [r0, #8]
  37              		.loc 1 85 0
  38              		@ sp needed
  39 0008 7047     		bx	lr
  40              		.cfi_endproc
  41              	.LFE7:
  42              		.size	chMtxInit, .-chMtxInit
  43 000a C046C046 		.section	.text.chMtxLockS,"ax",%progbits
  43      C046
  44              		.align	2
  45              		.p2align 4,,15
  46              		.global	chMtxLockS
  47              		.code	16
  48              		.thumb_func
  49              		.type	chMtxLockS, %function
  50              	chMtxLockS:
  51              	.LFB9:
  52              		.loc 1 114 0
  53              		.cfi_startproc
  54              	.LVL1:
  55 0000 70B5     		push	{r4, r5, r6, lr}
  56              		.cfi_def_cfa_offset 16
ARM GAS  /var/folders/qh/xwg3v3kj02qbxczjpdb8lzfr0000gn/T//ccY8qlwd.s 			page 2


  57              		.cfi_offset 4, -16
  58              		.cfi_offset 5, -12
  59              		.cfi_offset 6, -8
  60              		.cfi_offset 14, -4
  61              		.loc 1 115 0
  62 0002 2F4B     		ldr	r3, .L25
  63              		.loc 1 114 0
  64 0004 051C     		mov	r5, r0
  65              		.loc 1 121 0
  66 0006 8068     		ldr	r0, [r0, #8]
  67              	.LVL2:
  68              		.loc 1 115 0
  69 0008 9C69     		ldr	r4, [r3, #24]
  70              	.LVL3:
  71              		.loc 1 121 0
  72 000a 0028     		cmp	r0, #0
  73 000c 53D0     		beq	.L3
  74              	.LVL4:
  75              	.LBB27:
  76              		.loc 1 128 0 discriminator 1
  77 000e A268     		ldr	r2, [r4, #8]
  78 0010 8168     		ldr	r1, [r0, #8]
  79 0012 8A42     		cmp	r2, r1
  80 0014 07D9     		bls	.L5
  81              	.L22:
  82              		.loc 1 132 0
  83 0016 037F     		ldrb	r3, [r0, #28]
  84              		.loc 1 130 0
  85 0018 8260     		str	r2, [r0, #8]
  86              		.loc 1 132 0
  87 001a 042B     		cmp	r3, #4
  88 001c 32D0     		beq	.L6
  89 001e 052B     		cmp	r3, #5
  90 0020 1CD0     		beq	.L7
  91 0022 002B     		cmp	r3, #0
  92 0024 12D0     		beq	.L24
  93              	.LVL5:
  94              	.L5:
  95              	.LBB28:
  96              	.LBB29:
  97              		.file 2 "../../os/kernel/include/chinline.h"
  98              		.loc 2 36 0
  99 0026 2B1C     		mov	r3, r5
 100 0028 03E0     		b	.L21
 101              	.LVL6:
 102              	.L18:
 103              		.loc 2 39 0
 104 002a 9A68     		ldr	r2, [r3, #8]
 105 002c A668     		ldr	r6, [r4, #8]
 106 002e B242     		cmp	r2, r6
 107 0030 02D3     		bcc	.L20
 108              	.L21:
 109              		.loc 2 38 0
 110 0032 1B68     		ldr	r3, [r3]
 111              	.LVL7:
 112              		.loc 2 39 0
 113 0034 9D42     		cmp	r5, r3
ARM GAS  /var/folders/qh/xwg3v3kj02qbxczjpdb8lzfr0000gn/T//ccY8qlwd.s 			page 3


 114 0036 F8D1     		bne	.L18
 115              	.L20:
 116              		.loc 2 41 0
 117 0038 5A68     		ldr	r2, [r3, #4]
 118              		.loc 2 40 0
 119 003a 2360     		str	r3, [r4]
 120              		.loc 2 41 0
 121 003c 6260     		str	r2, [r4, #4]
 122              	.LBE29:
 123              	.LBE28:
 124              		.loc 1 168 0
 125 003e 0420     		mov	r0, #4
 126              	.LBB31:
 127              	.LBB30:
 128              		.loc 2 42 0
 129 0040 5C60     		str	r4, [r3, #4]
 130 0042 1460     		str	r4, [r2]
 131              	.LBE30:
 132              	.LBE31:
 133              		.loc 1 167 0
 134 0044 6562     		str	r5, [r4, #36]
 135              		.loc 1 168 0
 136 0046 FFF7FEFF 		bl	chSchGoSleepS
 137              	.LVL8:
 138              	.L2:
 139              	.LBE27:
 140              		.loc 1 180 0
 141              		@ sp needed
 142              	.LVL9:
 143              	.LVL10:
 144 004a 70BD     		pop	{r4, r5, r6, pc}
 145              	.LVL11:
 146              	.L24:
 147              	.LBB42:
 148              	.LBB32:
 149              	.LBB33:
 150              		.loc 2 68 0
 151 004c 4368     		ldr	r3, [r0, #4]
 152 004e 0168     		ldr	r1, [r0]
 153 0050 1960     		str	r1, [r3]
 154              		.loc 2 69 0
 155 0052 0268     		ldr	r2, [r0]
 156 0054 5360     		str	r3, [r2, #4]
 157              	.LBE33:
 158              	.LBE32:
 159              		.loc 1 160 0
 160 0056 FFF7FEFF 		bl	chSchReadyI
 161              	.LVL12:
 162              		.loc 1 161 0
 163 005a E4E7     		b	.L5
 164              	.LVL13:
 165              	.L7:
 166              	.LBB34:
 167              	.LBB35:
 168              		.loc 2 68 0
 169 005c 4368     		ldr	r3, [r0, #4]
 170 005e 0168     		ldr	r1, [r0]
ARM GAS  /var/folders/qh/xwg3v3kj02qbxczjpdb8lzfr0000gn/T//ccY8qlwd.s 			page 4


 171 0060 1960     		str	r1, [r3]
 172              		.loc 2 69 0
 173 0062 0168     		ldr	r1, [r0]
 174 0064 4B60     		str	r3, [r1, #4]
 175              	.LBE35:
 176              	.LBE34:
 177              		.loc 1 151 0
 178 0066 416A     		ldr	r1, [r0, #36]
 179              	.LVL14:
 180              	.LBB36:
 181              	.LBB37:
 182              		.loc 2 36 0
 183 0068 0B1C     		mov	r3, r1
 184 006a 02E0     		b	.L17
 185              	.LVL15:
 186              	.L15:
 187              		.loc 2 39 0
 188 006c 9E68     		ldr	r6, [r3, #8]
 189 006e 9642     		cmp	r6, r2
 190 0070 02D3     		bcc	.L16
 191              	.L17:
 192              		.loc 2 38 0
 193 0072 1B68     		ldr	r3, [r3]
 194              	.LVL16:
 195              		.loc 2 39 0
 196 0074 9942     		cmp	r1, r3
 197 0076 F9D1     		bne	.L15
 198              	.L16:
 199              		.loc 2 41 0
 200 0078 5A68     		ldr	r2, [r3, #4]
 201              		.loc 2 40 0
 202 007a 0360     		str	r3, [r0]
 203              		.loc 2 41 0
 204 007c 4260     		str	r2, [r0, #4]
 205              		.loc 2 42 0
 206 007e 5860     		str	r0, [r3, #4]
 207 0080 1060     		str	r0, [r2]
 208 0082 D0E7     		b	.L5
 209              	.LVL17:
 210              	.L6:
 211              	.LBE37:
 212              	.LBE36:
 213              	.LBB38:
 214              	.LBB39:
 215              		.loc 2 68 0
 216 0084 4368     		ldr	r3, [r0, #4]
 217 0086 0668     		ldr	r6, [r0]
 218 0088 1E60     		str	r6, [r3]
 219              		.loc 2 69 0
 220 008a 0168     		ldr	r1, [r0]
 221 008c 4B60     		str	r3, [r1, #4]
 222              	.LBE39:
 223              	.LBE38:
 224              		.loc 1 135 0
 225 008e 416A     		ldr	r1, [r0, #36]
 226              	.LVL18:
 227 0090 0B1C     		mov	r3, r1
ARM GAS  /var/folders/qh/xwg3v3kj02qbxczjpdb8lzfr0000gn/T//ccY8qlwd.s 			page 5


 228 0092 02E0     		b	.L13
 229              	.LVL19:
 230              	.L9:
 231              	.LBB40:
 232              	.LBB41:
 233              		.loc 2 39 0
 234 0094 9E68     		ldr	r6, [r3, #8]
 235 0096 9642     		cmp	r6, r2
 236 0098 02D3     		bcc	.L12
 237              	.L13:
 238              		.loc 2 38 0
 239 009a 1B68     		ldr	r3, [r3]
 240              	.LVL20:
 241              		.loc 2 39 0
 242 009c 9942     		cmp	r1, r3
 243 009e F9D1     		bne	.L9
 244              	.L12:
 245              		.loc 2 41 0
 246 00a0 5A68     		ldr	r2, [r3, #4]
 247              		.loc 2 40 0
 248 00a2 0360     		str	r3, [r0]
 249              		.loc 2 41 0
 250 00a4 4260     		str	r2, [r0, #4]
 251              		.loc 2 42 0
 252 00a6 5860     		str	r0, [r3, #4]
 253 00a8 1060     		str	r0, [r2]
 254              	.LBE41:
 255              	.LBE40:
 256              		.loc 1 136 0
 257 00aa 8868     		ldr	r0, [r1, #8]
 258              	.LVL21:
 259              		.loc 1 128 0
 260 00ac A268     		ldr	r2, [r4, #8]
 261 00ae 8168     		ldr	r1, [r0, #8]
 262              	.LVL22:
 263 00b0 9142     		cmp	r1, r2
 264 00b2 B0D3     		bcc	.L22
 265 00b4 B7E7     		b	.L5
 266              	.LVL23:
 267              	.L3:
 268              	.LBE42:
 269              		.loc 1 177 0
 270 00b6 E16B     		ldr	r1, [r4, #60]
 271              		.loc 1 176 0
 272 00b8 AC60     		str	r4, [r5, #8]
 273              		.loc 1 177 0
 274 00ba E960     		str	r1, [r5, #12]
 275              		.loc 1 178 0
 276 00bc E563     		str	r5, [r4, #60]
 277 00be C4E7     		b	.L2
 278              	.L26:
 279              		.align	2
 280              	.L25:
 281 00c0 00000000 		.word	rlist
 282              		.cfi_endproc
 283              	.LFE9:
 284              		.size	chMtxLockS, .-chMtxLockS
ARM GAS  /var/folders/qh/xwg3v3kj02qbxczjpdb8lzfr0000gn/T//ccY8qlwd.s 			page 6


 285 00c4 C046C046 		.section	.text.chMtxLock,"ax",%progbits
 285      C046C046 
 285      C046C046 
 286              		.align	2
 287              		.p2align 4,,15
 288              		.global	chMtxLock
 289              		.code	16
 290              		.thumb_func
 291              		.type	chMtxLock, %function
 292              	chMtxLock:
 293              	.LFB8:
 294              		.loc 1 96 0
 295              		.cfi_startproc
 296              	.LVL24:
 297 0000 08B5     		push	{r3, lr}
 298              		.cfi_def_cfa_offset 8
 299              		.cfi_offset 3, -8
 300              		.cfi_offset 14, -4
 301              		.loc 1 98 0
 302              	@ 98 "../../os/kernel/src/chmtx.c" 1
 303 0002 72B6     		cpsid   i
 304              	@ 0 "" 2
 305              		.loc 1 100 0
 306              		.code	16
 307 0004 FFF7FEFF 		bl	chMtxLockS
 308              	.LVL25:
 309              		.loc 1 102 0
 310              	@ 102 "../../os/kernel/src/chmtx.c" 1
 311 0008 62B6     		cpsie   i
 312              	@ 0 "" 2
 313              		.loc 1 103 0
 314              		.code	16
 315              		@ sp needed
 316 000a 08BD     		pop	{r3, pc}
 317              		.cfi_endproc
 318              	.LFE8:
 319              		.size	chMtxLock, .-chMtxLock
 320 000c C046C046 		.section	.text.chMtxTryLock,"ax",%progbits
 321              		.align	2
 322              		.p2align 4,,15
 323              		.global	chMtxTryLock
 324              		.code	16
 325              		.thumb_func
 326              		.type	chMtxTryLock, %function
 327              	chMtxTryLock:
 328              	.LFB10:
 329              		.loc 1 199 0
 330              		.cfi_startproc
 331              	.LVL26:
 332              		.loc 1 199 0
 333 0000 031C     		mov	r3, r0
 334              		.loc 1 202 0
 335              	@ 202 "../../os/kernel/src/chmtx.c" 1
 336 0002 72B6     		cpsid   i
 337              	@ 0 "" 2
 338              	.LVL27:
 339              		.code	16
ARM GAS  /var/folders/qh/xwg3v3kj02qbxczjpdb8lzfr0000gn/T//ccY8qlwd.s 			page 7


 340              	.LBB43:
 341              	.LBB44:
 342              		.loc 1 232 0
 343 0004 9968     		ldr	r1, [r3, #8]
 344              		.loc 1 233 0
 345 0006 0020     		mov	r0, #0
 346              	.LVL28:
 347              		.loc 1 232 0
 348 0008 0029     		cmp	r1, #0
 349 000a 01D0     		beq	.L31
 350              	.L29:
 351              	.LBE44:
 352              	.LBE43:
 353              		.loc 1 206 0
 354              	@ 206 "../../os/kernel/src/chmtx.c" 1
 355 000c 62B6     		cpsie   i
 356              	@ 0 "" 2
 357              		.loc 1 208 0
 358              		.code	16
 359              		@ sp needed
 360 000e 7047     		bx	lr
 361              	.L31:
 362              	.LBB46:
 363              	.LBB45:
 364              		.loc 1 234 0
 365 0010 034A     		ldr	r2, .L32
 366              		.loc 1 237 0
 367 0012 0120     		mov	r0, #1
 368              		.loc 1 234 0
 369 0014 9269     		ldr	r2, [r2, #24]
 370              		.loc 1 235 0
 371 0016 D16B     		ldr	r1, [r2, #60]
 372              		.loc 1 234 0
 373 0018 9A60     		str	r2, [r3, #8]
 374              		.loc 1 235 0
 375 001a D960     		str	r1, [r3, #12]
 376              		.loc 1 236 0
 377 001c D363     		str	r3, [r2, #60]
 378 001e F5E7     		b	.L29
 379              	.L33:
 380              		.align	2
 381              	.L32:
 382 0020 00000000 		.word	rlist
 383              	.LBE45:
 384              	.LBE46:
 385              		.cfi_endproc
 386              	.LFE10:
 387              		.size	chMtxTryLock, .-chMtxTryLock
 388 0024 C046C046 		.section	.text.chMtxTryLockS,"ax",%progbits
 388      C046C046 
 388      C046C046 
 389              		.align	2
 390              		.p2align 4,,15
 391              		.global	chMtxTryLockS
 392              		.code	16
 393              		.thumb_func
 394              		.type	chMtxTryLockS, %function
ARM GAS  /var/folders/qh/xwg3v3kj02qbxczjpdb8lzfr0000gn/T//ccY8qlwd.s 			page 8


 395              	chMtxTryLockS:
 396              	.LFB11:
 397              		.loc 1 227 0
 398              		.cfi_startproc
 399              	.LVL29:
 400              		.loc 1 227 0
 401 0000 031C     		mov	r3, r0
 402              		.loc 1 232 0
 403 0002 9968     		ldr	r1, [r3, #8]
 404              		.loc 1 233 0
 405 0004 0020     		mov	r0, #0
 406              	.LVL30:
 407              		.loc 1 232 0
 408 0006 0029     		cmp	r1, #0
 409 0008 00D0     		beq	.L37
 410              	.L35:
 411              		.loc 1 238 0
 412              		@ sp needed
 413 000a 7047     		bx	lr
 414              	.L37:
 415              		.loc 1 234 0
 416 000c 034A     		ldr	r2, .L38
 417              		.loc 1 237 0
 418 000e 0120     		mov	r0, #1
 419              		.loc 1 234 0
 420 0010 9269     		ldr	r2, [r2, #24]
 421              		.loc 1 235 0
 422 0012 D16B     		ldr	r1, [r2, #60]
 423              		.loc 1 234 0
 424 0014 9A60     		str	r2, [r3, #8]
 425              		.loc 1 235 0
 426 0016 D960     		str	r1, [r3, #12]
 427              		.loc 1 236 0
 428 0018 D363     		str	r3, [r2, #60]
 429              		.loc 1 237 0
 430 001a F6E7     		b	.L35
 431              	.L39:
 432              		.align	2
 433              	.L38:
 434 001c 00000000 		.word	rlist
 435              		.cfi_endproc
 436              	.LFE11:
 437              		.size	chMtxTryLockS, .-chMtxTryLockS
 438              		.section	.text.chMtxUnlock,"ax",%progbits
 439              		.align	2
 440              		.p2align 4,,15
 441              		.global	chMtxUnlock
 442              		.code	16
 443              		.thumb_func
 444              		.type	chMtxUnlock, %function
 445              	chMtxUnlock:
 446              	.LFB12:
 447              		.loc 1 250 0
 448              		.cfi_startproc
 449 0000 38B5     		push	{r3, r4, r5, lr}
 450              		.cfi_def_cfa_offset 16
 451              		.cfi_offset 3, -16
ARM GAS  /var/folders/qh/xwg3v3kj02qbxczjpdb8lzfr0000gn/T//ccY8qlwd.s 			page 9


 452              		.cfi_offset 4, -12
 453              		.cfi_offset 5, -8
 454              		.cfi_offset 14, -4
 455              		.loc 1 251 0
 456 0002 134B     		ldr	r3, .L53
 457 0004 9D69     		ldr	r5, [r3, #24]
 458              	.LVL31:
 459              		.loc 1 254 0
 460              	@ 254 "../../os/kernel/src/chmtx.c" 1
 461 0006 72B6     		cpsid   i
 462              	@ 0 "" 2
 463              		.loc 1 263 0
 464              		.code	16
 465 0008 EC6B     		ldr	r4, [r5, #60]
 466              	.LVL32:
 467              		.loc 1 264 0
 468 000a E368     		ldr	r3, [r4, #12]
 469              		.loc 1 266 0
 470 000c 2068     		ldr	r0, [r4]
 471              		.loc 1 264 0
 472 000e EB63     		str	r3, [r5, #60]
 473              		.loc 1 266 0
 474 0010 A042     		cmp	r0, r4
 475 0012 1AD0     		beq	.L41
 476              	.LBB47:
 477              		.loc 1 271 0
 478 0014 296C     		ldr	r1, [r5, #64]
 479              	.LVL33:
 480              		.loc 1 273 0
 481 0016 002B     		cmp	r3, #0
 482 0018 09D0     		beq	.L42
 483              	.L45:
 484              		.loc 1 277 0
 485 001a 1A68     		ldr	r2, [r3]
 486 001c 9A42     		cmp	r2, r3
 487 001e 03D0     		beq	.L43
 488              		.loc 1 277 0 is_stmt 0 discriminator 1
 489 0020 9268     		ldr	r2, [r2, #8]
 490 0022 9142     		cmp	r1, r2
 491 0024 00D2     		bcs	.L43
 492 0026 111C     		mov	r1, r2
 493              	.LVL34:
 494              	.L43:
 495              		.loc 1 279 0 is_stmt 1
 496 0028 DB68     		ldr	r3, [r3, #12]
 497              	.LVL35:
 498              		.loc 1 273 0
 499 002a 002B     		cmp	r3, #0
 500 002c F5D1     		bne	.L45
 501              	.L42:
 502              	.LBB48:
 503              	.LBB49:
 504              		.loc 2 55 0
 505 002e 0368     		ldr	r3, [r0]
 506              	.LVL36:
 507              	.LBE49:
 508              	.LBE48:
ARM GAS  /var/folders/qh/xwg3v3kj02qbxczjpdb8lzfr0000gn/T//ccY8qlwd.s 			page 10


 509              		.loc 1 283 0
 510 0030 A960     		str	r1, [r5, #8]
 511              	.LVL37:
 512              	.LBB51:
 513              	.LBB50:
 514              		.loc 2 55 0
 515 0032 2360     		str	r3, [r4]
 516 0034 5C60     		str	r4, [r3, #4]
 517              	.LBE50:
 518              	.LBE51:
 519              		.loc 1 288 0
 520 0036 C36B     		ldr	r3, [r0, #60]
 521              		.loc 1 287 0
 522 0038 A060     		str	r0, [r4, #8]
 523              		.loc 1 288 0
 524 003a E360     		str	r3, [r4, #12]
 525              		.loc 1 290 0
 526 003c 0021     		mov	r1, #0
 527              	.LVL38:
 528              		.loc 1 289 0
 529 003e C463     		str	r4, [r0, #60]
 530              		.loc 1 290 0
 531 0040 FFF7FEFF 		bl	chSchWakeupS
 532              	.LVL39:
 533              	.L46:
 534              	.LBE47:
 535              		.loc 1 294 0
 536              	@ 294 "../../os/kernel/src/chmtx.c" 1
 537 0044 62B6     		cpsie   i
 538              	@ 0 "" 2
 539              		.loc 1 296 0
 540              		.code	16
 541 0046 201C     		mov	r0, r4
 542              		@ sp needed
 543              	.LVL40:
 544              	.LVL41:
 545 0048 38BD     		pop	{r3, r4, r5, pc}
 546              	.LVL42:
 547              	.L41:
 548              		.loc 1 293 0
 549 004a 0023     		mov	r3, #0
 550 004c A360     		str	r3, [r4, #8]
 551 004e F9E7     		b	.L46
 552              	.L54:
 553              		.align	2
 554              	.L53:
 555 0050 00000000 		.word	rlist
 556              		.cfi_endproc
 557              	.LFE12:
 558              		.size	chMtxUnlock, .-chMtxUnlock
 559 0054 C046C046 		.section	.text.chMtxUnlockS,"ax",%progbits
 559      C046C046 
 559      C046C046 
 560              		.align	2
 561              		.p2align 4,,15
 562              		.global	chMtxUnlockS
 563              		.code	16
ARM GAS  /var/folders/qh/xwg3v3kj02qbxczjpdb8lzfr0000gn/T//ccY8qlwd.s 			page 11


 564              		.thumb_func
 565              		.type	chMtxUnlockS, %function
 566              	chMtxUnlockS:
 567              	.LFB13:
 568              		.loc 1 310 0
 569              		.cfi_startproc
 570 0000 38B5     		push	{r3, r4, r5, lr}
 571              		.cfi_def_cfa_offset 16
 572              		.cfi_offset 3, -16
 573              		.cfi_offset 4, -12
 574              		.cfi_offset 5, -8
 575              		.cfi_offset 14, -4
 576              		.loc 1 311 0
 577 0002 124B     		ldr	r3, .L68
 578 0004 9D69     		ldr	r5, [r3, #24]
 579              	.LVL43:
 580              		.loc 1 324 0
 581 0006 EC6B     		ldr	r4, [r5, #60]
 582              	.LVL44:
 583              		.loc 1 325 0
 584 0008 E368     		ldr	r3, [r4, #12]
 585              		.loc 1 327 0
 586 000a 2068     		ldr	r0, [r4]
 587              		.loc 1 325 0
 588 000c EB63     		str	r3, [r5, #60]
 589              		.loc 1 327 0
 590 000e A042     		cmp	r0, r4
 591 0010 18D0     		beq	.L56
 592              	.LBB52:
 593              		.loc 1 332 0
 594 0012 296C     		ldr	r1, [r5, #64]
 595              	.LVL45:
 596              		.loc 1 334 0
 597 0014 002B     		cmp	r3, #0
 598 0016 09D0     		beq	.L57
 599              	.L60:
 600              		.loc 1 338 0
 601 0018 1A68     		ldr	r2, [r3]
 602 001a 9A42     		cmp	r2, r3
 603 001c 03D0     		beq	.L58
 604              		.loc 1 338 0 is_stmt 0 discriminator 1
 605 001e 9268     		ldr	r2, [r2, #8]
 606 0020 9142     		cmp	r1, r2
 607 0022 00D2     		bcs	.L58
 608 0024 111C     		mov	r1, r2
 609              	.LVL46:
 610              	.L58:
 611              		.loc 1 340 0 is_stmt 1
 612 0026 DB68     		ldr	r3, [r3, #12]
 613              	.LVL47:
 614              		.loc 1 334 0
 615 0028 002B     		cmp	r3, #0
 616 002a F5D1     		bne	.L60
 617              	.L57:
 618              	.LBB53:
 619              	.LBB54:
 620              		.loc 2 55 0
ARM GAS  /var/folders/qh/xwg3v3kj02qbxczjpdb8lzfr0000gn/T//ccY8qlwd.s 			page 12


 621 002c 0368     		ldr	r3, [r0]
 622              	.LVL48:
 623              	.LBE54:
 624              	.LBE53:
 625              		.loc 1 342 0
 626 002e A960     		str	r1, [r5, #8]
 627              	.LVL49:
 628              	.LBB56:
 629              	.LBB55:
 630              		.loc 2 55 0
 631 0030 2360     		str	r3, [r4]
 632 0032 5C60     		str	r4, [r3, #4]
 633              	.LBE55:
 634              	.LBE56:
 635              		.loc 1 347 0
 636 0034 C36B     		ldr	r3, [r0, #60]
 637              		.loc 1 346 0
 638 0036 A060     		str	r0, [r4, #8]
 639              		.loc 1 347 0
 640 0038 E360     		str	r3, [r4, #12]
 641              		.loc 1 348 0
 642 003a C463     		str	r4, [r0, #60]
 643              		.loc 1 349 0
 644 003c FFF7FEFF 		bl	chSchReadyI
 645              	.LVL50:
 646              	.L61:
 647              	.LBE52:
 648              		.loc 1 354 0
 649 0040 201C     		mov	r0, r4
 650              		@ sp needed
 651              	.LVL51:
 652              	.LVL52:
 653 0042 38BD     		pop	{r3, r4, r5, pc}
 654              	.LVL53:
 655              	.L56:
 656              		.loc 1 352 0
 657 0044 0023     		mov	r3, #0
 658 0046 A360     		str	r3, [r4, #8]
 659 0048 FAE7     		b	.L61
 660              	.L69:
 661 004a C046     		.align	2
 662              	.L68:
 663 004c 00000000 		.word	rlist
 664              		.cfi_endproc
 665              	.LFE13:
 666              		.size	chMtxUnlockS, .-chMtxUnlockS
 667              		.section	.text.chMtxUnlockAll,"ax",%progbits
 668              		.align	2
 669              		.p2align 4,,15
 670              		.global	chMtxUnlockAll
 671              		.code	16
 672              		.thumb_func
 673              		.type	chMtxUnlockAll, %function
 674              	chMtxUnlockAll:
 675              	.LFB14:
 676              		.loc 1 367 0
 677              		.cfi_startproc
ARM GAS  /var/folders/qh/xwg3v3kj02qbxczjpdb8lzfr0000gn/T//ccY8qlwd.s 			page 13


 678 0000 38B5     		push	{r3, r4, r5, lr}
 679              		.cfi_def_cfa_offset 16
 680              		.cfi_offset 3, -16
 681              		.cfi_offset 4, -12
 682              		.cfi_offset 5, -8
 683              		.cfi_offset 14, -4
 684              		.loc 1 368 0
 685 0002 114B     		ldr	r3, .L81
 686 0004 9C69     		ldr	r4, [r3, #24]
 687              	.LVL54:
 688              		.loc 1 370 0
 689              	@ 370 "../../os/kernel/src/chmtx.c" 1
 690 0006 72B6     		cpsid   i
 691              	@ 0 "" 2
 692              		.loc 1 371 0
 693              		.code	16
 694 0008 E36B     		ldr	r3, [r4, #60]
 695 000a 002B     		cmp	r3, #0
 696 000c 1AD0     		beq	.L71
 697              	.LBB57:
 698              		.loc 1 383 0
 699 000e 0025     		mov	r5, #0
 700 0010 0BE0     		b	.L75
 701              	.LVL55:
 702              	.L80:
 703              	.LBB58:
 704              	.LBB59:
 705              	.LBB60:
 706              		.loc 2 55 0
 707 0012 0268     		ldr	r2, [r0]
 708 0014 1A60     		str	r2, [r3]
 709 0016 5360     		str	r3, [r2, #4]
 710              	.LBE60:
 711              	.LBE59:
 712              		.loc 1 378 0
 713 0018 C26B     		ldr	r2, [r0, #60]
 714              		.loc 1 377 0
 715 001a 9860     		str	r0, [r3, #8]
 716              		.loc 1 378 0
 717 001c DA60     		str	r2, [r3, #12]
 718              		.loc 1 379 0
 719 001e C363     		str	r3, [r0, #60]
 720              		.loc 1 380 0
 721 0020 FFF7FEFF 		bl	chSchReadyI
 722              	.LVL56:
 723              	.LBE58:
 724              	.LBE57:
 725              		.loc 1 384 0
 726 0024 E36B     		ldr	r3, [r4, #60]
 727 0026 002B     		cmp	r3, #0
 728 0028 08D0     		beq	.L79
 729              	.L75:
 730              	.LVL57:
 731              	.LBB61:
 732              		.loc 1 374 0
 733 002a DA68     		ldr	r2, [r3, #12]
 734              		.loc 1 375 0
ARM GAS  /var/folders/qh/xwg3v3kj02qbxczjpdb8lzfr0000gn/T//ccY8qlwd.s 			page 14


 735 002c 1868     		ldr	r0, [r3]
 736              		.loc 1 374 0
 737 002e E263     		str	r2, [r4, #60]
 738              		.loc 1 375 0
 739 0030 9842     		cmp	r0, r3
 740 0032 EED1     		bne	.L80
 741              		.loc 1 383 0
 742 0034 9D60     		str	r5, [r3, #8]
 743              	.LBE61:
 744              		.loc 1 384 0
 745 0036 E36B     		ldr	r3, [r4, #60]
 746              	.LVL58:
 747 0038 002B     		cmp	r3, #0
 748 003a F6D1     		bne	.L75
 749              	.L79:
 750              		.loc 1 385 0
 751 003c 236C     		ldr	r3, [r4, #64]
 752 003e A360     		str	r3, [r4, #8]
 753              		.loc 1 386 0
 754 0040 FFF7FEFF 		bl	chSchRescheduleS
 755              	.LVL59:
 756              	.L71:
 757              		.loc 1 388 0
 758              	@ 388 "../../os/kernel/src/chmtx.c" 1
 759 0044 62B6     		cpsie   i
 760              	@ 0 "" 2
 761              		.loc 1 389 0
 762              		.code	16
 763              		@ sp needed
 764              	.LVL60:
 765 0046 38BD     		pop	{r3, r4, r5, pc}
 766              	.L82:
 767              		.align	2
 768              	.L81:
 769 0048 00000000 		.word	rlist
 770              		.cfi_endproc
 771              	.LFE14:
 772              		.size	chMtxUnlockAll, .-chMtxUnlockAll
 773 004c C046C046 		.text
 774              	.Letext0:
 775              		.file 3 "/usr/local/Cellar/gcc-arm-none-eabi-48/20131218/arm-none-eabi/include/stdint.h"
 776              		.file 4 "../../os/ports/GCC/ARMCMx/chtypes.h"
 777              		.file 5 "../../os/kernel/include/chlists.h"
 778              		.file 6 "../../os/kernel/include/chthreads.h"
 779              		.file 7 "../../os/ports/GCC/ARMCMx/chcore_v6m.h"
 780              		.file 8 "../../os/kernel/include/chschd.h"
 781              		.file 9 "../../os/kernel/include/chmtx.h"
 782              		.section	.debug_info,"",%progbits
 783              	.Ldebug_info0:
 784 0000 C2080000 		.4byte	0x8c2
 785 0004 0400     		.2byte	0x4
 786 0006 00000000 		.4byte	.Ldebug_abbrev0
 787 000a 04       		.byte	0x4
 788 000b 01       		.uleb128 0x1
 789 000c B7010000 		.4byte	.LASF78
 790 0010 01       		.byte	0x1
 791 0011 94030000 		.4byte	.LASF79
ARM GAS  /var/folders/qh/xwg3v3kj02qbxczjpdb8lzfr0000gn/T//ccY8qlwd.s 			page 15


 792 0015 FC000000 		.4byte	.LASF80
 793 0019 90000000 		.4byte	.Ldebug_ranges0+0x90
 794 001d 00000000 		.4byte	0
 795 0021 00000000 		.4byte	.Ldebug_line0
 796 0025 02       		.uleb128 0x2
 797 0026 04       		.byte	0x4
 798 0027 05       		.byte	0x5
 799 0028 696E7400 		.ascii	"int\000"
 800 002c 03       		.uleb128 0x3
 801 002d 04       		.byte	0x4
 802 002e 07       		.byte	0x7
 803 002f DD000000 		.4byte	.LASF0
 804 0033 03       		.uleb128 0x3
 805 0034 01       		.byte	0x1
 806 0035 06       		.byte	0x6
 807 0036 4E000000 		.4byte	.LASF1
 808 003a 04       		.uleb128 0x4
 809 003b 13040000 		.4byte	.LASF5
 810 003f 03       		.byte	0x3
 811 0040 2A       		.byte	0x2a
 812 0041 45000000 		.4byte	0x45
 813 0045 03       		.uleb128 0x3
 814 0046 01       		.byte	0x1
 815 0047 08       		.byte	0x8
 816 0048 F5020000 		.4byte	.LASF2
 817 004c 03       		.uleb128 0x3
 818 004d 02       		.byte	0x2
 819 004e 05       		.byte	0x5
 820 004f 0D030000 		.4byte	.LASF3
 821 0053 03       		.uleb128 0x3
 822 0054 02       		.byte	0x2
 823 0055 07       		.byte	0x7
 824 0056 3F010000 		.4byte	.LASF4
 825 005a 04       		.uleb128 0x4
 826 005b ED020000 		.4byte	.LASF6
 827 005f 03       		.byte	0x3
 828 0060 4F       		.byte	0x4f
 829 0061 65000000 		.4byte	0x65
 830 0065 03       		.uleb128 0x3
 831 0066 04       		.byte	0x4
 832 0067 05       		.byte	0x5
 833 0068 7B000000 		.4byte	.LASF7
 834 006c 04       		.uleb128 0x4
 835 006d 66030000 		.4byte	.LASF8
 836 0071 03       		.byte	0x3
 837 0072 50       		.byte	0x50
 838 0073 77000000 		.4byte	0x77
 839 0077 03       		.uleb128 0x3
 840 0078 04       		.byte	0x4
 841 0079 07       		.byte	0x7
 842 007a EA000000 		.4byte	.LASF9
 843 007e 03       		.uleb128 0x3
 844 007f 08       		.byte	0x8
 845 0080 05       		.byte	0x5
 846 0081 40000000 		.4byte	.LASF10
 847 0085 03       		.uleb128 0x3
 848 0086 08       		.byte	0x8
ARM GAS  /var/folders/qh/xwg3v3kj02qbxczjpdb8lzfr0000gn/T//ccY8qlwd.s 			page 16


 849 0087 07       		.byte	0x7
 850 0088 0D000000 		.4byte	.LASF11
 851 008c 04       		.uleb128 0x4
 852 008d 62000000 		.4byte	.LASF12
 853 0091 04       		.byte	0x4
 854 0092 24       		.byte	0x24
 855 0093 97000000 		.4byte	0x97
 856 0097 03       		.uleb128 0x3
 857 0098 01       		.byte	0x1
 858 0099 02       		.byte	0x2
 859 009a E7020000 		.4byte	.LASF13
 860 009e 04       		.uleb128 0x4
 861 009f 7B010000 		.4byte	.LASF14
 862 00a3 04       		.byte	0x4
 863 00a4 25       		.byte	0x25
 864 00a5 3A000000 		.4byte	0x3a
 865 00a9 04       		.uleb128 0x4
 866 00aa 84000000 		.4byte	.LASF15
 867 00ae 04       		.byte	0x4
 868 00af 26       		.byte	0x26
 869 00b0 3A000000 		.4byte	0x3a
 870 00b4 04       		.uleb128 0x4
 871 00b5 D0020000 		.4byte	.LASF16
 872 00b9 04       		.byte	0x4
 873 00ba 27       		.byte	0x27
 874 00bb 3A000000 		.4byte	0x3a
 875 00bf 04       		.uleb128 0x4
 876 00c0 71000000 		.4byte	.LASF17
 877 00c4 04       		.byte	0x4
 878 00c5 28       		.byte	0x28
 879 00c6 3A000000 		.4byte	0x3a
 880 00ca 04       		.uleb128 0x4
 881 00cb DF020000 		.4byte	.LASF18
 882 00cf 04       		.byte	0x4
 883 00d0 29       		.byte	0x29
 884 00d1 6C000000 		.4byte	0x6c
 885 00d5 04       		.uleb128 0x4
 886 00d6 52010000 		.4byte	.LASF19
 887 00da 04       		.byte	0x4
 888 00db 2A       		.byte	0x2a
 889 00dc 5A000000 		.4byte	0x5a
 890 00e0 04       		.uleb128 0x4
 891 00e1 8F010000 		.4byte	.LASF20
 892 00e5 04       		.byte	0x4
 893 00e6 2C       		.byte	0x2c
 894 00e7 6C000000 		.4byte	0x6c
 895 00eb 04       		.uleb128 0x4
 896 00ec B7030000 		.4byte	.LASF21
 897 00f0 04       		.byte	0x4
 898 00f1 2E       		.byte	0x2e
 899 00f2 6C000000 		.4byte	0x6c
 900 00f6 04       		.uleb128 0x4
 901 00f7 46030000 		.4byte	.LASF22
 902 00fb 05       		.byte	0x5
 903 00fc 23       		.byte	0x23
 904 00fd 01010000 		.4byte	0x101
 905 0101 05       		.uleb128 0x5
ARM GAS  /var/folders/qh/xwg3v3kj02qbxczjpdb8lzfr0000gn/T//ccY8qlwd.s 			page 17


 906 0102 46030000 		.4byte	.LASF22
 907 0106 48       		.byte	0x48
 908 0107 06       		.byte	0x6
 909 0108 57       		.byte	0x57
 910 0109 FE010000 		.4byte	0x1fe
 911 010d 06       		.uleb128 0x6
 912 010e 37030000 		.4byte	.LASF23
 913 0112 06       		.byte	0x6
 914 0113 58       		.byte	0x58
 915 0114 1F020000 		.4byte	0x21f
 916 0118 00       		.byte	0
 917 0119 06       		.uleb128 0x6
 918 011a D8020000 		.4byte	.LASF24
 919 011e 06       		.byte	0x6
 920 011f 5A       		.byte	0x5a
 921 0120 1F020000 		.4byte	0x21f
 922 0124 04       		.byte	0x4
 923 0125 06       		.uleb128 0x6
 924 0126 39000000 		.4byte	.LASF25
 925 012a 06       		.byte	0x6
 926 012b 5C       		.byte	0x5c
 927 012c CA000000 		.4byte	0xca
 928 0130 08       		.byte	0x8
 929 0131 06       		.uleb128 0x6
 930 0132 31040000 		.4byte	.LASF26
 931 0136 06       		.byte	0x6
 932 0137 5D       		.byte	0x5d
 933 0138 CF020000 		.4byte	0x2cf
 934 013c 0C       		.byte	0xc
 935 013d 06       		.uleb128 0x6
 936 013e A6000000 		.4byte	.LASF27
 937 0142 06       		.byte	0x6
 938 0143 5F       		.byte	0x5f
 939 0144 1F020000 		.4byte	0x21f
 940 0148 10       		.byte	0x10
 941 0149 06       		.uleb128 0x6
 942 014a 9B020000 		.4byte	.LASF28
 943 014e 06       		.byte	0x6
 944 014f 60       		.byte	0x60
 945 0150 1F020000 		.4byte	0x21f
 946 0154 14       		.byte	0x14
 947 0155 06       		.uleb128 0x6
 948 0156 22040000 		.4byte	.LASF29
 949 015a 06       		.byte	0x6
 950 015b 67       		.byte	0x67
 951 015c CD030000 		.4byte	0x3cd
 952 0160 18       		.byte	0x18
 953 0161 06       		.uleb128 0x6
 954 0162 17030000 		.4byte	.LASF30
 955 0166 06       		.byte	0x6
 956 0167 72       		.byte	0x72
 957 0168 A9000000 		.4byte	0xa9
 958 016c 1C       		.byte	0x1c
 959 016d 06       		.uleb128 0x6
 960 016e 3E030000 		.4byte	.LASF31
 961 0172 06       		.byte	0x6
 962 0173 76       		.byte	0x76
ARM GAS  /var/folders/qh/xwg3v3kj02qbxczjpdb8lzfr0000gn/T//ccY8qlwd.s 			page 18


 963 0174 9E000000 		.4byte	0x9e
 964 0178 1D       		.byte	0x1d
 965 0179 06       		.uleb128 0x6
 966 017a FC030000 		.4byte	.LASF32
 967 017e 06       		.byte	0x6
 968 017f 7B       		.byte	0x7b
 969 0180 B4000000 		.4byte	0xb4
 970 0184 1E       		.byte	0x1e
 971 0185 06       		.uleb128 0x6
 972 0186 1F030000 		.4byte	.LASF33
 973 018a 06       		.byte	0x6
 974 018b 81       		.byte	0x81
 975 018c BF000000 		.4byte	0xbf
 976 0190 1F       		.byte	0x1f
 977 0191 06       		.uleb128 0x6
 978 0192 CC030000 		.4byte	.LASF34
 979 0196 06       		.byte	0x6
 980 0197 88       		.byte	0x88
 981 0198 F5020000 		.4byte	0x2f5
 982 019c 20       		.byte	0x20
 983 019d 07       		.uleb128 0x7
 984 019e 705F7500 		.ascii	"p_u\000"
 985 01a2 06       		.byte	0x6
 986 01a3 AD       		.byte	0xad
 987 01a4 98030000 		.4byte	0x398
 988 01a8 24       		.byte	0x24
 989 01a9 06       		.uleb128 0x6
 990 01aa 37040000 		.4byte	.LASF35
 991 01ae 06       		.byte	0x6
 992 01af B2       		.byte	0xb2
 993 01b0 45020000 		.4byte	0x245
 994 01b4 28       		.byte	0x28
 995 01b5 06       		.uleb128 0x6
 996 01b6 DA030000 		.4byte	.LASF36
 997 01ba 06       		.byte	0x6
 998 01bb B8       		.byte	0xb8
 999 01bc 25020000 		.4byte	0x225
 1000 01c0 2C       		.byte	0x2c
 1001 01c1 06       		.uleb128 0x6
 1002 01c2 00000000 		.4byte	.LASF37
 1003 01c6 06       		.byte	0x6
 1004 01c7 BC       		.byte	0xbc
 1005 01c8 D5000000 		.4byte	0xd5
 1006 01cc 34       		.byte	0x34
 1007 01cd 06       		.uleb128 0x6
 1008 01ce 5B030000 		.4byte	.LASF38
 1009 01d2 06       		.byte	0x6
 1010 01d3 C2       		.byte	0xc2
 1011 01d4 E0000000 		.4byte	0xe0
 1012 01d8 38       		.byte	0x38
 1013 01d9 06       		.uleb128 0x6
 1014 01da 03030000 		.4byte	.LASF39
 1015 01de 06       		.byte	0x6
 1016 01df C9       		.byte	0xc9
 1017 01e0 DF030000 		.4byte	0x3df
 1018 01e4 3C       		.byte	0x3c
 1019 01e5 06       		.uleb128 0x6
ARM GAS  /var/folders/qh/xwg3v3kj02qbxczjpdb8lzfr0000gn/T//ccY8qlwd.s 			page 19


 1020 01e6 C1030000 		.4byte	.LASF40
 1021 01ea 06       		.byte	0x6
 1022 01eb CD       		.byte	0xcd
 1023 01ec CA000000 		.4byte	0xca
 1024 01f0 40       		.byte	0x40
 1025 01f1 06       		.uleb128 0x6
 1026 01f2 5A000000 		.4byte	.LASF41
 1027 01f6 06       		.byte	0x6
 1028 01f7 D3       		.byte	0xd3
 1029 01f8 5B020000 		.4byte	0x25b
 1030 01fc 44       		.byte	0x44
 1031 01fd 00       		.byte	0
 1032 01fe 08       		.uleb128 0x8
 1033 01ff 08       		.byte	0x8
 1034 0200 05       		.byte	0x5
 1035 0201 5A       		.byte	0x5a
 1036 0202 1F020000 		.4byte	0x21f
 1037 0206 06       		.uleb128 0x6
 1038 0207 37030000 		.4byte	.LASF23
 1039 020b 05       		.byte	0x5
 1040 020c 5B       		.byte	0x5b
 1041 020d 1F020000 		.4byte	0x21f
 1042 0211 00       		.byte	0
 1043 0212 06       		.uleb128 0x6
 1044 0213 D8020000 		.4byte	.LASF24
 1045 0217 05       		.byte	0x5
 1046 0218 5D       		.byte	0x5d
 1047 0219 1F020000 		.4byte	0x21f
 1048 021d 04       		.byte	0x4
 1049 021e 00       		.byte	0
 1050 021f 09       		.uleb128 0x9
 1051 0220 04       		.byte	0x4
 1052 0221 F6000000 		.4byte	0xf6
 1053 0225 04       		.uleb128 0x4
 1054 0226 A9020000 		.4byte	.LASF42
 1055 022a 05       		.byte	0x5
 1056 022b 5F       		.byte	0x5f
 1057 022c FE010000 		.4byte	0x1fe
 1058 0230 08       		.uleb128 0x8
 1059 0231 04       		.byte	0x4
 1060 0232 05       		.byte	0x5
 1061 0233 64       		.byte	0x64
 1062 0234 45020000 		.4byte	0x245
 1063 0238 06       		.uleb128 0x6
 1064 0239 37030000 		.4byte	.LASF23
 1065 023d 05       		.byte	0x5
 1066 023e 66       		.byte	0x66
 1067 023f 1F020000 		.4byte	0x21f
 1068 0243 00       		.byte	0
 1069 0244 00       		.byte	0
 1070 0245 04       		.uleb128 0x4
 1071 0246 83010000 		.4byte	.LASF43
 1072 024a 05       		.byte	0x5
 1073 024b 69       		.byte	0x69
 1074 024c 30020000 		.4byte	0x230
 1075 0250 04       		.uleb128 0x4
 1076 0251 C7000000 		.4byte	.LASF44
ARM GAS  /var/folders/qh/xwg3v3kj02qbxczjpdb8lzfr0000gn/T//ccY8qlwd.s 			page 20


 1077 0255 07       		.byte	0x7
 1078 0256 A0       		.byte	0xa0
 1079 0257 5B020000 		.4byte	0x25b
 1080 025b 0A       		.uleb128 0xa
 1081 025c 04       		.byte	0x4
 1082 025d 05       		.uleb128 0x5
 1083 025e D3030000 		.4byte	.LASF45
 1084 0262 24       		.byte	0x24
 1085 0263 07       		.byte	0x7
 1086 0264 B3       		.byte	0xb3
 1087 0265 CF020000 		.4byte	0x2cf
 1088 0269 07       		.uleb128 0x7
 1089 026a 723800   		.ascii	"r8\000"
 1090 026d 07       		.byte	0x7
 1091 026e B4       		.byte	0xb4
 1092 026f 50020000 		.4byte	0x250
 1093 0273 00       		.byte	0
 1094 0274 07       		.uleb128 0x7
 1095 0275 723900   		.ascii	"r9\000"
 1096 0278 07       		.byte	0x7
 1097 0279 B5       		.byte	0xb5
 1098 027a 50020000 		.4byte	0x250
 1099 027e 04       		.byte	0x4
 1100 027f 07       		.uleb128 0x7
 1101 0280 72313000 		.ascii	"r10\000"
 1102 0284 07       		.byte	0x7
 1103 0285 B6       		.byte	0xb6
 1104 0286 50020000 		.4byte	0x250
 1105 028a 08       		.byte	0x8
 1106 028b 07       		.uleb128 0x7
 1107 028c 72313100 		.ascii	"r11\000"
 1108 0290 07       		.byte	0x7
 1109 0291 B7       		.byte	0xb7
 1110 0292 50020000 		.4byte	0x250
 1111 0296 0C       		.byte	0xc
 1112 0297 07       		.uleb128 0x7
 1113 0298 723400   		.ascii	"r4\000"
 1114 029b 07       		.byte	0x7
 1115 029c B8       		.byte	0xb8
 1116 029d 50020000 		.4byte	0x250
 1117 02a1 10       		.byte	0x10
 1118 02a2 07       		.uleb128 0x7
 1119 02a3 723500   		.ascii	"r5\000"
 1120 02a6 07       		.byte	0x7
 1121 02a7 B9       		.byte	0xb9
 1122 02a8 50020000 		.4byte	0x250
 1123 02ac 14       		.byte	0x14
 1124 02ad 07       		.uleb128 0x7
 1125 02ae 723600   		.ascii	"r6\000"
 1126 02b1 07       		.byte	0x7
 1127 02b2 BA       		.byte	0xba
 1128 02b3 50020000 		.4byte	0x250
 1129 02b7 18       		.byte	0x18
 1130 02b8 07       		.uleb128 0x7
 1131 02b9 723700   		.ascii	"r7\000"
 1132 02bc 07       		.byte	0x7
 1133 02bd BB       		.byte	0xbb
ARM GAS  /var/folders/qh/xwg3v3kj02qbxczjpdb8lzfr0000gn/T//ccY8qlwd.s 			page 21


 1134 02be 50020000 		.4byte	0x250
 1135 02c2 1C       		.byte	0x1c
 1136 02c3 07       		.uleb128 0x7
 1137 02c4 6C7200   		.ascii	"lr\000"
 1138 02c7 07       		.byte	0x7
 1139 02c8 BC       		.byte	0xbc
 1140 02c9 50020000 		.4byte	0x250
 1141 02cd 20       		.byte	0x20
 1142 02ce 00       		.byte	0
 1143 02cf 05       		.uleb128 0x5
 1144 02d0 37010000 		.4byte	.LASF46
 1145 02d4 04       		.byte	0x4
 1146 02d5 07       		.byte	0x7
 1147 02d6 C6       		.byte	0xc6
 1148 02d7 E8020000 		.4byte	0x2e8
 1149 02db 07       		.uleb128 0x7
 1150 02dc 72313300 		.ascii	"r13\000"
 1151 02e0 07       		.byte	0x7
 1152 02e1 C7       		.byte	0xc7
 1153 02e2 E8020000 		.4byte	0x2e8
 1154 02e6 00       		.byte	0
 1155 02e7 00       		.byte	0
 1156 02e8 09       		.uleb128 0x9
 1157 02e9 04       		.byte	0x4
 1158 02ea 5D020000 		.4byte	0x25d
 1159 02ee 03       		.uleb128 0x3
 1160 02ef 04       		.byte	0x4
 1161 02f0 07       		.byte	0x7
 1162 02f1 AE010000 		.4byte	.LASF47
 1163 02f5 0B       		.uleb128 0xb
 1164 02f6 EB000000 		.4byte	0xeb
 1165 02fa 08       		.uleb128 0x8
 1166 02fb 1C       		.byte	0x1c
 1167 02fc 08       		.byte	0x8
 1168 02fd 57       		.byte	0x57
 1169 02fe 4B030000 		.4byte	0x34b
 1170 0302 06       		.uleb128 0x6
 1171 0303 6F030000 		.4byte	.LASF48
 1172 0307 08       		.byte	0x8
 1173 0308 58       		.byte	0x58
 1174 0309 25020000 		.4byte	0x225
 1175 030d 00       		.byte	0
 1176 030e 06       		.uleb128 0x6
 1177 030f 29030000 		.4byte	.LASF49
 1178 0313 08       		.byte	0x8
 1179 0314 59       		.byte	0x59
 1180 0315 CA000000 		.4byte	0xca
 1181 0319 08       		.byte	0x8
 1182 031a 06       		.uleb128 0x6
 1183 031b A3020000 		.4byte	.LASF50
 1184 031f 08       		.byte	0x8
 1185 0320 5B       		.byte	0x5b
 1186 0321 CF020000 		.4byte	0x2cf
 1187 0325 0C       		.byte	0xc
 1188 0326 06       		.uleb128 0x6
 1189 0327 BF000000 		.4byte	.LASF51
 1190 032b 08       		.byte	0x8
ARM GAS  /var/folders/qh/xwg3v3kj02qbxczjpdb8lzfr0000gn/T//ccY8qlwd.s 			page 22


 1191 032c 5E       		.byte	0x5e
 1192 032d 1F020000 		.4byte	0x21f
 1193 0331 10       		.byte	0x10
 1194 0332 06       		.uleb128 0x6
 1195 0333 C8020000 		.4byte	.LASF52
 1196 0337 08       		.byte	0x8
 1197 0338 5F       		.byte	0x5f
 1198 0339 1F020000 		.4byte	0x21f
 1199 033d 14       		.byte	0x14
 1200 033e 06       		.uleb128 0x6
 1201 033f BE020000 		.4byte	.LASF53
 1202 0343 08       		.byte	0x8
 1203 0344 62       		.byte	0x62
 1204 0345 1F020000 		.4byte	0x21f
 1205 0349 18       		.byte	0x18
 1206 034a 00       		.byte	0
 1207 034b 04       		.uleb128 0x4
 1208 034c 03040000 		.4byte	.LASF54
 1209 0350 08       		.byte	0x8
 1210 0351 64       		.byte	0x64
 1211 0352 FA020000 		.4byte	0x2fa
 1212 0356 05       		.uleb128 0x5
 1213 0357 A8010000 		.4byte	.LASF55
 1214 035b 10       		.byte	0x10
 1215 035c 09       		.byte	0x9
 1216 035d 25       		.byte	0x25
 1217 035e 87030000 		.4byte	0x387
 1218 0362 06       		.uleb128 0x6
 1219 0363 69000000 		.4byte	.LASF56
 1220 0367 09       		.byte	0x9
 1221 0368 26       		.byte	0x26
 1222 0369 25020000 		.4byte	0x225
 1223 036d 00       		.byte	0
 1224 036e 06       		.uleb128 0x6
 1225 036f 29040000 		.4byte	.LASF57
 1226 0373 09       		.byte	0x9
 1227 0374 28       		.byte	0x28
 1228 0375 1F020000 		.4byte	0x21f
 1229 0379 08       		.byte	0x8
 1230 037a 06       		.uleb128 0x6
 1231 037b B0030000 		.4byte	.LASF58
 1232 037f 09       		.byte	0x9
 1233 0380 2A       		.byte	0x2a
 1234 0381 87030000 		.4byte	0x387
 1235 0385 0C       		.byte	0xc
 1236 0386 00       		.byte	0
 1237 0387 09       		.uleb128 0x9
 1238 0388 04       		.byte	0x4
 1239 0389 56030000 		.4byte	0x356
 1240 038d 04       		.uleb128 0x4
 1241 038e A8010000 		.4byte	.LASF55
 1242 0392 09       		.byte	0x9
 1243 0393 2C       		.byte	0x2c
 1244 0394 56030000 		.4byte	0x356
 1245 0398 0C       		.uleb128 0xc
 1246 0399 04       		.byte	0x4
 1247 039a 06       		.byte	0x6
ARM GAS  /var/folders/qh/xwg3v3kj02qbxczjpdb8lzfr0000gn/T//ccY8qlwd.s 			page 23


 1248 039b 8F       		.byte	0x8f
 1249 039c CD030000 		.4byte	0x3cd
 1250 03a0 0D       		.uleb128 0xd
 1251 03a1 06000000 		.4byte	.LASF59
 1252 03a5 06       		.byte	0x6
 1253 03a6 96       		.byte	0x96
 1254 03a7 D5000000 		.4byte	0xd5
 1255 03ab 0D       		.uleb128 0xd
 1256 03ac 24000000 		.4byte	.LASF60
 1257 03b0 06       		.byte	0x6
 1258 03b1 9D       		.byte	0x9d
 1259 03b2 D5000000 		.4byte	0xd5
 1260 03b6 0D       		.uleb128 0xd
 1261 03b7 1B040000 		.4byte	.LASF61
 1262 03bb 06       		.byte	0x6
 1263 03bc A4       		.byte	0xa4
 1264 03bd 5B020000 		.4byte	0x25b
 1265 03c1 0D       		.uleb128 0xd
 1266 03c2 30030000 		.4byte	.LASF62
 1267 03c6 06       		.byte	0x6
 1268 03c7 AB       		.byte	0xab
 1269 03c8 E0000000 		.4byte	0xe0
 1270 03cc 00       		.byte	0
 1271 03cd 09       		.uleb128 0x9
 1272 03ce 04       		.byte	0x4
 1273 03cf D3030000 		.4byte	0x3d3
 1274 03d3 0E       		.uleb128 0xe
 1275 03d4 D8030000 		.4byte	0x3d8
 1276 03d8 03       		.uleb128 0x3
 1277 03d9 01       		.byte	0x1
 1278 03da 08       		.byte	0x8
 1279 03db 83030000 		.4byte	.LASF63
 1280 03df 09       		.uleb128 0x9
 1281 03e0 04       		.byte	0x4
 1282 03e1 8D030000 		.4byte	0x38d
 1283 03e5 0F       		.uleb128 0xf
 1284 03e6 B6020000 		.4byte	.LASF64
 1285 03ea 02       		.byte	0x2
 1286 03eb 42       		.byte	0x42
 1287 03ec 1F020000 		.4byte	0x21f
 1288 03f0 03       		.byte	0x3
 1289 03f1 00040000 		.4byte	0x400
 1290 03f5 10       		.uleb128 0x10
 1291 03f6 747000   		.ascii	"tp\000"
 1292 03f9 02       		.byte	0x2
 1293 03fa 42       		.byte	0x42
 1294 03fb 1F020000 		.4byte	0x21f
 1295 03ff 00       		.byte	0
 1296 0400 11       		.uleb128 0x11
 1297 0401 58010000 		.4byte	.LASF81
 1298 0405 02       		.byte	0x2
 1299 0406 22       		.byte	0x22
 1300 0407 03       		.byte	0x3
 1301 0408 2C040000 		.4byte	0x42c
 1302 040c 10       		.uleb128 0x10
 1303 040d 747000   		.ascii	"tp\000"
 1304 0410 02       		.byte	0x2
ARM GAS  /var/folders/qh/xwg3v3kj02qbxczjpdb8lzfr0000gn/T//ccY8qlwd.s 			page 24


 1305 0411 22       		.byte	0x22
 1306 0412 1F020000 		.4byte	0x21f
 1307 0416 10       		.uleb128 0x10
 1308 0417 74717000 		.ascii	"tqp\000"
 1309 041b 02       		.byte	0x2
 1310 041c 22       		.byte	0x22
 1311 041d 2C040000 		.4byte	0x42c
 1312 0421 12       		.uleb128 0x12
 1313 0422 637000   		.ascii	"cp\000"
 1314 0425 02       		.byte	0x2
 1315 0426 24       		.byte	0x24
 1316 0427 1F020000 		.4byte	0x21f
 1317 042b 00       		.byte	0
 1318 042c 09       		.uleb128 0x9
 1319 042d 04       		.byte	0x4
 1320 042e 25020000 		.4byte	0x225
 1321 0432 13       		.uleb128 0x13
 1322 0433 98000000 		.4byte	.LASF74
 1323 0437 01       		.byte	0x1
 1324 0438 E3       		.byte	0xe3
 1325 0439 8C000000 		.4byte	0x8c
 1326 043d 01       		.byte	0x1
 1327 043e 4D040000 		.4byte	0x44d
 1328 0442 10       		.uleb128 0x10
 1329 0443 6D7000   		.ascii	"mp\000"
 1330 0446 01       		.byte	0x1
 1331 0447 E3       		.byte	0xe3
 1332 0448 DF030000 		.4byte	0x3df
 1333 044c 00       		.byte	0
 1334 044d 0F       		.uleb128 0xf
 1335 044e 88030000 		.4byte	.LASF65
 1336 0452 02       		.byte	0x2
 1337 0453 34       		.byte	0x34
 1338 0454 1F020000 		.4byte	0x21f
 1339 0458 03       		.byte	0x3
 1340 0459 73040000 		.4byte	0x473
 1341 045d 10       		.uleb128 0x10
 1342 045e 74717000 		.ascii	"tqp\000"
 1343 0462 02       		.byte	0x2
 1344 0463 34       		.byte	0x34
 1345 0464 2C040000 		.4byte	0x42c
 1346 0468 12       		.uleb128 0x12
 1347 0469 747000   		.ascii	"tp\000"
 1348 046c 02       		.byte	0x2
 1349 046d 35       		.byte	0x35
 1350 046e 1F020000 		.4byte	0x21f
 1351 0472 00       		.byte	0
 1352 0473 14       		.uleb128 0x14
 1353 0474 F2030000 		.4byte	.LASF66
 1354 0478 01       		.byte	0x1
 1355 0479 4F       		.byte	0x4f
 1356 047a 00000000 		.4byte	.LFB7
 1357 047e 0A000000 		.4byte	.LFE7-.LFB7
 1358 0482 01       		.uleb128 0x1
 1359 0483 9C       		.byte	0x9c
 1360 0484 95040000 		.4byte	0x495
 1361 0488 15       		.uleb128 0x15
ARM GAS  /var/folders/qh/xwg3v3kj02qbxczjpdb8lzfr0000gn/T//ccY8qlwd.s 			page 25


 1362 0489 6D7000   		.ascii	"mp\000"
 1363 048c 01       		.byte	0x1
 1364 048d 4F       		.byte	0x4f
 1365 048e DF030000 		.4byte	0x3df
 1366 0492 01       		.uleb128 0x1
 1367 0493 50       		.byte	0x50
 1368 0494 00       		.byte	0
 1369 0495 14       		.uleb128 0x14
 1370 0496 8D000000 		.4byte	.LASF67
 1371 049a 01       		.byte	0x1
 1372 049b 72       		.byte	0x72
 1373 049c 00000000 		.4byte	.LFB9
 1374 04a0 C4000000 		.4byte	.LFE9-.LFB9
 1375 04a4 01       		.uleb128 0x1
 1376 04a5 9C       		.byte	0x9c
 1377 04a6 F6050000 		.4byte	0x5f6
 1378 04aa 16       		.uleb128 0x16
 1379 04ab 6D7000   		.ascii	"mp\000"
 1380 04ae 01       		.byte	0x1
 1381 04af 72       		.byte	0x72
 1382 04b0 DF030000 		.4byte	0x3df
 1383 04b4 00000000 		.4byte	.LLST0
 1384 04b8 17       		.uleb128 0x17
 1385 04b9 63747000 		.ascii	"ctp\000"
 1386 04bd 01       		.byte	0x1
 1387 04be 73       		.byte	0x73
 1388 04bf 1F020000 		.4byte	0x21f
 1389 04c3 37000000 		.4byte	.LLST1
 1390 04c7 18       		.uleb128 0x18
 1391 04c8 00000000 		.4byte	.Ldebug_ranges0+0
 1392 04cc 17       		.uleb128 0x17
 1393 04cd 747000   		.ascii	"tp\000"
 1394 04d0 01       		.byte	0x1
 1395 04d1 7D       		.byte	0x7d
 1396 04d2 1F020000 		.4byte	0x21f
 1397 04d6 55000000 		.4byte	.LLST2
 1398 04da 19       		.uleb128 0x19
 1399 04db 00040000 		.4byte	0x400
 1400 04df 26000000 		.4byte	.LBB28
 1401 04e3 18000000 		.4byte	.Ldebug_ranges0+0x18
 1402 04e7 01       		.byte	0x1
 1403 04e8 A6       		.byte	0xa6
 1404 04e9 0F050000 		.4byte	0x50f
 1405 04ed 1A       		.uleb128 0x1a
 1406 04ee 16040000 		.4byte	0x416
 1407 04f2 7E000000 		.4byte	.LLST3
 1408 04f6 1A       		.uleb128 0x1a
 1409 04f7 0C040000 		.4byte	0x40c
 1410 04fb 91000000 		.4byte	.LLST4
 1411 04ff 18       		.uleb128 0x18
 1412 0500 18000000 		.4byte	.Ldebug_ranges0+0x18
 1413 0504 1B       		.uleb128 0x1b
 1414 0505 21040000 		.4byte	0x421
 1415 0509 A4000000 		.4byte	.LLST5
 1416 050d 00       		.byte	0
 1417 050e 00       		.byte	0
 1418 050f 1C       		.uleb128 0x1c
ARM GAS  /var/folders/qh/xwg3v3kj02qbxczjpdb8lzfr0000gn/T//ccY8qlwd.s 			page 26


 1419 0510 E5030000 		.4byte	0x3e5
 1420 0514 4C000000 		.4byte	.LBB32
 1421 0518 0A000000 		.4byte	.LBE32-.LBB32
 1422 051c 01       		.byte	0x1
 1423 051d A0       		.byte	0xa0
 1424 051e 2C050000 		.4byte	0x52c
 1425 0522 1A       		.uleb128 0x1a
 1426 0523 F5030000 		.4byte	0x3f5
 1427 0527 C2000000 		.4byte	.LLST6
 1428 052b 00       		.byte	0
 1429 052c 1C       		.uleb128 0x1c
 1430 052d E5030000 		.4byte	0x3e5
 1431 0531 5C000000 		.4byte	.LBB34
 1432 0535 0A000000 		.4byte	.LBE34-.LBB34
 1433 0539 01       		.byte	0x1
 1434 053a 97       		.byte	0x97
 1435 053b 49050000 		.4byte	0x549
 1436 053f 1A       		.uleb128 0x1a
 1437 0540 F5030000 		.4byte	0x3f5
 1438 0544 D5000000 		.4byte	.LLST7
 1439 0548 00       		.byte	0
 1440 0549 1C       		.uleb128 0x1c
 1441 054a 00040000 		.4byte	0x400
 1442 054e 68000000 		.4byte	.LBB36
 1443 0552 1C000000 		.4byte	.LBE36-.LBB36
 1444 0556 01       		.byte	0x1
 1445 0557 97       		.byte	0x97
 1446 0558 82050000 		.4byte	0x582
 1447 055c 1A       		.uleb128 0x1a
 1448 055d 16040000 		.4byte	0x416
 1449 0561 E8000000 		.4byte	.LLST8
 1450 0565 1A       		.uleb128 0x1a
 1451 0566 0C040000 		.4byte	0x40c
 1452 056a FB000000 		.4byte	.LLST9
 1453 056e 1D       		.uleb128 0x1d
 1454 056f 68000000 		.4byte	.LBB37
 1455 0573 1C000000 		.4byte	.LBE37-.LBB37
 1456 0577 1B       		.uleb128 0x1b
 1457 0578 21040000 		.4byte	0x421
 1458 057c 0E010000 		.4byte	.LLST10
 1459 0580 00       		.byte	0
 1460 0581 00       		.byte	0
 1461 0582 1C       		.uleb128 0x1c
 1462 0583 E5030000 		.4byte	0x3e5
 1463 0587 84000000 		.4byte	.LBB38
 1464 058b 0A000000 		.4byte	.LBE38-.LBB38
 1465 058f 01       		.byte	0x1
 1466 0590 87       		.byte	0x87
 1467 0591 9F050000 		.4byte	0x59f
 1468 0595 1A       		.uleb128 0x1a
 1469 0596 F5030000 		.4byte	0x3f5
 1470 059a 2C010000 		.4byte	.LLST11
 1471 059e 00       		.byte	0
 1472 059f 1C       		.uleb128 0x1c
 1473 05a0 00040000 		.4byte	0x400
 1474 05a4 94000000 		.4byte	.LBB40
 1475 05a8 16000000 		.4byte	.LBE40-.LBB40
ARM GAS  /var/folders/qh/xwg3v3kj02qbxczjpdb8lzfr0000gn/T//ccY8qlwd.s 			page 27


 1476 05ac 01       		.byte	0x1
 1477 05ad 87       		.byte	0x87
 1478 05ae D8050000 		.4byte	0x5d8
 1479 05b2 1A       		.uleb128 0x1a
 1480 05b3 16040000 		.4byte	0x416
 1481 05b7 4B010000 		.4byte	.LLST12
 1482 05bb 1A       		.uleb128 0x1a
 1483 05bc 0C040000 		.4byte	0x40c
 1484 05c0 6D010000 		.4byte	.LLST13
 1485 05c4 1D       		.uleb128 0x1d
 1486 05c5 94000000 		.4byte	.LBB41
 1487 05c9 16000000 		.4byte	.LBE41-.LBB41
 1488 05cd 1B       		.uleb128 0x1b
 1489 05ce 21040000 		.4byte	0x421
 1490 05d2 8C010000 		.4byte	.LLST14
 1491 05d6 00       		.byte	0
 1492 05d7 00       		.byte	0
 1493 05d8 1E       		.uleb128 0x1e
 1494 05d9 4A000000 		.4byte	.LVL8
 1495 05dd 82080000 		.4byte	0x882
 1496 05e1 EB050000 		.4byte	0x5eb
 1497 05e5 1F       		.uleb128 0x1f
 1498 05e6 01       		.uleb128 0x1
 1499 05e7 50       		.byte	0x50
 1500 05e8 01       		.uleb128 0x1
 1501 05e9 34       		.byte	0x34
 1502 05ea 00       		.byte	0
 1503 05eb 20       		.uleb128 0x20
 1504 05ec 5A000000 		.4byte	.LVL12
 1505 05f0 93080000 		.4byte	0x893
 1506 05f4 00       		.byte	0
 1507 05f5 00       		.byte	0
 1508 05f6 14       		.uleb128 0x14
 1509 05f7 91020000 		.4byte	.LASF68
 1510 05fb 01       		.byte	0x1
 1511 05fc 60       		.byte	0x60
 1512 05fd 00000000 		.4byte	.LFB8
 1513 0601 0C000000 		.4byte	.LFE8-.LFB8
 1514 0605 01       		.uleb128 0x1
 1515 0606 9C       		.byte	0x9c
 1516 0607 2B060000 		.4byte	0x62b
 1517 060b 16       		.uleb128 0x16
 1518 060c 6D7000   		.ascii	"mp\000"
 1519 060f 01       		.byte	0x1
 1520 0610 60       		.byte	0x60
 1521 0611 DF030000 		.4byte	0x3df
 1522 0615 AA010000 		.4byte	.LLST15
 1523 0619 21       		.uleb128 0x21
 1524 061a 08000000 		.4byte	.LVL25
 1525 061e 95040000 		.4byte	0x495
 1526 0622 1F       		.uleb128 0x1f
 1527 0623 01       		.uleb128 0x1
 1528 0624 50       		.byte	0x50
 1529 0625 03       		.uleb128 0x3
 1530 0626 F3       		.byte	0xf3
 1531 0627 01       		.uleb128 0x1
 1532 0628 50       		.byte	0x50
ARM GAS  /var/folders/qh/xwg3v3kj02qbxczjpdb8lzfr0000gn/T//ccY8qlwd.s 			page 28


 1533 0629 00       		.byte	0
 1534 062a 00       		.byte	0
 1535 062b 22       		.uleb128 0x22
 1536 062c 9B010000 		.4byte	.LASF69
 1537 0630 01       		.byte	0x1
 1538 0631 C7       		.byte	0xc7
 1539 0632 8C000000 		.4byte	0x8c
 1540 0636 00000000 		.4byte	.LFB10
 1541 063a 24000000 		.4byte	.LFE10-.LFB10
 1542 063e 01       		.uleb128 0x1
 1543 063f 9C       		.byte	0x9c
 1544 0640 75060000 		.4byte	0x675
 1545 0644 16       		.uleb128 0x16
 1546 0645 6D7000   		.ascii	"mp\000"
 1547 0648 01       		.byte	0x1
 1548 0649 C7       		.byte	0xc7
 1549 064a DF030000 		.4byte	0x3df
 1550 064e CB010000 		.4byte	.LLST16
 1551 0652 12       		.uleb128 0x12
 1552 0653 6200     		.ascii	"b\000"
 1553 0655 01       		.byte	0x1
 1554 0656 C8       		.byte	0xc8
 1555 0657 8C000000 		.4byte	0x8c
 1556 065b 23       		.uleb128 0x23
 1557 065c 32040000 		.4byte	0x432
 1558 0660 04000000 		.4byte	.LBB43
 1559 0664 30000000 		.4byte	.Ldebug_ranges0+0x30
 1560 0668 01       		.byte	0x1
 1561 0669 CC       		.byte	0xcc
 1562 066a 1A       		.uleb128 0x1a
 1563 066b 42040000 		.4byte	0x442
 1564 066f E9010000 		.4byte	.LLST17
 1565 0673 00       		.byte	0
 1566 0674 00       		.byte	0
 1567 0675 24       		.uleb128 0x24
 1568 0676 32040000 		.4byte	0x432
 1569 067a 00000000 		.4byte	.LFB11
 1570 067e 20000000 		.4byte	.LFE11-.LFB11
 1571 0682 01       		.uleb128 0x1
 1572 0683 9C       		.byte	0x9c
 1573 0684 92060000 		.4byte	0x692
 1574 0688 1A       		.uleb128 0x1a
 1575 0689 42040000 		.4byte	0x442
 1576 068d 07020000 		.4byte	.LLST18
 1577 0691 00       		.byte	0
 1578 0692 22       		.uleb128 0x22
 1579 0693 2D000000 		.4byte	.LASF70
 1580 0697 01       		.byte	0x1
 1581 0698 FA       		.byte	0xfa
 1582 0699 DF030000 		.4byte	0x3df
 1583 069d 00000000 		.4byte	.LFB12
 1584 06a1 54000000 		.4byte	.LFE12-.LFB12
 1585 06a5 01       		.uleb128 0x1
 1586 06a6 9C       		.byte	0x9c
 1587 06a7 39070000 		.4byte	0x739
 1588 06ab 17       		.uleb128 0x17
 1589 06ac 63747000 		.ascii	"ctp\000"
ARM GAS  /var/folders/qh/xwg3v3kj02qbxczjpdb8lzfr0000gn/T//ccY8qlwd.s 			page 29


 1590 06b0 01       		.byte	0x1
 1591 06b1 FB       		.byte	0xfb
 1592 06b2 1F020000 		.4byte	0x21f
 1593 06b6 25020000 		.4byte	.LLST19
 1594 06ba 17       		.uleb128 0x17
 1595 06bb 756D7000 		.ascii	"ump\000"
 1596 06bf 01       		.byte	0x1
 1597 06c0 FC       		.byte	0xfc
 1598 06c1 DF030000 		.4byte	0x3df
 1599 06c5 43020000 		.4byte	.LLST20
 1600 06c9 17       		.uleb128 0x17
 1601 06ca 6D7000   		.ascii	"mp\000"
 1602 06cd 01       		.byte	0x1
 1603 06ce FC       		.byte	0xfc
 1604 06cf DF030000 		.4byte	0x3df
 1605 06d3 6C020000 		.4byte	.LLST21
 1606 06d7 1D       		.uleb128 0x1d
 1607 06d8 14000000 		.4byte	.LBB47
 1608 06dc 30000000 		.4byte	.LBE47-.LBB47
 1609 06e0 25       		.uleb128 0x25
 1610 06e1 747000   		.ascii	"tp\000"
 1611 06e4 01       		.byte	0x1
 1612 06e5 0B01     		.2byte	0x10b
 1613 06e7 1F020000 		.4byte	0x21f
 1614 06eb 26       		.uleb128 0x26
 1615 06ec 73010000 		.4byte	.LASF71
 1616 06f0 01       		.byte	0x1
 1617 06f1 0F01     		.2byte	0x10f
 1618 06f3 CA000000 		.4byte	0xca
 1619 06f7 7F020000 		.4byte	.LLST22
 1620 06fb 27       		.uleb128 0x27
 1621 06fc 4D040000 		.4byte	0x44d
 1622 0700 2E000000 		.4byte	.LBB48
 1623 0704 48000000 		.4byte	.Ldebug_ranges0+0x48
 1624 0708 01       		.byte	0x1
 1625 0709 1E01     		.2byte	0x11e
 1626 070b 28070000 		.4byte	0x728
 1627 070f 1A       		.uleb128 0x1a
 1628 0710 5D040000 		.4byte	0x45d
 1629 0714 9E020000 		.4byte	.LLST23
 1630 0718 18       		.uleb128 0x18
 1631 0719 48000000 		.4byte	.Ldebug_ranges0+0x48
 1632 071d 1B       		.uleb128 0x1b
 1633 071e 68040000 		.4byte	0x468
 1634 0722 B1020000 		.4byte	.LLST24
 1635 0726 00       		.byte	0
 1636 0727 00       		.byte	0
 1637 0728 21       		.uleb128 0x21
 1638 0729 44000000 		.4byte	.LVL39
 1639 072d A8080000 		.4byte	0x8a8
 1640 0731 1F       		.uleb128 0x1f
 1641 0732 01       		.uleb128 0x1
 1642 0733 51       		.byte	0x51
 1643 0734 01       		.uleb128 0x1
 1644 0735 30       		.byte	0x30
 1645 0736 00       		.byte	0
 1646 0737 00       		.byte	0
ARM GAS  /var/folders/qh/xwg3v3kj02qbxczjpdb8lzfr0000gn/T//ccY8qlwd.s 			page 30


 1647 0738 00       		.byte	0
 1648 0739 28       		.uleb128 0x28
 1649 073a D0000000 		.4byte	.LASF72
 1650 073e 01       		.byte	0x1
 1651 073f 3601     		.2byte	0x136
 1652 0741 DF030000 		.4byte	0x3df
 1653 0745 00000000 		.4byte	.LFB13
 1654 0749 50000000 		.4byte	.LFE13-.LFB13
 1655 074d 01       		.uleb128 0x1
 1656 074e 9C       		.byte	0x9c
 1657 074f DE070000 		.4byte	0x7de
 1658 0753 29       		.uleb128 0x29
 1659 0754 63747000 		.ascii	"ctp\000"
 1660 0758 01       		.byte	0x1
 1661 0759 3701     		.2byte	0x137
 1662 075b 1F020000 		.4byte	0x21f
 1663 075f C4020000 		.4byte	.LLST25
 1664 0763 29       		.uleb128 0x29
 1665 0764 756D7000 		.ascii	"ump\000"
 1666 0768 01       		.byte	0x1
 1667 0769 3801     		.2byte	0x138
 1668 076b DF030000 		.4byte	0x3df
 1669 076f E2020000 		.4byte	.LLST26
 1670 0773 29       		.uleb128 0x29
 1671 0774 6D7000   		.ascii	"mp\000"
 1672 0777 01       		.byte	0x1
 1673 0778 3801     		.2byte	0x138
 1674 077a DF030000 		.4byte	0x3df
 1675 077e 0B030000 		.4byte	.LLST27
 1676 0782 1D       		.uleb128 0x1d
 1677 0783 12000000 		.4byte	.LBB52
 1678 0787 2E000000 		.4byte	.LBE52-.LBB52
 1679 078b 25       		.uleb128 0x25
 1680 078c 747000   		.ascii	"tp\000"
 1681 078f 01       		.byte	0x1
 1682 0790 4801     		.2byte	0x148
 1683 0792 1F020000 		.4byte	0x21f
 1684 0796 26       		.uleb128 0x26
 1685 0797 73010000 		.4byte	.LASF71
 1686 079b 01       		.byte	0x1
 1687 079c 4C01     		.2byte	0x14c
 1688 079e CA000000 		.4byte	0xca
 1689 07a2 1E030000 		.4byte	.LLST28
 1690 07a6 27       		.uleb128 0x27
 1691 07a7 4D040000 		.4byte	0x44d
 1692 07ab 2C000000 		.4byte	.LBB53
 1693 07af 60000000 		.4byte	.Ldebug_ranges0+0x60
 1694 07b3 01       		.byte	0x1
 1695 07b4 5901     		.2byte	0x159
 1696 07b6 D3070000 		.4byte	0x7d3
 1697 07ba 1A       		.uleb128 0x1a
 1698 07bb 5D040000 		.4byte	0x45d
 1699 07bf 31030000 		.4byte	.LLST29
 1700 07c3 18       		.uleb128 0x18
 1701 07c4 60000000 		.4byte	.Ldebug_ranges0+0x60
 1702 07c8 1B       		.uleb128 0x1b
 1703 07c9 68040000 		.4byte	0x468
ARM GAS  /var/folders/qh/xwg3v3kj02qbxczjpdb8lzfr0000gn/T//ccY8qlwd.s 			page 31


 1704 07cd 44030000 		.4byte	.LLST30
 1705 07d1 00       		.byte	0
 1706 07d2 00       		.byte	0
 1707 07d3 20       		.uleb128 0x20
 1708 07d4 40000000 		.4byte	.LVL50
 1709 07d8 93080000 		.4byte	0x893
 1710 07dc 00       		.byte	0
 1711 07dd 00       		.byte	0
 1712 07de 2A       		.uleb128 0x2a
 1713 07df 64010000 		.4byte	.LASF73
 1714 07e3 01       		.byte	0x1
 1715 07e4 6F01     		.2byte	0x16f
 1716 07e6 00000000 		.4byte	.LFB14
 1717 07ea 4C000000 		.4byte	.LFE14-.LFB14
 1718 07ee 01       		.uleb128 0x1
 1719 07ef 9C       		.byte	0x9c
 1720 07f0 77080000 		.4byte	0x877
 1721 07f4 29       		.uleb128 0x29
 1722 07f5 63747000 		.ascii	"ctp\000"
 1723 07f9 01       		.byte	0x1
 1724 07fa 7001     		.2byte	0x170
 1725 07fc 1F020000 		.4byte	0x21f
 1726 0800 57030000 		.4byte	.LLST31
 1727 0804 2B       		.uleb128 0x2b
 1728 0805 78000000 		.4byte	.Ldebug_ranges0+0x78
 1729 0809 6D080000 		.4byte	0x86d
 1730 080d 29       		.uleb128 0x29
 1731 080e 756D7000 		.ascii	"ump\000"
 1732 0812 01       		.byte	0x1
 1733 0813 7501     		.2byte	0x175
 1734 0815 DF030000 		.4byte	0x3df
 1735 0819 6A030000 		.4byte	.LLST32
 1736 081d 1D       		.uleb128 0x1d
 1737 081e 12000000 		.4byte	.LBB58
 1738 0822 12000000 		.4byte	.LBE58-.LBB58
 1739 0826 25       		.uleb128 0x25
 1740 0827 747000   		.ascii	"tp\000"
 1741 082a 01       		.byte	0x1
 1742 082b 7801     		.2byte	0x178
 1743 082d 1F020000 		.4byte	0x21f
 1744 0831 2C       		.uleb128 0x2c
 1745 0832 4D040000 		.4byte	0x44d
 1746 0836 12000000 		.4byte	.LBB59
 1747 083a 06000000 		.4byte	.LBE59-.LBB59
 1748 083e 01       		.byte	0x1
 1749 083f 7801     		.2byte	0x178
 1750 0841 62080000 		.4byte	0x862
 1751 0845 1A       		.uleb128 0x1a
 1752 0846 5D040000 		.4byte	0x45d
 1753 084a 88030000 		.4byte	.LLST33
 1754 084e 1D       		.uleb128 0x1d
 1755 084f 12000000 		.4byte	.LBB60
 1756 0853 06000000 		.4byte	.LBE60-.LBB60
 1757 0857 1B       		.uleb128 0x1b
 1758 0858 68040000 		.4byte	0x468
 1759 085c 9B030000 		.4byte	.LLST34
 1760 0860 00       		.byte	0
ARM GAS  /var/folders/qh/xwg3v3kj02qbxczjpdb8lzfr0000gn/T//ccY8qlwd.s 			page 32


 1761 0861 00       		.byte	0
 1762 0862 20       		.uleb128 0x20
 1763 0863 24000000 		.4byte	.LVL56
 1764 0867 93080000 		.4byte	0x893
 1765 086b 00       		.byte	0
 1766 086c 00       		.byte	0
 1767 086d 20       		.uleb128 0x20
 1768 086e 44000000 		.4byte	.LVL59
 1769 0872 BE080000 		.4byte	0x8be
 1770 0876 00       		.byte	0
 1771 0877 2D       		.uleb128 0x2d
 1772 0878 0D040000 		.4byte	.LASF82
 1773 087c 08       		.byte	0x8
 1774 087d 68       		.byte	0x68
 1775 087e 4B030000 		.4byte	0x34b
 1776 0882 2E       		.uleb128 0x2e
 1777 0883 4D030000 		.4byte	.LASF76
 1778 0887 08       		.byte	0x8
 1779 0888 8C       		.byte	0x8c
 1780 0889 93080000 		.4byte	0x893
 1781 088d 2F       		.uleb128 0x2f
 1782 088e A9000000 		.4byte	0xa9
 1783 0892 00       		.byte	0
 1784 0893 30       		.uleb128 0x30
 1785 0894 77030000 		.4byte	.LASF75
 1786 0898 08       		.byte	0x8
 1787 0899 89       		.byte	0x89
 1788 089a 1F020000 		.4byte	0x21f
 1789 089e A8080000 		.4byte	0x8a8
 1790 08a2 2F       		.uleb128 0x2f
 1791 08a3 1F020000 		.4byte	0x21f
 1792 08a7 00       		.byte	0
 1793 08a8 2E       		.uleb128 0x2e
 1794 08a9 E5030000 		.4byte	.LASF77
 1795 08ad 08       		.byte	0x8
 1796 08ae 92       		.byte	0x92
 1797 08af BE080000 		.4byte	0x8be
 1798 08b3 2F       		.uleb128 0x2f
 1799 08b4 1F020000 		.4byte	0x21f
 1800 08b8 2F       		.uleb128 0x2f
 1801 08b9 D5000000 		.4byte	0xd5
 1802 08bd 00       		.byte	0
 1803 08be 31       		.uleb128 0x31
 1804 08bf AE000000 		.4byte	.LASF83
 1805 08c3 08       		.byte	0x8
 1806 08c4 95       		.byte	0x95
 1807 08c5 00       		.byte	0
 1808              		.section	.debug_abbrev,"",%progbits
 1809              	.Ldebug_abbrev0:
 1810 0000 01       		.uleb128 0x1
 1811 0001 11       		.uleb128 0x11
 1812 0002 01       		.byte	0x1
 1813 0003 25       		.uleb128 0x25
 1814 0004 0E       		.uleb128 0xe
 1815 0005 13       		.uleb128 0x13
 1816 0006 0B       		.uleb128 0xb
 1817 0007 03       		.uleb128 0x3
ARM GAS  /var/folders/qh/xwg3v3kj02qbxczjpdb8lzfr0000gn/T//ccY8qlwd.s 			page 33


 1818 0008 0E       		.uleb128 0xe
 1819 0009 1B       		.uleb128 0x1b
 1820 000a 0E       		.uleb128 0xe
 1821 000b 55       		.uleb128 0x55
 1822 000c 17       		.uleb128 0x17
 1823 000d 11       		.uleb128 0x11
 1824 000e 01       		.uleb128 0x1
 1825 000f 10       		.uleb128 0x10
 1826 0010 17       		.uleb128 0x17
 1827 0011 00       		.byte	0
 1828 0012 00       		.byte	0
 1829 0013 02       		.uleb128 0x2
 1830 0014 24       		.uleb128 0x24
 1831 0015 00       		.byte	0
 1832 0016 0B       		.uleb128 0xb
 1833 0017 0B       		.uleb128 0xb
 1834 0018 3E       		.uleb128 0x3e
 1835 0019 0B       		.uleb128 0xb
 1836 001a 03       		.uleb128 0x3
 1837 001b 08       		.uleb128 0x8
 1838 001c 00       		.byte	0
 1839 001d 00       		.byte	0
 1840 001e 03       		.uleb128 0x3
 1841 001f 24       		.uleb128 0x24
 1842 0020 00       		.byte	0
 1843 0021 0B       		.uleb128 0xb
 1844 0022 0B       		.uleb128 0xb
 1845 0023 3E       		.uleb128 0x3e
 1846 0024 0B       		.uleb128 0xb
 1847 0025 03       		.uleb128 0x3
 1848 0026 0E       		.uleb128 0xe
 1849 0027 00       		.byte	0
 1850 0028 00       		.byte	0
 1851 0029 04       		.uleb128 0x4
 1852 002a 16       		.uleb128 0x16
 1853 002b 00       		.byte	0
 1854 002c 03       		.uleb128 0x3
 1855 002d 0E       		.uleb128 0xe
 1856 002e 3A       		.uleb128 0x3a
 1857 002f 0B       		.uleb128 0xb
 1858 0030 3B       		.uleb128 0x3b
 1859 0031 0B       		.uleb128 0xb
 1860 0032 49       		.uleb128 0x49
 1861 0033 13       		.uleb128 0x13
 1862 0034 00       		.byte	0
 1863 0035 00       		.byte	0
 1864 0036 05       		.uleb128 0x5
 1865 0037 13       		.uleb128 0x13
 1866 0038 01       		.byte	0x1
 1867 0039 03       		.uleb128 0x3
 1868 003a 0E       		.uleb128 0xe
 1869 003b 0B       		.uleb128 0xb
 1870 003c 0B       		.uleb128 0xb
 1871 003d 3A       		.uleb128 0x3a
 1872 003e 0B       		.uleb128 0xb
 1873 003f 3B       		.uleb128 0x3b
 1874 0040 0B       		.uleb128 0xb
ARM GAS  /var/folders/qh/xwg3v3kj02qbxczjpdb8lzfr0000gn/T//ccY8qlwd.s 			page 34


 1875 0041 01       		.uleb128 0x1
 1876 0042 13       		.uleb128 0x13
 1877 0043 00       		.byte	0
 1878 0044 00       		.byte	0
 1879 0045 06       		.uleb128 0x6
 1880 0046 0D       		.uleb128 0xd
 1881 0047 00       		.byte	0
 1882 0048 03       		.uleb128 0x3
 1883 0049 0E       		.uleb128 0xe
 1884 004a 3A       		.uleb128 0x3a
 1885 004b 0B       		.uleb128 0xb
 1886 004c 3B       		.uleb128 0x3b
 1887 004d 0B       		.uleb128 0xb
 1888 004e 49       		.uleb128 0x49
 1889 004f 13       		.uleb128 0x13
 1890 0050 38       		.uleb128 0x38
 1891 0051 0B       		.uleb128 0xb
 1892 0052 00       		.byte	0
 1893 0053 00       		.byte	0
 1894 0054 07       		.uleb128 0x7
 1895 0055 0D       		.uleb128 0xd
 1896 0056 00       		.byte	0
 1897 0057 03       		.uleb128 0x3
 1898 0058 08       		.uleb128 0x8
 1899 0059 3A       		.uleb128 0x3a
 1900 005a 0B       		.uleb128 0xb
 1901 005b 3B       		.uleb128 0x3b
 1902 005c 0B       		.uleb128 0xb
 1903 005d 49       		.uleb128 0x49
 1904 005e 13       		.uleb128 0x13
 1905 005f 38       		.uleb128 0x38
 1906 0060 0B       		.uleb128 0xb
 1907 0061 00       		.byte	0
 1908 0062 00       		.byte	0
 1909 0063 08       		.uleb128 0x8
 1910 0064 13       		.uleb128 0x13
 1911 0065 01       		.byte	0x1
 1912 0066 0B       		.uleb128 0xb
 1913 0067 0B       		.uleb128 0xb
 1914 0068 3A       		.uleb128 0x3a
 1915 0069 0B       		.uleb128 0xb
 1916 006a 3B       		.uleb128 0x3b
 1917 006b 0B       		.uleb128 0xb
 1918 006c 01       		.uleb128 0x1
 1919 006d 13       		.uleb128 0x13
 1920 006e 00       		.byte	0
 1921 006f 00       		.byte	0
 1922 0070 09       		.uleb128 0x9
 1923 0071 0F       		.uleb128 0xf
 1924 0072 00       		.byte	0
 1925 0073 0B       		.uleb128 0xb
 1926 0074 0B       		.uleb128 0xb
 1927 0075 49       		.uleb128 0x49
 1928 0076 13       		.uleb128 0x13
 1929 0077 00       		.byte	0
 1930 0078 00       		.byte	0
 1931 0079 0A       		.uleb128 0xa
ARM GAS  /var/folders/qh/xwg3v3kj02qbxczjpdb8lzfr0000gn/T//ccY8qlwd.s 			page 35


 1932 007a 0F       		.uleb128 0xf
 1933 007b 00       		.byte	0
 1934 007c 0B       		.uleb128 0xb
 1935 007d 0B       		.uleb128 0xb
 1936 007e 00       		.byte	0
 1937 007f 00       		.byte	0
 1938 0080 0B       		.uleb128 0xb
 1939 0081 35       		.uleb128 0x35
 1940 0082 00       		.byte	0
 1941 0083 49       		.uleb128 0x49
 1942 0084 13       		.uleb128 0x13
 1943 0085 00       		.byte	0
 1944 0086 00       		.byte	0
 1945 0087 0C       		.uleb128 0xc
 1946 0088 17       		.uleb128 0x17
 1947 0089 01       		.byte	0x1
 1948 008a 0B       		.uleb128 0xb
 1949 008b 0B       		.uleb128 0xb
 1950 008c 3A       		.uleb128 0x3a
 1951 008d 0B       		.uleb128 0xb
 1952 008e 3B       		.uleb128 0x3b
 1953 008f 0B       		.uleb128 0xb
 1954 0090 01       		.uleb128 0x1
 1955 0091 13       		.uleb128 0x13
 1956 0092 00       		.byte	0
 1957 0093 00       		.byte	0
 1958 0094 0D       		.uleb128 0xd
 1959 0095 0D       		.uleb128 0xd
 1960 0096 00       		.byte	0
 1961 0097 03       		.uleb128 0x3
 1962 0098 0E       		.uleb128 0xe
 1963 0099 3A       		.uleb128 0x3a
 1964 009a 0B       		.uleb128 0xb
 1965 009b 3B       		.uleb128 0x3b
 1966 009c 0B       		.uleb128 0xb
 1967 009d 49       		.uleb128 0x49
 1968 009e 13       		.uleb128 0x13
 1969 009f 00       		.byte	0
 1970 00a0 00       		.byte	0
 1971 00a1 0E       		.uleb128 0xe
 1972 00a2 26       		.uleb128 0x26
 1973 00a3 00       		.byte	0
 1974 00a4 49       		.uleb128 0x49
 1975 00a5 13       		.uleb128 0x13
 1976 00a6 00       		.byte	0
 1977 00a7 00       		.byte	0
 1978 00a8 0F       		.uleb128 0xf
 1979 00a9 2E       		.uleb128 0x2e
 1980 00aa 01       		.byte	0x1
 1981 00ab 03       		.uleb128 0x3
 1982 00ac 0E       		.uleb128 0xe
 1983 00ad 3A       		.uleb128 0x3a
 1984 00ae 0B       		.uleb128 0xb
 1985 00af 3B       		.uleb128 0x3b
 1986 00b0 0B       		.uleb128 0xb
 1987 00b1 27       		.uleb128 0x27
 1988 00b2 19       		.uleb128 0x19
ARM GAS  /var/folders/qh/xwg3v3kj02qbxczjpdb8lzfr0000gn/T//ccY8qlwd.s 			page 36


 1989 00b3 49       		.uleb128 0x49
 1990 00b4 13       		.uleb128 0x13
 1991 00b5 20       		.uleb128 0x20
 1992 00b6 0B       		.uleb128 0xb
 1993 00b7 01       		.uleb128 0x1
 1994 00b8 13       		.uleb128 0x13
 1995 00b9 00       		.byte	0
 1996 00ba 00       		.byte	0
 1997 00bb 10       		.uleb128 0x10
 1998 00bc 05       		.uleb128 0x5
 1999 00bd 00       		.byte	0
 2000 00be 03       		.uleb128 0x3
 2001 00bf 08       		.uleb128 0x8
 2002 00c0 3A       		.uleb128 0x3a
 2003 00c1 0B       		.uleb128 0xb
 2004 00c2 3B       		.uleb128 0x3b
 2005 00c3 0B       		.uleb128 0xb
 2006 00c4 49       		.uleb128 0x49
 2007 00c5 13       		.uleb128 0x13
 2008 00c6 00       		.byte	0
 2009 00c7 00       		.byte	0
 2010 00c8 11       		.uleb128 0x11
 2011 00c9 2E       		.uleb128 0x2e
 2012 00ca 01       		.byte	0x1
 2013 00cb 03       		.uleb128 0x3
 2014 00cc 0E       		.uleb128 0xe
 2015 00cd 3A       		.uleb128 0x3a
 2016 00ce 0B       		.uleb128 0xb
 2017 00cf 3B       		.uleb128 0x3b
 2018 00d0 0B       		.uleb128 0xb
 2019 00d1 27       		.uleb128 0x27
 2020 00d2 19       		.uleb128 0x19
 2021 00d3 20       		.uleb128 0x20
 2022 00d4 0B       		.uleb128 0xb
 2023 00d5 01       		.uleb128 0x1
 2024 00d6 13       		.uleb128 0x13
 2025 00d7 00       		.byte	0
 2026 00d8 00       		.byte	0
 2027 00d9 12       		.uleb128 0x12
 2028 00da 34       		.uleb128 0x34
 2029 00db 00       		.byte	0
 2030 00dc 03       		.uleb128 0x3
 2031 00dd 08       		.uleb128 0x8
 2032 00de 3A       		.uleb128 0x3a
 2033 00df 0B       		.uleb128 0xb
 2034 00e0 3B       		.uleb128 0x3b
 2035 00e1 0B       		.uleb128 0xb
 2036 00e2 49       		.uleb128 0x49
 2037 00e3 13       		.uleb128 0x13
 2038 00e4 00       		.byte	0
 2039 00e5 00       		.byte	0
 2040 00e6 13       		.uleb128 0x13
 2041 00e7 2E       		.uleb128 0x2e
 2042 00e8 01       		.byte	0x1
 2043 00e9 3F       		.uleb128 0x3f
 2044 00ea 19       		.uleb128 0x19
 2045 00eb 03       		.uleb128 0x3
ARM GAS  /var/folders/qh/xwg3v3kj02qbxczjpdb8lzfr0000gn/T//ccY8qlwd.s 			page 37


 2046 00ec 0E       		.uleb128 0xe
 2047 00ed 3A       		.uleb128 0x3a
 2048 00ee 0B       		.uleb128 0xb
 2049 00ef 3B       		.uleb128 0x3b
 2050 00f0 0B       		.uleb128 0xb
 2051 00f1 27       		.uleb128 0x27
 2052 00f2 19       		.uleb128 0x19
 2053 00f3 49       		.uleb128 0x49
 2054 00f4 13       		.uleb128 0x13
 2055 00f5 20       		.uleb128 0x20
 2056 00f6 0B       		.uleb128 0xb
 2057 00f7 01       		.uleb128 0x1
 2058 00f8 13       		.uleb128 0x13
 2059 00f9 00       		.byte	0
 2060 00fa 00       		.byte	0
 2061 00fb 14       		.uleb128 0x14
 2062 00fc 2E       		.uleb128 0x2e
 2063 00fd 01       		.byte	0x1
 2064 00fe 3F       		.uleb128 0x3f
 2065 00ff 19       		.uleb128 0x19
 2066 0100 03       		.uleb128 0x3
 2067 0101 0E       		.uleb128 0xe
 2068 0102 3A       		.uleb128 0x3a
 2069 0103 0B       		.uleb128 0xb
 2070 0104 3B       		.uleb128 0x3b
 2071 0105 0B       		.uleb128 0xb
 2072 0106 27       		.uleb128 0x27
 2073 0107 19       		.uleb128 0x19
 2074 0108 11       		.uleb128 0x11
 2075 0109 01       		.uleb128 0x1
 2076 010a 12       		.uleb128 0x12
 2077 010b 06       		.uleb128 0x6
 2078 010c 40       		.uleb128 0x40
 2079 010d 18       		.uleb128 0x18
 2080 010e 9742     		.uleb128 0x2117
 2081 0110 19       		.uleb128 0x19
 2082 0111 01       		.uleb128 0x1
 2083 0112 13       		.uleb128 0x13
 2084 0113 00       		.byte	0
 2085 0114 00       		.byte	0
 2086 0115 15       		.uleb128 0x15
 2087 0116 05       		.uleb128 0x5
 2088 0117 00       		.byte	0
 2089 0118 03       		.uleb128 0x3
 2090 0119 08       		.uleb128 0x8
 2091 011a 3A       		.uleb128 0x3a
 2092 011b 0B       		.uleb128 0xb
 2093 011c 3B       		.uleb128 0x3b
 2094 011d 0B       		.uleb128 0xb
 2095 011e 49       		.uleb128 0x49
 2096 011f 13       		.uleb128 0x13
 2097 0120 02       		.uleb128 0x2
 2098 0121 18       		.uleb128 0x18
 2099 0122 00       		.byte	0
 2100 0123 00       		.byte	0
 2101 0124 16       		.uleb128 0x16
 2102 0125 05       		.uleb128 0x5
ARM GAS  /var/folders/qh/xwg3v3kj02qbxczjpdb8lzfr0000gn/T//ccY8qlwd.s 			page 38


 2103 0126 00       		.byte	0
 2104 0127 03       		.uleb128 0x3
 2105 0128 08       		.uleb128 0x8
 2106 0129 3A       		.uleb128 0x3a
 2107 012a 0B       		.uleb128 0xb
 2108 012b 3B       		.uleb128 0x3b
 2109 012c 0B       		.uleb128 0xb
 2110 012d 49       		.uleb128 0x49
 2111 012e 13       		.uleb128 0x13
 2112 012f 02       		.uleb128 0x2
 2113 0130 17       		.uleb128 0x17
 2114 0131 00       		.byte	0
 2115 0132 00       		.byte	0
 2116 0133 17       		.uleb128 0x17
 2117 0134 34       		.uleb128 0x34
 2118 0135 00       		.byte	0
 2119 0136 03       		.uleb128 0x3
 2120 0137 08       		.uleb128 0x8
 2121 0138 3A       		.uleb128 0x3a
 2122 0139 0B       		.uleb128 0xb
 2123 013a 3B       		.uleb128 0x3b
 2124 013b 0B       		.uleb128 0xb
 2125 013c 49       		.uleb128 0x49
 2126 013d 13       		.uleb128 0x13
 2127 013e 02       		.uleb128 0x2
 2128 013f 17       		.uleb128 0x17
 2129 0140 00       		.byte	0
 2130 0141 00       		.byte	0
 2131 0142 18       		.uleb128 0x18
 2132 0143 0B       		.uleb128 0xb
 2133 0144 01       		.byte	0x1
 2134 0145 55       		.uleb128 0x55
 2135 0146 17       		.uleb128 0x17
 2136 0147 00       		.byte	0
 2137 0148 00       		.byte	0
 2138 0149 19       		.uleb128 0x19
 2139 014a 1D       		.uleb128 0x1d
 2140 014b 01       		.byte	0x1
 2141 014c 31       		.uleb128 0x31
 2142 014d 13       		.uleb128 0x13
 2143 014e 52       		.uleb128 0x52
 2144 014f 01       		.uleb128 0x1
 2145 0150 55       		.uleb128 0x55
 2146 0151 17       		.uleb128 0x17
 2147 0152 58       		.uleb128 0x58
 2148 0153 0B       		.uleb128 0xb
 2149 0154 59       		.uleb128 0x59
 2150 0155 0B       		.uleb128 0xb
 2151 0156 01       		.uleb128 0x1
 2152 0157 13       		.uleb128 0x13
 2153 0158 00       		.byte	0
 2154 0159 00       		.byte	0
 2155 015a 1A       		.uleb128 0x1a
 2156 015b 05       		.uleb128 0x5
 2157 015c 00       		.byte	0
 2158 015d 31       		.uleb128 0x31
 2159 015e 13       		.uleb128 0x13
ARM GAS  /var/folders/qh/xwg3v3kj02qbxczjpdb8lzfr0000gn/T//ccY8qlwd.s 			page 39


 2160 015f 02       		.uleb128 0x2
 2161 0160 17       		.uleb128 0x17
 2162 0161 00       		.byte	0
 2163 0162 00       		.byte	0
 2164 0163 1B       		.uleb128 0x1b
 2165 0164 34       		.uleb128 0x34
 2166 0165 00       		.byte	0
 2167 0166 31       		.uleb128 0x31
 2168 0167 13       		.uleb128 0x13
 2169 0168 02       		.uleb128 0x2
 2170 0169 17       		.uleb128 0x17
 2171 016a 00       		.byte	0
 2172 016b 00       		.byte	0
 2173 016c 1C       		.uleb128 0x1c
 2174 016d 1D       		.uleb128 0x1d
 2175 016e 01       		.byte	0x1
 2176 016f 31       		.uleb128 0x31
 2177 0170 13       		.uleb128 0x13
 2178 0171 11       		.uleb128 0x11
 2179 0172 01       		.uleb128 0x1
 2180 0173 12       		.uleb128 0x12
 2181 0174 06       		.uleb128 0x6
 2182 0175 58       		.uleb128 0x58
 2183 0176 0B       		.uleb128 0xb
 2184 0177 59       		.uleb128 0x59
 2185 0178 0B       		.uleb128 0xb
 2186 0179 01       		.uleb128 0x1
 2187 017a 13       		.uleb128 0x13
 2188 017b 00       		.byte	0
 2189 017c 00       		.byte	0
 2190 017d 1D       		.uleb128 0x1d
 2191 017e 0B       		.uleb128 0xb
 2192 017f 01       		.byte	0x1
 2193 0180 11       		.uleb128 0x11
 2194 0181 01       		.uleb128 0x1
 2195 0182 12       		.uleb128 0x12
 2196 0183 06       		.uleb128 0x6
 2197 0184 00       		.byte	0
 2198 0185 00       		.byte	0
 2199 0186 1E       		.uleb128 0x1e
 2200 0187 898201   		.uleb128 0x4109
 2201 018a 01       		.byte	0x1
 2202 018b 11       		.uleb128 0x11
 2203 018c 01       		.uleb128 0x1
 2204 018d 31       		.uleb128 0x31
 2205 018e 13       		.uleb128 0x13
 2206 018f 01       		.uleb128 0x1
 2207 0190 13       		.uleb128 0x13
 2208 0191 00       		.byte	0
 2209 0192 00       		.byte	0
 2210 0193 1F       		.uleb128 0x1f
 2211 0194 8A8201   		.uleb128 0x410a
 2212 0197 00       		.byte	0
 2213 0198 02       		.uleb128 0x2
 2214 0199 18       		.uleb128 0x18
 2215 019a 9142     		.uleb128 0x2111
 2216 019c 18       		.uleb128 0x18
ARM GAS  /var/folders/qh/xwg3v3kj02qbxczjpdb8lzfr0000gn/T//ccY8qlwd.s 			page 40


 2217 019d 00       		.byte	0
 2218 019e 00       		.byte	0
 2219 019f 20       		.uleb128 0x20
 2220 01a0 898201   		.uleb128 0x4109
 2221 01a3 00       		.byte	0
 2222 01a4 11       		.uleb128 0x11
 2223 01a5 01       		.uleb128 0x1
 2224 01a6 31       		.uleb128 0x31
 2225 01a7 13       		.uleb128 0x13
 2226 01a8 00       		.byte	0
 2227 01a9 00       		.byte	0
 2228 01aa 21       		.uleb128 0x21
 2229 01ab 898201   		.uleb128 0x4109
 2230 01ae 01       		.byte	0x1
 2231 01af 11       		.uleb128 0x11
 2232 01b0 01       		.uleb128 0x1
 2233 01b1 31       		.uleb128 0x31
 2234 01b2 13       		.uleb128 0x13
 2235 01b3 00       		.byte	0
 2236 01b4 00       		.byte	0
 2237 01b5 22       		.uleb128 0x22
 2238 01b6 2E       		.uleb128 0x2e
 2239 01b7 01       		.byte	0x1
 2240 01b8 3F       		.uleb128 0x3f
 2241 01b9 19       		.uleb128 0x19
 2242 01ba 03       		.uleb128 0x3
 2243 01bb 0E       		.uleb128 0xe
 2244 01bc 3A       		.uleb128 0x3a
 2245 01bd 0B       		.uleb128 0xb
 2246 01be 3B       		.uleb128 0x3b
 2247 01bf 0B       		.uleb128 0xb
 2248 01c0 27       		.uleb128 0x27
 2249 01c1 19       		.uleb128 0x19
 2250 01c2 49       		.uleb128 0x49
 2251 01c3 13       		.uleb128 0x13
 2252 01c4 11       		.uleb128 0x11
 2253 01c5 01       		.uleb128 0x1
 2254 01c6 12       		.uleb128 0x12
 2255 01c7 06       		.uleb128 0x6
 2256 01c8 40       		.uleb128 0x40
 2257 01c9 18       		.uleb128 0x18
 2258 01ca 9742     		.uleb128 0x2117
 2259 01cc 19       		.uleb128 0x19
 2260 01cd 01       		.uleb128 0x1
 2261 01ce 13       		.uleb128 0x13
 2262 01cf 00       		.byte	0
 2263 01d0 00       		.byte	0
 2264 01d1 23       		.uleb128 0x23
 2265 01d2 1D       		.uleb128 0x1d
 2266 01d3 01       		.byte	0x1
 2267 01d4 31       		.uleb128 0x31
 2268 01d5 13       		.uleb128 0x13
 2269 01d6 52       		.uleb128 0x52
 2270 01d7 01       		.uleb128 0x1
 2271 01d8 55       		.uleb128 0x55
 2272 01d9 17       		.uleb128 0x17
 2273 01da 58       		.uleb128 0x58
ARM GAS  /var/folders/qh/xwg3v3kj02qbxczjpdb8lzfr0000gn/T//ccY8qlwd.s 			page 41


 2274 01db 0B       		.uleb128 0xb
 2275 01dc 59       		.uleb128 0x59
 2276 01dd 0B       		.uleb128 0xb
 2277 01de 00       		.byte	0
 2278 01df 00       		.byte	0
 2279 01e0 24       		.uleb128 0x24
 2280 01e1 2E       		.uleb128 0x2e
 2281 01e2 01       		.byte	0x1
 2282 01e3 31       		.uleb128 0x31
 2283 01e4 13       		.uleb128 0x13
 2284 01e5 11       		.uleb128 0x11
 2285 01e6 01       		.uleb128 0x1
 2286 01e7 12       		.uleb128 0x12
 2287 01e8 06       		.uleb128 0x6
 2288 01e9 40       		.uleb128 0x40
 2289 01ea 18       		.uleb128 0x18
 2290 01eb 9742     		.uleb128 0x2117
 2291 01ed 19       		.uleb128 0x19
 2292 01ee 01       		.uleb128 0x1
 2293 01ef 13       		.uleb128 0x13
 2294 01f0 00       		.byte	0
 2295 01f1 00       		.byte	0
 2296 01f2 25       		.uleb128 0x25
 2297 01f3 34       		.uleb128 0x34
 2298 01f4 00       		.byte	0
 2299 01f5 03       		.uleb128 0x3
 2300 01f6 08       		.uleb128 0x8
 2301 01f7 3A       		.uleb128 0x3a
 2302 01f8 0B       		.uleb128 0xb
 2303 01f9 3B       		.uleb128 0x3b
 2304 01fa 05       		.uleb128 0x5
 2305 01fb 49       		.uleb128 0x49
 2306 01fc 13       		.uleb128 0x13
 2307 01fd 00       		.byte	0
 2308 01fe 00       		.byte	0
 2309 01ff 26       		.uleb128 0x26
 2310 0200 34       		.uleb128 0x34
 2311 0201 00       		.byte	0
 2312 0202 03       		.uleb128 0x3
 2313 0203 0E       		.uleb128 0xe
 2314 0204 3A       		.uleb128 0x3a
 2315 0205 0B       		.uleb128 0xb
 2316 0206 3B       		.uleb128 0x3b
 2317 0207 05       		.uleb128 0x5
 2318 0208 49       		.uleb128 0x49
 2319 0209 13       		.uleb128 0x13
 2320 020a 02       		.uleb128 0x2
 2321 020b 17       		.uleb128 0x17
 2322 020c 00       		.byte	0
 2323 020d 00       		.byte	0
 2324 020e 27       		.uleb128 0x27
 2325 020f 1D       		.uleb128 0x1d
 2326 0210 01       		.byte	0x1
 2327 0211 31       		.uleb128 0x31
 2328 0212 13       		.uleb128 0x13
 2329 0213 52       		.uleb128 0x52
 2330 0214 01       		.uleb128 0x1
ARM GAS  /var/folders/qh/xwg3v3kj02qbxczjpdb8lzfr0000gn/T//ccY8qlwd.s 			page 42


 2331 0215 55       		.uleb128 0x55
 2332 0216 17       		.uleb128 0x17
 2333 0217 58       		.uleb128 0x58
 2334 0218 0B       		.uleb128 0xb
 2335 0219 59       		.uleb128 0x59
 2336 021a 05       		.uleb128 0x5
 2337 021b 01       		.uleb128 0x1
 2338 021c 13       		.uleb128 0x13
 2339 021d 00       		.byte	0
 2340 021e 00       		.byte	0
 2341 021f 28       		.uleb128 0x28
 2342 0220 2E       		.uleb128 0x2e
 2343 0221 01       		.byte	0x1
 2344 0222 3F       		.uleb128 0x3f
 2345 0223 19       		.uleb128 0x19
 2346 0224 03       		.uleb128 0x3
 2347 0225 0E       		.uleb128 0xe
 2348 0226 3A       		.uleb128 0x3a
 2349 0227 0B       		.uleb128 0xb
 2350 0228 3B       		.uleb128 0x3b
 2351 0229 05       		.uleb128 0x5
 2352 022a 27       		.uleb128 0x27
 2353 022b 19       		.uleb128 0x19
 2354 022c 49       		.uleb128 0x49
 2355 022d 13       		.uleb128 0x13
 2356 022e 11       		.uleb128 0x11
 2357 022f 01       		.uleb128 0x1
 2358 0230 12       		.uleb128 0x12
 2359 0231 06       		.uleb128 0x6
 2360 0232 40       		.uleb128 0x40
 2361 0233 18       		.uleb128 0x18
 2362 0234 9742     		.uleb128 0x2117
 2363 0236 19       		.uleb128 0x19
 2364 0237 01       		.uleb128 0x1
 2365 0238 13       		.uleb128 0x13
 2366 0239 00       		.byte	0
 2367 023a 00       		.byte	0
 2368 023b 29       		.uleb128 0x29
 2369 023c 34       		.uleb128 0x34
 2370 023d 00       		.byte	0
 2371 023e 03       		.uleb128 0x3
 2372 023f 08       		.uleb128 0x8
 2373 0240 3A       		.uleb128 0x3a
 2374 0241 0B       		.uleb128 0xb
 2375 0242 3B       		.uleb128 0x3b
 2376 0243 05       		.uleb128 0x5
 2377 0244 49       		.uleb128 0x49
 2378 0245 13       		.uleb128 0x13
 2379 0246 02       		.uleb128 0x2
 2380 0247 17       		.uleb128 0x17
 2381 0248 00       		.byte	0
 2382 0249 00       		.byte	0
 2383 024a 2A       		.uleb128 0x2a
 2384 024b 2E       		.uleb128 0x2e
 2385 024c 01       		.byte	0x1
 2386 024d 3F       		.uleb128 0x3f
 2387 024e 19       		.uleb128 0x19
ARM GAS  /var/folders/qh/xwg3v3kj02qbxczjpdb8lzfr0000gn/T//ccY8qlwd.s 			page 43


 2388 024f 03       		.uleb128 0x3
 2389 0250 0E       		.uleb128 0xe
 2390 0251 3A       		.uleb128 0x3a
 2391 0252 0B       		.uleb128 0xb
 2392 0253 3B       		.uleb128 0x3b
 2393 0254 05       		.uleb128 0x5
 2394 0255 27       		.uleb128 0x27
 2395 0256 19       		.uleb128 0x19
 2396 0257 11       		.uleb128 0x11
 2397 0258 01       		.uleb128 0x1
 2398 0259 12       		.uleb128 0x12
 2399 025a 06       		.uleb128 0x6
 2400 025b 40       		.uleb128 0x40
 2401 025c 18       		.uleb128 0x18
 2402 025d 9742     		.uleb128 0x2117
 2403 025f 19       		.uleb128 0x19
 2404 0260 01       		.uleb128 0x1
 2405 0261 13       		.uleb128 0x13
 2406 0262 00       		.byte	0
 2407 0263 00       		.byte	0
 2408 0264 2B       		.uleb128 0x2b
 2409 0265 0B       		.uleb128 0xb
 2410 0266 01       		.byte	0x1
 2411 0267 55       		.uleb128 0x55
 2412 0268 17       		.uleb128 0x17
 2413 0269 01       		.uleb128 0x1
 2414 026a 13       		.uleb128 0x13
 2415 026b 00       		.byte	0
 2416 026c 00       		.byte	0
 2417 026d 2C       		.uleb128 0x2c
 2418 026e 1D       		.uleb128 0x1d
 2419 026f 01       		.byte	0x1
 2420 0270 31       		.uleb128 0x31
 2421 0271 13       		.uleb128 0x13
 2422 0272 11       		.uleb128 0x11
 2423 0273 01       		.uleb128 0x1
 2424 0274 12       		.uleb128 0x12
 2425 0275 06       		.uleb128 0x6
 2426 0276 58       		.uleb128 0x58
 2427 0277 0B       		.uleb128 0xb
 2428 0278 59       		.uleb128 0x59
 2429 0279 05       		.uleb128 0x5
 2430 027a 01       		.uleb128 0x1
 2431 027b 13       		.uleb128 0x13
 2432 027c 00       		.byte	0
 2433 027d 00       		.byte	0
 2434 027e 2D       		.uleb128 0x2d
 2435 027f 34       		.uleb128 0x34
 2436 0280 00       		.byte	0
 2437 0281 03       		.uleb128 0x3
 2438 0282 0E       		.uleb128 0xe
 2439 0283 3A       		.uleb128 0x3a
 2440 0284 0B       		.uleb128 0xb
 2441 0285 3B       		.uleb128 0x3b
 2442 0286 0B       		.uleb128 0xb
 2443 0287 49       		.uleb128 0x49
 2444 0288 13       		.uleb128 0x13
ARM GAS  /var/folders/qh/xwg3v3kj02qbxczjpdb8lzfr0000gn/T//ccY8qlwd.s 			page 44


 2445 0289 3F       		.uleb128 0x3f
 2446 028a 19       		.uleb128 0x19
 2447 028b 3C       		.uleb128 0x3c
 2448 028c 19       		.uleb128 0x19
 2449 028d 00       		.byte	0
 2450 028e 00       		.byte	0
 2451 028f 2E       		.uleb128 0x2e
 2452 0290 2E       		.uleb128 0x2e
 2453 0291 01       		.byte	0x1
 2454 0292 3F       		.uleb128 0x3f
 2455 0293 19       		.uleb128 0x19
 2456 0294 03       		.uleb128 0x3
 2457 0295 0E       		.uleb128 0xe
 2458 0296 3A       		.uleb128 0x3a
 2459 0297 0B       		.uleb128 0xb
 2460 0298 3B       		.uleb128 0x3b
 2461 0299 0B       		.uleb128 0xb
 2462 029a 27       		.uleb128 0x27
 2463 029b 19       		.uleb128 0x19
 2464 029c 3C       		.uleb128 0x3c
 2465 029d 19       		.uleb128 0x19
 2466 029e 01       		.uleb128 0x1
 2467 029f 13       		.uleb128 0x13
 2468 02a0 00       		.byte	0
 2469 02a1 00       		.byte	0
 2470 02a2 2F       		.uleb128 0x2f
 2471 02a3 05       		.uleb128 0x5
 2472 02a4 00       		.byte	0
 2473 02a5 49       		.uleb128 0x49
 2474 02a6 13       		.uleb128 0x13
 2475 02a7 00       		.byte	0
 2476 02a8 00       		.byte	0
 2477 02a9 30       		.uleb128 0x30
 2478 02aa 2E       		.uleb128 0x2e
 2479 02ab 01       		.byte	0x1
 2480 02ac 3F       		.uleb128 0x3f
 2481 02ad 19       		.uleb128 0x19
 2482 02ae 03       		.uleb128 0x3
 2483 02af 0E       		.uleb128 0xe
 2484 02b0 3A       		.uleb128 0x3a
 2485 02b1 0B       		.uleb128 0xb
 2486 02b2 3B       		.uleb128 0x3b
 2487 02b3 0B       		.uleb128 0xb
 2488 02b4 27       		.uleb128 0x27
 2489 02b5 19       		.uleb128 0x19
 2490 02b6 49       		.uleb128 0x49
 2491 02b7 13       		.uleb128 0x13
 2492 02b8 3C       		.uleb128 0x3c
 2493 02b9 19       		.uleb128 0x19
 2494 02ba 01       		.uleb128 0x1
 2495 02bb 13       		.uleb128 0x13
 2496 02bc 00       		.byte	0
 2497 02bd 00       		.byte	0
 2498 02be 31       		.uleb128 0x31
 2499 02bf 2E       		.uleb128 0x2e
 2500 02c0 00       		.byte	0
 2501 02c1 3F       		.uleb128 0x3f
ARM GAS  /var/folders/qh/xwg3v3kj02qbxczjpdb8lzfr0000gn/T//ccY8qlwd.s 			page 45


 2502 02c2 19       		.uleb128 0x19
 2503 02c3 03       		.uleb128 0x3
 2504 02c4 0E       		.uleb128 0xe
 2505 02c5 3A       		.uleb128 0x3a
 2506 02c6 0B       		.uleb128 0xb
 2507 02c7 3B       		.uleb128 0x3b
 2508 02c8 0B       		.uleb128 0xb
 2509 02c9 27       		.uleb128 0x27
 2510 02ca 19       		.uleb128 0x19
 2511 02cb 3C       		.uleb128 0x3c
 2512 02cc 19       		.uleb128 0x19
 2513 02cd 00       		.byte	0
 2514 02ce 00       		.byte	0
 2515 02cf 00       		.byte	0
 2516              		.section	.debug_loc,"",%progbits
 2517              	.Ldebug_loc0:
 2518              	.LLST0:
 2519 0000 00000000 		.4byte	.LVL1
 2520 0004 08000000 		.4byte	.LVL2
 2521 0008 0100     		.2byte	0x1
 2522 000a 50       		.byte	0x50
 2523 000b 08000000 		.4byte	.LVL2
 2524 000f 4A000000 		.4byte	.LVL10
 2525 0013 0100     		.2byte	0x1
 2526 0015 55       		.byte	0x55
 2527 0016 4A000000 		.4byte	.LVL10
 2528 001a 4C000000 		.4byte	.LVL11
 2529 001e 0400     		.2byte	0x4
 2530 0020 F3       		.byte	0xf3
 2531 0021 01       		.uleb128 0x1
 2532 0022 50       		.byte	0x50
 2533 0023 9F       		.byte	0x9f
 2534 0024 4C000000 		.4byte	.LVL11
 2535 0028 C4000000 		.4byte	.LFE9
 2536 002c 0100     		.2byte	0x1
 2537 002e 55       		.byte	0x55
 2538 002f 00000000 		.4byte	0
 2539 0033 00000000 		.4byte	0
 2540              	.LLST1:
 2541 0037 0A000000 		.4byte	.LVL3
 2542 003b 4A000000 		.4byte	.LVL9
 2543 003f 0100     		.2byte	0x1
 2544 0041 54       		.byte	0x54
 2545 0042 4C000000 		.4byte	.LVL11
 2546 0046 C4000000 		.4byte	.LFE9
 2547 004a 0100     		.2byte	0x1
 2548 004c 54       		.byte	0x54
 2549 004d 00000000 		.4byte	0
 2550 0051 00000000 		.4byte	0
 2551              	.LLST2:
 2552 0055 0E000000 		.4byte	.LVL4
 2553 0059 26000000 		.4byte	.LVL5
 2554 005d 0100     		.2byte	0x1
 2555 005f 50       		.byte	0x50
 2556 0060 4C000000 		.4byte	.LVL11
 2557 0064 59000000 		.4byte	.LVL12-1
 2558 0068 0100     		.2byte	0x1
ARM GAS  /var/folders/qh/xwg3v3kj02qbxczjpdb8lzfr0000gn/T//ccY8qlwd.s 			page 46


 2559 006a 50       		.byte	0x50
 2560 006b 5C000000 		.4byte	.LVL13
 2561 006f B6000000 		.4byte	.LVL23
 2562 0073 0100     		.2byte	0x1
 2563 0075 50       		.byte	0x50
 2564 0076 00000000 		.4byte	0
 2565 007a 00000000 		.4byte	0
 2566              	.LLST3:
 2567 007e 26000000 		.4byte	.LVL5
 2568 0082 4A000000 		.4byte	.LVL8
 2569 0086 0100     		.2byte	0x1
 2570 0088 55       		.byte	0x55
 2571 0089 00000000 		.4byte	0
 2572 008d 00000000 		.4byte	0
 2573              	.LLST4:
 2574 0091 26000000 		.4byte	.LVL5
 2575 0095 4A000000 		.4byte	.LVL8
 2576 0099 0100     		.2byte	0x1
 2577 009b 54       		.byte	0x54
 2578 009c 00000000 		.4byte	0
 2579 00a0 00000000 		.4byte	0
 2580              	.LLST5:
 2581 00a4 26000000 		.4byte	.LVL5
 2582 00a8 2A000000 		.4byte	.LVL6
 2583 00ac 0100     		.2byte	0x1
 2584 00ae 55       		.byte	0x55
 2585 00af 2A000000 		.4byte	.LVL6
 2586 00b3 49000000 		.4byte	.LVL8-1
 2587 00b7 0100     		.2byte	0x1
 2588 00b9 53       		.byte	0x53
 2589 00ba 00000000 		.4byte	0
 2590 00be 00000000 		.4byte	0
 2591              	.LLST6:
 2592 00c2 4C000000 		.4byte	.LVL11
 2593 00c6 59000000 		.4byte	.LVL12-1
 2594 00ca 0100     		.2byte	0x1
 2595 00cc 50       		.byte	0x50
 2596 00cd 00000000 		.4byte	0
 2597 00d1 00000000 		.4byte	0
 2598              	.LLST7:
 2599 00d5 5C000000 		.4byte	.LVL13
 2600 00d9 84000000 		.4byte	.LVL17
 2601 00dd 0100     		.2byte	0x1
 2602 00df 50       		.byte	0x50
 2603 00e0 00000000 		.4byte	0
 2604 00e4 00000000 		.4byte	0
 2605              	.LLST8:
 2606 00e8 68000000 		.4byte	.LVL14
 2607 00ec 84000000 		.4byte	.LVL17
 2608 00f0 0100     		.2byte	0x1
 2609 00f2 51       		.byte	0x51
 2610 00f3 00000000 		.4byte	0
 2611 00f7 00000000 		.4byte	0
 2612              	.LLST9:
 2613 00fb 68000000 		.4byte	.LVL14
 2614 00ff 84000000 		.4byte	.LVL17
 2615 0103 0100     		.2byte	0x1
ARM GAS  /var/folders/qh/xwg3v3kj02qbxczjpdb8lzfr0000gn/T//ccY8qlwd.s 			page 47


 2616 0105 50       		.byte	0x50
 2617 0106 00000000 		.4byte	0
 2618 010a 00000000 		.4byte	0
 2619              	.LLST10:
 2620 010e 68000000 		.4byte	.LVL14
 2621 0112 6C000000 		.4byte	.LVL15
 2622 0116 0100     		.2byte	0x1
 2623 0118 51       		.byte	0x51
 2624 0119 6C000000 		.4byte	.LVL15
 2625 011d 84000000 		.4byte	.LVL17
 2626 0121 0100     		.2byte	0x1
 2627 0123 53       		.byte	0x53
 2628 0124 00000000 		.4byte	0
 2629 0128 00000000 		.4byte	0
 2630              	.LLST11:
 2631 012c 84000000 		.4byte	.LVL17
 2632 0130 AC000000 		.4byte	.LVL21
 2633 0134 0100     		.2byte	0x1
 2634 0136 50       		.byte	0x50
 2635 0137 AC000000 		.4byte	.LVL21
 2636 013b B6000000 		.4byte	.LVL23
 2637 013f 0200     		.2byte	0x2
 2638 0141 73       		.byte	0x73
 2639 0142 04       		.sleb128 4
 2640 0143 00000000 		.4byte	0
 2641 0147 00000000 		.4byte	0
 2642              	.LLST12:
 2643 014b 90000000 		.4byte	.LVL18
 2644 014f B0000000 		.4byte	.LVL22
 2645 0153 0100     		.2byte	0x1
 2646 0155 51       		.byte	0x51
 2647 0156 B0000000 		.4byte	.LVL22
 2648 015a B6000000 		.4byte	.LVL23
 2649 015e 0500     		.2byte	0x5
 2650 0160 73       		.byte	0x73
 2651 0161 04       		.sleb128 4
 2652 0162 06       		.byte	0x6
 2653 0163 23       		.byte	0x23
 2654 0164 24       		.uleb128 0x24
 2655 0165 00000000 		.4byte	0
 2656 0169 00000000 		.4byte	0
 2657              	.LLST13:
 2658 016d 90000000 		.4byte	.LVL18
 2659 0171 AC000000 		.4byte	.LVL21
 2660 0175 0100     		.2byte	0x1
 2661 0177 50       		.byte	0x50
 2662 0178 AC000000 		.4byte	.LVL21
 2663 017c B6000000 		.4byte	.LVL23
 2664 0180 0200     		.2byte	0x2
 2665 0182 73       		.byte	0x73
 2666 0183 04       		.sleb128 4
 2667 0184 00000000 		.4byte	0
 2668 0188 00000000 		.4byte	0
 2669              	.LLST14:
 2670 018c 90000000 		.4byte	.LVL18
 2671 0190 94000000 		.4byte	.LVL19
 2672 0194 0100     		.2byte	0x1
ARM GAS  /var/folders/qh/xwg3v3kj02qbxczjpdb8lzfr0000gn/T//ccY8qlwd.s 			page 48


 2673 0196 51       		.byte	0x51
 2674 0197 94000000 		.4byte	.LVL19
 2675 019b B6000000 		.4byte	.LVL23
 2676 019f 0100     		.2byte	0x1
 2677 01a1 53       		.byte	0x53
 2678 01a2 00000000 		.4byte	0
 2679 01a6 00000000 		.4byte	0
 2680              	.LLST15:
 2681 01aa 00000000 		.4byte	.LVL24
 2682 01ae 07000000 		.4byte	.LVL25-1
 2683 01b2 0100     		.2byte	0x1
 2684 01b4 50       		.byte	0x50
 2685 01b5 07000000 		.4byte	.LVL25-1
 2686 01b9 0C000000 		.4byte	.LFE8
 2687 01bd 0400     		.2byte	0x4
 2688 01bf F3       		.byte	0xf3
 2689 01c0 01       		.uleb128 0x1
 2690 01c1 50       		.byte	0x50
 2691 01c2 9F       		.byte	0x9f
 2692 01c3 00000000 		.4byte	0
 2693 01c7 00000000 		.4byte	0
 2694              	.LLST16:
 2695 01cb 00000000 		.4byte	.LVL26
 2696 01cf 08000000 		.4byte	.LVL28
 2697 01d3 0100     		.2byte	0x1
 2698 01d5 50       		.byte	0x50
 2699 01d6 08000000 		.4byte	.LVL28
 2700 01da 24000000 		.4byte	.LFE10
 2701 01de 0100     		.2byte	0x1
 2702 01e0 53       		.byte	0x53
 2703 01e1 00000000 		.4byte	0
 2704 01e5 00000000 		.4byte	0
 2705              	.LLST17:
 2706 01e9 04000000 		.4byte	.LVL27
 2707 01ed 08000000 		.4byte	.LVL28
 2708 01f1 0100     		.2byte	0x1
 2709 01f3 50       		.byte	0x50
 2710 01f4 08000000 		.4byte	.LVL28
 2711 01f8 24000000 		.4byte	.LFE10
 2712 01fc 0100     		.2byte	0x1
 2713 01fe 53       		.byte	0x53
 2714 01ff 00000000 		.4byte	0
 2715 0203 00000000 		.4byte	0
 2716              	.LLST18:
 2717 0207 00000000 		.4byte	.LVL29
 2718 020b 06000000 		.4byte	.LVL30
 2719 020f 0100     		.2byte	0x1
 2720 0211 50       		.byte	0x50
 2721 0212 06000000 		.4byte	.LVL30
 2722 0216 20000000 		.4byte	.LFE11
 2723 021a 0100     		.2byte	0x1
 2724 021c 53       		.byte	0x53
 2725 021d 00000000 		.4byte	0
 2726 0221 00000000 		.4byte	0
 2727              	.LLST19:
 2728 0225 06000000 		.4byte	.LVL31
 2729 0229 48000000 		.4byte	.LVL41
ARM GAS  /var/folders/qh/xwg3v3kj02qbxczjpdb8lzfr0000gn/T//ccY8qlwd.s 			page 49


 2730 022d 0100     		.2byte	0x1
 2731 022f 55       		.byte	0x55
 2732 0230 4A000000 		.4byte	.LVL42
 2733 0234 54000000 		.4byte	.LFE12
 2734 0238 0100     		.2byte	0x1
 2735 023a 55       		.byte	0x55
 2736 023b 00000000 		.4byte	0
 2737 023f 00000000 		.4byte	0
 2738              	.LLST20:
 2739 0243 0A000000 		.4byte	.LVL32
 2740 0247 48000000 		.4byte	.LVL40
 2741 024b 0100     		.2byte	0x1
 2742 024d 54       		.byte	0x54
 2743 024e 48000000 		.4byte	.LVL40
 2744 0252 4A000000 		.4byte	.LVL42
 2745 0256 0100     		.2byte	0x1
 2746 0258 50       		.byte	0x50
 2747 0259 4A000000 		.4byte	.LVL42
 2748 025d 54000000 		.4byte	.LFE12
 2749 0261 0100     		.2byte	0x1
 2750 0263 54       		.byte	0x54
 2751 0264 00000000 		.4byte	0
 2752 0268 00000000 		.4byte	0
 2753              	.LLST21:
 2754 026c 16000000 		.4byte	.LVL33
 2755 0270 30000000 		.4byte	.LVL36
 2756 0274 0100     		.2byte	0x1
 2757 0276 53       		.byte	0x53
 2758 0277 00000000 		.4byte	0
 2759 027b 00000000 		.4byte	0
 2760              	.LLST22:
 2761 027f 16000000 		.4byte	.LVL33
 2762 0283 3E000000 		.4byte	.LVL38
 2763 0287 0100     		.2byte	0x1
 2764 0289 51       		.byte	0x51
 2765 028a 3E000000 		.4byte	.LVL38
 2766 028e 43000000 		.4byte	.LVL39-1
 2767 0292 0200     		.2byte	0x2
 2768 0294 75       		.byte	0x75
 2769 0295 08       		.sleb128 8
 2770 0296 00000000 		.4byte	0
 2771 029a 00000000 		.4byte	0
 2772              	.LLST23:
 2773 029e 32000000 		.4byte	.LVL37
 2774 02a2 44000000 		.4byte	.LVL39
 2775 02a6 0100     		.2byte	0x1
 2776 02a8 54       		.byte	0x54
 2777 02a9 00000000 		.4byte	0
 2778 02ad 00000000 		.4byte	0
 2779              	.LLST24:
 2780 02b1 32000000 		.4byte	.LVL37
 2781 02b5 43000000 		.4byte	.LVL39-1
 2782 02b9 0100     		.2byte	0x1
 2783 02bb 50       		.byte	0x50
 2784 02bc 00000000 		.4byte	0
 2785 02c0 00000000 		.4byte	0
 2786              	.LLST25:
ARM GAS  /var/folders/qh/xwg3v3kj02qbxczjpdb8lzfr0000gn/T//ccY8qlwd.s 			page 50


 2787 02c4 06000000 		.4byte	.LVL43
 2788 02c8 42000000 		.4byte	.LVL52
 2789 02cc 0100     		.2byte	0x1
 2790 02ce 55       		.byte	0x55
 2791 02cf 44000000 		.4byte	.LVL53
 2792 02d3 50000000 		.4byte	.LFE13
 2793 02d7 0100     		.2byte	0x1
 2794 02d9 55       		.byte	0x55
 2795 02da 00000000 		.4byte	0
 2796 02de 00000000 		.4byte	0
 2797              	.LLST26:
 2798 02e2 08000000 		.4byte	.LVL44
 2799 02e6 42000000 		.4byte	.LVL51
 2800 02ea 0100     		.2byte	0x1
 2801 02ec 54       		.byte	0x54
 2802 02ed 42000000 		.4byte	.LVL51
 2803 02f1 44000000 		.4byte	.LVL53
 2804 02f5 0100     		.2byte	0x1
 2805 02f7 50       		.byte	0x50
 2806 02f8 44000000 		.4byte	.LVL53
 2807 02fc 50000000 		.4byte	.LFE13
 2808 0300 0100     		.2byte	0x1
 2809 0302 54       		.byte	0x54
 2810 0303 00000000 		.4byte	0
 2811 0307 00000000 		.4byte	0
 2812              	.LLST27:
 2813 030b 14000000 		.4byte	.LVL45
 2814 030f 2E000000 		.4byte	.LVL48
 2815 0313 0100     		.2byte	0x1
 2816 0315 53       		.byte	0x53
 2817 0316 00000000 		.4byte	0
 2818 031a 00000000 		.4byte	0
 2819              	.LLST28:
 2820 031e 14000000 		.4byte	.LVL45
 2821 0322 3F000000 		.4byte	.LVL50-1
 2822 0326 0100     		.2byte	0x1
 2823 0328 51       		.byte	0x51
 2824 0329 00000000 		.4byte	0
 2825 032d 00000000 		.4byte	0
 2826              	.LLST29:
 2827 0331 30000000 		.4byte	.LVL49
 2828 0335 40000000 		.4byte	.LVL50
 2829 0339 0100     		.2byte	0x1
 2830 033b 54       		.byte	0x54
 2831 033c 00000000 		.4byte	0
 2832 0340 00000000 		.4byte	0
 2833              	.LLST30:
 2834 0344 30000000 		.4byte	.LVL49
 2835 0348 3F000000 		.4byte	.LVL50-1
 2836 034c 0100     		.2byte	0x1
 2837 034e 50       		.byte	0x50
 2838 034f 00000000 		.4byte	0
 2839 0353 00000000 		.4byte	0
 2840              	.LLST31:
 2841 0357 06000000 		.4byte	.LVL54
 2842 035b 46000000 		.4byte	.LVL60
 2843 035f 0100     		.2byte	0x1
ARM GAS  /var/folders/qh/xwg3v3kj02qbxczjpdb8lzfr0000gn/T//ccY8qlwd.s 			page 51


 2844 0361 54       		.byte	0x54
 2845 0362 00000000 		.4byte	0
 2846 0366 00000000 		.4byte	0
 2847              	.LLST32:
 2848 036a 12000000 		.4byte	.LVL55
 2849 036e 23000000 		.4byte	.LVL56-1
 2850 0372 0100     		.2byte	0x1
 2851 0374 53       		.byte	0x53
 2852 0375 2A000000 		.4byte	.LVL57
 2853 0379 38000000 		.4byte	.LVL58
 2854 037d 0100     		.2byte	0x1
 2855 037f 53       		.byte	0x53
 2856 0380 00000000 		.4byte	0
 2857 0384 00000000 		.4byte	0
 2858              	.LLST33:
 2859 0388 12000000 		.4byte	.LVL55
 2860 038c 23000000 		.4byte	.LVL56-1
 2861 0390 0100     		.2byte	0x1
 2862 0392 53       		.byte	0x53
 2863 0393 00000000 		.4byte	0
 2864 0397 00000000 		.4byte	0
 2865              	.LLST34:
 2866 039b 12000000 		.4byte	.LVL55
 2867 039f 23000000 		.4byte	.LVL56-1
 2868 03a3 0100     		.2byte	0x1
 2869 03a5 50       		.byte	0x50
 2870 03a6 00000000 		.4byte	0
 2871 03aa 00000000 		.4byte	0
 2872              		.section	.debug_aranges,"",%progbits
 2873 0000 54000000 		.4byte	0x54
 2874 0004 0200     		.2byte	0x2
 2875 0006 00000000 		.4byte	.Ldebug_info0
 2876 000a 04       		.byte	0x4
 2877 000b 00       		.byte	0
 2878 000c 0000     		.2byte	0
 2879 000e 0000     		.2byte	0
 2880 0010 00000000 		.4byte	.LFB7
 2881 0014 0A000000 		.4byte	.LFE7-.LFB7
 2882 0018 00000000 		.4byte	.LFB9
 2883 001c C4000000 		.4byte	.LFE9-.LFB9
 2884 0020 00000000 		.4byte	.LFB8
 2885 0024 0C000000 		.4byte	.LFE8-.LFB8
 2886 0028 00000000 		.4byte	.LFB10
 2887 002c 24000000 		.4byte	.LFE10-.LFB10
 2888 0030 00000000 		.4byte	.LFB11
 2889 0034 20000000 		.4byte	.LFE11-.LFB11
 2890 0038 00000000 		.4byte	.LFB12
 2891 003c 54000000 		.4byte	.LFE12-.LFB12
 2892 0040 00000000 		.4byte	.LFB13
 2893 0044 50000000 		.4byte	.LFE13-.LFB13
 2894 0048 00000000 		.4byte	.LFB14
 2895 004c 4C000000 		.4byte	.LFE14-.LFB14
 2896 0050 00000000 		.4byte	0
 2897 0054 00000000 		.4byte	0
 2898              		.section	.debug_ranges,"",%progbits
 2899              	.Ldebug_ranges0:
 2900 0000 0E000000 		.4byte	.LBB27
ARM GAS  /var/folders/qh/xwg3v3kj02qbxczjpdb8lzfr0000gn/T//ccY8qlwd.s 			page 52


 2901 0004 4A000000 		.4byte	.LBE27
 2902 0008 4C000000 		.4byte	.LBB42
 2903 000c B6000000 		.4byte	.LBE42
 2904 0010 00000000 		.4byte	0
 2905 0014 00000000 		.4byte	0
 2906 0018 26000000 		.4byte	.LBB28
 2907 001c 3E000000 		.4byte	.LBE28
 2908 0020 40000000 		.4byte	.LBB31
 2909 0024 44000000 		.4byte	.LBE31
 2910 0028 00000000 		.4byte	0
 2911 002c 00000000 		.4byte	0
 2912 0030 04000000 		.4byte	.LBB43
 2913 0034 0C000000 		.4byte	.LBE43
 2914 0038 10000000 		.4byte	.LBB46
 2915 003c 24000000 		.4byte	.LBE46
 2916 0040 00000000 		.4byte	0
 2917 0044 00000000 		.4byte	0
 2918 0048 2E000000 		.4byte	.LBB48
 2919 004c 30000000 		.4byte	.LBE48
 2920 0050 32000000 		.4byte	.LBB51
 2921 0054 36000000 		.4byte	.LBE51
 2922 0058 00000000 		.4byte	0
 2923 005c 00000000 		.4byte	0
 2924 0060 2C000000 		.4byte	.LBB53
 2925 0064 2E000000 		.4byte	.LBE53
 2926 0068 30000000 		.4byte	.LBB56
 2927 006c 34000000 		.4byte	.LBE56
 2928 0070 00000000 		.4byte	0
 2929 0074 00000000 		.4byte	0
 2930 0078 0E000000 		.4byte	.LBB57
 2931 007c 24000000 		.4byte	.LBE57
 2932 0080 2A000000 		.4byte	.LBB61
 2933 0084 36000000 		.4byte	.LBE61
 2934 0088 00000000 		.4byte	0
 2935 008c 00000000 		.4byte	0
 2936 0090 00000000 		.4byte	.LFB7
 2937 0094 0A000000 		.4byte	.LFE7
 2938 0098 00000000 		.4byte	.LFB9
 2939 009c C4000000 		.4byte	.LFE9
 2940 00a0 00000000 		.4byte	.LFB8
 2941 00a4 0C000000 		.4byte	.LFE8
 2942 00a8 00000000 		.4byte	.LFB10
 2943 00ac 24000000 		.4byte	.LFE10
 2944 00b0 00000000 		.4byte	.LFB11
 2945 00b4 20000000 		.4byte	.LFE11
 2946 00b8 00000000 		.4byte	.LFB12
 2947 00bc 54000000 		.4byte	.LFE12
 2948 00c0 00000000 		.4byte	.LFB13
 2949 00c4 50000000 		.4byte	.LFE13
 2950 00c8 00000000 		.4byte	.LFB14
 2951 00cc 4C000000 		.4byte	.LFE14
 2952 00d0 00000000 		.4byte	0
 2953 00d4 00000000 		.4byte	0
 2954              		.section	.debug_line,"",%progbits
 2955              	.Ldebug_line0:
 2956 0000 CF020000 		.section	.debug_str,"MS",%progbits,1
 2956      02001401 
ARM GAS  /var/folders/qh/xwg3v3kj02qbxczjpdb8lzfr0000gn/T//ccY8qlwd.s 			page 53


 2956      00000201 
 2956      FB0E0D00 
 2956      01010101 
 2957              	.LASF37:
 2958 0000 705F6D73 		.ascii	"p_msg\000"
 2958      6700
 2959              	.LASF59:
 2960 0006 7264796D 		.ascii	"rdymsg\000"
 2960      736700
 2961              	.LASF11:
 2962 000d 6C6F6E67 		.ascii	"long long unsigned int\000"
 2962      206C6F6E 
 2962      6720756E 
 2962      7369676E 
 2962      65642069 
 2963              	.LASF60:
 2964 0024 65786974 		.ascii	"exitcode\000"
 2964      636F6465 
 2964      00
 2965              	.LASF70:
 2966 002d 63684D74 		.ascii	"chMtxUnlock\000"
 2966      78556E6C 
 2966      6F636B00 
 2967              	.LASF25:
 2968 0039 705F7072 		.ascii	"p_prio\000"
 2968      696F00
 2969              	.LASF10:
 2970 0040 6C6F6E67 		.ascii	"long long int\000"
 2970      206C6F6E 
 2970      6720696E 
 2970      7400
 2971              	.LASF1:
 2972 004e 7369676E 		.ascii	"signed char\000"
 2972      65642063 
 2972      68617200 
 2973              	.LASF41:
 2974 005a 705F6D70 		.ascii	"p_mpool\000"
 2974      6F6F6C00 
 2975              	.LASF12:
 2976 0062 626F6F6C 		.ascii	"bool_t\000"
 2976      5F7400
 2977              	.LASF56:
 2978 0069 6D5F7175 		.ascii	"m_queue\000"
 2978      65756500 
 2979              	.LASF17:
 2980 0071 74736C69 		.ascii	"tslices_t\000"
 2980      6365735F 
 2980      7400
 2981              	.LASF7:
 2982 007b 6C6F6E67 		.ascii	"long int\000"
 2982      20696E74 
 2982      00
 2983              	.LASF15:
 2984 0084 74737461 		.ascii	"tstate_t\000"
 2984      74655F74 
 2984      00
 2985              	.LASF67:
ARM GAS  /var/folders/qh/xwg3v3kj02qbxczjpdb8lzfr0000gn/T//ccY8qlwd.s 			page 54


 2986 008d 63684D74 		.ascii	"chMtxLockS\000"
 2986      784C6F63 
 2986      6B5300
 2987              	.LASF74:
 2988 0098 63684D74 		.ascii	"chMtxTryLockS\000"
 2988      78547279 
 2988      4C6F636B 
 2988      5300
 2989              	.LASF27:
 2990 00a6 705F6E65 		.ascii	"p_newer\000"
 2990      77657200 
 2991              	.LASF83:
 2992 00ae 63685363 		.ascii	"chSchRescheduleS\000"
 2992      68526573 
 2992      63686564 
 2992      756C6553 
 2992      00
 2993              	.LASF51:
 2994 00bf 725F6E65 		.ascii	"r_newer\000"
 2994      77657200 
 2995              	.LASF44:
 2996 00c7 72656761 		.ascii	"regarm_t\000"
 2996      726D5F74 
 2996      00
 2997              	.LASF72:
 2998 00d0 63684D74 		.ascii	"chMtxUnlockS\000"
 2998      78556E6C 
 2998      6F636B53 
 2998      00
 2999              	.LASF0:
 3000 00dd 756E7369 		.ascii	"unsigned int\000"
 3000      676E6564 
 3000      20696E74 
 3000      00
 3001              	.LASF9:
 3002 00ea 6C6F6E67 		.ascii	"long unsigned int\000"
 3002      20756E73 
 3002      69676E65 
 3002      6420696E 
 3002      7400
 3003              	.LASF80:
 3004 00fc 2F557365 		.ascii	"/Users/John/Development/embedded/ChibiOS-RT/BluC/ST"
 3004      72732F4A 
 3004      6F686E2F 
 3004      44657665 
 3004      6C6F706D 
 3005 012f 4D333246 		.ascii	"M32F051\000"
 3005      30353100 
 3006              	.LASF46:
 3007 0137 636F6E74 		.ascii	"context\000"
 3007      65787400 
 3008              	.LASF4:
 3009 013f 73686F72 		.ascii	"short unsigned int\000"
 3009      7420756E 
 3009      7369676E 
 3009      65642069 
 3009      6E7400
ARM GAS  /var/folders/qh/xwg3v3kj02qbxczjpdb8lzfr0000gn/T//ccY8qlwd.s 			page 55


 3010              	.LASF19:
 3011 0152 6D73675F 		.ascii	"msg_t\000"
 3011      7400
 3012              	.LASF81:
 3013 0158 7072696F 		.ascii	"prio_insert\000"
 3013      5F696E73 
 3013      65727400 
 3014              	.LASF73:
 3015 0164 63684D74 		.ascii	"chMtxUnlockAll\000"
 3015      78556E6C 
 3015      6F636B41 
 3015      6C6C00
 3016              	.LASF71:
 3017 0173 6E657770 		.ascii	"newprio\000"
 3017      72696F00 
 3018              	.LASF14:
 3019 017b 746D6F64 		.ascii	"tmode_t\000"
 3019      655F7400 
 3020              	.LASF43:
 3021 0183 54687265 		.ascii	"ThreadsList\000"
 3021      6164734C 
 3021      69737400 
 3022              	.LASF20:
 3023 018f 6576656E 		.ascii	"eventmask_t\000"
 3023      746D6173 
 3023      6B5F7400 
 3024              	.LASF69:
 3025 019b 63684D74 		.ascii	"chMtxTryLock\000"
 3025      78547279 
 3025      4C6F636B 
 3025      00
 3026              	.LASF55:
 3027 01a8 4D757465 		.ascii	"Mutex\000"
 3027      7800
 3028              	.LASF47:
 3029 01ae 73697A65 		.ascii	"sizetype\000"
 3029      74797065 
 3029      00
 3030              	.LASF78:
 3031 01b7 474E5520 		.ascii	"GNU C 4.8.3 20131129 (release) [ARM/embedded-4_8-br"
 3031      4320342E 
 3031      382E3320 
 3031      32303133 
 3031      31313239 
 3032 01ea 616E6368 		.ascii	"anch revision 205641] -mcpu=cortex-m0 -mno-thumb-in"
 3032      20726576 
 3032      6973696F 
 3032      6E203230 
 3032      35363431 
 3033 021d 74657277 		.ascii	"terwork -mthumb -ggdb -O2 -fomit-frame-pointer -fal"
 3033      6F726B20 
 3033      2D6D7468 
 3033      756D6220 
 3033      2D676764 
 3034 0250 69676E2D 		.ascii	"ign-functions=16 -ffunction-sections -fdata-section"
 3034      66756E63 
 3034      74696F6E 
ARM GAS  /var/folders/qh/xwg3v3kj02qbxczjpdb8lzfr0000gn/T//ccY8qlwd.s 			page 56


 3034      733D3136 
 3034      202D6666 
 3035 0283 73202D66 		.ascii	"s -fno-common\000"
 3035      6E6F2D63 
 3035      6F6D6D6F 
 3035      6E00
 3036              	.LASF68:
 3037 0291 63684D74 		.ascii	"chMtxLock\000"
 3037      784C6F63 
 3037      6B00
 3038              	.LASF28:
 3039 029b 705F6F6C 		.ascii	"p_older\000"
 3039      64657200 
 3040              	.LASF50:
 3041 02a3 725F6374 		.ascii	"r_ctx\000"
 3041      7800
 3042              	.LASF42:
 3043 02a9 54687265 		.ascii	"ThreadsQueue\000"
 3043      61647351 
 3043      75657565 
 3043      00
 3044              	.LASF64:
 3045 02b6 64657175 		.ascii	"dequeue\000"
 3045      65756500 
 3046              	.LASF53:
 3047 02be 725F6375 		.ascii	"r_current\000"
 3047      7272656E 
 3047      7400
 3048              	.LASF52:
 3049 02c8 725F6F6C 		.ascii	"r_older\000"
 3049      64657200 
 3050              	.LASF16:
 3051 02d0 74726566 		.ascii	"trefs_t\000"
 3051      735F7400 
 3052              	.LASF24:
 3053 02d8 705F7072 		.ascii	"p_prev\000"
 3053      657600
 3054              	.LASF18:
 3055 02df 74707269 		.ascii	"tprio_t\000"
 3055      6F5F7400 
 3056              	.LASF13:
 3057 02e7 5F426F6F 		.ascii	"_Bool\000"
 3057      6C00
 3058              	.LASF6:
 3059 02ed 696E7433 		.ascii	"int32_t\000"
 3059      325F7400 
 3060              	.LASF2:
 3061 02f5 756E7369 		.ascii	"unsigned char\000"
 3061      676E6564 
 3061      20636861 
 3061      7200
 3062              	.LASF39:
 3063 0303 705F6D74 		.ascii	"p_mtxlist\000"
 3063      786C6973 
 3063      7400
 3064              	.LASF3:
 3065 030d 73686F72 		.ascii	"short int\000"
ARM GAS  /var/folders/qh/xwg3v3kj02qbxczjpdb8lzfr0000gn/T//ccY8qlwd.s 			page 57


 3065      7420696E 
 3065      7400
 3066              	.LASF30:
 3067 0317 705F7374 		.ascii	"p_state\000"
 3067      61746500 
 3068              	.LASF33:
 3069 031f 705F7072 		.ascii	"p_preempt\000"
 3069      65656D70 
 3069      7400
 3070              	.LASF49:
 3071 0329 725F7072 		.ascii	"r_prio\000"
 3071      696F00
 3072              	.LASF62:
 3073 0330 65776D61 		.ascii	"ewmask\000"
 3073      736B00
 3074              	.LASF23:
 3075 0337 705F6E65 		.ascii	"p_next\000"
 3075      787400
 3076              	.LASF31:
 3077 033e 705F666C 		.ascii	"p_flags\000"
 3077      61677300 
 3078              	.LASF22:
 3079 0346 54687265 		.ascii	"Thread\000"
 3079      616400
 3080              	.LASF76:
 3081 034d 63685363 		.ascii	"chSchGoSleepS\000"
 3081      68476F53 
 3081      6C656570 
 3081      5300
 3082              	.LASF38:
 3083 035b 705F6570 		.ascii	"p_epending\000"
 3083      656E6469 
 3083      6E6700
 3084              	.LASF8:
 3085 0366 75696E74 		.ascii	"uint32_t\000"
 3085      33325F74 
 3085      00
 3086              	.LASF48:
 3087 036f 725F7175 		.ascii	"r_queue\000"
 3087      65756500 
 3088              	.LASF75:
 3089 0377 63685363 		.ascii	"chSchReadyI\000"
 3089      68526561 
 3089      64794900 
 3090              	.LASF63:
 3091 0383 63686172 		.ascii	"char\000"
 3091      00
 3092              	.LASF65:
 3093 0388 6669666F 		.ascii	"fifo_remove\000"
 3093      5F72656D 
 3093      6F766500 
 3094              	.LASF79:
 3095 0394 2E2E2F2E 		.ascii	"../../os/kernel/src/chmtx.c\000"
 3095      2E2F6F73 
 3095      2F6B6572 
 3095      6E656C2F 
 3095      7372632F 
ARM GAS  /var/folders/qh/xwg3v3kj02qbxczjpdb8lzfr0000gn/T//ccY8qlwd.s 			page 58


 3096              	.LASF58:
 3097 03b0 6D5F6E65 		.ascii	"m_next\000"
 3097      787400
 3098              	.LASF21:
 3099 03b7 73797374 		.ascii	"systime_t\000"
 3099      696D655F 
 3099      7400
 3100              	.LASF40:
 3101 03c1 705F7265 		.ascii	"p_realprio\000"
 3101      616C7072 
 3101      696F00
 3102              	.LASF34:
 3103 03cc 705F7469 		.ascii	"p_time\000"
 3103      6D6500
 3104              	.LASF45:
 3105 03d3 696E7463 		.ascii	"intctx\000"
 3105      747800
 3106              	.LASF36:
 3107 03da 705F6D73 		.ascii	"p_msgqueue\000"
 3107      67717565 
 3107      756500
 3108              	.LASF77:
 3109 03e5 63685363 		.ascii	"chSchWakeupS\000"
 3109      6857616B 
 3109      65757053 
 3109      00
 3110              	.LASF66:
 3111 03f2 63684D74 		.ascii	"chMtxInit\000"
 3111      78496E69 
 3111      7400
 3112              	.LASF32:
 3113 03fc 705F7265 		.ascii	"p_refs\000"
 3113      667300
 3114              	.LASF54:
 3115 0403 52656164 		.ascii	"ReadyList\000"
 3115      794C6973 
 3115      7400
 3116              	.LASF82:
 3117 040d 726C6973 		.ascii	"rlist\000"
 3117      7400
 3118              	.LASF5:
 3119 0413 75696E74 		.ascii	"uint8_t\000"
 3119      385F7400 
 3120              	.LASF61:
 3121 041b 77746F62 		.ascii	"wtobjp\000"
 3121      6A7000
 3122              	.LASF29:
 3123 0422 705F6E61 		.ascii	"p_name\000"
 3123      6D6500
 3124              	.LASF57:
 3125 0429 6D5F6F77 		.ascii	"m_owner\000"
 3125      6E657200 
 3126              	.LASF26:
 3127 0431 705F6374 		.ascii	"p_ctx\000"
 3127      7800
 3128              	.LASF35:
 3129 0437 705F7761 		.ascii	"p_waiting\000"
ARM GAS  /var/folders/qh/xwg3v3kj02qbxczjpdb8lzfr0000gn/T//ccY8qlwd.s 			page 59


 3129      6974696E 
 3129      6700
 3130              		.ident	"GCC: (GNU Tools for ARM Embedded Processors) 4.8.3 20131129 (release) [ARM/embedded-4_8-br
ARM GAS  /var/folders/qh/xwg3v3kj02qbxczjpdb8lzfr0000gn/T//ccY8qlwd.s 			page 60


DEFINED SYMBOLS
                            *ABS*:0000000000000000 chmtx.c
/var/folders/qh/xwg3v3kj02qbxczjpdb8lzfr0000gn/T//ccY8qlwd.s:18     .text.chMtxInit:0000000000000000 $t
/var/folders/qh/xwg3v3kj02qbxczjpdb8lzfr0000gn/T//ccY8qlwd.s:24     .text.chMtxInit:0000000000000000 chMtxInit
/var/folders/qh/xwg3v3kj02qbxczjpdb8lzfr0000gn/T//ccY8qlwd.s:44     .text.chMtxLockS:0000000000000000 $t
/var/folders/qh/xwg3v3kj02qbxczjpdb8lzfr0000gn/T//ccY8qlwd.s:50     .text.chMtxLockS:0000000000000000 chMtxLockS
/var/folders/qh/xwg3v3kj02qbxczjpdb8lzfr0000gn/T//ccY8qlwd.s:281    .text.chMtxLockS:00000000000000c0 $d
/var/folders/qh/xwg3v3kj02qbxczjpdb8lzfr0000gn/T//ccY8qlwd.s:286    .text.chMtxLock:0000000000000000 $t
/var/folders/qh/xwg3v3kj02qbxczjpdb8lzfr0000gn/T//ccY8qlwd.s:292    .text.chMtxLock:0000000000000000 chMtxLock
/var/folders/qh/xwg3v3kj02qbxczjpdb8lzfr0000gn/T//ccY8qlwd.s:321    .text.chMtxTryLock:0000000000000000 $t
/var/folders/qh/xwg3v3kj02qbxczjpdb8lzfr0000gn/T//ccY8qlwd.s:327    .text.chMtxTryLock:0000000000000000 chMtxTryLock
/var/folders/qh/xwg3v3kj02qbxczjpdb8lzfr0000gn/T//ccY8qlwd.s:382    .text.chMtxTryLock:0000000000000020 $d
/var/folders/qh/xwg3v3kj02qbxczjpdb8lzfr0000gn/T//ccY8qlwd.s:389    .text.chMtxTryLockS:0000000000000000 $t
/var/folders/qh/xwg3v3kj02qbxczjpdb8lzfr0000gn/T//ccY8qlwd.s:395    .text.chMtxTryLockS:0000000000000000 chMtxTryLockS
/var/folders/qh/xwg3v3kj02qbxczjpdb8lzfr0000gn/T//ccY8qlwd.s:434    .text.chMtxTryLockS:000000000000001c $d
/var/folders/qh/xwg3v3kj02qbxczjpdb8lzfr0000gn/T//ccY8qlwd.s:439    .text.chMtxUnlock:0000000000000000 $t
/var/folders/qh/xwg3v3kj02qbxczjpdb8lzfr0000gn/T//ccY8qlwd.s:445    .text.chMtxUnlock:0000000000000000 chMtxUnlock
/var/folders/qh/xwg3v3kj02qbxczjpdb8lzfr0000gn/T//ccY8qlwd.s:555    .text.chMtxUnlock:0000000000000050 $d
/var/folders/qh/xwg3v3kj02qbxczjpdb8lzfr0000gn/T//ccY8qlwd.s:560    .text.chMtxUnlockS:0000000000000000 $t
/var/folders/qh/xwg3v3kj02qbxczjpdb8lzfr0000gn/T//ccY8qlwd.s:566    .text.chMtxUnlockS:0000000000000000 chMtxUnlockS
/var/folders/qh/xwg3v3kj02qbxczjpdb8lzfr0000gn/T//ccY8qlwd.s:663    .text.chMtxUnlockS:000000000000004c $d
/var/folders/qh/xwg3v3kj02qbxczjpdb8lzfr0000gn/T//ccY8qlwd.s:668    .text.chMtxUnlockAll:0000000000000000 $t
/var/folders/qh/xwg3v3kj02qbxczjpdb8lzfr0000gn/T//ccY8qlwd.s:674    .text.chMtxUnlockAll:0000000000000000 chMtxUnlockAll
/var/folders/qh/xwg3v3kj02qbxczjpdb8lzfr0000gn/T//ccY8qlwd.s:769    .text.chMtxUnlockAll:0000000000000048 $d
                     .debug_frame:0000000000000010 $d
/var/folders/qh/xwg3v3kj02qbxczjpdb8lzfr0000gn/T//ccY8qlwd.s:285    .text.chMtxLockS:00000000000000c4 $t
/var/folders/qh/xwg3v3kj02qbxczjpdb8lzfr0000gn/T//ccY8qlwd.s:388    .text.chMtxTryLock:0000000000000024 $t
/var/folders/qh/xwg3v3kj02qbxczjpdb8lzfr0000gn/T//ccY8qlwd.s:559    .text.chMtxUnlock:0000000000000054 $t
/var/folders/qh/xwg3v3kj02qbxczjpdb8lzfr0000gn/T//ccY8qlwd.s:773    .text.chMtxUnlockAll:000000000000004c $t

UNDEFINED SYMBOLS
chSchGoSleepS
chSchReadyI
rlist
chSchWakeupS
chSchRescheduleS
