ARM GAS  /var/folders/qh/xwg3v3kj02qbxczjpdb8lzfr0000gn/T//cccPA4jh.s 			page 1


   1              		.cpu cortex-m0
   2              		.fpu softvfp
   3              		.eabi_attribute 20, 1
   4              		.eabi_attribute 21, 1
   5              		.eabi_attribute 23, 3
   6              		.eabi_attribute 24, 1
   7              		.eabi_attribute 25, 1
   8              		.eabi_attribute 26, 1
   9              		.eabi_attribute 30, 2
  10              		.eabi_attribute 34, 0
  11              		.eabi_attribute 18, 4
  12              		.code	16
  13              		.file	"chprintf.c"
  14              		.text
  15              	.Ltext0:
  16              		.cfi_sections	.debug_frame
  17              		.global	__aeabi_uidivmod
  18              		.global	__aeabi_uidiv
  19              		.section	.text.long_to_string_with_divisor.constprop.0,"ax",%progbits
  20              		.align	2
  21              		.p2align 4,,15
  22              		.code	16
  23              		.thumb_func
  24              		.type	long_to_string_with_divisor.constprop.0, %function
  25              	long_to_string_with_divisor.constprop.0:
  26              	.LFB12:
  27              		.file 1 "../../os/various/chprintf.c"
  28              		.loc 1 37 0
  29              		.cfi_startproc
  30              	.LVL0:
  31 0000 F0B5     		push	{r4, r5, r6, r7, lr}
  32              		.cfi_def_cfa_offset 20
  33              		.cfi_offset 4, -20
  34              		.cfi_offset 5, -16
  35              		.cfi_offset 6, -12
  36              		.cfi_offset 7, -8
  37              		.cfi_offset 14, -4
  38 0002 4546     		mov	r5, r8
  39 0004 9046     		mov	r8, r2
  40              		.loc 1 52 0
  41 0006 0B22     		mov	r2, #11
  42              	.LVL1:
  43              		.loc 1 37 0
  44 0008 5746     		mov	r7, r10
  45 000a 4E46     		mov	r6, r9
  46 000c 8246     		mov	r10, r0
  47              		.loc 1 52 0
  48 000e 9146     		mov	r9, r2
  49 0010 D144     		add	r9, r9, r10
  50              	.LVL2:
  51              		.loc 1 37 0
  52 0012 E0B4     		push	{r5, r6, r7}
  53              		.cfi_def_cfa_offset 32
  54              		.cfi_offset 8, -32
  55              		.cfi_offset 9, -28
  56              		.cfi_offset 10, -24
  57              		.loc 1 37 0
ARM GAS  /var/folders/qh/xwg3v3kj02qbxczjpdb8lzfr0000gn/T//cccPA4jh.s 			page 2


  58 0014 0E1C     		mov	r6, r1
  59              		.loc 1 52 0
  60 0016 0F1C     		mov	r7, r1
  61 0018 4D46     		mov	r5, r9
  62              	.LVL3:
  63              	.L4:
  64              		.loc 1 54 0
  65 001a 301C     		mov	r0, r6
  66 001c 4146     		mov	r1, r8
  67 001e FFF7FEFF 		bl	__aeabi_uidivmod
  68              	.LVL4:
  69              		.loc 1 55 0
  70 0022 0C1C     		mov	r4, r1
  71 0024 3034     		add	r4, r4, #48
  72              	.LVL5:
  73              		.loc 1 56 0
  74 0026 392C     		cmp	r4, #57
  75 0028 00DD     		ble	.L2
  76              		.loc 1 57 0
  77 002a 0734     		add	r4, r4, #7
  78              	.LVL6:
  79              	.L2:
  80              		.loc 1 58 0
  81 002c 013D     		sub	r5, r5, #1
  82              	.LVL7:
  83 002e E4B2     		uxtb	r4, r4
  84              	.LVL8:
  85              		.loc 1 59 0
  86 0030 301C     		mov	r0, r6
  87 0032 4146     		mov	r1, r8
  88              		.loc 1 58 0
  89 0034 2C70     		strb	r4, [r5]
  90              		.loc 1 59 0
  91 0036 FFF7FEFF 		bl	__aeabi_uidiv
  92              	.LVL9:
  93              		.loc 1 60 0
  94 003a 4146     		mov	r1, r8
  95              		.loc 1 59 0
  96 003c 061C     		mov	r6, r0
  97              	.LVL10:
  98              		.loc 1 60 0
  99 003e 381C     		mov	r0, r7
 100              	.LVL11:
 101 0040 FFF7FEFF 		bl	__aeabi_uidiv
 102              	.LVL12:
 103 0044 071E     		sub	r7, r0, #0
 104              	.LVL13:
 105 0046 E8D1     		bne	.L4
 106              	.LVL14:
 107              		.loc 1 62 0
 108 0048 4A46     		mov	r2, r9
 109 004a 5046     		mov	r0, r10
 110              	.LVL15:
 111 004c 531B     		sub	r3, r2, r5
 112 004e C318     		add	r3, r0, r3
 113 0050 01E0     		b	.L6
 114              	.LVL16:
ARM GAS  /var/folders/qh/xwg3v3kj02qbxczjpdb8lzfr0000gn/T//cccPA4jh.s 			page 3


 115              	.L8:
 116 0052 6C78     		ldrb	r4, [r5, #1]
 117 0054 0135     		add	r5, r5, #1
 118              	.L6:
 119              	.LVL17:
 120              		.loc 1 64 0
 121 0056 0470     		strb	r4, [r0]
 122 0058 0130     		add	r0, r0, #1
 123              	.LVL18:
 124              		.loc 1 65 0
 125 005a 9842     		cmp	r0, r3
 126 005c F9D1     		bne	.L8
 127              		.loc 1 68 0
 128              		@ sp needed
 129              	.LVL19:
 130              	.LVL20:
 131              	.LVL21:
 132 005e 1CBC     		pop	{r2, r3, r4}
 133 0060 9046     		mov	r8, r2
 134 0062 9946     		mov	r9, r3
 135 0064 A246     		mov	r10, r4
 136 0066 F0BD     		pop	{r4, r5, r6, r7, pc}
 137              		.cfi_endproc
 138              	.LFE12:
 139              		.size	long_to_string_with_divisor.constprop.0, .-long_to_string_with_divisor.constprop.0
 140 0068 C046C046 		.section	.text.chvprintf,"ax",%progbits
 140      C046C046 
 141              		.align	2
 142              		.p2align 4,,15
 143              		.global	chvprintf
 144              		.code	16
 145              		.thumb_func
 146              		.type	chvprintf, %function
 147              	chvprintf:
 148              	.LFB10:
 149              		.loc 1 112 0
 150              		.cfi_startproc
 151              	.LVL22:
 152 0000 F0B5     		push	{r4, r5, r6, r7, lr}
 153              		.cfi_def_cfa_offset 20
 154              		.cfi_offset 4, -20
 155              		.cfi_offset 5, -16
 156              		.cfi_offset 6, -12
 157              		.cfi_offset 7, -8
 158              		.cfi_offset 14, -4
 159 0002 5F46     		mov	r7, fp
 160 0004 5646     		mov	r6, r10
 161 0006 4446     		mov	r4, r8
 162 0008 4D46     		mov	r5, r9
 163 000a F0B4     		push	{r4, r5, r6, r7}
 164              		.cfi_def_cfa_offset 36
 165              		.cfi_offset 8, -36
 166              		.cfi_offset 9, -32
 167              		.cfi_offset 10, -28
 168              		.cfi_offset 11, -24
 169 000c 89B0     		sub	sp, sp, #36
 170              		.cfi_def_cfa_offset 72
ARM GAS  /var/folders/qh/xwg3v3kj02qbxczjpdb8lzfr0000gn/T//cccPA4jh.s 			page 4


 171              		.loc 1 112 0
 172 000e 0C1C     		mov	r4, r1
 173 0010 6946     		mov	r1, sp
 174              	.LVL23:
 175 0012 1531     		add	r1, r1, #21
 176 0014 071C     		mov	r7, r0
 177              		.loc 1 236 0
 178 0016 05A8     		add	r0, sp, #20
 179              	.LVL24:
 180 0018 8346     		mov	fp, r0
 181 001a 081A     		sub	r0, r1, r0
 182              		.loc 1 112 0
 183 001c 161C     		mov	r6, r2
 184              	.LVL25:
 185 001e 0191     		str	r1, [sp, #4]
 186 0020 0390     		str	r0, [sp, #12]
 187              	.LVL26:
 188              	.L10:
 189              		.loc 1 125 0
 190 0022 2178     		ldrb	r1, [r4]
 191 0024 651C     		add	r5, r4, #1
 192              	.LVL27:
 193              		.loc 1 126 0
 194 0026 0029     		cmp	r1, #0
 195 0028 0AD0     		beq	.L9
 196              	.LVL28:
 197              	.L75:
 198              		.loc 1 128 0
 199 002a 2529     		cmp	r1, #37
 200 002c 0FD0     		beq	.L12
 201              		.loc 1 129 0
 202 002e 3B68     		ldr	r3, [r7]
 203              		.loc 1 125 0
 204 0030 2C1C     		mov	r4, r5
 205              		.loc 1 129 0
 206 0032 9B68     		ldr	r3, [r3, #8]
 207 0034 381C     		mov	r0, r7
 208 0036 9847     		blx	r3
 209              	.LVL29:
 210              		.loc 1 125 0
 211 0038 2178     		ldrb	r1, [r4]
 212 003a 651C     		add	r5, r4, #1
 213              	.LVL30:
 214              		.loc 1 126 0
 215 003c 0029     		cmp	r1, #0
 216 003e F4D1     		bne	.L75
 217              	.LVL31:
 218              	.L9:
 219              		.loc 1 261 0
 220 0040 09B0     		add	sp, sp, #36
 221              		@ sp needed
 222              	.LVL32:
 223              	.LVL33:
 224              	.LVL34:
 225 0042 3CBC     		pop	{r2, r3, r4, r5}
 226 0044 9046     		mov	r8, r2
 227 0046 9946     		mov	r9, r3
ARM GAS  /var/folders/qh/xwg3v3kj02qbxczjpdb8lzfr0000gn/T//cccPA4jh.s 			page 5


 228 0048 A246     		mov	r10, r4
 229 004a AB46     		mov	fp, r5
 230 004c F0BD     		pop	{r4, r5, r6, r7, pc}
 231              	.LVL35:
 232              	.L12:
 233              		.loc 1 135 0
 234 004e 6278     		ldrb	r2, [r4, #1]
 235              	.LVL36:
 236 0050 2D2A     		cmp	r2, #45
 237 0052 00D1     		bne	.LCB240
 238 0054 D5E0     		b	.L76	@long jump
 239              	.LCB240:
 240              		.loc 1 134 0
 241 0056 0020     		mov	r0, #0
 242 0058 0290     		str	r0, [sp, #8]
 243              	.LVL37:
 244              	.L14:
 245              		.loc 1 140 0
 246 005a 2E2A     		cmp	r2, #46
 247 005c 00D1     		bne	.LCB251
 248 005e B7E0     		b	.L15	@long jump
 249              	.LCB251:
 250              		.loc 1 139 0 discriminator 1
 251 0060 2021     		mov	r1, #32
 252 0062 8846     		mov	r8, r1
 253              		.loc 1 140 0 discriminator 1
 254 0064 302A     		cmp	r2, #48
 255 0066 00D1     		bne	.LCB256
 256 0068 B2E0     		b	.L15	@long jump
 257              	.LCB256:
 258              	.LVL38:
 259              	.L16:
 260              		.loc 1 142 0
 261 006a 2C1C     		mov	r4, r5
 262              		.loc 1 144 0
 263 006c 0025     		mov	r5, #0
 264              	.LVL39:
 265 006e 06E0     		b	.L19
 266              	.LVL40:
 267              	.L77:
 268              		.loc 1 150 0
 269 0070 3378     		ldrb	r3, [r6]
 270              	.LVL41:
 271 0072 0436     		add	r6, r6, #4
 272              	.LVL42:
 273              	.L17:
 274              		.loc 1 153 0
 275 0074 AA00     		lsl	r2, r5, #2
 276 0076 5519     		add	r5, r2, r5
 277              	.LVL43:
 278 0078 6D00     		lsl	r5, r5, #1
 279 007a 2278     		ldrb	r2, [r4]
 280 007c ED18     		add	r5, r5, r3
 281              	.LVL44:
 282              	.L19:
 283              		.loc 1 147 0
 284 007e 131C     		mov	r3, r2
ARM GAS  /var/folders/qh/xwg3v3kj02qbxczjpdb8lzfr0000gn/T//cccPA4jh.s 			page 6


 285 0080 303B     		sub	r3, r3, #48
 286 0082 DBB2     		uxtb	r3, r3
 287              		.loc 1 146 0
 288 0084 0134     		add	r4, r4, #1
 289              	.LVL45:
 290              		.loc 1 147 0
 291 0086 092B     		cmp	r3, #9
 292 0088 F4D9     		bls	.L17
 293              		.loc 1 149 0
 294 008a 2A2A     		cmp	r2, #42
 295 008c F0D0     		beq	.L77
 296              	.LVL46:
 297              		.loc 1 155 0
 298 008e 0020     		mov	r0, #0
 299 0090 0090     		str	r0, [sp]
 300              		.loc 1 156 0
 301 0092 2E2A     		cmp	r2, #46
 302 0094 00D1     		bne	.LCB320
 303 0096 A0E0     		b	.L78	@long jump
 304              	.LCB320:
 305              	.LVL47:
 306              	.L20:
 307              		.loc 1 170 0
 308 0098 DF23     		mov	r3, #223
 309 009a 1340     		and	r3, r2
 310 009c 4C2B     		cmp	r3, #76
 311 009e 00D1     		bne	.LCB334
 312 00a0 8FE0     		b	.L79	@long jump
 313              	.LCB334:
 314              	.LVL48:
 315              	.L24:
 316              		.loc 1 179 0
 317 00a2 131C     		mov	r3, r2
 318 00a4 443B     		sub	r3, r3, #68
 319 00a6 DBB2     		uxtb	r3, r3
 320 00a8 342B     		cmp	r3, #52
 321 00aa 00D9     		bls	.LCB345
 322 00ac 83E0     		b	.L25	@long jump
 323              	.LCB345:
 324 00ae 6A48     		ldr	r0, .L86
 325 00b0 9B00     		lsl	r3, r3, #2
 326 00b2 C358     		ldr	r3, [r0, r3]
 327 00b4 9F46     		mov	pc, r3
 328              		.section	.rodata.chvprintf,"a",%progbits
 329              		.align	2
 330              	.L27:
 331 0000 14010000 		.word	.L26
 332 0004 B6010000 		.word	.L25
 333 0008 B6010000 		.word	.L25
 334 000c B6010000 		.word	.L25
 335 0010 B6010000 		.word	.L25
 336 0014 14010000 		.word	.L26
 337 0018 B6010000 		.word	.L25
 338 001c B6010000 		.word	.L25
 339 0020 B6010000 		.word	.L25
 340 0024 B6010000 		.word	.L25
 341 0028 B6010000 		.word	.L25
ARM GAS  /var/folders/qh/xwg3v3kj02qbxczjpdb8lzfr0000gn/T//cccPA4jh.s 			page 7


 342 002c 10010000 		.word	.L28
 343 0030 B6010000 		.word	.L25
 344 0034 B6010000 		.word	.L25
 345 0038 B6010000 		.word	.L25
 346 003c B6010000 		.word	.L25
 347 0040 B6010000 		.word	.L25
 348 0044 B6000000 		.word	.L55
 349 0048 B6010000 		.word	.L25
 350 004c B6010000 		.word	.L25
 351 0050 B2010000 		.word	.L30
 352 0054 B6010000 		.word	.L25
 353 0058 B6010000 		.word	.L25
 354 005c B6010000 		.word	.L25
 355 0060 B6010000 		.word	.L25
 356 0064 B6010000 		.word	.L25
 357 0068 B6010000 		.word	.L25
 358 006c B6010000 		.word	.L25
 359 0070 B6010000 		.word	.L25
 360 0074 B6010000 		.word	.L25
 361 0078 B6010000 		.word	.L25
 362 007c 9E010000 		.word	.L31
 363 0080 14010000 		.word	.L26
 364 0084 B6010000 		.word	.L25
 365 0088 B6010000 		.word	.L25
 366 008c B6010000 		.word	.L25
 367 0090 B6010000 		.word	.L25
 368 0094 14010000 		.word	.L26
 369 0098 B6010000 		.word	.L25
 370 009c B6010000 		.word	.L25
 371 00a0 B6010000 		.word	.L25
 372 00a4 B6010000 		.word	.L25
 373 00a8 B6010000 		.word	.L25
 374 00ac 10010000 		.word	.L28
 375 00b0 B6010000 		.word	.L25
 376 00b4 B6010000 		.word	.L25
 377 00b8 B6010000 		.word	.L25
 378 00bc 24010000 		.word	.L32
 379 00c0 B6010000 		.word	.L25
 380 00c4 B6000000 		.word	.L55
 381 00c8 B6010000 		.word	.L25
 382 00cc B6010000 		.word	.L25
 383 00d0 B2010000 		.word	.L30
 384              		.section	.text.chvprintf
 385              	.L55:
 386 00b6 0A22     		mov	r2, #10
 387              	.LVL49:
 388              	.L29:
 389              		.loc 1 230 0
 390 00b8 3168     		ldr	r1, [r6]
 391              	.LVL50:
 392              	.LBB6:
 393              	.LBB7:
 394              		.loc 1 72 0
 395 00ba 5846     		mov	r0, fp
 396              	.LBE7:
 397              	.LBE6:
 398              		.loc 1 230 0
ARM GAS  /var/folders/qh/xwg3v3kj02qbxczjpdb8lzfr0000gn/T//cccPA4jh.s 			page 8


 399 00bc 0436     		add	r6, r6, #4
 400              	.LVL51:
 401              	.L74:
 402              	.LBB9:
 403              	.LBB8:
 404              		.loc 1 72 0
 405 00be FFF7FEFF 		bl	long_to_string_with_divisor.constprop.0
 406              	.LVL52:
 407 00c2 5946     		mov	r1, fp
 408 00c4 411A     		sub	r1, r0, r1
 409 00c6 8946     		mov	r9, r1
 410              	.LBE8:
 411              	.LBE9:
 412              		.loc 1 133 0
 413 00c8 DA46     		mov	r10, fp
 414              	.LVL53:
 415              	.L33:
 416              		.loc 1 240 0
 417 00ca 4B46     		mov	r3, r9
 418 00cc ED1A     		sub	r5, r5, r3
 419              	.LVL54:
 420 00ce EB43     		mvn	r3, r5
 421              		.loc 1 242 0
 422 00d0 0298     		ldr	r0, [sp, #8]
 423 00d2 DB17     		asr	r3, r3, #31
 424 00d4 1D40     		and	r5, r3
 425              	.LVL55:
 426 00d6 0028     		cmp	r0, #0
 427 00d8 4BD1     		bne	.L45
 428              	.LVL56:
 429              	.L84:
 430              		.loc 1 243 0
 431 00da 6D42     		neg	r5, r5
 432              	.LVL57:
 433              		.loc 1 244 0
 434 00dc 002D     		cmp	r5, #0
 435 00de 10D0     		beq	.L46
 436              		.loc 1 245 0
 437 00e0 5146     		mov	r1, r10
 438 00e2 0B78     		ldrb	r3, [r1]
 439 00e4 2D2B     		cmp	r3, #45
 440 00e6 00D1     		bne	.LCB433
 441 00e8 93E0     		b	.L80	@long jump
 442              	.LCB433:
 443              	.L72:
 444 00ea 231C     		mov	r3, r4
 445 00ec 4446     		mov	r4, r8
 446              	.LVL58:
 447 00ee 9846     		mov	r8, r3
 448              	.LVL59:
 449              	.L49:
 450              		.loc 1 250 0 discriminator 1
 451 00f0 3B68     		ldr	r3, [r7]
 452 00f2 381C     		mov	r0, r7
 453 00f4 9B68     		ldr	r3, [r3, #8]
 454 00f6 211C     		mov	r1, r4
 455              		.loc 1 251 0 discriminator 1
ARM GAS  /var/folders/qh/xwg3v3kj02qbxczjpdb8lzfr0000gn/T//cccPA4jh.s 			page 9


 456 00f8 0135     		add	r5, r5, #1
 457              	.LVL60:
 458              		.loc 1 250 0 discriminator 1
 459 00fa 9847     		blx	r3
 460              	.LVL61:
 461              		.loc 1 251 0 discriminator 1
 462 00fc 002D     		cmp	r5, #0
 463 00fe F7D1     		bne	.L49
 464 0100 4446     		mov	r4, r8
 465              	.LVL62:
 466              	.L46:
 467              		.loc 1 253 0
 468 0102 3B68     		ldr	r3, [r7]
 469 0104 381C     		mov	r0, r7
 470 0106 1B68     		ldr	r3, [r3]
 471 0108 5146     		mov	r1, r10
 472 010a 4A46     		mov	r2, r9
 473 010c 9847     		blx	r3
 474              	.LVL63:
 475 010e 88E7     		b	.L10
 476              	.LVL64:
 477              	.L28:
 478 0110 0822     		mov	r2, #8
 479 0112 D1E7     		b	.L29
 480              	.LVL65:
 481              	.L26:
 482              		.loc 1 198 0
 483 0114 3168     		ldr	r1, [r6]
 484              	.LVL66:
 485              		.loc 1 132 0
 486 0116 5846     		mov	r0, fp
 487              		.loc 1 198 0
 488 0118 0436     		add	r6, r6, #4
 489              	.LVL67:
 490              		.loc 1 201 0
 491 011a 0029     		cmp	r1, #0
 492 011c 00DA     		bge	.LCB507
 493 011e 8AE0     		b	.L81	@long jump
 494              	.LCB507:
 495              	.LVL68:
 496              	.LBB10:
 497              	.LBB11:
 498              		.loc 1 72 0
 499 0120 0A22     		mov	r2, #10
 500              	.LVL69:
 501 0122 CCE7     		b	.L74
 502              	.LVL70:
 503              	.L32:
 504              	.LBE11:
 505              	.LBE10:
 506              		.loc 1 186 0
 507 0124 3268     		ldr	r2, [r6]
 508              	.LVL71:
 509 0126 301D     		add	r0, r6, #4
 510              	.LVL72:
 511 0128 9246     		mov	r10, r2
 512              	.LVL73:
ARM GAS  /var/folders/qh/xwg3v3kj02qbxczjpdb8lzfr0000gn/T//cccPA4jh.s 			page 10


 513 012a 002A     		cmp	r2, #0
 514 012c 00D1     		bne	.LCB541
 515 012e 89E0     		b	.L82	@long jump
 516              	.LCB541:
 517              	.LVL74:
 518              	.L34:
 519              		.loc 1 188 0
 520 0130 009A     		ldr	r2, [sp]
 521 0132 002A     		cmp	r2, #0
 522 0134 6AD0     		beq	.L83
 523              	.L35:
 524              	.LVL75:
 525              		.loc 1 190 0 discriminator 1
 526 0136 5146     		mov	r1, r10
 527 0138 0B78     		ldrb	r3, [r1]
 528 013a 002B     		cmp	r3, #0
 529 013c 00D1     		bne	.LCB554
 530 013e 84E0     		b	.L58	@long jump
 531              	.LCB554:
 532 0140 009A     		ldr	r2, [sp]
 533              		.loc 1 190 0 is_stmt 0
 534 0142 5346     		mov	r3, r10
 535 0144 111C     		mov	r1, r2
 536 0146 5144     		add	r1, r1, r10
 537 0148 01E0     		b	.L38
 538              	.LVL76:
 539              	.L36:
 540              		.loc 1 190 0 discriminator 2
 541 014a 8B42     		cmp	r3, r1
 542 014c 03D0     		beq	.L73
 543              	.LVL77:
 544              	.L38:
 545              		.loc 1 190 0 discriminator 1
 546 014e 0133     		add	r3, r3, #1
 547              	.LVL78:
 548 0150 1A78     		ldrb	r2, [r3]
 549 0152 002A     		cmp	r2, #0
 550 0154 F9D1     		bne	.L36
 551              	.L73:
 552 0156 5146     		mov	r1, r10
 553 0158 591A     		sub	r1, r3, r1
 554 015a 8946     		mov	r9, r1
 555              		.loc 1 240 0 is_stmt 1
 556 015c 4B46     		mov	r3, r9
 557              	.LVL79:
 558 015e ED1A     		sub	r5, r5, r3
 559              	.LVL80:
 560 0160 EB43     		mvn	r3, r5
 561              		.loc 1 186 0
 562 0162 061C     		mov	r6, r0
 563              		.loc 1 242 0
 564 0164 0298     		ldr	r0, [sp, #8]
 565              	.LVL81:
 566              		.loc 1 185 0
 567 0166 2022     		mov	r2, #32
 568 0168 DB17     		asr	r3, r3, #31
 569 016a 9046     		mov	r8, r2
ARM GAS  /var/folders/qh/xwg3v3kj02qbxczjpdb8lzfr0000gn/T//cccPA4jh.s 			page 11


 570              	.LVL82:
 571 016c 1D40     		and	r5, r3
 572              	.LVL83:
 573              		.loc 1 242 0
 574 016e 0028     		cmp	r0, #0
 575 0170 B3D0     		beq	.L84
 576              	.LVL84:
 577              	.L45:
 578              		.loc 1 253 0
 579 0172 3B68     		ldr	r3, [r7]
 580 0174 381C     		mov	r0, r7
 581 0176 1B68     		ldr	r3, [r3]
 582 0178 5146     		mov	r1, r10
 583 017a 4A46     		mov	r2, r9
 584 017c 9847     		blx	r3
 585              	.LVL85:
 586              		.loc 1 256 0
 587 017e 002D     		cmp	r5, #0
 588 0180 00D1     		bne	.LCB626
 589 0182 4EE7     		b	.L10	@long jump
 590              	.LCB626:
 591 0184 231C     		mov	r3, r4
 592 0186 4446     		mov	r4, r8
 593              	.LVL86:
 594 0188 9846     		mov	r8, r3
 595              	.LVL87:
 596              	.L50:
 597              		.loc 1 257 0
 598 018a 3B68     		ldr	r3, [r7]
 599 018c 381C     		mov	r0, r7
 600 018e 9B68     		ldr	r3, [r3, #8]
 601 0190 211C     		mov	r1, r4
 602              		.loc 1 258 0
 603 0192 013D     		sub	r5, r5, #1
 604              	.LVL88:
 605              		.loc 1 257 0
 606 0194 9847     		blx	r3
 607              	.LVL89:
 608              		.loc 1 256 0
 609 0196 002D     		cmp	r5, #0
 610 0198 F7D1     		bne	.L50
 611 019a 4446     		mov	r4, r8
 612 019c 41E7     		b	.L10
 613              	.LVL90:
 614              	.L31:
 615              		.loc 1 182 0
 616 019e 3368     		ldr	r3, [r6]
 617 01a0 0398     		ldr	r0, [sp, #12]
 618 01a2 5A46     		mov	r2, fp
 619              	.LVL91:
 620              		.loc 1 181 0
 621 01a4 2021     		mov	r1, #32
 622              		.loc 1 182 0
 623 01a6 1370     		strb	r3, [r2]
 624 01a8 8146     		mov	r9, r0
 625 01aa 0436     		add	r6, r6, #4
 626              	.LVL92:
ARM GAS  /var/folders/qh/xwg3v3kj02qbxczjpdb8lzfr0000gn/T//cccPA4jh.s 			page 12


 627              		.loc 1 181 0
 628 01ac 8846     		mov	r8, r1
 629              		.loc 1 133 0
 630 01ae DA46     		mov	r10, fp
 631              		.loc 1 183 0
 632 01b0 8BE7     		b	.L33
 633              	.LVL93:
 634              	.L30:
 635              		.loc 1 179 0
 636 01b2 1022     		mov	r2, #16
 637              	.LVL94:
 638 01b4 80E7     		b	.L29
 639              	.LVL95:
 640              	.L25:
 641 01b6 0398     		ldr	r0, [sp, #12]
 642              		.loc 1 236 0
 643 01b8 5B46     		mov	r3, fp
 644 01ba 1A70     		strb	r2, [r3]
 645 01bc 8146     		mov	r9, r0
 646              		.loc 1 133 0
 647 01be DA46     		mov	r10, fp
 648              		.loc 1 237 0
 649 01c0 83E7     		b	.L33
 650              	.LVL96:
 651              	.L79:
 652              		.loc 1 172 0
 653 01c2 2378     		ldrb	r3, [r4]
 654 01c4 002B     		cmp	r3, #0
 655 01c6 00D1     		bne	.LCB712
 656 01c8 6BE7     		b	.L24	@long jump
 657              	.LCB712:
 658              		.loc 1 173 0
 659 01ca 0134     		add	r4, r4, #1
 660              	.LVL97:
 661 01cc 1A1C     		mov	r2, r3
 662 01ce 68E7     		b	.L24
 663              	.LVL98:
 664              	.L15:
 665              		.loc 1 142 0
 666 01d0 3023     		mov	r3, #48
 667 01d2 6A78     		ldrb	r2, [r5, #1]
 668 01d4 9846     		mov	r8, r3
 669              		.loc 1 141 0
 670 01d6 0135     		add	r5, r5, #1
 671              	.LVL99:
 672 01d8 47E7     		b	.L16
 673              	.LVL100:
 674              	.L78:
 675 01da 0021     		mov	r1, #0
 676 01dc 05E0     		b	.L22
 677              	.LVL101:
 678              	.L85:
 679              		.loc 1 162 0
 680 01de 3378     		ldrb	r3, [r6]
 681              	.LVL102:
 682 01e0 0436     		add	r6, r6, #4
 683              	.LVL103:
ARM GAS  /var/folders/qh/xwg3v3kj02qbxczjpdb8lzfr0000gn/T//cccPA4jh.s 			page 13


 684              	.L21:
 685              		.loc 1 165 0
 686 01e2 8A00     		lsl	r2, r1, #2
 687 01e4 5118     		add	r1, r2, r1
 688 01e6 4900     		lsl	r1, r1, #1
 689              	.LVL104:
 690              		.loc 1 166 0
 691 01e8 5918     		add	r1, r3, r1
 692              	.LVL105:
 693              	.L22:
 694              		.loc 1 158 0
 695 01ea 0134     		add	r4, r4, #1
 696              	.LVL106:
 697 01ec 631E     		sub	r3, r4, #1
 698 01ee 1A78     		ldrb	r2, [r3]
 699              	.LVL107:
 700              		.loc 1 159 0
 701 01f0 131C     		mov	r3, r2
 702              	.LVL108:
 703 01f2 303B     		sub	r3, r3, #48
 704 01f4 DBB2     		uxtb	r3, r3
 705 01f6 092B     		cmp	r3, #9
 706 01f8 F3D9     		bls	.L21
 707              		.loc 1 161 0
 708 01fa 2A2A     		cmp	r2, #42
 709 01fc EFD0     		beq	.L85
 710 01fe 0091     		str	r1, [sp]
 711 0200 4AE7     		b	.L20
 712              	.LVL109:
 713              	.L76:
 714              		.loc 1 137 0
 715 0202 0123     		mov	r3, #1
 716              		.loc 1 136 0
 717 0204 A51C     		add	r5, r4, #2
 718              	.LVL110:
 719 0206 A278     		ldrb	r2, [r4, #2]
 720              		.loc 1 137 0
 721 0208 0293     		str	r3, [sp, #8]
 722 020a 26E7     		b	.L14
 723              	.LVL111:
 724              	.L83:
 725              		.loc 1 189 0
 726 020c 134B     		ldr	r3, .L86+4
 727 020e 0093     		str	r3, [sp]
 728 0210 91E7     		b	.L35
 729              	.LVL112:
 730              	.L80:
 731              		.loc 1 245 0 discriminator 1
 732 0212 4246     		mov	r2, r8
 733 0214 302A     		cmp	r2, #48
 734 0216 00D0     		beq	.LCB848
 735 0218 67E7     		b	.L72	@long jump
 736              	.LCB848:
 737              	.LVL113:
 738              		.loc 1 246 0
 739 021a 0123     		mov	r3, #1
 740 021c 9A44     		add	r10, r10, r3
ARM GAS  /var/folders/qh/xwg3v3kj02qbxczjpdb8lzfr0000gn/T//cccPA4jh.s 			page 14


 741              	.LVL114:
 742 021e 3B68     		ldr	r3, [r7]
 743 0220 381C     		mov	r0, r7
 744 0222 9B68     		ldr	r3, [r3, #8]
 745 0224 2D21     		mov	r1, #45
 746 0226 9847     		blx	r3
 747              	.LVL115:
 748              		.loc 1 247 0
 749 0228 0120     		mov	r0, #1
 750 022a 231C     		mov	r3, r4
 751 022c 4042     		neg	r0, r0
 752 022e 4446     		mov	r4, r8
 753              	.LVL116:
 754 0230 8144     		add	r9, r9, r0
 755              	.LVL117:
 756 0232 9846     		mov	r8, r3
 757 0234 5CE7     		b	.L49
 758              	.LVL118:
 759              	.L81:
 760              		.loc 1 202 0
 761 0236 2D23     		mov	r3, #45
 762 0238 0370     		strb	r3, [r0]
 763 023a 6846     		mov	r0, sp
 764              	.LVL119:
 765              		.loc 1 203 0
 766 023c 4942     		neg	r1, r1
 767              	.LVL120:
 768              		.loc 1 202 0
 769 023e 1530     		add	r0, r0, #21
 770              	.LVL121:
 771              	.LBB13:
 772              	.LBB12:
 773              		.loc 1 72 0
 774 0240 0A22     		mov	r2, #10
 775              	.LVL122:
 776 0242 3CE7     		b	.L74
 777              	.LVL123:
 778              	.L82:
 779              	.LBE12:
 780              	.LBE13:
 781              		.loc 1 187 0
 782 0244 0649     		ldr	r1, .L86+8
 783 0246 8A46     		mov	r10, r1
 784 0248 72E7     		b	.L34
 785              	.LVL124:
 786              	.L58:
 787              		.loc 1 190 0
 788 024a 0021     		mov	r1, #0
 789              		.loc 1 185 0
 790 024c 2022     		mov	r2, #32
 791              		.loc 1 186 0
 792 024e 061C     		mov	r6, r0
 793              		.loc 1 190 0
 794 0250 8946     		mov	r9, r1
 795              		.loc 1 185 0
 796 0252 9046     		mov	r8, r2
 797 0254 39E7     		b	.L33
ARM GAS  /var/folders/qh/xwg3v3kj02qbxczjpdb8lzfr0000gn/T//cccPA4jh.s 			page 15


 798              	.L87:
 799 0256 C046     		.align	2
 800              	.L86:
 801 0258 00000000 		.word	.L27
 802 025c FF7F0000 		.word	32767
 803 0260 00000000 		.word	.LC2
 804              		.cfi_endproc
 805              	.LFE10:
 806              		.size	chvprintf, .-chvprintf
 807 0264 C046C046 		.section	.text.chsnprintf,"ax",%progbits
 807      C046C046 
 807      C046C046 
 808              		.align	2
 809              		.p2align 4,,15
 810              		.global	chsnprintf
 811              		.code	16
 812              		.thumb_func
 813              		.type	chsnprintf, %function
 814              	chsnprintf:
 815              	.LFB11:
 816              		.loc 1 288 0
 817              		.cfi_startproc
 818              	.LVL125:
 819 0000 0CB4     		push	{r2, r3}
 820              		.cfi_def_cfa_offset 8
 821 0002 10B5     		push	{r4, lr}
 822              		.cfi_def_cfa_offset 16
 823              		.cfi_offset 4, -16
 824              		.cfi_offset 14, -12
 825 0004 86B0     		sub	sp, sp, #24
 826              		.cfi_def_cfa_offset 40
 827              		.loc 1 288 0
 828 0006 08AC     		add	r4, sp, #32
 829 0008 031C     		mov	r3, r0
 830 000a 0A1C     		mov	r2, r1
 831 000c 02CC     		ldmia	r4!, {r1}
 832              	.LVL126:
 833              		.loc 1 294 0
 834 000e 01A8     		add	r0, sp, #4
 835              	.LVL127:
 836 0010 191C     		mov	r1, r3
 837 0012 0023     		mov	r3, #0
 838              	.LVL128:
 839 0014 FFF7FEFF 		bl	msObjectInit
 840              	.LVL129:
 841              		.loc 1 299 0
 842 0018 01A8     		add	r0, sp, #4
 843              	.LVL130:
 844 001a 0899     		ldr	r1, [sp, #32]
 845 001c 221C     		mov	r2, r4
 846              		.loc 1 298 0
 847 001e 0094     		str	r4, [sp]
 848              		.loc 1 299 0
 849 0020 FFF7FEFF 		bl	chvprintf
 850              	.LVL131:
 851              		.loc 1 303 0
 852 0024 019B     		ldr	r3, [sp, #4]
ARM GAS  /var/folders/qh/xwg3v3kj02qbxczjpdb8lzfr0000gn/T//cccPA4jh.s 			page 16


 853 0026 01A8     		add	r0, sp, #4
 854              	.LVL132:
 855 0028 9B68     		ldr	r3, [r3, #8]
 856 002a 0021     		mov	r1, #0
 857 002c 9847     		blx	r3
 858              	.LVL133:
 859              		.loc 1 304 0
 860 002e 0498     		ldr	r0, [sp, #16]
 861 0030 0138     		sub	r0, r0, #1
 862              		.loc 1 305 0
 863 0032 06B0     		add	sp, sp, #24
 864              		@ sp needed
 865 0034 10BC     		pop	{r4}
 866 0036 08BC     		pop	{r3}
 867 0038 02B0     		add	sp, sp, #8
 868 003a 1847     		bx	r3
 869              		.cfi_endproc
 870              	.LFE11:
 871              		.size	chsnprintf, .-chsnprintf
 872 003c C046C046 		.section	.rodata.str1.4,"aMS",%progbits,1
 873              		.align	2
 874              	.LC2:
 875 0000 286E756C 		.ascii	"(null)\000"
 875      6C2900
 876 0007 00       		.text
 877              	.Letext0:
 878              		.file 2 "/usr/local/Cellar/gcc-arm-none-eabi-48/20131218/lib/gcc/arm-none-eabi/4.8.3/include/stdde
 879              		.file 3 "/usr/local/Cellar/gcc-arm-none-eabi-48/20131218/arm-none-eabi/include/stdint.h"
 880              		.file 4 "../../os/ports/GCC/ARMCMx/chtypes.h"
 881              		.file 5 "../../os/kernel/include/chstreams.h"
 882              		.file 6 "/usr/local/Cellar/gcc-arm-none-eabi-48/20131218/lib/gcc/arm-none-eabi/4.8.3/include/stdar
 883              		.file 7 "<built-in>"
 884              		.file 8 "../../os/various/memstreams.h"