ARM GAS  /var/folders/qh/xwg3v3kj02qbxczjpdb8lzfr0000gn/T//cccPA4jh.s 			page 1


   1              		.cpu cortex-m0
   2              		.fpu softvfp
   3              		.eabi_attribute 20, 1
   4              		.eabi_attribute 21, 1
   5              		.eabi_attribute 23, 3
   6              		.eabi_attribute 24, 1
   7              		.eabi_attribute 25, 1
   8              		.eabi_attribute 26, 1
   9              		.eabi_attribute 30, 2
  10              		.eabi_attribute 34, 0
  11              		.eabi_attribute 18, 4
  12              		.code	16
  13              		.file	"chprintf.c"
  14              		.text
  15              	.Ltext0:
  16              		.cfi_sections	.debug_frame
  17              		.global	__aeabi_uidivmod
  18              		.global	__aeabi_uidiv
  19              		.section	.text.long_to_string_with_divisor.constprop.0,"ax",%progbits
  20              		.align	2
  21              		.p2align 4,,15
  22              		.code	16
  23              		.thumb_func
  24              		.type	long_to_string_with_divisor.constprop.0, %function
  25              	long_to_string_with_divisor.constprop.0:
  26              	.LFB12:
  27              		.file 1 "../../os/various/chprintf.c"
  28              		.loc 1 37 0
  29              		.cfi_startproc
  30              	.LVL0:
  31 0000 F0B5     		push	{r4, r5, r6, r7, lr}
  32              		.cfi_def_cfa_offset 20
  33              		.cfi_offset 4, -20
  34              		.cfi_offset 5, -16
  35              		.cfi_offset 6, -12
  36              		.cfi_offset 7, -8
  37              		.cfi_offset 14, -4
  38 0002 4546     		mov	r5, r8
  39 0004 9046     		mov	r8, r2
  40              		.loc 1 52 0
  41 0006 0B22     		mov	r2, #11
  42              	.LVL1:
  43              		.loc 1 37 0
  44 0008 5746     		mov	r7, r10
  45 000a 4E46     		mov	r6, r9
  46 000c 8246     		mov	r10, r0
  47              		.loc 1 52 0
  48 000e 9146     		mov	r9, r2
  49 0010 D144     		add	r9, r9, r10
  50              	.LVL2:
  51              		.loc 1 37 0
  52 0012 E0B4     		push	{r5, r6, r7}
  53              		.cfi_def_cfa_offset 32
  54              		.cfi_offset 8, -32
  55              		.cfi_offset 9, -28
  56              		.cfi_offset 10, -24
  57              		.loc 1 37 0
ARM GAS  /var/folders/qh/xwg3v3kj02qbxczjpdb8lzfr0000gn/T//cccPA4jh.s 			page 2


  58 0014 0E1C     		mov	r6, r1
  59              		.loc 1 52 0
  60 0016 0F1C     		mov	r7, r1
  61 0018 4D46     		mov	r5, r9
  62              	.LVL3:
  63              	.L4:
  64              		.loc 1 54 0
  65 001a 301C     		mov	r0, r6
  66 001c 4146     		mov	r1, r8
  67 001e FFF7FEFF 		bl	__aeabi_uidivmod
  68              	.LVL4:
  69              		.loc 1 55 0
  70 0022 0C1C     		mov	r4, r1
  71 0024 3034     		add	r4, r4, #48
  72              	.LVL5:
  73              		.loc 1 56 0
  74 0026 392C     		cmp	r4, #57
  75 0028 00DD     		ble	.L2
  76              		.loc 1 57 0
  77 002a 0734     		add	r4, r4, #7
  78              	.LVL6:
  79              	.L2:
  80              		.loc 1 58 0
  81 002c 013D     		sub	r5, r5, #1
  82              	.LVL7:
  83 002e E4B2     		uxtb	r4, r4
  84              	.LVL8:
  85              		.loc 1 59 0
  86 0030 301C     		mov	r0, r6
  87 0032 4146     		mov	r1, r8
  88              		.loc 1 58 0
  89 0034 2C70     		strb	r4, [r5]
  90              		.loc 1 59 0
  91 0036 FFF7FEFF 		bl	__aeabi_uidiv
  92              	.LVL9:
  93              		.loc 1 60 0
  94 003a 4146     		mov	r1, r8
  95              		.loc 1 59 0
  96 003c 061C     		mov	r6, r0
  97              	.LVL10:
  98              		.loc 1 60 0
  99 003e 381C     		mov	r0, r7
 100              	.LVL11:
 101 0040 FFF7FEFF 		bl	__aeabi_uidiv
 102              	.LVL12:
 103 0044 071E     		sub	r7, r0, #0
 104              	.LVL13:
 105 0046 E8D1     		bne	.L4
 106              	.LVL14:
 107              		.loc 1 62 0
 108 0048 4A46     		mov	r2, r9
 109 004a 5046     		mov	r0, r10
 110              	.LVL15:
 111 004c 531B     		sub	r3, r2, r5
 112 004e C318     		add	r3, r0, r3
 113 0050 01E0     		b	.L6
 114              	.LVL16:
ARM GAS  /var/folders/qh/xwg3v3kj02qbxczjpdb8lzfr0000gn/T//cccPA4jh.s 			page 3


 115              	.L8:
 116 0052 6C78     		ldrb	r4, [r5, #1]
 117 0054 0135     		add	r5, r5, #1
 118              	.L6:
 119              	.LVL17:
 120              		.loc 1 64 0
 121 0056 0470     		strb	r4, [r0]
 122 0058 0130     		add	r0, r0, #1
 123              	.LVL18:
 124              		.loc 1 65 0
 125 005a 9842     		cmp	r0, r3
 126 005c F9D1     		bne	.L8
 127              		.loc 1 68 0
 128              		@ sp needed
 129              	.LVL19:
 130              	.LVL20:
 131              	.LVL21:
 132 005e 1CBC     		pop	{r2, r3, r4}
 133 0060 9046     		mov	r8, r2
 134 0062 9946     		mov	r9, r3
 135 0064 A246     		mov	r10, r4
 136 0066 F0BD     		pop	{r4, r5, r6, r7, pc}
 137              		.cfi_endproc
 138              	.LFE12:
 139              		.size	long_to_string_with_divisor.constprop.0, .-long_to_string_with_divisor.constprop.0
 140 0068 C046C046 		.section	.text.chvprintf,"ax",%progbits
 140      C046C046 
 141              		.align	2
 142              		.p2align 4,,15
 143              		.global	chvprintf
 144              		.code	16
 145              		.thumb_func
 146              		.type	chvprintf, %function
 147              	chvprintf:
 148              	.LFB10:
 149              		.loc 1 112 0
 150              		.cfi_startproc
 151              	.LVL22:
 152 0000 F0B5     		push	{r4, r5, r6, r7, lr}
 153              		.cfi_def_cfa_offset 20
 154              		.cfi_offset 4, -20
 155              		.cfi_offset 5, -16
 156              		.cfi_offset 6, -12
 157              		.cfi_offset 7, -8
 158              		.cfi_offset 14, -4
 159 0002 5F46     		mov	r7, fp
 160 0004 5646     		mov	r6, r10
 161 0006 4446     		mov	r4, r8
 162 0008 4D46     		mov	r5, r9
 163 000a F0B4     		push	{r4, r5, r6, r7}
 164              		.cfi_def_cfa_offset 36
 165              		.cfi_offset 8, -36
 166              		.cfi_offset 9, -32
 167              		.cfi_offset 10, -28
 168              		.cfi_offset 11, -24
 169 000c 89B0     		sub	sp, sp, #36
 170              		.cfi_def_cfa_offset 72
ARM GAS  /var/folders/qh/xwg3v3kj02qbxczjpdb8lzfr0000gn/T//cccPA4jh.s 			page 4


 171              		.loc 1 112 0
 172 000e 0C1C     		mov	r4, r1
 173 0010 6946     		mov	r1, sp
 174              	.LVL23:
 175 0012 1531     		add	r1, r1, #21
 176 0014 071C     		mov	r7, r0
 177              		.loc 1 236 0
 178 0016 05A8     		add	r0, sp, #20
 179              	.LVL24:
 180 0018 8346     		mov	fp, r0
 181 001a 081A     		sub	r0, r1, r0
 182              		.loc 1 112 0
 183 001c 161C     		mov	r6, r2
 184              	.LVL25:
 185 001e 0191     		str	r1, [sp, #4]
 186 0020 0390     		str	r0, [sp, #12]
 187              	.LVL26:
 188              	.L10:
 189              		.loc 1 125 0
 190 0022 2178     		ldrb	r1, [r4]
 191 0024 651C     		add	r5, r4, #1
 192              	.LVL27:
 193              		.loc 1 126 0
 194 0026 0029     		cmp	r1, #0
 195 0028 0AD0     		beq	.L9
 196              	.LVL28:
 197              	.L75:
 198              		.loc 1 128 0
 199 002a 2529     		cmp	r1, #37
 200 002c 0FD0     		beq	.L12
 201              		.loc 1 129 0
 202 002e 3B68     		ldr	r3, [r7]
 203              		.loc 1 125 0
 204 0030 2C1C     		mov	r4, r5
 205              		.loc 1 129 0
 206 0032 9B68     		ldr	r3, [r3, #8]
 207 0034 381C     		mov	r0, r7
 208 0036 9847     		blx	r3
 209              	.LVL29:
 210              		.loc 1 125 0
 211 0038 2178     		ldrb	r1, [r4]
 212 003a 651C     		add	r5, r4, #1
 213              	.LVL30:
 214              		.loc 1 126 0
 215 003c 0029     		cmp	r1, #0
 216 003e F4D1     		bne	.L75
 217              	.LVL31:
 218              	.L9:
 219              		.loc 1 261 0
 220 0040 09B0     		add	sp, sp, #36
 221              		@ sp needed
 222              	.LVL32:
 223              	.LVL33:
 224              	.LVL34:
 225 0042 3CBC     		pop	{r2, r3, r4, r5}
 226 0044 9046     		mov	r8, r2
 227 0046 9946     		mov	r9, r3
ARM GAS  /var/folders/qh/xwg3v3kj02qbxczjpdb8lzfr0000gn/T//cccPA4jh.s 			page 5


 228 0048 A246     		mov	r10, r4
 229 004a AB46     		mov	fp, r5
 230 004c F0BD     		pop	{r4, r5, r6, r7, pc}
 231              	.LVL35:
 232              	.L12:
 233              		.loc 1 135 0
 234 004e 6278     		ldrb	r2, [r4, #1]
 235              	.LVL36:
 236 0050 2D2A     		cmp	r2, #45
 237 0052 00D1     		bne	.LCB240
 238 0054 D5E0     		b	.L76	@long jump
 239              	.LCB240:
 240              		.loc 1 134 0
 241 0056 0020     		mov	r0, #0
 242 0058 0290     		str	r0, [sp, #8]
 243              	.LVL37:
 244              	.L14:
 245              		.loc 1 140 0
 246 005a 2E2A     		cmp	r2, #46
 247 005c 00D1     		bne	.LCB251
 248 005e B7E0     		b	.L15	@long jump
 249              	.LCB251:
 250              		.loc 1 139 0 discriminator 1
 251 0060 2021     		mov	r1, #32
 252 0062 8846     		mov	r8, r1
 253              		.loc 1 140 0 discriminator 1
 254 0064 302A     		cmp	r2, #48
 255 0066 00D1     		bne	.LCB256
 256 0068 B2E0     		b	.L15	@long jump
 257              	.LCB256:
 258              	.LVL38:
 259              	.L16:
 260              		.loc 1 142 0
 261 006a 2C1C     		mov	r4, r5
 262              		.loc 1 144 0
 263 006c 0025     		mov	r5, #0
 264              	.LVL39:
 265 006e 06E0     		b	.L19
 266              	.LVL40:
 267              	.L77:
 268              		.loc 1 150 0
 269 0070 3378     		ldrb	r3, [r6]
 270              	.LVL41:
 271 0072 0436     		add	r6, r6, #4
 272              	.LVL42:
 273              	.L17:
 274              		.loc 1 153 0
 275 0074 AA00     		lsl	r2, r5, #2
 276 0076 5519     		add	r5, r2, r5
 277              	.LVL43:
 278 0078 6D00     		lsl	r5, r5, #1
 279 007a 2278     		ldrb	r2, [r4]
 280 007c ED18     		add	r5, r5, r3
 281              	.LVL44:
 282              	.L19:
 283              		.loc 1 147 0
 284 007e 131C     		mov	r3, r2
ARM GAS  /var/folders/qh/xwg3v3kj02qbxczjpdb8lzfr0000gn/T//cccPA4jh.s 			page 6


 285 0080 303B     		sub	r3, r3, #48
 286 0082 DBB2     		uxtb	r3, r3
 287              		.loc 1 146 0
 288 0084 0134     		add	r4, r4, #1
 289              	.LVL45:
 290              		.loc 1 147 0
 291 0086 092B     		cmp	r3, #9
 292 0088 F4D9     		bls	.L17
 293              		.loc 1 149 0
 294 008a 2A2A     		cmp	r2, #42
 295 008c F0D0     		beq	.L77
 296              	.LVL46:
 297              		.loc 1 155 0
 298 008e 0020     		mov	r0, #0
 299 0090 0090     		str	r0, [sp]
 300              		.loc 1 156 0
 301 0092 2E2A     		cmp	r2, #46
 302 0094 00D1     		bne	.LCB320
 303 0096 A0E0     		b	.L78	@long jump
 304              	.LCB320:
 305              	.LVL47:
 306              	.L20:
 307              		.loc 1 170 0
 308 0098 DF23     		mov	r3, #223
 309 009a 1340     		and	r3, r2
 310 009c 4C2B     		cmp	r3, #76
 311 009e 00D1     		bne	.LCB334
 312 00a0 8FE0     		b	.L79	@long jump
 313              	.LCB334:
 314              	.LVL48:
 315              	.L24:
 316              		.loc 1 179 0
 317 00a2 131C     		mov	r3, r2
 318 00a4 443B     		sub	r3, r3, #68
 319 00a6 DBB2     		uxtb	r3, r3
 320 00a8 342B     		cmp	r3, #52
 321 00aa 00D9     		bls	.LCB345
 322 00ac 83E0     		b	.L25	@long jump
 323              	.LCB345:
 324 00ae 6A48     		ldr	r0, .L86
 325 00b0 9B00     		lsl	r3, r3, #2
 326 00b2 C358     		ldr	r3, [r0, r3]
 327 00b4 9F46     		mov	pc, r3
 328              		.section	.rodata.chvprintf,"a",%progbits
 329              		.align	2
 330              	.L27:
 331 0000 14010000 		.word	.L26
 332 0004 B6010000 		.word	.L25
 333 0008 B6010000 		.word	.L25
 334 000c B6010000 		.word	.L25
 335 0010 B6010000 		.word	.L25
 336 0014 14010000 		.word	.L26
 337 0018 B6010000 		.word	.L25
 338 001c B6010000 		.word	.L25
 339 0020 B6010000 		.word	.L25
 340 0024 B6010000 		.word	.L25
 341 0028 B6010000 		.word	.L25
ARM GAS  /var/folders/qh/xwg3v3kj02qbxczjpdb8lzfr0000gn/T//cccPA4jh.s 			page 7


 342 002c 10010000 		.word	.L28
 343 0030 B6010000 		.word	.L25
 344 0034 B6010000 		.word	.L25
 345 0038 B6010000 		.word	.L25
 346 003c B6010000 		.word	.L25
 347 0040 B6010000 		.word	.L25
 348 0044 B6000000 		.word	.L55
 349 0048 B6010000 		.word	.L25
 350 004c B6010000 		.word	.L25
 351 0050 B2010000 		.word	.L30
 352 0054 B6010000 		.word	.L25
 353 0058 B6010000 		.word	.L25
 354 005c B6010000 		.word	.L25
 355 0060 B6010000 		.word	.L25
 356 0064 B6010000 		.word	.L25
 357 0068 B6010000 		.word	.L25
 358 006c B6010000 		.word	.L25
 359 0070 B6010000 		.word	.L25
 360 0074 B6010000 		.word	.L25
 361 0078 B6010000 		.word	.L25
 362 007c 9E010000 		.word	.L31
 363 0080 14010000 		.word	.L26
 364 0084 B6010000 		.word	.L25
 365 0088 B6010000 		.word	.L25
 366 008c B6010000 		.word	.L25
 367 0090 B6010000 		.word	.L25
 368 0094 14010000 		.word	.L26
 369 0098 B6010000 		.word	.L25
 370 009c B6010000 		.word	.L25
 371 00a0 B6010000 		.word	.L25
 372 00a4 B6010000 		.word	.L25
 373 00a8 B6010000 		.word	.L25
 374 00ac 10010000 		.word	.L28
 375 00b0 B6010000 		.word	.L25
 376 00b4 B6010000 		.word	.L25
 377 00b8 B6010000 		.word	.L25
 378 00bc 24010000 		.word	.L32
 379 00c0 B6010000 		.word	.L25
 380 00c4 B6000000 		.word	.L55
 381 00c8 B6010000 		.word	.L25
 382 00cc B6010000 		.word	.L25
 383 00d0 B2010000 		.word	.L30
 384              		.section	.text.chvprintf
 385              	.L55:
 386 00b6 0A22     		mov	r2, #10
 387              	.LVL49:
 388              	.L29:
 389              		.loc 1 230 0
 390 00b8 3168     		ldr	r1, [r6]
 391              	.LVL50:
 392              	.LBB6:
 393              	.LBB7:
 394              		.loc 1 72 0
 395 00ba 5846     		mov	r0, fp
 396              	.LBE7:
 397              	.LBE6:
 398              		.loc 1 230 0
ARM GAS  /var/folders/qh/xwg3v3kj02qbxczjpdb8lzfr0000gn/T//cccPA4jh.s 			page 8


 399 00bc 0436     		add	r6, r6, #4
 400              	.LVL51:
 401              	.L74:
 402              	.LBB9:
 403              	.LBB8:
 404              		.loc 1 72 0
 405 00be FFF7FEFF 		bl	long_to_string_with_divisor.constprop.0
 406              	.LVL52:
 407 00c2 5946     		mov	r1, fp
 408 00c4 411A     		sub	r1, r0, r1
 409 00c6 8946     		mov	r9, r1
 410              	.LBE8:
 411              	.LBE9:
 412              		.loc 1 133 0
 413 00c8 DA46     		mov	r10, fp
 414              	.LVL53:
 415              	.L33:
 416              		.loc 1 240 0
 417 00ca 4B46     		mov	r3, r9
 418 00cc ED1A     		sub	r5, r5, r3
 419              	.LVL54:
 420 00ce EB43     		mvn	r3, r5
 421              		.loc 1 242 0
 422 00d0 0298     		ldr	r0, [sp, #8]
 423 00d2 DB17     		asr	r3, r3, #31
 424 00d4 1D40     		and	r5, r3
 425              	.LVL55:
 426 00d6 0028     		cmp	r0, #0
 427 00d8 4BD1     		bne	.L45
 428              	.LVL56:
 429              	.L84:
 430              		.loc 1 243 0
 431 00da 6D42     		neg	r5, r5
 432              	.LVL57:
 433              		.loc 1 244 0
 434 00dc 002D     		cmp	r5, #0
 435 00de 10D0     		beq	.L46
 436              		.loc 1 245 0
 437 00e0 5146     		mov	r1, r10
 438 00e2 0B78     		ldrb	r3, [r1]
 439 00e4 2D2B     		cmp	r3, #45
 440 00e6 00D1     		bne	.LCB433
 441 00e8 93E0     		b	.L80	@long jump
 442              	.LCB433:
 443              	.L72:
 444 00ea 231C     		mov	r3, r4
 445 00ec 4446     		mov	r4, r8
 446              	.LVL58:
 447 00ee 9846     		mov	r8, r3
 448              	.LVL59:
 449              	.L49:
 450              		.loc 1 250 0 discriminator 1
 451 00f0 3B68     		ldr	r3, [r7]
 452 00f2 381C     		mov	r0, r7
 453 00f4 9B68     		ldr	r3, [r3, #8]
 454 00f6 211C     		mov	r1, r4
 455              		.loc 1 251 0 discriminator 1
ARM GAS  /var/folders/qh/xwg3v3kj02qbxczjpdb8lzfr0000gn/T//cccPA4jh.s 			page 9


 456 00f8 0135     		add	r5, r5, #1
 457              	.LVL60:
 458              		.loc 1 250 0 discriminator 1
 459 00fa 9847     		blx	r3
 460              	.LVL61:
 461              		.loc 1 251 0 discriminator 1
 462 00fc 002D     		cmp	r5, #0
 463 00fe F7D1     		bne	.L49
 464 0100 4446     		mov	r4, r8
 465              	.LVL62:
 466              	.L46:
 467              		.loc 1 253 0
 468 0102 3B68     		ldr	r3, [r7]
 469 0104 381C     		mov	r0, r7
 470 0106 1B68     		ldr	r3, [r3]
 471 0108 5146     		mov	r1, r10
 472 010a 4A46     		mov	r2, r9
 473 010c 9847     		blx	r3
 474              	.LVL63:
 475 010e 88E7     		b	.L10
 476              	.LVL64:
 477              	.L28:
 478 0110 0822     		mov	r2, #8
 479 0112 D1E7     		b	.L29
 480              	.LVL65:
 481              	.L26:
 482              		.loc 1 198 0
 483 0114 3168     		ldr	r1, [r6]
 484              	.LVL66:
 485              		.loc 1 132 0
 486 0116 5846     		mov	r0, fp
 487              		.loc 1 198 0
 488 0118 0436     		add	r6, r6, #4
 489              	.LVL67:
 490              		.loc 1 201 0
 491 011a 0029     		cmp	r1, #0
 492 011c 00DA     		bge	.LCB507
 493 011e 8AE0     		b	.L81	@long jump
 494              	.LCB507:
 495              	.LVL68:
 496              	.LBB10:
 497              	.LBB11:
 498              		.loc 1 72 0
 499 0120 0A22     		mov	r2, #10
 500              	.LVL69:
 501 0122 CCE7     		b	.L74
 502              	.LVL70:
 503              	.L32:
 504              	.LBE11:
 505              	.LBE10:
 506              		.loc 1 186 0
 507 0124 3268     		ldr	r2, [r6]
 508              	.LVL71:
 509 0126 301D     		add	r0, r6, #4
 510              	.LVL72:
 511 0128 9246     		mov	r10, r2
 512              	.LVL73:
ARM GAS  /var/folders/qh/xwg3v3kj02qbxczjpdb8lzfr0000gn/T//cccPA4jh.s 			page 10


 513 012a 002A     		cmp	r2, #0
 514 012c 00D1     		bne	.LCB541
 515 012e 89E0     		b	.L82	@long jump
 516              	.LCB541:
 517              	.LVL74:
 518              	.L34:
 519              		.loc 1 188 0
 520 0130 009A     		ldr	r2, [sp]
 521 0132 002A     		cmp	r2, #0
 522 0134 6AD0     		beq	.L83
 523              	.L35:
 524              	.LVL75:
 525              		.loc 1 190 0 discriminator 1
 526 0136 5146     		mov	r1, r10
 527 0138 0B78     		ldrb	r3, [r1]
 528 013a 002B     		cmp	r3, #0
 529 013c 00D1     		bne	.LCB554
 530 013e 84E0     		b	.L58	@long jump
 531              	.LCB554:
 532 0140 009A     		ldr	r2, [sp]
 533              		.loc 1 190 0 is_stmt 0
 534 0142 5346     		mov	r3, r10
 535 0144 111C     		mov	r1, r2
 536 0146 5144     		add	r1, r1, r10
 537 0148 01E0     		b	.L38
 538              	.LVL76:
 539              	.L36:
 540              		.loc 1 190 0 discriminator 2
 541 014a 8B42     		cmp	r3, r1
 542 014c 03D0     		beq	.L73
 543              	.LVL77:
 544              	.L38:
 545              		.loc 1 190 0 discriminator 1
 546 014e 0133     		add	r3, r3, #1
 547              	.LVL78:
 548 0150 1A78     		ldrb	r2, [r3]
 549 0152 002A     		cmp	r2, #0
 550 0154 F9D1     		bne	.L36
 551              	.L73:
 552 0156 5146     		mov	r1, r10
 553 0158 591A     		sub	r1, r3, r1
 554 015a 8946     		mov	r9, r1
 555              		.loc 1 240 0 is_stmt 1
 556 015c 4B46     		mov	r3, r9
 557              	.LVL79:
 558 015e ED1A     		sub	r5, r5, r3
 559              	.LVL80:
 560 0160 EB43     		mvn	r3, r5
 561              		.loc 1 186 0
 562 0162 061C     		mov	r6, r0
 563              		.loc 1 242 0
 564 0164 0298     		ldr	r0, [sp, #8]
 565              	.LVL81:
 566              		.loc 1 185 0
 567 0166 2022     		mov	r2, #32
 568 0168 DB17     		asr	r3, r3, #31
 569 016a 9046     		mov	r8, r2
ARM GAS  /var/folders/qh/xwg3v3kj02qbxczjpdb8lzfr0000gn/T//cccPA4jh.s 			page 11


 570              	.LVL82:
 571 016c 1D40     		and	r5, r3
 572              	.LVL83:
 573              		.loc 1 242 0
 574 016e 0028     		cmp	r0, #0
 575 0170 B3D0     		beq	.L84
 576              	.LVL84:
 577              	.L45:
 578              		.loc 1 253 0
 579 0172 3B68     		ldr	r3, [r7]
 580 0174 381C     		mov	r0, r7
 581 0176 1B68     		ldr	r3, [r3]
 582 0178 5146     		mov	r1, r10
 583 017a 4A46     		mov	r2, r9
 584 017c 9847     		blx	r3
 585              	.LVL85:
 586              		.loc 1 256 0
 587 017e 002D     		cmp	r5, #0
 588 0180 00D1     		bne	.LCB626
 589 0182 4EE7     		b	.L10	@long jump
 590              	.LCB626:
 591 0184 231C     		mov	r3, r4
 592 0186 4446     		mov	r4, r8
 593              	.LVL86:
 594 0188 9846     		mov	r8, r3
 595              	.LVL87:
 596              	.L50:
 597              		.loc 1 257 0
 598 018a 3B68     		ldr	r3, [r7]
 599 018c 381C     		mov	r0, r7
 600 018e 9B68     		ldr	r3, [r3, #8]
 601 0190 211C     		mov	r1, r4
 602              		.loc 1 258 0
 603 0192 013D     		sub	r5, r5, #1
 604              	.LVL88:
 605              		.loc 1 257 0
 606 0194 9847     		blx	r3
 607              	.LVL89:
 608              		.loc 1 256 0
 609 0196 002D     		cmp	r5, #0
 610 0198 F7D1     		bne	.L50
 611 019a 4446     		mov	r4, r8
 612 019c 41E7     		b	.L10
 613              	.LVL90:
 614              	.L31:
 615              		.loc 1 182 0
 616 019e 3368     		ldr	r3, [r6]
 617 01a0 0398     		ldr	r0, [sp, #12]
 618 01a2 5A46     		mov	r2, fp
 619              	.LVL91:
 620              		.loc 1 181 0
 621 01a4 2021     		mov	r1, #32
 622              		.loc 1 182 0
 623 01a6 1370     		strb	r3, [r2]
 624 01a8 8146     		mov	r9, r0
 625 01aa 0436     		add	r6, r6, #4
 626              	.LVL92:
ARM GAS  /var/folders/qh/xwg3v3kj02qbxczjpdb8lzfr0000gn/T//cccPA4jh.s 			page 12


 627              		.loc 1 181 0
 628 01ac 8846     		mov	r8, r1
 629              		.loc 1 133 0
 630 01ae DA46     		mov	r10, fp
 631              		.loc 1 183 0
 632 01b0 8BE7     		b	.L33
 633              	.LVL93:
 634              	.L30:
 635              		.loc 1 179 0
 636 01b2 1022     		mov	r2, #16
 637              	.LVL94:
 638 01b4 80E7     		b	.L29
 639              	.LVL95:
 640              	.L25:
 641 01b6 0398     		ldr	r0, [sp, #12]
 642              		.loc 1 236 0
 643 01b8 5B46     		mov	r3, fp
 644 01ba 1A70     		strb	r2, [r3]
 645 01bc 8146     		mov	r9, r0
 646              		.loc 1 133 0
 647 01be DA46     		mov	r10, fp
 648              		.loc 1 237 0
 649 01c0 83E7     		b	.L33
 650              	.LVL96:
 651              	.L79:
 652              		.loc 1 172 0
 653 01c2 2378     		ldrb	r3, [r4]
 654 01c4 002B     		cmp	r3, #0
 655 01c6 00D1     		bne	.LCB712
 656 01c8 6BE7     		b	.L24	@long jump
 657              	.LCB712:
 658              		.loc 1 173 0
 659 01ca 0134     		add	r4, r4, #1
 660              	.LVL97:
 661 01cc 1A1C     		mov	r2, r3
 662 01ce 68E7     		b	.L24
 663              	.LVL98:
 664              	.L15:
 665              		.loc 1 142 0
 666 01d0 3023     		mov	r3, #48
 667 01d2 6A78     		ldrb	r2, [r5, #1]
 668 01d4 9846     		mov	r8, r3
 669              		.loc 1 141 0
 670 01d6 0135     		add	r5, r5, #1
 671              	.LVL99:
 672 01d8 47E7     		b	.L16
 673              	.LVL100:
 674              	.L78:
 675 01da 0021     		mov	r1, #0
 676 01dc 05E0     		b	.L22
 677              	.LVL101:
 678              	.L85:
 679              		.loc 1 162 0
 680 01de 3378     		ldrb	r3, [r6]
 681              	.LVL102:
 682 01e0 0436     		add	r6, r6, #4
 683              	.LVL103:
ARM GAS  /var/folders/qh/xwg3v3kj02qbxczjpdb8lzfr0000gn/T//cccPA4jh.s 			page 13


 684              	.L21:
 685              		.loc 1 165 0
 686 01e2 8A00     		lsl	r2, r1, #2
 687 01e4 5118     		add	r1, r2, r1
 688 01e6 4900     		lsl	r1, r1, #1
 689              	.LVL104:
 690              		.loc 1 166 0
 691 01e8 5918     		add	r1, r3, r1
 692              	.LVL105:
 693              	.L22:
 694              		.loc 1 158 0
 695 01ea 0134     		add	r4, r4, #1
 696              	.LVL106:
 697 01ec 631E     		sub	r3, r4, #1
 698 01ee 1A78     		ldrb	r2, [r3]
 699              	.LVL107:
 700              		.loc 1 159 0
 701 01f0 131C     		mov	r3, r2
 702              	.LVL108:
 703 01f2 303B     		sub	r3, r3, #48
 704 01f4 DBB2     		uxtb	r3, r3
 705 01f6 092B     		cmp	r3, #9
 706 01f8 F3D9     		bls	.L21
 707              		.loc 1 161 0
 708 01fa 2A2A     		cmp	r2, #42
 709 01fc EFD0     		beq	.L85
 710 01fe 0091     		str	r1, [sp]
 711 0200 4AE7     		b	.L20
 712              	.LVL109:
 713              	.L76:
 714              		.loc 1 137 0
 715 0202 0123     		mov	r3, #1
 716              		.loc 1 136 0
 717 0204 A51C     		add	r5, r4, #2
 718              	.LVL110:
 719 0206 A278     		ldrb	r2, [r4, #2]
 720              		.loc 1 137 0
 721 0208 0293     		str	r3, [sp, #8]
 722 020a 26E7     		b	.L14
 723              	.LVL111:
 724              	.L83:
 725              		.loc 1 189 0
 726 020c 134B     		ldr	r3, .L86+4
 727 020e 0093     		str	r3, [sp]
 728 0210 91E7     		b	.L35
 729              	.LVL112:
 730              	.L80:
 731              		.loc 1 245 0 discriminator 1
 732 0212 4246     		mov	r2, r8
 733 0214 302A     		cmp	r2, #48
 734 0216 00D0     		beq	.LCB848
 735 0218 67E7     		b	.L72	@long jump
 736              	.LCB848:
 737              	.LVL113:
 738              		.loc 1 246 0
 739 021a 0123     		mov	r3, #1
 740 021c 9A44     		add	r10, r10, r3
ARM GAS  /var/folders/qh/xwg3v3kj02qbxczjpdb8lzfr0000gn/T//cccPA4jh.s 			page 14


 741              	.LVL114:
 742 021e 3B68     		ldr	r3, [r7]
 743 0220 381C     		mov	r0, r7
 744 0222 9B68     		ldr	r3, [r3, #8]
 745 0224 2D21     		mov	r1, #45
 746 0226 9847     		blx	r3
 747              	.LVL115:
 748              		.loc 1 247 0
 749 0228 0120     		mov	r0, #1
 750 022a 231C     		mov	r3, r4
 751 022c 4042     		neg	r0, r0
 752 022e 4446     		mov	r4, r8
 753              	.LVL116:
 754 0230 8144     		add	r9, r9, r0
 755              	.LVL117:
 756 0232 9846     		mov	r8, r3
 757 0234 5CE7     		b	.L49
 758              	.LVL118:
 759              	.L81:
 760              		.loc 1 202 0
 761 0236 2D23     		mov	r3, #45
 762 0238 0370     		strb	r3, [r0]
 763 023a 6846     		mov	r0, sp
 764              	.LVL119:
 765              		.loc 1 203 0
 766 023c 4942     		neg	r1, r1
 767              	.LVL120:
 768              		.loc 1 202 0
 769 023e 1530     		add	r0, r0, #21
 770              	.LVL121:
 771              	.LBB13:
 772              	.LBB12:
 773              		.loc 1 72 0
 774 0240 0A22     		mov	r2, #10
 775              	.LVL122:
 776 0242 3CE7     		b	.L74
 777              	.LVL123:
 778              	.L82:
 779              	.LBE12:
 780              	.LBE13:
 781              		.loc 1 187 0
 782 0244 0649     		ldr	r1, .L86+8
 783 0246 8A46     		mov	r10, r1
 784 0248 72E7     		b	.L34
 785              	.LVL124:
 786              	.L58:
 787              		.loc 1 190 0
 788 024a 0021     		mov	r1, #0
 789              		.loc 1 185 0
 790 024c 2022     		mov	r2, #32
 791              		.loc 1 186 0
 792 024e 061C     		mov	r6, r0
 793              		.loc 1 190 0
 794 0250 8946     		mov	r9, r1
 795              		.loc 1 185 0
 796 0252 9046     		mov	r8, r2
 797 0254 39E7     		b	.L33
ARM GAS  /var/folders/qh/xwg3v3kj02qbxczjpdb8lzfr0000gn/T//cccPA4jh.s 			page 15


 798              	.L87:
 799 0256 C046     		.align	2
 800              	.L86:
 801 0258 00000000 		.word	.L27
 802 025c FF7F0000 		.word	32767
 803 0260 00000000 		.word	.LC2
 804              		.cfi_endproc
 805              	.LFE10:
 806              		.size	chvprintf, .-chvprintf
 807 0264 C046C046 		.section	.text.chsnprintf,"ax",%progbits
 807      C046C046 
 807      C046C046 
 808              		.align	2
 809              		.p2align 4,,15
 810              		.global	chsnprintf
 811              		.code	16
 812              		.thumb_func
 813              		.type	chsnprintf, %function
 814              	chsnprintf:
 815              	.LFB11:
 816              		.loc 1 288 0
 817              		.cfi_startproc
 818              	.LVL125:
 819 0000 0CB4     		push	{r2, r3}
 820              		.cfi_def_cfa_offset 8
 821 0002 10B5     		push	{r4, lr}
 822              		.cfi_def_cfa_offset 16
 823              		.cfi_offset 4, -16
 824              		.cfi_offset 14, -12
 825 0004 86B0     		sub	sp, sp, #24
 826              		.cfi_def_cfa_offset 40
 827              		.loc 1 288 0
 828 0006 08AC     		add	r4, sp, #32
 829 0008 031C     		mov	r3, r0
 830 000a 0A1C     		mov	r2, r1
 831 000c 02CC     		ldmia	r4!, {r1}
 832              	.LVL126:
 833              		.loc 1 294 0
 834 000e 01A8     		add	r0, sp, #4
 835              	.LVL127:
 836 0010 191C     		mov	r1, r3
 837 0012 0023     		mov	r3, #0
 838              	.LVL128:
 839 0014 FFF7FEFF 		bl	msObjectInit
 840              	.LVL129:
 841              		.loc 1 299 0
 842 0018 01A8     		add	r0, sp, #4
 843              	.LVL130:
 844 001a 0899     		ldr	r1, [sp, #32]
 845 001c 221C     		mov	r2, r4
 846              		.loc 1 298 0
 847 001e 0094     		str	r4, [sp]
 848              		.loc 1 299 0
 849 0020 FFF7FEFF 		bl	chvprintf
 850              	.LVL131:
 851              		.loc 1 303 0
 852 0024 019B     		ldr	r3, [sp, #4]
ARM GAS  /var/folders/qh/xwg3v3kj02qbxczjpdb8lzfr0000gn/T//cccPA4jh.s 			page 16


 853 0026 01A8     		add	r0, sp, #4
 854              	.LVL132:
 855 0028 9B68     		ldr	r3, [r3, #8]
 856 002a 0021     		mov	r1, #0
 857 002c 9847     		blx	r3
 858              	.LVL133:
 859              		.loc 1 304 0
 860 002e 0498     		ldr	r0, [sp, #16]
 861 0030 0138     		sub	r0, r0, #1
 862              		.loc 1 305 0
 863 0032 06B0     		add	sp, sp, #24
 864              		@ sp needed
 865 0034 10BC     		pop	{r4}
 866 0036 08BC     		pop	{r3}
 867 0038 02B0     		add	sp, sp, #8
 868 003a 1847     		bx	r3
 869              		.cfi_endproc
 870              	.LFE11:
 871              		.size	chsnprintf, .-chsnprintf
 872 003c C046C046 		.section	.rodata.str1.4,"aMS",%progbits,1
 873              		.align	2
 874              	.LC2:
 875 0000 286E756C 		.ascii	"(null)\000"
 875      6C2900
 876 0007 00       		.text
 877              	.Letext0:
 878              		.file 2 "/usr/local/Cellar/gcc-arm-none-eabi-48/20131218/lib/gcc/arm-none-eabi/4.8.3/include/stdde
 879              		.file 3 "/usr/local/Cellar/gcc-arm-none-eabi-48/20131218/arm-none-eabi/include/stdint.h"
 880              		.file 4 "../../os/ports/GCC/ARMCMx/chtypes.h"
 881              		.file 5 "../../os/kernel/include/chstreams.h"
 882              		.file 6 "/usr/local/Cellar/gcc-arm-none-eabi-48/20131218/lib/gcc/arm-none-eabi/4.8.3/include/stdar
 883              		.file 7 "<built-in>"
 884              		.file 8 "../../os/various/memstreams.h"
 885              		.section	.debug_info,"",%progbits
 886              	.Ldebug_info0:
 887 0000 2F060000 		.4byte	0x62f
 888 0004 0400     		.2byte	0x4
 889 0006 00000000 		.4byte	.Ldebug_abbrev0
 890 000a 04       		.byte	0x4
 891 000b 01       		.uleb128 0x1
 892 000c 66010000 		.4byte	.LASF39
 893 0010 01       		.byte	0x1
 894 0011 6C000000 		.4byte	.LASF40
 895 0015 E6000000 		.4byte	.LASF41
 896 0019 30000000 		.4byte	.Ldebug_ranges0+0x30
 897 001d 00000000 		.4byte	0
 898 0021 00000000 		.4byte	.Ldebug_line0
 899 0025 02       		.uleb128 0x2
 900 0026 04       		.byte	0x4
 901 0027 05       		.byte	0x5
 902 0028 696E7400 		.ascii	"int\000"
 903 002c 03       		.uleb128 0x3
 904 002d 00000000 		.4byte	.LASF2
 905 0031 02       		.byte	0x2
 906 0032 D4       		.byte	0xd4
 907 0033 37000000 		.4byte	0x37
 908 0037 04       		.uleb128 0x4
ARM GAS  /var/folders/qh/xwg3v3kj02qbxczjpdb8lzfr0000gn/T//cccPA4jh.s 			page 17


 909 0038 04       		.byte	0x4
 910 0039 07       		.byte	0x7
 911 003a BC000000 		.4byte	.LASF0
 912 003e 04       		.uleb128 0x4
 913 003f 01       		.byte	0x1
 914 0040 06       		.byte	0x6
 915 0041 34000000 		.4byte	.LASF1
 916 0045 03       		.uleb128 0x3
 917 0046 D7020000 		.4byte	.LASF3
 918 004a 03       		.byte	0x3
 919 004b 2A       		.byte	0x2a
 920 004c 50000000 		.4byte	0x50
 921 0050 04       		.uleb128 0x4
 922 0051 01       		.byte	0x1
 923 0052 08       		.byte	0x8
 924 0053 7F020000 		.4byte	.LASF4
 925 0057 04       		.uleb128 0x4
 926 0058 02       		.byte	0x2
 927 0059 05       		.byte	0x5
 928 005a 8D020000 		.4byte	.LASF5
 929 005e 04       		.uleb128 0x4
 930 005f 02       		.byte	0x2
 931 0060 07       		.byte	0x7
 932 0061 2C010000 		.4byte	.LASF6
 933 0065 03       		.uleb128 0x3
 934 0066 77020000 		.4byte	.LASF7
 935 006a 03       		.byte	0x3
 936 006b 4F       		.byte	0x4f
 937 006c 70000000 		.4byte	0x70
 938 0070 04       		.uleb128 0x4
 939 0071 04       		.byte	0x4
 940 0072 05       		.byte	0x5
 941 0073 4E000000 		.4byte	.LASF8
 942 0077 04       		.uleb128 0x4
 943 0078 04       		.byte	0x4
 944 0079 07       		.byte	0x7
 945 007a C9000000 		.4byte	.LASF9
 946 007e 04       		.uleb128 0x4
 947 007f 08       		.byte	0x8
 948 0080 05       		.byte	0x5
 949 0081 26000000 		.4byte	.LASF10
 950 0085 04       		.uleb128 0x4
 951 0086 08       		.byte	0x8
 952 0087 07       		.byte	0x7
 953 0088 0F000000 		.4byte	.LASF11
 954 008c 03       		.uleb128 0x3
 955 008d 40000000 		.4byte	.LASF12
 956 0091 04       		.byte	0x4
 957 0092 24       		.byte	0x24
 958 0093 97000000 		.4byte	0x97
 959 0097 04       		.uleb128 0x4
 960 0098 01       		.byte	0x1
 961 0099 02       		.byte	0x2
 962 009a 71020000 		.4byte	.LASF13
 963 009e 03       		.uleb128 0x3
 964 009f 3F010000 		.4byte	.LASF14
 965 00a3 04       		.byte	0x4
ARM GAS  /var/folders/qh/xwg3v3kj02qbxczjpdb8lzfr0000gn/T//cccPA4jh.s 			page 18


 966 00a4 2A       		.byte	0x2a
 967 00a5 65000000 		.4byte	0x65
 968 00a9 05       		.uleb128 0x5
 969 00aa 04       		.byte	0x4
 970 00ab 04       		.uleb128 0x4
 971 00ac 04       		.byte	0x4
 972 00ad 07       		.byte	0x7
 973 00ae 5D010000 		.4byte	.LASF15
 974 00b2 06       		.uleb128 0x6
 975 00b3 04       		.byte	0x4
 976 00b4 B8000000 		.4byte	0xb8
 977 00b8 07       		.uleb128 0x7
 978 00b9 BD000000 		.4byte	0xbd
 979 00bd 04       		.uleb128 0x4
 980 00be 01       		.byte	0x1
 981 00bf 08       		.byte	0x8
 982 00c0 B5020000 		.4byte	.LASF16
 983 00c4 06       		.uleb128 0x6
 984 00c5 04       		.byte	0x4
 985 00c6 CA000000 		.4byte	0xca
 986 00ca 08       		.uleb128 0x8
 987 00cb 9E000000 		.4byte	0x9e
 988 00cf D9000000 		.4byte	0xd9
 989 00d3 09       		.uleb128 0x9
 990 00d4 A9000000 		.4byte	0xa9
 991 00d8 00       		.byte	0
 992 00d9 06       		.uleb128 0x6
 993 00da 04       		.byte	0x4
 994 00db 45000000 		.4byte	0x45
 995 00df 0A       		.uleb128 0xa
 996 00e0 97020000 		.4byte	.LASF21
 997 00e4 10       		.byte	0x10
 998 00e5 05       		.byte	0x5
 999 00e6 41       		.byte	0x41
 1000 00e7 1C010000 		.4byte	0x11c
 1001 00eb 0B       		.uleb128 0xb
 1002 00ec 57010000 		.4byte	.LASF17
 1003 00f0 05       		.byte	0x5
 1004 00f1 42       		.byte	0x42
 1005 00f2 40010000 		.4byte	0x140
 1006 00f6 00       		.byte	0
 1007 00f7 0B       		.uleb128 0xb
 1008 00f8 E9020000 		.4byte	.LASF18
 1009 00fc 05       		.byte	0x5
 1010 00fd 42       		.byte	0x42
 1011 00fe 5F010000 		.4byte	0x15f
 1012 0102 04       		.byte	0x4
 1013 0103 0C       		.uleb128 0xc
 1014 0104 70757400 		.ascii	"put\000"
 1015 0108 05       		.byte	0x5
 1016 0109 42       		.byte	0x42
 1017 010a 79010000 		.4byte	0x179
 1018 010e 08       		.byte	0x8
 1019 010f 0C       		.uleb128 0xc
 1020 0110 67657400 		.ascii	"get\000"
 1021 0114 05       		.byte	0x5
 1022 0115 42       		.byte	0x42
ARM GAS  /var/folders/qh/xwg3v3kj02qbxczjpdb8lzfr0000gn/T//cccPA4jh.s 			page 19


 1023 0116 C4000000 		.4byte	0xc4
 1024 011a 0C       		.byte	0xc
 1025 011b 00       		.byte	0
 1026 011c 08       		.uleb128 0x8
 1027 011d 2C000000 		.4byte	0x2c
 1028 0121 35010000 		.4byte	0x135
 1029 0125 09       		.uleb128 0x9
 1030 0126 A9000000 		.4byte	0xa9
 1031 012a 09       		.uleb128 0x9
 1032 012b 35010000 		.4byte	0x135
 1033 012f 09       		.uleb128 0x9
 1034 0130 2C000000 		.4byte	0x2c
 1035 0134 00       		.byte	0
 1036 0135 06       		.uleb128 0x6
 1037 0136 04       		.byte	0x4
 1038 0137 3B010000 		.4byte	0x13b
 1039 013b 07       		.uleb128 0x7
 1040 013c 45000000 		.4byte	0x45
 1041 0140 06       		.uleb128 0x6
 1042 0141 04       		.byte	0x4
 1043 0142 1C010000 		.4byte	0x11c
 1044 0146 08       		.uleb128 0x8
 1045 0147 2C000000 		.4byte	0x2c
 1046 014b 5F010000 		.4byte	0x15f
 1047 014f 09       		.uleb128 0x9
 1048 0150 A9000000 		.4byte	0xa9
 1049 0154 09       		.uleb128 0x9
 1050 0155 D9000000 		.4byte	0xd9
 1051 0159 09       		.uleb128 0x9
 1052 015a 2C000000 		.4byte	0x2c
 1053 015e 00       		.byte	0
 1054 015f 06       		.uleb128 0x6
 1055 0160 04       		.byte	0x4
 1056 0161 46010000 		.4byte	0x146
 1057 0165 08       		.uleb128 0x8
 1058 0166 9E000000 		.4byte	0x9e
 1059 016a 79010000 		.4byte	0x179
 1060 016e 09       		.uleb128 0x9
 1061 016f A9000000 		.4byte	0xa9
 1062 0173 09       		.uleb128 0x9
 1063 0174 45000000 		.4byte	0x45
 1064 0178 00       		.byte	0
 1065 0179 06       		.uleb128 0x6
 1066 017a 04       		.byte	0x4
 1067 017b 65010000 		.4byte	0x165
 1068 017f 0D       		.uleb128 0xd
 1069 0180 04       		.byte	0x4
 1070 0181 05       		.byte	0x5
 1071 0182 4A       		.byte	0x4a
 1072 0183 94010000 		.4byte	0x194
 1073 0187 0C       		.uleb128 0xc
 1074 0188 766D7400 		.ascii	"vmt\000"
 1075 018c 05       		.byte	0x5
 1076 018d 4C       		.byte	0x4c
 1077 018e 94010000 		.4byte	0x194
 1078 0192 00       		.byte	0
 1079 0193 00       		.byte	0
ARM GAS  /var/folders/qh/xwg3v3kj02qbxczjpdb8lzfr0000gn/T//cccPA4jh.s 			page 20


 1080 0194 06       		.uleb128 0x6
 1081 0195 04       		.byte	0x4
 1082 0196 9A010000 		.4byte	0x19a
 1083 019a 07       		.uleb128 0x7
 1084 019b DF000000 		.4byte	0xdf
 1085 019f 03       		.uleb128 0x3
 1086 01a0 A7000000 		.4byte	.LASF19
 1087 01a4 05       		.byte	0x5
 1088 01a5 4E       		.byte	0x4e
 1089 01a6 7F010000 		.4byte	0x17f
 1090 01aa 03       		.uleb128 0x3
 1091 01ab 48020000 		.4byte	.LASF20
 1092 01af 06       		.byte	0x6
 1093 01b0 28       		.byte	0x28
 1094 01b1 B5010000 		.4byte	0x1b5
 1095 01b5 0A       		.uleb128 0xa
 1096 01b6 62000000 		.4byte	.LASF22
 1097 01ba 04       		.byte	0x4
 1098 01bb 07       		.byte	0x7
 1099 01bc 00       		.byte	0
 1100 01bd CC010000 		.4byte	0x1cc
 1101 01c1 0E       		.uleb128 0xe
 1102 01c2 D2020000 		.4byte	.LASF42
 1103 01c6 A9000000 		.4byte	0xa9
 1104 01ca 00       		.byte	0
 1105 01cb 00       		.byte	0
 1106 01cc 03       		.uleb128 0x3
 1107 01cd 07000000 		.4byte	.LASF23
 1108 01d1 06       		.byte	0x6
 1109 01d2 62       		.byte	0x62
 1110 01d3 AA010000 		.4byte	0x1aa
 1111 01d7 0A       		.uleb128 0xa
 1112 01d8 57020000 		.4byte	.LASF24
 1113 01dc 10       		.byte	0x10
 1114 01dd 08       		.byte	0x8
 1115 01de 3D       		.byte	0x3d
 1116 01df 14020000 		.4byte	0x214
 1117 01e3 0B       		.uleb128 0xb
 1118 01e4 57010000 		.4byte	.LASF17
 1119 01e8 08       		.byte	0x8
 1120 01e9 3E       		.byte	0x3e
 1121 01ea 40010000 		.4byte	0x140
 1122 01ee 00       		.byte	0
 1123 01ef 0B       		.uleb128 0xb
 1124 01f0 E9020000 		.4byte	.LASF18
 1125 01f4 08       		.byte	0x8
 1126 01f5 3E       		.byte	0x3e
 1127 01f6 5F010000 		.4byte	0x15f
 1128 01fa 04       		.byte	0x4
 1129 01fb 0C       		.uleb128 0xc
 1130 01fc 70757400 		.ascii	"put\000"
 1131 0200 08       		.byte	0x8
 1132 0201 3E       		.byte	0x3e
 1133 0202 79010000 		.4byte	0x179
 1134 0206 08       		.byte	0x8
 1135 0207 0C       		.uleb128 0xc
 1136 0208 67657400 		.ascii	"get\000"
ARM GAS  /var/folders/qh/xwg3v3kj02qbxczjpdb8lzfr0000gn/T//cccPA4jh.s 			page 21


 1137 020c 08       		.byte	0x8
 1138 020d 3E       		.byte	0x3e
 1139 020e C4000000 		.4byte	0xc4
 1140 0212 0C       		.byte	0xc
 1141 0213 00       		.byte	0
 1142 0214 0D       		.uleb128 0xd
 1143 0215 14       		.byte	0x14
 1144 0216 08       		.byte	0x8
 1145 0217 46       		.byte	0x46
 1146 0218 59020000 		.4byte	0x259
 1147 021c 0C       		.uleb128 0xc
 1148 021d 766D7400 		.ascii	"vmt\000"
 1149 0221 08       		.byte	0x8
 1150 0222 48       		.byte	0x48
 1151 0223 59020000 		.4byte	0x259
 1152 0227 00       		.byte	0
 1153 0228 0B       		.uleb128 0xb
 1154 0229 C4020000 		.4byte	.LASF25
 1155 022d 08       		.byte	0x8
 1156 022e 49       		.byte	0x49
 1157 022f D9000000 		.4byte	0xd9
 1158 0233 04       		.byte	0x4
 1159 0234 0B       		.uleb128 0xb
 1160 0235 27010000 		.4byte	.LASF26
 1161 0239 08       		.byte	0x8
 1162 023a 49       		.byte	0x49
 1163 023b 2C000000 		.4byte	0x2c
 1164 023f 08       		.byte	0x8
 1165 0240 0C       		.uleb128 0xc
 1166 0241 656F7300 		.ascii	"eos\000"
 1167 0245 08       		.byte	0x8
 1168 0246 49       		.byte	0x49
 1169 0247 2C000000 		.4byte	0x2c
 1170 024b 0C       		.byte	0xc
 1171 024c 0B       		.uleb128 0xb
 1172 024d CB020000 		.4byte	.LASF27
 1173 0251 08       		.byte	0x8
 1174 0252 49       		.byte	0x49
 1175 0253 2C000000 		.4byte	0x2c
 1176 0257 10       		.byte	0x10
 1177 0258 00       		.byte	0
 1178 0259 06       		.uleb128 0x6
 1179 025a 04       		.byte	0x4
 1180 025b 5F020000 		.4byte	0x25f
 1181 025f 07       		.uleb128 0x7
 1182 0260 D7010000 		.4byte	0x1d7
 1183 0264 03       		.uleb128 0x3
 1184 0265 64020000 		.4byte	.LASF28
 1185 0269 08       		.byte	0x8
 1186 026a 4A       		.byte	0x4a
 1187 026b 14020000 		.4byte	0x214
 1188 026f 0F       		.uleb128 0xf
 1189 0270 45010000 		.4byte	.LASF30
 1190 0274 01       		.byte	0x1
 1191 0275 46       		.byte	0x46
 1192 0276 9F020000 		.4byte	0x29f
 1193 027a 01       		.byte	0x1
ARM GAS  /var/folders/qh/xwg3v3kj02qbxczjpdb8lzfr0000gn/T//cccPA4jh.s 			page 22


 1194 027b 9F020000 		.4byte	0x29f
 1195 027f 10       		.uleb128 0x10
 1196 0280 7000     		.ascii	"p\000"
 1197 0282 01       		.byte	0x1
 1198 0283 46       		.byte	0x46
 1199 0284 9F020000 		.4byte	0x29f
 1200 0288 10       		.uleb128 0x10
 1201 0289 6E756D00 		.ascii	"num\000"
 1202 028d 01       		.byte	0x1
 1203 028e 46       		.byte	0x46
 1204 028f 70000000 		.4byte	0x70
 1205 0293 11       		.uleb128 0x11
 1206 0294 AF020000 		.4byte	.LASF29
 1207 0298 01       		.byte	0x1
 1208 0299 46       		.byte	0x46
 1209 029a 37000000 		.4byte	0x37
 1210 029e 00       		.byte	0
 1211 029f 06       		.uleb128 0x6
 1212 02a0 04       		.byte	0x4
 1213 02a1 BD000000 		.4byte	0xbd
 1214 02a5 0F       		.uleb128 0xf
 1215 02a6 EE020000 		.4byte	.LASF31
 1216 02aa 01       		.byte	0x1
 1217 02ab 25       		.byte	0x25
 1218 02ac 9F020000 		.4byte	0x29f
 1219 02b0 01       		.byte	0x1
 1220 02b1 05030000 		.4byte	0x305
 1221 02b5 10       		.uleb128 0x10
 1222 02b6 7000     		.ascii	"p\000"
 1223 02b8 01       		.byte	0x1
 1224 02b9 25       		.byte	0x25
 1225 02ba 9F020000 		.4byte	0x29f
 1226 02be 10       		.uleb128 0x10
 1227 02bf 6E756D00 		.ascii	"num\000"
 1228 02c3 01       		.byte	0x1
 1229 02c4 26       		.byte	0x26
 1230 02c5 70000000 		.4byte	0x70
 1231 02c9 11       		.uleb128 0x11
 1232 02ca AF020000 		.4byte	.LASF29
 1233 02ce 01       		.byte	0x1
 1234 02cf 27       		.byte	0x27
 1235 02d0 37000000 		.4byte	0x37
 1236 02d4 11       		.uleb128 0x11
 1237 02d5 40020000 		.4byte	.LASF32
 1238 02d9 01       		.byte	0x1
 1239 02da 28       		.byte	0x28
 1240 02db 70000000 		.4byte	0x70
 1241 02df 12       		.uleb128 0x12
 1242 02e0 6900     		.ascii	"i\000"
 1243 02e2 01       		.byte	0x1
 1244 02e3 29       		.byte	0x29
 1245 02e4 25000000 		.4byte	0x25
 1246 02e8 12       		.uleb128 0x12
 1247 02e9 7100     		.ascii	"q\000"
 1248 02eb 01       		.byte	0x1
 1249 02ec 2A       		.byte	0x2a
 1250 02ed 9F020000 		.4byte	0x29f
ARM GAS  /var/folders/qh/xwg3v3kj02qbxczjpdb8lzfr0000gn/T//cccPA4jh.s 			page 23


 1251 02f1 12       		.uleb128 0x12
 1252 02f2 6C00     		.ascii	"l\000"
 1253 02f4 01       		.byte	0x1
 1254 02f5 2B       		.byte	0x2b
 1255 02f6 70000000 		.4byte	0x70
 1256 02fa 12       		.uleb128 0x12
 1257 02fb 6C6C00   		.ascii	"ll\000"
 1258 02fe 01       		.byte	0x1
 1259 02ff 2B       		.byte	0x2b
 1260 0300 70000000 		.4byte	0x70
 1261 0304 00       		.byte	0
 1262 0305 13       		.uleb128 0x13
 1263 0306 A5020000 		.4byte	0x2a5
 1264 030a 00000000 		.4byte	.LFB12
 1265 030e 68000000 		.4byte	.LFE12-.LFB12
 1266 0312 01       		.uleb128 0x1
 1267 0313 9C       		.byte	0x9c
 1268 0314 5E030000 		.4byte	0x35e
 1269 0318 14       		.uleb128 0x14
 1270 0319 B5020000 		.4byte	0x2b5
 1271 031d 00000000 		.4byte	.LLST0
 1272 0321 14       		.uleb128 0x14
 1273 0322 BE020000 		.4byte	0x2be
 1274 0326 41000000 		.4byte	.LLST1
 1275 032a 14       		.uleb128 0x14
 1276 032b C9020000 		.4byte	0x2c9
 1277 032f 62000000 		.4byte	.LLST2
 1278 0333 15       		.uleb128 0x15
 1279 0334 DF020000 		.4byte	0x2df
 1280 0338 8E000000 		.4byte	.LLST3
 1281 033c 15       		.uleb128 0x15
 1282 033d E8020000 		.4byte	0x2e8
 1283 0341 BC000000 		.4byte	.LLST4
 1284 0345 15       		.uleb128 0x15
 1285 0346 F1020000 		.4byte	0x2f1
 1286 034a F2000000 		.4byte	.LLST5
 1287 034e 15       		.uleb128 0x15
 1288 034f FA020000 		.4byte	0x2fa
 1289 0353 26010000 		.4byte	.LLST6
 1290 0357 16       		.uleb128 0x16
 1291 0358 D4020000 		.4byte	0x2d4
 1292 035c 00       		.byte	0
 1293 035d 00       		.byte	0
 1294 035e 17       		.uleb128 0x17
 1295 035f DF020000 		.4byte	.LASF43
 1296 0363 01       		.byte	0x1
 1297 0364 70       		.byte	0x70
 1298 0365 00000000 		.4byte	.LFB10
 1299 0369 64020000 		.4byte	.LFE10-.LFB10
 1300 036d 01       		.uleb128 0x1
 1301 036e 9C       		.byte	0x9c
 1302 036f 26050000 		.4byte	0x526
 1303 0373 18       		.uleb128 0x18
 1304 0374 63687000 		.ascii	"chp\000"
 1305 0378 01       		.byte	0x1
 1306 0379 70       		.byte	0x70
 1307 037a 26050000 		.4byte	0x526
ARM GAS  /var/folders/qh/xwg3v3kj02qbxczjpdb8lzfr0000gn/T//cccPA4jh.s 			page 24


 1308 037e 5A010000 		.4byte	.LLST7
 1309 0382 18       		.uleb128 0x18
 1310 0383 666D7400 		.ascii	"fmt\000"
 1311 0387 01       		.byte	0x1
 1312 0388 70       		.byte	0x70
 1313 0389 B2000000 		.4byte	0xb2
 1314 038d 91010000 		.4byte	.LLST8
 1315 0391 18       		.uleb128 0x18
 1316 0392 617000   		.ascii	"ap\000"
 1317 0395 01       		.byte	0x1
 1318 0396 70       		.byte	0x70
 1319 0397 CC010000 		.4byte	0x1cc
 1320 039b 77020000 		.4byte	.LLST9
 1321 039f 19       		.uleb128 0x19
 1322 03a0 7000     		.ascii	"p\000"
 1323 03a2 01       		.byte	0x1
 1324 03a3 71       		.byte	0x71
 1325 03a4 9F020000 		.4byte	0x29f
 1326 03a8 78030000 		.4byte	.LLST10
 1327 03ac 19       		.uleb128 0x19
 1328 03ad 7300     		.ascii	"s\000"
 1329 03af 01       		.byte	0x1
 1330 03b0 71       		.byte	0x71
 1331 03b1 9F020000 		.4byte	0x29f
 1332 03b5 15040000 		.4byte	.LLST11
 1333 03b9 19       		.uleb128 0x19
 1334 03ba 6300     		.ascii	"c\000"
 1335 03bc 01       		.byte	0x1
 1336 03bd 71       		.byte	0x71
 1337 03be BD000000 		.4byte	0xbd
 1338 03c2 9D040000 		.4byte	.LLST12
 1339 03c6 1A       		.uleb128 0x1a
 1340 03c7 98000000 		.4byte	.LASF33
 1341 03cb 01       		.byte	0x1
 1342 03cc 71       		.byte	0x71
 1343 03cd BD000000 		.4byte	0xbd
 1344 03d1 8A050000 		.4byte	.LLST13
 1345 03d5 19       		.uleb128 0x19
 1346 03d6 6900     		.ascii	"i\000"
 1347 03d8 01       		.byte	0x1
 1348 03d9 72       		.byte	0x72
 1349 03da 25000000 		.4byte	0x25
 1350 03de 22060000 		.4byte	.LLST14
 1351 03e2 1A       		.uleb128 0x1a
 1352 03e3 BA020000 		.4byte	.LASF34
 1353 03e7 01       		.byte	0x1
 1354 03e8 72       		.byte	0x72
 1355 03e9 25000000 		.4byte	0x25
 1356 03ed 42060000 		.4byte	.LLST15
 1357 03f1 1A       		.uleb128 0x1a
 1358 03f2 21010000 		.4byte	.LASF35
 1359 03f6 01       		.byte	0x1
 1360 03f7 72       		.byte	0x72
 1361 03f8 25000000 		.4byte	0x25
 1362 03fc 7B060000 		.4byte	.LLST16
 1363 0400 1A       		.uleb128 0x1a
 1364 0401 9F000000 		.4byte	.LASF36
ARM GAS  /var/folders/qh/xwg3v3kj02qbxczjpdb8lzfr0000gn/T//cccPA4jh.s 			page 25


 1365 0405 01       		.byte	0x1
 1366 0406 73       		.byte	0x73
 1367 0407 8C000000 		.4byte	0x8c
 1368 040b 18070000 		.4byte	.LLST17
 1369 040f 1A       		.uleb128 0x1a
 1370 0410 DB000000 		.4byte	.LASF37
 1371 0414 01       		.byte	0x1
 1372 0415 73       		.byte	0x73
 1373 0416 8C000000 		.4byte	0x8c
 1374 041a 2C070000 		.4byte	.LLST18
 1375 041e 19       		.uleb128 0x19
 1376 041f 6C00     		.ascii	"l\000"
 1377 0421 01       		.byte	0x1
 1378 0422 74       		.byte	0x74
 1379 0423 70000000 		.4byte	0x70
 1380 0427 70070000 		.4byte	.LLST19
 1381 042b 1B       		.uleb128 0x1b
 1382 042c 47000000 		.4byte	.LASF38
 1383 0430 01       		.byte	0x1
 1384 0431 79       		.byte	0x79
 1385 0432 2C050000 		.4byte	0x52c
 1386 0436 02       		.uleb128 0x2
 1387 0437 91       		.byte	0x91
 1388 0438 4C       		.sleb128 -52
 1389 0439 1C       		.uleb128 0x1c
 1390 043a 88000000 		.4byte	.LASF44
 1391 043e 01       		.byte	0x1
 1392 043f E4       		.byte	0xe4
 1393 0440 B8000000 		.4byte	.L29
 1394 0444 1D       		.uleb128 0x1d
 1395 0445 6F020000 		.4byte	0x26f
 1396 0449 BA000000 		.4byte	.LBB6
 1397 044d 00000000 		.4byte	.Ldebug_ranges0+0
 1398 0451 01       		.byte	0x1
 1399 0452 E9       		.byte	0xe9
 1400 0453 70040000 		.4byte	0x470
 1401 0457 1E       		.uleb128 0x1e
 1402 0458 93020000 		.4byte	0x293
 1403 045c 1E       		.uleb128 0x1e
 1404 045d 88020000 		.4byte	0x288
 1405 0461 1E       		.uleb128 0x1e
 1406 0462 7F020000 		.4byte	0x27f
 1407 0466 1F       		.uleb128 0x1f
 1408 0467 C2000000 		.4byte	.LVL52
 1409 046b 05030000 		.4byte	0x305
 1410 046f 00       		.byte	0
 1411 0470 1D       		.uleb128 0x1d
 1412 0471 6F020000 		.4byte	0x26f
 1413 0475 20010000 		.4byte	.LBB10
 1414 0479 18000000 		.4byte	.Ldebug_ranges0+0x18
 1415 047d 01       		.byte	0x1
 1416 047e CD       		.byte	0xcd
 1417 047f 9F040000 		.4byte	0x49f
 1418 0483 14       		.uleb128 0x14
 1419 0484 93020000 		.4byte	0x293
 1420 0488 99070000 		.4byte	.LLST20
 1421 048c 14       		.uleb128 0x14
ARM GAS  /var/folders/qh/xwg3v3kj02qbxczjpdb8lzfr0000gn/T//cccPA4jh.s 			page 26


 1422 048d 88020000 		.4byte	0x288
 1423 0491 B9070000 		.4byte	.LLST21
 1424 0495 14       		.uleb128 0x14
 1425 0496 7F020000 		.4byte	0x27f
 1426 049a D7070000 		.4byte	.LLST22
 1427 049e 00       		.byte	0
 1428 049f 20       		.uleb128 0x20
 1429 04a0 38000000 		.4byte	.LVL29
 1430 04a4 AF040000 		.4byte	0x4af
 1431 04a8 21       		.uleb128 0x21
 1432 04a9 01       		.uleb128 0x1
 1433 04aa 50       		.byte	0x50
 1434 04ab 02       		.uleb128 0x2
 1435 04ac 77       		.byte	0x77
 1436 04ad 00       		.sleb128 0
 1437 04ae 00       		.byte	0
 1438 04af 20       		.uleb128 0x20
 1439 04b0 FC000000 		.4byte	.LVL61
 1440 04b4 C5040000 		.4byte	0x4c5
 1441 04b8 21       		.uleb128 0x21
 1442 04b9 01       		.uleb128 0x1
 1443 04ba 51       		.byte	0x51
 1444 04bb 02       		.uleb128 0x2
 1445 04bc 74       		.byte	0x74
 1446 04bd 00       		.sleb128 0
 1447 04be 21       		.uleb128 0x21
 1448 04bf 01       		.uleb128 0x1
 1449 04c0 50       		.byte	0x50
 1450 04c1 02       		.uleb128 0x2
 1451 04c2 77       		.byte	0x77
 1452 04c3 00       		.sleb128 0
 1453 04c4 00       		.byte	0
 1454 04c5 20       		.uleb128 0x20
 1455 04c6 0E010000 		.4byte	.LVL63
 1456 04ca E1040000 		.4byte	0x4e1
 1457 04ce 21       		.uleb128 0x21
 1458 04cf 01       		.uleb128 0x1
 1459 04d0 52       		.byte	0x52
 1460 04d1 02       		.uleb128 0x2
 1461 04d2 79       		.byte	0x79
 1462 04d3 00       		.sleb128 0
 1463 04d4 21       		.uleb128 0x21
 1464 04d5 01       		.uleb128 0x1
 1465 04d6 51       		.byte	0x51
 1466 04d7 02       		.uleb128 0x2
 1467 04d8 7A       		.byte	0x7a
 1468 04d9 00       		.sleb128 0
 1469 04da 21       		.uleb128 0x21
 1470 04db 01       		.uleb128 0x1
 1471 04dc 50       		.byte	0x50
 1472 04dd 02       		.uleb128 0x2
 1473 04de 77       		.byte	0x77
 1474 04df 00       		.sleb128 0
 1475 04e0 00       		.byte	0
 1476 04e1 20       		.uleb128 0x20
 1477 04e2 7E010000 		.4byte	.LVL85
 1478 04e6 FD040000 		.4byte	0x4fd
ARM GAS  /var/folders/qh/xwg3v3kj02qbxczjpdb8lzfr0000gn/T//cccPA4jh.s 			page 27


 1479 04ea 21       		.uleb128 0x21
 1480 04eb 01       		.uleb128 0x1
 1481 04ec 52       		.byte	0x52
 1482 04ed 02       		.uleb128 0x2
 1483 04ee 79       		.byte	0x79
 1484 04ef 00       		.sleb128 0
 1485 04f0 21       		.uleb128 0x21
 1486 04f1 01       		.uleb128 0x1
 1487 04f2 51       		.byte	0x51
 1488 04f3 02       		.uleb128 0x2
 1489 04f4 7A       		.byte	0x7a
 1490 04f5 00       		.sleb128 0
 1491 04f6 21       		.uleb128 0x21
 1492 04f7 01       		.uleb128 0x1
 1493 04f8 50       		.byte	0x50
 1494 04f9 02       		.uleb128 0x2
 1495 04fa 77       		.byte	0x77
 1496 04fb 00       		.sleb128 0
 1497 04fc 00       		.byte	0
 1498 04fd 20       		.uleb128 0x20
 1499 04fe 96010000 		.4byte	.LVL89
 1500 0502 13050000 		.4byte	0x513
 1501 0506 21       		.uleb128 0x21
 1502 0507 01       		.uleb128 0x1
 1503 0508 51       		.byte	0x51
 1504 0509 02       		.uleb128 0x2
 1505 050a 74       		.byte	0x74
 1506 050b 00       		.sleb128 0
 1507 050c 21       		.uleb128 0x21
 1508 050d 01       		.uleb128 0x1
 1509 050e 50       		.byte	0x50
 1510 050f 02       		.uleb128 0x2
 1511 0510 77       		.byte	0x77
 1512 0511 00       		.sleb128 0
 1513 0512 00       		.byte	0
 1514 0513 22       		.uleb128 0x22
 1515 0514 28020000 		.4byte	.LVL115
 1516 0518 21       		.uleb128 0x21
 1517 0519 01       		.uleb128 0x1
 1518 051a 51       		.byte	0x51
 1519 051b 02       		.uleb128 0x2
 1520 051c 08       		.byte	0x8
 1521 051d 2D       		.byte	0x2d
 1522 051e 21       		.uleb128 0x21
 1523 051f 01       		.uleb128 0x1
 1524 0520 50       		.byte	0x50
 1525 0521 02       		.uleb128 0x2
 1526 0522 77       		.byte	0x77
 1527 0523 00       		.sleb128 0
 1528 0524 00       		.byte	0
 1529 0525 00       		.byte	0
 1530 0526 06       		.uleb128 0x6
 1531 0527 04       		.byte	0x4
 1532 0528 9F010000 		.4byte	0x19f
 1533 052c 23       		.uleb128 0x23
 1534 052d BD000000 		.4byte	0xbd
 1535 0531 3C050000 		.4byte	0x53c
ARM GAS  /var/folders/qh/xwg3v3kj02qbxczjpdb8lzfr0000gn/T//cccPA4jh.s 			page 28


 1536 0535 24       		.uleb128 0x24
 1537 0536 AB000000 		.4byte	0xab
 1538 053a 0B       		.byte	0xb
 1539 053b 00       		.byte	0
 1540 053c 25       		.uleb128 0x25
 1541 053d 57000000 		.4byte	.LASF45
 1542 0541 01       		.byte	0x1
 1543 0542 2001     		.2byte	0x120
 1544 0544 25000000 		.4byte	0x25
 1545 0548 00000000 		.4byte	.LFB11
 1546 054c 3C000000 		.4byte	.LFE11-.LFB11
 1547 0550 01       		.uleb128 0x1
 1548 0551 9C       		.byte	0x9c
 1549 0552 0C060000 		.4byte	0x60c
 1550 0556 26       		.uleb128 0x26
 1551 0557 73747200 		.ascii	"str\000"
 1552 055b 01       		.byte	0x1
 1553 055c 2001     		.2byte	0x120
 1554 055e 9F020000 		.4byte	0x29f
 1555 0562 F5070000 		.4byte	.LLST23
 1556 0566 27       		.uleb128 0x27
 1557 0567 27010000 		.4byte	.LASF26
 1558 056b 01       		.byte	0x1
 1559 056c 2001     		.2byte	0x120
 1560 056e 2C000000 		.4byte	0x2c
 1561 0572 2C080000 		.4byte	.LLST24
 1562 0576 28       		.uleb128 0x28
 1563 0577 666D7400 		.ascii	"fmt\000"
 1564 057b 01       		.byte	0x1
 1565 057c 2001     		.2byte	0x120
 1566 057e B2000000 		.4byte	0xb2
 1567 0582 02       		.uleb128 0x2
 1568 0583 91       		.byte	0x91
 1569 0584 78       		.sleb128 -8
 1570 0585 29       		.uleb128 0x29
 1571 0586 2A       		.uleb128 0x2a
 1572 0587 617000   		.ascii	"ap\000"
 1573 058a 01       		.byte	0x1
 1574 058b 2101     		.2byte	0x121
 1575 058d CC010000 		.4byte	0x1cc
 1576 0591 02       		.uleb128 0x2
 1577 0592 91       		.byte	0x91
 1578 0593 58       		.sleb128 -40
 1579 0594 2A       		.uleb128 0x2a
 1580 0595 6D7300   		.ascii	"ms\000"
 1581 0598 01       		.byte	0x1
 1582 0599 2201     		.2byte	0x122
 1583 059b 64020000 		.4byte	0x264
 1584 059f 02       		.uleb128 0x2
 1585 05a0 91       		.byte	0x91
 1586 05a1 5C       		.sleb128 -36
 1587 05a2 2B       		.uleb128 0x2b
 1588 05a3 63687000 		.ascii	"chp\000"
 1589 05a7 01       		.byte	0x1
 1590 05a8 2301     		.2byte	0x123
 1591 05aa 26050000 		.4byte	0x526
 1592 05ae 58080000 		.4byte	.LLST25
ARM GAS  /var/folders/qh/xwg3v3kj02qbxczjpdb8lzfr0000gn/T//cccPA4jh.s 			page 29


 1593 05b2 2C       		.uleb128 0x2c
 1594 05b3 18000000 		.4byte	.LVL129
 1595 05b7 0C060000 		.4byte	0x60c
 1596 05bb D9050000 		.4byte	0x5d9
 1597 05bf 21       		.uleb128 0x21
 1598 05c0 01       		.uleb128 0x1
 1599 05c1 53       		.byte	0x53
 1600 05c2 01       		.uleb128 0x1
 1601 05c3 30       		.byte	0x30
 1602 05c4 21       		.uleb128 0x21
 1603 05c5 01       		.uleb128 0x1
 1604 05c6 52       		.byte	0x52
 1605 05c7 03       		.uleb128 0x3
 1606 05c8 F3       		.byte	0xf3
 1607 05c9 01       		.uleb128 0x1
 1608 05ca 51       		.byte	0x51
 1609 05cb 21       		.uleb128 0x21
 1610 05cc 01       		.uleb128 0x1
 1611 05cd 51       		.byte	0x51
 1612 05ce 03       		.uleb128 0x3
 1613 05cf F3       		.byte	0xf3
 1614 05d0 01       		.uleb128 0x1
 1615 05d1 50       		.byte	0x50
 1616 05d2 21       		.uleb128 0x21
 1617 05d3 01       		.uleb128 0x1
 1618 05d4 50       		.byte	0x50
 1619 05d5 02       		.uleb128 0x2
 1620 05d6 91       		.byte	0x91
 1621 05d7 4C       		.sleb128 -52
 1622 05d8 00       		.byte	0
 1623 05d9 2C       		.uleb128 0x2c
 1624 05da 24000000 		.4byte	.LVL131
 1625 05de 5E030000 		.4byte	0x35e
 1626 05e2 FA050000 		.4byte	0x5fa
 1627 05e6 21       		.uleb128 0x21
 1628 05e7 01       		.uleb128 0x1
 1629 05e8 52       		.byte	0x52
 1630 05e9 02       		.uleb128 0x2
 1631 05ea 74       		.byte	0x74
 1632 05eb 00       		.sleb128 0
 1633 05ec 21       		.uleb128 0x21
 1634 05ed 01       		.uleb128 0x1
 1635 05ee 51       		.byte	0x51
 1636 05ef 03       		.uleb128 0x3
 1637 05f0 74       		.byte	0x74
 1638 05f1 7C       		.sleb128 -4
 1639 05f2 06       		.byte	0x6
 1640 05f3 21       		.uleb128 0x21
 1641 05f4 01       		.uleb128 0x1
 1642 05f5 50       		.byte	0x50
 1643 05f6 02       		.uleb128 0x2
 1644 05f7 91       		.byte	0x91
 1645 05f8 4C       		.sleb128 -52
 1646 05f9 00       		.byte	0
 1647 05fa 22       		.uleb128 0x22
 1648 05fb 2E000000 		.4byte	.LVL133
 1649 05ff 21       		.uleb128 0x21
ARM GAS  /var/folders/qh/xwg3v3kj02qbxczjpdb8lzfr0000gn/T//cccPA4jh.s 			page 30


 1650 0600 01       		.uleb128 0x1
 1651 0601 51       		.byte	0x51
 1652 0602 01       		.uleb128 0x1
 1653 0603 30       		.byte	0x30
 1654 0604 21       		.uleb128 0x21
 1655 0605 01       		.uleb128 0x1
 1656 0606 50       		.byte	0x50
 1657 0607 02       		.uleb128 0x2
 1658 0608 91       		.byte	0x91
 1659 0609 4C       		.sleb128 -52
 1660 060a 00       		.byte	0
 1661 060b 00       		.byte	0
 1662 060c 2D       		.uleb128 0x2d
 1663 060d 4A010000 		.4byte	.LASF46
 1664 0611 08       		.byte	0x8
 1665 0612 57       		.byte	0x57
 1666 0613 2C060000 		.4byte	0x62c
 1667 0617 09       		.uleb128 0x9
 1668 0618 2C060000 		.4byte	0x62c
 1669 061c 09       		.uleb128 0x9
 1670 061d D9000000 		.4byte	0xd9
 1671 0621 09       		.uleb128 0x9
 1672 0622 2C000000 		.4byte	0x2c
 1673 0626 09       		.uleb128 0x9
 1674 0627 2C000000 		.4byte	0x2c
 1675 062b 00       		.byte	0
 1676 062c 06       		.uleb128 0x6
 1677 062d 04       		.byte	0x4
 1678 062e 64020000 		.4byte	0x264
 1679 0632 00       		.byte	0
 1680              		.section	.debug_abbrev,"",%progbits
 1681              	.Ldebug_abbrev0:
 1682 0000 01       		.uleb128 0x1
 1683 0001 11       		.uleb128 0x11
 1684 0002 01       		.byte	0x1
 1685 0003 25       		.uleb128 0x25
 1686 0004 0E       		.uleb128 0xe
 1687 0005 13       		.uleb128 0x13
 1688 0006 0B       		.uleb128 0xb
 1689 0007 03       		.uleb128 0x3
 1690 0008 0E       		.uleb128 0xe
 1691 0009 1B       		.uleb128 0x1b
 1692 000a 0E       		.uleb128 0xe
 1693 000b 55       		.uleb128 0x55
 1694 000c 17       		.uleb128 0x17
 1695 000d 11       		.uleb128 0x11
 1696 000e 01       		.uleb128 0x1
 1697 000f 10       		.uleb128 0x10
 1698 0010 17       		.uleb128 0x17
 1699 0011 00       		.byte	0
 1700 0012 00       		.byte	0
 1701 0013 02       		.uleb128 0x2
 1702 0014 24       		.uleb128 0x24
 1703 0015 00       		.byte	0
 1704 0016 0B       		.uleb128 0xb
 1705 0017 0B       		.uleb128 0xb
 1706 0018 3E       		.uleb128 0x3e
ARM GAS  /var/folders/qh/xwg3v3kj02qbxczjpdb8lzfr0000gn/T//cccPA4jh.s 			page 31


 1707 0019 0B       		.uleb128 0xb
 1708 001a 03       		.uleb128 0x3
 1709 001b 08       		.uleb128 0x8
 1710 001c 00       		.byte	0
 1711 001d 00       		.byte	0
 1712 001e 03       		.uleb128 0x3
 1713 001f 16       		.uleb128 0x16
 1714 0020 00       		.byte	0
 1715 0021 03       		.uleb128 0x3
 1716 0022 0E       		.uleb128 0xe
 1717 0023 3A       		.uleb128 0x3a
 1718 0024 0B       		.uleb128 0xb
 1719 0025 3B       		.uleb128 0x3b
 1720 0026 0B       		.uleb128 0xb
 1721 0027 49       		.uleb128 0x49
 1722 0028 13       		.uleb128 0x13
 1723 0029 00       		.byte	0
 1724 002a 00       		.byte	0
 1725 002b 04       		.uleb128 0x4
 1726 002c 24       		.uleb128 0x24
 1727 002d 00       		.byte	0
 1728 002e 0B       		.uleb128 0xb
 1729 002f 0B       		.uleb128 0xb
 1730 0030 3E       		.uleb128 0x3e
 1731 0031 0B       		.uleb128 0xb
 1732 0032 03       		.uleb128 0x3
 1733 0033 0E       		.uleb128 0xe
 1734 0034 00       		.byte	0
 1735 0035 00       		.byte	0
 1736 0036 05       		.uleb128 0x5
 1737 0037 0F       		.uleb128 0xf
 1738 0038 00       		.byte	0
 1739 0039 0B       		.uleb128 0xb
 1740 003a 0B       		.uleb128 0xb
 1741 003b 00       		.byte	0
 1742 003c 00       		.byte	0
 1743 003d 06       		.uleb128 0x6
 1744 003e 0F       		.uleb128 0xf
 1745 003f 00       		.byte	0
 1746 0040 0B       		.uleb128 0xb
 1747 0041 0B       		.uleb128 0xb
 1748 0042 49       		.uleb128 0x49
 1749 0043 13       		.uleb128 0x13
 1750 0044 00       		.byte	0
 1751 0045 00       		.byte	0
 1752 0046 07       		.uleb128 0x7
 1753 0047 26       		.uleb128 0x26
 1754 0048 00       		.byte	0
 1755 0049 49       		.uleb128 0x49
 1756 004a 13       		.uleb128 0x13
 1757 004b 00       		.byte	0
 1758 004c 00       		.byte	0
 1759 004d 08       		.uleb128 0x8
 1760 004e 15       		.uleb128 0x15
 1761 004f 01       		.byte	0x1
 1762 0050 27       		.uleb128 0x27
 1763 0051 19       		.uleb128 0x19
ARM GAS  /var/folders/qh/xwg3v3kj02qbxczjpdb8lzfr0000gn/T//cccPA4jh.s 			page 32


 1764 0052 49       		.uleb128 0x49
 1765 0053 13       		.uleb128 0x13
 1766 0054 01       		.uleb128 0x1
 1767 0055 13       		.uleb128 0x13
 1768 0056 00       		.byte	0
 1769 0057 00       		.byte	0
 1770 0058 09       		.uleb128 0x9
 1771 0059 05       		.uleb128 0x5
 1772 005a 00       		.byte	0
 1773 005b 49       		.uleb128 0x49
 1774 005c 13       		.uleb128 0x13
 1775 005d 00       		.byte	0
 1776 005e 00       		.byte	0
 1777 005f 0A       		.uleb128 0xa
 1778 0060 13       		.uleb128 0x13
 1779 0061 01       		.byte	0x1
 1780 0062 03       		.uleb128 0x3
 1781 0063 0E       		.uleb128 0xe
 1782 0064 0B       		.uleb128 0xb
 1783 0065 0B       		.uleb128 0xb
 1784 0066 3A       		.uleb128 0x3a
 1785 0067 0B       		.uleb128 0xb
 1786 0068 3B       		.uleb128 0x3b
 1787 0069 0B       		.uleb128 0xb
 1788 006a 01       		.uleb128 0x1
 1789 006b 13       		.uleb128 0x13
 1790 006c 00       		.byte	0
 1791 006d 00       		.byte	0
 1792 006e 0B       		.uleb128 0xb
 1793 006f 0D       		.uleb128 0xd
 1794 0070 00       		.byte	0
 1795 0071 03       		.uleb128 0x3
 1796 0072 0E       		.uleb128 0xe
 1797 0073 3A       		.uleb128 0x3a
 1798 0074 0B       		.uleb128 0xb
 1799 0075 3B       		.uleb128 0x3b
 1800 0076 0B       		.uleb128 0xb
 1801 0077 49       		.uleb128 0x49
 1802 0078 13       		.uleb128 0x13
 1803 0079 38       		.uleb128 0x38
 1804 007a 0B       		.uleb128 0xb
 1805 007b 00       		.byte	0
 1806 007c 00       		.byte	0
 1807 007d 0C       		.uleb128 0xc
 1808 007e 0D       		.uleb128 0xd
 1809 007f 00       		.byte	0
 1810 0080 03       		.uleb128 0x3
 1811 0081 08       		.uleb128 0x8
 1812 0082 3A       		.uleb128 0x3a
 1813 0083 0B       		.uleb128 0xb
 1814 0084 3B       		.uleb128 0x3b
 1815 0085 0B       		.uleb128 0xb
 1816 0086 49       		.uleb128 0x49
 1817 0087 13       		.uleb128 0x13
 1818 0088 38       		.uleb128 0x38
 1819 0089 0B       		.uleb128 0xb
 1820 008a 00       		.byte	0
ARM GAS  /var/folders/qh/xwg3v3kj02qbxczjpdb8lzfr0000gn/T//cccPA4jh.s 			page 33


 1821 008b 00       		.byte	0
 1822 008c 0D       		.uleb128 0xd
 1823 008d 13       		.uleb128 0x13
 1824 008e 01       		.byte	0x1
 1825 008f 0B       		.uleb128 0xb
 1826 0090 0B       		.uleb128 0xb
 1827 0091 3A       		.uleb128 0x3a
 1828 0092 0B       		.uleb128 0xb
 1829 0093 3B       		.uleb128 0x3b
 1830 0094 0B       		.uleb128 0xb
 1831 0095 01       		.uleb128 0x1
 1832 0096 13       		.uleb128 0x13
 1833 0097 00       		.byte	0
 1834 0098 00       		.byte	0
 1835 0099 0E       		.uleb128 0xe
 1836 009a 0D       		.uleb128 0xd
 1837 009b 00       		.byte	0
 1838 009c 03       		.uleb128 0x3
 1839 009d 0E       		.uleb128 0xe
 1840 009e 49       		.uleb128 0x49
 1841 009f 13       		.uleb128 0x13
 1842 00a0 38       		.uleb128 0x38
 1843 00a1 0B       		.uleb128 0xb
 1844 00a2 34       		.uleb128 0x34
 1845 00a3 19       		.uleb128 0x19
 1846 00a4 00       		.byte	0
 1847 00a5 00       		.byte	0
 1848 00a6 0F       		.uleb128 0xf
 1849 00a7 2E       		.uleb128 0x2e
 1850 00a8 01       		.byte	0x1
 1851 00a9 03       		.uleb128 0x3
 1852 00aa 0E       		.uleb128 0xe
 1853 00ab 3A       		.uleb128 0x3a
 1854 00ac 0B       		.uleb128 0xb
 1855 00ad 3B       		.uleb128 0x3b
 1856 00ae 0B       		.uleb128 0xb
 1857 00af 27       		.uleb128 0x27
 1858 00b0 19       		.uleb128 0x19
 1859 00b1 49       		.uleb128 0x49
 1860 00b2 13       		.uleb128 0x13
 1861 00b3 20       		.uleb128 0x20
 1862 00b4 0B       		.uleb128 0xb
 1863 00b5 01       		.uleb128 0x1
 1864 00b6 13       		.uleb128 0x13
 1865 00b7 00       		.byte	0
 1866 00b8 00       		.byte	0
 1867 00b9 10       		.uleb128 0x10
 1868 00ba 05       		.uleb128 0x5
 1869 00bb 00       		.byte	0
 1870 00bc 03       		.uleb128 0x3
 1871 00bd 08       		.uleb128 0x8
 1872 00be 3A       		.uleb128 0x3a
 1873 00bf 0B       		.uleb128 0xb
 1874 00c0 3B       		.uleb128 0x3b
 1875 00c1 0B       		.uleb128 0xb
 1876 00c2 49       		.uleb128 0x49
 1877 00c3 13       		.uleb128 0x13
ARM GAS  /var/folders/qh/xwg3v3kj02qbxczjpdb8lzfr0000gn/T//cccPA4jh.s 			page 34


 1878 00c4 00       		.byte	0
 1879 00c5 00       		.byte	0
 1880 00c6 11       		.uleb128 0x11
 1881 00c7 05       		.uleb128 0x5
 1882 00c8 00       		.byte	0
 1883 00c9 03       		.uleb128 0x3
 1884 00ca 0E       		.uleb128 0xe
 1885 00cb 3A       		.uleb128 0x3a
 1886 00cc 0B       		.uleb128 0xb
 1887 00cd 3B       		.uleb128 0x3b
 1888 00ce 0B       		.uleb128 0xb
 1889 00cf 49       		.uleb128 0x49
 1890 00d0 13       		.uleb128 0x13
 1891 00d1 00       		.byte	0
 1892 00d2 00       		.byte	0
 1893 00d3 12       		.uleb128 0x12
 1894 00d4 34       		.uleb128 0x34
 1895 00d5 00       		.byte	0
 1896 00d6 03       		.uleb128 0x3
 1897 00d7 08       		.uleb128 0x8
 1898 00d8 3A       		.uleb128 0x3a
 1899 00d9 0B       		.uleb128 0xb
 1900 00da 3B       		.uleb128 0x3b
 1901 00db 0B       		.uleb128 0xb
 1902 00dc 49       		.uleb128 0x49
 1903 00dd 13       		.uleb128 0x13
 1904 00de 00       		.byte	0
 1905 00df 00       		.byte	0
 1906 00e0 13       		.uleb128 0x13
 1907 00e1 2E       		.uleb128 0x2e
 1908 00e2 01       		.byte	0x1
 1909 00e3 31       		.uleb128 0x31
 1910 00e4 13       		.uleb128 0x13
 1911 00e5 11       		.uleb128 0x11
 1912 00e6 01       		.uleb128 0x1
 1913 00e7 12       		.uleb128 0x12
 1914 00e8 06       		.uleb128 0x6
 1915 00e9 40       		.uleb128 0x40
 1916 00ea 18       		.uleb128 0x18
 1917 00eb 9642     		.uleb128 0x2116
 1918 00ed 19       		.uleb128 0x19
 1919 00ee 01       		.uleb128 0x1
 1920 00ef 13       		.uleb128 0x13
 1921 00f0 00       		.byte	0
 1922 00f1 00       		.byte	0
 1923 00f2 14       		.uleb128 0x14
 1924 00f3 05       		.uleb128 0x5
 1925 00f4 00       		.byte	0
 1926 00f5 31       		.uleb128 0x31
 1927 00f6 13       		.uleb128 0x13
 1928 00f7 02       		.uleb128 0x2
 1929 00f8 17       		.uleb128 0x17
 1930 00f9 00       		.byte	0
 1931 00fa 00       		.byte	0
 1932 00fb 15       		.uleb128 0x15
 1933 00fc 34       		.uleb128 0x34
 1934 00fd 00       		.byte	0
ARM GAS  /var/folders/qh/xwg3v3kj02qbxczjpdb8lzfr0000gn/T//cccPA4jh.s 			page 35


 1935 00fe 31       		.uleb128 0x31
 1936 00ff 13       		.uleb128 0x13
 1937 0100 02       		.uleb128 0x2
 1938 0101 17       		.uleb128 0x17
 1939 0102 00       		.byte	0
 1940 0103 00       		.byte	0
 1941 0104 16       		.uleb128 0x16
 1942 0105 05       		.uleb128 0x5
 1943 0106 00       		.byte	0
 1944 0107 31       		.uleb128 0x31
 1945 0108 13       		.uleb128 0x13
 1946 0109 1C       		.uleb128 0x1c
 1947 010a 0B       		.uleb128 0xb
 1948 010b 00       		.byte	0
 1949 010c 00       		.byte	0
 1950 010d 17       		.uleb128 0x17
 1951 010e 2E       		.uleb128 0x2e
 1952 010f 01       		.byte	0x1
 1953 0110 3F       		.uleb128 0x3f
 1954 0111 19       		.uleb128 0x19
 1955 0112 03       		.uleb128 0x3
 1956 0113 0E       		.uleb128 0xe
 1957 0114 3A       		.uleb128 0x3a
 1958 0115 0B       		.uleb128 0xb
 1959 0116 3B       		.uleb128 0x3b
 1960 0117 0B       		.uleb128 0xb
 1961 0118 27       		.uleb128 0x27
 1962 0119 19       		.uleb128 0x19
 1963 011a 11       		.uleb128 0x11
 1964 011b 01       		.uleb128 0x1
 1965 011c 12       		.uleb128 0x12
 1966 011d 06       		.uleb128 0x6
 1967 011e 40       		.uleb128 0x40
 1968 011f 18       		.uleb128 0x18
 1969 0120 9742     		.uleb128 0x2117
 1970 0122 19       		.uleb128 0x19
 1971 0123 01       		.uleb128 0x1
 1972 0124 13       		.uleb128 0x13
 1973 0125 00       		.byte	0
 1974 0126 00       		.byte	0
 1975 0127 18       		.uleb128 0x18
 1976 0128 05       		.uleb128 0x5
 1977 0129 00       		.byte	0
 1978 012a 03       		.uleb128 0x3
 1979 012b 08       		.uleb128 0x8
 1980 012c 3A       		.uleb128 0x3a
 1981 012d 0B       		.uleb128 0xb
 1982 012e 3B       		.uleb128 0x3b
 1983 012f 0B       		.uleb128 0xb
 1984 0130 49       		.uleb128 0x49
 1985 0131 13       		.uleb128 0x13
 1986 0132 02       		.uleb128 0x2
 1987 0133 17       		.uleb128 0x17
 1988 0134 00       		.byte	0
 1989 0135 00       		.byte	0
 1990 0136 19       		.uleb128 0x19
 1991 0137 34       		.uleb128 0x34
ARM GAS  /var/folders/qh/xwg3v3kj02qbxczjpdb8lzfr0000gn/T//cccPA4jh.s 			page 36


 1992 0138 00       		.byte	0
 1993 0139 03       		.uleb128 0x3
 1994 013a 08       		.uleb128 0x8
 1995 013b 3A       		.uleb128 0x3a
 1996 013c 0B       		.uleb128 0xb
 1997 013d 3B       		.uleb128 0x3b
 1998 013e 0B       		.uleb128 0xb
 1999 013f 49       		.uleb128 0x49
 2000 0140 13       		.uleb128 0x13
 2001 0141 02       		.uleb128 0x2
 2002 0142 17       		.uleb128 0x17
 2003 0143 00       		.byte	0
 2004 0144 00       		.byte	0
 2005 0145 1A       		.uleb128 0x1a
 2006 0146 34       		.uleb128 0x34
 2007 0147 00       		.byte	0
 2008 0148 03       		.uleb128 0x3
 2009 0149 0E       		.uleb128 0xe
 2010 014a 3A       		.uleb128 0x3a
 2011 014b 0B       		.uleb128 0xb
 2012 014c 3B       		.uleb128 0x3b
 2013 014d 0B       		.uleb128 0xb
 2014 014e 49       		.uleb128 0x49
 2015 014f 13       		.uleb128 0x13
 2016 0150 02       		.uleb128 0x2
 2017 0151 17       		.uleb128 0x17
 2018 0152 00       		.byte	0
 2019 0153 00       		.byte	0
 2020 0154 1B       		.uleb128 0x1b
 2021 0155 34       		.uleb128 0x34
 2022 0156 00       		.byte	0
 2023 0157 03       		.uleb128 0x3
 2024 0158 0E       		.uleb128 0xe
 2025 0159 3A       		.uleb128 0x3a
 2026 015a 0B       		.uleb128 0xb
 2027 015b 3B       		.uleb128 0x3b
 2028 015c 0B       		.uleb128 0xb
 2029 015d 49       		.uleb128 0x49
 2030 015e 13       		.uleb128 0x13
 2031 015f 02       		.uleb128 0x2
 2032 0160 18       		.uleb128 0x18
 2033 0161 00       		.byte	0
 2034 0162 00       		.byte	0
 2035 0163 1C       		.uleb128 0x1c
 2036 0164 0A       		.uleb128 0xa
 2037 0165 00       		.byte	0
 2038 0166 03       		.uleb128 0x3
 2039 0167 0E       		.uleb128 0xe
 2040 0168 3A       		.uleb128 0x3a
 2041 0169 0B       		.uleb128 0xb
 2042 016a 3B       		.uleb128 0x3b
 2043 016b 0B       		.uleb128 0xb
 2044 016c 11       		.uleb128 0x11
 2045 016d 01       		.uleb128 0x1
 2046 016e 00       		.byte	0
 2047 016f 00       		.byte	0
 2048 0170 1D       		.uleb128 0x1d
ARM GAS  /var/folders/qh/xwg3v3kj02qbxczjpdb8lzfr0000gn/T//cccPA4jh.s 			page 37


 2049 0171 1D       		.uleb128 0x1d
 2050 0172 01       		.byte	0x1
 2051 0173 31       		.uleb128 0x31
 2052 0174 13       		.uleb128 0x13
 2053 0175 52       		.uleb128 0x52
 2054 0176 01       		.uleb128 0x1
 2055 0177 55       		.uleb128 0x55
 2056 0178 17       		.uleb128 0x17
 2057 0179 58       		.uleb128 0x58
 2058 017a 0B       		.uleb128 0xb
 2059 017b 59       		.uleb128 0x59
 2060 017c 0B       		.uleb128 0xb
 2061 017d 01       		.uleb128 0x1
 2062 017e 13       		.uleb128 0x13
 2063 017f 00       		.byte	0
 2064 0180 00       		.byte	0
 2065 0181 1E       		.uleb128 0x1e
 2066 0182 05       		.uleb128 0x5
 2067 0183 00       		.byte	0
 2068 0184 31       		.uleb128 0x31
 2069 0185 13       		.uleb128 0x13
 2070 0186 00       		.byte	0
 2071 0187 00       		.byte	0
 2072 0188 1F       		.uleb128 0x1f
 2073 0189 898201   		.uleb128 0x4109
 2074 018c 00       		.byte	0
 2075 018d 11       		.uleb128 0x11
 2076 018e 01       		.uleb128 0x1
 2077 018f 31       		.uleb128 0x31
 2078 0190 13       		.uleb128 0x13
 2079 0191 00       		.byte	0
 2080 0192 00       		.byte	0
 2081 0193 20       		.uleb128 0x20
 2082 0194 898201   		.uleb128 0x4109
 2083 0197 01       		.byte	0x1
 2084 0198 11       		.uleb128 0x11
 2085 0199 01       		.uleb128 0x1
 2086 019a 01       		.uleb128 0x1
 2087 019b 13       		.uleb128 0x13
 2088 019c 00       		.byte	0
 2089 019d 00       		.byte	0
 2090 019e 21       		.uleb128 0x21
 2091 019f 8A8201   		.uleb128 0x410a
 2092 01a2 00       		.byte	0
 2093 01a3 02       		.uleb128 0x2
 2094 01a4 18       		.uleb128 0x18
 2095 01a5 9142     		.uleb128 0x2111
 2096 01a7 18       		.uleb128 0x18
 2097 01a8 00       		.byte	0
 2098 01a9 00       		.byte	0
 2099 01aa 22       		.uleb128 0x22
 2100 01ab 898201   		.uleb128 0x4109
 2101 01ae 01       		.byte	0x1
 2102 01af 11       		.uleb128 0x11
 2103 01b0 01       		.uleb128 0x1
 2104 01b1 00       		.byte	0
 2105 01b2 00       		.byte	0
ARM GAS  /var/folders/qh/xwg3v3kj02qbxczjpdb8lzfr0000gn/T//cccPA4jh.s 			page 38


 2106 01b3 23       		.uleb128 0x23
 2107 01b4 01       		.uleb128 0x1
 2108 01b5 01       		.byte	0x1
 2109 01b6 49       		.uleb128 0x49
 2110 01b7 13       		.uleb128 0x13
 2111 01b8 01       		.uleb128 0x1
 2112 01b9 13       		.uleb128 0x13
 2113 01ba 00       		.byte	0
 2114 01bb 00       		.byte	0
 2115 01bc 24       		.uleb128 0x24
 2116 01bd 21       		.uleb128 0x21
 2117 01be 00       		.byte	0
 2118 01bf 49       		.uleb128 0x49
 2119 01c0 13       		.uleb128 0x13
 2120 01c1 2F       		.uleb128 0x2f
 2121 01c2 0B       		.uleb128 0xb
 2122 01c3 00       		.byte	0
 2123 01c4 00       		.byte	0
 2124 01c5 25       		.uleb128 0x25
 2125 01c6 2E       		.uleb128 0x2e
 2126 01c7 01       		.byte	0x1
 2127 01c8 3F       		.uleb128 0x3f
 2128 01c9 19       		.uleb128 0x19
 2129 01ca 03       		.uleb128 0x3
 2130 01cb 0E       		.uleb128 0xe
 2131 01cc 3A       		.uleb128 0x3a
 2132 01cd 0B       		.uleb128 0xb
 2133 01ce 3B       		.uleb128 0x3b
 2134 01cf 05       		.uleb128 0x5
 2135 01d0 27       		.uleb128 0x27
 2136 01d1 19       		.uleb128 0x19
 2137 01d2 49       		.uleb128 0x49
 2138 01d3 13       		.uleb128 0x13
 2139 01d4 11       		.uleb128 0x11
 2140 01d5 01       		.uleb128 0x1
 2141 01d6 12       		.uleb128 0x12
 2142 01d7 06       		.uleb128 0x6
 2143 01d8 40       		.uleb128 0x40
 2144 01d9 18       		.uleb128 0x18
 2145 01da 9742     		.uleb128 0x2117
 2146 01dc 19       		.uleb128 0x19
 2147 01dd 01       		.uleb128 0x1
 2148 01de 13       		.uleb128 0x13
 2149 01df 00       		.byte	0
 2150 01e0 00       		.byte	0
 2151 01e1 26       		.uleb128 0x26
 2152 01e2 05       		.uleb128 0x5
 2153 01e3 00       		.byte	0
 2154 01e4 03       		.uleb128 0x3
 2155 01e5 08       		.uleb128 0x8
 2156 01e6 3A       		.uleb128 0x3a
 2157 01e7 0B       		.uleb128 0xb
 2158 01e8 3B       		.uleb128 0x3b
 2159 01e9 05       		.uleb128 0x5
 2160 01ea 49       		.uleb128 0x49
 2161 01eb 13       		.uleb128 0x13
 2162 01ec 02       		.uleb128 0x2
ARM GAS  /var/folders/qh/xwg3v3kj02qbxczjpdb8lzfr0000gn/T//cccPA4jh.s 			page 39


 2163 01ed 17       		.uleb128 0x17
 2164 01ee 00       		.byte	0
 2165 01ef 00       		.byte	0
 2166 01f0 27       		.uleb128 0x27
 2167 01f1 05       		.uleb128 0x5
 2168 01f2 00       		.byte	0
 2169 01f3 03       		.uleb128 0x3
 2170 01f4 0E       		.uleb128 0xe
 2171 01f5 3A       		.uleb128 0x3a
 2172 01f6 0B       		.uleb128 0xb
 2173 01f7 3B       		.uleb128 0x3b
 2174 01f8 05       		.uleb128 0x5
 2175 01f9 49       		.uleb128 0x49
 2176 01fa 13       		.uleb128 0x13
 2177 01fb 02       		.uleb128 0x2
 2178 01fc 17       		.uleb128 0x17
 2179 01fd 00       		.byte	0
 2180 01fe 00       		.byte	0
 2181 01ff 28       		.uleb128 0x28
 2182 0200 05       		.uleb128 0x5
 2183 0201 00       		.byte	0
 2184 0202 03       		.uleb128 0x3
 2185 0203 08       		.uleb128 0x8
 2186 0204 3A       		.uleb128 0x3a
 2187 0205 0B       		.uleb128 0xb
 2188 0206 3B       		.uleb128 0x3b
 2189 0207 05       		.uleb128 0x5
 2190 0208 49       		.uleb128 0x49
 2191 0209 13       		.uleb128 0x13
 2192 020a 02       		.uleb128 0x2
 2193 020b 18       		.uleb128 0x18
 2194 020c 00       		.byte	0
 2195 020d 00       		.byte	0
 2196 020e 29       		.uleb128 0x29
 2197 020f 18       		.uleb128 0x18
 2198 0210 00       		.byte	0
 2199 0211 00       		.byte	0
 2200 0212 00       		.byte	0
 2201 0213 2A       		.uleb128 0x2a
 2202 0214 34       		.uleb128 0x34
 2203 0215 00       		.byte	0
 2204 0216 03       		.uleb128 0x3
 2205 0217 08       		.uleb128 0x8
 2206 0218 3A       		.uleb128 0x3a
 2207 0219 0B       		.uleb128 0xb
 2208 021a 3B       		.uleb128 0x3b
 2209 021b 05       		.uleb128 0x5
 2210 021c 49       		.uleb128 0x49
 2211 021d 13       		.uleb128 0x13
 2212 021e 02       		.uleb128 0x2
 2213 021f 18       		.uleb128 0x18
 2214 0220 00       		.byte	0
 2215 0221 00       		.byte	0
 2216 0222 2B       		.uleb128 0x2b
 2217 0223 34       		.uleb128 0x34
 2218 0224 00       		.byte	0
 2219 0225 03       		.uleb128 0x3
ARM GAS  /var/folders/qh/xwg3v3kj02qbxczjpdb8lzfr0000gn/T//cccPA4jh.s 			page 40


 2220 0226 08       		.uleb128 0x8
 2221 0227 3A       		.uleb128 0x3a
 2222 0228 0B       		.uleb128 0xb
 2223 0229 3B       		.uleb128 0x3b
 2224 022a 05       		.uleb128 0x5
 2225 022b 49       		.uleb128 0x49
 2226 022c 13       		.uleb128 0x13
 2227 022d 02       		.uleb128 0x2
 2228 022e 17       		.uleb128 0x17
 2229 022f 00       		.byte	0
 2230 0230 00       		.byte	0
 2231 0231 2C       		.uleb128 0x2c
 2232 0232 898201   		.uleb128 0x4109
 2233 0235 01       		.byte	0x1
 2234 0236 11       		.uleb128 0x11
 2235 0237 01       		.uleb128 0x1
 2236 0238 31       		.uleb128 0x31
 2237 0239 13       		.uleb128 0x13
 2238 023a 01       		.uleb128 0x1
 2239 023b 13       		.uleb128 0x13
 2240 023c 00       		.byte	0
 2241 023d 00       		.byte	0
 2242 023e 2D       		.uleb128 0x2d
 2243 023f 2E       		.uleb128 0x2e
 2244 0240 01       		.byte	0x1
 2245 0241 3F       		.uleb128 0x3f
 2246 0242 19       		.uleb128 0x19
 2247 0243 03       		.uleb128 0x3
 2248 0244 0E       		.uleb128 0xe
 2249 0245 3A       		.uleb128 0x3a
 2250 0246 0B       		.uleb128 0xb
 2251 0247 3B       		.uleb128 0x3b
 2252 0248 0B       		.uleb128 0xb
 2253 0249 27       		.uleb128 0x27
 2254 024a 19       		.uleb128 0x19
 2255 024b 3C       		.uleb128 0x3c
 2256 024c 19       		.uleb128 0x19
 2257 024d 01       		.uleb128 0x1
 2258 024e 13       		.uleb128 0x13
 2259 024f 00       		.byte	0
 2260 0250 00       		.byte	0
 2261 0251 00       		.byte	0
 2262              		.section	.debug_loc,"",%progbits
 2263              	.Ldebug_loc0:
 2264              	.LLST0:
 2265 0000 00000000 		.4byte	.LVL0
 2266 0004 1A000000 		.4byte	.LVL3
 2267 0008 0100     		.2byte	0x1
 2268 000a 50       		.byte	0x50
 2269 000b 1A000000 		.4byte	.LVL3
 2270 000f 52000000 		.4byte	.LVL16
 2271 0013 0100     		.2byte	0x1
 2272 0015 5A       		.byte	0x5a
 2273 0016 52000000 		.4byte	.LVL16
 2274 001a 56000000 		.4byte	.LVL17
 2275 001e 0100     		.2byte	0x1
 2276 0020 50       		.byte	0x50
ARM GAS  /var/folders/qh/xwg3v3kj02qbxczjpdb8lzfr0000gn/T//cccPA4jh.s 			page 41


 2277 0021 56000000 		.4byte	.LVL17
 2278 0025 5A000000 		.4byte	.LVL18
 2279 0029 0300     		.2byte	0x3
 2280 002b 70       		.byte	0x70
 2281 002c 01       		.sleb128 1
 2282 002d 9F       		.byte	0x9f
 2283 002e 5A000000 		.4byte	.LVL18
 2284 0032 68000000 		.4byte	.LFE12
 2285 0036 0100     		.2byte	0x1
 2286 0038 50       		.byte	0x50
 2287 0039 00000000 		.4byte	0
 2288 003d 00000000 		.4byte	0
 2289              	.LLST1:
 2290 0041 00000000 		.4byte	.LVL0
 2291 0045 1A000000 		.4byte	.LVL3
 2292 0049 0100     		.2byte	0x1
 2293 004b 51       		.byte	0x51
 2294 004c 1A000000 		.4byte	.LVL3
 2295 0050 68000000 		.4byte	.LFE12
 2296 0054 0400     		.2byte	0x4
 2297 0056 F3       		.byte	0xf3
 2298 0057 01       		.uleb128 0x1
 2299 0058 51       		.byte	0x51
 2300 0059 9F       		.byte	0x9f
 2301 005a 00000000 		.4byte	0
 2302 005e 00000000 		.4byte	0
 2303              	.LLST2:
 2304 0062 00000000 		.4byte	.LVL0
 2305 0066 08000000 		.4byte	.LVL1
 2306 006a 0100     		.2byte	0x1
 2307 006c 52       		.byte	0x52
 2308 006d 08000000 		.4byte	.LVL1
 2309 0071 5E000000 		.4byte	.LVL21
 2310 0075 0100     		.2byte	0x1
 2311 0077 58       		.byte	0x58
 2312 0078 5E000000 		.4byte	.LVL21
 2313 007c 68000000 		.4byte	.LFE12
 2314 0080 0400     		.2byte	0x4
 2315 0082 F3       		.byte	0xf3
 2316 0083 01       		.uleb128 0x1
 2317 0084 52       		.byte	0x52
 2318 0085 9F       		.byte	0x9f
 2319 0086 00000000 		.4byte	0
 2320 008a 00000000 		.4byte	0
 2321              	.LLST3:
 2322 008e 22000000 		.4byte	.LVL4
 2323 0092 26000000 		.4byte	.LVL5
 2324 0096 0100     		.2byte	0x1
 2325 0098 51       		.byte	0x51
 2326 0099 26000000 		.4byte	.LVL5
 2327 009d 30000000 		.4byte	.LVL8
 2328 00a1 0100     		.2byte	0x1
 2329 00a3 54       		.byte	0x54
 2330 00a4 48000000 		.4byte	.LVL14
 2331 00a8 52000000 		.4byte	.LVL16
 2332 00ac 0600     		.2byte	0x6
 2333 00ae 79       		.byte	0x79
ARM GAS  /var/folders/qh/xwg3v3kj02qbxczjpdb8lzfr0000gn/T//cccPA4jh.s 			page 42


 2334 00af 00       		.sleb128 0
 2335 00b0 75       		.byte	0x75
 2336 00b1 00       		.sleb128 0
 2337 00b2 1C       		.byte	0x1c
 2338 00b3 9F       		.byte	0x9f
 2339 00b4 00000000 		.4byte	0
 2340 00b8 00000000 		.4byte	0
 2341              	.LLST4:
 2342 00bc 12000000 		.4byte	.LVL2
 2343 00c0 1A000000 		.4byte	.LVL3
 2344 00c4 0100     		.2byte	0x1
 2345 00c6 59       		.byte	0x59
 2346 00c7 1A000000 		.4byte	.LVL3
 2347 00cb 2C000000 		.4byte	.LVL6
 2348 00cf 0100     		.2byte	0x1
 2349 00d1 55       		.byte	0x55
 2350 00d2 2C000000 		.4byte	.LVL6
 2351 00d6 2E000000 		.4byte	.LVL7
 2352 00da 0300     		.2byte	0x3
 2353 00dc 75       		.byte	0x75
 2354 00dd 7F       		.sleb128 -1
 2355 00de 9F       		.byte	0x9f
 2356 00df 2E000000 		.4byte	.LVL7
 2357 00e3 52000000 		.4byte	.LVL16
 2358 00e7 0100     		.2byte	0x1
 2359 00e9 55       		.byte	0x55
 2360 00ea 00000000 		.4byte	0
 2361 00ee 00000000 		.4byte	0
 2362              	.LLST5:
 2363 00f2 00000000 		.4byte	.LVL0
 2364 00f6 1A000000 		.4byte	.LVL3
 2365 00fa 0100     		.2byte	0x1
 2366 00fc 51       		.byte	0x51
 2367 00fd 1A000000 		.4byte	.LVL3
 2368 0101 3E000000 		.4byte	.LVL10
 2369 0105 0100     		.2byte	0x1
 2370 0107 56       		.byte	0x56
 2371 0108 3E000000 		.4byte	.LVL10
 2372 010c 40000000 		.4byte	.LVL11
 2373 0110 0100     		.2byte	0x1
 2374 0112 50       		.byte	0x50
 2375 0113 40000000 		.4byte	.LVL11
 2376 0117 5E000000 		.4byte	.LVL19
 2377 011b 0100     		.2byte	0x1
 2378 011d 56       		.byte	0x56
 2379 011e 00000000 		.4byte	0
 2380 0122 00000000 		.4byte	0
 2381              	.LLST6:
 2382 0126 00000000 		.4byte	.LVL0
 2383 012a 1A000000 		.4byte	.LVL3
 2384 012e 0100     		.2byte	0x1
 2385 0130 51       		.byte	0x51
 2386 0131 1A000000 		.4byte	.LVL3
 2387 0135 46000000 		.4byte	.LVL13
 2388 0139 0100     		.2byte	0x1
 2389 013b 57       		.byte	0x57
 2390 013c 46000000 		.4byte	.LVL13
ARM GAS  /var/folders/qh/xwg3v3kj02qbxczjpdb8lzfr0000gn/T//cccPA4jh.s 			page 43


 2391 0140 4C000000 		.4byte	.LVL15
 2392 0144 0100     		.2byte	0x1
 2393 0146 50       		.byte	0x50
 2394 0147 4C000000 		.4byte	.LVL15
 2395 014b 5E000000 		.4byte	.LVL20
 2396 014f 0100     		.2byte	0x1
 2397 0151 57       		.byte	0x57
 2398 0152 00000000 		.4byte	0
 2399 0156 00000000 		.4byte	0
 2400              	.LLST7:
 2401 015a 00000000 		.4byte	.LVL22
 2402 015e 18000000 		.4byte	.LVL24
 2403 0162 0100     		.2byte	0x1
 2404 0164 50       		.byte	0x50
 2405 0165 18000000 		.4byte	.LVL24
 2406 0169 42000000 		.4byte	.LVL34
 2407 016d 0100     		.2byte	0x1
 2408 016f 57       		.byte	0x57
 2409 0170 42000000 		.4byte	.LVL34
 2410 0174 4E000000 		.4byte	.LVL35
 2411 0178 0400     		.2byte	0x4
 2412 017a F3       		.byte	0xf3
 2413 017b 01       		.uleb128 0x1
 2414 017c 50       		.byte	0x50
 2415 017d 9F       		.byte	0x9f
 2416 017e 4E000000 		.4byte	.LVL35
 2417 0182 64020000 		.4byte	.LFE10
 2418 0186 0100     		.2byte	0x1
 2419 0188 57       		.byte	0x57
 2420 0189 00000000 		.4byte	0
 2421 018d 00000000 		.4byte	0
 2422              	.LLST8:
 2423 0191 00000000 		.4byte	.LVL22
 2424 0195 12000000 		.4byte	.LVL23
 2425 0199 0100     		.2byte	0x1
 2426 019b 51       		.byte	0x51
 2427 019c 12000000 		.4byte	.LVL23
 2428 01a0 26000000 		.4byte	.LVL27
 2429 01a4 0100     		.2byte	0x1
 2430 01a6 54       		.byte	0x54
 2431 01a7 26000000 		.4byte	.LVL27
 2432 01ab 38000000 		.4byte	.LVL29
 2433 01af 0100     		.2byte	0x1
 2434 01b1 55       		.byte	0x55
 2435 01b2 38000000 		.4byte	.LVL29
 2436 01b6 3C000000 		.4byte	.LVL30
 2437 01ba 0100     		.2byte	0x1
 2438 01bc 54       		.byte	0x54
 2439 01bd 3C000000 		.4byte	.LVL30
 2440 01c1 42000000 		.4byte	.LVL32
 2441 01c5 0100     		.2byte	0x1
 2442 01c7 55       		.byte	0x55
 2443 01c8 4E000000 		.4byte	.LVL35
 2444 01cc 6E000000 		.4byte	.LVL39
 2445 01d0 0100     		.2byte	0x1
 2446 01d2 55       		.byte	0x55
 2447 01d3 6E000000 		.4byte	.LVL39
ARM GAS  /var/folders/qh/xwg3v3kj02qbxczjpdb8lzfr0000gn/T//cccPA4jh.s 			page 44


 2448 01d7 EE000000 		.4byte	.LVL58
 2449 01db 0100     		.2byte	0x1
 2450 01dd 54       		.byte	0x54
 2451 01de EE000000 		.4byte	.LVL58
 2452 01e2 F0000000 		.4byte	.LVL59
 2453 01e6 0100     		.2byte	0x1
 2454 01e8 53       		.byte	0x53
 2455 01e9 F0000000 		.4byte	.LVL59
 2456 01ed 02010000 		.4byte	.LVL62
 2457 01f1 0100     		.2byte	0x1
 2458 01f3 58       		.byte	0x58
 2459 01f4 02010000 		.4byte	.LVL62
 2460 01f8 88010000 		.4byte	.LVL86
 2461 01fc 0100     		.2byte	0x1
 2462 01fe 54       		.byte	0x54
 2463 01ff 88010000 		.4byte	.LVL86
 2464 0203 8A010000 		.4byte	.LVL87
 2465 0207 0100     		.2byte	0x1
 2466 0209 53       		.byte	0x53
 2467 020a 8A010000 		.4byte	.LVL87
 2468 020e 9E010000 		.4byte	.LVL90
 2469 0212 0100     		.2byte	0x1
 2470 0214 58       		.byte	0x58
 2471 0215 9E010000 		.4byte	.LVL90
 2472 0219 D0010000 		.4byte	.LVL98
 2473 021d 0100     		.2byte	0x1
 2474 021f 54       		.byte	0x54
 2475 0220 D0010000 		.4byte	.LVL98
 2476 0224 D8010000 		.4byte	.LVL99
 2477 0228 0300     		.2byte	0x3
 2478 022a 75       		.byte	0x75
 2479 022b 01       		.sleb128 1
 2480 022c 9F       		.byte	0x9f
 2481 022d D8010000 		.4byte	.LVL99
 2482 0231 DA010000 		.4byte	.LVL100
 2483 0235 0100     		.2byte	0x1
 2484 0237 55       		.byte	0x55
 2485 0238 DA010000 		.4byte	.LVL100
 2486 023c 02020000 		.4byte	.LVL109
 2487 0240 0100     		.2byte	0x1
 2488 0242 54       		.byte	0x54
 2489 0243 02020000 		.4byte	.LVL109
 2490 0247 0C020000 		.4byte	.LVL111
 2491 024b 0100     		.2byte	0x1
 2492 024d 55       		.byte	0x55
 2493 024e 0C020000 		.4byte	.LVL111
 2494 0252 30020000 		.4byte	.LVL116
 2495 0256 0100     		.2byte	0x1
 2496 0258 54       		.byte	0x54
 2497 0259 30020000 		.4byte	.LVL116
 2498 025d 36020000 		.4byte	.LVL118
 2499 0261 0100     		.2byte	0x1
 2500 0263 53       		.byte	0x53
 2501 0264 36020000 		.4byte	.LVL118
 2502 0268 64020000 		.4byte	.LFE10
 2503 026c 0100     		.2byte	0x1
 2504 026e 54       		.byte	0x54
ARM GAS  /var/folders/qh/xwg3v3kj02qbxczjpdb8lzfr0000gn/T//cccPA4jh.s 			page 45


 2505 026f 00000000 		.4byte	0
 2506 0273 00000000 		.4byte	0
 2507              	.LLST9:
 2508 0277 00000000 		.4byte	.LVL22
 2509 027b 1E000000 		.4byte	.LVL25
 2510 027f 0100     		.2byte	0x1
 2511 0281 52       		.byte	0x52
 2512 0282 1E000000 		.4byte	.LVL25
 2513 0286 22000000 		.4byte	.LVL26
 2514 028a 0300     		.2byte	0x3
 2515 028c 52       		.byte	0x52
 2516 028d 93       		.byte	0x93
 2517 028e 04       		.uleb128 0x4
 2518 028f 22000000 		.4byte	.LVL26
 2519 0293 37000000 		.4byte	.LVL29-1
 2520 0297 0300     		.2byte	0x3
 2521 0299 56       		.byte	0x56
 2522 029a 93       		.byte	0x93
 2523 029b 04       		.uleb128 0x4
 2524 029c 38000000 		.4byte	.LVL29
 2525 02a0 40000000 		.4byte	.LVL31
 2526 02a4 0300     		.2byte	0x3
 2527 02a6 56       		.byte	0x56
 2528 02a7 93       		.byte	0x93
 2529 02a8 04       		.uleb128 0x4
 2530 02a9 40000000 		.4byte	.LVL31
 2531 02ad 42000000 		.4byte	.LVL33
 2532 02b1 0100     		.2byte	0x1
 2533 02b3 52       		.byte	0x52
 2534 02b4 4E000000 		.4byte	.LVL35
 2535 02b8 50000000 		.4byte	.LVL36
 2536 02bc 0300     		.2byte	0x3
 2537 02be 56       		.byte	0x56
 2538 02bf 93       		.byte	0x93
 2539 02c0 04       		.uleb128 0x4
 2540 02c1 70000000 		.4byte	.LVL40
 2541 02c5 74000000 		.4byte	.LVL42
 2542 02c9 0500     		.2byte	0x5
 2543 02cb 76       		.byte	0x76
 2544 02cc 04       		.sleb128 4
 2545 02cd 9F       		.byte	0x9f
 2546 02ce 93       		.byte	0x93
 2547 02cf 04       		.uleb128 0x4
 2548 02d0 74000000 		.4byte	.LVL42
 2549 02d4 BE000000 		.4byte	.LVL51
 2550 02d8 0300     		.2byte	0x3
 2551 02da 56       		.byte	0x56
 2552 02db 93       		.byte	0x93
 2553 02dc 04       		.uleb128 0x4
 2554 02dd BE000000 		.4byte	.LVL51
 2555 02e1 1A010000 		.4byte	.LVL67
 2556 02e5 0300     		.2byte	0x3
 2557 02e7 56       		.byte	0x56
 2558 02e8 93       		.byte	0x93
 2559 02e9 04       		.uleb128 0x4
 2560 02ea 1A010000 		.4byte	.LVL67
 2561 02ee 28010000 		.4byte	.LVL72
ARM GAS  /var/folders/qh/xwg3v3kj02qbxczjpdb8lzfr0000gn/T//cccPA4jh.s 			page 46


 2562 02f2 0300     		.2byte	0x3
 2563 02f4 56       		.byte	0x56
 2564 02f5 93       		.byte	0x93
 2565 02f6 04       		.uleb128 0x4
 2566 02f7 28010000 		.4byte	.LVL72
 2567 02fb 66010000 		.4byte	.LVL81
 2568 02ff 0300     		.2byte	0x3
 2569 0301 50       		.byte	0x50
 2570 0302 93       		.byte	0x93
 2571 0303 04       		.uleb128 0x4
 2572 0304 66010000 		.4byte	.LVL81
 2573 0308 9E010000 		.4byte	.LVL90
 2574 030c 0300     		.2byte	0x3
 2575 030e 56       		.byte	0x56
 2576 030f 93       		.byte	0x93
 2577 0310 04       		.uleb128 0x4
 2578 0311 9E010000 		.4byte	.LVL90
 2579 0315 AC010000 		.4byte	.LVL92
 2580 0319 0500     		.2byte	0x5
 2581 031b 76       		.byte	0x76
 2582 031c 04       		.sleb128 4
 2583 031d 9F       		.byte	0x9f
 2584 031e 93       		.byte	0x93
 2585 031f 04       		.uleb128 0x4
 2586 0320 AC010000 		.4byte	.LVL92
 2587 0324 DE010000 		.4byte	.LVL101
 2588 0328 0300     		.2byte	0x3
 2589 032a 56       		.byte	0x56
 2590 032b 93       		.byte	0x93
 2591 032c 04       		.uleb128 0x4
 2592 032d DE010000 		.4byte	.LVL101
 2593 0331 E2010000 		.4byte	.LVL103
 2594 0335 0500     		.2byte	0x5
 2595 0337 76       		.byte	0x76
 2596 0338 04       		.sleb128 4
 2597 0339 9F       		.byte	0x9f
 2598 033a 93       		.byte	0x93
 2599 033b 04       		.uleb128 0x4
 2600 033c E2010000 		.4byte	.LVL103
 2601 0340 0C020000 		.4byte	.LVL111
 2602 0344 0300     		.2byte	0x3
 2603 0346 56       		.byte	0x56
 2604 0347 93       		.byte	0x93
 2605 0348 04       		.uleb128 0x4
 2606 0349 0C020000 		.4byte	.LVL111
 2607 034d 12020000 		.4byte	.LVL112
 2608 0351 0300     		.2byte	0x3
 2609 0353 50       		.byte	0x50
 2610 0354 93       		.byte	0x93
 2611 0355 04       		.uleb128 0x4
 2612 0356 12020000 		.4byte	.LVL112
 2613 035a 44020000 		.4byte	.LVL123
 2614 035e 0300     		.2byte	0x3
 2615 0360 56       		.byte	0x56
 2616 0361 93       		.byte	0x93
 2617 0362 04       		.uleb128 0x4
 2618 0363 44020000 		.4byte	.LVL123
ARM GAS  /var/folders/qh/xwg3v3kj02qbxczjpdb8lzfr0000gn/T//cccPA4jh.s 			page 47


 2619 0367 64020000 		.4byte	.LFE10
 2620 036b 0300     		.2byte	0x3
 2621 036d 50       		.byte	0x50
 2622 036e 93       		.byte	0x93
 2623 036f 04       		.uleb128 0x4
 2624 0370 00000000 		.4byte	0
 2625 0374 00000000 		.4byte	0
 2626              	.LLST10:
 2627 0378 4E000000 		.4byte	.LVL35
 2628 037c BE000000 		.4byte	.LVL51
 2629 0380 0100     		.2byte	0x1
 2630 0382 5B       		.byte	0x5b
 2631 0383 BE000000 		.4byte	.LVL51
 2632 0387 C1000000 		.4byte	.LVL52-1
 2633 038b 0100     		.2byte	0x1
 2634 038d 50       		.byte	0x50
 2635 038e 10010000 		.4byte	.LVL64
 2636 0392 20010000 		.4byte	.LVL68
 2637 0396 0100     		.2byte	0x1
 2638 0398 5B       		.byte	0x5b
 2639 0399 20010000 		.4byte	.LVL68
 2640 039d 24010000 		.4byte	.LVL70
 2641 03a1 0100     		.2byte	0x1
 2642 03a3 50       		.byte	0x50
 2643 03a4 24010000 		.4byte	.LVL70
 2644 03a8 36010000 		.4byte	.LVL75
 2645 03ac 0100     		.2byte	0x1
 2646 03ae 5B       		.byte	0x5b
 2647 03af 4A010000 		.4byte	.LVL76
 2648 03b3 5E010000 		.4byte	.LVL79
 2649 03b7 0100     		.2byte	0x1
 2650 03b9 53       		.byte	0x53
 2651 03ba 9E010000 		.4byte	.LVL90
 2652 03be B2010000 		.4byte	.LVL93
 2653 03c2 0300     		.2byte	0x3
 2654 03c4 91       		.byte	0x91
 2655 03c5 4D       		.sleb128 -51
 2656 03c6 9F       		.byte	0x9f
 2657 03c7 B2010000 		.4byte	.LVL93
 2658 03cb B6010000 		.4byte	.LVL95
 2659 03cf 0100     		.2byte	0x1
 2660 03d1 5B       		.byte	0x5b
 2661 03d2 B6010000 		.4byte	.LVL95
 2662 03d6 C2010000 		.4byte	.LVL96
 2663 03da 0300     		.2byte	0x3
 2664 03dc 91       		.byte	0x91
 2665 03dd 4D       		.sleb128 -51
 2666 03de 9F       		.byte	0x9f
 2667 03df C2010000 		.4byte	.LVL96
 2668 03e3 12020000 		.4byte	.LVL112
 2669 03e7 0100     		.2byte	0x1
 2670 03e9 5B       		.byte	0x5b
 2671 03ea 36020000 		.4byte	.LVL118
 2672 03ee 40020000 		.4byte	.LVL121
 2673 03f2 0300     		.2byte	0x3
 2674 03f4 91       		.byte	0x91
 2675 03f5 4D       		.sleb128 -51
ARM GAS  /var/folders/qh/xwg3v3kj02qbxczjpdb8lzfr0000gn/T//cccPA4jh.s 			page 48


 2676 03f6 9F       		.byte	0x9f
 2677 03f7 40020000 		.4byte	.LVL121
 2678 03fb 44020000 		.4byte	.LVL123
 2679 03ff 0100     		.2byte	0x1
 2680 0401 50       		.byte	0x50
 2681 0402 44020000 		.4byte	.LVL123
 2682 0406 4A020000 		.4byte	.LVL124
 2683 040a 0100     		.2byte	0x1
 2684 040c 5B       		.byte	0x5b
 2685 040d 00000000 		.4byte	0
 2686 0411 00000000 		.4byte	0
 2687              	.LLST11:
 2688 0415 4E000000 		.4byte	.LVL35
 2689 0419 CA000000 		.4byte	.LVL53
 2690 041d 0100     		.2byte	0x1
 2691 041f 5B       		.byte	0x5b
 2692 0420 10010000 		.4byte	.LVL64
 2693 0424 20010000 		.4byte	.LVL68
 2694 0428 0100     		.2byte	0x1
 2695 042a 5B       		.byte	0x5b
 2696 042b 20010000 		.4byte	.LVL68
 2697 042f 24010000 		.4byte	.LVL70
 2698 0433 0100     		.2byte	0x1
 2699 0435 50       		.byte	0x50
 2700 0436 24010000 		.4byte	.LVL70
 2701 043a 2A010000 		.4byte	.LVL73
 2702 043e 0100     		.2byte	0x1
 2703 0440 5B       		.byte	0x5b
 2704 0441 2A010000 		.4byte	.LVL73
 2705 0445 30010000 		.4byte	.LVL74
 2706 0449 0100     		.2byte	0x1
 2707 044b 52       		.byte	0x52
 2708 044c 9E010000 		.4byte	.LVL90
 2709 0450 0C020000 		.4byte	.LVL111
 2710 0454 0100     		.2byte	0x1
 2711 0456 5B       		.byte	0x5b
 2712 0457 1A020000 		.4byte	.LVL113
 2713 045b 1E020000 		.4byte	.LVL114
 2714 045f 0300     		.2byte	0x3
 2715 0461 71       		.byte	0x71
 2716 0462 01       		.sleb128 1
 2717 0463 9F       		.byte	0x9f
 2718 0464 1E020000 		.4byte	.LVL114
 2719 0468 36020000 		.4byte	.LVL118
 2720 046c 0100     		.2byte	0x1
 2721 046e 5A       		.byte	0x5a
 2722 046f 36020000 		.4byte	.LVL118
 2723 0473 3C020000 		.4byte	.LVL119
 2724 0477 0100     		.2byte	0x1
 2725 0479 50       		.byte	0x50
 2726 047a 3C020000 		.4byte	.LVL119
 2727 047e 44020000 		.4byte	.LVL123
 2728 0482 0100     		.2byte	0x1
 2729 0484 5B       		.byte	0x5b
 2730 0485 44020000 		.4byte	.LVL123
 2731 0489 4A020000 		.4byte	.LVL124
 2732 048d 0600     		.2byte	0x6
ARM GAS  /var/folders/qh/xwg3v3kj02qbxczjpdb8lzfr0000gn/T//cccPA4jh.s 			page 49


 2733 048f 03       		.byte	0x3
 2734 0490 00000000 		.4byte	.LC2
 2735 0494 9F       		.byte	0x9f
 2736 0495 00000000 		.4byte	0
 2737 0499 00000000 		.4byte	0
 2738              	.LLST12:
 2739 049d 26000000 		.4byte	.LVL27
 2740 04a1 2A000000 		.4byte	.LVL28
 2741 04a5 0200     		.2byte	0x2
 2742 04a7 74       		.byte	0x74
 2743 04a8 00       		.sleb128 0
 2744 04a9 3C000000 		.4byte	.LVL30
 2745 04ad 40000000 		.4byte	.LVL31
 2746 04b1 0200     		.2byte	0x2
 2747 04b3 74       		.byte	0x74
 2748 04b4 00       		.sleb128 0
 2749 04b5 70000000 		.4byte	.LVL40
 2750 04b9 72000000 		.4byte	.LVL41
 2751 04bd 0100     		.2byte	0x1
 2752 04bf 52       		.byte	0x52
 2753 04c0 72000000 		.4byte	.LVL41
 2754 04c4 74000000 		.4byte	.LVL42
 2755 04c8 0200     		.2byte	0x2
 2756 04ca 76       		.byte	0x76
 2757 04cb 00       		.sleb128 0
 2758 04cc 74000000 		.4byte	.LVL42
 2759 04d0 7E000000 		.4byte	.LVL44
 2760 04d4 0100     		.2byte	0x1
 2761 04d6 53       		.byte	0x53
 2762 04d7 86000000 		.4byte	.LVL45
 2763 04db B8000000 		.4byte	.LVL49
 2764 04df 0100     		.2byte	0x1
 2765 04e1 52       		.byte	0x52
 2766 04e2 10010000 		.4byte	.LVL64
 2767 04e6 14010000 		.4byte	.LVL65
 2768 04ea 0200     		.2byte	0x2
 2769 04ec 38       		.byte	0x38
 2770 04ed 9F       		.byte	0x9f
 2771 04ee 14010000 		.4byte	.LVL65
 2772 04f2 22010000 		.4byte	.LVL69
 2773 04f6 0100     		.2byte	0x1
 2774 04f8 52       		.byte	0x52
 2775 04f9 24010000 		.4byte	.LVL70
 2776 04fd 26010000 		.4byte	.LVL71
 2777 0501 0100     		.2byte	0x1
 2778 0503 52       		.byte	0x52
 2779 0504 9E010000 		.4byte	.LVL90
 2780 0508 A4010000 		.4byte	.LVL91
 2781 050c 0100     		.2byte	0x1
 2782 050e 52       		.byte	0x52
 2783 050f B2010000 		.4byte	.LVL93
 2784 0513 B4010000 		.4byte	.LVL94
 2785 0517 0100     		.2byte	0x1
 2786 0519 52       		.byte	0x52
 2787 051a B6010000 		.4byte	.LVL95
 2788 051e CC010000 		.4byte	.LVL97
 2789 0522 0100     		.2byte	0x1
ARM GAS  /var/folders/qh/xwg3v3kj02qbxczjpdb8lzfr0000gn/T//cccPA4jh.s 			page 50


 2790 0524 52       		.byte	0x52
 2791 0525 CC010000 		.4byte	.LVL97
 2792 0529 D0010000 		.4byte	.LVL98
 2793 052d 0200     		.2byte	0x2
 2794 052f 74       		.byte	0x74
 2795 0530 7F       		.sleb128 -1
 2796 0531 DA010000 		.4byte	.LVL100
 2797 0535 DE010000 		.4byte	.LVL101
 2798 0539 0100     		.2byte	0x1
 2799 053b 52       		.byte	0x52
 2800 053c DE010000 		.4byte	.LVL101
 2801 0540 E0010000 		.4byte	.LVL102
 2802 0544 0200     		.2byte	0x2
 2803 0546 74       		.byte	0x74
 2804 0547 7F       		.sleb128 -1
 2805 0548 E0010000 		.4byte	.LVL102
 2806 054c E2010000 		.4byte	.LVL103
 2807 0550 0200     		.2byte	0x2
 2808 0552 76       		.byte	0x76
 2809 0553 00       		.sleb128 0
 2810 0554 E2010000 		.4byte	.LVL103
 2811 0558 EA010000 		.4byte	.LVL105
 2812 055c 0100     		.2byte	0x1
 2813 055e 53       		.byte	0x53
 2814 055f F0010000 		.4byte	.LVL107
 2815 0563 F2010000 		.4byte	.LVL108
 2816 0567 0200     		.2byte	0x2
 2817 0569 73       		.byte	0x73
 2818 056a 00       		.sleb128 0
 2819 056b F2010000 		.4byte	.LVL108
 2820 056f 02020000 		.4byte	.LVL109
 2821 0573 0200     		.2byte	0x2
 2822 0575 74       		.byte	0x74
 2823 0576 7F       		.sleb128 -1
 2824 0577 36020000 		.4byte	.LVL118
 2825 057b 42020000 		.4byte	.LVL122
 2826 057f 0100     		.2byte	0x1
 2827 0581 52       		.byte	0x52
 2828 0582 00000000 		.4byte	0
 2829 0586 00000000 		.4byte	0
 2830              	.LLST13:
 2831 058a 5A000000 		.4byte	.LVL37
 2832 058e 6A000000 		.4byte	.LVL38
 2833 0592 0300     		.2byte	0x3
 2834 0594 08       		.byte	0x8
 2835 0595 20       		.byte	0x20
 2836 0596 9F       		.byte	0x9f
 2837 0597 6A000000 		.4byte	.LVL38
 2838 059b DA000000 		.4byte	.LVL56
 2839 059f 0100     		.2byte	0x1
 2840 05a1 58       		.byte	0x58
 2841 05a2 10010000 		.4byte	.LVL64
 2842 05a6 24010000 		.4byte	.LVL70
 2843 05aa 0100     		.2byte	0x1
 2844 05ac 58       		.byte	0x58
 2845 05ad 24010000 		.4byte	.LVL70
 2846 05b1 6C010000 		.4byte	.LVL82
ARM GAS  /var/folders/qh/xwg3v3kj02qbxczjpdb8lzfr0000gn/T//cccPA4jh.s 			page 51


 2847 05b5 0300     		.2byte	0x3
 2848 05b7 08       		.byte	0x8
 2849 05b8 20       		.byte	0x20
 2850 05b9 9F       		.byte	0x9f
 2851 05ba 6C010000 		.4byte	.LVL82
 2852 05be 72010000 		.4byte	.LVL84
 2853 05c2 0100     		.2byte	0x1
 2854 05c4 52       		.byte	0x52
 2855 05c5 9E010000 		.4byte	.LVL90
 2856 05c9 B2010000 		.4byte	.LVL93
 2857 05cd 0300     		.2byte	0x3
 2858 05cf 08       		.byte	0x8
 2859 05d0 20       		.byte	0x20
 2860 05d1 9F       		.byte	0x9f
 2861 05d2 B2010000 		.4byte	.LVL93
 2862 05d6 D0010000 		.4byte	.LVL98
 2863 05da 0100     		.2byte	0x1
 2864 05dc 58       		.byte	0x58
 2865 05dd D0010000 		.4byte	.LVL98
 2866 05e1 DA010000 		.4byte	.LVL100
 2867 05e5 0300     		.2byte	0x3
 2868 05e7 08       		.byte	0x8
 2869 05e8 30       		.byte	0x30
 2870 05e9 9F       		.byte	0x9f
 2871 05ea DA010000 		.4byte	.LVL100
 2872 05ee 02020000 		.4byte	.LVL109
 2873 05f2 0100     		.2byte	0x1
 2874 05f4 58       		.byte	0x58
 2875 05f5 0C020000 		.4byte	.LVL111
 2876 05f9 12020000 		.4byte	.LVL112
 2877 05fd 0300     		.2byte	0x3
 2878 05ff 08       		.byte	0x8
 2879 0600 20       		.byte	0x20
 2880 0601 9F       		.byte	0x9f
 2881 0602 36020000 		.4byte	.LVL118
 2882 0606 44020000 		.4byte	.LVL123
 2883 060a 0100     		.2byte	0x1
 2884 060c 58       		.byte	0x58
 2885 060d 44020000 		.4byte	.LVL123
 2886 0611 64020000 		.4byte	.LFE10
 2887 0615 0300     		.2byte	0x3
 2888 0617 08       		.byte	0x8
 2889 0618 20       		.byte	0x20
 2890 0619 9F       		.byte	0x9f
 2891 061a 00000000 		.4byte	0
 2892 061e 00000000 		.4byte	0
 2893              	.LLST14:
 2894 0622 28020000 		.4byte	.LVL115
 2895 0626 32020000 		.4byte	.LVL117
 2896 062a 0300     		.2byte	0x3
 2897 062c 79       		.byte	0x79
 2898 062d 7F       		.sleb128 -1
 2899 062e 9F       		.byte	0x9f
 2900 062f 32020000 		.4byte	.LVL117
 2901 0633 36020000 		.4byte	.LVL118
 2902 0637 0100     		.2byte	0x1
 2903 0639 59       		.byte	0x59
ARM GAS  /var/folders/qh/xwg3v3kj02qbxczjpdb8lzfr0000gn/T//cccPA4jh.s 			page 52


 2904 063a 00000000 		.4byte	0
 2905 063e 00000000 		.4byte	0
 2906              	.LLST15:
 2907 0642 8E000000 		.4byte	.LVL46
 2908 0646 98000000 		.4byte	.LVL47
 2909 064a 0200     		.2byte	0x2
 2910 064c 30       		.byte	0x30
 2911 064d 9F       		.byte	0x9f
 2912 064e DA010000 		.4byte	.LVL100
 2913 0652 DE010000 		.4byte	.LVL101
 2914 0656 0200     		.2byte	0x2
 2915 0658 30       		.byte	0x30
 2916 0659 9F       		.byte	0x9f
 2917 065a E8010000 		.4byte	.LVL104
 2918 065e EA010000 		.4byte	.LVL105
 2919 0662 0100     		.2byte	0x1
 2920 0664 51       		.byte	0x51
 2921 0665 0C020000 		.4byte	.LVL111
 2922 0669 12020000 		.4byte	.LVL112
 2923 066d 0400     		.2byte	0x4
 2924 066f 0A       		.byte	0xa
 2925 0670 FF7F     		.2byte	0x7fff
 2926 0672 9F       		.byte	0x9f
 2927 0673 00000000 		.4byte	0
 2928 0677 00000000 		.4byte	0
 2929              	.LLST16:
 2930 067b 6A000000 		.4byte	.LVL38
 2931 067f 70000000 		.4byte	.LVL40
 2932 0683 0200     		.2byte	0x2
 2933 0685 30       		.byte	0x30
 2934 0686 9F       		.byte	0x9f
 2935 0687 70000000 		.4byte	.LVL40
 2936 068b 78000000 		.4byte	.LVL43
 2937 068f 0100     		.2byte	0x1
 2938 0691 55       		.byte	0x55
 2939 0692 7E000000 		.4byte	.LVL44
 2940 0696 CE000000 		.4byte	.LVL54
 2941 069a 0100     		.2byte	0x1
 2942 069c 55       		.byte	0x55
 2943 069d D6000000 		.4byte	.LVL55
 2944 06a1 FA000000 		.4byte	.LVL60
 2945 06a5 0100     		.2byte	0x1
 2946 06a7 55       		.byte	0x55
 2947 06a8 FA000000 		.4byte	.LVL60
 2948 06ac FC000000 		.4byte	.LVL61
 2949 06b0 0300     		.2byte	0x3
 2950 06b2 75       		.byte	0x75
 2951 06b3 7F       		.sleb128 -1
 2952 06b4 9F       		.byte	0x9f
 2953 06b5 FC000000 		.4byte	.LVL61
 2954 06b9 02010000 		.4byte	.LVL62
 2955 06bd 0100     		.2byte	0x1
 2956 06bf 55       		.byte	0x55
 2957 06c0 02010000 		.4byte	.LVL62
 2958 06c4 10010000 		.4byte	.LVL64
 2959 06c8 0200     		.2byte	0x2
 2960 06ca 30       		.byte	0x30
ARM GAS  /var/folders/qh/xwg3v3kj02qbxczjpdb8lzfr0000gn/T//cccPA4jh.s 			page 53


 2961 06cb 9F       		.byte	0x9f
 2962 06cc 10010000 		.4byte	.LVL64
 2963 06d0 60010000 		.4byte	.LVL80
 2964 06d4 0100     		.2byte	0x1
 2965 06d6 55       		.byte	0x55
 2966 06d7 6E010000 		.4byte	.LVL83
 2967 06db 94010000 		.4byte	.LVL88
 2968 06df 0100     		.2byte	0x1
 2969 06e1 55       		.byte	0x55
 2970 06e2 94010000 		.4byte	.LVL88
 2971 06e6 96010000 		.4byte	.LVL89
 2972 06ea 0300     		.2byte	0x3
 2973 06ec 75       		.byte	0x75
 2974 06ed 01       		.sleb128 1
 2975 06ee 9F       		.byte	0x9f
 2976 06ef 96010000 		.4byte	.LVL89
 2977 06f3 D0010000 		.4byte	.LVL98
 2978 06f7 0100     		.2byte	0x1
 2979 06f9 55       		.byte	0x55
 2980 06fa DA010000 		.4byte	.LVL100
 2981 06fe 02020000 		.4byte	.LVL109
 2982 0702 0100     		.2byte	0x1
 2983 0704 55       		.byte	0x55
 2984 0705 0C020000 		.4byte	.LVL111
 2985 0709 64020000 		.4byte	.LFE10
 2986 070d 0100     		.2byte	0x1
 2987 070f 55       		.byte	0x55
 2988 0710 00000000 		.4byte	0
 2989 0714 00000000 		.4byte	0
 2990              	.LLST17:
 2991 0718 C2010000 		.4byte	.LVL96
 2992 071c D0010000 		.4byte	.LVL98
 2993 0720 0200     		.2byte	0x2
 2994 0722 31       		.byte	0x31
 2995 0723 9F       		.byte	0x9f
 2996 0724 00000000 		.4byte	0
 2997 0728 00000000 		.4byte	0
 2998              	.LLST18:
 2999 072c 4E000000 		.4byte	.LVL35
 3000 0730 5A000000 		.4byte	.LVL37
 3001 0734 0200     		.2byte	0x2
 3002 0736 30       		.byte	0x30
 3003 0737 9F       		.byte	0x9f
 3004 0738 5A000000 		.4byte	.LVL37
 3005 073c 02020000 		.4byte	.LVL109
 3006 0740 0200     		.2byte	0x2
 3007 0742 91       		.byte	0x91
 3008 0743 40       		.sleb128 -64
 3009 0744 02020000 		.4byte	.LVL109
 3010 0748 06020000 		.4byte	.LVL110
 3011 074c 0200     		.2byte	0x2
 3012 074e 30       		.byte	0x30
 3013 074f 9F       		.byte	0x9f
 3014 0750 06020000 		.4byte	.LVL110
 3015 0754 0C020000 		.4byte	.LVL111
 3016 0758 0200     		.2byte	0x2
 3017 075a 31       		.byte	0x31
ARM GAS  /var/folders/qh/xwg3v3kj02qbxczjpdb8lzfr0000gn/T//cccPA4jh.s 			page 54


 3018 075b 9F       		.byte	0x9f
 3019 075c 0C020000 		.4byte	.LVL111
 3020 0760 64020000 		.4byte	.LFE10
 3021 0764 0200     		.2byte	0x2
 3022 0766 91       		.byte	0x91
 3023 0767 40       		.sleb128 -64
 3024 0768 00000000 		.4byte	0
 3025 076c 00000000 		.4byte	0
 3026              	.LLST19:
 3027 0770 BA000000 		.4byte	.LVL50
 3028 0774 C1000000 		.4byte	.LVL52-1
 3029 0778 0100     		.2byte	0x1
 3030 077a 51       		.byte	0x51
 3031 077b 16010000 		.4byte	.LVL66
 3032 077f 24010000 		.4byte	.LVL70
 3033 0783 0100     		.2byte	0x1
 3034 0785 51       		.byte	0x51
 3035 0786 36020000 		.4byte	.LVL118
 3036 078a 44020000 		.4byte	.LVL123
 3037 078e 0100     		.2byte	0x1
 3038 0790 51       		.byte	0x51
 3039 0791 00000000 		.4byte	0
 3040 0795 00000000 		.4byte	0
 3041              	.LLST20:
 3042 0799 20010000 		.4byte	.LVL68
 3043 079d 24010000 		.4byte	.LVL70
 3044 07a1 0200     		.2byte	0x2
 3045 07a3 3A       		.byte	0x3a
 3046 07a4 9F       		.byte	0x9f
 3047 07a5 40020000 		.4byte	.LVL121
 3048 07a9 44020000 		.4byte	.LVL123
 3049 07ad 0200     		.2byte	0x2
 3050 07af 3A       		.byte	0x3a
 3051 07b0 9F       		.byte	0x9f
 3052 07b1 00000000 		.4byte	0
 3053 07b5 00000000 		.4byte	0
 3054              	.LLST21:
 3055 07b9 20010000 		.4byte	.LVL68
 3056 07bd 24010000 		.4byte	.LVL70
 3057 07c1 0100     		.2byte	0x1
 3058 07c3 51       		.byte	0x51
 3059 07c4 40020000 		.4byte	.LVL121
 3060 07c8 44020000 		.4byte	.LVL123
 3061 07cc 0100     		.2byte	0x1
 3062 07ce 51       		.byte	0x51
 3063 07cf 00000000 		.4byte	0
 3064 07d3 00000000 		.4byte	0
 3065              	.LLST22:
 3066 07d7 20010000 		.4byte	.LVL68
 3067 07db 24010000 		.4byte	.LVL70
 3068 07df 0100     		.2byte	0x1
 3069 07e1 50       		.byte	0x50
 3070 07e2 40020000 		.4byte	.LVL121
 3071 07e6 44020000 		.4byte	.LVL123
 3072 07ea 0100     		.2byte	0x1
 3073 07ec 50       		.byte	0x50
 3074 07ed 00000000 		.4byte	0
ARM GAS  /var/folders/qh/xwg3v3kj02qbxczjpdb8lzfr0000gn/T//cccPA4jh.s 			page 55


 3075 07f1 00000000 		.4byte	0
 3076              	.LLST23:
 3077 07f5 00000000 		.4byte	.LVL125
 3078 07f9 10000000 		.4byte	.LVL127
 3079 07fd 0100     		.2byte	0x1
 3080 07ff 50       		.byte	0x50
 3081 0800 10000000 		.4byte	.LVL127
 3082 0804 14000000 		.4byte	.LVL128
 3083 0808 0100     		.2byte	0x1
 3084 080a 53       		.byte	0x53
 3085 080b 14000000 		.4byte	.LVL128
 3086 080f 17000000 		.4byte	.LVL129-1
 3087 0813 0100     		.2byte	0x1
 3088 0815 51       		.byte	0x51
 3089 0816 17000000 		.4byte	.LVL129-1
 3090 081a 3C000000 		.4byte	.LFE11
 3091 081e 0400     		.2byte	0x4
 3092 0820 F3       		.byte	0xf3
 3093 0821 01       		.uleb128 0x1
 3094 0822 50       		.byte	0x50
 3095 0823 9F       		.byte	0x9f
 3096 0824 00000000 		.4byte	0
 3097 0828 00000000 		.4byte	0
 3098              	.LLST24:
 3099 082c 00000000 		.4byte	.LVL125
 3100 0830 0E000000 		.4byte	.LVL126
 3101 0834 0100     		.2byte	0x1
 3102 0836 51       		.byte	0x51
 3103 0837 0E000000 		.4byte	.LVL126
 3104 083b 17000000 		.4byte	.LVL129-1
 3105 083f 0100     		.2byte	0x1
 3106 0841 52       		.byte	0x52
 3107 0842 17000000 		.4byte	.LVL129-1
 3108 0846 3C000000 		.4byte	.LFE11
 3109 084a 0400     		.2byte	0x4
 3110 084c F3       		.byte	0xf3
 3111 084d 01       		.uleb128 0x1
 3112 084e 51       		.byte	0x51
 3113 084f 9F       		.byte	0x9f
 3114 0850 00000000 		.4byte	0
 3115 0854 00000000 		.4byte	0
 3116              	.LLST25:
 3117 0858 18000000 		.4byte	.LVL129
 3118 085c 1A000000 		.4byte	.LVL130
 3119 0860 0300     		.2byte	0x3
 3120 0862 91       		.byte	0x91
 3121 0863 4C       		.sleb128 -52
 3122 0864 9F       		.byte	0x9f
 3123 0865 1A000000 		.4byte	.LVL130
 3124 0869 23000000 		.4byte	.LVL131-1
 3125 086d 0100     		.2byte	0x1
 3126 086f 50       		.byte	0x50
 3127 0870 23000000 		.4byte	.LVL131-1
 3128 0874 28000000 		.4byte	.LVL132
 3129 0878 0300     		.2byte	0x3
 3130 087a 91       		.byte	0x91
 3131 087b 4C       		.sleb128 -52
ARM GAS  /var/folders/qh/xwg3v3kj02qbxczjpdb8lzfr0000gn/T//cccPA4jh.s 			page 56


 3132 087c 9F       		.byte	0x9f
 3133 087d 28000000 		.4byte	.LVL132
 3134 0881 2D000000 		.4byte	.LVL133-1
 3135 0885 0100     		.2byte	0x1
 3136 0887 50       		.byte	0x50
 3137 0888 2D000000 		.4byte	.LVL133-1
 3138 088c 3C000000 		.4byte	.LFE11
 3139 0890 0300     		.2byte	0x3
 3140 0892 91       		.byte	0x91
 3141 0893 4C       		.sleb128 -52
 3142 0894 9F       		.byte	0x9f
 3143 0895 00000000 		.4byte	0
 3144 0899 00000000 		.4byte	0
 3145              		.section	.debug_aranges,"",%progbits
 3146 0000 2C000000 		.4byte	0x2c
 3147 0004 0200     		.2byte	0x2
 3148 0006 00000000 		.4byte	.Ldebug_info0
 3149 000a 04       		.byte	0x4
 3150 000b 00       		.byte	0
 3151 000c 0000     		.2byte	0
 3152 000e 0000     		.2byte	0
 3153 0010 00000000 		.4byte	.LFB12
 3154 0014 68000000 		.4byte	.LFE12-.LFB12
 3155 0018 00000000 		.4byte	.LFB10
 3156 001c 64020000 		.4byte	.LFE10-.LFB10
 3157 0020 00000000 		.4byte	.LFB11
 3158 0024 3C000000 		.4byte	.LFE11-.LFB11
 3159 0028 00000000 		.4byte	0
 3160 002c 00000000 		.4byte	0
 3161              		.section	.debug_ranges,"",%progbits
 3162              	.Ldebug_ranges0:
 3163 0000 BA000000 		.4byte	.LBB6
 3164 0004 BC000000 		.4byte	.LBE6
 3165 0008 BE000000 		.4byte	.LBB9
 3166 000c C8000000 		.4byte	.LBE9
 3167 0010 00000000 		.4byte	0
 3168 0014 00000000 		.4byte	0
 3169 0018 20010000 		.4byte	.LBB10
 3170 001c 24010000 		.4byte	.LBE10
 3171 0020 40020000 		.4byte	.LBB13
 3172 0024 44020000 		.4byte	.LBE13
 3173 0028 00000000 		.4byte	0
 3174 002c 00000000 		.4byte	0
 3175 0030 00000000 		.4byte	.LFB12
 3176 0034 68000000 		.4byte	.LFE12
 3177 0038 00000000 		.4byte	.LFB10
 3178 003c 64020000 		.4byte	.LFE10
 3179 0040 00000000 		.4byte	.LFB11
 3180 0044 3C000000 		.4byte	.LFE11
 3181 0048 00000000 		.4byte	0
 3182 004c 00000000 		.4byte	0
 3183              		.section	.debug_line,"",%progbits
 3184              	.Ldebug_line0:
 3185 0000 AD020000 		.section	.debug_str,"MS",%progbits,1
 3185      02005C01 
 3185      00000201 
 3185      FB0E0D00 
ARM GAS  /var/folders/qh/xwg3v3kj02qbxczjpdb8lzfr0000gn/T//cccPA4jh.s 			page 57


 3185      01010101 
 3186              	.LASF2:
 3187 0000 73697A65 		.ascii	"size_t\000"
 3187      5F7400
 3188              	.LASF23:
 3189 0007 76615F6C 		.ascii	"va_list\000"
 3189      69737400 
 3190              	.LASF11:
 3191 000f 6C6F6E67 		.ascii	"long long unsigned int\000"
 3191      206C6F6E 
 3191      6720756E 
 3191      7369676E 
 3191      65642069 
 3192              	.LASF10:
 3193 0026 6C6F6E67 		.ascii	"long long int\000"
 3193      206C6F6E 
 3193      6720696E 
 3193      7400
 3194              	.LASF1:
 3195 0034 7369676E 		.ascii	"signed char\000"
 3195      65642063 
 3195      68617200 
 3196              	.LASF12:
 3197 0040 626F6F6C 		.ascii	"bool_t\000"
 3197      5F7400
 3198              	.LASF38:
 3199 0047 746D7062 		.ascii	"tmpbuf\000"
 3199      756600
 3200              	.LASF8:
 3201 004e 6C6F6E67 		.ascii	"long int\000"
 3201      20696E74 
 3201      00
 3202              	.LASF45:
 3203 0057 6368736E 		.ascii	"chsnprintf\000"
 3203      7072696E 
 3203      746600
 3204              	.LASF22:
 3205 0062 5F5F7661 		.ascii	"__va_list\000"
 3205      5F6C6973 
 3205      7400
 3206              	.LASF40:
 3207 006c 2E2E2F2E 		.ascii	"../../os/various/chprintf.c\000"
 3207      2E2F6F73 
 3207      2F766172 
 3207      696F7573 
 3207      2F636870 
 3208              	.LASF44:
 3209 0088 756E7369 		.ascii	"unsigned_common\000"
 3209      676E6564 
 3209      5F636F6D 
 3209      6D6F6E00 
 3210              	.LASF33:
 3211 0098 66696C6C 		.ascii	"filler\000"
 3211      657200
 3212              	.LASF36:
 3213 009f 69735F6C 		.ascii	"is_long\000"
 3213      6F6E6700 
ARM GAS  /var/folders/qh/xwg3v3kj02qbxczjpdb8lzfr0000gn/T//cccPA4jh.s 			page 58


 3214              	.LASF19:
 3215 00a7 42617365 		.ascii	"BaseSequentialStream\000"
 3215      53657175 
 3215      656E7469 
 3215      616C5374 
 3215      7265616D 
 3216              	.LASF0:
 3217 00bc 756E7369 		.ascii	"unsigned int\000"
 3217      676E6564 
 3217      20696E74 
 3217      00
 3218              	.LASF9:
 3219 00c9 6C6F6E67 		.ascii	"long unsigned int\000"
 3219      20756E73 
 3219      69676E65 
 3219      6420696E 
 3219      7400
 3220              	.LASF37:
 3221 00db 6C656674 		.ascii	"left_align\000"
 3221      5F616C69 
 3221      676E00
 3222              	.LASF41:
 3223 00e6 2F557365 		.ascii	"/Users/John/Development/embedded/ChibiOS-RT/BluC/ST"
 3223      72732F4A 
 3223      6F686E2F 
 3223      44657665 
 3223      6C6F706D 
 3224 0119 4D333246 		.ascii	"M32F051\000"
 3224      30353100 
 3225              	.LASF35:
 3226 0121 77696474 		.ascii	"width\000"
 3226      6800
 3227              	.LASF26:
 3228 0127 73697A65 		.ascii	"size\000"
 3228      00
 3229              	.LASF6:
 3230 012c 73686F72 		.ascii	"short unsigned int\000"
 3230      7420756E 
 3230      7369676E 
 3230      65642069 
 3230      6E7400
 3231              	.LASF14:
 3232 013f 6D73675F 		.ascii	"msg_t\000"
 3232      7400
 3233              	.LASF30:
 3234 0145 6C746F61 		.ascii	"ltoa\000"
 3234      00
 3235              	.LASF46:
 3236 014a 6D734F62 		.ascii	"msObjectInit\000"
 3236      6A656374 
 3236      496E6974 
 3236      00
 3237              	.LASF17:
 3238 0157 77726974 		.ascii	"write\000"
 3238      6500
 3239              	.LASF15:
 3240 015d 73697A65 		.ascii	"sizetype\000"
ARM GAS  /var/folders/qh/xwg3v3kj02qbxczjpdb8lzfr0000gn/T//cccPA4jh.s 			page 59


 3240      74797065 
 3240      00
 3241              	.LASF39:
 3242 0166 474E5520 		.ascii	"GNU C 4.8.3 20131129 (release) [ARM/embedded-4_8-br"
 3242      4320342E 
 3242      382E3320 
 3242      32303133 
 3242      31313239 
 3243 0199 616E6368 		.ascii	"anch revision 205641] -mcpu=cortex-m0 -mno-thumb-in"
 3243      20726576 
 3243      6973696F 
 3243      6E203230 
 3243      35363431 
 3244 01cc 74657277 		.ascii	"terwork -mthumb -ggdb -O2 -fomit-frame-pointer -fal"
 3244      6F726B20 
 3244      2D6D7468 
 3244      756D6220 
 3244      2D676764 
 3245 01ff 69676E2D 		.ascii	"ign-functions=16 -ffunction-sections -fdata-section"
 3245      66756E63 
 3245      74696F6E 
 3245      733D3136 
 3245      202D6666 
 3246 0232 73202D66 		.ascii	"s -fno-common\000"
 3246      6E6F2D63 
 3246      6F6D6D6F 
 3246      6E00
 3247              	.LASF32:
 3248 0240 64697669 		.ascii	"divisor\000"
 3248      736F7200 
 3249              	.LASF20:
 3250 0248 5F5F676E 		.ascii	"__gnuc_va_list\000"
 3250      75635F76 
 3250      615F6C69 
 3250      737400
 3251              	.LASF24:
 3252 0257 4D656D53 		.ascii	"MemStreamVMT\000"
 3252      74726561 
 3252      6D564D54 
 3252      00
 3253              	.LASF28:
 3254 0264 4D656D6F 		.ascii	"MemoryStream\000"
 3254      72795374 
 3254      7265616D 
 3254      00
 3255              	.LASF13:
 3256 0271 5F426F6F 		.ascii	"_Bool\000"
 3256      6C00
 3257              	.LASF7:
 3258 0277 696E7433 		.ascii	"int32_t\000"
 3258      325F7400 
 3259              	.LASF4:
 3260 027f 756E7369 		.ascii	"unsigned char\000"
 3260      676E6564 
 3260      20636861 
 3260      7200
 3261              	.LASF5:
ARM GAS  /var/folders/qh/xwg3v3kj02qbxczjpdb8lzfr0000gn/T//cccPA4jh.s 			page 60


 3262 028d 73686F72 		.ascii	"short int\000"
 3262      7420696E 
 3262      7400
 3263              	.LASF21:
 3264 0297 42617365 		.ascii	"BaseSequentialStreamVMT\000"
 3264      53657175 
 3264      656E7469 
 3264      616C5374 
 3264      7265616D 
 3265              	.LASF29:
 3266 02af 72616469 		.ascii	"radix\000"
 3266      7800
 3267              	.LASF16:
 3268 02b5 63686172 		.ascii	"char\000"
 3268      00
 3269              	.LASF34:
 3270 02ba 70726563 		.ascii	"precision\000"
 3270      6973696F 
 3270      6E00
 3271              	.LASF25:
 3272 02c4 62756666 		.ascii	"buffer\000"
 3272      657200
 3273              	.LASF27:
 3274 02cb 6F666673 		.ascii	"offset\000"
 3274      657400
 3275              	.LASF42:
 3276 02d2 5F5F6170 		.ascii	"__ap\000"
 3276      00
 3277              	.LASF3:
 3278 02d7 75696E74 		.ascii	"uint8_t\000"
 3278      385F7400 
 3279              	.LASF43:
 3280 02df 63687670 		.ascii	"chvprintf\000"
 3280      72696E74 
 3280      6600
 3281              	.LASF18:
 3282 02e9 72656164 		.ascii	"read\000"
 3282      00
 3283              	.LASF31:
 3284 02ee 6C6F6E67 		.ascii	"long_to_string_with_divisor\000"
 3284      5F746F5F 
 3284      73747269 
 3284      6E675F77 
 3284      6974685F 
 3285              		.ident	"GCC: (GNU Tools for ARM Embedded Processors) 4.8.3 20131129 (release) [ARM/embedded-4_8-br
ARM GAS  /var/folders/qh/xwg3v3kj02qbxczjpdb8lzfr0000gn/T//cccPA4jh.s 			page 61


DEFINED SYMBOLS
                            *ABS*:0000000000000000 chprintf.c
/var/folders/qh/xwg3v3kj02qbxczjpdb8lzfr0000gn/T//cccPA4jh.s:20     .text.long_to_string_with_divisor.constprop.0:0000000000000000 $t
/var/folders/qh/xwg3v3kj02qbxczjpdb8lzfr0000gn/T//cccPA4jh.s:25     .text.long_to_string_with_divisor.constprop.0:0000000000000000 long_to_string_with_divisor.constprop.0
/var/folders/qh/xwg3v3kj02qbxczjpdb8lzfr0000gn/T//cccPA4jh.s:141    .text.chvprintf:0000000000000000 $t
/var/folders/qh/xwg3v3kj02qbxczjpdb8lzfr0000gn/T//cccPA4jh.s:147    .text.chvprintf:0000000000000000 chvprintf
/var/folders/qh/xwg3v3kj02qbxczjpdb8lzfr0000gn/T//cccPA4jh.s:329    .rodata.chvprintf:0000000000000000 $d
/var/folders/qh/xwg3v3kj02qbxczjpdb8lzfr0000gn/T//cccPA4jh.s:801    .text.chvprintf:0000000000000258 $d
/var/folders/qh/xwg3v3kj02qbxczjpdb8lzfr0000gn/T//cccPA4jh.s:808    .text.chsnprintf:0000000000000000 $t
/var/folders/qh/xwg3v3kj02qbxczjpdb8lzfr0000gn/T//cccPA4jh.s:814    .text.chsnprintf:0000000000000000 chsnprintf
/var/folders/qh/xwg3v3kj02qbxczjpdb8lzfr0000gn/T//cccPA4jh.s:873    .rodata.str1.4:0000000000000000 $d
                     .debug_frame:0000000000000010 $d
/var/folders/qh/xwg3v3kj02qbxczjpdb8lzfr0000gn/T//cccPA4jh.s:807    .text.chvprintf:0000000000000264 $t

UNDEFINED SYMBOLS
__aeabi_uidivmod
__aeabi_uidiv
msObjectInit
