ARM GAS  /var/folders/qh/xwg3v3kj02qbxczjpdb8lzfr0000gn/T//cccjHsDc.s 			page 1


   1              		.cpu cortex-m0
   2              		.fpu softvfp
   3              		.eabi_attribute 20, 1
   4              		.eabi_attribute 21, 1
   5              		.eabi_attribute 23, 3
   6              		.eabi_attribute 24, 1
   7              		.eabi_attribute 25, 1
   8              		.eabi_attribute 26, 1
   9              		.eabi_attribute 30, 2
  10              		.eabi_attribute 34, 0
  11              		.eabi_attribute 18, 4
  12              		.code	16
  13              		.file	"chregistry.c"
  14              		.text
  15              	.Ltext0:
  16              		.cfi_sections	.debug_frame
  17              		.section	.text.chRegFirstThread,"ax",%progbits
  18              		.align	2
  19              		.p2align 4,,15
  20              		.global	chRegFirstThread
  21              		.code	16
  22              		.thumb_func
  23              		.type	chRegFirstThread, %function
  24              	chRegFirstThread:
  25              	.LFB7:
  26              		.file 1 "../../os/kernel/src/chregistry.c"
  27              		.loc 1 110 0
  28              		.cfi_startproc
  29 0000 10B5     		push	{r4, lr}
  30              		.cfi_def_cfa_offset 8
  31              		.cfi_offset 4, -8
  32              		.cfi_offset 14, -4
  33              		.loc 1 113 0
  34              	@ 113 "../../os/kernel/src/chregistry.c" 1
  35 0002 72B6     		cpsid   i
  36              	@ 0 "" 2
  37              		.code	16
  38 0004 FFF7FEFF 		bl	dbg_check_lock
  39              	.LVL0:
  40              		.loc 1 114 0
  41 0008 044B     		ldr	r3, .L2
  42 000a 1C69     		ldr	r4, [r3, #16]
  43              	.LVL1:
  44              		.loc 1 116 0
  45 000c A37F     		ldrb	r3, [r4, #30]
  46 000e 0133     		add	r3, r3, #1
  47 0010 A377     		strb	r3, [r4, #30]
  48              		.loc 1 118 0
  49 0012 FFF7FEFF 		bl	dbg_check_unlock
  50              	.LVL2:
  51              	@ 118 "../../os/kernel/src/chregistry.c" 1
  52 0016 62B6     		cpsie   i
  53              	@ 0 "" 2
  54              		.loc 1 120 0
  55              		.code	16
  56 0018 201C     		mov	r0, r4
  57              		@ sp needed
ARM GAS  /var/folders/qh/xwg3v3kj02qbxczjpdb8lzfr0000gn/T//cccjHsDc.s 			page 2


  58              	.LVL3:
  59 001a 10BD     		pop	{r4, pc}
  60              	.L3:
  61              		.align	2
  62              	.L2:
  63 001c 00000000 		.word	rlist
  64              		.cfi_endproc
  65              	.LFE7:
  66              		.size	chRegFirstThread, .-chRegFirstThread
  67              		.section	.text.chRegNextThread,"ax",%progbits
  68              		.align	2
  69              		.p2align 4,,15
  70              		.global	chRegNextThread
  71              		.code	16
  72              		.thumb_func
  73              		.type	chRegNextThread, %function
  74              	chRegNextThread:
  75              	.LFB8:
  76              		.loc 1 133 0
  77              		.cfi_startproc
  78              	.LVL4:
  79 0000 38B5     		push	{r3, r4, r5, lr}
  80              		.cfi_def_cfa_offset 16
  81              		.cfi_offset 3, -16
  82              		.cfi_offset 4, -12
  83              		.cfi_offset 5, -8
  84              		.cfi_offset 14, -4
  85              		.loc 1 133 0
  86 0002 051C     		mov	r5, r0
  87              		.loc 1 136 0
  88              	@ 136 "../../os/kernel/src/chregistry.c" 1
  89 0004 72B6     		cpsid   i
  90              	@ 0 "" 2
  91              		.code	16
  92 0006 FFF7FEFF 		bl	dbg_check_lock
  93              	.LVL5:
  94              		.loc 1 137 0
  95 000a 2C69     		ldr	r4, [r5, #16]
  96              	.LVL6:
  97              		.loc 1 138 0
  98 000c 074B     		ldr	r3, .L8
  99 000e 9C42     		cmp	r4, r3
 100 0010 0AD0     		beq	.L6
 101              		.loc 1 144 0
 102 0012 A37F     		ldrb	r3, [r4, #30]
 103 0014 0133     		add	r3, r3, #1
 104 0016 A377     		strb	r3, [r4, #30]
 105              	.LVL7:
 106              	.L5:
 107              		.loc 1 147 0
 108 0018 FFF7FEFF 		bl	dbg_check_unlock
 109              	.LVL8:
 110              	@ 147 "../../os/kernel/src/chregistry.c" 1
 111 001c 62B6     		cpsie   i
 112              	@ 0 "" 2
 113              		.loc 1 149 0
 114              		.code	16
ARM GAS  /var/folders/qh/xwg3v3kj02qbxczjpdb8lzfr0000gn/T//cccjHsDc.s 			page 3


 115 001e 281C     		mov	r0, r5
 116 0020 FFF7FEFF 		bl	chThdRelease
 117              	.LVL9:
 118              		.loc 1 152 0
 119              		@ sp needed
 120 0024 201C     		mov	r0, r4
 121              	.LVL10:
 122              	.LVL11:
 123 0026 38BD     		pop	{r3, r4, r5, pc}
 124              	.LVL12:
 125              	.L6:
 126              		.loc 1 139 0
 127 0028 0024     		mov	r4, #0
 128              	.LVL13:
 129 002a F5E7     		b	.L5
 130              	.L9:
 131              		.align	2
 132              	.L8:
 133 002c 00000000 		.word	rlist
 134              		.cfi_endproc
 135              	.LFE8:
 136              		.size	chRegNextThread, .-chRegNextThread
 137              		.global	ch_debug
 138              		.section	.rodata.ch_debug,"a",%progbits
 139              		.align	2
 140              		.type	ch_debug, %object
 141              		.size	ch_debug, 22
 142              	ch_debug:
 143 0000 6D61696E 		.ascii	"main"
 144 0004 00       		.byte	0
 145 0005 16       		.byte	22
 146 0006 C011     		.short	4544
 147 0008 04       		.byte	4
 148 0009 04       		.byte	4
 149 000a 48       		.byte	72
 150 000b 08       		.byte	8
 151 000c 0C       		.byte	12
 152 000d 10       		.byte	16
 153 000e 14       		.byte	20
 154 000f 18       		.byte	24
 155 0010 00       		.byte	0
 156 0011 1C       		.byte	28
 157 0012 1D       		.byte	29
 158 0013 1E       		.byte	30
 159 0014 1F       		.byte	31
 160 0015 20       		.byte	32
 161 0016 0000     		.text
 162              	.Letext0:
 163              		.file 2 "/usr/local/Cellar/gcc-arm-none-eabi-48/20131218/lib/gcc/arm-none-eabi/4.8.3/include/stdde
 164              		.file 3 "/usr/local/Cellar/gcc-arm-none-eabi-48/20131218/arm-none-eabi/include/stdint.h"
 165              		.file 4 "../../os/ports/GCC/ARMCMx/chtypes.h"
 166              		.file 5 "../../os/kernel/include/chlists.h"
 167              		.file 6 "../../os/kernel/include/chthreads.h"
 168              		.file 7 "../../os/ports/GCC/ARMCMx/chcore_v6m.h"
 169              		.file 8 "../../os/kernel/include/chschd.h"
 170              		.file 9 "../../os/kernel/include/chmtx.h"
 171              		.file 10 "../../os/kernel/include/chregistry.h"
ARM GAS  /var/folders/qh/xwg3v3kj02qbxczjpdb8lzfr0000gn/T//cccjHsDc.s 			page 4


 172              		.file 11 "../../os/kernel/include/chdebug.h"
 173              		.file 12 "../../os/kernel/include/chdynamic.h"