ARM GAS  /var/folders/qh/xwg3v3kj02qbxczjpdb8lzfr0000gn/T//ccEcPMDY.s 			page 1


   1              		.cpu cortex-m0
   2              		.fpu softvfp
   3              		.eabi_attribute 20, 1
   4              		.eabi_attribute 21, 1
   5              		.eabi_attribute 23, 3
   6              		.eabi_attribute 24, 1
   7              		.eabi_attribute 25, 1
   8              		.eabi_attribute 26, 1
   9              		.eabi_attribute 30, 2
  10              		.eabi_attribute 34, 0
  11              		.eabi_attribute 18, 4
  12              		.code	16
  13              		.file	"chschd.c"
  14              		.text
  15              	.Ltext0:
  16              		.cfi_sections	.debug_frame
  17              		.section	.text._scheduler_init,"ax",%progbits
  18              		.align	2
  19              		.p2align 4,,15
  20              		.global	_scheduler_init
  21              		.code	16
  22              		.thumb_func
  23              		.type	_scheduler_init, %function
  24              	_scheduler_init:
  25              	.LFB7:
  26              		.file 1 "../../os/kernel/src/chschd.c"
  27              		.loc 1 48 0
  28              		.cfi_startproc
  29              		.loc 1 50 0
  30 0000 034B     		ldr	r3, .L2
  31              		.loc 1 51 0
  32 0002 0022     		mov	r2, #0
  33              		.loc 1 50 0
  34 0004 5B60     		str	r3, [r3, #4]
  35 0006 1B60     		str	r3, [r3]
  36              		.loc 1 51 0
  37 0008 9A60     		str	r2, [r3, #8]
  38              		.loc 1 53 0
  39 000a 5B61     		str	r3, [r3, #20]
  40 000c 1B61     		str	r3, [r3, #16]
  41              		.loc 1 55 0
  42              		@ sp needed
  43 000e 7047     		bx	lr
  44              	.L3:
  45              		.align	2
  46              	.L2:
  47 0010 00000000 		.word	.LANCHOR0
  48              		.cfi_endproc
  49              	.LFE7:
  50              		.size	_scheduler_init, .-_scheduler_init
  51 0014 C046C046 		.section	.text.chSchReadyI,"ax",%progbits
  51      C046C046 
  51      C046C046 
  52              		.align	2
  53              		.p2align 4,,15
  54              		.global	chSchReadyI
  55              		.code	16
ARM GAS  /var/folders/qh/xwg3v3kj02qbxczjpdb8lzfr0000gn/T//ccEcPMDY.s 			page 2


  56              		.thumb_func
  57              		.type	chSchReadyI, %function
  58              	chSchReadyI:
  59              	.LFB8:
  60              		.loc 1 74 0
  61              		.cfi_startproc
  62              	.LVL0:
  63 0000 10B5     		push	{r4, lr}
  64              		.cfi_def_cfa_offset 8
  65              		.cfi_offset 4, -8
  66              		.cfi_offset 14, -4
  67              		.loc 1 74 0
  68 0002 041C     		mov	r4, r0
  69              		.loc 1 77 0
  70 0004 FFF7FEFF 		bl	chDbgCheckClassI
  71              	.LVL1:
  72              		.loc 1 85 0
  73 0008 0023     		mov	r3, #0
  74 000a 2377     		strb	r3, [r4, #28]
  75              	.LVL2:
  76 000c A268     		ldr	r2, [r4, #8]
  77              		.loc 1 86 0
  78 000e 064B     		ldr	r3, .L8
  79              	.LVL3:
  80              	.L6:
  81              		.loc 1 88 0 discriminator 1
  82 0010 1B68     		ldr	r3, [r3]
  83              	.LVL4:
  84              		.loc 1 89 0 discriminator 1
  85 0012 9968     		ldr	r1, [r3, #8]
  86 0014 9142     		cmp	r1, r2
  87 0016 FBD2     		bcs	.L6
  88              		.loc 1 92 0
  89 0018 5A68     		ldr	r2, [r3, #4]
  90              		.loc 1 91 0
  91 001a 2360     		str	r3, [r4]
  92              		.loc 1 92 0
  93 001c 6260     		str	r2, [r4, #4]
  94              		.loc 1 95 0
  95 001e 201C     		mov	r0, r4
  96              		.loc 1 93 0
  97 0020 5C60     		str	r4, [r3, #4]
  98 0022 1460     		str	r4, [r2]
  99              		.loc 1 95 0
 100              		@ sp needed
 101              	.LVL5:
 102 0024 10BD     		pop	{r4, pc}
 103              	.L9:
 104 0026 C046     		.align	2
 105              	.L8:
 106 0028 00000000 		.word	.LANCHOR0
 107              		.cfi_endproc
 108              	.LFE8:
 109              		.size	chSchReadyI, .-chSchReadyI
 110 002c C046C046 		.section	.text.wakeup,"ax",%progbits
 111              		.align	2
 112              		.p2align 4,,15
ARM GAS  /var/folders/qh/xwg3v3kj02qbxczjpdb8lzfr0000gn/T//ccEcPMDY.s 			page 3


 113              		.code	16
 114              		.thumb_func
 115              		.type	wakeup, %function
 116              	wakeup:
 117              	.LFB10:
 118              		.loc 1 129 0
 119              		.cfi_startproc
 120              	.LVL6:
 121 0000 10B5     		push	{r4, lr}
 122              		.cfi_def_cfa_offset 8
 123              		.cfi_offset 4, -8
 124              		.cfi_offset 14, -4
 125              		.loc 1 129 0
 126 0002 041C     		mov	r4, r0
 127              	.LVL7:
 128              		.loc 1 132 0
 129              	@ 132 "../../os/kernel/src/chschd.c" 1
 130 0004 72B6     		cpsid   i
 131              	@ 0 "" 2
 132              		.code	16
 133 0006 FFF7FEFF 		bl	dbg_check_lock_from_isr
 134              	.LVL8:
 135              		.loc 1 133 0
 136 000a 237F     		ldrb	r3, [r4, #28]
 137 000c 032B     		cmp	r3, #3
 138 000e 16D0     		beq	.L12
 139 0010 0FD9     		bls	.L24
 140 0012 052B     		cmp	r3, #5
 141 0014 01D0     		beq	.L15
 142 0016 0D2B     		cmp	r3, #13
 143 0018 04D1     		bne	.L11
 144              	.L15:
 145              	.LVL9:
 146              	.LBB10:
 147              	.LBB11:
 148              		.file 2 "../../os/kernel/include/chinline.h"
 149              		.loc 2 68 0
 150 001a 2268     		ldr	r2, [r4]
 151 001c 6368     		ldr	r3, [r4, #4]
 152 001e 1A60     		str	r2, [r3]
 153              		.loc 2 69 0
 154 0020 2268     		ldr	r2, [r4]
 155 0022 5360     		str	r3, [r2, #4]
 156              	.LVL10:
 157              	.L11:
 158              	.LBE11:
 159              	.LBE10:
 160              		.loc 1 156 0
 161 0024 0123     		mov	r3, #1
 162 0026 5B42     		neg	r3, r3
 163 0028 6362     		str	r3, [r4, #36]
 164              		.loc 1 157 0
 165 002a 201C     		mov	r0, r4
 166 002c FFF7FEFF 		bl	chSchReadyI
 167              	.LVL11:
 168 0030 01E0     		b	.L23
 169              	.L24:
ARM GAS  /var/folders/qh/xwg3v3kj02qbxczjpdb8lzfr0000gn/T//ccEcPMDY.s 			page 4


 170              		.loc 1 133 0
 171 0032 002B     		cmp	r3, #0
 172 0034 F6D1     		bne	.L11
 173              	.L23:
 174              		.loc 1 158 0
 175 0036 FFF7FEFF 		bl	dbg_check_unlock_from_isr
 176              	.LVL12:
 177              	@ 158 "../../os/kernel/src/chschd.c" 1
 178 003a 62B6     		cpsie   i
 179              	@ 0 "" 2
 180              		.loc 1 159 0
 181              		.code	16
 182              		@ sp needed
 183              	.LVL13:
 184 003c 10BD     		pop	{r4, pc}
 185              	.LVL14:
 186              	.L12:
 187              		.loc 1 143 0
 188 003e 636A     		ldr	r3, [r4, #36]
 189 0040 9A68     		ldr	r2, [r3, #8]
 190 0042 0132     		add	r2, r2, #1
 191 0044 9A60     		str	r2, [r3, #8]
 192              	.LVL15:
 193              	.LBB13:
 194              	.LBB12:
 195              		.loc 2 68 0
 196 0046 2268     		ldr	r2, [r4]
 197 0048 6368     		ldr	r3, [r4, #4]
 198 004a 1A60     		str	r2, [r3]
 199              		.loc 2 69 0
 200 004c 2268     		ldr	r2, [r4]
 201 004e 5360     		str	r3, [r2, #4]
 202 0050 E8E7     		b	.L11
 203              	.LBE12:
 204              	.LBE13:
 205              		.cfi_endproc
 206              	.LFE10:
 207              		.size	wakeup, .-wakeup
 208 0052 C046C046 		.section	.text.chSchGoSleepS,"ax",%progbits
 208      C046C046 
 208      C046C046 
 208      C046
 209              		.align	2
 210              		.p2align 4,,15
 211              		.global	chSchGoSleepS
 212              		.code	16
 213              		.thumb_func
 214              		.type	chSchGoSleepS, %function
 215              	chSchGoSleepS:
 216              	.LFB9:
 217              		.loc 1 108 0
 218              		.cfi_startproc
 219              	.LVL16:
 220 0000 10B5     		push	{r4, lr}
 221              		.cfi_def_cfa_offset 8
 222              		.cfi_offset 4, -8
 223              		.cfi_offset 14, -4
ARM GAS  /var/folders/qh/xwg3v3kj02qbxczjpdb8lzfr0000gn/T//ccEcPMDY.s 			page 5


 224              		.loc 1 108 0
 225 0002 041C     		mov	r4, r0
 226              		.loc 1 111 0
 227 0004 FFF7FEFF 		bl	chDbgCheckClassS
 228              	.LVL17:
 229              		.loc 1 113 0
 230 0008 074B     		ldr	r3, .L26
 231              		.loc 1 117 0
 232 000a 1422     		mov	r2, #20
 233              		.loc 1 113 0
 234 000c 9969     		ldr	r1, [r3, #24]
 235              	.LVL18:
 236              	.LBB14:
 237              	.LBB15:
 238              		.loc 2 53 0
 239 000e 1868     		ldr	r0, [r3]
 240              	.LBE15:
 241              	.LBE14:
 242              		.loc 1 117 0
 243 0010 CA77     		strb	r2, [r1, #31]
 244              	.LVL19:
 245              	.LBB18:
 246              	.LBB16:
 247              		.loc 2 55 0
 248 0012 0268     		ldr	r2, [r0]
 249              	.LBE16:
 250              	.LBE18:
 251              		.loc 1 113 0
 252 0014 0C77     		strb	r4, [r1, #28]
 253              	.LBB19:
 254              	.LBB17:
 255              		.loc 2 55 0
 256 0016 1A60     		str	r2, [r3]
 257 0018 5360     		str	r3, [r2, #4]
 258              	.LBE17:
 259              	.LBE19:
 260              		.loc 1 119 0
 261 001a 9861     		str	r0, [r3, #24]
 262              		.loc 1 120 0
 263 001c 0123     		mov	r3, #1
 264 001e 0377     		strb	r3, [r0, #28]
 265              		.loc 1 121 0
 266 0020 FFF7FEFF 		bl	_port_switch
 267              	.LVL20:
 268              		.loc 1 122 0
 269              		@ sp needed
 270 0024 10BD     		pop	{r4, pc}
 271              	.L27:
 272 0026 C046     		.align	2
 273              	.L26:
 274 0028 00000000 		.word	.LANCHOR0
 275              		.cfi_endproc
 276              	.LFE9:
 277              		.size	chSchGoSleepS, .-chSchGoSleepS
 278 002c C046C046 		.section	.text.chSchGoSleepTimeoutS,"ax",%progbits
 279              		.align	2
 280              		.p2align 4,,15
ARM GAS  /var/folders/qh/xwg3v3kj02qbxczjpdb8lzfr0000gn/T//ccEcPMDY.s 			page 6


 281              		.global	chSchGoSleepTimeoutS
 282              		.code	16
 283              		.thumb_func
 284              		.type	chSchGoSleepTimeoutS, %function
 285              	chSchGoSleepTimeoutS:
 286              	.LFB11:
 287              		.loc 1 182 0
 288              		.cfi_startproc
 289              	.LVL21:
 290 0000 70B5     		push	{r4, r5, r6, lr}
 291              		.cfi_def_cfa_offset 16
 292              		.cfi_offset 4, -16
 293              		.cfi_offset 5, -12
 294              		.cfi_offset 6, -8
 295              		.cfi_offset 14, -4
 296 0002 0C1C     		mov	r4, r1
 297 0004 86B0     		sub	sp, sp, #24
 298              		.cfi_def_cfa_offset 40
 299              		.loc 1 182 0
 300 0006 061C     		mov	r6, r0
 301              		.loc 1 184 0
 302 0008 FFF7FEFF 		bl	chDbgCheckClassS
 303              	.LVL22:
 304              		.loc 1 186 0
 305 000c 631C     		add	r3, r4, #1
 306 000e 13D0     		beq	.L29
 307              	.LBB20:
 308              		.loc 1 189 0
 309 0010 0C4D     		ldr	r5, .L35
 310 0012 01A8     		add	r0, sp, #4
 311 0014 AB69     		ldr	r3, [r5, #24]
 312 0016 211C     		mov	r1, r4
 313 0018 0B4A     		ldr	r2, .L35+4
 314 001a FFF7FEFF 		bl	chVTSetI
 315              	.LVL23:
 316              		.loc 1 190 0
 317 001e 301C     		mov	r0, r6
 318 0020 FFF7FEFF 		bl	chSchGoSleepS
 319              	.LVL24:
 320              		.loc 1 191 0
 321 0024 049B     		ldr	r3, [sp, #16]
 322 0026 002B     		cmp	r3, #0
 323 0028 02D0     		beq	.L31
 324              		.loc 1 192 0
 325 002a 01A8     		add	r0, sp, #4
 326 002c FFF7FEFF 		bl	chVTResetI
 327              	.LVL25:
 328              	.L31:
 329              	.LBE20:
 330              		.loc 1 196 0
 331 0030 AB69     		ldr	r3, [r5, #24]
 332 0032 586A     		ldr	r0, [r3, #36]
 333              		.loc 1 197 0
 334 0034 06B0     		add	sp, sp, #24
 335              		@ sp needed
 336              	.LVL26:
 337 0036 70BD     		pop	{r4, r5, r6, pc}
ARM GAS  /var/folders/qh/xwg3v3kj02qbxczjpdb8lzfr0000gn/T//ccEcPMDY.s 			page 7


 338              	.LVL27:
 339              	.L29:
 340              		.loc 1 195 0
 341 0038 301C     		mov	r0, r6
 342 003a FFF7FEFF 		bl	chSchGoSleepS
 343              	.LVL28:
 344 003e 014D     		ldr	r5, .L35
 345 0040 F6E7     		b	.L31
 346              	.L36:
 347 0042 C046     		.align	2
 348              	.L35:
 349 0044 00000000 		.word	.LANCHOR0
 350 0048 00000000 		.word	wakeup
 351              		.cfi_endproc
 352              	.LFE11:
 353              		.size	chSchGoSleepTimeoutS, .-chSchGoSleepTimeoutS
 354 004c C046C046 		.section	.text.chSchWakeupS,"ax",%progbits
 355              		.align	2
 356              		.p2align 4,,15
 357              		.global	chSchWakeupS
 358              		.code	16
 359              		.thumb_func
 360              		.type	chSchWakeupS, %function
 361              	chSchWakeupS:
 362              	.LFB12:
 363              		.loc 1 218 0
 364              		.cfi_startproc
 365              	.LVL29:
 366 0000 38B5     		push	{r3, r4, r5, lr}
 367              		.cfi_def_cfa_offset 16
 368              		.cfi_offset 3, -16
 369              		.cfi_offset 4, -12
 370              		.cfi_offset 5, -8
 371              		.cfi_offset 14, -4
 372              		.loc 1 218 0
 373 0002 041C     		mov	r4, r0
 374 0004 0D1C     		mov	r5, r1
 375              		.loc 1 220 0
 376 0006 FFF7FEFF 		bl	chDbgCheckClassS
 377              	.LVL30:
 378              		.loc 1 222 0
 379 000a 6562     		str	r5, [r4, #36]
 380              		.loc 1 227 0
 381 000c 094D     		ldr	r5, .L41
 382              	.LVL31:
 383 000e A268     		ldr	r2, [r4, #8]
 384 0010 A869     		ldr	r0, [r5, #24]
 385 0012 8368     		ldr	r3, [r0, #8]
 386 0014 9A42     		cmp	r2, r3
 387 0016 09D9     		bls	.L40
 388              	.LBB21:
 389              		.loc 1 230 0
 390 0018 FFF7FEFF 		bl	chSchReadyI
 391              	.LVL32:
 392              		.loc 1 232 0
 393 001c 0123     		mov	r3, #1
 394              		.loc 1 230 0
ARM GAS  /var/folders/qh/xwg3v3kj02qbxczjpdb8lzfr0000gn/T//ccEcPMDY.s 			page 8


 395 001e 011C     		mov	r1, r0
 396              	.LVL33:
 397              		.loc 1 232 0
 398 0020 2377     		strb	r3, [r4, #28]
 399              		.loc 1 233 0
 400 0022 201C     		mov	r0, r4
 401              	.LVL34:
 402              		.loc 1 231 0
 403 0024 AC61     		str	r4, [r5, #24]
 404              		.loc 1 233 0
 405 0026 FFF7FEFF 		bl	_port_switch
 406              	.LVL35:
 407              	.L37:
 408              	.LBE21:
 409              		.loc 1 235 0
 410              		@ sp needed
 411              	.LVL36:
 412 002a 38BD     		pop	{r3, r4, r5, pc}
 413              	.LVL37:
 414              	.L40:
 415              		.loc 1 228 0
 416 002c 201C     		mov	r0, r4
 417 002e FFF7FEFF 		bl	chSchReadyI
 418              	.LVL38:
 419 0032 FAE7     		b	.L37
 420              	.L42:
 421              		.align	2
 422              	.L41:
 423 0034 00000000 		.word	.LANCHOR0
 424              		.cfi_endproc
 425              	.LFE12:
 426              		.size	chSchWakeupS, .-chSchWakeupS
 427 0038 C046C046 		.section	.text.chSchDoRescheduleBehind,"ax",%progbits
 427      C046C046 
 428              		.align	2
 429              		.p2align 4,,15
 430              		.global	chSchDoRescheduleBehind
 431              		.code	16
 432              		.thumb_func
 433              		.type	chSchDoRescheduleBehind, %function
 434              	chSchDoRescheduleBehind:
 435              	.LFB14:
 436              		.loc 1 297 0
 437              		.cfi_startproc
 438 0000 38B5     		push	{r3, r4, r5, lr}
 439              		.cfi_def_cfa_offset 16
 440              		.cfi_offset 3, -16
 441              		.cfi_offset 4, -12
 442              		.cfi_offset 5, -8
 443              		.cfi_offset 14, -4
 444              		.loc 1 300 0
 445 0002 094C     		ldr	r4, .L44
 446              		.loc 1 309 0
 447              		@ sp needed
 448              	.LBB22:
 449              	.LBB23:
 450              		.loc 2 53 0
ARM GAS  /var/folders/qh/xwg3v3kj02qbxczjpdb8lzfr0000gn/T//ccEcPMDY.s 			page 9


 451 0004 2368     		ldr	r3, [r4]
 452              	.LBE23:
 453              	.LBE22:
 454              		.loc 1 300 0
 455 0006 A569     		ldr	r5, [r4, #24]
 456              	.LVL39:
 457              	.LBB26:
 458              	.LBB24:
 459              		.loc 2 55 0
 460 0008 1A68     		ldr	r2, [r3]
 461              	.LBE24:
 462              	.LBE26:
 463              		.loc 1 307 0
 464 000a 281C     		mov	r0, r5
 465              	.LBB27:
 466              	.LBB25:
 467              		.loc 2 55 0
 468 000c 5460     		str	r4, [r2, #4]
 469 000e 2260     		str	r2, [r4]
 470              	.LBE25:
 471              	.LBE27:
 472              		.loc 1 303 0
 473 0010 0122     		mov	r2, #1
 474 0012 1A77     		strb	r2, [r3, #28]
 475              		.loc 1 302 0
 476 0014 A361     		str	r3, [r4, #24]
 477              		.loc 1 305 0
 478 0016 1423     		mov	r3, #20
 479              	.LVL40:
 480 0018 EB77     		strb	r3, [r5, #31]
 481              		.loc 1 307 0
 482 001a FFF7FEFF 		bl	chSchReadyI
 483              	.LVL41:
 484              		.loc 1 308 0
 485 001e 291C     		mov	r1, r5
 486 0020 A069     		ldr	r0, [r4, #24]
 487 0022 FFF7FEFF 		bl	_port_switch
 488              	.LVL42:
 489              	.LVL43:
 490              		.loc 1 309 0
 491 0026 38BD     		pop	{r3, r4, r5, pc}
 492              	.L45:
 493              		.align	2
 494              	.L44:
 495 0028 00000000 		.word	.LANCHOR0
 496              		.cfi_endproc
 497              	.LFE14:
 498              		.size	chSchDoRescheduleBehind, .-chSchDoRescheduleBehind
 499 002c C046C046 		.section	.text.chSchDoRescheduleAhead,"ax",%progbits
 500              		.align	2
 501              		.p2align 4,,15
 502              		.global	chSchDoRescheduleAhead
 503              		.code	16
 504              		.thumb_func
 505              		.type	chSchDoRescheduleAhead, %function
 506              	chSchDoRescheduleAhead:
 507              	.LFB15:
ARM GAS  /var/folders/qh/xwg3v3kj02qbxczjpdb8lzfr0000gn/T//ccEcPMDY.s 			page 10


 508              		.loc 1 322 0
 509              		.cfi_startproc
 510              		.loc 1 325 0
 511 0000 0D4B     		ldr	r3, .L50
 512              		.loc 1 322 0
 513 0002 10B5     		push	{r4, lr}
 514              		.cfi_def_cfa_offset 8
 515              		.cfi_offset 4, -8
 516              		.cfi_offset 14, -4
 517              	.LBB28:
 518              	.LBB29:
 519              		.loc 2 53 0
 520 0004 1868     		ldr	r0, [r3]
 521              	.LBE29:
 522              	.LBE28:
 523              		.loc 1 325 0
 524 0006 9969     		ldr	r1, [r3, #24]
 525              	.LVL44:
 526              	.LBB31:
 527              	.LBB30:
 528              		.loc 2 55 0
 529 0008 0268     		ldr	r2, [r0]
 530 000a 5360     		str	r3, [r2, #4]
 531 000c 1A60     		str	r2, [r3]
 532              	.LBE30:
 533              	.LBE31:
 534              		.loc 1 327 0
 535 000e 9861     		str	r0, [r3, #24]
 536              		.loc 1 328 0
 537 0010 0123     		mov	r3, #1
 538 0012 0377     		strb	r3, [r0, #28]
 539              		.loc 1 330 0
 540 0014 0023     		mov	r3, #0
 541 0016 0B77     		strb	r3, [r1, #28]
 542              	.LVL45:
 543 0018 8A68     		ldr	r2, [r1, #8]
 544 001a 031C     		mov	r3, r0
 545 001c 00E0     		b	.L48
 546              	.LVL46:
 547              	.L49:
 548 001e 1B68     		ldr	r3, [r3]
 549              	.LVL47:
 550              	.L48:
 551              		.loc 1 334 0 discriminator 1
 552 0020 9C68     		ldr	r4, [r3, #8]
 553 0022 9442     		cmp	r4, r2
 554 0024 FBD8     		bhi	.L49
 555              		.loc 1 337 0
 556 0026 5A68     		ldr	r2, [r3, #4]
 557              		.loc 1 336 0
 558 0028 0B60     		str	r3, [r1]
 559              		.loc 1 337 0
 560 002a 4A60     		str	r2, [r1, #4]
 561              		.loc 1 338 0
 562 002c 5960     		str	r1, [r3, #4]
 563 002e 1160     		str	r1, [r2]
 564              		.loc 1 340 0
ARM GAS  /var/folders/qh/xwg3v3kj02qbxczjpdb8lzfr0000gn/T//ccEcPMDY.s 			page 11


 565 0030 FFF7FEFF 		bl	_port_switch
 566              	.LVL48:
 567              		.loc 1 341 0
 568              		@ sp needed
 569 0034 10BD     		pop	{r4, pc}
 570              	.L51:
 571 0036 C046     		.align	2
 572              	.L50:
 573 0038 00000000 		.word	.LANCHOR0
 574              		.cfi_endproc
 575              	.LFE15:
 576              		.size	chSchDoRescheduleAhead, .-chSchDoRescheduleAhead
 577 003c C046C046 		.section	.text.chSchRescheduleS,"ax",%progbits
 578              		.align	2
 579              		.p2align 4,,15
 580              		.global	chSchRescheduleS
 581              		.code	16
 582              		.thumb_func
 583              		.type	chSchRescheduleS, %function
 584              	chSchRescheduleS:
 585              	.LFB13:
 586              		.loc 1 246 0
 587              		.cfi_startproc
 588 0000 08B5     		push	{r3, lr}
 589              		.cfi_def_cfa_offset 8
 590              		.cfi_offset 3, -8
 591              		.cfi_offset 14, -4
 592              		.loc 1 248 0
 593 0002 FFF7FEFF 		bl	chDbgCheckClassS
 594              	.LVL49:
 595              		.loc 1 250 0
 596 0006 054B     		ldr	r3, .L54
 597 0008 1A68     		ldr	r2, [r3]
 598 000a 9B69     		ldr	r3, [r3, #24]
 599 000c 9268     		ldr	r2, [r2, #8]
 600 000e 9B68     		ldr	r3, [r3, #8]
 601 0010 9A42     		cmp	r2, r3
 602 0012 01D9     		bls	.L52
 603              		.loc 1 251 0
 604 0014 FFF7FEFF 		bl	chSchDoRescheduleAhead
 605              	.LVL50:
 606              	.L52:
 607              		.loc 1 252 0
 608              		@ sp needed
 609 0018 08BD     		pop	{r3, pc}
 610              	.L55:
 611 001a C046     		.align	2
 612              	.L54:
 613 001c 00000000 		.word	.LANCHOR0
 614              		.cfi_endproc
 615              	.LFE13:
 616              		.size	chSchRescheduleS, .-chSchRescheduleS
 617              		.section	.text.chSchDoReschedule,"ax",%progbits
 618              		.align	2
 619              		.p2align 4,,15
 620              		.global	chSchDoReschedule
 621              		.code	16
ARM GAS  /var/folders/qh/xwg3v3kj02qbxczjpdb8lzfr0000gn/T//ccEcPMDY.s 			page 12


 622              		.thumb_func
 623              		.type	chSchDoReschedule, %function
 624              	chSchDoReschedule:
 625              	.LFB16:
 626              		.loc 1 355 0
 627              		.cfi_startproc
 628 0000 08B5     		push	{r3, lr}
 629              		.cfi_def_cfa_offset 8
 630              		.cfi_offset 3, -8
 631              		.cfi_offset 14, -4
 632              		.loc 1 360 0
 633 0002 054B     		ldr	r3, .L60
 634 0004 9B69     		ldr	r3, [r3, #24]
 635 0006 DB7F     		ldrb	r3, [r3, #31]
 636 0008 002B     		cmp	r3, #0
 637 000a 02D0     		beq	.L59
 638              		.loc 1 368 0
 639 000c FFF7FEFF 		bl	chSchDoRescheduleAhead
 640              	.LVL51:
 641              	.L56:
 642              		.loc 1 375 0
 643              		@ sp needed
 644 0010 08BD     		pop	{r3, pc}
 645              	.L59:
 646              		.loc 1 363 0
 647 0012 FFF7FEFF 		bl	chSchDoRescheduleBehind
 648              	.LVL52:
 649 0016 FBE7     		b	.L56
 650              	.L61:
 651              		.align	2
 652              	.L60:
 653 0018 00000000 		.word	.LANCHOR0
 654              		.cfi_endproc
 655              	.LFE16:
 656              		.size	chSchDoReschedule, .-chSchDoReschedule
 657              		.global	rlist
 658 001c C046C046 		.section	.bss.rlist,"aw",%nobits
 659              		.align	2
 660              		.set	.LANCHOR0,. + 0
 661              		.type	rlist, %object
 662              		.size	rlist, 28
 663              	rlist:
 664 0000 00000000 		.space	28
 664      00000000 
 664      00000000 
 664      00000000 
 664      00000000 
 665              		.text
 666              	.Letext0:
 667              		.file 3 "/usr/local/Cellar/gcc-arm-none-eabi-48/20131218/arm-none-eabi/include/stdint.h"
 668              		.file 4 "../../os/ports/GCC/ARMCMx/chtypes.h"
 669              		.file 5 "../../os/kernel/include/chlists.h"
 670              		.file 6 "../../os/kernel/include/chthreads.h"
 671              		.file 7 "../../os/ports/GCC/ARMCMx/chcore_v6m.h"
 672              		.file 8 "../../os/kernel/include/chvt.h"
 673              		.file 9 "../../os/kernel/include/chschd.h"
 674              		.file 10 "../../os/kernel/include/chsem.h"
ARM GAS  /var/folders/qh/xwg3v3kj02qbxczjpdb8lzfr0000gn/T//ccEcPMDY.s 			page 13


 675              		.file 11 "../../os/kernel/include/chmtx.h"
 676              		.file 12 "../../os/kernel/include/chdebug.h"
 677              		.section	.debug_info,"",%progbits
 678              	.Ldebug_info0:
 679 0000 EA080000 		.4byte	0x8ea
 680 0004 0400     		.2byte	0x4
 681 0006 00000000 		.4byte	.Ldebug_abbrev0
 682 000a 04       		.byte	0x4
 683 000b 01       		.uleb128 0x1
 684 000c 18020000 		.4byte	.LASF92
 685 0010 01       		.byte	0x1
 686 0011 92040000 		.4byte	.LASF93
 687 0015 48010000 		.4byte	.LASF94
 688 0019 70000000 		.4byte	.Ldebug_ranges0+0x70
 689 001d 00000000 		.4byte	0
 690 0021 00000000 		.4byte	.Ldebug_line0
 691 0025 02       		.uleb128 0x2
 692 0026 04       		.byte	0x4
 693 0027 05       		.byte	0x5
 694 0028 696E7400 		.ascii	"int\000"
 695 002c 03       		.uleb128 0x3
 696 002d 04       		.byte	0x4
 697 002e 07       		.byte	0x7
 698 002f 0D010000 		.4byte	.LASF0
 699 0033 03       		.uleb128 0x3
 700 0034 01       		.byte	0x1
 701 0035 06       		.byte	0x6
 702 0036 69000000 		.4byte	.LASF1
 703 003a 04       		.uleb128 0x4
 704 003b B5040000 		.4byte	.LASF5
 705 003f 03       		.byte	0x3
 706 0040 2A       		.byte	0x2a
 707 0041 45000000 		.4byte	0x45
 708 0045 03       		.uleb128 0x3
 709 0046 01       		.byte	0x1
 710 0047 08       		.byte	0x8
 711 0048 6D030000 		.4byte	.LASF2
 712 004c 03       		.uleb128 0x3
 713 004d 02       		.byte	0x2
 714 004e 05       		.byte	0x5
 715 004f 8E030000 		.4byte	.LASF3
 716 0053 03       		.uleb128 0x3
 717 0054 02       		.byte	0x2
 718 0055 07       		.byte	0x7
 719 0056 91010000 		.4byte	.LASF4
 720 005a 04       		.uleb128 0x4
 721 005b 65030000 		.4byte	.LASF6
 722 005f 03       		.byte	0x3
 723 0060 4F       		.byte	0x4f
 724 0061 65000000 		.4byte	0x65
 725 0065 03       		.uleb128 0x3
 726 0066 04       		.byte	0x4
 727 0067 05       		.byte	0x5
 728 0068 A9000000 		.4byte	.LASF7
 729 006c 04       		.uleb128 0x4
 730 006d F2030000 		.4byte	.LASF8
 731 0071 03       		.byte	0x3
ARM GAS  /var/folders/qh/xwg3v3kj02qbxczjpdb8lzfr0000gn/T//ccEcPMDY.s 			page 14


 732 0072 50       		.byte	0x50
 733 0073 77000000 		.4byte	0x77
 734 0077 03       		.uleb128 0x3
 735 0078 04       		.byte	0x4
 736 0079 07       		.byte	0x7
 737 007a 36010000 		.4byte	.LASF9
 738 007e 03       		.uleb128 0x3
 739 007f 08       		.byte	0x8
 740 0080 05       		.byte	0x5
 741 0081 5B000000 		.4byte	.LASF10
 742 0085 03       		.uleb128 0x3
 743 0086 08       		.byte	0x8
 744 0087 07       		.byte	0x7
 745 0088 24000000 		.4byte	.LASF11
 746 008c 03       		.uleb128 0x3
 747 008d 01       		.byte	0x1
 748 008e 02       		.byte	0x2
 749 008f 5F030000 		.4byte	.LASF12
 750 0093 04       		.uleb128 0x4
 751 0094 C8010000 		.4byte	.LASF13
 752 0098 04       		.byte	0x4
 753 0099 25       		.byte	0x25
 754 009a 3A000000 		.4byte	0x3a
 755 009e 04       		.uleb128 0x4
 756 009f B2000000 		.4byte	.LASF14
 757 00a3 04       		.byte	0x4
 758 00a4 26       		.byte	0x26
 759 00a5 3A000000 		.4byte	0x3a
 760 00a9 04       		.uleb128 0x4
 761 00aa 48030000 		.4byte	.LASF15
 762 00ae 04       		.byte	0x4
 763 00af 27       		.byte	0x27
 764 00b0 3A000000 		.4byte	0x3a
 765 00b4 04       		.uleb128 0x4
 766 00b5 9F000000 		.4byte	.LASF16
 767 00b9 04       		.byte	0x4
 768 00ba 28       		.byte	0x28
 769 00bb 3A000000 		.4byte	0x3a
 770 00bf 04       		.uleb128 0x4
 771 00c0 57030000 		.4byte	.LASF17
 772 00c4 04       		.byte	0x4
 773 00c5 29       		.byte	0x29
 774 00c6 6C000000 		.4byte	0x6c
 775 00ca 04       		.uleb128 0x4
 776 00cb B1010000 		.4byte	.LASF18
 777 00cf 04       		.byte	0x4
 778 00d0 2A       		.byte	0x2a
 779 00d1 5A000000 		.4byte	0x5a
 780 00d5 04       		.uleb128 0x4
 781 00d6 ED010000 		.4byte	.LASF19
 782 00da 04       		.byte	0x4
 783 00db 2C       		.byte	0x2c
 784 00dc 6C000000 		.4byte	0x6c
 785 00e0 04       		.uleb128 0x4
 786 00e1 34040000 		.4byte	.LASF20
 787 00e5 04       		.byte	0x4
 788 00e6 2E       		.byte	0x2e
ARM GAS  /var/folders/qh/xwg3v3kj02qbxczjpdb8lzfr0000gn/T//ccEcPMDY.s 			page 15


 789 00e7 6C000000 		.4byte	0x6c
 790 00eb 04       		.uleb128 0x4
 791 00ec 07010000 		.4byte	.LASF21
 792 00f0 04       		.byte	0x4
 793 00f1 2F       		.byte	0x2f
 794 00f2 5A000000 		.4byte	0x5a
 795 00f6 04       		.uleb128 0x4
 796 00f7 C7030000 		.4byte	.LASF22
 797 00fb 05       		.byte	0x5
 798 00fc 23       		.byte	0x23
 799 00fd 01010000 		.4byte	0x101
 800 0101 05       		.uleb128 0x5
 801 0102 C7030000 		.4byte	.LASF22
 802 0106 48       		.byte	0x48
 803 0107 06       		.byte	0x6
 804 0108 57       		.byte	0x57
 805 0109 FE010000 		.4byte	0x1fe
 806 010d 06       		.uleb128 0x6
 807 010e B8030000 		.4byte	.LASF23
 808 0112 06       		.byte	0x6
 809 0113 58       		.byte	0x58
 810 0114 1F020000 		.4byte	0x21f
 811 0118 00       		.byte	0
 812 0119 06       		.uleb128 0x6
 813 011a 50030000 		.4byte	.LASF24
 814 011e 06       		.byte	0x6
 815 011f 5A       		.byte	0x5a
 816 0120 1F020000 		.4byte	0x21f
 817 0124 04       		.byte	0x4
 818 0125 06       		.uleb128 0x6
 819 0126 44000000 		.4byte	.LASF25
 820 012a 06       		.byte	0x6
 821 012b 5C       		.byte	0x5c
 822 012c BF000000 		.4byte	0xbf
 823 0130 08       		.byte	0x8
 824 0131 06       		.uleb128 0x6
 825 0132 00050000 		.4byte	.LASF26
 826 0136 06       		.byte	0x6
 827 0137 5D       		.byte	0x5d
 828 0138 CF020000 		.4byte	0x2cf
 829 013c 0C       		.byte	0xc
 830 013d 06       		.uleb128 0x6
 831 013e BB000000 		.4byte	.LASF27
 832 0142 06       		.byte	0x6
 833 0143 5F       		.byte	0x5f
 834 0144 1F020000 		.4byte	0x21f
 835 0148 10       		.byte	0x10
 836 0149 06       		.uleb128 0x6
 837 014a 13030000 		.4byte	.LASF28
 838 014e 06       		.byte	0x6
 839 014f 60       		.byte	0x60
 840 0150 1F020000 		.4byte	0x21f
 841 0154 14       		.byte	0x14
 842 0155 06       		.uleb128 0x6
 843 0156 DC040000 		.4byte	.LASF29
 844 015a 06       		.byte	0x6
 845 015b 67       		.byte	0x67
ARM GAS  /var/folders/qh/xwg3v3kj02qbxczjpdb8lzfr0000gn/T//ccEcPMDY.s 			page 16


 846 015c 73040000 		.4byte	0x473
 847 0160 18       		.byte	0x18
 848 0161 06       		.uleb128 0x6
 849 0162 98030000 		.4byte	.LASF30
 850 0166 06       		.byte	0x6
 851 0167 72       		.byte	0x72
 852 0168 9E000000 		.4byte	0x9e
 853 016c 1C       		.byte	0x1c
 854 016d 06       		.uleb128 0x6
 855 016e BF030000 		.4byte	.LASF31
 856 0172 06       		.byte	0x6
 857 0173 76       		.byte	0x76
 858 0174 93000000 		.4byte	0x93
 859 0178 1D       		.byte	0x1d
 860 0179 06       		.uleb128 0x6
 861 017a 81040000 		.4byte	.LASF32
 862 017e 06       		.byte	0x6
 863 017f 7B       		.byte	0x7b
 864 0180 A9000000 		.4byte	0xa9
 865 0184 1E       		.byte	0x1e
 866 0185 06       		.uleb128 0x6
 867 0186 A0030000 		.4byte	.LASF33
 868 018a 06       		.byte	0x6
 869 018b 81       		.byte	0x81
 870 018c B4000000 		.4byte	0xb4
 871 0190 1F       		.byte	0x1f
 872 0191 06       		.uleb128 0x6
 873 0192 52040000 		.4byte	.LASF34
 874 0196 06       		.byte	0x6
 875 0197 88       		.byte	0x88
 876 0198 6B030000 		.4byte	0x36b
 877 019c 20       		.byte	0x20
 878 019d 07       		.uleb128 0x7
 879 019e 705F7500 		.ascii	"p_u\000"
 880 01a2 06       		.byte	0x6
 881 01a3 AD       		.byte	0xad
 882 01a4 3E040000 		.4byte	0x43e
 883 01a8 24       		.byte	0x24
 884 01a9 06       		.uleb128 0x6
 885 01aa 06050000 		.4byte	.LASF35
 886 01ae 06       		.byte	0x6
 887 01af B2       		.byte	0xb2
 888 01b0 45020000 		.4byte	0x245
 889 01b4 28       		.byte	0x28
 890 01b5 06       		.uleb128 0x6
 891 01b6 60040000 		.4byte	.LASF36
 892 01ba 06       		.byte	0x6
 893 01bb B8       		.byte	0xb8
 894 01bc 25020000 		.4byte	0x225
 895 01c0 2C       		.byte	0x2c
 896 01c1 06       		.uleb128 0x6
 897 01c2 00000000 		.4byte	.LASF37
 898 01c6 06       		.byte	0x6
 899 01c7 BC       		.byte	0xbc
 900 01c8 CA000000 		.4byte	0xca
 901 01cc 34       		.byte	0x34
 902 01cd 06       		.uleb128 0x6
ARM GAS  /var/folders/qh/xwg3v3kj02qbxczjpdb8lzfr0000gn/T//ccEcPMDY.s 			page 17


 903 01ce E7030000 		.4byte	.LASF38
 904 01d2 06       		.byte	0x6
 905 01d3 C2       		.byte	0xc2
 906 01d4 D5000000 		.4byte	0xd5
 907 01d8 38       		.byte	0x38
 908 01d9 06       		.uleb128 0x6
 909 01da 84030000 		.4byte	.LASF39
 910 01de 06       		.byte	0x6
 911 01df C9       		.byte	0xc9
 912 01e0 85040000 		.4byte	0x485
 913 01e4 3C       		.byte	0x3c
 914 01e5 06       		.uleb128 0x6
 915 01e6 3E040000 		.4byte	.LASF40
 916 01ea 06       		.byte	0x6
 917 01eb CD       		.byte	0xcd
 918 01ec BF000000 		.4byte	0xbf
 919 01f0 40       		.byte	0x40
 920 01f1 06       		.uleb128 0x6
 921 01f2 8F000000 		.4byte	.LASF41
 922 01f6 06       		.byte	0x6
 923 01f7 D3       		.byte	0xd3
 924 01f8 5B020000 		.4byte	0x25b
 925 01fc 44       		.byte	0x44
 926 01fd 00       		.byte	0
 927 01fe 08       		.uleb128 0x8
 928 01ff 08       		.byte	0x8
 929 0200 05       		.byte	0x5
 930 0201 5A       		.byte	0x5a
 931 0202 1F020000 		.4byte	0x21f
 932 0206 06       		.uleb128 0x6
 933 0207 B8030000 		.4byte	.LASF23
 934 020b 05       		.byte	0x5
 935 020c 5B       		.byte	0x5b
 936 020d 1F020000 		.4byte	0x21f
 937 0211 00       		.byte	0
 938 0212 06       		.uleb128 0x6
 939 0213 50030000 		.4byte	.LASF24
 940 0217 05       		.byte	0x5
 941 0218 5D       		.byte	0x5d
 942 0219 1F020000 		.4byte	0x21f
 943 021d 04       		.byte	0x4
 944 021e 00       		.byte	0
 945 021f 09       		.uleb128 0x9
 946 0220 04       		.byte	0x4
 947 0221 F6000000 		.4byte	0xf6
 948 0225 04       		.uleb128 0x4
 949 0226 21030000 		.4byte	.LASF42
 950 022a 05       		.byte	0x5
 951 022b 5F       		.byte	0x5f
 952 022c FE010000 		.4byte	0x1fe
 953 0230 08       		.uleb128 0x8
 954 0231 04       		.byte	0x4
 955 0232 05       		.byte	0x5
 956 0233 64       		.byte	0x64
 957 0234 45020000 		.4byte	0x245
 958 0238 06       		.uleb128 0x6
 959 0239 B8030000 		.4byte	.LASF23
ARM GAS  /var/folders/qh/xwg3v3kj02qbxczjpdb8lzfr0000gn/T//ccEcPMDY.s 			page 18


 960 023d 05       		.byte	0x5
 961 023e 66       		.byte	0x66
 962 023f 1F020000 		.4byte	0x21f
 963 0243 00       		.byte	0
 964 0244 00       		.byte	0
 965 0245 04       		.uleb128 0x4
 966 0246 E1010000 		.4byte	.LASF43
 967 024a 05       		.byte	0x5
 968 024b 69       		.byte	0x69
 969 024c 30020000 		.4byte	0x230
 970 0250 04       		.uleb128 0x4
 971 0251 E4000000 		.4byte	.LASF44
 972 0255 07       		.byte	0x7
 973 0256 A0       		.byte	0xa0
 974 0257 5B020000 		.4byte	0x25b
 975 025b 0A       		.uleb128 0xa
 976 025c 04       		.byte	0x4
 977 025d 05       		.uleb128 0x5
 978 025e 59040000 		.4byte	.LASF45
 979 0262 24       		.byte	0x24
 980 0263 07       		.byte	0x7
 981 0264 B3       		.byte	0xb3
 982 0265 CF020000 		.4byte	0x2cf
 983 0269 07       		.uleb128 0x7
 984 026a 723800   		.ascii	"r8\000"
 985 026d 07       		.byte	0x7
 986 026e B4       		.byte	0xb4
 987 026f 50020000 		.4byte	0x250
 988 0273 00       		.byte	0
 989 0274 07       		.uleb128 0x7
 990 0275 723900   		.ascii	"r9\000"
 991 0278 07       		.byte	0x7
 992 0279 B5       		.byte	0xb5
 993 027a 50020000 		.4byte	0x250
 994 027e 04       		.byte	0x4
 995 027f 07       		.uleb128 0x7
 996 0280 72313000 		.ascii	"r10\000"
 997 0284 07       		.byte	0x7
 998 0285 B6       		.byte	0xb6
 999 0286 50020000 		.4byte	0x250
 1000 028a 08       		.byte	0x8
 1001 028b 07       		.uleb128 0x7
 1002 028c 72313100 		.ascii	"r11\000"
 1003 0290 07       		.byte	0x7
 1004 0291 B7       		.byte	0xb7
 1005 0292 50020000 		.4byte	0x250
 1006 0296 0C       		.byte	0xc
 1007 0297 07       		.uleb128 0x7
 1008 0298 723400   		.ascii	"r4\000"
 1009 029b 07       		.byte	0x7
 1010 029c B8       		.byte	0xb8
 1011 029d 50020000 		.4byte	0x250
 1012 02a1 10       		.byte	0x10
 1013 02a2 07       		.uleb128 0x7
 1014 02a3 723500   		.ascii	"r5\000"
 1015 02a6 07       		.byte	0x7
 1016 02a7 B9       		.byte	0xb9
ARM GAS  /var/folders/qh/xwg3v3kj02qbxczjpdb8lzfr0000gn/T//ccEcPMDY.s 			page 19


 1017 02a8 50020000 		.4byte	0x250
 1018 02ac 14       		.byte	0x14
 1019 02ad 07       		.uleb128 0x7
 1020 02ae 723600   		.ascii	"r6\000"
 1021 02b1 07       		.byte	0x7
 1022 02b2 BA       		.byte	0xba
 1023 02b3 50020000 		.4byte	0x250
 1024 02b7 18       		.byte	0x18
 1025 02b8 07       		.uleb128 0x7
 1026 02b9 723700   		.ascii	"r7\000"
 1027 02bc 07       		.byte	0x7
 1028 02bd BB       		.byte	0xbb
 1029 02be 50020000 		.4byte	0x250
 1030 02c2 1C       		.byte	0x1c
 1031 02c3 07       		.uleb128 0x7
 1032 02c4 6C7200   		.ascii	"lr\000"
 1033 02c7 07       		.byte	0x7
 1034 02c8 BC       		.byte	0xbc
 1035 02c9 50020000 		.4byte	0x250
 1036 02cd 20       		.byte	0x20
 1037 02ce 00       		.byte	0
 1038 02cf 05       		.uleb128 0x5
 1039 02d0 89010000 		.4byte	.LASF46
 1040 02d4 04       		.byte	0x4
 1041 02d5 07       		.byte	0x7
 1042 02d6 C6       		.byte	0xc6
 1043 02d7 E8020000 		.4byte	0x2e8
 1044 02db 07       		.uleb128 0x7
 1045 02dc 72313300 		.ascii	"r13\000"
 1046 02e0 07       		.byte	0x7
 1047 02e1 C7       		.byte	0xc7
 1048 02e2 E8020000 		.4byte	0x2e8
 1049 02e6 00       		.byte	0
 1050 02e7 00       		.byte	0
 1051 02e8 09       		.uleb128 0x9
 1052 02e9 04       		.byte	0x4
 1053 02ea 5D020000 		.4byte	0x25d
 1054 02ee 03       		.uleb128 0x3
 1055 02ef 04       		.byte	0x4
 1056 02f0 07       		.byte	0x7
 1057 02f1 07020000 		.4byte	.LASF47
 1058 02f5 04       		.uleb128 0x4
 1059 02f6 49040000 		.4byte	.LASF48
 1060 02fa 08       		.byte	0x8
 1061 02fb 51       		.byte	0x51
 1062 02fc 00030000 		.4byte	0x300
 1063 0300 09       		.uleb128 0x9
 1064 0301 04       		.byte	0x4
 1065 0302 06030000 		.4byte	0x306
 1066 0306 0B       		.uleb128 0xb
 1067 0307 11030000 		.4byte	0x311
 1068 030b 0C       		.uleb128 0xc
 1069 030c 5B020000 		.4byte	0x25b
 1070 0310 00       		.byte	0
 1071 0311 04       		.uleb128 0x4
 1072 0312 03040000 		.4byte	.LASF49
 1073 0316 08       		.byte	0x8
ARM GAS  /var/folders/qh/xwg3v3kj02qbxczjpdb8lzfr0000gn/T//ccEcPMDY.s 			page 20


 1074 0317 56       		.byte	0x56
 1075 0318 1C030000 		.4byte	0x31c
 1076 031c 05       		.uleb128 0x5
 1077 031d 03040000 		.4byte	.LASF49
 1078 0321 14       		.byte	0x14
 1079 0322 08       		.byte	0x8
 1080 0323 5D       		.byte	0x5d
 1081 0324 65030000 		.4byte	0x365
 1082 0328 06       		.uleb128 0x6
 1083 0329 21010000 		.4byte	.LASF50
 1084 032d 08       		.byte	0x8
 1085 032e 5E       		.byte	0x5e
 1086 032f 65030000 		.4byte	0x365
 1087 0333 00       		.byte	0
 1088 0334 06       		.uleb128 0x6
 1089 0335 ED000000 		.4byte	.LASF51
 1090 0339 08       		.byte	0x8
 1091 033a 60       		.byte	0x60
 1092 033b 65030000 		.4byte	0x365
 1093 033f 04       		.byte	0x4
 1094 0340 06       		.uleb128 0x6
 1095 0341 FF010000 		.4byte	.LASF52
 1096 0345 08       		.byte	0x8
 1097 0346 62       		.byte	0x62
 1098 0347 E0000000 		.4byte	0xe0
 1099 034b 08       		.byte	0x8
 1100 034c 06       		.uleb128 0x6
 1101 034d 10020000 		.4byte	.LASF53
 1102 0351 08       		.byte	0x8
 1103 0352 63       		.byte	0x63
 1104 0353 F5020000 		.4byte	0x2f5
 1105 0357 0C       		.byte	0xc
 1106 0358 06       		.uleb128 0x6
 1107 0359 70040000 		.4byte	.LASF54
 1108 035d 08       		.byte	0x8
 1109 035e 65       		.byte	0x65
 1110 035f 5B020000 		.4byte	0x25b
 1111 0363 10       		.byte	0x10
 1112 0364 00       		.byte	0
 1113 0365 09       		.uleb128 0x9
 1114 0366 04       		.byte	0x4
 1115 0367 11030000 		.4byte	0x311
 1116 036b 0D       		.uleb128 0xd
 1117 036c E0000000 		.4byte	0xe0
 1118 0370 08       		.uleb128 0x8
 1119 0371 1C       		.byte	0x1c
 1120 0372 09       		.byte	0x9
 1121 0373 57       		.byte	0x57
 1122 0374 C1030000 		.4byte	0x3c1
 1123 0378 06       		.uleb128 0x6
 1124 0379 FB030000 		.4byte	.LASF55
 1125 037d 09       		.byte	0x9
 1126 037e 58       		.byte	0x58
 1127 037f 25020000 		.4byte	0x225
 1128 0383 00       		.byte	0
 1129 0384 06       		.uleb128 0x6
 1130 0385 AA030000 		.4byte	.LASF56
ARM GAS  /var/folders/qh/xwg3v3kj02qbxczjpdb8lzfr0000gn/T//ccEcPMDY.s 			page 21


 1131 0389 09       		.byte	0x9
 1132 038a 59       		.byte	0x59
 1133 038b BF000000 		.4byte	0xbf
 1134 038f 08       		.byte	0x8
 1135 0390 06       		.uleb128 0x6
 1136 0391 1B030000 		.4byte	.LASF57
 1137 0395 09       		.byte	0x9
 1138 0396 5B       		.byte	0x5b
 1139 0397 CF020000 		.4byte	0x2cf
 1140 039b 0C       		.byte	0xc
 1141 039c 06       		.uleb128 0x6
 1142 039d DC000000 		.4byte	.LASF58
 1143 03a1 09       		.byte	0x9
 1144 03a2 5E       		.byte	0x5e
 1145 03a3 1F020000 		.4byte	0x21f
 1146 03a7 10       		.byte	0x10
 1147 03a8 06       		.uleb128 0x6
 1148 03a9 40030000 		.4byte	.LASF59
 1149 03ad 09       		.byte	0x9
 1150 03ae 5F       		.byte	0x5f
 1151 03af 1F020000 		.4byte	0x21f
 1152 03b3 14       		.byte	0x14
 1153 03b4 06       		.uleb128 0x6
 1154 03b5 36030000 		.4byte	.LASF60
 1155 03b9 09       		.byte	0x9
 1156 03ba 62       		.byte	0x62
 1157 03bb 1F020000 		.4byte	0x21f
 1158 03bf 18       		.byte	0x18
 1159 03c0 00       		.byte	0
 1160 03c1 04       		.uleb128 0x4
 1161 03c2 88040000 		.4byte	.LASF61
 1162 03c6 09       		.byte	0x9
 1163 03c7 64       		.byte	0x64
 1164 03c8 70030000 		.4byte	0x370
 1165 03cc 05       		.uleb128 0x5
 1166 03cd 77040000 		.4byte	.LASF62
 1167 03d1 0C       		.byte	0xc
 1168 03d2 0A       		.byte	0xa
 1169 03d3 25       		.byte	0x25
 1170 03d4 F1030000 		.4byte	0x3f1
 1171 03d8 06       		.uleb128 0x6
 1172 03d9 C3000000 		.4byte	.LASF63
 1173 03dd 0A       		.byte	0xa
 1174 03de 26       		.byte	0x26
 1175 03df 25020000 		.4byte	0x225
 1176 03e3 00       		.byte	0
 1177 03e4 06       		.uleb128 0x6
 1178 03e5 83010000 		.4byte	.LASF64
 1179 03e9 0A       		.byte	0xa
 1180 03ea 28       		.byte	0x28
 1181 03eb EB000000 		.4byte	0xeb
 1182 03ef 08       		.byte	0x8
 1183 03f0 00       		.byte	0
 1184 03f1 04       		.uleb128 0x4
 1185 03f2 77040000 		.4byte	.LASF62
 1186 03f6 0A       		.byte	0xa
 1187 03f7 29       		.byte	0x29
ARM GAS  /var/folders/qh/xwg3v3kj02qbxczjpdb8lzfr0000gn/T//ccEcPMDY.s 			page 22


 1188 03f8 CC030000 		.4byte	0x3cc
 1189 03fc 05       		.uleb128 0x5
 1190 03fd F9010000 		.4byte	.LASF65
 1191 0401 10       		.byte	0x10
 1192 0402 0B       		.byte	0xb
 1193 0403 25       		.byte	0x25
 1194 0404 2D040000 		.4byte	0x42d
 1195 0408 06       		.uleb128 0x6
 1196 0409 97000000 		.4byte	.LASF66
 1197 040d 0B       		.byte	0xb
 1198 040e 26       		.byte	0x26
 1199 040f 25020000 		.4byte	0x225
 1200 0413 00       		.byte	0
 1201 0414 06       		.uleb128 0x6
 1202 0415 F8040000 		.4byte	.LASF67
 1203 0419 0B       		.byte	0xb
 1204 041a 28       		.byte	0x28
 1205 041b 1F020000 		.4byte	0x21f
 1206 041f 08       		.byte	0x8
 1207 0420 06       		.uleb128 0x6
 1208 0421 2D040000 		.4byte	.LASF68
 1209 0425 0B       		.byte	0xb
 1210 0426 2A       		.byte	0x2a
 1211 0427 2D040000 		.4byte	0x42d
 1212 042b 0C       		.byte	0xc
 1213 042c 00       		.byte	0
 1214 042d 09       		.uleb128 0x9
 1215 042e 04       		.byte	0x4
 1216 042f FC030000 		.4byte	0x3fc
 1217 0433 04       		.uleb128 0x4
 1218 0434 F9010000 		.4byte	.LASF65
 1219 0438 0B       		.byte	0xb
 1220 0439 2C       		.byte	0x2c
 1221 043a FC030000 		.4byte	0x3fc
 1222 043e 0E       		.uleb128 0xe
 1223 043f 04       		.byte	0x4
 1224 0440 06       		.byte	0x6
 1225 0441 8F       		.byte	0x8f
 1226 0442 73040000 		.4byte	0x473
 1227 0446 0F       		.uleb128 0xf
 1228 0447 06000000 		.4byte	.LASF69
 1229 044b 06       		.byte	0x6
 1230 044c 96       		.byte	0x96
 1231 044d CA000000 		.4byte	0xca
 1232 0451 0F       		.uleb128 0xf
 1233 0452 3B000000 		.4byte	.LASF70
 1234 0456 06       		.byte	0x6
 1235 0457 9D       		.byte	0x9d
 1236 0458 CA000000 		.4byte	0xca
 1237 045c 0F       		.uleb128 0xf
 1238 045d D5040000 		.4byte	.LASF71
 1239 0461 06       		.byte	0x6
 1240 0462 A4       		.byte	0xa4
 1241 0463 5B020000 		.4byte	0x25b
 1242 0467 0F       		.uleb128 0xf
 1243 0468 B1030000 		.4byte	.LASF72
 1244 046c 06       		.byte	0x6
ARM GAS  /var/folders/qh/xwg3v3kj02qbxczjpdb8lzfr0000gn/T//ccEcPMDY.s 			page 23


 1245 046d AB       		.byte	0xab
 1246 046e D5000000 		.4byte	0xd5
 1247 0472 00       		.byte	0
 1248 0473 09       		.uleb128 0x9
 1249 0474 04       		.byte	0x4
 1250 0475 79040000 		.4byte	0x479
 1251 0479 10       		.uleb128 0x10
 1252 047a 7E040000 		.4byte	0x47e
 1253 047e 03       		.uleb128 0x3
 1254 047f 01       		.byte	0x1
 1255 0480 08       		.byte	0x8
 1256 0481 10040000 		.4byte	.LASF73
 1257 0485 09       		.uleb128 0x9
 1258 0486 04       		.byte	0x4
 1259 0487 33040000 		.4byte	0x433
 1260 048b 11       		.uleb128 0x11
 1261 048c 2E030000 		.4byte	.LASF74
 1262 0490 02       		.byte	0x2
 1263 0491 42       		.byte	0x42
 1264 0492 1F020000 		.4byte	0x21f
 1265 0496 03       		.byte	0x3
 1266 0497 A6040000 		.4byte	0x4a6
 1267 049b 12       		.uleb128 0x12
 1268 049c 747000   		.ascii	"tp\000"
 1269 049f 02       		.byte	0x2
 1270 04a0 42       		.byte	0x42
 1271 04a1 1F020000 		.4byte	0x21f
 1272 04a5 00       		.byte	0
 1273 04a6 11       		.uleb128 0x11
 1274 04a7 15040000 		.4byte	.LASF75
 1275 04ab 02       		.byte	0x2
 1276 04ac 34       		.byte	0x34
 1277 04ad 1F020000 		.4byte	0x21f
 1278 04b1 03       		.byte	0x3
 1279 04b2 CC040000 		.4byte	0x4cc
 1280 04b6 12       		.uleb128 0x12
 1281 04b7 74717000 		.ascii	"tqp\000"
 1282 04bb 02       		.byte	0x2
 1283 04bc 34       		.byte	0x34
 1284 04bd CC040000 		.4byte	0x4cc
 1285 04c1 13       		.uleb128 0x13
 1286 04c2 747000   		.ascii	"tp\000"
 1287 04c5 02       		.byte	0x2
 1288 04c6 35       		.byte	0x35
 1289 04c7 1F020000 		.4byte	0x21f
 1290 04cb 00       		.byte	0
 1291 04cc 09       		.uleb128 0x9
 1292 04cd 04       		.byte	0x4
 1293 04ce 25020000 		.4byte	0x225
 1294 04d2 14       		.uleb128 0x14
 1295 04d3 4B000000 		.4byte	.LASF95
 1296 04d7 01       		.byte	0x1
 1297 04d8 30       		.byte	0x30
 1298 04d9 00000000 		.4byte	.LFB7
 1299 04dd 14000000 		.4byte	.LFE7-.LFB7
 1300 04e1 01       		.uleb128 0x1
 1301 04e2 9C       		.byte	0x9c
ARM GAS  /var/folders/qh/xwg3v3kj02qbxczjpdb8lzfr0000gn/T//ccEcPMDY.s 			page 24


 1302 04e3 15       		.uleb128 0x15
 1303 04e4 21040000 		.4byte	.LASF77
 1304 04e8 01       		.byte	0x1
 1305 04e9 4A       		.byte	0x4a
 1306 04ea 1F020000 		.4byte	0x21f
 1307 04ee 00000000 		.4byte	.LFB8
 1308 04f2 2C000000 		.4byte	.LFE8-.LFB8
 1309 04f6 01       		.uleb128 0x1
 1310 04f7 9C       		.byte	0x9c
 1311 04f8 22050000 		.4byte	0x522
 1312 04fc 16       		.uleb128 0x16
 1313 04fd 747000   		.ascii	"tp\000"
 1314 0500 01       		.byte	0x1
 1315 0501 4A       		.byte	0x4a
 1316 0502 1F020000 		.4byte	0x21f
 1317 0506 00000000 		.4byte	.LLST0
 1318 050a 17       		.uleb128 0x17
 1319 050b 637000   		.ascii	"cp\000"
 1320 050e 01       		.byte	0x1
 1321 050f 4B       		.byte	0x4b
 1322 0510 1F020000 		.4byte	0x21f
 1323 0514 29000000 		.4byte	.LLST1
 1324 0518 18       		.uleb128 0x18
 1325 0519 08000000 		.4byte	.LVL1
 1326 051d 8D080000 		.4byte	0x88d
 1327 0521 00       		.byte	0
 1328 0522 19       		.uleb128 0x19
 1329 0523 1A010000 		.4byte	.LASF96
 1330 0527 01       		.byte	0x1
 1331 0528 81       		.byte	0x81
 1332 0529 00000000 		.4byte	.LFB10
 1333 052d 52000000 		.4byte	.LFE10-.LFB10
 1334 0531 01       		.uleb128 0x1
 1335 0532 9C       		.byte	0x9c
 1336 0533 96050000 		.4byte	0x596
 1337 0537 16       		.uleb128 0x16
 1338 0538 7000     		.ascii	"p\000"
 1339 053a 01       		.byte	0x1
 1340 053b 81       		.byte	0x81
 1341 053c 5B020000 		.4byte	0x25b
 1342 0540 4C000000 		.4byte	.LLST2
 1343 0544 17       		.uleb128 0x17
 1344 0545 747000   		.ascii	"tp\000"
 1345 0548 01       		.byte	0x1
 1346 0549 82       		.byte	0x82
 1347 054a 1F020000 		.4byte	0x21f
 1348 054e 83000000 		.4byte	.LLST3
 1349 0552 1A       		.uleb128 0x1a
 1350 0553 8B040000 		.4byte	0x48b
 1351 0557 1A000000 		.4byte	.LBB10
 1352 055b 00000000 		.4byte	.Ldebug_ranges0+0
 1353 055f 01       		.byte	0x1
 1354 0560 99       		.byte	0x99
 1355 0561 6F050000 		.4byte	0x56f
 1356 0565 1B       		.uleb128 0x1b
 1357 0566 9B040000 		.4byte	0x49b
 1358 056a BA000000 		.4byte	.LLST4
ARM GAS  /var/folders/qh/xwg3v3kj02qbxczjpdb8lzfr0000gn/T//ccEcPMDY.s 			page 25


 1359 056e 00       		.byte	0
 1360 056f 18       		.uleb128 0x18
 1361 0570 0A000000 		.4byte	.LVL8
 1362 0574 94080000 		.4byte	0x894
 1363 0578 1C       		.uleb128 0x1c
 1364 0579 30000000 		.4byte	.LVL11
 1365 057d E3040000 		.4byte	0x4e3
 1366 0581 8C050000 		.4byte	0x58c
 1367 0585 1D       		.uleb128 0x1d
 1368 0586 01       		.uleb128 0x1
 1369 0587 50       		.byte	0x50
 1370 0588 02       		.uleb128 0x2
 1371 0589 74       		.byte	0x74
 1372 058a 00       		.sleb128 0
 1373 058b 00       		.byte	0
 1374 058c 18       		.uleb128 0x18
 1375 058d 3A000000 		.4byte	.LVL12
 1376 0591 9B080000 		.4byte	0x89b
 1377 0595 00       		.byte	0
 1378 0596 1E       		.uleb128 0x1e
 1379 0597 D9030000 		.4byte	.LASF80
 1380 059b 01       		.byte	0x1
 1381 059c 6C       		.byte	0x6c
 1382 059d 00000000 		.4byte	.LFB9
 1383 05a1 2C000000 		.4byte	.LFE9-.LFB9
 1384 05a5 01       		.uleb128 0x1
 1385 05a6 9C       		.byte	0x9c
 1386 05a7 0B060000 		.4byte	0x60b
 1387 05ab 1F       		.uleb128 0x1f
 1388 05ac 7B030000 		.4byte	.LASF76
 1389 05b0 01       		.byte	0x1
 1390 05b1 6C       		.byte	0x6c
 1391 05b2 9E000000 		.4byte	0x9e
 1392 05b6 D8000000 		.4byte	.LLST5
 1393 05ba 17       		.uleb128 0x17
 1394 05bb 6F747000 		.ascii	"otp\000"
 1395 05bf 01       		.byte	0x1
 1396 05c0 6D       		.byte	0x6d
 1397 05c1 1F020000 		.4byte	0x21f
 1398 05c5 F9000000 		.4byte	.LLST6
 1399 05c9 1A       		.uleb128 0x1a
 1400 05ca A6040000 		.4byte	0x4a6
 1401 05ce 0E000000 		.4byte	.LBB14
 1402 05d2 18000000 		.4byte	.Ldebug_ranges0+0x18
 1403 05d6 01       		.byte	0x1
 1404 05d7 77       		.byte	0x77
 1405 05d8 F8050000 		.4byte	0x5f8
 1406 05dc 20       		.uleb128 0x20
 1407 05dd B6040000 		.4byte	0x4b6
 1408 05e1 06       		.uleb128 0x6
 1409 05e2 03       		.byte	0x3
 1410 05e3 00000000 		.4byte	rlist
 1411 05e7 9F       		.byte	0x9f
 1412 05e8 21       		.uleb128 0x21
 1413 05e9 18000000 		.4byte	.Ldebug_ranges0+0x18
 1414 05ed 22       		.uleb128 0x22
 1415 05ee C1040000 		.4byte	0x4c1
ARM GAS  /var/folders/qh/xwg3v3kj02qbxczjpdb8lzfr0000gn/T//ccEcPMDY.s 			page 26


 1416 05f2 0C010000 		.4byte	.LLST7
 1417 05f6 00       		.byte	0
 1418 05f7 00       		.byte	0
 1419 05f8 18       		.uleb128 0x18
 1420 05f9 08000000 		.4byte	.LVL17
 1421 05fd A2080000 		.4byte	0x8a2
 1422 0601 18       		.uleb128 0x18
 1423 0602 24000000 		.4byte	.LVL20
 1424 0606 A9080000 		.4byte	0x8a9
 1425 060a 00       		.byte	0
 1426 060b 15       		.uleb128 0x15
 1427 060c E3040000 		.4byte	.LASF78
 1428 0610 01       		.byte	0x1
 1429 0611 B6       		.byte	0xb6
 1430 0612 CA000000 		.4byte	0xca
 1431 0616 00000000 		.4byte	.LFB11
 1432 061a 4C000000 		.4byte	.LFE11-.LFB11
 1433 061e 01       		.uleb128 0x1
 1434 061f 9C       		.byte	0x9c
 1435 0620 BE060000 		.4byte	0x6be
 1436 0624 1F       		.uleb128 0x1f
 1437 0625 7B030000 		.4byte	.LASF76
 1438 0629 01       		.byte	0x1
 1439 062a B6       		.byte	0xb6
 1440 062b 9E000000 		.4byte	0x9e
 1441 062f 1F010000 		.4byte	.LLST8
 1442 0633 1F       		.uleb128 0x1f
 1443 0634 6B040000 		.4byte	.LASF79
 1444 0638 01       		.byte	0x1
 1445 0639 B6       		.byte	0xb6
 1446 063a E0000000 		.4byte	0xe0
 1447 063e 40010000 		.4byte	.LLST9
 1448 0642 23       		.uleb128 0x23
 1449 0643 10000000 		.4byte	.LBB20
 1450 0647 20000000 		.4byte	.LBE20-.LBB20
 1451 064b A4060000 		.4byte	0x6a4
 1452 064f 24       		.uleb128 0x24
 1453 0650 767400   		.ascii	"vt\000"
 1454 0653 01       		.byte	0x1
 1455 0654 BB       		.byte	0xbb
 1456 0655 11030000 		.4byte	0x311
 1457 0659 02       		.uleb128 0x2
 1458 065a 91       		.byte	0x91
 1459 065b 5C       		.sleb128 -36
 1460 065c 1C       		.uleb128 0x1c
 1461 065d 1E000000 		.4byte	.LVL23
 1462 0661 C0080000 		.4byte	0x8c0
 1463 0665 7F060000 		.4byte	0x67f
 1464 0669 1D       		.uleb128 0x1d
 1465 066a 01       		.uleb128 0x1
 1466 066b 52       		.byte	0x52
 1467 066c 05       		.uleb128 0x5
 1468 066d 03       		.byte	0x3
 1469 066e 00000000 		.4byte	wakeup
 1470 0672 1D       		.uleb128 0x1d
 1471 0673 01       		.uleb128 0x1
 1472 0674 51       		.byte	0x51
ARM GAS  /var/folders/qh/xwg3v3kj02qbxczjpdb8lzfr0000gn/T//ccEcPMDY.s 			page 27


 1473 0675 02       		.uleb128 0x2
 1474 0676 74       		.byte	0x74
 1475 0677 00       		.sleb128 0
 1476 0678 1D       		.uleb128 0x1d
 1477 0679 01       		.uleb128 0x1
 1478 067a 50       		.byte	0x50
 1479 067b 02       		.uleb128 0x2
 1480 067c 91       		.byte	0x91
 1481 067d 5C       		.sleb128 -36
 1482 067e 00       		.byte	0
 1483 067f 1C       		.uleb128 0x1c
 1484 0680 24000000 		.4byte	.LVL24
 1485 0684 96050000 		.4byte	0x596
 1486 0688 93060000 		.4byte	0x693
 1487 068c 1D       		.uleb128 0x1d
 1488 068d 01       		.uleb128 0x1
 1489 068e 50       		.byte	0x50
 1490 068f 02       		.uleb128 0x2
 1491 0690 76       		.byte	0x76
 1492 0691 00       		.sleb128 0
 1493 0692 00       		.byte	0
 1494 0693 25       		.uleb128 0x25
 1495 0694 30000000 		.4byte	.LVL25
 1496 0698 E0080000 		.4byte	0x8e0
 1497 069c 1D       		.uleb128 0x1d
 1498 069d 01       		.uleb128 0x1
 1499 069e 50       		.byte	0x50
 1500 069f 02       		.uleb128 0x2
 1501 06a0 91       		.byte	0x91
 1502 06a1 5C       		.sleb128 -36
 1503 06a2 00       		.byte	0
 1504 06a3 00       		.byte	0
 1505 06a4 18       		.uleb128 0x18
 1506 06a5 0C000000 		.4byte	.LVL22
 1507 06a9 A2080000 		.4byte	0x8a2
 1508 06ad 25       		.uleb128 0x25
 1509 06ae 3E000000 		.4byte	.LVL28
 1510 06b2 96050000 		.4byte	0x596
 1511 06b6 1D       		.uleb128 0x1d
 1512 06b7 01       		.uleb128 0x1
 1513 06b8 50       		.byte	0x50
 1514 06b9 02       		.uleb128 0x2
 1515 06ba 76       		.byte	0x76
 1516 06bb 00       		.sleb128 0
 1517 06bc 00       		.byte	0
 1518 06bd 00       		.byte	0
 1519 06be 1E       		.uleb128 0x1e
 1520 06bf A4010000 		.4byte	.LASF81
 1521 06c3 01       		.byte	0x1
 1522 06c4 DA       		.byte	0xda
 1523 06c5 00000000 		.4byte	.LFB12
 1524 06c9 38000000 		.4byte	.LFE12-.LFB12
 1525 06cd 01       		.uleb128 0x1
 1526 06ce 9C       		.byte	0x9c
 1527 06cf 41070000 		.4byte	0x741
 1528 06d3 16       		.uleb128 0x16
 1529 06d4 6E747000 		.ascii	"ntp\000"
ARM GAS  /var/folders/qh/xwg3v3kj02qbxczjpdb8lzfr0000gn/T//ccEcPMDY.s 			page 28


 1530 06d8 01       		.byte	0x1
 1531 06d9 DA       		.byte	0xda
 1532 06da 1F020000 		.4byte	0x21f
 1533 06de 77010000 		.4byte	.LLST10
 1534 06e2 16       		.uleb128 0x16
 1535 06e3 6D736700 		.ascii	"msg\000"
 1536 06e7 01       		.byte	0x1
 1537 06e8 DA       		.byte	0xda
 1538 06e9 CA000000 		.4byte	0xca
 1539 06ed AE010000 		.4byte	.LLST11
 1540 06f1 23       		.uleb128 0x23
 1541 06f2 18000000 		.4byte	.LBB21
 1542 06f6 12000000 		.4byte	.LBE21-.LBB21
 1543 06fa 27070000 		.4byte	0x727
 1544 06fe 17       		.uleb128 0x17
 1545 06ff 6F747000 		.ascii	"otp\000"
 1546 0703 01       		.byte	0x1
 1547 0704 E6       		.byte	0xe6
 1548 0705 1F020000 		.4byte	0x21f
 1549 0709 00020000 		.4byte	.LLST12
 1550 070d 18       		.uleb128 0x18
 1551 070e 1C000000 		.4byte	.LVL32
 1552 0712 E3040000 		.4byte	0x4e3
 1553 0716 25       		.uleb128 0x25
 1554 0717 2A000000 		.4byte	.LVL35
 1555 071b A9080000 		.4byte	0x8a9
 1556 071f 1D       		.uleb128 0x1d
 1557 0720 01       		.uleb128 0x1
 1558 0721 50       		.byte	0x50
 1559 0722 02       		.uleb128 0x2
 1560 0723 74       		.byte	0x74
 1561 0724 00       		.sleb128 0
 1562 0725 00       		.byte	0
 1563 0726 00       		.byte	0
 1564 0727 18       		.uleb128 0x18
 1565 0728 0A000000 		.4byte	.LVL30
 1566 072c A2080000 		.4byte	0x8a2
 1567 0730 25       		.uleb128 0x25
 1568 0731 32000000 		.4byte	.LVL38
 1569 0735 E3040000 		.4byte	0x4e3
 1570 0739 1D       		.uleb128 0x1d
 1571 073a 01       		.uleb128 0x1
 1572 073b 50       		.byte	0x50
 1573 073c 02       		.uleb128 0x2
 1574 073d 74       		.byte	0x74
 1575 073e 00       		.sleb128 0
 1576 073f 00       		.byte	0
 1577 0740 00       		.byte	0
 1578 0741 26       		.uleb128 0x26
 1579 0742 F2020000 		.4byte	.LASF82
 1580 0746 01       		.byte	0x1
 1581 0747 2901     		.2byte	0x129
 1582 0749 00000000 		.4byte	.LFB14
 1583 074d 2C000000 		.4byte	.LFE14-.LFB14
 1584 0751 01       		.uleb128 0x1
 1585 0752 9C       		.byte	0x9c
 1586 0753 BC070000 		.4byte	0x7bc
ARM GAS  /var/folders/qh/xwg3v3kj02qbxczjpdb8lzfr0000gn/T//ccEcPMDY.s 			page 29


 1587 0757 27       		.uleb128 0x27
 1588 0758 6F747000 		.ascii	"otp\000"
 1589 075c 01       		.byte	0x1
 1590 075d 2A01     		.2byte	0x12a
 1591 075f 1F020000 		.4byte	0x21f
 1592 0763 1E020000 		.4byte	.LLST13
 1593 0767 28       		.uleb128 0x28
 1594 0768 A6040000 		.4byte	0x4a6
 1595 076c 04000000 		.4byte	.LBB22
 1596 0770 38000000 		.4byte	.Ldebug_ranges0+0x38
 1597 0774 01       		.byte	0x1
 1598 0775 2E01     		.2byte	0x12e
 1599 0777 97070000 		.4byte	0x797
 1600 077b 20       		.uleb128 0x20
 1601 077c B6040000 		.4byte	0x4b6
 1602 0780 06       		.uleb128 0x6
 1603 0781 03       		.byte	0x3
 1604 0782 00000000 		.4byte	rlist
 1605 0786 9F       		.byte	0x9f
 1606 0787 21       		.uleb128 0x21
 1607 0788 38000000 		.4byte	.Ldebug_ranges0+0x38
 1608 078c 22       		.uleb128 0x22
 1609 078d C1040000 		.4byte	0x4c1
 1610 0791 31020000 		.4byte	.LLST14
 1611 0795 00       		.byte	0
 1612 0796 00       		.byte	0
 1613 0797 1C       		.uleb128 0x1c
 1614 0798 1E000000 		.4byte	.LVL41
 1615 079c E3040000 		.4byte	0x4e3
 1616 07a0 AB070000 		.4byte	0x7ab
 1617 07a4 1D       		.uleb128 0x1d
 1618 07a5 01       		.uleb128 0x1
 1619 07a6 50       		.byte	0x50
 1620 07a7 02       		.uleb128 0x2
 1621 07a8 75       		.byte	0x75
 1622 07a9 00       		.sleb128 0
 1623 07aa 00       		.byte	0
 1624 07ab 25       		.uleb128 0x25
 1625 07ac 26000000 		.4byte	.LVL42
 1626 07b0 A9080000 		.4byte	0x8a9
 1627 07b4 1D       		.uleb128 0x1d
 1628 07b5 01       		.uleb128 0x1
 1629 07b6 51       		.byte	0x51
 1630 07b7 02       		.uleb128 0x2
 1631 07b8 75       		.byte	0x75
 1632 07b9 00       		.sleb128 0
 1633 07ba 00       		.byte	0
 1634 07bb 00       		.byte	0
 1635 07bc 26       		.uleb128 0x26
 1636 07bd 0D000000 		.4byte	.LASF83
 1637 07c1 01       		.byte	0x1
 1638 07c2 4201     		.2byte	0x142
 1639 07c4 00000000 		.4byte	.LFB15
 1640 07c8 3C000000 		.4byte	.LFE15-.LFB15
 1641 07cc 01       		.uleb128 0x1
 1642 07cd 9C       		.byte	0x9c
 1643 07ce 2B080000 		.4byte	0x82b
ARM GAS  /var/folders/qh/xwg3v3kj02qbxczjpdb8lzfr0000gn/T//ccEcPMDY.s 			page 30


 1644 07d2 27       		.uleb128 0x27
 1645 07d3 6F747000 		.ascii	"otp\000"
 1646 07d7 01       		.byte	0x1
 1647 07d8 4301     		.2byte	0x143
 1648 07da 1F020000 		.4byte	0x21f
 1649 07de 53020000 		.4byte	.LLST15
 1650 07e2 27       		.uleb128 0x27
 1651 07e3 637000   		.ascii	"cp\000"
 1652 07e6 01       		.byte	0x1
 1653 07e7 4301     		.2byte	0x143
 1654 07e9 1F020000 		.4byte	0x21f
 1655 07ed 66020000 		.4byte	.LLST16
 1656 07f1 28       		.uleb128 0x28
 1657 07f2 A6040000 		.4byte	0x4a6
 1658 07f6 04000000 		.4byte	.LBB28
 1659 07fa 58000000 		.4byte	.Ldebug_ranges0+0x58
 1660 07fe 01       		.byte	0x1
 1661 07ff 4701     		.2byte	0x147
 1662 0801 21080000 		.4byte	0x821
 1663 0805 20       		.uleb128 0x20
 1664 0806 B6040000 		.4byte	0x4b6
 1665 080a 06       		.uleb128 0x6
 1666 080b 03       		.byte	0x3
 1667 080c 00000000 		.4byte	rlist
 1668 0810 9F       		.byte	0x9f
 1669 0811 21       		.uleb128 0x21
 1670 0812 58000000 		.4byte	.Ldebug_ranges0+0x58
 1671 0816 22       		.uleb128 0x22
 1672 0817 C1040000 		.4byte	0x4c1
 1673 081b 89020000 		.4byte	.LLST17
 1674 081f 00       		.byte	0
 1675 0820 00       		.byte	0
 1676 0821 18       		.uleb128 0x18
 1677 0822 34000000 		.4byte	.LVL48
 1678 0826 A9080000 		.4byte	0x8a9
 1679 082a 00       		.byte	0
 1680 082b 1E       		.uleb128 0x1e
 1681 082c CB000000 		.4byte	.LASF84
 1682 0830 01       		.byte	0x1
 1683 0831 F6       		.byte	0xf6
 1684 0832 00000000 		.4byte	.LFB13
 1685 0836 20000000 		.4byte	.LFE13-.LFB13
 1686 083a 01       		.uleb128 0x1
 1687 083b 9C       		.byte	0x9c
 1688 083c 53080000 		.4byte	0x853
 1689 0840 18       		.uleb128 0x18
 1690 0841 06000000 		.4byte	.LVL49
 1691 0845 A2080000 		.4byte	0x8a2
 1692 0849 18       		.uleb128 0x18
 1693 084a 18000000 		.4byte	.LVL50
 1694 084e BC070000 		.4byte	0x7bc
 1695 0852 00       		.byte	0
 1696 0853 26       		.uleb128 0x26
 1697 0854 F5000000 		.4byte	.LASF85
 1698 0858 01       		.byte	0x1
 1699 0859 6301     		.2byte	0x163
 1700 085b 00000000 		.4byte	.LFB16
ARM GAS  /var/folders/qh/xwg3v3kj02qbxczjpdb8lzfr0000gn/T//ccEcPMDY.s 			page 31


 1701 085f 1C000000 		.4byte	.LFE16-.LFB16
 1702 0863 01       		.uleb128 0x1
 1703 0864 9C       		.byte	0x9c
 1704 0865 7C080000 		.4byte	0x87c
 1705 0869 18       		.uleb128 0x18
 1706 086a 10000000 		.4byte	.LVL51
 1707 086e BC070000 		.4byte	0x7bc
 1708 0872 18       		.uleb128 0x18
 1709 0873 16000000 		.4byte	.LVL52
 1710 0877 41070000 		.4byte	0x741
 1711 087b 00       		.byte	0
 1712 087c 29       		.uleb128 0x29
 1713 087d AF040000 		.4byte	.LASF97
 1714 0881 01       		.byte	0x1
 1715 0882 28       		.byte	0x28
 1716 0883 C1030000 		.4byte	0x3c1
 1717 0887 05       		.uleb128 0x5
 1718 0888 03       		.byte	0x3
 1719 0889 00000000 		.4byte	rlist
 1720 088d 2A       		.uleb128 0x2a
 1721 088e B7010000 		.4byte	.LASF86
 1722 0892 0C       		.byte	0xc
 1723 0893 E6       		.byte	0xe6
 1724 0894 2A       		.uleb128 0x2a
 1725 0895 BD040000 		.4byte	.LASF87
 1726 0899 0C       		.byte	0xc
 1727 089a E2       		.byte	0xe2
 1728 089b 2A       		.uleb128 0x2a
 1729 089c 75000000 		.4byte	.LASF88
 1730 08a0 0C       		.byte	0xc
 1731 08a1 E3       		.byte	0xe3
 1732 08a2 2A       		.uleb128 0x2a
 1733 08a3 D0010000 		.4byte	.LASF89
 1734 08a7 0C       		.byte	0xc
 1735 08a8 E7       		.byte	0xe7
 1736 08a9 2B       		.uleb128 0x2b
 1737 08aa 29010000 		.4byte	.LASF90
 1738 08ae 07       		.byte	0x7
 1739 08af 6E01     		.2byte	0x16e
 1740 08b1 C0080000 		.4byte	0x8c0
 1741 08b5 0C       		.uleb128 0xc
 1742 08b6 1F020000 		.4byte	0x21f
 1743 08ba 0C       		.uleb128 0xc
 1744 08bb 1F020000 		.4byte	0x21f
 1745 08bf 00       		.byte	0
 1746 08c0 2C       		.uleb128 0x2c
 1747 08c1 0A030000 		.4byte	.LASF91
 1748 08c5 08       		.byte	0x8
 1749 08c6 F7       		.byte	0xf7
 1750 08c7 E0080000 		.4byte	0x8e0
 1751 08cb 0C       		.uleb128 0xc
 1752 08cc 65030000 		.4byte	0x365
 1753 08d0 0C       		.uleb128 0xc
 1754 08d1 E0000000 		.4byte	0xe0
 1755 08d5 0C       		.uleb128 0xc
 1756 08d6 F5020000 		.4byte	0x2f5
 1757 08da 0C       		.uleb128 0xc
ARM GAS  /var/folders/qh/xwg3v3kj02qbxczjpdb8lzfr0000gn/T//ccEcPMDY.s 			page 32


 1758 08db 5B020000 		.4byte	0x25b
 1759 08df 00       		.byte	0
 1760 08e0 2D       		.uleb128 0x2d
 1761 08e1 CE030000 		.4byte	.LASF98
 1762 08e5 08       		.byte	0x8
 1763 08e6 F8       		.byte	0xf8
 1764 08e7 0C       		.uleb128 0xc
 1765 08e8 65030000 		.4byte	0x365
 1766 08ec 00       		.byte	0
 1767 08ed 00       		.byte	0
 1768              		.section	.debug_abbrev,"",%progbits
 1769              	.Ldebug_abbrev0:
 1770 0000 01       		.uleb128 0x1
 1771 0001 11       		.uleb128 0x11
 1772 0002 01       		.byte	0x1
 1773 0003 25       		.uleb128 0x25
 1774 0004 0E       		.uleb128 0xe
 1775 0005 13       		.uleb128 0x13
 1776 0006 0B       		.uleb128 0xb
 1777 0007 03       		.uleb128 0x3
 1778 0008 0E       		.uleb128 0xe
 1779 0009 1B       		.uleb128 0x1b
 1780 000a 0E       		.uleb128 0xe
 1781 000b 55       		.uleb128 0x55
 1782 000c 17       		.uleb128 0x17
 1783 000d 11       		.uleb128 0x11
 1784 000e 01       		.uleb128 0x1
 1785 000f 10       		.uleb128 0x10
 1786 0010 17       		.uleb128 0x17
 1787 0011 00       		.byte	0
 1788 0012 00       		.byte	0
 1789 0013 02       		.uleb128 0x2
 1790 0014 24       		.uleb128 0x24
 1791 0015 00       		.byte	0
 1792 0016 0B       		.uleb128 0xb
 1793 0017 0B       		.uleb128 0xb
 1794 0018 3E       		.uleb128 0x3e
 1795 0019 0B       		.uleb128 0xb
 1796 001a 03       		.uleb128 0x3
 1797 001b 08       		.uleb128 0x8
 1798 001c 00       		.byte	0
 1799 001d 00       		.byte	0
 1800 001e 03       		.uleb128 0x3
 1801 001f 24       		.uleb128 0x24
 1802 0020 00       		.byte	0
 1803 0021 0B       		.uleb128 0xb
 1804 0022 0B       		.uleb128 0xb
 1805 0023 3E       		.uleb128 0x3e
 1806 0024 0B       		.uleb128 0xb
 1807 0025 03       		.uleb128 0x3
 1808 0026 0E       		.uleb128 0xe
 1809 0027 00       		.byte	0
 1810 0028 00       		.byte	0
 1811 0029 04       		.uleb128 0x4
 1812 002a 16       		.uleb128 0x16
 1813 002b 00       		.byte	0
 1814 002c 03       		.uleb128 0x3
ARM GAS  /var/folders/qh/xwg3v3kj02qbxczjpdb8lzfr0000gn/T//ccEcPMDY.s 			page 33


 1815 002d 0E       		.uleb128 0xe
 1816 002e 3A       		.uleb128 0x3a
 1817 002f 0B       		.uleb128 0xb
 1818 0030 3B       		.uleb128 0x3b
 1819 0031 0B       		.uleb128 0xb
 1820 0032 49       		.uleb128 0x49
 1821 0033 13       		.uleb128 0x13
 1822 0034 00       		.byte	0
 1823 0035 00       		.byte	0
 1824 0036 05       		.uleb128 0x5
 1825 0037 13       		.uleb128 0x13
 1826 0038 01       		.byte	0x1
 1827 0039 03       		.uleb128 0x3
 1828 003a 0E       		.uleb128 0xe
 1829 003b 0B       		.uleb128 0xb
 1830 003c 0B       		.uleb128 0xb
 1831 003d 3A       		.uleb128 0x3a
 1832 003e 0B       		.uleb128 0xb
 1833 003f 3B       		.uleb128 0x3b
 1834 0040 0B       		.uleb128 0xb
 1835 0041 01       		.uleb128 0x1
 1836 0042 13       		.uleb128 0x13
 1837 0043 00       		.byte	0
 1838 0044 00       		.byte	0
 1839 0045 06       		.uleb128 0x6
 1840 0046 0D       		.uleb128 0xd
 1841 0047 00       		.byte	0
 1842 0048 03       		.uleb128 0x3
 1843 0049 0E       		.uleb128 0xe
 1844 004a 3A       		.uleb128 0x3a
 1845 004b 0B       		.uleb128 0xb
 1846 004c 3B       		.uleb128 0x3b
 1847 004d 0B       		.uleb128 0xb
 1848 004e 49       		.uleb128 0x49
 1849 004f 13       		.uleb128 0x13
 1850 0050 38       		.uleb128 0x38
 1851 0051 0B       		.uleb128 0xb
 1852 0052 00       		.byte	0
 1853 0053 00       		.byte	0
 1854 0054 07       		.uleb128 0x7
 1855 0055 0D       		.uleb128 0xd
 1856 0056 00       		.byte	0
 1857 0057 03       		.uleb128 0x3
 1858 0058 08       		.uleb128 0x8
 1859 0059 3A       		.uleb128 0x3a
 1860 005a 0B       		.uleb128 0xb
 1861 005b 3B       		.uleb128 0x3b
 1862 005c 0B       		.uleb128 0xb
 1863 005d 49       		.uleb128 0x49
 1864 005e 13       		.uleb128 0x13
 1865 005f 38       		.uleb128 0x38
 1866 0060 0B       		.uleb128 0xb
 1867 0061 00       		.byte	0
 1868 0062 00       		.byte	0
 1869 0063 08       		.uleb128 0x8
 1870 0064 13       		.uleb128 0x13
 1871 0065 01       		.byte	0x1
ARM GAS  /var/folders/qh/xwg3v3kj02qbxczjpdb8lzfr0000gn/T//ccEcPMDY.s 			page 34


 1872 0066 0B       		.uleb128 0xb
 1873 0067 0B       		.uleb128 0xb
 1874 0068 3A       		.uleb128 0x3a
 1875 0069 0B       		.uleb128 0xb
 1876 006a 3B       		.uleb128 0x3b
 1877 006b 0B       		.uleb128 0xb
 1878 006c 01       		.uleb128 0x1
 1879 006d 13       		.uleb128 0x13
 1880 006e 00       		.byte	0
 1881 006f 00       		.byte	0
 1882 0070 09       		.uleb128 0x9
 1883 0071 0F       		.uleb128 0xf
 1884 0072 00       		.byte	0
 1885 0073 0B       		.uleb128 0xb
 1886 0074 0B       		.uleb128 0xb
 1887 0075 49       		.uleb128 0x49
 1888 0076 13       		.uleb128 0x13
 1889 0077 00       		.byte	0
 1890 0078 00       		.byte	0
 1891 0079 0A       		.uleb128 0xa
 1892 007a 0F       		.uleb128 0xf
 1893 007b 00       		.byte	0
 1894 007c 0B       		.uleb128 0xb
 1895 007d 0B       		.uleb128 0xb
 1896 007e 00       		.byte	0
 1897 007f 00       		.byte	0
 1898 0080 0B       		.uleb128 0xb
 1899 0081 15       		.uleb128 0x15
 1900 0082 01       		.byte	0x1
 1901 0083 27       		.uleb128 0x27
 1902 0084 19       		.uleb128 0x19
 1903 0085 01       		.uleb128 0x1
 1904 0086 13       		.uleb128 0x13
 1905 0087 00       		.byte	0
 1906 0088 00       		.byte	0
 1907 0089 0C       		.uleb128 0xc
 1908 008a 05       		.uleb128 0x5
 1909 008b 00       		.byte	0
 1910 008c 49       		.uleb128 0x49
 1911 008d 13       		.uleb128 0x13
 1912 008e 00       		.byte	0
 1913 008f 00       		.byte	0
 1914 0090 0D       		.uleb128 0xd
 1915 0091 35       		.uleb128 0x35
 1916 0092 00       		.byte	0
 1917 0093 49       		.uleb128 0x49
 1918 0094 13       		.uleb128 0x13
 1919 0095 00       		.byte	0
 1920 0096 00       		.byte	0
 1921 0097 0E       		.uleb128 0xe
 1922 0098 17       		.uleb128 0x17
 1923 0099 01       		.byte	0x1
 1924 009a 0B       		.uleb128 0xb
 1925 009b 0B       		.uleb128 0xb
 1926 009c 3A       		.uleb128 0x3a
 1927 009d 0B       		.uleb128 0xb
 1928 009e 3B       		.uleb128 0x3b
ARM GAS  /var/folders/qh/xwg3v3kj02qbxczjpdb8lzfr0000gn/T//ccEcPMDY.s 			page 35


 1929 009f 0B       		.uleb128 0xb
 1930 00a0 01       		.uleb128 0x1
 1931 00a1 13       		.uleb128 0x13
 1932 00a2 00       		.byte	0
 1933 00a3 00       		.byte	0
 1934 00a4 0F       		.uleb128 0xf
 1935 00a5 0D       		.uleb128 0xd
 1936 00a6 00       		.byte	0
 1937 00a7 03       		.uleb128 0x3
 1938 00a8 0E       		.uleb128 0xe
 1939 00a9 3A       		.uleb128 0x3a
 1940 00aa 0B       		.uleb128 0xb
 1941 00ab 3B       		.uleb128 0x3b
 1942 00ac 0B       		.uleb128 0xb
 1943 00ad 49       		.uleb128 0x49
 1944 00ae 13       		.uleb128 0x13
 1945 00af 00       		.byte	0
 1946 00b0 00       		.byte	0
 1947 00b1 10       		.uleb128 0x10
 1948 00b2 26       		.uleb128 0x26
 1949 00b3 00       		.byte	0
 1950 00b4 49       		.uleb128 0x49
 1951 00b5 13       		.uleb128 0x13
 1952 00b6 00       		.byte	0
 1953 00b7 00       		.byte	0
 1954 00b8 11       		.uleb128 0x11
 1955 00b9 2E       		.uleb128 0x2e
 1956 00ba 01       		.byte	0x1
 1957 00bb 03       		.uleb128 0x3
 1958 00bc 0E       		.uleb128 0xe
 1959 00bd 3A       		.uleb128 0x3a
 1960 00be 0B       		.uleb128 0xb
 1961 00bf 3B       		.uleb128 0x3b
 1962 00c0 0B       		.uleb128 0xb
 1963 00c1 27       		.uleb128 0x27
 1964 00c2 19       		.uleb128 0x19
 1965 00c3 49       		.uleb128 0x49
 1966 00c4 13       		.uleb128 0x13
 1967 00c5 20       		.uleb128 0x20
 1968 00c6 0B       		.uleb128 0xb
 1969 00c7 01       		.uleb128 0x1
 1970 00c8 13       		.uleb128 0x13
 1971 00c9 00       		.byte	0
 1972 00ca 00       		.byte	0
 1973 00cb 12       		.uleb128 0x12
 1974 00cc 05       		.uleb128 0x5
 1975 00cd 00       		.byte	0
 1976 00ce 03       		.uleb128 0x3
 1977 00cf 08       		.uleb128 0x8
 1978 00d0 3A       		.uleb128 0x3a
 1979 00d1 0B       		.uleb128 0xb
 1980 00d2 3B       		.uleb128 0x3b
 1981 00d3 0B       		.uleb128 0xb
 1982 00d4 49       		.uleb128 0x49
 1983 00d5 13       		.uleb128 0x13
 1984 00d6 00       		.byte	0
 1985 00d7 00       		.byte	0
ARM GAS  /var/folders/qh/xwg3v3kj02qbxczjpdb8lzfr0000gn/T//ccEcPMDY.s 			page 36


 1986 00d8 13       		.uleb128 0x13
 1987 00d9 34       		.uleb128 0x34
 1988 00da 00       		.byte	0
 1989 00db 03       		.uleb128 0x3
 1990 00dc 08       		.uleb128 0x8
 1991 00dd 3A       		.uleb128 0x3a
 1992 00de 0B       		.uleb128 0xb
 1993 00df 3B       		.uleb128 0x3b
 1994 00e0 0B       		.uleb128 0xb
 1995 00e1 49       		.uleb128 0x49
 1996 00e2 13       		.uleb128 0x13
 1997 00e3 00       		.byte	0
 1998 00e4 00       		.byte	0
 1999 00e5 14       		.uleb128 0x14
 2000 00e6 2E       		.uleb128 0x2e
 2001 00e7 00       		.byte	0
 2002 00e8 3F       		.uleb128 0x3f
 2003 00e9 19       		.uleb128 0x19
 2004 00ea 03       		.uleb128 0x3
 2005 00eb 0E       		.uleb128 0xe
 2006 00ec 3A       		.uleb128 0x3a
 2007 00ed 0B       		.uleb128 0xb
 2008 00ee 3B       		.uleb128 0x3b
 2009 00ef 0B       		.uleb128 0xb
 2010 00f0 27       		.uleb128 0x27
 2011 00f1 19       		.uleb128 0x19
 2012 00f2 11       		.uleb128 0x11
 2013 00f3 01       		.uleb128 0x1
 2014 00f4 12       		.uleb128 0x12
 2015 00f5 06       		.uleb128 0x6
 2016 00f6 40       		.uleb128 0x40
 2017 00f7 18       		.uleb128 0x18
 2018 00f8 9742     		.uleb128 0x2117
 2019 00fa 19       		.uleb128 0x19
 2020 00fb 00       		.byte	0
 2021 00fc 00       		.byte	0
 2022 00fd 15       		.uleb128 0x15
 2023 00fe 2E       		.uleb128 0x2e
 2024 00ff 01       		.byte	0x1
 2025 0100 3F       		.uleb128 0x3f
 2026 0101 19       		.uleb128 0x19
 2027 0102 03       		.uleb128 0x3
 2028 0103 0E       		.uleb128 0xe
 2029 0104 3A       		.uleb128 0x3a
 2030 0105 0B       		.uleb128 0xb
 2031 0106 3B       		.uleb128 0x3b
 2032 0107 0B       		.uleb128 0xb
 2033 0108 27       		.uleb128 0x27
 2034 0109 19       		.uleb128 0x19
 2035 010a 49       		.uleb128 0x49
 2036 010b 13       		.uleb128 0x13
 2037 010c 11       		.uleb128 0x11
 2038 010d 01       		.uleb128 0x1
 2039 010e 12       		.uleb128 0x12
 2040 010f 06       		.uleb128 0x6
 2041 0110 40       		.uleb128 0x40
 2042 0111 18       		.uleb128 0x18
ARM GAS  /var/folders/qh/xwg3v3kj02qbxczjpdb8lzfr0000gn/T//ccEcPMDY.s 			page 37


 2043 0112 9742     		.uleb128 0x2117
 2044 0114 19       		.uleb128 0x19
 2045 0115 01       		.uleb128 0x1
 2046 0116 13       		.uleb128 0x13
 2047 0117 00       		.byte	0
 2048 0118 00       		.byte	0
 2049 0119 16       		.uleb128 0x16
 2050 011a 05       		.uleb128 0x5
 2051 011b 00       		.byte	0
 2052 011c 03       		.uleb128 0x3
 2053 011d 08       		.uleb128 0x8
 2054 011e 3A       		.uleb128 0x3a
 2055 011f 0B       		.uleb128 0xb
 2056 0120 3B       		.uleb128 0x3b
 2057 0121 0B       		.uleb128 0xb
 2058 0122 49       		.uleb128 0x49
 2059 0123 13       		.uleb128 0x13
 2060 0124 02       		.uleb128 0x2
 2061 0125 17       		.uleb128 0x17
 2062 0126 00       		.byte	0
 2063 0127 00       		.byte	0
 2064 0128 17       		.uleb128 0x17
 2065 0129 34       		.uleb128 0x34
 2066 012a 00       		.byte	0
 2067 012b 03       		.uleb128 0x3
 2068 012c 08       		.uleb128 0x8
 2069 012d 3A       		.uleb128 0x3a
 2070 012e 0B       		.uleb128 0xb
 2071 012f 3B       		.uleb128 0x3b
 2072 0130 0B       		.uleb128 0xb
 2073 0131 49       		.uleb128 0x49
 2074 0132 13       		.uleb128 0x13
 2075 0133 02       		.uleb128 0x2
 2076 0134 17       		.uleb128 0x17
 2077 0135 00       		.byte	0
 2078 0136 00       		.byte	0
 2079 0137 18       		.uleb128 0x18
 2080 0138 898201   		.uleb128 0x4109
 2081 013b 00       		.byte	0
 2082 013c 11       		.uleb128 0x11
 2083 013d 01       		.uleb128 0x1
 2084 013e 31       		.uleb128 0x31
 2085 013f 13       		.uleb128 0x13
 2086 0140 00       		.byte	0
 2087 0141 00       		.byte	0
 2088 0142 19       		.uleb128 0x19
 2089 0143 2E       		.uleb128 0x2e
 2090 0144 01       		.byte	0x1
 2091 0145 03       		.uleb128 0x3
 2092 0146 0E       		.uleb128 0xe
 2093 0147 3A       		.uleb128 0x3a
 2094 0148 0B       		.uleb128 0xb
 2095 0149 3B       		.uleb128 0x3b
 2096 014a 0B       		.uleb128 0xb
 2097 014b 27       		.uleb128 0x27
 2098 014c 19       		.uleb128 0x19
 2099 014d 11       		.uleb128 0x11
ARM GAS  /var/folders/qh/xwg3v3kj02qbxczjpdb8lzfr0000gn/T//ccEcPMDY.s 			page 38


 2100 014e 01       		.uleb128 0x1
 2101 014f 12       		.uleb128 0x12
 2102 0150 06       		.uleb128 0x6
 2103 0151 40       		.uleb128 0x40
 2104 0152 18       		.uleb128 0x18
 2105 0153 9742     		.uleb128 0x2117
 2106 0155 19       		.uleb128 0x19
 2107 0156 01       		.uleb128 0x1
 2108 0157 13       		.uleb128 0x13
 2109 0158 00       		.byte	0
 2110 0159 00       		.byte	0
 2111 015a 1A       		.uleb128 0x1a
 2112 015b 1D       		.uleb128 0x1d
 2113 015c 01       		.byte	0x1
 2114 015d 31       		.uleb128 0x31
 2115 015e 13       		.uleb128 0x13
 2116 015f 52       		.uleb128 0x52
 2117 0160 01       		.uleb128 0x1
 2118 0161 55       		.uleb128 0x55
 2119 0162 17       		.uleb128 0x17
 2120 0163 58       		.uleb128 0x58
 2121 0164 0B       		.uleb128 0xb
 2122 0165 59       		.uleb128 0x59
 2123 0166 0B       		.uleb128 0xb
 2124 0167 01       		.uleb128 0x1
 2125 0168 13       		.uleb128 0x13
 2126 0169 00       		.byte	0
 2127 016a 00       		.byte	0
 2128 016b 1B       		.uleb128 0x1b
 2129 016c 05       		.uleb128 0x5
 2130 016d 00       		.byte	0
 2131 016e 31       		.uleb128 0x31
 2132 016f 13       		.uleb128 0x13
 2133 0170 02       		.uleb128 0x2
 2134 0171 17       		.uleb128 0x17
 2135 0172 00       		.byte	0
 2136 0173 00       		.byte	0
 2137 0174 1C       		.uleb128 0x1c
 2138 0175 898201   		.uleb128 0x4109
 2139 0178 01       		.byte	0x1
 2140 0179 11       		.uleb128 0x11
 2141 017a 01       		.uleb128 0x1
 2142 017b 31       		.uleb128 0x31
 2143 017c 13       		.uleb128 0x13
 2144 017d 01       		.uleb128 0x1
 2145 017e 13       		.uleb128 0x13
 2146 017f 00       		.byte	0
 2147 0180 00       		.byte	0
 2148 0181 1D       		.uleb128 0x1d
 2149 0182 8A8201   		.uleb128 0x410a
 2150 0185 00       		.byte	0
 2151 0186 02       		.uleb128 0x2
 2152 0187 18       		.uleb128 0x18
 2153 0188 9142     		.uleb128 0x2111
 2154 018a 18       		.uleb128 0x18
 2155 018b 00       		.byte	0
 2156 018c 00       		.byte	0
ARM GAS  /var/folders/qh/xwg3v3kj02qbxczjpdb8lzfr0000gn/T//ccEcPMDY.s 			page 39


 2157 018d 1E       		.uleb128 0x1e
 2158 018e 2E       		.uleb128 0x2e
 2159 018f 01       		.byte	0x1
 2160 0190 3F       		.uleb128 0x3f
 2161 0191 19       		.uleb128 0x19
 2162 0192 03       		.uleb128 0x3
 2163 0193 0E       		.uleb128 0xe
 2164 0194 3A       		.uleb128 0x3a
 2165 0195 0B       		.uleb128 0xb
 2166 0196 3B       		.uleb128 0x3b
 2167 0197 0B       		.uleb128 0xb
 2168 0198 27       		.uleb128 0x27
 2169 0199 19       		.uleb128 0x19
 2170 019a 11       		.uleb128 0x11
 2171 019b 01       		.uleb128 0x1
 2172 019c 12       		.uleb128 0x12
 2173 019d 06       		.uleb128 0x6
 2174 019e 40       		.uleb128 0x40
 2175 019f 18       		.uleb128 0x18
 2176 01a0 9742     		.uleb128 0x2117
 2177 01a2 19       		.uleb128 0x19
 2178 01a3 01       		.uleb128 0x1
 2179 01a4 13       		.uleb128 0x13
 2180 01a5 00       		.byte	0
 2181 01a6 00       		.byte	0
 2182 01a7 1F       		.uleb128 0x1f
 2183 01a8 05       		.uleb128 0x5
 2184 01a9 00       		.byte	0
 2185 01aa 03       		.uleb128 0x3
 2186 01ab 0E       		.uleb128 0xe
 2187 01ac 3A       		.uleb128 0x3a
 2188 01ad 0B       		.uleb128 0xb
 2189 01ae 3B       		.uleb128 0x3b
 2190 01af 0B       		.uleb128 0xb
 2191 01b0 49       		.uleb128 0x49
 2192 01b1 13       		.uleb128 0x13
 2193 01b2 02       		.uleb128 0x2
 2194 01b3 17       		.uleb128 0x17
 2195 01b4 00       		.byte	0
 2196 01b5 00       		.byte	0
 2197 01b6 20       		.uleb128 0x20
 2198 01b7 05       		.uleb128 0x5
 2199 01b8 00       		.byte	0
 2200 01b9 31       		.uleb128 0x31
 2201 01ba 13       		.uleb128 0x13
 2202 01bb 02       		.uleb128 0x2
 2203 01bc 18       		.uleb128 0x18
 2204 01bd 00       		.byte	0
 2205 01be 00       		.byte	0
 2206 01bf 21       		.uleb128 0x21
 2207 01c0 0B       		.uleb128 0xb
 2208 01c1 01       		.byte	0x1
 2209 01c2 55       		.uleb128 0x55
 2210 01c3 17       		.uleb128 0x17
 2211 01c4 00       		.byte	0
 2212 01c5 00       		.byte	0
 2213 01c6 22       		.uleb128 0x22
ARM GAS  /var/folders/qh/xwg3v3kj02qbxczjpdb8lzfr0000gn/T//ccEcPMDY.s 			page 40


 2214 01c7 34       		.uleb128 0x34
 2215 01c8 00       		.byte	0
 2216 01c9 31       		.uleb128 0x31
 2217 01ca 13       		.uleb128 0x13
 2218 01cb 02       		.uleb128 0x2
 2219 01cc 17       		.uleb128 0x17
 2220 01cd 00       		.byte	0
 2221 01ce 00       		.byte	0
 2222 01cf 23       		.uleb128 0x23
 2223 01d0 0B       		.uleb128 0xb
 2224 01d1 01       		.byte	0x1
 2225 01d2 11       		.uleb128 0x11
 2226 01d3 01       		.uleb128 0x1
 2227 01d4 12       		.uleb128 0x12
 2228 01d5 06       		.uleb128 0x6
 2229 01d6 01       		.uleb128 0x1
 2230 01d7 13       		.uleb128 0x13
 2231 01d8 00       		.byte	0
 2232 01d9 00       		.byte	0
 2233 01da 24       		.uleb128 0x24
 2234 01db 34       		.uleb128 0x34
 2235 01dc 00       		.byte	0
 2236 01dd 03       		.uleb128 0x3
 2237 01de 08       		.uleb128 0x8
 2238 01df 3A       		.uleb128 0x3a
 2239 01e0 0B       		.uleb128 0xb
 2240 01e1 3B       		.uleb128 0x3b
 2241 01e2 0B       		.uleb128 0xb
 2242 01e3 49       		.uleb128 0x49
 2243 01e4 13       		.uleb128 0x13
 2244 01e5 02       		.uleb128 0x2
 2245 01e6 18       		.uleb128 0x18
 2246 01e7 00       		.byte	0
 2247 01e8 00       		.byte	0
 2248 01e9 25       		.uleb128 0x25
 2249 01ea 898201   		.uleb128 0x4109
 2250 01ed 01       		.byte	0x1
 2251 01ee 11       		.uleb128 0x11
 2252 01ef 01       		.uleb128 0x1
 2253 01f0 31       		.uleb128 0x31
 2254 01f1 13       		.uleb128 0x13
 2255 01f2 00       		.byte	0
 2256 01f3 00       		.byte	0
 2257 01f4 26       		.uleb128 0x26
 2258 01f5 2E       		.uleb128 0x2e
 2259 01f6 01       		.byte	0x1
 2260 01f7 3F       		.uleb128 0x3f
 2261 01f8 19       		.uleb128 0x19
 2262 01f9 03       		.uleb128 0x3
 2263 01fa 0E       		.uleb128 0xe
 2264 01fb 3A       		.uleb128 0x3a
 2265 01fc 0B       		.uleb128 0xb
 2266 01fd 3B       		.uleb128 0x3b
 2267 01fe 05       		.uleb128 0x5
 2268 01ff 27       		.uleb128 0x27
 2269 0200 19       		.uleb128 0x19
 2270 0201 11       		.uleb128 0x11
ARM GAS  /var/folders/qh/xwg3v3kj02qbxczjpdb8lzfr0000gn/T//ccEcPMDY.s 			page 41


 2271 0202 01       		.uleb128 0x1
 2272 0203 12       		.uleb128 0x12
 2273 0204 06       		.uleb128 0x6
 2274 0205 40       		.uleb128 0x40
 2275 0206 18       		.uleb128 0x18
 2276 0207 9742     		.uleb128 0x2117
 2277 0209 19       		.uleb128 0x19
 2278 020a 01       		.uleb128 0x1
 2279 020b 13       		.uleb128 0x13
 2280 020c 00       		.byte	0
 2281 020d 00       		.byte	0
 2282 020e 27       		.uleb128 0x27
 2283 020f 34       		.uleb128 0x34
 2284 0210 00       		.byte	0
 2285 0211 03       		.uleb128 0x3
 2286 0212 08       		.uleb128 0x8
 2287 0213 3A       		.uleb128 0x3a
 2288 0214 0B       		.uleb128 0xb
 2289 0215 3B       		.uleb128 0x3b
 2290 0216 05       		.uleb128 0x5
 2291 0217 49       		.uleb128 0x49
 2292 0218 13       		.uleb128 0x13
 2293 0219 02       		.uleb128 0x2
 2294 021a 17       		.uleb128 0x17
 2295 021b 00       		.byte	0
 2296 021c 00       		.byte	0
 2297 021d 28       		.uleb128 0x28
 2298 021e 1D       		.uleb128 0x1d
 2299 021f 01       		.byte	0x1
 2300 0220 31       		.uleb128 0x31
 2301 0221 13       		.uleb128 0x13
 2302 0222 52       		.uleb128 0x52
 2303 0223 01       		.uleb128 0x1
 2304 0224 55       		.uleb128 0x55
 2305 0225 17       		.uleb128 0x17
 2306 0226 58       		.uleb128 0x58
 2307 0227 0B       		.uleb128 0xb
 2308 0228 59       		.uleb128 0x59
 2309 0229 05       		.uleb128 0x5
 2310 022a 01       		.uleb128 0x1
 2311 022b 13       		.uleb128 0x13
 2312 022c 00       		.byte	0
 2313 022d 00       		.byte	0
 2314 022e 29       		.uleb128 0x29
 2315 022f 34       		.uleb128 0x34
 2316 0230 00       		.byte	0
 2317 0231 03       		.uleb128 0x3
 2318 0232 0E       		.uleb128 0xe
 2319 0233 3A       		.uleb128 0x3a
 2320 0234 0B       		.uleb128 0xb
 2321 0235 3B       		.uleb128 0x3b
 2322 0236 0B       		.uleb128 0xb
 2323 0237 49       		.uleb128 0x49
 2324 0238 13       		.uleb128 0x13
 2325 0239 3F       		.uleb128 0x3f
 2326 023a 19       		.uleb128 0x19
 2327 023b 02       		.uleb128 0x2
ARM GAS  /var/folders/qh/xwg3v3kj02qbxczjpdb8lzfr0000gn/T//ccEcPMDY.s 			page 42


 2328 023c 18       		.uleb128 0x18
 2329 023d 00       		.byte	0
 2330 023e 00       		.byte	0
 2331 023f 2A       		.uleb128 0x2a
 2332 0240 2E       		.uleb128 0x2e
 2333 0241 00       		.byte	0
 2334 0242 3F       		.uleb128 0x3f
 2335 0243 19       		.uleb128 0x19
 2336 0244 03       		.uleb128 0x3
 2337 0245 0E       		.uleb128 0xe
 2338 0246 3A       		.uleb128 0x3a
 2339 0247 0B       		.uleb128 0xb
 2340 0248 3B       		.uleb128 0x3b
 2341 0249 0B       		.uleb128 0xb
 2342 024a 27       		.uleb128 0x27
 2343 024b 19       		.uleb128 0x19
 2344 024c 3C       		.uleb128 0x3c
 2345 024d 19       		.uleb128 0x19
 2346 024e 00       		.byte	0
 2347 024f 00       		.byte	0
 2348 0250 2B       		.uleb128 0x2b
 2349 0251 2E       		.uleb128 0x2e
 2350 0252 01       		.byte	0x1
 2351 0253 3F       		.uleb128 0x3f
 2352 0254 19       		.uleb128 0x19
 2353 0255 03       		.uleb128 0x3
 2354 0256 0E       		.uleb128 0xe
 2355 0257 3A       		.uleb128 0x3a
 2356 0258 0B       		.uleb128 0xb
 2357 0259 3B       		.uleb128 0x3b
 2358 025a 05       		.uleb128 0x5
 2359 025b 27       		.uleb128 0x27
 2360 025c 19       		.uleb128 0x19
 2361 025d 3C       		.uleb128 0x3c
 2362 025e 19       		.uleb128 0x19
 2363 025f 01       		.uleb128 0x1
 2364 0260 13       		.uleb128 0x13
 2365 0261 00       		.byte	0
 2366 0262 00       		.byte	0
 2367 0263 2C       		.uleb128 0x2c
 2368 0264 2E       		.uleb128 0x2e
 2369 0265 01       		.byte	0x1
 2370 0266 3F       		.uleb128 0x3f
 2371 0267 19       		.uleb128 0x19
 2372 0268 03       		.uleb128 0x3
 2373 0269 0E       		.uleb128 0xe
 2374 026a 3A       		.uleb128 0x3a
 2375 026b 0B       		.uleb128 0xb
 2376 026c 3B       		.uleb128 0x3b
 2377 026d 0B       		.uleb128 0xb
 2378 026e 27       		.uleb128 0x27
 2379 026f 19       		.uleb128 0x19
 2380 0270 3C       		.uleb128 0x3c
 2381 0271 19       		.uleb128 0x19
 2382 0272 01       		.uleb128 0x1
 2383 0273 13       		.uleb128 0x13
 2384 0274 00       		.byte	0
ARM GAS  /var/folders/qh/xwg3v3kj02qbxczjpdb8lzfr0000gn/T//ccEcPMDY.s 			page 43


 2385 0275 00       		.byte	0
 2386 0276 2D       		.uleb128 0x2d
 2387 0277 2E       		.uleb128 0x2e
 2388 0278 01       		.byte	0x1
 2389 0279 3F       		.uleb128 0x3f
 2390 027a 19       		.uleb128 0x19
 2391 027b 03       		.uleb128 0x3
 2392 027c 0E       		.uleb128 0xe
 2393 027d 3A       		.uleb128 0x3a
 2394 027e 0B       		.uleb128 0xb
 2395 027f 3B       		.uleb128 0x3b
 2396 0280 0B       		.uleb128 0xb
 2397 0281 27       		.uleb128 0x27
 2398 0282 19       		.uleb128 0x19
 2399 0283 3C       		.uleb128 0x3c
 2400 0284 19       		.uleb128 0x19
 2401 0285 00       		.byte	0
 2402 0286 00       		.byte	0
 2403 0287 00       		.byte	0
 2404              		.section	.debug_loc,"",%progbits
 2405              	.Ldebug_loc0:
 2406              	.LLST0:
 2407 0000 00000000 		.4byte	.LVL0
 2408 0004 07000000 		.4byte	.LVL1-1
 2409 0008 0100     		.2byte	0x1
 2410 000a 50       		.byte	0x50
 2411 000b 07000000 		.4byte	.LVL1-1
 2412 000f 24000000 		.4byte	.LVL5
 2413 0013 0100     		.2byte	0x1
 2414 0015 54       		.byte	0x54
 2415 0016 24000000 		.4byte	.LVL5
 2416 001a 2C000000 		.4byte	.LFE8
 2417 001e 0100     		.2byte	0x1
 2418 0020 50       		.byte	0x50
 2419 0021 00000000 		.4byte	0
 2420 0025 00000000 		.4byte	0
 2421              	.LLST1:
 2422 0029 0C000000 		.4byte	.LVL2
 2423 002d 10000000 		.4byte	.LVL3
 2424 0031 0600     		.2byte	0x6
 2425 0033 03       		.byte	0x3
 2426 0034 00000000 		.4byte	rlist
 2427 0038 9F       		.byte	0x9f
 2428 0039 10000000 		.4byte	.LVL3
 2429 003d 2C000000 		.4byte	.LFE8
 2430 0041 0100     		.2byte	0x1
 2431 0043 53       		.byte	0x53
 2432 0044 00000000 		.4byte	0
 2433 0048 00000000 		.4byte	0
 2434              	.LLST2:
 2435 004c 00000000 		.4byte	.LVL6
 2436 0050 09000000 		.4byte	.LVL8-1
 2437 0054 0100     		.2byte	0x1
 2438 0056 50       		.byte	0x50
 2439 0057 09000000 		.4byte	.LVL8-1
 2440 005b 3C000000 		.4byte	.LVL13
 2441 005f 0100     		.2byte	0x1
ARM GAS  /var/folders/qh/xwg3v3kj02qbxczjpdb8lzfr0000gn/T//ccEcPMDY.s 			page 44


 2442 0061 54       		.byte	0x54
 2443 0062 3C000000 		.4byte	.LVL13
 2444 0066 3E000000 		.4byte	.LVL14
 2445 006a 0400     		.2byte	0x4
 2446 006c F3       		.byte	0xf3
 2447 006d 01       		.uleb128 0x1
 2448 006e 50       		.byte	0x50
 2449 006f 9F       		.byte	0x9f
 2450 0070 3E000000 		.4byte	.LVL14
 2451 0074 52000000 		.4byte	.LFE10
 2452 0078 0100     		.2byte	0x1
 2453 007a 54       		.byte	0x54
 2454 007b 00000000 		.4byte	0
 2455 007f 00000000 		.4byte	0
 2456              	.LLST3:
 2457 0083 04000000 		.4byte	.LVL7
 2458 0087 09000000 		.4byte	.LVL8-1
 2459 008b 0100     		.2byte	0x1
 2460 008d 50       		.byte	0x50
 2461 008e 09000000 		.4byte	.LVL8-1
 2462 0092 3C000000 		.4byte	.LVL13
 2463 0096 0100     		.2byte	0x1
 2464 0098 54       		.byte	0x54
 2465 0099 3C000000 		.4byte	.LVL13
 2466 009d 3E000000 		.4byte	.LVL14
 2467 00a1 0400     		.2byte	0x4
 2468 00a3 F3       		.byte	0xf3
 2469 00a4 01       		.uleb128 0x1
 2470 00a5 50       		.byte	0x50
 2471 00a6 9F       		.byte	0x9f
 2472 00a7 3E000000 		.4byte	.LVL14
 2473 00ab 52000000 		.4byte	.LFE10
 2474 00af 0100     		.2byte	0x1
 2475 00b1 54       		.byte	0x54
 2476 00b2 00000000 		.4byte	0
 2477 00b6 00000000 		.4byte	0
 2478              	.LLST4:
 2479 00ba 1A000000 		.4byte	.LVL9
 2480 00be 24000000 		.4byte	.LVL10
 2481 00c2 0100     		.2byte	0x1
 2482 00c4 54       		.byte	0x54
 2483 00c5 46000000 		.4byte	.LVL15
 2484 00c9 52000000 		.4byte	.LFE10
 2485 00cd 0100     		.2byte	0x1
 2486 00cf 54       		.byte	0x54
 2487 00d0 00000000 		.4byte	0
 2488 00d4 00000000 		.4byte	0
 2489              	.LLST5:
 2490 00d8 00000000 		.4byte	.LVL16
 2491 00dc 07000000 		.4byte	.LVL17-1
 2492 00e0 0100     		.2byte	0x1
 2493 00e2 50       		.byte	0x50
 2494 00e3 07000000 		.4byte	.LVL17-1
 2495 00e7 2C000000 		.4byte	.LFE9
 2496 00eb 0400     		.2byte	0x4
 2497 00ed F3       		.byte	0xf3
 2498 00ee 01       		.uleb128 0x1
ARM GAS  /var/folders/qh/xwg3v3kj02qbxczjpdb8lzfr0000gn/T//ccEcPMDY.s 			page 45


 2499 00ef 50       		.byte	0x50
 2500 00f0 9F       		.byte	0x9f
 2501 00f1 00000000 		.4byte	0
 2502 00f5 00000000 		.4byte	0
 2503              	.LLST6:
 2504 00f9 0E000000 		.4byte	.LVL18
 2505 00fd 23000000 		.4byte	.LVL20-1
 2506 0101 0100     		.2byte	0x1
 2507 0103 51       		.byte	0x51
 2508 0104 00000000 		.4byte	0
 2509 0108 00000000 		.4byte	0
 2510              	.LLST7:
 2511 010c 12000000 		.4byte	.LVL19
 2512 0110 23000000 		.4byte	.LVL20-1
 2513 0114 0100     		.2byte	0x1
 2514 0116 50       		.byte	0x50
 2515 0117 00000000 		.4byte	0
 2516 011b 00000000 		.4byte	0
 2517              	.LLST8:
 2518 011f 00000000 		.4byte	.LVL21
 2519 0123 0B000000 		.4byte	.LVL22-1
 2520 0127 0100     		.2byte	0x1
 2521 0129 50       		.byte	0x50
 2522 012a 0B000000 		.4byte	.LVL22-1
 2523 012e 4C000000 		.4byte	.LFE11
 2524 0132 0400     		.2byte	0x4
 2525 0134 F3       		.byte	0xf3
 2526 0135 01       		.uleb128 0x1
 2527 0136 50       		.byte	0x50
 2528 0137 9F       		.byte	0x9f
 2529 0138 00000000 		.4byte	0
 2530 013c 00000000 		.4byte	0
 2531              	.LLST9:
 2532 0140 00000000 		.4byte	.LVL21
 2533 0144 0B000000 		.4byte	.LVL22-1
 2534 0148 0100     		.2byte	0x1
 2535 014a 51       		.byte	0x51
 2536 014b 0B000000 		.4byte	.LVL22-1
 2537 014f 36000000 		.4byte	.LVL26
 2538 0153 0100     		.2byte	0x1
 2539 0155 54       		.byte	0x54
 2540 0156 36000000 		.4byte	.LVL26
 2541 015a 38000000 		.4byte	.LVL27
 2542 015e 0400     		.2byte	0x4
 2543 0160 F3       		.byte	0xf3
 2544 0161 01       		.uleb128 0x1
 2545 0162 51       		.byte	0x51
 2546 0163 9F       		.byte	0x9f
 2547 0164 38000000 		.4byte	.LVL27
 2548 0168 4C000000 		.4byte	.LFE11
 2549 016c 0100     		.2byte	0x1
 2550 016e 54       		.byte	0x54
 2551 016f 00000000 		.4byte	0
 2552 0173 00000000 		.4byte	0
 2553              	.LLST10:
 2554 0177 00000000 		.4byte	.LVL29
 2555 017b 09000000 		.4byte	.LVL30-1
ARM GAS  /var/folders/qh/xwg3v3kj02qbxczjpdb8lzfr0000gn/T//ccEcPMDY.s 			page 46


 2556 017f 0100     		.2byte	0x1
 2557 0181 50       		.byte	0x50
 2558 0182 09000000 		.4byte	.LVL30-1
 2559 0186 2A000000 		.4byte	.LVL36
 2560 018a 0100     		.2byte	0x1
 2561 018c 54       		.byte	0x54
 2562 018d 2A000000 		.4byte	.LVL36
 2563 0191 2C000000 		.4byte	.LVL37
 2564 0195 0400     		.2byte	0x4
 2565 0197 F3       		.byte	0xf3
 2566 0198 01       		.uleb128 0x1
 2567 0199 50       		.byte	0x50
 2568 019a 9F       		.byte	0x9f
 2569 019b 2C000000 		.4byte	.LVL37
 2570 019f 38000000 		.4byte	.LFE12
 2571 01a3 0100     		.2byte	0x1
 2572 01a5 54       		.byte	0x54
 2573 01a6 00000000 		.4byte	0
 2574 01aa 00000000 		.4byte	0
 2575              	.LLST11:
 2576 01ae 00000000 		.4byte	.LVL29
 2577 01b2 09000000 		.4byte	.LVL30-1
 2578 01b6 0100     		.2byte	0x1
 2579 01b8 51       		.byte	0x51
 2580 01b9 09000000 		.4byte	.LVL30-1
 2581 01bd 0E000000 		.4byte	.LVL31
 2582 01c1 0100     		.2byte	0x1
 2583 01c3 55       		.byte	0x55
 2584 01c4 0E000000 		.4byte	.LVL31
 2585 01c8 1B000000 		.4byte	.LVL32-1
 2586 01cc 0200     		.2byte	0x2
 2587 01ce 74       		.byte	0x74
 2588 01cf 24       		.sleb128 36
 2589 01d0 1B000000 		.4byte	.LVL32-1
 2590 01d4 2C000000 		.4byte	.LVL37
 2591 01d8 0400     		.2byte	0x4
 2592 01da F3       		.byte	0xf3
 2593 01db 01       		.uleb128 0x1
 2594 01dc 51       		.byte	0x51
 2595 01dd 9F       		.byte	0x9f
 2596 01de 2C000000 		.4byte	.LVL37
 2597 01e2 31000000 		.4byte	.LVL38-1
 2598 01e6 0200     		.2byte	0x2
 2599 01e8 74       		.byte	0x74
 2600 01e9 24       		.sleb128 36
 2601 01ea 31000000 		.4byte	.LVL38-1
 2602 01ee 38000000 		.4byte	.LFE12
 2603 01f2 0400     		.2byte	0x4
 2604 01f4 F3       		.byte	0xf3
 2605 01f5 01       		.uleb128 0x1
 2606 01f6 51       		.byte	0x51
 2607 01f7 9F       		.byte	0x9f
 2608 01f8 00000000 		.4byte	0
 2609 01fc 00000000 		.4byte	0
 2610              	.LLST12:
 2611 0200 20000000 		.4byte	.LVL33
 2612 0204 24000000 		.4byte	.LVL34
ARM GAS  /var/folders/qh/xwg3v3kj02qbxczjpdb8lzfr0000gn/T//ccEcPMDY.s 			page 47


 2613 0208 0100     		.2byte	0x1
 2614 020a 50       		.byte	0x50
 2615 020b 24000000 		.4byte	.LVL34
 2616 020f 29000000 		.4byte	.LVL35-1
 2617 0213 0100     		.2byte	0x1
 2618 0215 51       		.byte	0x51
 2619 0216 00000000 		.4byte	0
 2620 021a 00000000 		.4byte	0
 2621              	.LLST13:
 2622 021e 08000000 		.4byte	.LVL39
 2623 0222 26000000 		.4byte	.LVL43
 2624 0226 0100     		.2byte	0x1
 2625 0228 55       		.byte	0x55
 2626 0229 00000000 		.4byte	0
 2627 022d 00000000 		.4byte	0
 2628              	.LLST14:
 2629 0231 08000000 		.4byte	.LVL39
 2630 0235 18000000 		.4byte	.LVL40
 2631 0239 0100     		.2byte	0x1
 2632 023b 53       		.byte	0x53
 2633 023c 18000000 		.4byte	.LVL40
 2634 0240 1D000000 		.4byte	.LVL41-1
 2635 0244 0500     		.2byte	0x5
 2636 0246 03       		.byte	0x3
 2637 0247 00000000 		.4byte	rlist
 2638 024b 00000000 		.4byte	0
 2639 024f 00000000 		.4byte	0
 2640              	.LLST15:
 2641 0253 08000000 		.4byte	.LVL44
 2642 0257 33000000 		.4byte	.LVL48-1
 2643 025b 0100     		.2byte	0x1
 2644 025d 51       		.byte	0x51
 2645 025e 00000000 		.4byte	0
 2646 0262 00000000 		.4byte	0
 2647              	.LLST16:
 2648 0266 18000000 		.4byte	.LVL45
 2649 026a 1E000000 		.4byte	.LVL46
 2650 026e 0600     		.2byte	0x6
 2651 0270 03       		.byte	0x3
 2652 0271 00000000 		.4byte	rlist
 2653 0275 9F       		.byte	0x9f
 2654 0276 1E000000 		.4byte	.LVL46
 2655 027a 33000000 		.4byte	.LVL48-1
 2656 027e 0100     		.2byte	0x1
 2657 0280 53       		.byte	0x53
 2658 0281 00000000 		.4byte	0
 2659 0285 00000000 		.4byte	0
 2660              	.LLST17:
 2661 0289 08000000 		.4byte	.LVL44
 2662 028d 33000000 		.4byte	.LVL48-1
 2663 0291 0100     		.2byte	0x1
 2664 0293 50       		.byte	0x50
 2665 0294 00000000 		.4byte	0
 2666 0298 00000000 		.4byte	0
 2667              		.section	.debug_aranges,"",%progbits
 2668 0000 64000000 		.4byte	0x64
 2669 0004 0200     		.2byte	0x2
ARM GAS  /var/folders/qh/xwg3v3kj02qbxczjpdb8lzfr0000gn/T//ccEcPMDY.s 			page 48


 2670 0006 00000000 		.4byte	.Ldebug_info0
 2671 000a 04       		.byte	0x4
 2672 000b 00       		.byte	0
 2673 000c 0000     		.2byte	0
 2674 000e 0000     		.2byte	0
 2675 0010 00000000 		.4byte	.LFB7
 2676 0014 14000000 		.4byte	.LFE7-.LFB7
 2677 0018 00000000 		.4byte	.LFB8
 2678 001c 2C000000 		.4byte	.LFE8-.LFB8
 2679 0020 00000000 		.4byte	.LFB10
 2680 0024 52000000 		.4byte	.LFE10-.LFB10
 2681 0028 00000000 		.4byte	.LFB9
 2682 002c 2C000000 		.4byte	.LFE9-.LFB9
 2683 0030 00000000 		.4byte	.LFB11
 2684 0034 4C000000 		.4byte	.LFE11-.LFB11
 2685 0038 00000000 		.4byte	.LFB12
 2686 003c 38000000 		.4byte	.LFE12-.LFB12
 2687 0040 00000000 		.4byte	.LFB14
 2688 0044 2C000000 		.4byte	.LFE14-.LFB14
 2689 0048 00000000 		.4byte	.LFB15
 2690 004c 3C000000 		.4byte	.LFE15-.LFB15
 2691 0050 00000000 		.4byte	.LFB13
 2692 0054 20000000 		.4byte	.LFE13-.LFB13
 2693 0058 00000000 		.4byte	.LFB16
 2694 005c 1C000000 		.4byte	.LFE16-.LFB16
 2695 0060 00000000 		.4byte	0
 2696 0064 00000000 		.4byte	0
 2697              		.section	.debug_ranges,"",%progbits
 2698              	.Ldebug_ranges0:
 2699 0000 1A000000 		.4byte	.LBB10
 2700 0004 24000000 		.4byte	.LBE10
 2701 0008 46000000 		.4byte	.LBB13
 2702 000c 52000000 		.4byte	.LBE13
 2703 0010 00000000 		.4byte	0
 2704 0014 00000000 		.4byte	0
 2705 0018 0E000000 		.4byte	.LBB14
 2706 001c 10000000 		.4byte	.LBE14
 2707 0020 12000000 		.4byte	.LBB18
 2708 0024 14000000 		.4byte	.LBE18
 2709 0028 16000000 		.4byte	.LBB19
 2710 002c 1A000000 		.4byte	.LBE19
 2711 0030 00000000 		.4byte	0
 2712 0034 00000000 		.4byte	0
 2713 0038 04000000 		.4byte	.LBB22
 2714 003c 06000000 		.4byte	.LBE22
 2715 0040 08000000 		.4byte	.LBB26
 2716 0044 0A000000 		.4byte	.LBE26
 2717 0048 0C000000 		.4byte	.LBB27
 2718 004c 10000000 		.4byte	.LBE27
 2719 0050 00000000 		.4byte	0
 2720 0054 00000000 		.4byte	0
 2721 0058 04000000 		.4byte	.LBB28
 2722 005c 06000000 		.4byte	.LBE28
 2723 0060 08000000 		.4byte	.LBB31
 2724 0064 0E000000 		.4byte	.LBE31
 2725 0068 00000000 		.4byte	0
 2726 006c 00000000 		.4byte	0
ARM GAS  /var/folders/qh/xwg3v3kj02qbxczjpdb8lzfr0000gn/T//ccEcPMDY.s 			page 49


 2727 0070 00000000 		.4byte	.LFB7
 2728 0074 14000000 		.4byte	.LFE7
 2729 0078 00000000 		.4byte	.LFB8
 2730 007c 2C000000 		.4byte	.LFE8
 2731 0080 00000000 		.4byte	.LFB10
 2732 0084 52000000 		.4byte	.LFE10
 2733 0088 00000000 		.4byte	.LFB9
 2734 008c 2C000000 		.4byte	.LFE9
 2735 0090 00000000 		.4byte	.LFB11
 2736 0094 4C000000 		.4byte	.LFE11
 2737 0098 00000000 		.4byte	.LFB12
 2738 009c 38000000 		.4byte	.LFE12
 2739 00a0 00000000 		.4byte	.LFB14
 2740 00a4 2C000000 		.4byte	.LFE14
 2741 00a8 00000000 		.4byte	.LFB15
 2742 00ac 3C000000 		.4byte	.LFE15
 2743 00b0 00000000 		.4byte	.LFB13
 2744 00b4 20000000 		.4byte	.LFE13
 2745 00b8 00000000 		.4byte	.LFB16
 2746 00bc 1C000000 		.4byte	.LFE16
 2747 00c0 00000000 		.4byte	0
 2748 00c4 00000000 		.4byte	0
 2749              		.section	.debug_line,"",%progbits
 2750              	.Ldebug_line0:
 2751 0000 B7020000 		.section	.debug_str,"MS",%progbits,1
 2751      02003701 
 2751      00000201 
 2751      FB0E0D00 
 2751      01010101 
 2752              	.LASF37:
 2753 0000 705F6D73 		.ascii	"p_msg\000"
 2753      6700
 2754              	.LASF69:
 2755 0006 7264796D 		.ascii	"rdymsg\000"
 2755      736700
 2756              	.LASF83:
 2757 000d 63685363 		.ascii	"chSchDoRescheduleAhead\000"
 2757      68446F52 
 2757      65736368 
 2757      6564756C 
 2757      65416865 
 2758              	.LASF11:
 2759 0024 6C6F6E67 		.ascii	"long long unsigned int\000"
 2759      206C6F6E 
 2759      6720756E 
 2759      7369676E 
 2759      65642069 
 2760              	.LASF70:
 2761 003b 65786974 		.ascii	"exitcode\000"
 2761      636F6465 
 2761      00
 2762              	.LASF25:
 2763 0044 705F7072 		.ascii	"p_prio\000"
 2763      696F00
 2764              	.LASF95:
 2765 004b 5F736368 		.ascii	"_scheduler_init\000"
 2765      6564756C 
ARM GAS  /var/folders/qh/xwg3v3kj02qbxczjpdb8lzfr0000gn/T//ccEcPMDY.s 			page 50


 2765      65725F69 
 2765      6E697400 
 2766              	.LASF10:
 2767 005b 6C6F6E67 		.ascii	"long long int\000"
 2767      206C6F6E 
 2767      6720696E 
 2767      7400
 2768              	.LASF1:
 2769 0069 7369676E 		.ascii	"signed char\000"
 2769      65642063 
 2769      68617200 
 2770              	.LASF88:
 2771 0075 6462675F 		.ascii	"dbg_check_unlock_from_isr\000"
 2771      63686563 
 2771      6B5F756E 
 2771      6C6F636B 
 2771      5F66726F 
 2772              	.LASF41:
 2773 008f 705F6D70 		.ascii	"p_mpool\000"
 2773      6F6F6C00 
 2774              	.LASF66:
 2775 0097 6D5F7175 		.ascii	"m_queue\000"
 2775      65756500 
 2776              	.LASF16:
 2777 009f 74736C69 		.ascii	"tslices_t\000"
 2777      6365735F 
 2777      7400
 2778              	.LASF7:
 2779 00a9 6C6F6E67 		.ascii	"long int\000"
 2779      20696E74 
 2779      00
 2780              	.LASF14:
 2781 00b2 74737461 		.ascii	"tstate_t\000"
 2781      74655F74 
 2781      00
 2782              	.LASF27:
 2783 00bb 705F6E65 		.ascii	"p_newer\000"
 2783      77657200 
 2784              	.LASF63:
 2785 00c3 735F7175 		.ascii	"s_queue\000"
 2785      65756500 
 2786              	.LASF84:
 2787 00cb 63685363 		.ascii	"chSchRescheduleS\000"
 2787      68526573 
 2787      63686564 
 2787      756C6553 
 2787      00
 2788              	.LASF58:
 2789 00dc 725F6E65 		.ascii	"r_newer\000"
 2789      77657200 
 2790              	.LASF44:
 2791 00e4 72656761 		.ascii	"regarm_t\000"
 2791      726D5F74 
 2791      00
 2792              	.LASF51:
 2793 00ed 76745F70 		.ascii	"vt_prev\000"
 2793      72657600 
ARM GAS  /var/folders/qh/xwg3v3kj02qbxczjpdb8lzfr0000gn/T//ccEcPMDY.s 			page 51


 2794              	.LASF85:
 2795 00f5 63685363 		.ascii	"chSchDoReschedule\000"
 2795      68446F52 
 2795      65736368 
 2795      6564756C 
 2795      6500
 2796              	.LASF21:
 2797 0107 636E745F 		.ascii	"cnt_t\000"
 2797      7400
 2798              	.LASF0:
 2799 010d 756E7369 		.ascii	"unsigned int\000"
 2799      676E6564 
 2799      20696E74 
 2799      00
 2800              	.LASF96:
 2801 011a 77616B65 		.ascii	"wakeup\000"
 2801      757000
 2802              	.LASF50:
 2803 0121 76745F6E 		.ascii	"vt_next\000"
 2803      65787400 
 2804              	.LASF90:
 2805 0129 5F706F72 		.ascii	"_port_switch\000"
 2805      745F7377 
 2805      69746368 
 2805      00
 2806              	.LASF9:
 2807 0136 6C6F6E67 		.ascii	"long unsigned int\000"
 2807      20756E73 
 2807      69676E65 
 2807      6420696E 
 2807      7400
 2808              	.LASF94:
 2809 0148 2F557365 		.ascii	"/Users/John/Development/embedded/ChibiOS-RT/BluC/ST"
 2809      72732F4A 
 2809      6F686E2F 
 2809      44657665 
 2809      6C6F706D 
 2810 017b 4D333246 		.ascii	"M32F051\000"
 2810      30353100 
 2811              	.LASF64:
 2812 0183 735F636E 		.ascii	"s_cnt\000"
 2812      7400
 2813              	.LASF46:
 2814 0189 636F6E74 		.ascii	"context\000"
 2814      65787400 
 2815              	.LASF4:
 2816 0191 73686F72 		.ascii	"short unsigned int\000"
 2816      7420756E 
 2816      7369676E 
 2816      65642069 
 2816      6E7400
 2817              	.LASF81:
 2818 01a4 63685363 		.ascii	"chSchWakeupS\000"
 2818      6857616B 
 2818      65757053 
 2818      00
 2819              	.LASF18:
ARM GAS  /var/folders/qh/xwg3v3kj02qbxczjpdb8lzfr0000gn/T//ccEcPMDY.s 			page 52


 2820 01b1 6D73675F 		.ascii	"msg_t\000"
 2820      7400
 2821              	.LASF86:
 2822 01b7 63684462 		.ascii	"chDbgCheckClassI\000"
 2822      67436865 
 2822      636B436C 
 2822      61737349 
 2822      00
 2823              	.LASF13:
 2824 01c8 746D6F64 		.ascii	"tmode_t\000"
 2824      655F7400 
 2825              	.LASF89:
 2826 01d0 63684462 		.ascii	"chDbgCheckClassS\000"
 2826      67436865 
 2826      636B436C 
 2826      61737353 
 2826      00
 2827              	.LASF43:
 2828 01e1 54687265 		.ascii	"ThreadsList\000"
 2828      6164734C 
 2828      69737400 
 2829              	.LASF19:
 2830 01ed 6576656E 		.ascii	"eventmask_t\000"
 2830      746D6173 
 2830      6B5F7400 
 2831              	.LASF65:
 2832 01f9 4D757465 		.ascii	"Mutex\000"
 2832      7800
 2833              	.LASF52:
 2834 01ff 76745F74 		.ascii	"vt_time\000"
 2834      696D6500 
 2835              	.LASF47:
 2836 0207 73697A65 		.ascii	"sizetype\000"
 2836      74797065 
 2836      00
 2837              	.LASF53:
 2838 0210 76745F66 		.ascii	"vt_func\000"
 2838      756E6300 
 2839              	.LASF92:
 2840 0218 474E5520 		.ascii	"GNU C 4.8.3 20131129 (release) [ARM/embedded-4_8-br"
 2840      4320342E 
 2840      382E3320 
 2840      32303133 
 2840      31313239 
 2841 024b 616E6368 		.ascii	"anch revision 205641] -mcpu=cortex-m0 -mno-thumb-in"
 2841      20726576 
 2841      6973696F 
 2841      6E203230 
 2841      35363431 
 2842 027e 74657277 		.ascii	"terwork -mthumb -ggdb -O2 -fomit-frame-pointer -fal"
 2842      6F726B20 
 2842      2D6D7468 
 2842      756D6220 
 2842      2D676764 
 2843 02b1 69676E2D 		.ascii	"ign-functions=16 -ffunction-sections -fdata-section"
 2843      66756E63 
 2843      74696F6E 
ARM GAS  /var/folders/qh/xwg3v3kj02qbxczjpdb8lzfr0000gn/T//ccEcPMDY.s 			page 53


 2843      733D3136 
 2843      202D6666 
 2844 02e4 73202D66 		.ascii	"s -fno-common\000"
 2844      6E6F2D63 
 2844      6F6D6D6F 
 2844      6E00
 2845              	.LASF82:
 2846 02f2 63685363 		.ascii	"chSchDoRescheduleBehind\000"
 2846      68446F52 
 2846      65736368 
 2846      6564756C 
 2846      65426568 
 2847              	.LASF91:
 2848 030a 63685654 		.ascii	"chVTSetI\000"
 2848      53657449 
 2848      00
 2849              	.LASF28:
 2850 0313 705F6F6C 		.ascii	"p_older\000"
 2850      64657200 
 2851              	.LASF57:
 2852 031b 725F6374 		.ascii	"r_ctx\000"
 2852      7800
 2853              	.LASF42:
 2854 0321 54687265 		.ascii	"ThreadsQueue\000"
 2854      61647351 
 2854      75657565 
 2854      00
 2855              	.LASF74:
 2856 032e 64657175 		.ascii	"dequeue\000"
 2856      65756500 
 2857              	.LASF60:
 2858 0336 725F6375 		.ascii	"r_current\000"
 2858      7272656E 
 2858      7400
 2859              	.LASF59:
 2860 0340 725F6F6C 		.ascii	"r_older\000"
 2860      64657200 
 2861              	.LASF15:
 2862 0348 74726566 		.ascii	"trefs_t\000"
 2862      735F7400 
 2863              	.LASF24:
 2864 0350 705F7072 		.ascii	"p_prev\000"
 2864      657600
 2865              	.LASF17:
 2866 0357 74707269 		.ascii	"tprio_t\000"
 2866      6F5F7400 
 2867              	.LASF12:
 2868 035f 5F426F6F 		.ascii	"_Bool\000"
 2868      6C00
 2869              	.LASF6:
 2870 0365 696E7433 		.ascii	"int32_t\000"
 2870      325F7400 
 2871              	.LASF2:
 2872 036d 756E7369 		.ascii	"unsigned char\000"
 2872      676E6564 
 2872      20636861 
 2872      7200
ARM GAS  /var/folders/qh/xwg3v3kj02qbxczjpdb8lzfr0000gn/T//ccEcPMDY.s 			page 54


 2873              	.LASF76:
 2874 037b 6E657773 		.ascii	"newstate\000"
 2874      74617465 
 2874      00
 2875              	.LASF39:
 2876 0384 705F6D74 		.ascii	"p_mtxlist\000"
 2876      786C6973 
 2876      7400
 2877              	.LASF3:
 2878 038e 73686F72 		.ascii	"short int\000"
 2878      7420696E 
 2878      7400
 2879              	.LASF30:
 2880 0398 705F7374 		.ascii	"p_state\000"
 2880      61746500 
 2881              	.LASF33:
 2882 03a0 705F7072 		.ascii	"p_preempt\000"
 2882      65656D70 
 2882      7400
 2883              	.LASF56:
 2884 03aa 725F7072 		.ascii	"r_prio\000"
 2884      696F00
 2885              	.LASF72:
 2886 03b1 65776D61 		.ascii	"ewmask\000"
 2886      736B00
 2887              	.LASF23:
 2888 03b8 705F6E65 		.ascii	"p_next\000"
 2888      787400
 2889              	.LASF31:
 2890 03bf 705F666C 		.ascii	"p_flags\000"
 2890      61677300 
 2891              	.LASF22:
 2892 03c7 54687265 		.ascii	"Thread\000"
 2892      616400
 2893              	.LASF98:
 2894 03ce 63685654 		.ascii	"chVTResetI\000"
 2894      52657365 
 2894      744900
 2895              	.LASF80:
 2896 03d9 63685363 		.ascii	"chSchGoSleepS\000"
 2896      68476F53 
 2896      6C656570 
 2896      5300
 2897              	.LASF38:
 2898 03e7 705F6570 		.ascii	"p_epending\000"
 2898      656E6469 
 2898      6E6700
 2899              	.LASF8:
 2900 03f2 75696E74 		.ascii	"uint32_t\000"
 2900      33325F74 
 2900      00
 2901              	.LASF55:
 2902 03fb 725F7175 		.ascii	"r_queue\000"
 2902      65756500 
 2903              	.LASF49:
 2904 0403 56697274 		.ascii	"VirtualTimer\000"
 2904      75616C54 
ARM GAS  /var/folders/qh/xwg3v3kj02qbxczjpdb8lzfr0000gn/T//ccEcPMDY.s 			page 55


 2904      696D6572 
 2904      00
 2905              	.LASF73:
 2906 0410 63686172 		.ascii	"char\000"
 2906      00
 2907              	.LASF75:
 2908 0415 6669666F 		.ascii	"fifo_remove\000"
 2908      5F72656D 
 2908      6F766500 
 2909              	.LASF77:
 2910 0421 63685363 		.ascii	"chSchReadyI\000"
 2910      68526561 
 2910      64794900 
 2911              	.LASF68:
 2912 042d 6D5F6E65 		.ascii	"m_next\000"
 2912      787400
 2913              	.LASF20:
 2914 0434 73797374 		.ascii	"systime_t\000"
 2914      696D655F 
 2914      7400
 2915              	.LASF40:
 2916 043e 705F7265 		.ascii	"p_realprio\000"
 2916      616C7072 
 2916      696F00
 2917              	.LASF48:
 2918 0449 76746675 		.ascii	"vtfunc_t\000"
 2918      6E635F74 
 2918      00
 2919              	.LASF34:
 2920 0452 705F7469 		.ascii	"p_time\000"
 2920      6D6500
 2921              	.LASF45:
 2922 0459 696E7463 		.ascii	"intctx\000"
 2922      747800
 2923              	.LASF36:
 2924 0460 705F6D73 		.ascii	"p_msgqueue\000"
 2924      67717565 
 2924      756500
 2925              	.LASF79:
 2926 046b 74696D65 		.ascii	"time\000"
 2926      00
 2927              	.LASF54:
 2928 0470 76745F70 		.ascii	"vt_par\000"
 2928      617200
 2929              	.LASF62:
 2930 0477 53656D61 		.ascii	"Semaphore\000"
 2930      70686F72 
 2930      6500
 2931              	.LASF32:
 2932 0481 705F7265 		.ascii	"p_refs\000"
 2932      667300
 2933              	.LASF61:
 2934 0488 52656164 		.ascii	"ReadyList\000"
 2934      794C6973 
 2934      7400
 2935              	.LASF93:
 2936 0492 2E2E2F2E 		.ascii	"../../os/kernel/src/chschd.c\000"
ARM GAS  /var/folders/qh/xwg3v3kj02qbxczjpdb8lzfr0000gn/T//ccEcPMDY.s 			page 56


 2936      2E2F6F73 
 2936      2F6B6572 
 2936      6E656C2F 
 2936      7372632F 
 2937              	.LASF97:
 2938 04af 726C6973 		.ascii	"rlist\000"
 2938      7400
 2939              	.LASF5:
 2940 04b5 75696E74 		.ascii	"uint8_t\000"
 2940      385F7400 
 2941              	.LASF87:
 2942 04bd 6462675F 		.ascii	"dbg_check_lock_from_isr\000"
 2942      63686563 
 2942      6B5F6C6F 
 2942      636B5F66 
 2942      726F6D5F 
 2943              	.LASF71:
 2944 04d5 77746F62 		.ascii	"wtobjp\000"
 2944      6A7000
 2945              	.LASF29:
 2946 04dc 705F6E61 		.ascii	"p_name\000"
 2946      6D6500
 2947              	.LASF78:
 2948 04e3 63685363 		.ascii	"chSchGoSleepTimeoutS\000"
 2948      68476F53 
 2948      6C656570 
 2948      54696D65 
 2948      6F757453 
 2949              	.LASF67:
 2950 04f8 6D5F6F77 		.ascii	"m_owner\000"
 2950      6E657200 
 2951              	.LASF26:
 2952 0500 705F6374 		.ascii	"p_ctx\000"
 2952      7800
 2953              	.LASF35:
 2954 0506 705F7761 		.ascii	"p_waiting\000"
 2954      6974696E 
 2954      6700
 2955              		.ident	"GCC: (GNU Tools for ARM Embedded Processors) 4.8.3 20131129 (release) [ARM/embedded-4_8-br
ARM GAS  /var/folders/qh/xwg3v3kj02qbxczjpdb8lzfr0000gn/T//ccEcPMDY.s 			page 57


DEFINED SYMBOLS
                            *ABS*:0000000000000000 chschd.c
/var/folders/qh/xwg3v3kj02qbxczjpdb8lzfr0000gn/T//ccEcPMDY.s:18     .text._scheduler_init:0000000000000000 $t
/var/folders/qh/xwg3v3kj02qbxczjpdb8lzfr0000gn/T//ccEcPMDY.s:24     .text._scheduler_init:0000000000000000 _scheduler_init
/var/folders/qh/xwg3v3kj02qbxczjpdb8lzfr0000gn/T//ccEcPMDY.s:47     .text._scheduler_init:0000000000000010 $d
/var/folders/qh/xwg3v3kj02qbxczjpdb8lzfr0000gn/T//ccEcPMDY.s:52     .text.chSchReadyI:0000000000000000 $t
/var/folders/qh/xwg3v3kj02qbxczjpdb8lzfr0000gn/T//ccEcPMDY.s:58     .text.chSchReadyI:0000000000000000 chSchReadyI
/var/folders/qh/xwg3v3kj02qbxczjpdb8lzfr0000gn/T//ccEcPMDY.s:106    .text.chSchReadyI:0000000000000028 $d
/var/folders/qh/xwg3v3kj02qbxczjpdb8lzfr0000gn/T//ccEcPMDY.s:111    .text.wakeup:0000000000000000 $t
/var/folders/qh/xwg3v3kj02qbxczjpdb8lzfr0000gn/T//ccEcPMDY.s:116    .text.wakeup:0000000000000000 wakeup
/var/folders/qh/xwg3v3kj02qbxczjpdb8lzfr0000gn/T//ccEcPMDY.s:209    .text.chSchGoSleepS:0000000000000000 $t
/var/folders/qh/xwg3v3kj02qbxczjpdb8lzfr0000gn/T//ccEcPMDY.s:215    .text.chSchGoSleepS:0000000000000000 chSchGoSleepS
/var/folders/qh/xwg3v3kj02qbxczjpdb8lzfr0000gn/T//ccEcPMDY.s:274    .text.chSchGoSleepS:0000000000000028 $d
/var/folders/qh/xwg3v3kj02qbxczjpdb8lzfr0000gn/T//ccEcPMDY.s:279    .text.chSchGoSleepTimeoutS:0000000000000000 $t
/var/folders/qh/xwg3v3kj02qbxczjpdb8lzfr0000gn/T//ccEcPMDY.s:285    .text.chSchGoSleepTimeoutS:0000000000000000 chSchGoSleepTimeoutS
/var/folders/qh/xwg3v3kj02qbxczjpdb8lzfr0000gn/T//ccEcPMDY.s:349    .text.chSchGoSleepTimeoutS:0000000000000044 $d
/var/folders/qh/xwg3v3kj02qbxczjpdb8lzfr0000gn/T//ccEcPMDY.s:355    .text.chSchWakeupS:0000000000000000 $t
/var/folders/qh/xwg3v3kj02qbxczjpdb8lzfr0000gn/T//ccEcPMDY.s:361    .text.chSchWakeupS:0000000000000000 chSchWakeupS
/var/folders/qh/xwg3v3kj02qbxczjpdb8lzfr0000gn/T//ccEcPMDY.s:423    .text.chSchWakeupS:0000000000000034 $d
/var/folders/qh/xwg3v3kj02qbxczjpdb8lzfr0000gn/T//ccEcPMDY.s:428    .text.chSchDoRescheduleBehind:0000000000000000 $t
/var/folders/qh/xwg3v3kj02qbxczjpdb8lzfr0000gn/T//ccEcPMDY.s:434    .text.chSchDoRescheduleBehind:0000000000000000 chSchDoRescheduleBehind
/var/folders/qh/xwg3v3kj02qbxczjpdb8lzfr0000gn/T//ccEcPMDY.s:495    .text.chSchDoRescheduleBehind:0000000000000028 $d
/var/folders/qh/xwg3v3kj02qbxczjpdb8lzfr0000gn/T//ccEcPMDY.s:500    .text.chSchDoRescheduleAhead:0000000000000000 $t
/var/folders/qh/xwg3v3kj02qbxczjpdb8lzfr0000gn/T//ccEcPMDY.s:506    .text.chSchDoRescheduleAhead:0000000000000000 chSchDoRescheduleAhead
/var/folders/qh/xwg3v3kj02qbxczjpdb8lzfr0000gn/T//ccEcPMDY.s:573    .text.chSchDoRescheduleAhead:0000000000000038 $d
/var/folders/qh/xwg3v3kj02qbxczjpdb8lzfr0000gn/T//ccEcPMDY.s:578    .text.chSchRescheduleS:0000000000000000 $t
/var/folders/qh/xwg3v3kj02qbxczjpdb8lzfr0000gn/T//ccEcPMDY.s:584    .text.chSchRescheduleS:0000000000000000 chSchRescheduleS
/var/folders/qh/xwg3v3kj02qbxczjpdb8lzfr0000gn/T//ccEcPMDY.s:613    .text.chSchRescheduleS:000000000000001c $d
/var/folders/qh/xwg3v3kj02qbxczjpdb8lzfr0000gn/T//ccEcPMDY.s:618    .text.chSchDoReschedule:0000000000000000 $t
/var/folders/qh/xwg3v3kj02qbxczjpdb8lzfr0000gn/T//ccEcPMDY.s:624    .text.chSchDoReschedule:0000000000000000 chSchDoReschedule
/var/folders/qh/xwg3v3kj02qbxczjpdb8lzfr0000gn/T//ccEcPMDY.s:653    .text.chSchDoReschedule:0000000000000018 $d
/var/folders/qh/xwg3v3kj02qbxczjpdb8lzfr0000gn/T//ccEcPMDY.s:663    .bss.rlist:0000000000000000 rlist
/var/folders/qh/xwg3v3kj02qbxczjpdb8lzfr0000gn/T//ccEcPMDY.s:659    .bss.rlist:0000000000000000 $d
                     .debug_frame:0000000000000010 $d
/var/folders/qh/xwg3v3kj02qbxczjpdb8lzfr0000gn/T//ccEcPMDY.s:51     .text._scheduler_init:0000000000000014 $t
/var/folders/qh/xwg3v3kj02qbxczjpdb8lzfr0000gn/T//ccEcPMDY.s:110    .text.chSchReadyI:000000000000002c $t
/var/folders/qh/xwg3v3kj02qbxczjpdb8lzfr0000gn/T//ccEcPMDY.s:278    .text.chSchGoSleepS:000000000000002c $t
/var/folders/qh/xwg3v3kj02qbxczjpdb8lzfr0000gn/T//ccEcPMDY.s:354    .text.chSchGoSleepTimeoutS:000000000000004c $t
/var/folders/qh/xwg3v3kj02qbxczjpdb8lzfr0000gn/T//ccEcPMDY.s:427    .text.chSchWakeupS:0000000000000038 $t
/var/folders/qh/xwg3v3kj02qbxczjpdb8lzfr0000gn/T//ccEcPMDY.s:499    .text.chSchDoRescheduleBehind:000000000000002c $t
/var/folders/qh/xwg3v3kj02qbxczjpdb8lzfr0000gn/T//ccEcPMDY.s:577    .text.chSchDoRescheduleAhead:000000000000003c $t
/var/folders/qh/xwg3v3kj02qbxczjpdb8lzfr0000gn/T//ccEcPMDY.s:658    .text.chSchDoReschedule:000000000000001c $t

UNDEFINED SYMBOLS
chDbgCheckClassI
dbg_check_lock_from_isr
dbg_check_unlock_from_isr
chDbgCheckClassS
_port_switch
chVTSetI
chVTResetI
