ARM GAS  /var/folders/qh/xwg3v3kj02qbxczjpdb8lzfr0000gn/T//cc1yMur7.s 			page 1


   1              		.cpu cortex-m0
   2              		.fpu softvfp
   3              		.eabi_attribute 20, 1
   4              		.eabi_attribute 21, 1
   5              		.eabi_attribute 23, 3
   6              		.eabi_attribute 24, 1
   7              		.eabi_attribute 25, 1
   8              		.eabi_attribute 26, 1
   9              		.eabi_attribute 30, 2
  10              		.eabi_attribute 34, 0
  11              		.eabi_attribute 18, 4
  12              		.code	16
  13              		.file	"chsem.c"
  14              		.text
  15              	.Ltext0:
  16              		.cfi_sections	.debug_frame
  17              		.section	.text.chSemInit,"ax",%progbits
  18              		.align	2
  19              		.p2align 4,,15
  20              		.global	chSemInit
  21              		.code	16
  22              		.thumb_func
  23              		.type	chSemInit, %function
  24              	chSemInit:
  25              	.LFB7:
  26              		.file 1 "../../os/kernel/src/chsem.c"
  27              		.loc 1 79 0
  28              		.cfi_startproc
  29              	.LVL0:
  30              		.loc 1 83 0
  31 0000 4060     		str	r0, [r0, #4]
  32 0002 0060     		str	r0, [r0]
  33              		.loc 1 84 0
  34 0004 8160     		str	r1, [r0, #8]
  35              		.loc 1 85 0
  36              		@ sp needed
  37 0006 7047     		bx	lr
  38              		.cfi_endproc
  39              	.LFE7:
  40              		.size	chSemInit, .-chSemInit
  41 0008 C046C046 		.section	.text.chSemResetI,"ax",%progbits
  41      C046C046 
  42              		.align	2
  43              		.p2align 4,,15
  44              		.global	chSemResetI
  45              		.code	16
  46              		.thumb_func
  47              		.type	chSemResetI, %function
  48              	chSemResetI:
  49              	.LFB9:
  50              		.loc 1 129 0
  51              		.cfi_startproc
  52              	.LVL1:
  53 0000 70B5     		push	{r4, r5, r6, lr}
  54              		.cfi_def_cfa_offset 16
  55              		.cfi_offset 4, -16
  56              		.cfi_offset 5, -12
ARM GAS  /var/folders/qh/xwg3v3kj02qbxczjpdb8lzfr0000gn/T//cc1yMur7.s 			page 2


  57              		.cfi_offset 6, -8
  58              		.cfi_offset 14, -4
  59              		.loc 1 129 0
  60 0002 041C     		mov	r4, r0
  61 0004 0E1C     		mov	r6, r1
  62              		.loc 1 132 0
  63 0006 FFF7FEFF 		bl	chDbgCheckClassI
  64              	.LVL2:
  65              		.loc 1 134 0
  66 000a A568     		ldr	r5, [r4, #8]
  67              	.LVL3:
  68              		.loc 1 140 0
  69 000c A660     		str	r6, [r4, #8]
  70              		.loc 1 141 0
  71 000e 0135     		add	r5, r5, #1
  72              	.LVL4:
  73 0010 002D     		cmp	r5, #0
  74 0012 0BDC     		bgt	.L2
  75              		.loc 1 142 0
  76 0014 0226     		mov	r6, #2
  77              	.LVL5:
  78 0016 7642     		neg	r6, r6
  79              	.LVL6:
  80              	.L9:
  81              	.LBB20:
  82              	.LBB21:
  83              		.file 2 "../../os/kernel/include/chinline.h"
  84              		.loc 2 60 0
  85 0018 6068     		ldr	r0, [r4, #4]
  86              	.LVL7:
  87              	.LBE21:
  88              	.LBE20:
  89              		.loc 1 141 0
  90 001a 0135     		add	r5, r5, #1
  91              	.LVL8:
  92              	.LBB23:
  93              	.LBB22:
  94              		.loc 2 62 0
  95 001c 4368     		ldr	r3, [r0, #4]
  96 001e 6360     		str	r3, [r4, #4]
  97 0020 1C60     		str	r4, [r3]
  98              	.LBE22:
  99              	.LBE23:
 100              		.loc 1 142 0
 101 0022 FFF7FEFF 		bl	chSchReadyI
 102              	.LVL9:
 103 0026 4662     		str	r6, [r0, #36]
 104              	.LVL10:
 105              		.loc 1 141 0
 106 0028 012D     		cmp	r5, #1
 107 002a F5D1     		bne	.L9
 108              	.LVL11:
 109              	.L2:
 110              		.loc 1 143 0
 111              		@ sp needed
 112              	.LVL12:
 113              	.LVL13:
ARM GAS  /var/folders/qh/xwg3v3kj02qbxczjpdb8lzfr0000gn/T//cc1yMur7.s 			page 3


 114 002c 70BD     		pop	{r4, r5, r6, pc}
 115              		.cfi_endproc
 116              	.LFE9:
 117              		.size	chSemResetI, .-chSemResetI
 118 002e C046     		.section	.text.chSemReset,"ax",%progbits
 119              		.align	2
 120              		.p2align 4,,15
 121              		.global	chSemReset
 122              		.code	16
 123              		.thumb_func
 124              		.type	chSemReset, %function
 125              	chSemReset:
 126              	.LFB8:
 127              		.loc 1 102 0
 128              		.cfi_startproc
 129              	.LVL14:
 130 0000 38B5     		push	{r3, r4, r5, lr}
 131              		.cfi_def_cfa_offset 16
 132              		.cfi_offset 3, -16
 133              		.cfi_offset 4, -12
 134              		.cfi_offset 5, -8
 135              		.cfi_offset 14, -4
 136              		.loc 1 102 0
 137 0002 051C     		mov	r5, r0
 138 0004 0C1C     		mov	r4, r1
 139              		.loc 1 104 0
 140              	@ 104 "../../os/kernel/src/chsem.c" 1
 141 0006 72B6     		cpsid   i
 142              	@ 0 "" 2
 143              		.code	16
 144 0008 FFF7FEFF 		bl	dbg_check_lock
 145              	.LVL15:
 146              		.loc 1 105 0
 147 000c 281C     		mov	r0, r5
 148 000e 211C     		mov	r1, r4
 149 0010 FFF7FEFF 		bl	chSemResetI
 150              	.LVL16:
 151              		.loc 1 106 0
 152 0014 FFF7FEFF 		bl	chSchRescheduleS
 153              	.LVL17:
 154              		.loc 1 107 0
 155 0018 FFF7FEFF 		bl	dbg_check_unlock
 156              	.LVL18:
 157              	@ 107 "../../os/kernel/src/chsem.c" 1
 158 001c 62B6     		cpsie   i
 159              	@ 0 "" 2
 160              		.loc 1 108 0
 161              		.code	16
 162              		@ sp needed
 163              	.LVL19:
 164              	.LVL20:
 165 001e 38BD     		pop	{r3, r4, r5, pc}
 166              		.cfi_endproc
 167              	.LFE8:
 168              		.size	chSemReset, .-chSemReset
 169              		.section	.text.chSemWaitS,"ax",%progbits
 170              		.align	2
ARM GAS  /var/folders/qh/xwg3v3kj02qbxczjpdb8lzfr0000gn/T//cc1yMur7.s 			page 4


 171              		.p2align 4,,15
 172              		.global	chSemWaitS
 173              		.code	16
 174              		.thumb_func
 175              		.type	chSemWaitS, %function
 176              	chSemWaitS:
 177              	.LFB11:
 178              		.loc 1 178 0
 179              		.cfi_startproc
 180              	.LVL21:
 181 0000 38B5     		push	{r3, r4, r5, lr}
 182              		.cfi_def_cfa_offset 16
 183              		.cfi_offset 3, -16
 184              		.cfi_offset 4, -12
 185              		.cfi_offset 5, -8
 186              		.cfi_offset 14, -4
 187              		.loc 1 178 0
 188 0002 041C     		mov	r4, r0
 189              		.loc 1 180 0
 190 0004 FFF7FEFF 		bl	chDbgCheckClassS
 191              	.LVL22:
 192              		.loc 1 187 0
 193 0008 A368     		ldr	r3, [r4, #8]
 194              		.loc 1 193 0
 195 000a 0020     		mov	r0, #0
 196              		.loc 1 187 0
 197 000c 013B     		sub	r3, r3, #1
 198 000e A360     		str	r3, [r4, #8]
 199 0010 002B     		cmp	r3, #0
 200 0012 00DB     		blt	.L15
 201              	.L13:
 202              		.loc 1 194 0
 203              		@ sp needed
 204              	.LVL23:
 205 0014 38BD     		pop	{r3, r4, r5, pc}
 206              	.LVL24:
 207              	.L15:
 208              		.loc 1 188 0
 209 0016 074D     		ldr	r5, .L16
 210              		.loc 1 190 0
 211 0018 0320     		mov	r0, #3
 212              		.loc 1 188 0
 213 001a AB69     		ldr	r3, [r5, #24]
 214 001c 5C62     		str	r4, [r3, #36]
 215              	.LVL25:
 216              	.LBB24:
 217              	.LBB25:
 218              		.loc 2 48 0
 219 001e 6268     		ldr	r2, [r4, #4]
 220              		.loc 2 47 0
 221 0020 1C60     		str	r4, [r3]
 222              		.loc 2 48 0
 223 0022 5A60     		str	r2, [r3, #4]
 224              		.loc 2 49 0
 225 0024 6360     		str	r3, [r4, #4]
 226              	.LVL26:
 227 0026 1360     		str	r3, [r2]
ARM GAS  /var/folders/qh/xwg3v3kj02qbxczjpdb8lzfr0000gn/T//cc1yMur7.s 			page 5


 228              	.LVL27:
 229              	.LBE25:
 230              	.LBE24:
 231              		.loc 1 190 0
 232 0028 FFF7FEFF 		bl	chSchGoSleepS
 233              	.LVL28:
 234              		.loc 1 191 0
 235 002c AB69     		ldr	r3, [r5, #24]
 236 002e 586A     		ldr	r0, [r3, #36]
 237 0030 F0E7     		b	.L13
 238              	.L17:
 239 0032 C046     		.align	2
 240              	.L16:
 241 0034 00000000 		.word	rlist
 242              		.cfi_endproc
 243              	.LFE11:
 244              		.size	chSemWaitS, .-chSemWaitS
 245 0038 C046C046 		.section	.text.chSemWait,"ax",%progbits
 245      C046C046 
 246              		.align	2
 247              		.p2align 4,,15
 248              		.global	chSemWait
 249              		.code	16
 250              		.thumb_func
 251              		.type	chSemWait, %function
 252              	chSemWait:
 253              	.LFB10:
 254              		.loc 1 157 0
 255              		.cfi_startproc
 256              	.LVL29:
 257 0000 10B5     		push	{r4, lr}
 258              		.cfi_def_cfa_offset 8
 259              		.cfi_offset 4, -8
 260              		.cfi_offset 14, -4
 261              		.loc 1 157 0
 262 0002 041C     		mov	r4, r0
 263              		.loc 1 160 0
 264              	@ 160 "../../os/kernel/src/chsem.c" 1
 265 0004 72B6     		cpsid   i
 266              	@ 0 "" 2
 267              		.code	16
 268 0006 FFF7FEFF 		bl	dbg_check_lock
 269              	.LVL30:
 270              		.loc 1 161 0
 271 000a 201C     		mov	r0, r4
 272 000c FFF7FEFF 		bl	chSemWaitS
 273              	.LVL31:
 274 0010 041C     		mov	r4, r0
 275              	.LVL32:
 276              		.loc 1 162 0
 277 0012 FFF7FEFF 		bl	dbg_check_unlock
 278              	.LVL33:
 279              	@ 162 "../../os/kernel/src/chsem.c" 1
 280 0016 62B6     		cpsie   i
 281              	@ 0 "" 2
 282              		.loc 1 164 0
 283              		.code	16
ARM GAS  /var/folders/qh/xwg3v3kj02qbxczjpdb8lzfr0000gn/T//cc1yMur7.s 			page 6


 284 0018 201C     		mov	r0, r4
 285              		@ sp needed
 286              	.LVL34:
 287 001a 10BD     		pop	{r4, pc}
 288              		.cfi_endproc
 289              	.LFE10:
 290              		.size	chSemWait, .-chSemWait
 291 001c C046C046 		.section	.text.chSemWaitTimeoutS,"ax",%progbits
 292              		.align	2
 293              		.p2align 4,,15
 294              		.global	chSemWaitTimeoutS
 295              		.code	16
 296              		.thumb_func
 297              		.type	chSemWaitTimeoutS, %function
 298              	chSemWaitTimeoutS:
 299              	.LFB13:
 300              		.loc 1 243 0
 301              		.cfi_startproc
 302              	.LVL35:
 303 0000 38B5     		push	{r3, r4, r5, lr}
 304              		.cfi_def_cfa_offset 16
 305              		.cfi_offset 3, -16
 306              		.cfi_offset 4, -12
 307              		.cfi_offset 5, -8
 308              		.cfi_offset 14, -4
 309              		.loc 1 243 0
 310 0002 041C     		mov	r4, r0
 311 0004 0D1C     		mov	r5, r1
 312              		.loc 1 245 0
 313 0006 FFF7FEFF 		bl	chDbgCheckClassS
 314              	.LVL36:
 315              		.loc 1 247 0
 316 000a A268     		ldr	r2, [r4, #8]
 317              		.loc 1 261 0
 318 000c 0020     		mov	r0, #0
 319              		.loc 1 252 0
 320 000e 531E     		sub	r3, r2, #1
 321 0010 A360     		str	r3, [r4, #8]
 322 0012 002B     		cmp	r3, #0
 323 0014 00DB     		blt	.L23
 324              	.L20:
 325              		.loc 1 262 0
 326              		@ sp needed
 327              	.LVL37:
 328              	.LVL38:
 329 0016 38BD     		pop	{r3, r4, r5, pc}
 330              	.LVL39:
 331              	.L23:
 332              		.loc 1 253 0
 333 0018 002D     		cmp	r5, #0
 334 001a 0CD0     		beq	.L24
 335              		.loc 1 257 0
 336 001c 084B     		ldr	r3, .L25
 337              		.loc 1 259 0
 338 001e 291C     		mov	r1, r5
 339              		.loc 1 257 0
 340 0020 9B69     		ldr	r3, [r3, #24]
ARM GAS  /var/folders/qh/xwg3v3kj02qbxczjpdb8lzfr0000gn/T//cc1yMur7.s 			page 7


 341              		.loc 1 259 0
 342 0022 0320     		mov	r0, #3
 343              		.loc 1 257 0
 344 0024 5C62     		str	r4, [r3, #36]
 345              	.LVL40:
 346              	.LBB26:
 347              	.LBB27:
 348              		.loc 2 48 0
 349 0026 6268     		ldr	r2, [r4, #4]
 350              		.loc 2 47 0
 351 0028 1C60     		str	r4, [r3]
 352              		.loc 2 48 0
 353 002a 5A60     		str	r2, [r3, #4]
 354              		.loc 2 49 0
 355 002c 6360     		str	r3, [r4, #4]
 356              	.LVL41:
 357 002e 1360     		str	r3, [r2]
 358              	.LVL42:
 359              	.LBE27:
 360              	.LBE26:
 361              		.loc 1 259 0
 362 0030 FFF7FEFF 		bl	chSchGoSleepTimeoutS
 363              	.LVL43:
 364 0034 EFE7     		b	.L20
 365              	.LVL44:
 366              	.L24:
 367              		.loc 1 255 0
 368 0036 0120     		mov	r0, #1
 369              		.loc 1 254 0
 370 0038 A260     		str	r2, [r4, #8]
 371              		.loc 1 255 0
 372 003a 4042     		neg	r0, r0
 373 003c EBE7     		b	.L20
 374              	.L26:
 375 003e C046     		.align	2
 376              	.L25:
 377 0040 00000000 		.word	rlist
 378              		.cfi_endproc
 379              	.LFE13:
 380              		.size	chSemWaitTimeoutS, .-chSemWaitTimeoutS
 381 0044 C046C046 		.section	.text.chSemWaitTimeout,"ax",%progbits
 381      C046C046 
 381      C046C046 
 382              		.align	2
 383              		.p2align 4,,15
 384              		.global	chSemWaitTimeout
 385              		.code	16
 386              		.thumb_func
 387              		.type	chSemWaitTimeout, %function
 388              	chSemWaitTimeout:
 389              	.LFB12:
 390              		.loc 1 215 0
 391              		.cfi_startproc
 392              	.LVL45:
 393 0000 38B5     		push	{r3, r4, r5, lr}
 394              		.cfi_def_cfa_offset 16
 395              		.cfi_offset 3, -16
ARM GAS  /var/folders/qh/xwg3v3kj02qbxczjpdb8lzfr0000gn/T//cc1yMur7.s 			page 8


 396              		.cfi_offset 4, -12
 397              		.cfi_offset 5, -8
 398              		.cfi_offset 14, -4
 399              		.loc 1 215 0
 400 0002 051C     		mov	r5, r0
 401 0004 0C1C     		mov	r4, r1
 402              		.loc 1 218 0
 403              	@ 218 "../../os/kernel/src/chsem.c" 1
 404 0006 72B6     		cpsid   i
 405              	@ 0 "" 2
 406              		.code	16
 407 0008 FFF7FEFF 		bl	dbg_check_lock
 408              	.LVL46:
 409              		.loc 1 219 0
 410 000c 211C     		mov	r1, r4
 411 000e 281C     		mov	r0, r5
 412 0010 FFF7FEFF 		bl	chSemWaitTimeoutS
 413              	.LVL47:
 414 0014 041C     		mov	r4, r0
 415              	.LVL48:
 416              		.loc 1 220 0
 417 0016 FFF7FEFF 		bl	dbg_check_unlock
 418              	.LVL49:
 419              	@ 220 "../../os/kernel/src/chsem.c" 1
 420 001a 62B6     		cpsie   i
 421              	@ 0 "" 2
 422              		.loc 1 222 0
 423              		.code	16
 424 001c 201C     		mov	r0, r4
 425              		@ sp needed
 426              	.LVL50:
 427              	.LVL51:
 428 001e 38BD     		pop	{r3, r4, r5, pc}
 429              		.cfi_endproc
 430              	.LFE12:
 431              		.size	chSemWaitTimeout, .-chSemWaitTimeout
 432              		.section	.text.chSemSignal,"ax",%progbits
 433              		.align	2
 434              		.p2align 4,,15
 435              		.global	chSemSignal
 436              		.code	16
 437              		.thumb_func
 438              		.type	chSemSignal, %function
 439              	chSemSignal:
 440              	.LFB14:
 441              		.loc 1 271 0
 442              		.cfi_startproc
 443              	.LVL52:
 444 0000 10B5     		push	{r4, lr}
 445              		.cfi_def_cfa_offset 8
 446              		.cfi_offset 4, -8
 447              		.cfi_offset 14, -4
 448              		.loc 1 271 0
 449 0002 041C     		mov	r4, r0
 450              		.loc 1 279 0
 451              	@ 279 "../../os/kernel/src/chsem.c" 1
 452 0004 72B6     		cpsid   i
ARM GAS  /var/folders/qh/xwg3v3kj02qbxczjpdb8lzfr0000gn/T//cc1yMur7.s 			page 9


 453              	@ 0 "" 2
 454              		.code	16
 455 0006 FFF7FEFF 		bl	dbg_check_lock
 456              	.LVL53:
 457              		.loc 1 280 0
 458 000a A368     		ldr	r3, [r4, #8]
 459 000c 0133     		add	r3, r3, #1
 460 000e A360     		str	r3, [r4, #8]
 461 0010 002B     		cmp	r3, #0
 462 0012 03DD     		ble	.L30
 463              	.L29:
 464              		.loc 1 282 0
 465 0014 FFF7FEFF 		bl	dbg_check_unlock
 466              	.LVL54:
 467              	@ 282 "../../os/kernel/src/chsem.c" 1
 468 0018 62B6     		cpsie   i
 469              	@ 0 "" 2
 470              		.loc 1 283 0
 471              		.code	16
 472              		@ sp needed
 473              	.LVL55:
 474 001a 10BD     		pop	{r4, pc}
 475              	.LVL56:
 476              	.L30:
 477              	.LBB28:
 478              	.LBB29:
 479              		.loc 2 53 0
 480 001c 2068     		ldr	r0, [r4]
 481              	.LVL57:
 482              	.LBE29:
 483              	.LBE28:
 484              		.loc 1 281 0
 485 001e 0021     		mov	r1, #0
 486              	.LBB31:
 487              	.LBB30:
 488              		.loc 2 55 0
 489 0020 0368     		ldr	r3, [r0]
 490 0022 2360     		str	r3, [r4]
 491 0024 5C60     		str	r4, [r3, #4]
 492              	.LBE30:
 493              	.LBE31:
 494              		.loc 1 281 0
 495 0026 FFF7FEFF 		bl	chSchWakeupS
 496              	.LVL58:
 497 002a F3E7     		b	.L29
 498              		.cfi_endproc
 499              	.LFE14:
 500              		.size	chSemSignal, .-chSemSignal
 501 002c C046C046 		.section	.text.chSemSignalI,"ax",%progbits
 502              		.align	2
 503              		.p2align 4,,15
 504              		.global	chSemSignalI
 505              		.code	16
 506              		.thumb_func
 507              		.type	chSemSignalI, %function
 508              	chSemSignalI:
 509              	.LFB15:
ARM GAS  /var/folders/qh/xwg3v3kj02qbxczjpdb8lzfr0000gn/T//cc1yMur7.s 			page 10


 510              		.loc 1 296 0
 511              		.cfi_startproc
 512              	.LVL59:
 513 0000 10B5     		push	{r4, lr}
 514              		.cfi_def_cfa_offset 8
 515              		.cfi_offset 4, -8
 516              		.cfi_offset 14, -4
 517              		.loc 1 296 0
 518 0002 041C     		mov	r4, r0
 519              		.loc 1 298 0
 520 0004 FFF7FEFF 		bl	chDbgCheckClassI
 521              	.LVL60:
 522              		.loc 1 305 0
 523 0008 A368     		ldr	r3, [r4, #8]
 524 000a 0133     		add	r3, r3, #1
 525 000c A360     		str	r3, [r4, #8]
 526 000e 002B     		cmp	r3, #0
 527 0010 00DD     		ble	.L33
 528              	.L31:
 529              		.loc 1 312 0
 530              		@ sp needed
 531              	.LVL61:
 532 0012 10BD     		pop	{r4, pc}
 533              	.LVL62:
 534              	.L33:
 535              	.LBB32:
 536              	.LBB33:
 537              	.LBB34:
 538              		.loc 2 53 0
 539 0014 2068     		ldr	r0, [r4]
 540              	.LVL63:
 541              		.loc 2 55 0
 542 0016 0368     		ldr	r3, [r0]
 543 0018 2360     		str	r3, [r4]
 544 001a 5C60     		str	r4, [r3, #4]
 545              	.LBE34:
 546              	.LBE33:
 547              		.loc 1 309 0
 548 001c 0023     		mov	r3, #0
 549 001e 4362     		str	r3, [r0, #36]
 550              		.loc 1 310 0
 551 0020 FFF7FEFF 		bl	chSchReadyI
 552              	.LVL64:
 553 0024 F5E7     		b	.L31
 554              	.LBE32:
 555              		.cfi_endproc
 556              	.LFE15:
 557              		.size	chSemSignalI, .-chSemSignalI
 558 0026 C046C046 		.section	.text.chSemAddCounterI,"ax",%progbits
 558      C046C046 
 558      C046
 559              		.align	2
 560              		.p2align 4,,15
 561              		.global	chSemAddCounterI
 562              		.code	16
 563              		.thumb_func
 564              		.type	chSemAddCounterI, %function
ARM GAS  /var/folders/qh/xwg3v3kj02qbxczjpdb8lzfr0000gn/T//cc1yMur7.s 			page 11


 565              	chSemAddCounterI:
 566              	.LFB16:
 567              		.loc 1 327 0
 568              		.cfi_startproc
 569              	.LVL65:
 570 0000 70B5     		push	{r4, r5, r6, lr}
 571              		.cfi_def_cfa_offset 16
 572              		.cfi_offset 4, -16
 573              		.cfi_offset 5, -12
 574              		.cfi_offset 6, -8
 575              		.cfi_offset 14, -4
 576              		.loc 1 327 0
 577 0002 051C     		mov	r5, r0
 578 0004 0C1C     		mov	r4, r1
 579              		.loc 1 338 0
 580 0006 0026     		mov	r6, #0
 581              		.loc 1 329 0
 582 0008 FFF7FEFF 		bl	chDbgCheckClassI
 583              	.LVL66:
 584              		.loc 1 336 0
 585 000c 002C     		cmp	r4, #0
 586 000e 03DC     		bgt	.L42
 587 0010 11E0     		b	.L34
 588              	.L36:
 589              		.loc 1 339 0
 590 0012 013C     		sub	r4, r4, #1
 591              	.LVL67:
 592              		.loc 1 336 0
 593 0014 002C     		cmp	r4, #0
 594 0016 0ED0     		beq	.L34
 595              	.L42:
 596              		.loc 1 337 0
 597 0018 AB68     		ldr	r3, [r5, #8]
 598 001a 0133     		add	r3, r3, #1
 599 001c AB60     		str	r3, [r5, #8]
 600 001e 002B     		cmp	r3, #0
 601 0020 F7DC     		bgt	.L36
 602              	.LVL68:
 603              	.LBB35:
 604              	.LBB36:
 605              		.loc 2 53 0
 606 0022 2868     		ldr	r0, [r5]
 607              	.LVL69:
 608              	.LBE36:
 609              	.LBE35:
 610              		.loc 1 339 0
 611 0024 013C     		sub	r4, r4, #1
 612              	.LVL70:
 613              	.LBB38:
 614              	.LBB37:
 615              		.loc 2 55 0
 616 0026 0368     		ldr	r3, [r0]
 617 0028 2B60     		str	r3, [r5]
 618 002a 5D60     		str	r5, [r3, #4]
 619              	.LBE37:
 620              	.LBE38:
 621              		.loc 1 338 0
ARM GAS  /var/folders/qh/xwg3v3kj02qbxczjpdb8lzfr0000gn/T//cc1yMur7.s 			page 12


 622 002c FFF7FEFF 		bl	chSchReadyI
 623              	.LVL71:
 624 0030 4662     		str	r6, [r0, #36]
 625              		.loc 1 336 0
 626 0032 002C     		cmp	r4, #0
 627 0034 F0D1     		bne	.L42
 628              	.LVL72:
 629              	.L34:
 630              		.loc 1 341 0
 631              		@ sp needed
 632              	.LVL73:
 633              	.LVL74:
 634 0036 70BD     		pop	{r4, r5, r6, pc}
 635              		.cfi_endproc
 636              	.LFE16:
 637              		.size	chSemAddCounterI, .-chSemAddCounterI
 638 0038 C046C046 		.section	.text.chSemSignalWait,"ax",%progbits
 638      C046C046 
 639              		.align	2
 640              		.p2align 4,,15
 641              		.global	chSemSignalWait
 642              		.code	16
 643              		.thumb_func
 644              		.type	chSemSignalWait, %function
 645              	chSemSignalWait:
 646              	.LFB17:
 647              		.loc 1 359 0
 648              		.cfi_startproc
 649              	.LVL75:
 650 0000 38B5     		push	{r3, r4, r5, lr}
 651              		.cfi_def_cfa_offset 16
 652              		.cfi_offset 3, -16
 653              		.cfi_offset 4, -12
 654              		.cfi_offset 5, -8
 655              		.cfi_offset 14, -4
 656              		.loc 1 359 0
 657 0002 051C     		mov	r5, r0
 658 0004 0C1C     		mov	r4, r1
 659              		.loc 1 372 0
 660              	@ 372 "../../os/kernel/src/chsem.c" 1
 661 0006 72B6     		cpsid   i
 662              	@ 0 "" 2
 663              		.code	16
 664 0008 FFF7FEFF 		bl	dbg_check_lock
 665              	.LVL76:
 666              		.loc 1 373 0
 667 000c AB68     		ldr	r3, [r5, #8]
 668 000e 0133     		add	r3, r3, #1
 669 0010 AB60     		str	r3, [r5, #8]
 670 0012 002B     		cmp	r3, #0
 671 0014 19DD     		ble	.L47
 672              	.L44:
 673              		.loc 1 375 0
 674 0016 A368     		ldr	r3, [r4, #8]
 675 0018 013B     		sub	r3, r3, #1
 676 001a A360     		str	r3, [r4, #8]
 677 001c 002B     		cmp	r3, #0
ARM GAS  /var/folders/qh/xwg3v3kj02qbxczjpdb8lzfr0000gn/T//cc1yMur7.s 			page 13


 678 001e 07DB     		blt	.L48
 679              		.loc 1 383 0
 680 0020 FFF7FEFF 		bl	chSchRescheduleS
 681              	.LVL77:
 682              		.loc 1 384 0
 683 0024 0024     		mov	r4, #0
 684              	.LVL78:
 685              	.L46:
 686              		.loc 1 386 0
 687 0026 FFF7FEFF 		bl	dbg_check_unlock
 688              	.LVL79:
 689              	@ 386 "../../os/kernel/src/chsem.c" 1
 690 002a 62B6     		cpsie   i
 691              	@ 0 "" 2
 692              		.loc 1 388 0
 693              		.code	16
 694 002c 201C     		mov	r0, r4
 695              		@ sp needed
 696              	.LVL80:
 697 002e 38BD     		pop	{r3, r4, r5, pc}
 698              	.LVL81:
 699              	.L48:
 700              	.LBB39:
 701              		.loc 1 376 0
 702 0030 0A4B     		ldr	r3, .L49
 703              		.loc 1 379 0
 704 0032 0320     		mov	r0, #3
 705              		.loc 1 376 0
 706 0034 9D69     		ldr	r5, [r3, #24]
 707              	.LVL82:
 708              	.LBB40:
 709              	.LBB41:
 710              		.loc 2 48 0
 711 0036 6368     		ldr	r3, [r4, #4]
 712              		.loc 2 47 0
 713 0038 2C60     		str	r4, [r5]
 714              		.loc 2 48 0
 715 003a 6B60     		str	r3, [r5, #4]
 716              		.loc 2 49 0
 717 003c 6560     		str	r5, [r4, #4]
 718 003e 1D60     		str	r5, [r3]
 719              	.LBE41:
 720              	.LBE40:
 721              		.loc 1 378 0
 722 0040 6C62     		str	r4, [r5, #36]
 723              		.loc 1 379 0
 724 0042 FFF7FEFF 		bl	chSchGoSleepS
 725              	.LVL83:
 726              		.loc 1 380 0
 727 0046 6C6A     		ldr	r4, [r5, #36]
 728              	.LVL84:
 729              	.LBE39:
 730 0048 EDE7     		b	.L46
 731              	.LVL85:
 732              	.L47:
 733              	.LBB42:
 734              	.LBB43:
ARM GAS  /var/folders/qh/xwg3v3kj02qbxczjpdb8lzfr0000gn/T//cc1yMur7.s 			page 14


 735              		.loc 2 53 0
 736 004a 2868     		ldr	r0, [r5]
 737              	.LVL86:
 738              		.loc 2 55 0
 739 004c 0368     		ldr	r3, [r0]
 740 004e 2B60     		str	r3, [r5]
 741 0050 5D60     		str	r5, [r3, #4]
 742              	.LBE43:
 743              	.LBE42:
 744              		.loc 1 374 0
 745 0052 FFF7FEFF 		bl	chSchReadyI
 746              	.LVL87:
 747 0056 0023     		mov	r3, #0
 748 0058 4362     		str	r3, [r0, #36]
 749 005a DCE7     		b	.L44
 750              	.L50:
 751              		.align	2
 752              	.L49:
 753 005c 00000000 		.word	rlist
 754              		.cfi_endproc
 755              	.LFE17:
 756              		.size	chSemSignalWait, .-chSemSignalWait
 757              		.text
 758              	.Letext0:
 759              		.file 3 "/usr/local/Cellar/gcc-arm-none-eabi-48/20131218/arm-none-eabi/include/stdint.h"
 760              		.file 4 "../../os/ports/GCC/ARMCMx/chtypes.h"
 761              		.file 5 "../../os/kernel/include/chlists.h"
 762              		.file 6 "../../os/kernel/include/chthreads.h"
 763              		.file 7 "../../os/ports/GCC/ARMCMx/chcore_v6m.h"
 764              		.file 8 "../../os/kernel/include/chschd.h"
 765              		.file 9 "../../os/kernel/include/chsem.h"
 766              		.file 10 "../../os/kernel/include/chmtx.h"
 767              		.file 11 "../../os/kernel/include/chdebug.h"
 768              		.section	.debug_info,"",%progbits
 769              	.Ldebug_info0:
 770 0000 270A0000 		.4byte	0xa27
 771 0004 0400     		.2byte	0x4
 772 0006 00000000 		.4byte	.Ldebug_abbrev0
 773 000a 04       		.byte	0x4
 774 000b 01       		.uleb128 0x1
 775 000c 23020000 		.4byte	.LASF88
 776 0010 01       		.byte	0x1
 777 0011 B2000000 		.4byte	.LASF89
 778 0015 54010000 		.4byte	.LASF90
 779 0019 48000000 		.4byte	.Ldebug_ranges0+0x48
 780 001d 00000000 		.4byte	0
 781 0021 00000000 		.4byte	.Ldebug_line0
 782 0025 02       		.uleb128 0x2
 783 0026 04       		.byte	0x4
 784 0027 05       		.byte	0x5
 785 0028 696E7400 		.ascii	"int\000"
 786 002c 03       		.uleb128 0x3
 787 002d 04       		.byte	0x4
 788 002e 07       		.byte	0x7
 789 002f 24010000 		.4byte	.LASF0
 790 0033 03       		.uleb128 0x3
 791 0034 01       		.byte	0x1
ARM GAS  /var/folders/qh/xwg3v3kj02qbxczjpdb8lzfr0000gn/T//cc1yMur7.s 			page 15


 792 0035 06       		.byte	0x6
 793 0036 7C000000 		.4byte	.LASF1
 794 003a 04       		.uleb128 0x4
 795 003b 95040000 		.4byte	.LASF5
 796 003f 03       		.byte	0x3
 797 0040 2A       		.byte	0x2a
 798 0041 45000000 		.4byte	0x45
 799 0045 03       		.uleb128 0x3
 800 0046 01       		.byte	0x1
 801 0047 08       		.byte	0x8
 802 0048 54030000 		.4byte	.LASF2
 803 004c 03       		.uleb128 0x3
 804 004d 02       		.byte	0x2
 805 004e 05       		.byte	0x5
 806 004f 6C030000 		.4byte	.LASF3
 807 0053 03       		.uleb128 0x3
 808 0054 02       		.byte	0x2
 809 0055 07       		.byte	0x7
 810 0056 9D010000 		.4byte	.LASF4
 811 005a 04       		.uleb128 0x4
 812 005b 4C030000 		.4byte	.LASF6
 813 005f 03       		.byte	0x3
 814 0060 4F       		.byte	0x4f
 815 0061 65000000 		.4byte	0x65
 816 0065 03       		.uleb128 0x3
 817 0066 04       		.byte	0x4
 818 0067 05       		.byte	0x5
 819 0068 CE000000 		.4byte	.LASF7
 820 006c 04       		.uleb128 0x4
 821 006d D0030000 		.4byte	.LASF8
 822 0071 03       		.byte	0x3
 823 0072 50       		.byte	0x50
 824 0073 77000000 		.4byte	0x77
 825 0077 03       		.uleb128 0x3
 826 0078 04       		.byte	0x4
 827 0079 07       		.byte	0x7
 828 007a 42010000 		.4byte	.LASF9
 829 007e 03       		.uleb128 0x3
 830 007f 08       		.byte	0x8
 831 0080 05       		.byte	0x5
 832 0081 6E000000 		.4byte	.LASF10
 833 0085 03       		.uleb128 0x3
 834 0086 08       		.byte	0x8
 835 0087 07       		.byte	0x7
 836 0088 36000000 		.4byte	.LASF11
 837 008c 03       		.uleb128 0x3
 838 008d 01       		.byte	0x1
 839 008e 02       		.byte	0x2
 840 008f 46030000 		.4byte	.LASF12
 841 0093 04       		.uleb128 0x4
 842 0094 D2010000 		.4byte	.LASF13
 843 0098 04       		.byte	0x4
 844 0099 25       		.byte	0x25
 845 009a 3A000000 		.4byte	0x3a
 846 009e 04       		.uleb128 0x4
 847 009f D7000000 		.4byte	.LASF14
 848 00a3 04       		.byte	0x4
ARM GAS  /var/folders/qh/xwg3v3kj02qbxczjpdb8lzfr0000gn/T//cc1yMur7.s 			page 16


 849 00a4 26       		.byte	0x26
 850 00a5 3A000000 		.4byte	0x3a
 851 00a9 04       		.uleb128 0x4
 852 00aa 2F030000 		.4byte	.LASF15
 853 00ae 04       		.byte	0x4
 854 00af 27       		.byte	0x27
 855 00b0 3A000000 		.4byte	0x3a
 856 00b4 04       		.uleb128 0x4
 857 00b5 A8000000 		.4byte	.LASF16
 858 00b9 04       		.byte	0x4
 859 00ba 28       		.byte	0x28
 860 00bb 3A000000 		.4byte	0x3a
 861 00bf 04       		.uleb128 0x4
 862 00c0 3E030000 		.4byte	.LASF17
 863 00c4 04       		.byte	0x4
 864 00c5 29       		.byte	0x29
 865 00c6 6C000000 		.4byte	0x6c
 866 00ca 04       		.uleb128 0x4
 867 00cb BB010000 		.4byte	.LASF18
 868 00cf 04       		.byte	0x4
 869 00d0 2A       		.byte	0x2a
 870 00d1 5A000000 		.4byte	0x5a
 871 00d5 04       		.uleb128 0x4
 872 00d6 F7010000 		.4byte	.LASF19
 873 00da 04       		.byte	0x4
 874 00db 2C       		.byte	0x2c
 875 00dc 6C000000 		.4byte	0x6c
 876 00e0 04       		.uleb128 0x4
 877 00e1 17040000 		.4byte	.LASF20
 878 00e5 04       		.byte	0x4
 879 00e6 2E       		.byte	0x2e
 880 00e7 6C000000 		.4byte	0x6c
 881 00eb 04       		.uleb128 0x4
 882 00ec 1E010000 		.4byte	.LASF21
 883 00f0 04       		.byte	0x4
 884 00f1 2F       		.byte	0x2f
 885 00f2 5A000000 		.4byte	0x5a
 886 00f6 04       		.uleb128 0x4
 887 00f7 B0030000 		.4byte	.LASF22
 888 00fb 05       		.byte	0x5
 889 00fc 23       		.byte	0x23
 890 00fd 01010000 		.4byte	0x101
 891 0101 05       		.uleb128 0x5
 892 0102 B0030000 		.4byte	.LASF22
 893 0106 48       		.byte	0x48
 894 0107 06       		.byte	0x6
 895 0108 57       		.byte	0x57
 896 0109 FE010000 		.4byte	0x1fe
 897 010d 06       		.uleb128 0x6
 898 010e 96030000 		.4byte	.LASF23
 899 0112 06       		.byte	0x6
 900 0113 58       		.byte	0x58
 901 0114 1F020000 		.4byte	0x21f
 902 0118 00       		.byte	0
 903 0119 06       		.uleb128 0x6
 904 011a 37030000 		.4byte	.LASF24
 905 011e 06       		.byte	0x6
ARM GAS  /var/folders/qh/xwg3v3kj02qbxczjpdb8lzfr0000gn/T//cc1yMur7.s 			page 17


 906 011f 5A       		.byte	0x5a
 907 0120 1F020000 		.4byte	0x21f
 908 0124 04       		.byte	0x4
 909 0125 06       		.uleb128 0x6
 910 0126 67000000 		.4byte	.LASF25
 911 012a 06       		.byte	0x6
 912 012b 5C       		.byte	0x5c
 913 012c BF000000 		.4byte	0xbf
 914 0130 08       		.byte	0x8
 915 0131 06       		.uleb128 0x6
 916 0132 C8040000 		.4byte	.LASF26
 917 0136 06       		.byte	0x6
 918 0137 5D       		.byte	0x5d
 919 0138 CF020000 		.4byte	0x2cf
 920 013c 0C       		.byte	0xc
 921 013d 06       		.uleb128 0x6
 922 013e EC000000 		.4byte	.LASF27
 923 0142 06       		.byte	0x6
 924 0143 5F       		.byte	0x5f
 925 0144 1F020000 		.4byte	0x21f
 926 0148 10       		.byte	0x10
 927 0149 06       		.uleb128 0x6
 928 014a FD020000 		.4byte	.LASF28
 929 014e 06       		.byte	0x6
 930 014f 60       		.byte	0x60
 931 0150 1F020000 		.4byte	0x21f
 932 0154 14       		.byte	0x14
 933 0155 06       		.uleb128 0x6
 934 0156 A4040000 		.4byte	.LASF29
 935 015a 06       		.byte	0x6
 936 015b 67       		.byte	0x67
 937 015c FD030000 		.4byte	0x3fd
 938 0160 18       		.byte	0x18
 939 0161 06       		.uleb128 0x6
 940 0162 76030000 		.4byte	.LASF30
 941 0166 06       		.byte	0x6
 942 0167 72       		.byte	0x72
 943 0168 9E000000 		.4byte	0x9e
 944 016c 1C       		.byte	0x1c
 945 016d 06       		.uleb128 0x6
 946 016e 9D030000 		.4byte	.LASF31
 947 0172 06       		.byte	0x6
 948 0173 76       		.byte	0x76
 949 0174 93000000 		.4byte	0x93
 950 0178 1D       		.byte	0x1d
 951 0179 06       		.uleb128 0x6
 952 017a 72040000 		.4byte	.LASF32
 953 017e 06       		.byte	0x6
 954 017f 7B       		.byte	0x7b
 955 0180 A9000000 		.4byte	0xa9
 956 0184 1E       		.byte	0x1e
 957 0185 06       		.uleb128 0x6
 958 0186 7E030000 		.4byte	.LASF33
 959 018a 06       		.byte	0x6
 960 018b 81       		.byte	0x81
 961 018c B4000000 		.4byte	0xb4
 962 0190 1F       		.byte	0x1f
ARM GAS  /var/folders/qh/xwg3v3kj02qbxczjpdb8lzfr0000gn/T//cc1yMur7.s 			page 18


 963 0191 06       		.uleb128 0x6
 964 0192 36040000 		.4byte	.LASF34
 965 0196 06       		.byte	0x6
 966 0197 88       		.byte	0x88
 967 0198 F5020000 		.4byte	0x2f5
 968 019c 20       		.byte	0x20
 969 019d 07       		.uleb128 0x7
 970 019e 705F7500 		.ascii	"p_u\000"
 971 01a2 06       		.byte	0x6
 972 01a3 AD       		.byte	0xad
 973 01a4 C8030000 		.4byte	0x3c8
 974 01a8 24       		.byte	0x24
 975 01a9 06       		.uleb128 0x6
 976 01aa CE040000 		.4byte	.LASF35
 977 01ae 06       		.byte	0x6
 978 01af B2       		.byte	0xb2
 979 01b0 45020000 		.4byte	0x245
 980 01b4 28       		.byte	0x28
 981 01b5 06       		.uleb128 0x6
 982 01b6 50040000 		.4byte	.LASF36
 983 01ba 06       		.byte	0x6
 984 01bb B8       		.byte	0xb8
 985 01bc 25020000 		.4byte	0x225
 986 01c0 2C       		.byte	0x2c
 987 01c1 06       		.uleb128 0x6
 988 01c2 00000000 		.4byte	.LASF37
 989 01c6 06       		.byte	0x6
 990 01c7 BC       		.byte	0xbc
 991 01c8 CA000000 		.4byte	0xca
 992 01cc 34       		.byte	0x34
 993 01cd 06       		.uleb128 0x6
 994 01ce C5030000 		.4byte	.LASF38
 995 01d2 06       		.byte	0x6
 996 01d3 C2       		.byte	0xc2
 997 01d4 D5000000 		.4byte	0xd5
 998 01d8 38       		.byte	0x38
 999 01d9 06       		.uleb128 0x6
 1000 01da 62030000 		.4byte	.LASF39
 1001 01de 06       		.byte	0x6
 1002 01df C9       		.byte	0xc9
 1003 01e0 0F040000 		.4byte	0x40f
 1004 01e4 3C       		.byte	0x3c
 1005 01e5 06       		.uleb128 0x6
 1006 01e6 21040000 		.4byte	.LASF40
 1007 01ea 06       		.byte	0x6
 1008 01eb CD       		.byte	0xcd
 1009 01ec BF000000 		.4byte	0xbf
 1010 01f0 40       		.byte	0x40
 1011 01f1 06       		.uleb128 0x6
 1012 01f2 98000000 		.4byte	.LASF41
 1013 01f6 06       		.byte	0x6
 1014 01f7 D3       		.byte	0xd3
 1015 01f8 5B020000 		.4byte	0x25b
 1016 01fc 44       		.byte	0x44
 1017 01fd 00       		.byte	0
 1018 01fe 08       		.uleb128 0x8
 1019 01ff 08       		.byte	0x8
ARM GAS  /var/folders/qh/xwg3v3kj02qbxczjpdb8lzfr0000gn/T//cc1yMur7.s 			page 19


 1020 0200 05       		.byte	0x5
 1021 0201 5A       		.byte	0x5a
 1022 0202 1F020000 		.4byte	0x21f
 1023 0206 06       		.uleb128 0x6
 1024 0207 96030000 		.4byte	.LASF23
 1025 020b 05       		.byte	0x5
 1026 020c 5B       		.byte	0x5b
 1027 020d 1F020000 		.4byte	0x21f
 1028 0211 00       		.byte	0
 1029 0212 06       		.uleb128 0x6
 1030 0213 37030000 		.4byte	.LASF24
 1031 0217 05       		.byte	0x5
 1032 0218 5D       		.byte	0x5d
 1033 0219 1F020000 		.4byte	0x21f
 1034 021d 04       		.byte	0x4
 1035 021e 00       		.byte	0
 1036 021f 09       		.uleb128 0x9
 1037 0220 04       		.byte	0x4
 1038 0221 F6000000 		.4byte	0xf6
 1039 0225 04       		.uleb128 0x4
 1040 0226 0B030000 		.4byte	.LASF42
 1041 022a 05       		.byte	0x5
 1042 022b 5F       		.byte	0x5f
 1043 022c FE010000 		.4byte	0x1fe
 1044 0230 08       		.uleb128 0x8
 1045 0231 04       		.byte	0x4
 1046 0232 05       		.byte	0x5
 1047 0233 64       		.byte	0x64
 1048 0234 45020000 		.4byte	0x245
 1049 0238 06       		.uleb128 0x6
 1050 0239 96030000 		.4byte	.LASF23
 1051 023d 05       		.byte	0x5
 1052 023e 66       		.byte	0x66
 1053 023f 1F020000 		.4byte	0x21f
 1054 0243 00       		.byte	0
 1055 0244 00       		.byte	0
 1056 0245 04       		.uleb128 0x4
 1057 0246 EB010000 		.4byte	.LASF43
 1058 024a 05       		.byte	0x5
 1059 024b 69       		.byte	0x69
 1060 024c 30020000 		.4byte	0x230
 1061 0250 04       		.uleb128 0x4
 1062 0251 15010000 		.4byte	.LASF44
 1063 0255 07       		.byte	0x7
 1064 0256 A0       		.byte	0xa0
 1065 0257 5B020000 		.4byte	0x25b
 1066 025b 0A       		.uleb128 0xa
 1067 025c 04       		.byte	0x4
 1068 025d 05       		.uleb128 0x5
 1069 025e 49040000 		.4byte	.LASF45
 1070 0262 24       		.byte	0x24
 1071 0263 07       		.byte	0x7
 1072 0264 B3       		.byte	0xb3
 1073 0265 CF020000 		.4byte	0x2cf
 1074 0269 07       		.uleb128 0x7
 1075 026a 723800   		.ascii	"r8\000"
 1076 026d 07       		.byte	0x7
ARM GAS  /var/folders/qh/xwg3v3kj02qbxczjpdb8lzfr0000gn/T//cc1yMur7.s 			page 20


 1077 026e B4       		.byte	0xb4
 1078 026f 50020000 		.4byte	0x250
 1079 0273 00       		.byte	0
 1080 0274 07       		.uleb128 0x7
 1081 0275 723900   		.ascii	"r9\000"
 1082 0278 07       		.byte	0x7
 1083 0279 B5       		.byte	0xb5
 1084 027a 50020000 		.4byte	0x250
 1085 027e 04       		.byte	0x4
 1086 027f 07       		.uleb128 0x7
 1087 0280 72313000 		.ascii	"r10\000"
 1088 0284 07       		.byte	0x7
 1089 0285 B6       		.byte	0xb6
 1090 0286 50020000 		.4byte	0x250
 1091 028a 08       		.byte	0x8
 1092 028b 07       		.uleb128 0x7
 1093 028c 72313100 		.ascii	"r11\000"
 1094 0290 07       		.byte	0x7
 1095 0291 B7       		.byte	0xb7
 1096 0292 50020000 		.4byte	0x250
 1097 0296 0C       		.byte	0xc
 1098 0297 07       		.uleb128 0x7
 1099 0298 723400   		.ascii	"r4\000"
 1100 029b 07       		.byte	0x7
 1101 029c B8       		.byte	0xb8
 1102 029d 50020000 		.4byte	0x250
 1103 02a1 10       		.byte	0x10
 1104 02a2 07       		.uleb128 0x7
 1105 02a3 723500   		.ascii	"r5\000"
 1106 02a6 07       		.byte	0x7
 1107 02a7 B9       		.byte	0xb9
 1108 02a8 50020000 		.4byte	0x250
 1109 02ac 14       		.byte	0x14
 1110 02ad 07       		.uleb128 0x7
 1111 02ae 723600   		.ascii	"r6\000"
 1112 02b1 07       		.byte	0x7
 1113 02b2 BA       		.byte	0xba
 1114 02b3 50020000 		.4byte	0x250
 1115 02b7 18       		.byte	0x18
 1116 02b8 07       		.uleb128 0x7
 1117 02b9 723700   		.ascii	"r7\000"
 1118 02bc 07       		.byte	0x7
 1119 02bd BB       		.byte	0xbb
 1120 02be 50020000 		.4byte	0x250
 1121 02c2 1C       		.byte	0x1c
 1122 02c3 07       		.uleb128 0x7
 1123 02c4 6C7200   		.ascii	"lr\000"
 1124 02c7 07       		.byte	0x7
 1125 02c8 BC       		.byte	0xbc
 1126 02c9 50020000 		.4byte	0x250
 1127 02cd 20       		.byte	0x20
 1128 02ce 00       		.byte	0
 1129 02cf 05       		.uleb128 0x5
 1130 02d0 95010000 		.4byte	.LASF46
 1131 02d4 04       		.byte	0x4
 1132 02d5 07       		.byte	0x7
 1133 02d6 C6       		.byte	0xc6
ARM GAS  /var/folders/qh/xwg3v3kj02qbxczjpdb8lzfr0000gn/T//cc1yMur7.s 			page 21


 1134 02d7 E8020000 		.4byte	0x2e8
 1135 02db 07       		.uleb128 0x7
 1136 02dc 72313300 		.ascii	"r13\000"
 1137 02e0 07       		.byte	0x7
 1138 02e1 C7       		.byte	0xc7
 1139 02e2 E8020000 		.4byte	0x2e8
 1140 02e6 00       		.byte	0
 1141 02e7 00       		.byte	0
 1142 02e8 09       		.uleb128 0x9
 1143 02e9 04       		.byte	0x4
 1144 02ea 5D020000 		.4byte	0x25d
 1145 02ee 03       		.uleb128 0x3
 1146 02ef 04       		.byte	0x4
 1147 02f0 07       		.byte	0x7
 1148 02f1 1A020000 		.4byte	.LASF47
 1149 02f5 0B       		.uleb128 0xb
 1150 02f6 E0000000 		.4byte	0xe0
 1151 02fa 08       		.uleb128 0x8
 1152 02fb 1C       		.byte	0x1c
 1153 02fc 08       		.byte	0x8
 1154 02fd 57       		.byte	0x57
 1155 02fe 4B030000 		.4byte	0x34b
 1156 0302 06       		.uleb128 0x6
 1157 0303 D9030000 		.4byte	.LASF48
 1158 0307 08       		.byte	0x8
 1159 0308 58       		.byte	0x58
 1160 0309 25020000 		.4byte	0x225
 1161 030d 00       		.byte	0
 1162 030e 06       		.uleb128 0x6
 1163 030f 88030000 		.4byte	.LASF49
 1164 0313 08       		.byte	0x8
 1165 0314 59       		.byte	0x59
 1166 0315 BF000000 		.4byte	0xbf
 1167 0319 08       		.byte	0x8
 1168 031a 06       		.uleb128 0x6
 1169 031b 05030000 		.4byte	.LASF50
 1170 031f 08       		.byte	0x8
 1171 0320 5B       		.byte	0x5b
 1172 0321 CF020000 		.4byte	0x2cf
 1173 0325 0C       		.byte	0xc
 1174 0326 06       		.uleb128 0x6
 1175 0327 0D010000 		.4byte	.LASF51
 1176 032b 08       		.byte	0x8
 1177 032c 5E       		.byte	0x5e
 1178 032d 1F020000 		.4byte	0x21f
 1179 0331 10       		.byte	0x10
 1180 0332 06       		.uleb128 0x6
 1181 0333 27030000 		.4byte	.LASF52
 1182 0337 08       		.byte	0x8
 1183 0338 5F       		.byte	0x5f
 1184 0339 1F020000 		.4byte	0x21f
 1185 033d 14       		.byte	0x14
 1186 033e 06       		.uleb128 0x6
 1187 033f 1D030000 		.4byte	.LASF53
 1188 0343 08       		.byte	0x8
 1189 0344 62       		.byte	0x62
 1190 0345 1F020000 		.4byte	0x21f
ARM GAS  /var/folders/qh/xwg3v3kj02qbxczjpdb8lzfr0000gn/T//cc1yMur7.s 			page 22


 1191 0349 18       		.byte	0x18
 1192 034a 00       		.byte	0
 1193 034b 04       		.uleb128 0x4
 1194 034c 79040000 		.4byte	.LASF54
 1195 0350 08       		.byte	0x8
 1196 0351 64       		.byte	0x64
 1197 0352 FA020000 		.4byte	0x2fa
 1198 0356 05       		.uleb128 0x5
 1199 0357 68040000 		.4byte	.LASF55
 1200 035b 0C       		.byte	0xc
 1201 035c 09       		.byte	0x9
 1202 035d 25       		.byte	0x25
 1203 035e 7B030000 		.4byte	0x37b
 1204 0362 06       		.uleb128 0x6
 1205 0363 F4000000 		.4byte	.LASF56
 1206 0367 09       		.byte	0x9
 1207 0368 26       		.byte	0x26
 1208 0369 25020000 		.4byte	0x225
 1209 036d 00       		.byte	0
 1210 036e 06       		.uleb128 0x6
 1211 036f 8F010000 		.4byte	.LASF57
 1212 0373 09       		.byte	0x9
 1213 0374 28       		.byte	0x28
 1214 0375 EB000000 		.4byte	0xeb
 1215 0379 08       		.byte	0x8
 1216 037a 00       		.byte	0
 1217 037b 04       		.uleb128 0x4
 1218 037c 68040000 		.4byte	.LASF55
 1219 0380 09       		.byte	0x9
 1220 0381 29       		.byte	0x29
 1221 0382 56030000 		.4byte	0x356
 1222 0386 05       		.uleb128 0x5
 1223 0387 03020000 		.4byte	.LASF58
 1224 038b 10       		.byte	0x10
 1225 038c 0A       		.byte	0xa
 1226 038d 25       		.byte	0x25
 1227 038e B7030000 		.4byte	0x3b7
 1228 0392 06       		.uleb128 0x6
 1229 0393 A0000000 		.4byte	.LASF59
 1230 0397 0A       		.byte	0xa
 1231 0398 26       		.byte	0x26
 1232 0399 25020000 		.4byte	0x225
 1233 039d 00       		.byte	0
 1234 039e 06       		.uleb128 0x6
 1235 039f C0040000 		.4byte	.LASF60
 1236 03a3 0A       		.byte	0xa
 1237 03a4 28       		.byte	0x28
 1238 03a5 1F020000 		.4byte	0x21f
 1239 03a9 08       		.byte	0x8
 1240 03aa 06       		.uleb128 0x6
 1241 03ab 10040000 		.4byte	.LASF61
 1242 03af 0A       		.byte	0xa
 1243 03b0 2A       		.byte	0x2a
 1244 03b1 B7030000 		.4byte	0x3b7
 1245 03b5 0C       		.byte	0xc
 1246 03b6 00       		.byte	0
 1247 03b7 09       		.uleb128 0x9
ARM GAS  /var/folders/qh/xwg3v3kj02qbxczjpdb8lzfr0000gn/T//cc1yMur7.s 			page 23


 1248 03b8 04       		.byte	0x4
 1249 03b9 86030000 		.4byte	0x386
 1250 03bd 04       		.uleb128 0x4
 1251 03be 03020000 		.4byte	.LASF58
 1252 03c2 0A       		.byte	0xa
 1253 03c3 2C       		.byte	0x2c
 1254 03c4 86030000 		.4byte	0x386
 1255 03c8 0C       		.uleb128 0xc
 1256 03c9 04       		.byte	0x4
 1257 03ca 06       		.byte	0x6
 1258 03cb 8F       		.byte	0x8f
 1259 03cc FD030000 		.4byte	0x3fd
 1260 03d0 0D       		.uleb128 0xd
 1261 03d1 20000000 		.4byte	.LASF62
 1262 03d5 06       		.byte	0x6
 1263 03d6 96       		.byte	0x96
 1264 03d7 CA000000 		.4byte	0xca
 1265 03db 0D       		.uleb128 0xd
 1266 03dc 4D000000 		.4byte	.LASF63
 1267 03e0 06       		.byte	0x6
 1268 03e1 9D       		.byte	0x9d
 1269 03e2 CA000000 		.4byte	0xca
 1270 03e6 0D       		.uleb128 0xd
 1271 03e7 9D040000 		.4byte	.LASF64
 1272 03eb 06       		.byte	0x6
 1273 03ec A4       		.byte	0xa4
 1274 03ed 5B020000 		.4byte	0x25b
 1275 03f1 0D       		.uleb128 0xd
 1276 03f2 8F030000 		.4byte	.LASF65
 1277 03f6 06       		.byte	0x6
 1278 03f7 AB       		.byte	0xab
 1279 03f8 D5000000 		.4byte	0xd5
 1280 03fc 00       		.byte	0
 1281 03fd 09       		.uleb128 0x9
 1282 03fe 04       		.byte	0x4
 1283 03ff 03040000 		.4byte	0x403
 1284 0403 0E       		.uleb128 0xe
 1285 0404 08040000 		.4byte	0x408
 1286 0408 03       		.uleb128 0x3
 1287 0409 01       		.byte	0x1
 1288 040a 08       		.byte	0x8
 1289 040b ED030000 		.4byte	.LASF66
 1290 040f 09       		.uleb128 0x9
 1291 0410 04       		.byte	0x4
 1292 0411 BD030000 		.4byte	0x3bd
 1293 0415 0F       		.uleb128 0xf
 1294 0416 3D040000 		.4byte	.LASF67
 1295 041a 02       		.byte	0x2
 1296 041b 3B       		.byte	0x3b
 1297 041c 1F020000 		.4byte	0x21f
 1298 0420 03       		.byte	0x3
 1299 0421 3B040000 		.4byte	0x43b
 1300 0425 10       		.uleb128 0x10
 1301 0426 74717000 		.ascii	"tqp\000"
 1302 042a 02       		.byte	0x2
 1303 042b 3B       		.byte	0x3b
 1304 042c 3B040000 		.4byte	0x43b
ARM GAS  /var/folders/qh/xwg3v3kj02qbxczjpdb8lzfr0000gn/T//cc1yMur7.s 			page 24


 1305 0430 11       		.uleb128 0x11
 1306 0431 747000   		.ascii	"tp\000"
 1307 0434 02       		.byte	0x2
 1308 0435 3C       		.byte	0x3c
 1309 0436 1F020000 		.4byte	0x21f
 1310 043a 00       		.byte	0
 1311 043b 09       		.uleb128 0x9
 1312 043c 04       		.byte	0x4
 1313 043d 25020000 		.4byte	0x225
 1314 0441 12       		.uleb128 0x12
 1315 0442 06000000 		.4byte	.LASF91
 1316 0446 02       		.byte	0x2
 1317 0447 2D       		.byte	0x2d
 1318 0448 03       		.byte	0x3
 1319 0449 63040000 		.4byte	0x463
 1320 044d 10       		.uleb128 0x10
 1321 044e 747000   		.ascii	"tp\000"
 1322 0451 02       		.byte	0x2
 1323 0452 2D       		.byte	0x2d
 1324 0453 1F020000 		.4byte	0x21f
 1325 0457 10       		.uleb128 0x10
 1326 0458 74717000 		.ascii	"tqp\000"
 1327 045c 02       		.byte	0x2
 1328 045d 2D       		.byte	0x2d
 1329 045e 3B040000 		.4byte	0x43b
 1330 0462 00       		.byte	0
 1331 0463 0F       		.uleb128 0xf
 1332 0464 F2030000 		.4byte	.LASF68
 1333 0468 02       		.byte	0x2
 1334 0469 34       		.byte	0x34
 1335 046a 1F020000 		.4byte	0x21f
 1336 046e 03       		.byte	0x3
 1337 046f 89040000 		.4byte	0x489
 1338 0473 10       		.uleb128 0x10
 1339 0474 74717000 		.ascii	"tqp\000"
 1340 0478 02       		.byte	0x2
 1341 0479 34       		.byte	0x34
 1342 047a 3B040000 		.4byte	0x43b
 1343 047e 11       		.uleb128 0x11
 1344 047f 747000   		.ascii	"tp\000"
 1345 0482 02       		.byte	0x2
 1346 0483 35       		.byte	0x35
 1347 0484 1F020000 		.4byte	0x21f
 1348 0488 00       		.byte	0
 1349 0489 13       		.uleb128 0x13
 1350 048a D8040000 		.4byte	.LASF69
 1351 048e 01       		.byte	0x1
 1352 048f 4F       		.byte	0x4f
 1353 0490 00000000 		.4byte	.LFB7
 1354 0494 08000000 		.4byte	.LFE7-.LFB7
 1355 0498 01       		.uleb128 0x1
 1356 0499 9C       		.byte	0x9c
 1357 049a B6040000 		.4byte	0x4b6
 1358 049e 14       		.uleb128 0x14
 1359 049f 737000   		.ascii	"sp\000"
 1360 04a2 01       		.byte	0x1
 1361 04a3 4F       		.byte	0x4f
ARM GAS  /var/folders/qh/xwg3v3kj02qbxczjpdb8lzfr0000gn/T//cc1yMur7.s 			page 25


 1362 04a4 B6040000 		.4byte	0x4b6
 1363 04a8 01       		.uleb128 0x1
 1364 04a9 50       		.byte	0x50
 1365 04aa 14       		.uleb128 0x14
 1366 04ab 6E00     		.ascii	"n\000"
 1367 04ad 01       		.byte	0x1
 1368 04ae 4F       		.byte	0x4f
 1369 04af EB000000 		.4byte	0xeb
 1370 04b3 01       		.uleb128 0x1
 1371 04b4 51       		.byte	0x51
 1372 04b5 00       		.byte	0
 1373 04b6 09       		.uleb128 0x9
 1374 04b7 04       		.byte	0x4
 1375 04b8 7B030000 		.4byte	0x37b
 1376 04bc 13       		.uleb128 0x13
 1377 04bd 83040000 		.4byte	.LASF70
 1378 04c1 01       		.byte	0x1
 1379 04c2 81       		.byte	0x81
 1380 04c3 00000000 		.4byte	.LFB9
 1381 04c7 2E000000 		.4byte	.LFE9-.LFB9
 1382 04cb 01       		.uleb128 0x1
 1383 04cc 9C       		.byte	0x9c
 1384 04cd 3A050000 		.4byte	0x53a
 1385 04d1 15       		.uleb128 0x15
 1386 04d2 737000   		.ascii	"sp\000"
 1387 04d5 01       		.byte	0x1
 1388 04d6 81       		.byte	0x81
 1389 04d7 B6040000 		.4byte	0x4b6
 1390 04db 00000000 		.4byte	.LLST0
 1391 04df 15       		.uleb128 0x15
 1392 04e0 6E00     		.ascii	"n\000"
 1393 04e2 01       		.byte	0x1
 1394 04e3 81       		.byte	0x81
 1395 04e4 EB000000 		.4byte	0xeb
 1396 04e8 2C000000 		.4byte	.LLST1
 1397 04ec 16       		.uleb128 0x16
 1398 04ed 636E7400 		.ascii	"cnt\000"
 1399 04f1 01       		.byte	0x1
 1400 04f2 82       		.byte	0x82
 1401 04f3 EB000000 		.4byte	0xeb
 1402 04f7 64000000 		.4byte	.LLST2
 1403 04fb 17       		.uleb128 0x17
 1404 04fc 15040000 		.4byte	0x415
 1405 0500 18000000 		.4byte	.LBB20
 1406 0504 00000000 		.4byte	.Ldebug_ranges0+0
 1407 0508 01       		.byte	0x1
 1408 0509 8E       		.byte	0x8e
 1409 050a 27050000 		.4byte	0x527
 1410 050e 18       		.uleb128 0x18
 1411 050f 25040000 		.4byte	0x425
 1412 0513 8F000000 		.4byte	.LLST3
 1413 0517 19       		.uleb128 0x19
 1414 0518 00000000 		.4byte	.Ldebug_ranges0+0
 1415 051c 1A       		.uleb128 0x1a
 1416 051d 30040000 		.4byte	0x430
 1417 0521 A2000000 		.4byte	.LLST4
 1418 0525 00       		.byte	0
ARM GAS  /var/folders/qh/xwg3v3kj02qbxczjpdb8lzfr0000gn/T//cc1yMur7.s 			page 26


 1419 0526 00       		.byte	0
 1420 0527 1B       		.uleb128 0x1b
 1421 0528 0A000000 		.4byte	.LVL2
 1422 052c B5090000 		.4byte	0x9b5
 1423 0530 1B       		.uleb128 0x1b
 1424 0531 26000000 		.4byte	.LVL9
 1425 0535 BC090000 		.4byte	0x9bc
 1426 0539 00       		.byte	0
 1427 053a 13       		.uleb128 0x13
 1428 053b B0010000 		.4byte	.LASF71
 1429 053f 01       		.byte	0x1
 1430 0540 66       		.byte	0x66
 1431 0541 00000000 		.4byte	.LFB8
 1432 0545 20000000 		.4byte	.LFE8-.LFB8
 1433 0549 01       		.uleb128 0x1
 1434 054a 9C       		.byte	0x9c
 1435 054b A0050000 		.4byte	0x5a0
 1436 054f 15       		.uleb128 0x15
 1437 0550 737000   		.ascii	"sp\000"
 1438 0553 01       		.byte	0x1
 1439 0554 66       		.byte	0x66
 1440 0555 B6040000 		.4byte	0x4b6
 1441 0559 B5000000 		.4byte	.LLST5
 1442 055d 15       		.uleb128 0x15
 1443 055e 6E00     		.ascii	"n\000"
 1444 0560 01       		.byte	0x1
 1445 0561 66       		.byte	0x66
 1446 0562 EB000000 		.4byte	0xeb
 1447 0566 E1000000 		.4byte	.LLST6
 1448 056a 1B       		.uleb128 0x1b
 1449 056b 0C000000 		.4byte	.LVL15
 1450 056f D1090000 		.4byte	0x9d1
 1451 0573 1C       		.uleb128 0x1c
 1452 0574 14000000 		.4byte	.LVL16
 1453 0578 BC040000 		.4byte	0x4bc
 1454 057c 8D050000 		.4byte	0x58d
 1455 0580 1D       		.uleb128 0x1d
 1456 0581 01       		.uleb128 0x1
 1457 0582 51       		.byte	0x51
 1458 0583 02       		.uleb128 0x2
 1459 0584 74       		.byte	0x74
 1460 0585 00       		.sleb128 0
 1461 0586 1D       		.uleb128 0x1d
 1462 0587 01       		.uleb128 0x1
 1463 0588 50       		.byte	0x50
 1464 0589 02       		.uleb128 0x2
 1465 058a 75       		.byte	0x75
 1466 058b 00       		.sleb128 0
 1467 058c 00       		.byte	0
 1468 058d 1B       		.uleb128 0x1b
 1469 058e 18000000 		.4byte	.LVL17
 1470 0592 D8090000 		.4byte	0x9d8
 1471 0596 1B       		.uleb128 0x1b
 1472 0597 1C000000 		.4byte	.LVL18
 1473 059b DF090000 		.4byte	0x9df
 1474 059f 00       		.byte	0
 1475 05a0 1E       		.uleb128 0x1e
ARM GAS  /var/folders/qh/xwg3v3kj02qbxczjpdb8lzfr0000gn/T//cc1yMur7.s 			page 27


 1476 05a1 A5030000 		.4byte	.LASF72
 1477 05a5 01       		.byte	0x1
 1478 05a6 B2       		.byte	0xb2
 1479 05a7 CA000000 		.4byte	0xca
 1480 05ab 00000000 		.4byte	.LFB11
 1481 05af 38000000 		.4byte	.LFE11-.LFB11
 1482 05b3 01       		.uleb128 0x1
 1483 05b4 9C       		.byte	0x9c
 1484 05b5 06060000 		.4byte	0x606
 1485 05b9 15       		.uleb128 0x15
 1486 05ba 737000   		.ascii	"sp\000"
 1487 05bd 01       		.byte	0x1
 1488 05be B2       		.byte	0xb2
 1489 05bf B6040000 		.4byte	0x4b6
 1490 05c3 0D010000 		.4byte	.LLST7
 1491 05c7 1F       		.uleb128 0x1f
 1492 05c8 41040000 		.4byte	0x441
 1493 05cc 1E000000 		.4byte	.LBB24
 1494 05d0 0A000000 		.4byte	.LBE24-.LBB24
 1495 05d4 01       		.byte	0x1
 1496 05d5 BD       		.byte	0xbd
 1497 05d6 ED050000 		.4byte	0x5ed
 1498 05da 18       		.uleb128 0x18
 1499 05db 57040000 		.4byte	0x457
 1500 05df 44010000 		.4byte	.LLST8
 1501 05e3 18       		.uleb128 0x18
 1502 05e4 4D040000 		.4byte	0x44d
 1503 05e8 6F010000 		.4byte	.LLST9
 1504 05ec 00       		.byte	0
 1505 05ed 1B       		.uleb128 0x1b
 1506 05ee 08000000 		.4byte	.LVL22
 1507 05f2 E6090000 		.4byte	0x9e6
 1508 05f6 20       		.uleb128 0x20
 1509 05f7 2C000000 		.4byte	.LVL28
 1510 05fb ED090000 		.4byte	0x9ed
 1511 05ff 1D       		.uleb128 0x1d
 1512 0600 01       		.uleb128 0x1
 1513 0601 50       		.byte	0x50
 1514 0602 01       		.uleb128 0x1
 1515 0603 33       		.byte	0x33
 1516 0604 00       		.byte	0
 1517 0605 00       		.byte	0
 1518 0606 1E       		.uleb128 0x1e
 1519 0607 2C040000 		.4byte	.LASF73
 1520 060b 01       		.byte	0x1
 1521 060c 9D       		.byte	0x9d
 1522 060d CA000000 		.4byte	0xca
 1523 0611 00000000 		.4byte	.LFB10
 1524 0615 1C000000 		.4byte	.LFE10-.LFB10
 1525 0619 01       		.uleb128 0x1
 1526 061a 9C       		.byte	0x9c
 1527 061b 63060000 		.4byte	0x663
 1528 061f 15       		.uleb128 0x15
 1529 0620 737000   		.ascii	"sp\000"
 1530 0623 01       		.byte	0x1
 1531 0624 9D       		.byte	0x9d
 1532 0625 B6040000 		.4byte	0x4b6
ARM GAS  /var/folders/qh/xwg3v3kj02qbxczjpdb8lzfr0000gn/T//cc1yMur7.s 			page 28


 1533 0629 82010000 		.4byte	.LLST10
 1534 062d 16       		.uleb128 0x16
 1535 062e 6D736700 		.ascii	"msg\000"
 1536 0632 01       		.byte	0x1
 1537 0633 9E       		.byte	0x9e
 1538 0634 CA000000 		.4byte	0xca
 1539 0638 AE010000 		.4byte	.LLST11
 1540 063c 1B       		.uleb128 0x1b
 1541 063d 0A000000 		.4byte	.LVL30
 1542 0641 D1090000 		.4byte	0x9d1
 1543 0645 1C       		.uleb128 0x1c
 1544 0646 10000000 		.4byte	.LVL31
 1545 064a A0050000 		.4byte	0x5a0
 1546 064e 59060000 		.4byte	0x659
 1547 0652 1D       		.uleb128 0x1d
 1548 0653 01       		.uleb128 0x1
 1549 0654 50       		.byte	0x50
 1550 0655 02       		.uleb128 0x2
 1551 0656 74       		.byte	0x74
 1552 0657 00       		.sleb128 0
 1553 0658 00       		.byte	0
 1554 0659 1B       		.uleb128 0x1b
 1555 065a 16000000 		.4byte	.LVL33
 1556 065e DF090000 		.4byte	0x9df
 1557 0662 00       		.byte	0
 1558 0663 1E       		.uleb128 0x1e
 1559 0664 FE030000 		.4byte	.LASF74
 1560 0668 01       		.byte	0x1
 1561 0669 F3       		.byte	0xf3
 1562 066a CA000000 		.4byte	0xca
 1563 066e 00000000 		.4byte	.LFB13
 1564 0672 44000000 		.4byte	.LFE13-.LFB13
 1565 0676 01       		.uleb128 0x1
 1566 0677 9C       		.byte	0x9c
 1567 0678 DF060000 		.4byte	0x6df
 1568 067c 15       		.uleb128 0x15
 1569 067d 737000   		.ascii	"sp\000"
 1570 0680 01       		.byte	0x1
 1571 0681 F3       		.byte	0xf3
 1572 0682 B6040000 		.4byte	0x4b6
 1573 0686 D7010000 		.4byte	.LLST12
 1574 068a 21       		.uleb128 0x21
 1575 068b 18030000 		.4byte	.LASF75
 1576 068f 01       		.byte	0x1
 1577 0690 F3       		.byte	0xf3
 1578 0691 E0000000 		.4byte	0xe0
 1579 0695 0E020000 		.4byte	.LLST13
 1580 0699 22       		.uleb128 0x22
 1581 069a 41040000 		.4byte	0x441
 1582 069e 26000000 		.4byte	.LBB26
 1583 06a2 0A000000 		.4byte	.LBE26-.LBB26
 1584 06a6 01       		.byte	0x1
 1585 06a7 0201     		.2byte	0x102
 1586 06a9 C0060000 		.4byte	0x6c0
 1587 06ad 18       		.uleb128 0x18
 1588 06ae 57040000 		.4byte	0x457
 1589 06b2 45020000 		.4byte	.LLST14
ARM GAS  /var/folders/qh/xwg3v3kj02qbxczjpdb8lzfr0000gn/T//cc1yMur7.s 			page 29


 1590 06b6 18       		.uleb128 0x18
 1591 06b7 4D040000 		.4byte	0x44d
 1592 06bb 70020000 		.4byte	.LLST15
 1593 06bf 00       		.byte	0
 1594 06c0 1B       		.uleb128 0x1b
 1595 06c1 0A000000 		.4byte	.LVL36
 1596 06c5 E6090000 		.4byte	0x9e6
 1597 06c9 20       		.uleb128 0x20
 1598 06ca 34000000 		.4byte	.LVL43
 1599 06ce FE090000 		.4byte	0x9fe
 1600 06d2 1D       		.uleb128 0x1d
 1601 06d3 01       		.uleb128 0x1
 1602 06d4 51       		.byte	0x51
 1603 06d5 02       		.uleb128 0x2
 1604 06d6 75       		.byte	0x75
 1605 06d7 00       		.sleb128 0
 1606 06d8 1D       		.uleb128 0x1d
 1607 06d9 01       		.uleb128 0x1
 1608 06da 50       		.byte	0x50
 1609 06db 01       		.uleb128 0x1
 1610 06dc 33       		.byte	0x33
 1611 06dd 00       		.byte	0
 1612 06de 00       		.byte	0
 1613 06df 1E       		.uleb128 0x1e
 1614 06e0 31010000 		.4byte	.LASF76
 1615 06e4 01       		.byte	0x1
 1616 06e5 D7       		.byte	0xd7
 1617 06e6 CA000000 		.4byte	0xca
 1618 06ea 00000000 		.4byte	.LFB12
 1619 06ee 20000000 		.4byte	.LFE12-.LFB12
 1620 06f2 01       		.uleb128 0x1
 1621 06f3 9C       		.byte	0x9c
 1622 06f4 51070000 		.4byte	0x751
 1623 06f8 15       		.uleb128 0x15
 1624 06f9 737000   		.ascii	"sp\000"
 1625 06fc 01       		.byte	0x1
 1626 06fd D7       		.byte	0xd7
 1627 06fe B6040000 		.4byte	0x4b6
 1628 0702 83020000 		.4byte	.LLST16
 1629 0706 21       		.uleb128 0x21
 1630 0707 18030000 		.4byte	.LASF75
 1631 070b 01       		.byte	0x1
 1632 070c D7       		.byte	0xd7
 1633 070d E0000000 		.4byte	0xe0
 1634 0711 AF020000 		.4byte	.LLST17
 1635 0715 16       		.uleb128 0x16
 1636 0716 6D736700 		.ascii	"msg\000"
 1637 071a 01       		.byte	0x1
 1638 071b D8       		.byte	0xd8
 1639 071c CA000000 		.4byte	0xca
 1640 0720 DB020000 		.4byte	.LLST18
 1641 0724 1B       		.uleb128 0x1b
 1642 0725 0C000000 		.4byte	.LVL46
 1643 0729 D1090000 		.4byte	0x9d1
 1644 072d 1C       		.uleb128 0x1c
 1645 072e 14000000 		.4byte	.LVL47
 1646 0732 63060000 		.4byte	0x663
ARM GAS  /var/folders/qh/xwg3v3kj02qbxczjpdb8lzfr0000gn/T//cc1yMur7.s 			page 30


 1647 0736 47070000 		.4byte	0x747
 1648 073a 1D       		.uleb128 0x1d
 1649 073b 01       		.uleb128 0x1
 1650 073c 51       		.byte	0x51
 1651 073d 02       		.uleb128 0x2
 1652 073e 74       		.byte	0x74
 1653 073f 00       		.sleb128 0
 1654 0740 1D       		.uleb128 0x1d
 1655 0741 01       		.uleb128 0x1
 1656 0742 50       		.byte	0x50
 1657 0743 02       		.uleb128 0x2
 1658 0744 75       		.byte	0x75
 1659 0745 00       		.sleb128 0
 1660 0746 00       		.byte	0
 1661 0747 1B       		.uleb128 0x1b
 1662 0748 1A000000 		.4byte	.LVL49
 1663 074c DF090000 		.4byte	0x9df
 1664 0750 00       		.byte	0
 1665 0751 23       		.uleb128 0x23
 1666 0752 E0000000 		.4byte	.LASF77
 1667 0756 01       		.byte	0x1
 1668 0757 0F01     		.2byte	0x10f
 1669 0759 00000000 		.4byte	.LFB14
 1670 075d 2C000000 		.4byte	.LFE14-.LFB14
 1671 0761 01       		.uleb128 0x1
 1672 0762 9C       		.byte	0x9c
 1673 0763 C3070000 		.4byte	0x7c3
 1674 0767 24       		.uleb128 0x24
 1675 0768 737000   		.ascii	"sp\000"
 1676 076b 01       		.byte	0x1
 1677 076c 0F01     		.2byte	0x10f
 1678 076e B6040000 		.4byte	0x4b6
 1679 0772 04030000 		.4byte	.LLST19
 1680 0776 25       		.uleb128 0x25
 1681 0777 63040000 		.4byte	0x463
 1682 077b 1C000000 		.4byte	.LBB28
 1683 077f 18000000 		.4byte	.Ldebug_ranges0+0x18
 1684 0783 01       		.byte	0x1
 1685 0784 1901     		.2byte	0x119
 1686 0786 A1070000 		.4byte	0x7a1
 1687 078a 26       		.uleb128 0x26
 1688 078b 73040000 		.4byte	0x473
 1689 078f 01       		.uleb128 0x1
 1690 0790 54       		.byte	0x54
 1691 0791 19       		.uleb128 0x19
 1692 0792 18000000 		.4byte	.Ldebug_ranges0+0x18
 1693 0796 1A       		.uleb128 0x1a
 1694 0797 7E040000 		.4byte	0x47e
 1695 079b 3B030000 		.4byte	.LLST20
 1696 079f 00       		.byte	0
 1697 07a0 00       		.byte	0
 1698 07a1 1B       		.uleb128 0x1b
 1699 07a2 0A000000 		.4byte	.LVL53
 1700 07a6 D1090000 		.4byte	0x9d1
 1701 07aa 1B       		.uleb128 0x1b
 1702 07ab 18000000 		.4byte	.LVL54
 1703 07af DF090000 		.4byte	0x9df
ARM GAS  /var/folders/qh/xwg3v3kj02qbxczjpdb8lzfr0000gn/T//cc1yMur7.s 			page 31


 1704 07b3 20       		.uleb128 0x20
 1705 07b4 2A000000 		.4byte	.LVL58
 1706 07b8 180A0000 		.4byte	0xa18
 1707 07bc 1D       		.uleb128 0x1d
 1708 07bd 01       		.uleb128 0x1
 1709 07be 51       		.byte	0x51
 1710 07bf 01       		.uleb128 0x1
 1711 07c0 30       		.byte	0x30
 1712 07c1 00       		.byte	0
 1713 07c2 00       		.byte	0
 1714 07c3 23       		.uleb128 0x23
 1715 07c4 13000000 		.4byte	.LASF78
 1716 07c8 01       		.byte	0x1
 1717 07c9 2801     		.2byte	0x128
 1718 07cb 00000000 		.4byte	.LFB15
 1719 07cf 26000000 		.4byte	.LFE15-.LFB15
 1720 07d3 01       		.uleb128 0x1
 1721 07d4 9C       		.byte	0x9c
 1722 07d5 45080000 		.4byte	0x845
 1723 07d9 24       		.uleb128 0x24
 1724 07da 737000   		.ascii	"sp\000"
 1725 07dd 01       		.byte	0x1
 1726 07de 2801     		.2byte	0x128
 1727 07e0 B6040000 		.4byte	0x4b6
 1728 07e4 4E030000 		.4byte	.LLST21
 1729 07e8 27       		.uleb128 0x27
 1730 07e9 14000000 		.4byte	.LBB32
 1731 07ed 12000000 		.4byte	.LBE32-.LBB32
 1732 07f1 3B080000 		.4byte	0x83b
 1733 07f5 28       		.uleb128 0x28
 1734 07f6 747000   		.ascii	"tp\000"
 1735 07f9 01       		.byte	0x1
 1736 07fa 3401     		.2byte	0x134
 1737 07fc 1F020000 		.4byte	0x21f
 1738 0800 01       		.uleb128 0x1
 1739 0801 50       		.byte	0x50
 1740 0802 22       		.uleb128 0x22
 1741 0803 63040000 		.4byte	0x463
 1742 0807 14000000 		.4byte	.LBB33
 1743 080b 08000000 		.4byte	.LBE33-.LBB33
 1744 080f 01       		.byte	0x1
 1745 0810 3401     		.2byte	0x134
 1746 0812 31080000 		.4byte	0x831
 1747 0816 26       		.uleb128 0x26
 1748 0817 73040000 		.4byte	0x473
 1749 081b 01       		.uleb128 0x1
 1750 081c 54       		.byte	0x54
 1751 081d 29       		.uleb128 0x29
 1752 081e 14000000 		.4byte	.LBB34
 1753 0822 08000000 		.4byte	.LBE34-.LBB34
 1754 0826 1A       		.uleb128 0x1a
 1755 0827 7E040000 		.4byte	0x47e
 1756 082b 85030000 		.4byte	.LLST22
 1757 082f 00       		.byte	0
 1758 0830 00       		.byte	0
 1759 0831 1B       		.uleb128 0x1b
 1760 0832 24000000 		.4byte	.LVL64
ARM GAS  /var/folders/qh/xwg3v3kj02qbxczjpdb8lzfr0000gn/T//cc1yMur7.s 			page 32


 1761 0836 BC090000 		.4byte	0x9bc
 1762 083a 00       		.byte	0
 1763 083b 1B       		.uleb128 0x1b
 1764 083c 08000000 		.4byte	.LVL60
 1765 0840 B5090000 		.4byte	0x9b5
 1766 0844 00       		.byte	0
 1767 0845 23       		.uleb128 0x23
 1768 0846 56000000 		.4byte	.LASF79
 1769 084a 01       		.byte	0x1
 1770 084b 4701     		.2byte	0x147
 1771 084d 00000000 		.4byte	.LFB16
 1772 0851 38000000 		.4byte	.LFE16-.LFB16
 1773 0855 01       		.uleb128 0x1
 1774 0856 9C       		.byte	0x9c
 1775 0857 B8080000 		.4byte	0x8b8
 1776 085b 24       		.uleb128 0x24
 1777 085c 737000   		.ascii	"sp\000"
 1778 085f 01       		.byte	0x1
 1779 0860 4701     		.2byte	0x147
 1780 0862 B6040000 		.4byte	0x4b6
 1781 0866 98030000 		.4byte	.LLST23
 1782 086a 24       		.uleb128 0x24
 1783 086b 6E00     		.ascii	"n\000"
 1784 086d 01       		.byte	0x1
 1785 086e 4701     		.2byte	0x147
 1786 0870 EB000000 		.4byte	0xeb
 1787 0874 C4030000 		.4byte	.LLST24
 1788 0878 25       		.uleb128 0x25
 1789 0879 63040000 		.4byte	0x463
 1790 087d 22000000 		.4byte	.LBB35
 1791 0881 30000000 		.4byte	.Ldebug_ranges0+0x30
 1792 0885 01       		.byte	0x1
 1793 0886 5201     		.2byte	0x152
 1794 0888 A5080000 		.4byte	0x8a5
 1795 088c 18       		.uleb128 0x18
 1796 088d 73040000 		.4byte	0x473
 1797 0891 FA030000 		.4byte	.LLST25
 1798 0895 19       		.uleb128 0x19
 1799 0896 30000000 		.4byte	.Ldebug_ranges0+0x30
 1800 089a 1A       		.uleb128 0x1a
 1801 089b 7E040000 		.4byte	0x47e
 1802 089f 0D040000 		.4byte	.LLST26
 1803 08a3 00       		.byte	0
 1804 08a4 00       		.byte	0
 1805 08a5 1B       		.uleb128 0x1b
 1806 08a6 0C000000 		.4byte	.LVL66
 1807 08aa B5090000 		.4byte	0x9b5
 1808 08ae 1B       		.uleb128 0x1b
 1809 08af 30000000 		.4byte	.LVL71
 1810 08b3 BC090000 		.4byte	0x9bc
 1811 08b7 00       		.byte	0
 1812 08b8 2A       		.uleb128 0x2a
 1813 08b9 88000000 		.4byte	.LASF80
 1814 08bd 01       		.byte	0x1
 1815 08be 6701     		.2byte	0x167
 1816 08c0 CA000000 		.4byte	0xca
 1817 08c4 00000000 		.4byte	.LFB17
ARM GAS  /var/folders/qh/xwg3v3kj02qbxczjpdb8lzfr0000gn/T//cc1yMur7.s 			page 33


 1818 08c8 60000000 		.4byte	.LFE17-.LFB17
 1819 08cc 01       		.uleb128 0x1
 1820 08cd 9C       		.byte	0x9c
 1821 08ce AA090000 		.4byte	0x9aa
 1822 08d2 24       		.uleb128 0x24
 1823 08d3 73707300 		.ascii	"sps\000"
 1824 08d7 01       		.byte	0x1
 1825 08d8 6701     		.2byte	0x167
 1826 08da B6040000 		.4byte	0x4b6
 1827 08de 20040000 		.4byte	.LLST27
 1828 08e2 24       		.uleb128 0x24
 1829 08e3 73707700 		.ascii	"spw\000"
 1830 08e7 01       		.byte	0x1
 1831 08e8 6701     		.2byte	0x167
 1832 08ea B6040000 		.4byte	0x4b6
 1833 08ee 70040000 		.4byte	.LLST28
 1834 08f2 2B       		.uleb128 0x2b
 1835 08f3 6D736700 		.ascii	"msg\000"
 1836 08f7 01       		.byte	0x1
 1837 08f8 6801     		.2byte	0x168
 1838 08fa CA000000 		.4byte	0xca
 1839 08fe C0040000 		.4byte	.LLST29
 1840 0902 27       		.uleb128 0x27
 1841 0903 30000000 		.4byte	.LBB39
 1842 0907 18000000 		.4byte	.LBE39-.LBB39
 1843 090b 56090000 		.4byte	0x956
 1844 090f 2B       		.uleb128 0x2b
 1845 0910 63747000 		.ascii	"ctp\000"
 1846 0914 01       		.byte	0x1
 1847 0915 7801     		.2byte	0x178
 1848 0917 1F020000 		.4byte	0x21f
 1849 091b F5040000 		.4byte	.LLST30
 1850 091f 22       		.uleb128 0x22
 1851 0920 41040000 		.4byte	0x441
 1852 0924 36000000 		.4byte	.LBB40
 1853 0928 0A000000 		.4byte	.LBE40-.LBB40
 1854 092c 01       		.byte	0x1
 1855 092d 7901     		.2byte	0x179
 1856 092f 46090000 		.4byte	0x946
 1857 0933 18       		.uleb128 0x18
 1858 0934 57040000 		.4byte	0x457
 1859 0938 08050000 		.4byte	.LLST31
 1860 093c 18       		.uleb128 0x18
 1861 093d 4D040000 		.4byte	0x44d
 1862 0941 F5040000 		.4byte	.LLST30
 1863 0945 00       		.byte	0
 1864 0946 20       		.uleb128 0x20
 1865 0947 46000000 		.4byte	.LVL83
 1866 094b ED090000 		.4byte	0x9ed
 1867 094f 1D       		.uleb128 0x1d
 1868 0950 01       		.uleb128 0x1
 1869 0951 50       		.byte	0x50
 1870 0952 01       		.uleb128 0x1
 1871 0953 33       		.byte	0x33
 1872 0954 00       		.byte	0
 1873 0955 00       		.byte	0
 1874 0956 22       		.uleb128 0x22
ARM GAS  /var/folders/qh/xwg3v3kj02qbxczjpdb8lzfr0000gn/T//cc1yMur7.s 			page 34


 1875 0957 63040000 		.4byte	0x463
 1876 095b 4A000000 		.4byte	.LBB42
 1877 095f 08000000 		.4byte	.LBE42-.LBB42
 1878 0963 01       		.byte	0x1
 1879 0964 7601     		.2byte	0x176
 1880 0966 85090000 		.4byte	0x985
 1881 096a 26       		.uleb128 0x26
 1882 096b 73040000 		.4byte	0x473
 1883 096f 01       		.uleb128 0x1
 1884 0970 55       		.byte	0x55
 1885 0971 29       		.uleb128 0x29
 1886 0972 4A000000 		.4byte	.LBB43
 1887 0976 08000000 		.4byte	.LBE43-.LBB43
 1888 097a 1A       		.uleb128 0x1a
 1889 097b 7E040000 		.4byte	0x47e
 1890 097f 29050000 		.4byte	.LLST33
 1891 0983 00       		.byte	0
 1892 0984 00       		.byte	0
 1893 0985 1B       		.uleb128 0x1b
 1894 0986 0C000000 		.4byte	.LVL76
 1895 098a D1090000 		.4byte	0x9d1
 1896 098e 1B       		.uleb128 0x1b
 1897 098f 24000000 		.4byte	.LVL77
 1898 0993 D8090000 		.4byte	0x9d8
 1899 0997 1B       		.uleb128 0x1b
 1900 0998 2A000000 		.4byte	.LVL79
 1901 099c DF090000 		.4byte	0x9df
 1902 09a0 1B       		.uleb128 0x1b
 1903 09a1 56000000 		.4byte	.LVL87
 1904 09a5 BC090000 		.4byte	0x9bc
 1905 09a9 00       		.byte	0
 1906 09aa 2C       		.uleb128 0x2c
 1907 09ab 8F040000 		.4byte	.LASF92
 1908 09af 08       		.byte	0x8
 1909 09b0 68       		.byte	0x68
 1910 09b1 4B030000 		.4byte	0x34b
 1911 09b5 2D       		.uleb128 0x2d
 1912 09b6 C1010000 		.4byte	.LASF81
 1913 09ba 0B       		.byte	0xb
 1914 09bb E6       		.byte	0xe6
 1915 09bc 2E       		.uleb128 0x2e
 1916 09bd E1030000 		.4byte	.LASF86
 1917 09c1 08       		.byte	0x8
 1918 09c2 89       		.byte	0x89
 1919 09c3 1F020000 		.4byte	0x21f
 1920 09c7 D1090000 		.4byte	0x9d1
 1921 09cb 2F       		.uleb128 0x2f
 1922 09cc 1F020000 		.4byte	0x21f
 1923 09d0 00       		.byte	0
 1924 09d1 2D       		.uleb128 0x2d
 1925 09d2 27000000 		.4byte	.LASF82
 1926 09d6 0B       		.byte	0xb
 1927 09d7 E0       		.byte	0xe0
 1928 09d8 2D       		.uleb128 0x2d
 1929 09d9 FC000000 		.4byte	.LASF83
 1930 09dd 08       		.byte	0x8
 1931 09de 95       		.byte	0x95
ARM GAS  /var/folders/qh/xwg3v3kj02qbxczjpdb8lzfr0000gn/T//cc1yMur7.s 			page 35


 1932 09df 2D       		.uleb128 0x2d
 1933 09e0 09020000 		.4byte	.LASF84
 1934 09e4 0B       		.byte	0xb
 1935 09e5 E1       		.byte	0xe1
 1936 09e6 2D       		.uleb128 0x2d
 1937 09e7 DA010000 		.4byte	.LASF85
 1938 09eb 0B       		.byte	0xb
 1939 09ec E7       		.byte	0xe7
 1940 09ed 30       		.uleb128 0x30
 1941 09ee B7030000 		.4byte	.LASF93
 1942 09f2 08       		.byte	0x8
 1943 09f3 8C       		.byte	0x8c
 1944 09f4 FE090000 		.4byte	0x9fe
 1945 09f8 2F       		.uleb128 0x2f
 1946 09f9 9E000000 		.4byte	0x9e
 1947 09fd 00       		.byte	0
 1948 09fe 2E       		.uleb128 0x2e
 1949 09ff AB040000 		.4byte	.LASF87
 1950 0a03 08       		.byte	0x8
 1951 0a04 8F       		.byte	0x8f
 1952 0a05 CA000000 		.4byte	0xca
 1953 0a09 180A0000 		.4byte	0xa18
 1954 0a0d 2F       		.uleb128 0x2f
 1955 0a0e 9E000000 		.4byte	0x9e
 1956 0a12 2F       		.uleb128 0x2f
 1957 0a13 E0000000 		.4byte	0xe0
 1958 0a17 00       		.byte	0
 1959 0a18 31       		.uleb128 0x31
 1960 0a19 5B040000 		.4byte	.LASF94
 1961 0a1d 08       		.byte	0x8
 1962 0a1e 92       		.byte	0x92
 1963 0a1f 2F       		.uleb128 0x2f
 1964 0a20 1F020000 		.4byte	0x21f
 1965 0a24 2F       		.uleb128 0x2f
 1966 0a25 CA000000 		.4byte	0xca
 1967 0a29 00       		.byte	0
 1968 0a2a 00       		.byte	0
 1969              		.section	.debug_abbrev,"",%progbits
 1970              	.Ldebug_abbrev0:
 1971 0000 01       		.uleb128 0x1
 1972 0001 11       		.uleb128 0x11
 1973 0002 01       		.byte	0x1
 1974 0003 25       		.uleb128 0x25
 1975 0004 0E       		.uleb128 0xe
 1976 0005 13       		.uleb128 0x13
 1977 0006 0B       		.uleb128 0xb
 1978 0007 03       		.uleb128 0x3
 1979 0008 0E       		.uleb128 0xe
 1980 0009 1B       		.uleb128 0x1b
 1981 000a 0E       		.uleb128 0xe
 1982 000b 55       		.uleb128 0x55
 1983 000c 17       		.uleb128 0x17
 1984 000d 11       		.uleb128 0x11
 1985 000e 01       		.uleb128 0x1
 1986 000f 10       		.uleb128 0x10
 1987 0010 17       		.uleb128 0x17
 1988 0011 00       		.byte	0
ARM GAS  /var/folders/qh/xwg3v3kj02qbxczjpdb8lzfr0000gn/T//cc1yMur7.s 			page 36


 1989 0012 00       		.byte	0
 1990 0013 02       		.uleb128 0x2
 1991 0014 24       		.uleb128 0x24
 1992 0015 00       		.byte	0
 1993 0016 0B       		.uleb128 0xb
 1994 0017 0B       		.uleb128 0xb
 1995 0018 3E       		.uleb128 0x3e
 1996 0019 0B       		.uleb128 0xb
 1997 001a 03       		.uleb128 0x3
 1998 001b 08       		.uleb128 0x8
 1999 001c 00       		.byte	0
 2000 001d 00       		.byte	0
 2001 001e 03       		.uleb128 0x3
 2002 001f 24       		.uleb128 0x24
 2003 0020 00       		.byte	0
 2004 0021 0B       		.uleb128 0xb
 2005 0022 0B       		.uleb128 0xb
 2006 0023 3E       		.uleb128 0x3e
 2007 0024 0B       		.uleb128 0xb
 2008 0025 03       		.uleb128 0x3
 2009 0026 0E       		.uleb128 0xe
 2010 0027 00       		.byte	0
 2011 0028 00       		.byte	0
 2012 0029 04       		.uleb128 0x4
 2013 002a 16       		.uleb128 0x16
 2014 002b 00       		.byte	0
 2015 002c 03       		.uleb128 0x3
 2016 002d 0E       		.uleb128 0xe
 2017 002e 3A       		.uleb128 0x3a
 2018 002f 0B       		.uleb128 0xb
 2019 0030 3B       		.uleb128 0x3b
 2020 0031 0B       		.uleb128 0xb
 2021 0032 49       		.uleb128 0x49
 2022 0033 13       		.uleb128 0x13
 2023 0034 00       		.byte	0
 2024 0035 00       		.byte	0
 2025 0036 05       		.uleb128 0x5
 2026 0037 13       		.uleb128 0x13
 2027 0038 01       		.byte	0x1
 2028 0039 03       		.uleb128 0x3
 2029 003a 0E       		.uleb128 0xe
 2030 003b 0B       		.uleb128 0xb
 2031 003c 0B       		.uleb128 0xb
 2032 003d 3A       		.uleb128 0x3a
 2033 003e 0B       		.uleb128 0xb
 2034 003f 3B       		.uleb128 0x3b
 2035 0040 0B       		.uleb128 0xb
 2036 0041 01       		.uleb128 0x1
 2037 0042 13       		.uleb128 0x13
 2038 0043 00       		.byte	0
 2039 0044 00       		.byte	0
 2040 0045 06       		.uleb128 0x6
 2041 0046 0D       		.uleb128 0xd
 2042 0047 00       		.byte	0
 2043 0048 03       		.uleb128 0x3
 2044 0049 0E       		.uleb128 0xe
 2045 004a 3A       		.uleb128 0x3a
ARM GAS  /var/folders/qh/xwg3v3kj02qbxczjpdb8lzfr0000gn/T//cc1yMur7.s 			page 37


 2046 004b 0B       		.uleb128 0xb
 2047 004c 3B       		.uleb128 0x3b
 2048 004d 0B       		.uleb128 0xb
 2049 004e 49       		.uleb128 0x49
 2050 004f 13       		.uleb128 0x13
 2051 0050 38       		.uleb128 0x38
 2052 0051 0B       		.uleb128 0xb
 2053 0052 00       		.byte	0
 2054 0053 00       		.byte	0
 2055 0054 07       		.uleb128 0x7
 2056 0055 0D       		.uleb128 0xd
 2057 0056 00       		.byte	0
 2058 0057 03       		.uleb128 0x3
 2059 0058 08       		.uleb128 0x8
 2060 0059 3A       		.uleb128 0x3a
 2061 005a 0B       		.uleb128 0xb
 2062 005b 3B       		.uleb128 0x3b
 2063 005c 0B       		.uleb128 0xb
 2064 005d 49       		.uleb128 0x49
 2065 005e 13       		.uleb128 0x13
 2066 005f 38       		.uleb128 0x38
 2067 0060 0B       		.uleb128 0xb
 2068 0061 00       		.byte	0
 2069 0062 00       		.byte	0
 2070 0063 08       		.uleb128 0x8
 2071 0064 13       		.uleb128 0x13
 2072 0065 01       		.byte	0x1
 2073 0066 0B       		.uleb128 0xb
 2074 0067 0B       		.uleb128 0xb
 2075 0068 3A       		.uleb128 0x3a
 2076 0069 0B       		.uleb128 0xb
 2077 006a 3B       		.uleb128 0x3b
 2078 006b 0B       		.uleb128 0xb
 2079 006c 01       		.uleb128 0x1
 2080 006d 13       		.uleb128 0x13
 2081 006e 00       		.byte	0
 2082 006f 00       		.byte	0
 2083 0070 09       		.uleb128 0x9
 2084 0071 0F       		.uleb128 0xf
 2085 0072 00       		.byte	0
 2086 0073 0B       		.uleb128 0xb
 2087 0074 0B       		.uleb128 0xb
 2088 0075 49       		.uleb128 0x49
 2089 0076 13       		.uleb128 0x13
 2090 0077 00       		.byte	0
 2091 0078 00       		.byte	0
 2092 0079 0A       		.uleb128 0xa
 2093 007a 0F       		.uleb128 0xf
 2094 007b 00       		.byte	0
 2095 007c 0B       		.uleb128 0xb
 2096 007d 0B       		.uleb128 0xb
 2097 007e 00       		.byte	0
 2098 007f 00       		.byte	0
 2099 0080 0B       		.uleb128 0xb
 2100 0081 35       		.uleb128 0x35
 2101 0082 00       		.byte	0
 2102 0083 49       		.uleb128 0x49
ARM GAS  /var/folders/qh/xwg3v3kj02qbxczjpdb8lzfr0000gn/T//cc1yMur7.s 			page 38


 2103 0084 13       		.uleb128 0x13
 2104 0085 00       		.byte	0
 2105 0086 00       		.byte	0
 2106 0087 0C       		.uleb128 0xc
 2107 0088 17       		.uleb128 0x17
 2108 0089 01       		.byte	0x1
 2109 008a 0B       		.uleb128 0xb
 2110 008b 0B       		.uleb128 0xb
 2111 008c 3A       		.uleb128 0x3a
 2112 008d 0B       		.uleb128 0xb
 2113 008e 3B       		.uleb128 0x3b
 2114 008f 0B       		.uleb128 0xb
 2115 0090 01       		.uleb128 0x1
 2116 0091 13       		.uleb128 0x13
 2117 0092 00       		.byte	0
 2118 0093 00       		.byte	0
 2119 0094 0D       		.uleb128 0xd
 2120 0095 0D       		.uleb128 0xd
 2121 0096 00       		.byte	0
 2122 0097 03       		.uleb128 0x3
 2123 0098 0E       		.uleb128 0xe
 2124 0099 3A       		.uleb128 0x3a
 2125 009a 0B       		.uleb128 0xb
 2126 009b 3B       		.uleb128 0x3b
 2127 009c 0B       		.uleb128 0xb
 2128 009d 49       		.uleb128 0x49
 2129 009e 13       		.uleb128 0x13
 2130 009f 00       		.byte	0
 2131 00a0 00       		.byte	0
 2132 00a1 0E       		.uleb128 0xe
 2133 00a2 26       		.uleb128 0x26
 2134 00a3 00       		.byte	0
 2135 00a4 49       		.uleb128 0x49
 2136 00a5 13       		.uleb128 0x13
 2137 00a6 00       		.byte	0
 2138 00a7 00       		.byte	0
 2139 00a8 0F       		.uleb128 0xf
 2140 00a9 2E       		.uleb128 0x2e
 2141 00aa 01       		.byte	0x1
 2142 00ab 03       		.uleb128 0x3
 2143 00ac 0E       		.uleb128 0xe
 2144 00ad 3A       		.uleb128 0x3a
 2145 00ae 0B       		.uleb128 0xb
 2146 00af 3B       		.uleb128 0x3b
 2147 00b0 0B       		.uleb128 0xb
 2148 00b1 27       		.uleb128 0x27
 2149 00b2 19       		.uleb128 0x19
 2150 00b3 49       		.uleb128 0x49
 2151 00b4 13       		.uleb128 0x13
 2152 00b5 20       		.uleb128 0x20
 2153 00b6 0B       		.uleb128 0xb
 2154 00b7 01       		.uleb128 0x1
 2155 00b8 13       		.uleb128 0x13
 2156 00b9 00       		.byte	0
 2157 00ba 00       		.byte	0
 2158 00bb 10       		.uleb128 0x10
 2159 00bc 05       		.uleb128 0x5
ARM GAS  /var/folders/qh/xwg3v3kj02qbxczjpdb8lzfr0000gn/T//cc1yMur7.s 			page 39


 2160 00bd 00       		.byte	0
 2161 00be 03       		.uleb128 0x3
 2162 00bf 08       		.uleb128 0x8
 2163 00c0 3A       		.uleb128 0x3a
 2164 00c1 0B       		.uleb128 0xb
 2165 00c2 3B       		.uleb128 0x3b
 2166 00c3 0B       		.uleb128 0xb
 2167 00c4 49       		.uleb128 0x49
 2168 00c5 13       		.uleb128 0x13
 2169 00c6 00       		.byte	0
 2170 00c7 00       		.byte	0
 2171 00c8 11       		.uleb128 0x11
 2172 00c9 34       		.uleb128 0x34
 2173 00ca 00       		.byte	0
 2174 00cb 03       		.uleb128 0x3
 2175 00cc 08       		.uleb128 0x8
 2176 00cd 3A       		.uleb128 0x3a
 2177 00ce 0B       		.uleb128 0xb
 2178 00cf 3B       		.uleb128 0x3b
 2179 00d0 0B       		.uleb128 0xb
 2180 00d1 49       		.uleb128 0x49
 2181 00d2 13       		.uleb128 0x13
 2182 00d3 00       		.byte	0
 2183 00d4 00       		.byte	0
 2184 00d5 12       		.uleb128 0x12
 2185 00d6 2E       		.uleb128 0x2e
 2186 00d7 01       		.byte	0x1
 2187 00d8 03       		.uleb128 0x3
 2188 00d9 0E       		.uleb128 0xe
 2189 00da 3A       		.uleb128 0x3a
 2190 00db 0B       		.uleb128 0xb
 2191 00dc 3B       		.uleb128 0x3b
 2192 00dd 0B       		.uleb128 0xb
 2193 00de 27       		.uleb128 0x27
 2194 00df 19       		.uleb128 0x19
 2195 00e0 20       		.uleb128 0x20
 2196 00e1 0B       		.uleb128 0xb
 2197 00e2 01       		.uleb128 0x1
 2198 00e3 13       		.uleb128 0x13
 2199 00e4 00       		.byte	0
 2200 00e5 00       		.byte	0
 2201 00e6 13       		.uleb128 0x13
 2202 00e7 2E       		.uleb128 0x2e
 2203 00e8 01       		.byte	0x1
 2204 00e9 3F       		.uleb128 0x3f
 2205 00ea 19       		.uleb128 0x19
 2206 00eb 03       		.uleb128 0x3
 2207 00ec 0E       		.uleb128 0xe
 2208 00ed 3A       		.uleb128 0x3a
 2209 00ee 0B       		.uleb128 0xb
 2210 00ef 3B       		.uleb128 0x3b
 2211 00f0 0B       		.uleb128 0xb
 2212 00f1 27       		.uleb128 0x27
 2213 00f2 19       		.uleb128 0x19
 2214 00f3 11       		.uleb128 0x11
 2215 00f4 01       		.uleb128 0x1
 2216 00f5 12       		.uleb128 0x12
ARM GAS  /var/folders/qh/xwg3v3kj02qbxczjpdb8lzfr0000gn/T//cc1yMur7.s 			page 40


 2217 00f6 06       		.uleb128 0x6
 2218 00f7 40       		.uleb128 0x40
 2219 00f8 18       		.uleb128 0x18
 2220 00f9 9742     		.uleb128 0x2117
 2221 00fb 19       		.uleb128 0x19
 2222 00fc 01       		.uleb128 0x1
 2223 00fd 13       		.uleb128 0x13
 2224 00fe 00       		.byte	0
 2225 00ff 00       		.byte	0
 2226 0100 14       		.uleb128 0x14
 2227 0101 05       		.uleb128 0x5
 2228 0102 00       		.byte	0
 2229 0103 03       		.uleb128 0x3
 2230 0104 08       		.uleb128 0x8
 2231 0105 3A       		.uleb128 0x3a
 2232 0106 0B       		.uleb128 0xb
 2233 0107 3B       		.uleb128 0x3b
 2234 0108 0B       		.uleb128 0xb
 2235 0109 49       		.uleb128 0x49
 2236 010a 13       		.uleb128 0x13
 2237 010b 02       		.uleb128 0x2
 2238 010c 18       		.uleb128 0x18
 2239 010d 00       		.byte	0
 2240 010e 00       		.byte	0
 2241 010f 15       		.uleb128 0x15
 2242 0110 05       		.uleb128 0x5
 2243 0111 00       		.byte	0
 2244 0112 03       		.uleb128 0x3
 2245 0113 08       		.uleb128 0x8
 2246 0114 3A       		.uleb128 0x3a
 2247 0115 0B       		.uleb128 0xb
 2248 0116 3B       		.uleb128 0x3b
 2249 0117 0B       		.uleb128 0xb
 2250 0118 49       		.uleb128 0x49
 2251 0119 13       		.uleb128 0x13
 2252 011a 02       		.uleb128 0x2
 2253 011b 17       		.uleb128 0x17
 2254 011c 00       		.byte	0
 2255 011d 00       		.byte	0
 2256 011e 16       		.uleb128 0x16
 2257 011f 34       		.uleb128 0x34
 2258 0120 00       		.byte	0
 2259 0121 03       		.uleb128 0x3
 2260 0122 08       		.uleb128 0x8
 2261 0123 3A       		.uleb128 0x3a
 2262 0124 0B       		.uleb128 0xb
 2263 0125 3B       		.uleb128 0x3b
 2264 0126 0B       		.uleb128 0xb
 2265 0127 49       		.uleb128 0x49
 2266 0128 13       		.uleb128 0x13
 2267 0129 02       		.uleb128 0x2
 2268 012a 17       		.uleb128 0x17
 2269 012b 00       		.byte	0
 2270 012c 00       		.byte	0
 2271 012d 17       		.uleb128 0x17
 2272 012e 1D       		.uleb128 0x1d
 2273 012f 01       		.byte	0x1
ARM GAS  /var/folders/qh/xwg3v3kj02qbxczjpdb8lzfr0000gn/T//cc1yMur7.s 			page 41


 2274 0130 31       		.uleb128 0x31
 2275 0131 13       		.uleb128 0x13
 2276 0132 52       		.uleb128 0x52
 2277 0133 01       		.uleb128 0x1
 2278 0134 55       		.uleb128 0x55
 2279 0135 17       		.uleb128 0x17
 2280 0136 58       		.uleb128 0x58
 2281 0137 0B       		.uleb128 0xb
 2282 0138 59       		.uleb128 0x59
 2283 0139 0B       		.uleb128 0xb
 2284 013a 01       		.uleb128 0x1
 2285 013b 13       		.uleb128 0x13
 2286 013c 00       		.byte	0
 2287 013d 00       		.byte	0
 2288 013e 18       		.uleb128 0x18
 2289 013f 05       		.uleb128 0x5
 2290 0140 00       		.byte	0
 2291 0141 31       		.uleb128 0x31
 2292 0142 13       		.uleb128 0x13
 2293 0143 02       		.uleb128 0x2
 2294 0144 17       		.uleb128 0x17
 2295 0145 00       		.byte	0
 2296 0146 00       		.byte	0
 2297 0147 19       		.uleb128 0x19
 2298 0148 0B       		.uleb128 0xb
 2299 0149 01       		.byte	0x1
 2300 014a 55       		.uleb128 0x55
 2301 014b 17       		.uleb128 0x17
 2302 014c 00       		.byte	0
 2303 014d 00       		.byte	0
 2304 014e 1A       		.uleb128 0x1a
 2305 014f 34       		.uleb128 0x34
 2306 0150 00       		.byte	0
 2307 0151 31       		.uleb128 0x31
 2308 0152 13       		.uleb128 0x13
 2309 0153 02       		.uleb128 0x2
 2310 0154 17       		.uleb128 0x17
 2311 0155 00       		.byte	0
 2312 0156 00       		.byte	0
 2313 0157 1B       		.uleb128 0x1b
 2314 0158 898201   		.uleb128 0x4109
 2315 015b 00       		.byte	0
 2316 015c 11       		.uleb128 0x11
 2317 015d 01       		.uleb128 0x1
 2318 015e 31       		.uleb128 0x31
 2319 015f 13       		.uleb128 0x13
 2320 0160 00       		.byte	0
 2321 0161 00       		.byte	0
 2322 0162 1C       		.uleb128 0x1c
 2323 0163 898201   		.uleb128 0x4109
 2324 0166 01       		.byte	0x1
 2325 0167 11       		.uleb128 0x11
 2326 0168 01       		.uleb128 0x1
 2327 0169 31       		.uleb128 0x31
 2328 016a 13       		.uleb128 0x13
 2329 016b 01       		.uleb128 0x1
 2330 016c 13       		.uleb128 0x13
ARM GAS  /var/folders/qh/xwg3v3kj02qbxczjpdb8lzfr0000gn/T//cc1yMur7.s 			page 42


 2331 016d 00       		.byte	0
 2332 016e 00       		.byte	0
 2333 016f 1D       		.uleb128 0x1d
 2334 0170 8A8201   		.uleb128 0x410a
 2335 0173 00       		.byte	0
 2336 0174 02       		.uleb128 0x2
 2337 0175 18       		.uleb128 0x18
 2338 0176 9142     		.uleb128 0x2111
 2339 0178 18       		.uleb128 0x18
 2340 0179 00       		.byte	0
 2341 017a 00       		.byte	0
 2342 017b 1E       		.uleb128 0x1e
 2343 017c 2E       		.uleb128 0x2e
 2344 017d 01       		.byte	0x1
 2345 017e 3F       		.uleb128 0x3f
 2346 017f 19       		.uleb128 0x19
 2347 0180 03       		.uleb128 0x3
 2348 0181 0E       		.uleb128 0xe
 2349 0182 3A       		.uleb128 0x3a
 2350 0183 0B       		.uleb128 0xb
 2351 0184 3B       		.uleb128 0x3b
 2352 0185 0B       		.uleb128 0xb
 2353 0186 27       		.uleb128 0x27
 2354 0187 19       		.uleb128 0x19
 2355 0188 49       		.uleb128 0x49
 2356 0189 13       		.uleb128 0x13
 2357 018a 11       		.uleb128 0x11
 2358 018b 01       		.uleb128 0x1
 2359 018c 12       		.uleb128 0x12
 2360 018d 06       		.uleb128 0x6
 2361 018e 40       		.uleb128 0x40
 2362 018f 18       		.uleb128 0x18
 2363 0190 9742     		.uleb128 0x2117
 2364 0192 19       		.uleb128 0x19
 2365 0193 01       		.uleb128 0x1
 2366 0194 13       		.uleb128 0x13
 2367 0195 00       		.byte	0
 2368 0196 00       		.byte	0
 2369 0197 1F       		.uleb128 0x1f
 2370 0198 1D       		.uleb128 0x1d
 2371 0199 01       		.byte	0x1
 2372 019a 31       		.uleb128 0x31
 2373 019b 13       		.uleb128 0x13
 2374 019c 11       		.uleb128 0x11
 2375 019d 01       		.uleb128 0x1
 2376 019e 12       		.uleb128 0x12
 2377 019f 06       		.uleb128 0x6
 2378 01a0 58       		.uleb128 0x58
 2379 01a1 0B       		.uleb128 0xb
 2380 01a2 59       		.uleb128 0x59
 2381 01a3 0B       		.uleb128 0xb
 2382 01a4 01       		.uleb128 0x1
 2383 01a5 13       		.uleb128 0x13
 2384 01a6 00       		.byte	0
 2385 01a7 00       		.byte	0
 2386 01a8 20       		.uleb128 0x20
 2387 01a9 898201   		.uleb128 0x4109
ARM GAS  /var/folders/qh/xwg3v3kj02qbxczjpdb8lzfr0000gn/T//cc1yMur7.s 			page 43


 2388 01ac 01       		.byte	0x1
 2389 01ad 11       		.uleb128 0x11
 2390 01ae 01       		.uleb128 0x1
 2391 01af 31       		.uleb128 0x31
 2392 01b0 13       		.uleb128 0x13
 2393 01b1 00       		.byte	0
 2394 01b2 00       		.byte	0
 2395 01b3 21       		.uleb128 0x21
 2396 01b4 05       		.uleb128 0x5
 2397 01b5 00       		.byte	0
 2398 01b6 03       		.uleb128 0x3
 2399 01b7 0E       		.uleb128 0xe
 2400 01b8 3A       		.uleb128 0x3a
 2401 01b9 0B       		.uleb128 0xb
 2402 01ba 3B       		.uleb128 0x3b
 2403 01bb 0B       		.uleb128 0xb
 2404 01bc 49       		.uleb128 0x49
 2405 01bd 13       		.uleb128 0x13
 2406 01be 02       		.uleb128 0x2
 2407 01bf 17       		.uleb128 0x17
 2408 01c0 00       		.byte	0
 2409 01c1 00       		.byte	0
 2410 01c2 22       		.uleb128 0x22
 2411 01c3 1D       		.uleb128 0x1d
 2412 01c4 01       		.byte	0x1
 2413 01c5 31       		.uleb128 0x31
 2414 01c6 13       		.uleb128 0x13
 2415 01c7 11       		.uleb128 0x11
 2416 01c8 01       		.uleb128 0x1
 2417 01c9 12       		.uleb128 0x12
 2418 01ca 06       		.uleb128 0x6
 2419 01cb 58       		.uleb128 0x58
 2420 01cc 0B       		.uleb128 0xb
 2421 01cd 59       		.uleb128 0x59
 2422 01ce 05       		.uleb128 0x5
 2423 01cf 01       		.uleb128 0x1
 2424 01d0 13       		.uleb128 0x13
 2425 01d1 00       		.byte	0
 2426 01d2 00       		.byte	0
 2427 01d3 23       		.uleb128 0x23
 2428 01d4 2E       		.uleb128 0x2e
 2429 01d5 01       		.byte	0x1
 2430 01d6 3F       		.uleb128 0x3f
 2431 01d7 19       		.uleb128 0x19
 2432 01d8 03       		.uleb128 0x3
 2433 01d9 0E       		.uleb128 0xe
 2434 01da 3A       		.uleb128 0x3a
 2435 01db 0B       		.uleb128 0xb
 2436 01dc 3B       		.uleb128 0x3b
 2437 01dd 05       		.uleb128 0x5
 2438 01de 27       		.uleb128 0x27
 2439 01df 19       		.uleb128 0x19
 2440 01e0 11       		.uleb128 0x11
 2441 01e1 01       		.uleb128 0x1
 2442 01e2 12       		.uleb128 0x12
 2443 01e3 06       		.uleb128 0x6
 2444 01e4 40       		.uleb128 0x40
ARM GAS  /var/folders/qh/xwg3v3kj02qbxczjpdb8lzfr0000gn/T//cc1yMur7.s 			page 44


 2445 01e5 18       		.uleb128 0x18
 2446 01e6 9742     		.uleb128 0x2117
 2447 01e8 19       		.uleb128 0x19
 2448 01e9 01       		.uleb128 0x1
 2449 01ea 13       		.uleb128 0x13
 2450 01eb 00       		.byte	0
 2451 01ec 00       		.byte	0
 2452 01ed 24       		.uleb128 0x24
 2453 01ee 05       		.uleb128 0x5
 2454 01ef 00       		.byte	0
 2455 01f0 03       		.uleb128 0x3
 2456 01f1 08       		.uleb128 0x8
 2457 01f2 3A       		.uleb128 0x3a
 2458 01f3 0B       		.uleb128 0xb
 2459 01f4 3B       		.uleb128 0x3b
 2460 01f5 05       		.uleb128 0x5
 2461 01f6 49       		.uleb128 0x49
 2462 01f7 13       		.uleb128 0x13
 2463 01f8 02       		.uleb128 0x2
 2464 01f9 17       		.uleb128 0x17
 2465 01fa 00       		.byte	0
 2466 01fb 00       		.byte	0
 2467 01fc 25       		.uleb128 0x25
 2468 01fd 1D       		.uleb128 0x1d
 2469 01fe 01       		.byte	0x1
 2470 01ff 31       		.uleb128 0x31
 2471 0200 13       		.uleb128 0x13
 2472 0201 52       		.uleb128 0x52
 2473 0202 01       		.uleb128 0x1
 2474 0203 55       		.uleb128 0x55
 2475 0204 17       		.uleb128 0x17
 2476 0205 58       		.uleb128 0x58
 2477 0206 0B       		.uleb128 0xb
 2478 0207 59       		.uleb128 0x59
 2479 0208 05       		.uleb128 0x5
 2480 0209 01       		.uleb128 0x1
 2481 020a 13       		.uleb128 0x13
 2482 020b 00       		.byte	0
 2483 020c 00       		.byte	0
 2484 020d 26       		.uleb128 0x26
 2485 020e 05       		.uleb128 0x5
 2486 020f 00       		.byte	0
 2487 0210 31       		.uleb128 0x31
 2488 0211 13       		.uleb128 0x13
 2489 0212 02       		.uleb128 0x2
 2490 0213 18       		.uleb128 0x18
 2491 0214 00       		.byte	0
 2492 0215 00       		.byte	0
 2493 0216 27       		.uleb128 0x27
 2494 0217 0B       		.uleb128 0xb
 2495 0218 01       		.byte	0x1
 2496 0219 11       		.uleb128 0x11
 2497 021a 01       		.uleb128 0x1
 2498 021b 12       		.uleb128 0x12
 2499 021c 06       		.uleb128 0x6
 2500 021d 01       		.uleb128 0x1
 2501 021e 13       		.uleb128 0x13
ARM GAS  /var/folders/qh/xwg3v3kj02qbxczjpdb8lzfr0000gn/T//cc1yMur7.s 			page 45


 2502 021f 00       		.byte	0
 2503 0220 00       		.byte	0
 2504 0221 28       		.uleb128 0x28
 2505 0222 34       		.uleb128 0x34
 2506 0223 00       		.byte	0
 2507 0224 03       		.uleb128 0x3
 2508 0225 08       		.uleb128 0x8
 2509 0226 3A       		.uleb128 0x3a
 2510 0227 0B       		.uleb128 0xb
 2511 0228 3B       		.uleb128 0x3b
 2512 0229 05       		.uleb128 0x5
 2513 022a 49       		.uleb128 0x49
 2514 022b 13       		.uleb128 0x13
 2515 022c 02       		.uleb128 0x2
 2516 022d 18       		.uleb128 0x18
 2517 022e 00       		.byte	0
 2518 022f 00       		.byte	0
 2519 0230 29       		.uleb128 0x29
 2520 0231 0B       		.uleb128 0xb
 2521 0232 01       		.byte	0x1
 2522 0233 11       		.uleb128 0x11
 2523 0234 01       		.uleb128 0x1
 2524 0235 12       		.uleb128 0x12
 2525 0236 06       		.uleb128 0x6
 2526 0237 00       		.byte	0
 2527 0238 00       		.byte	0
 2528 0239 2A       		.uleb128 0x2a
 2529 023a 2E       		.uleb128 0x2e
 2530 023b 01       		.byte	0x1
 2531 023c 3F       		.uleb128 0x3f
 2532 023d 19       		.uleb128 0x19
 2533 023e 03       		.uleb128 0x3
 2534 023f 0E       		.uleb128 0xe
 2535 0240 3A       		.uleb128 0x3a
 2536 0241 0B       		.uleb128 0xb
 2537 0242 3B       		.uleb128 0x3b
 2538 0243 05       		.uleb128 0x5
 2539 0244 27       		.uleb128 0x27
 2540 0245 19       		.uleb128 0x19
 2541 0246 49       		.uleb128 0x49
 2542 0247 13       		.uleb128 0x13
 2543 0248 11       		.uleb128 0x11
 2544 0249 01       		.uleb128 0x1
 2545 024a 12       		.uleb128 0x12
 2546 024b 06       		.uleb128 0x6
 2547 024c 40       		.uleb128 0x40
 2548 024d 18       		.uleb128 0x18
 2549 024e 9742     		.uleb128 0x2117
 2550 0250 19       		.uleb128 0x19
 2551 0251 01       		.uleb128 0x1
 2552 0252 13       		.uleb128 0x13
 2553 0253 00       		.byte	0
 2554 0254 00       		.byte	0
 2555 0255 2B       		.uleb128 0x2b
 2556 0256 34       		.uleb128 0x34
 2557 0257 00       		.byte	0
 2558 0258 03       		.uleb128 0x3
ARM GAS  /var/folders/qh/xwg3v3kj02qbxczjpdb8lzfr0000gn/T//cc1yMur7.s 			page 46


 2559 0259 08       		.uleb128 0x8
 2560 025a 3A       		.uleb128 0x3a
 2561 025b 0B       		.uleb128 0xb
 2562 025c 3B       		.uleb128 0x3b
 2563 025d 05       		.uleb128 0x5
 2564 025e 49       		.uleb128 0x49
 2565 025f 13       		.uleb128 0x13
 2566 0260 02       		.uleb128 0x2
 2567 0261 17       		.uleb128 0x17
 2568 0262 00       		.byte	0
 2569 0263 00       		.byte	0
 2570 0264 2C       		.uleb128 0x2c
 2571 0265 34       		.uleb128 0x34
 2572 0266 00       		.byte	0
 2573 0267 03       		.uleb128 0x3
 2574 0268 0E       		.uleb128 0xe
 2575 0269 3A       		.uleb128 0x3a
 2576 026a 0B       		.uleb128 0xb
 2577 026b 3B       		.uleb128 0x3b
 2578 026c 0B       		.uleb128 0xb
 2579 026d 49       		.uleb128 0x49
 2580 026e 13       		.uleb128 0x13
 2581 026f 3F       		.uleb128 0x3f
 2582 0270 19       		.uleb128 0x19
 2583 0271 3C       		.uleb128 0x3c
 2584 0272 19       		.uleb128 0x19
 2585 0273 00       		.byte	0
 2586 0274 00       		.byte	0
 2587 0275 2D       		.uleb128 0x2d
 2588 0276 2E       		.uleb128 0x2e
 2589 0277 00       		.byte	0
 2590 0278 3F       		.uleb128 0x3f
 2591 0279 19       		.uleb128 0x19
 2592 027a 03       		.uleb128 0x3
 2593 027b 0E       		.uleb128 0xe
 2594 027c 3A       		.uleb128 0x3a
 2595 027d 0B       		.uleb128 0xb
 2596 027e 3B       		.uleb128 0x3b
 2597 027f 0B       		.uleb128 0xb
 2598 0280 27       		.uleb128 0x27
 2599 0281 19       		.uleb128 0x19
 2600 0282 3C       		.uleb128 0x3c
 2601 0283 19       		.uleb128 0x19
 2602 0284 00       		.byte	0
 2603 0285 00       		.byte	0
 2604 0286 2E       		.uleb128 0x2e
 2605 0287 2E       		.uleb128 0x2e
 2606 0288 01       		.byte	0x1
 2607 0289 3F       		.uleb128 0x3f
 2608 028a 19       		.uleb128 0x19
 2609 028b 03       		.uleb128 0x3
 2610 028c 0E       		.uleb128 0xe
 2611 028d 3A       		.uleb128 0x3a
 2612 028e 0B       		.uleb128 0xb
 2613 028f 3B       		.uleb128 0x3b
 2614 0290 0B       		.uleb128 0xb
 2615 0291 27       		.uleb128 0x27
ARM GAS  /var/folders/qh/xwg3v3kj02qbxczjpdb8lzfr0000gn/T//cc1yMur7.s 			page 47


 2616 0292 19       		.uleb128 0x19
 2617 0293 49       		.uleb128 0x49
 2618 0294 13       		.uleb128 0x13
 2619 0295 3C       		.uleb128 0x3c
 2620 0296 19       		.uleb128 0x19
 2621 0297 01       		.uleb128 0x1
 2622 0298 13       		.uleb128 0x13
 2623 0299 00       		.byte	0
 2624 029a 00       		.byte	0
 2625 029b 2F       		.uleb128 0x2f
 2626 029c 05       		.uleb128 0x5
 2627 029d 00       		.byte	0
 2628 029e 49       		.uleb128 0x49
 2629 029f 13       		.uleb128 0x13
 2630 02a0 00       		.byte	0
 2631 02a1 00       		.byte	0
 2632 02a2 30       		.uleb128 0x30
 2633 02a3 2E       		.uleb128 0x2e
 2634 02a4 01       		.byte	0x1
 2635 02a5 3F       		.uleb128 0x3f
 2636 02a6 19       		.uleb128 0x19
 2637 02a7 03       		.uleb128 0x3
 2638 02a8 0E       		.uleb128 0xe
 2639 02a9 3A       		.uleb128 0x3a
 2640 02aa 0B       		.uleb128 0xb
 2641 02ab 3B       		.uleb128 0x3b
 2642 02ac 0B       		.uleb128 0xb
 2643 02ad 27       		.uleb128 0x27
 2644 02ae 19       		.uleb128 0x19
 2645 02af 3C       		.uleb128 0x3c
 2646 02b0 19       		.uleb128 0x19
 2647 02b1 01       		.uleb128 0x1
 2648 02b2 13       		.uleb128 0x13
 2649 02b3 00       		.byte	0
 2650 02b4 00       		.byte	0
 2651 02b5 31       		.uleb128 0x31
 2652 02b6 2E       		.uleb128 0x2e
 2653 02b7 01       		.byte	0x1
 2654 02b8 3F       		.uleb128 0x3f
 2655 02b9 19       		.uleb128 0x19
 2656 02ba 03       		.uleb128 0x3
 2657 02bb 0E       		.uleb128 0xe
 2658 02bc 3A       		.uleb128 0x3a
 2659 02bd 0B       		.uleb128 0xb
 2660 02be 3B       		.uleb128 0x3b
 2661 02bf 0B       		.uleb128 0xb
 2662 02c0 27       		.uleb128 0x27
 2663 02c1 19       		.uleb128 0x19
 2664 02c2 3C       		.uleb128 0x3c
 2665 02c3 19       		.uleb128 0x19
 2666 02c4 00       		.byte	0
 2667 02c5 00       		.byte	0
 2668 02c6 00       		.byte	0
 2669              		.section	.debug_loc,"",%progbits
 2670              	.Ldebug_loc0:
 2671              	.LLST0:
 2672 0000 00000000 		.4byte	.LVL1
ARM GAS  /var/folders/qh/xwg3v3kj02qbxczjpdb8lzfr0000gn/T//cc1yMur7.s 			page 48


 2673 0004 09000000 		.4byte	.LVL2-1
 2674 0008 0100     		.2byte	0x1
 2675 000a 50       		.byte	0x50
 2676 000b 09000000 		.4byte	.LVL2-1
 2677 000f 2C000000 		.4byte	.LVL12
 2678 0013 0100     		.2byte	0x1
 2679 0015 54       		.byte	0x54
 2680 0016 2C000000 		.4byte	.LVL12
 2681 001a 2E000000 		.4byte	.LFE9
 2682 001e 0400     		.2byte	0x4
 2683 0020 F3       		.byte	0xf3
 2684 0021 01       		.uleb128 0x1
 2685 0022 50       		.byte	0x50
 2686 0023 9F       		.byte	0x9f
 2687 0024 00000000 		.4byte	0
 2688 0028 00000000 		.4byte	0
 2689              	.LLST1:
 2690 002c 00000000 		.4byte	.LVL1
 2691 0030 09000000 		.4byte	.LVL2-1
 2692 0034 0100     		.2byte	0x1
 2693 0036 51       		.byte	0x51
 2694 0037 09000000 		.4byte	.LVL2-1
 2695 003b 16000000 		.4byte	.LVL5
 2696 003f 0100     		.2byte	0x1
 2697 0041 56       		.byte	0x56
 2698 0042 16000000 		.4byte	.LVL5
 2699 0046 18000000 		.4byte	.LVL6
 2700 004a 0200     		.2byte	0x2
 2701 004c 74       		.byte	0x74
 2702 004d 08       		.sleb128 8
 2703 004e 18000000 		.4byte	.LVL6
 2704 0052 2E000000 		.4byte	.LFE9
 2705 0056 0400     		.2byte	0x4
 2706 0058 F3       		.byte	0xf3
 2707 0059 01       		.uleb128 0x1
 2708 005a 51       		.byte	0x51
 2709 005b 9F       		.byte	0x9f
 2710 005c 00000000 		.4byte	0
 2711 0060 00000000 		.4byte	0
 2712              	.LLST2:
 2713 0064 0C000000 		.4byte	.LVL3
 2714 0068 1C000000 		.4byte	.LVL8
 2715 006c 0100     		.2byte	0x1
 2716 006e 55       		.byte	0x55
 2717 006f 1C000000 		.4byte	.LVL8
 2718 0073 28000000 		.4byte	.LVL10
 2719 0077 0300     		.2byte	0x3
 2720 0079 75       		.byte	0x75
 2721 007a 7F       		.sleb128 -1
 2722 007b 9F       		.byte	0x9f
 2723 007c 28000000 		.4byte	.LVL10
 2724 0080 2C000000 		.4byte	.LVL13
 2725 0084 0100     		.2byte	0x1
 2726 0086 55       		.byte	0x55
 2727 0087 00000000 		.4byte	0
 2728 008b 00000000 		.4byte	0
 2729              	.LLST3:
ARM GAS  /var/folders/qh/xwg3v3kj02qbxczjpdb8lzfr0000gn/T//cc1yMur7.s 			page 49


 2730 008f 18000000 		.4byte	.LVL6
 2731 0093 2C000000 		.4byte	.LVL11
 2732 0097 0100     		.2byte	0x1
 2733 0099 54       		.byte	0x54
 2734 009a 00000000 		.4byte	0
 2735 009e 00000000 		.4byte	0
 2736              	.LLST4:
 2737 00a2 1A000000 		.4byte	.LVL7
 2738 00a6 25000000 		.4byte	.LVL9-1
 2739 00aa 0100     		.2byte	0x1
 2740 00ac 50       		.byte	0x50
 2741 00ad 00000000 		.4byte	0
 2742 00b1 00000000 		.4byte	0
 2743              	.LLST5:
 2744 00b5 00000000 		.4byte	.LVL14
 2745 00b9 0B000000 		.4byte	.LVL15-1
 2746 00bd 0100     		.2byte	0x1
 2747 00bf 50       		.byte	0x50
 2748 00c0 0B000000 		.4byte	.LVL15-1
 2749 00c4 1E000000 		.4byte	.LVL20
 2750 00c8 0100     		.2byte	0x1
 2751 00ca 55       		.byte	0x55
 2752 00cb 1E000000 		.4byte	.LVL20
 2753 00cf 20000000 		.4byte	.LFE8
 2754 00d3 0400     		.2byte	0x4
 2755 00d5 F3       		.byte	0xf3
 2756 00d6 01       		.uleb128 0x1
 2757 00d7 50       		.byte	0x50
 2758 00d8 9F       		.byte	0x9f
 2759 00d9 00000000 		.4byte	0
 2760 00dd 00000000 		.4byte	0
 2761              	.LLST6:
 2762 00e1 00000000 		.4byte	.LVL14
 2763 00e5 0B000000 		.4byte	.LVL15-1
 2764 00e9 0100     		.2byte	0x1
 2765 00eb 51       		.byte	0x51
 2766 00ec 0B000000 		.4byte	.LVL15-1
 2767 00f0 1E000000 		.4byte	.LVL19
 2768 00f4 0100     		.2byte	0x1
 2769 00f6 54       		.byte	0x54
 2770 00f7 1E000000 		.4byte	.LVL19
 2771 00fb 20000000 		.4byte	.LFE8
 2772 00ff 0400     		.2byte	0x4
 2773 0101 F3       		.byte	0xf3
 2774 0102 01       		.uleb128 0x1
 2775 0103 51       		.byte	0x51
 2776 0104 9F       		.byte	0x9f
 2777 0105 00000000 		.4byte	0
 2778 0109 00000000 		.4byte	0
 2779              	.LLST7:
 2780 010d 00000000 		.4byte	.LVL21
 2781 0111 07000000 		.4byte	.LVL22-1
 2782 0115 0100     		.2byte	0x1
 2783 0117 50       		.byte	0x50
 2784 0118 07000000 		.4byte	.LVL22-1
 2785 011c 14000000 		.4byte	.LVL23
 2786 0120 0100     		.2byte	0x1
ARM GAS  /var/folders/qh/xwg3v3kj02qbxczjpdb8lzfr0000gn/T//cc1yMur7.s 			page 50


 2787 0122 54       		.byte	0x54
 2788 0123 14000000 		.4byte	.LVL23
 2789 0127 16000000 		.4byte	.LVL24
 2790 012b 0400     		.2byte	0x4
 2791 012d F3       		.byte	0xf3
 2792 012e 01       		.uleb128 0x1
 2793 012f 50       		.byte	0x50
 2794 0130 9F       		.byte	0x9f
 2795 0131 16000000 		.4byte	.LVL24
 2796 0135 38000000 		.4byte	.LFE11
 2797 0139 0100     		.2byte	0x1
 2798 013b 54       		.byte	0x54
 2799 013c 00000000 		.4byte	0
 2800 0140 00000000 		.4byte	0
 2801              	.LLST8:
 2802 0144 1E000000 		.4byte	.LVL25
 2803 0148 26000000 		.4byte	.LVL26
 2804 014c 0200     		.2byte	0x2
 2805 014e 73       		.byte	0x73
 2806 014f 24       		.sleb128 36
 2807 0150 26000000 		.4byte	.LVL26
 2808 0154 28000000 		.4byte	.LVL27
 2809 0158 0200     		.2byte	0x2
 2810 015a 73       		.byte	0x73
 2811 015b 00       		.sleb128 0
 2812 015c 28000000 		.4byte	.LVL27
 2813 0160 38000000 		.4byte	.LFE11
 2814 0164 0100     		.2byte	0x1
 2815 0166 54       		.byte	0x54
 2816 0167 00000000 		.4byte	0
 2817 016b 00000000 		.4byte	0
 2818              	.LLST9:
 2819 016f 1E000000 		.4byte	.LVL25
 2820 0173 2B000000 		.4byte	.LVL28-1
 2821 0177 0100     		.2byte	0x1
 2822 0179 53       		.byte	0x53
 2823 017a 00000000 		.4byte	0
 2824 017e 00000000 		.4byte	0
 2825              	.LLST10:
 2826 0182 00000000 		.4byte	.LVL29
 2827 0186 09000000 		.4byte	.LVL30-1
 2828 018a 0100     		.2byte	0x1
 2829 018c 50       		.byte	0x50
 2830 018d 09000000 		.4byte	.LVL30-1
 2831 0191 12000000 		.4byte	.LVL32
 2832 0195 0100     		.2byte	0x1
 2833 0197 54       		.byte	0x54
 2834 0198 12000000 		.4byte	.LVL32
 2835 019c 1C000000 		.4byte	.LFE10
 2836 01a0 0400     		.2byte	0x4
 2837 01a2 F3       		.byte	0xf3
 2838 01a3 01       		.uleb128 0x1
 2839 01a4 50       		.byte	0x50
 2840 01a5 9F       		.byte	0x9f
 2841 01a6 00000000 		.4byte	0
 2842 01aa 00000000 		.4byte	0
 2843              	.LLST11:
ARM GAS  /var/folders/qh/xwg3v3kj02qbxczjpdb8lzfr0000gn/T//cc1yMur7.s 			page 51


 2844 01ae 12000000 		.4byte	.LVL32
 2845 01b2 15000000 		.4byte	.LVL33-1
 2846 01b6 0100     		.2byte	0x1
 2847 01b8 50       		.byte	0x50
 2848 01b9 15000000 		.4byte	.LVL33-1
 2849 01bd 1A000000 		.4byte	.LVL34
 2850 01c1 0100     		.2byte	0x1
 2851 01c3 54       		.byte	0x54
 2852 01c4 1A000000 		.4byte	.LVL34
 2853 01c8 1C000000 		.4byte	.LFE10
 2854 01cc 0100     		.2byte	0x1
 2855 01ce 50       		.byte	0x50
 2856 01cf 00000000 		.4byte	0
 2857 01d3 00000000 		.4byte	0
 2858              	.LLST12:
 2859 01d7 00000000 		.4byte	.LVL35
 2860 01db 09000000 		.4byte	.LVL36-1
 2861 01df 0100     		.2byte	0x1
 2862 01e1 50       		.byte	0x50
 2863 01e2 09000000 		.4byte	.LVL36-1
 2864 01e6 16000000 		.4byte	.LVL37
 2865 01ea 0100     		.2byte	0x1
 2866 01ec 54       		.byte	0x54
 2867 01ed 16000000 		.4byte	.LVL37
 2868 01f1 18000000 		.4byte	.LVL39
 2869 01f5 0400     		.2byte	0x4
 2870 01f7 F3       		.byte	0xf3
 2871 01f8 01       		.uleb128 0x1
 2872 01f9 50       		.byte	0x50
 2873 01fa 9F       		.byte	0x9f
 2874 01fb 18000000 		.4byte	.LVL39
 2875 01ff 44000000 		.4byte	.LFE13
 2876 0203 0100     		.2byte	0x1
 2877 0205 54       		.byte	0x54
 2878 0206 00000000 		.4byte	0
 2879 020a 00000000 		.4byte	0
 2880              	.LLST13:
 2881 020e 00000000 		.4byte	.LVL35
 2882 0212 09000000 		.4byte	.LVL36-1
 2883 0216 0100     		.2byte	0x1
 2884 0218 51       		.byte	0x51
 2885 0219 09000000 		.4byte	.LVL36-1
 2886 021d 16000000 		.4byte	.LVL38
 2887 0221 0100     		.2byte	0x1
 2888 0223 55       		.byte	0x55
 2889 0224 16000000 		.4byte	.LVL38
 2890 0228 18000000 		.4byte	.LVL39
 2891 022c 0400     		.2byte	0x4
 2892 022e F3       		.byte	0xf3
 2893 022f 01       		.uleb128 0x1
 2894 0230 51       		.byte	0x51
 2895 0231 9F       		.byte	0x9f
 2896 0232 18000000 		.4byte	.LVL39
 2897 0236 44000000 		.4byte	.LFE13
 2898 023a 0100     		.2byte	0x1
 2899 023c 55       		.byte	0x55
 2900 023d 00000000 		.4byte	0
ARM GAS  /var/folders/qh/xwg3v3kj02qbxczjpdb8lzfr0000gn/T//cc1yMur7.s 			page 52


 2901 0241 00000000 		.4byte	0
 2902              	.LLST14:
 2903 0245 26000000 		.4byte	.LVL40
 2904 0249 2E000000 		.4byte	.LVL41
 2905 024d 0200     		.2byte	0x2
 2906 024f 73       		.byte	0x73
 2907 0250 24       		.sleb128 36
 2908 0251 2E000000 		.4byte	.LVL41
 2909 0255 30000000 		.4byte	.LVL42
 2910 0259 0200     		.2byte	0x2
 2911 025b 73       		.byte	0x73
 2912 025c 00       		.sleb128 0
 2913 025d 30000000 		.4byte	.LVL42
 2914 0261 36000000 		.4byte	.LVL44
 2915 0265 0100     		.2byte	0x1
 2916 0267 54       		.byte	0x54
 2917 0268 00000000 		.4byte	0
 2918 026c 00000000 		.4byte	0
 2919              	.LLST15:
 2920 0270 26000000 		.4byte	.LVL40
 2921 0274 33000000 		.4byte	.LVL43-1
 2922 0278 0100     		.2byte	0x1
 2923 027a 53       		.byte	0x53
 2924 027b 00000000 		.4byte	0
 2925 027f 00000000 		.4byte	0
 2926              	.LLST16:
 2927 0283 00000000 		.4byte	.LVL45
 2928 0287 0B000000 		.4byte	.LVL46-1
 2929 028b 0100     		.2byte	0x1
 2930 028d 50       		.byte	0x50
 2931 028e 0B000000 		.4byte	.LVL46-1
 2932 0292 1E000000 		.4byte	.LVL51
 2933 0296 0100     		.2byte	0x1
 2934 0298 55       		.byte	0x55
 2935 0299 1E000000 		.4byte	.LVL51
 2936 029d 20000000 		.4byte	.LFE12
 2937 02a1 0400     		.2byte	0x4
 2938 02a3 F3       		.byte	0xf3
 2939 02a4 01       		.uleb128 0x1
 2940 02a5 50       		.byte	0x50
 2941 02a6 9F       		.byte	0x9f
 2942 02a7 00000000 		.4byte	0
 2943 02ab 00000000 		.4byte	0
 2944              	.LLST17:
 2945 02af 00000000 		.4byte	.LVL45
 2946 02b3 0B000000 		.4byte	.LVL46-1
 2947 02b7 0100     		.2byte	0x1
 2948 02b9 51       		.byte	0x51
 2949 02ba 0B000000 		.4byte	.LVL46-1
 2950 02be 16000000 		.4byte	.LVL48
 2951 02c2 0100     		.2byte	0x1
 2952 02c4 54       		.byte	0x54
 2953 02c5 16000000 		.4byte	.LVL48
 2954 02c9 20000000 		.4byte	.LFE12
 2955 02cd 0400     		.2byte	0x4
 2956 02cf F3       		.byte	0xf3
 2957 02d0 01       		.uleb128 0x1
ARM GAS  /var/folders/qh/xwg3v3kj02qbxczjpdb8lzfr0000gn/T//cc1yMur7.s 			page 53


 2958 02d1 51       		.byte	0x51
 2959 02d2 9F       		.byte	0x9f
 2960 02d3 00000000 		.4byte	0
 2961 02d7 00000000 		.4byte	0
 2962              	.LLST18:
 2963 02db 16000000 		.4byte	.LVL48
 2964 02df 19000000 		.4byte	.LVL49-1
 2965 02e3 0100     		.2byte	0x1
 2966 02e5 50       		.byte	0x50
 2967 02e6 19000000 		.4byte	.LVL49-1
 2968 02ea 1E000000 		.4byte	.LVL50
 2969 02ee 0100     		.2byte	0x1
 2970 02f0 54       		.byte	0x54
 2971 02f1 1E000000 		.4byte	.LVL50
 2972 02f5 20000000 		.4byte	.LFE12
 2973 02f9 0100     		.2byte	0x1
 2974 02fb 50       		.byte	0x50
 2975 02fc 00000000 		.4byte	0
 2976 0300 00000000 		.4byte	0
 2977              	.LLST19:
 2978 0304 00000000 		.4byte	.LVL52
 2979 0308 09000000 		.4byte	.LVL53-1
 2980 030c 0100     		.2byte	0x1
 2981 030e 50       		.byte	0x50
 2982 030f 09000000 		.4byte	.LVL53-1
 2983 0313 1A000000 		.4byte	.LVL55
 2984 0317 0100     		.2byte	0x1
 2985 0319 54       		.byte	0x54
 2986 031a 1A000000 		.4byte	.LVL55
 2987 031e 1C000000 		.4byte	.LVL56
 2988 0322 0400     		.2byte	0x4
 2989 0324 F3       		.byte	0xf3
 2990 0325 01       		.uleb128 0x1
 2991 0326 50       		.byte	0x50
 2992 0327 9F       		.byte	0x9f
 2993 0328 1C000000 		.4byte	.LVL56
 2994 032c 2C000000 		.4byte	.LFE14
 2995 0330 0100     		.2byte	0x1
 2996 0332 54       		.byte	0x54
 2997 0333 00000000 		.4byte	0
 2998 0337 00000000 		.4byte	0
 2999              	.LLST20:
 3000 033b 1E000000 		.4byte	.LVL57
 3001 033f 29000000 		.4byte	.LVL58-1
 3002 0343 0100     		.2byte	0x1
 3003 0345 50       		.byte	0x50
 3004 0346 00000000 		.4byte	0
 3005 034a 00000000 		.4byte	0
 3006              	.LLST21:
 3007 034e 00000000 		.4byte	.LVL59
 3008 0352 07000000 		.4byte	.LVL60-1
 3009 0356 0100     		.2byte	0x1
 3010 0358 50       		.byte	0x50
 3011 0359 07000000 		.4byte	.LVL60-1
 3012 035d 12000000 		.4byte	.LVL61
 3013 0361 0100     		.2byte	0x1
 3014 0363 54       		.byte	0x54
ARM GAS  /var/folders/qh/xwg3v3kj02qbxczjpdb8lzfr0000gn/T//cc1yMur7.s 			page 54


 3015 0364 12000000 		.4byte	.LVL61
 3016 0368 14000000 		.4byte	.LVL62
 3017 036c 0400     		.2byte	0x4
 3018 036e F3       		.byte	0xf3
 3019 036f 01       		.uleb128 0x1
 3020 0370 50       		.byte	0x50
 3021 0371 9F       		.byte	0x9f
 3022 0372 14000000 		.4byte	.LVL62
 3023 0376 26000000 		.4byte	.LFE15
 3024 037a 0100     		.2byte	0x1
 3025 037c 54       		.byte	0x54
 3026 037d 00000000 		.4byte	0
 3027 0381 00000000 		.4byte	0
 3028              	.LLST22:
 3029 0385 16000000 		.4byte	.LVL63
 3030 0389 23000000 		.4byte	.LVL64-1
 3031 038d 0100     		.2byte	0x1
 3032 038f 50       		.byte	0x50
 3033 0390 00000000 		.4byte	0
 3034 0394 00000000 		.4byte	0
 3035              	.LLST23:
 3036 0398 00000000 		.4byte	.LVL65
 3037 039c 0B000000 		.4byte	.LVL66-1
 3038 03a0 0100     		.2byte	0x1
 3039 03a2 50       		.byte	0x50
 3040 03a3 0B000000 		.4byte	.LVL66-1
 3041 03a7 36000000 		.4byte	.LVL74
 3042 03ab 0100     		.2byte	0x1
 3043 03ad 55       		.byte	0x55
 3044 03ae 36000000 		.4byte	.LVL74
 3045 03b2 38000000 		.4byte	.LFE16
 3046 03b6 0400     		.2byte	0x4
 3047 03b8 F3       		.byte	0xf3
 3048 03b9 01       		.uleb128 0x1
 3049 03ba 50       		.byte	0x50
 3050 03bb 9F       		.byte	0x9f
 3051 03bc 00000000 		.4byte	0
 3052 03c0 00000000 		.4byte	0
 3053              	.LLST24:
 3054 03c4 00000000 		.4byte	.LVL65
 3055 03c8 0B000000 		.4byte	.LVL66-1
 3056 03cc 0100     		.2byte	0x1
 3057 03ce 51       		.byte	0x51
 3058 03cf 0B000000 		.4byte	.LVL66-1
 3059 03d3 26000000 		.4byte	.LVL70
 3060 03d7 0100     		.2byte	0x1
 3061 03d9 54       		.byte	0x54
 3062 03da 26000000 		.4byte	.LVL70
 3063 03de 30000000 		.4byte	.LVL71
 3064 03e2 0300     		.2byte	0x3
 3065 03e4 74       		.byte	0x74
 3066 03e5 01       		.sleb128 1
 3067 03e6 9F       		.byte	0x9f
 3068 03e7 30000000 		.4byte	.LVL71
 3069 03eb 36000000 		.4byte	.LVL73
 3070 03ef 0100     		.2byte	0x1
 3071 03f1 54       		.byte	0x54
ARM GAS  /var/folders/qh/xwg3v3kj02qbxczjpdb8lzfr0000gn/T//cc1yMur7.s 			page 55


 3072 03f2 00000000 		.4byte	0
 3073 03f6 00000000 		.4byte	0
 3074              	.LLST25:
 3075 03fa 22000000 		.4byte	.LVL68
 3076 03fe 36000000 		.4byte	.LVL72
 3077 0402 0100     		.2byte	0x1
 3078 0404 55       		.byte	0x55
 3079 0405 00000000 		.4byte	0
 3080 0409 00000000 		.4byte	0
 3081              	.LLST26:
 3082 040d 24000000 		.4byte	.LVL69
 3083 0411 2F000000 		.4byte	.LVL71-1
 3084 0415 0100     		.2byte	0x1
 3085 0417 50       		.byte	0x50
 3086 0418 00000000 		.4byte	0
 3087 041c 00000000 		.4byte	0
 3088              	.LLST27:
 3089 0420 00000000 		.4byte	.LVL75
 3090 0424 0B000000 		.4byte	.LVL76-1
 3091 0428 0100     		.2byte	0x1
 3092 042a 50       		.byte	0x50
 3093 042b 0B000000 		.4byte	.LVL76-1
 3094 042f 26000000 		.4byte	.LVL78
 3095 0433 0100     		.2byte	0x1
 3096 0435 55       		.byte	0x55
 3097 0436 26000000 		.4byte	.LVL78
 3098 043a 30000000 		.4byte	.LVL81
 3099 043e 0400     		.2byte	0x4
 3100 0440 F3       		.byte	0xf3
 3101 0441 01       		.uleb128 0x1
 3102 0442 50       		.byte	0x50
 3103 0443 9F       		.byte	0x9f
 3104 0444 30000000 		.4byte	.LVL81
 3105 0448 36000000 		.4byte	.LVL82
 3106 044c 0100     		.2byte	0x1
 3107 044e 55       		.byte	0x55
 3108 044f 36000000 		.4byte	.LVL82
 3109 0453 4A000000 		.4byte	.LVL85
 3110 0457 0400     		.2byte	0x4
 3111 0459 F3       		.byte	0xf3
 3112 045a 01       		.uleb128 0x1
 3113 045b 50       		.byte	0x50
 3114 045c 9F       		.byte	0x9f
 3115 045d 4A000000 		.4byte	.LVL85
 3116 0461 60000000 		.4byte	.LFE17
 3117 0465 0100     		.2byte	0x1
 3118 0467 55       		.byte	0x55
 3119 0468 00000000 		.4byte	0
 3120 046c 00000000 		.4byte	0
 3121              	.LLST28:
 3122 0470 00000000 		.4byte	.LVL75
 3123 0474 0B000000 		.4byte	.LVL76-1
 3124 0478 0100     		.2byte	0x1
 3125 047a 51       		.byte	0x51
 3126 047b 0B000000 		.4byte	.LVL76-1
 3127 047f 26000000 		.4byte	.LVL78
 3128 0483 0100     		.2byte	0x1
ARM GAS  /var/folders/qh/xwg3v3kj02qbxczjpdb8lzfr0000gn/T//cc1yMur7.s 			page 56


 3129 0485 54       		.byte	0x54
 3130 0486 26000000 		.4byte	.LVL78
 3131 048a 30000000 		.4byte	.LVL81
 3132 048e 0400     		.2byte	0x4
 3133 0490 F3       		.byte	0xf3
 3134 0491 01       		.uleb128 0x1
 3135 0492 51       		.byte	0x51
 3136 0493 9F       		.byte	0x9f
 3137 0494 30000000 		.4byte	.LVL81
 3138 0498 48000000 		.4byte	.LVL84
 3139 049c 0100     		.2byte	0x1
 3140 049e 54       		.byte	0x54
 3141 049f 48000000 		.4byte	.LVL84
 3142 04a3 4A000000 		.4byte	.LVL85
 3143 04a7 0400     		.2byte	0x4
 3144 04a9 F3       		.byte	0xf3
 3145 04aa 01       		.uleb128 0x1
 3146 04ab 51       		.byte	0x51
 3147 04ac 9F       		.byte	0x9f
 3148 04ad 4A000000 		.4byte	.LVL85
 3149 04b1 60000000 		.4byte	.LFE17
 3150 04b5 0100     		.2byte	0x1
 3151 04b7 54       		.byte	0x54
 3152 04b8 00000000 		.4byte	0
 3153 04bc 00000000 		.4byte	0
 3154              	.LLST29:
 3155 04c0 24000000 		.4byte	.LVL77
 3156 04c4 26000000 		.4byte	.LVL78
 3157 04c8 0200     		.2byte	0x2
 3158 04ca 30       		.byte	0x30
 3159 04cb 9F       		.byte	0x9f
 3160 04cc 26000000 		.4byte	.LVL78
 3161 04d0 2E000000 		.4byte	.LVL80
 3162 04d4 0100     		.2byte	0x1
 3163 04d6 54       		.byte	0x54
 3164 04d7 2E000000 		.4byte	.LVL80
 3165 04db 30000000 		.4byte	.LVL81
 3166 04df 0100     		.2byte	0x1
 3167 04e1 50       		.byte	0x50
 3168 04e2 48000000 		.4byte	.LVL84
 3169 04e6 4A000000 		.4byte	.LVL85
 3170 04ea 0100     		.2byte	0x1
 3171 04ec 54       		.byte	0x54
 3172 04ed 00000000 		.4byte	0
 3173 04f1 00000000 		.4byte	0
 3174              	.LLST30:
 3175 04f5 36000000 		.4byte	.LVL82
 3176 04f9 4A000000 		.4byte	.LVL85
 3177 04fd 0100     		.2byte	0x1
 3178 04ff 55       		.byte	0x55
 3179 0500 00000000 		.4byte	0
 3180 0504 00000000 		.4byte	0
 3181              	.LLST31:
 3182 0508 36000000 		.4byte	.LVL82
 3183 050c 48000000 		.4byte	.LVL84
 3184 0510 0100     		.2byte	0x1
 3185 0512 54       		.byte	0x54
ARM GAS  /var/folders/qh/xwg3v3kj02qbxczjpdb8lzfr0000gn/T//cc1yMur7.s 			page 57


 3186 0513 48000000 		.4byte	.LVL84
 3187 0517 4A000000 		.4byte	.LVL85
 3188 051b 0400     		.2byte	0x4
 3189 051d F3       		.byte	0xf3
 3190 051e 01       		.uleb128 0x1
 3191 051f 51       		.byte	0x51
 3192 0520 9F       		.byte	0x9f
 3193 0521 00000000 		.4byte	0
 3194 0525 00000000 		.4byte	0
 3195              	.LLST33:
 3196 0529 4C000000 		.4byte	.LVL86
 3197 052d 55000000 		.4byte	.LVL87-1
 3198 0531 0100     		.2byte	0x1
 3199 0533 50       		.byte	0x50
 3200 0534 00000000 		.4byte	0
 3201 0538 00000000 		.4byte	0
 3202              		.section	.debug_aranges,"",%progbits
 3203 0000 6C000000 		.4byte	0x6c
 3204 0004 0200     		.2byte	0x2
 3205 0006 00000000 		.4byte	.Ldebug_info0
 3206 000a 04       		.byte	0x4
 3207 000b 00       		.byte	0
 3208 000c 0000     		.2byte	0
 3209 000e 0000     		.2byte	0
 3210 0010 00000000 		.4byte	.LFB7
 3211 0014 08000000 		.4byte	.LFE7-.LFB7
 3212 0018 00000000 		.4byte	.LFB9
 3213 001c 2E000000 		.4byte	.LFE9-.LFB9
 3214 0020 00000000 		.4byte	.LFB8
 3215 0024 20000000 		.4byte	.LFE8-.LFB8
 3216 0028 00000000 		.4byte	.LFB11
 3217 002c 38000000 		.4byte	.LFE11-.LFB11
 3218 0030 00000000 		.4byte	.LFB10
 3219 0034 1C000000 		.4byte	.LFE10-.LFB10
 3220 0038 00000000 		.4byte	.LFB13
 3221 003c 44000000 		.4byte	.LFE13-.LFB13
 3222 0040 00000000 		.4byte	.LFB12
 3223 0044 20000000 		.4byte	.LFE12-.LFB12
 3224 0048 00000000 		.4byte	.LFB14
 3225 004c 2C000000 		.4byte	.LFE14-.LFB14
 3226 0050 00000000 		.4byte	.LFB15
 3227 0054 26000000 		.4byte	.LFE15-.LFB15
 3228 0058 00000000 		.4byte	.LFB16
 3229 005c 38000000 		.4byte	.LFE16-.LFB16
 3230 0060 00000000 		.4byte	.LFB17
 3231 0064 60000000 		.4byte	.LFE17-.LFB17
 3232 0068 00000000 		.4byte	0
 3233 006c 00000000 		.4byte	0
 3234              		.section	.debug_ranges,"",%progbits
 3235              	.Ldebug_ranges0:
 3236 0000 18000000 		.4byte	.LBB20
 3237 0004 1A000000 		.4byte	.LBE20
 3238 0008 1C000000 		.4byte	.LBB23
 3239 000c 22000000 		.4byte	.LBE23
 3240 0010 00000000 		.4byte	0
 3241 0014 00000000 		.4byte	0
 3242 0018 1C000000 		.4byte	.LBB28
ARM GAS  /var/folders/qh/xwg3v3kj02qbxczjpdb8lzfr0000gn/T//cc1yMur7.s 			page 58


 3243 001c 1E000000 		.4byte	.LBE28
 3244 0020 20000000 		.4byte	.LBB31
 3245 0024 26000000 		.4byte	.LBE31
 3246 0028 00000000 		.4byte	0
 3247 002c 00000000 		.4byte	0
 3248 0030 22000000 		.4byte	.LBB35
 3249 0034 24000000 		.4byte	.LBE35
 3250 0038 26000000 		.4byte	.LBB38
 3251 003c 2C000000 		.4byte	.LBE38
 3252 0040 00000000 		.4byte	0
 3253 0044 00000000 		.4byte	0
 3254 0048 00000000 		.4byte	.LFB7
 3255 004c 08000000 		.4byte	.LFE7
 3256 0050 00000000 		.4byte	.LFB9
 3257 0054 2E000000 		.4byte	.LFE9
 3258 0058 00000000 		.4byte	.LFB8
 3259 005c 20000000 		.4byte	.LFE8
 3260 0060 00000000 		.4byte	.LFB11
 3261 0064 38000000 		.4byte	.LFE11
 3262 0068 00000000 		.4byte	.LFB10
 3263 006c 1C000000 		.4byte	.LFE10
 3264 0070 00000000 		.4byte	.LFB13
 3265 0074 44000000 		.4byte	.LFE13
 3266 0078 00000000 		.4byte	.LFB12
 3267 007c 20000000 		.4byte	.LFE12
 3268 0080 00000000 		.4byte	.LFB14
 3269 0084 2C000000 		.4byte	.LFE14
 3270 0088 00000000 		.4byte	.LFB15
 3271 008c 26000000 		.4byte	.LFE15
 3272 0090 00000000 		.4byte	.LFB16
 3273 0094 38000000 		.4byte	.LFE16
 3274 0098 00000000 		.4byte	.LFB17
 3275 009c 60000000 		.4byte	.LFE17
 3276 00a0 00000000 		.4byte	0
 3277 00a4 00000000 		.4byte	0
 3278              		.section	.debug_line,"",%progbits
 3279              	.Ldebug_line0:
 3280 0000 D9020000 		.section	.debug_str,"MS",%progbits,1
 3280      02002C01 
 3280      00000201 
 3280      FB0E0D00 
 3280      01010101 
 3281              	.LASF37:
 3282 0000 705F6D73 		.ascii	"p_msg\000"
 3282      6700
 3283              	.LASF91:
 3284 0006 71756575 		.ascii	"queue_insert\000"
 3284      655F696E 
 3284      73657274 
 3284      00
 3285              	.LASF78:
 3286 0013 63685365 		.ascii	"chSemSignalI\000"
 3286      6D536967 
 3286      6E616C49 
 3286      00
 3287              	.LASF62:
 3288 0020 7264796D 		.ascii	"rdymsg\000"
ARM GAS  /var/folders/qh/xwg3v3kj02qbxczjpdb8lzfr0000gn/T//cc1yMur7.s 			page 59


 3288      736700
 3289              	.LASF82:
 3290 0027 6462675F 		.ascii	"dbg_check_lock\000"
 3290      63686563 
 3290      6B5F6C6F 
 3290      636B00
 3291              	.LASF11:
 3292 0036 6C6F6E67 		.ascii	"long long unsigned int\000"
 3292      206C6F6E 
 3292      6720756E 
 3292      7369676E 
 3292      65642069 
 3293              	.LASF63:
 3294 004d 65786974 		.ascii	"exitcode\000"
 3294      636F6465 
 3294      00
 3295              	.LASF79:
 3296 0056 63685365 		.ascii	"chSemAddCounterI\000"
 3296      6D416464 
 3296      436F756E 
 3296      74657249 
 3296      00
 3297              	.LASF25:
 3298 0067 705F7072 		.ascii	"p_prio\000"
 3298      696F00
 3299              	.LASF10:
 3300 006e 6C6F6E67 		.ascii	"long long int\000"
 3300      206C6F6E 
 3300      6720696E 
 3300      7400
 3301              	.LASF1:
 3302 007c 7369676E 		.ascii	"signed char\000"
 3302      65642063 
 3302      68617200 
 3303              	.LASF80:
 3304 0088 63685365 		.ascii	"chSemSignalWait\000"
 3304      6D536967 
 3304      6E616C57 
 3304      61697400 
 3305              	.LASF41:
 3306 0098 705F6D70 		.ascii	"p_mpool\000"
 3306      6F6F6C00 
 3307              	.LASF59:
 3308 00a0 6D5F7175 		.ascii	"m_queue\000"
 3308      65756500 
 3309              	.LASF16:
 3310 00a8 74736C69 		.ascii	"tslices_t\000"
 3310      6365735F 
 3310      7400
 3311              	.LASF89:
 3312 00b2 2E2E2F2E 		.ascii	"../../os/kernel/src/chsem.c\000"
 3312      2E2F6F73 
 3312      2F6B6572 
 3312      6E656C2F 
 3312      7372632F 
 3313              	.LASF7:
 3314 00ce 6C6F6E67 		.ascii	"long int\000"
ARM GAS  /var/folders/qh/xwg3v3kj02qbxczjpdb8lzfr0000gn/T//cc1yMur7.s 			page 60


 3314      20696E74 
 3314      00
 3315              	.LASF14:
 3316 00d7 74737461 		.ascii	"tstate_t\000"
 3316      74655F74 
 3316      00
 3317              	.LASF77:
 3318 00e0 63685365 		.ascii	"chSemSignal\000"
 3318      6D536967 
 3318      6E616C00 
 3319              	.LASF27:
 3320 00ec 705F6E65 		.ascii	"p_newer\000"
 3320      77657200 
 3321              	.LASF56:
 3322 00f4 735F7175 		.ascii	"s_queue\000"
 3322      65756500 
 3323              	.LASF83:
 3324 00fc 63685363 		.ascii	"chSchRescheduleS\000"
 3324      68526573 
 3324      63686564 
 3324      756C6553 
 3324      00
 3325              	.LASF51:
 3326 010d 725F6E65 		.ascii	"r_newer\000"
 3326      77657200 
 3327              	.LASF44:
 3328 0115 72656761 		.ascii	"regarm_t\000"
 3328      726D5F74 
 3328      00
 3329              	.LASF21:
 3330 011e 636E745F 		.ascii	"cnt_t\000"
 3330      7400
 3331              	.LASF0:
 3332 0124 756E7369 		.ascii	"unsigned int\000"
 3332      676E6564 
 3332      20696E74 
 3332      00
 3333              	.LASF76:
 3334 0131 63685365 		.ascii	"chSemWaitTimeout\000"
 3334      6D576169 
 3334      7454696D 
 3334      656F7574 
 3334      00
 3335              	.LASF9:
 3336 0142 6C6F6E67 		.ascii	"long unsigned int\000"
 3336      20756E73 
 3336      69676E65 
 3336      6420696E 
 3336      7400
 3337              	.LASF90:
 3338 0154 2F557365 		.ascii	"/Users/John/Development/embedded/ChibiOS-RT/BluC/ST"
 3338      72732F4A 
 3338      6F686E2F 
 3338      44657665 
 3338      6C6F706D 
 3339 0187 4D333246 		.ascii	"M32F051\000"
 3339      30353100 
ARM GAS  /var/folders/qh/xwg3v3kj02qbxczjpdb8lzfr0000gn/T//cc1yMur7.s 			page 61


 3340              	.LASF57:
 3341 018f 735F636E 		.ascii	"s_cnt\000"
 3341      7400
 3342              	.LASF46:
 3343 0195 636F6E74 		.ascii	"context\000"
 3343      65787400 
 3344              	.LASF4:
 3345 019d 73686F72 		.ascii	"short unsigned int\000"
 3345      7420756E 
 3345      7369676E 
 3345      65642069 
 3345      6E7400
 3346              	.LASF71:
 3347 01b0 63685365 		.ascii	"chSemReset\000"
 3347      6D526573 
 3347      657400
 3348              	.LASF18:
 3349 01bb 6D73675F 		.ascii	"msg_t\000"
 3349      7400
 3350              	.LASF81:
 3351 01c1 63684462 		.ascii	"chDbgCheckClassI\000"
 3351      67436865 
 3351      636B436C 
 3351      61737349 
 3351      00
 3352              	.LASF13:
 3353 01d2 746D6F64 		.ascii	"tmode_t\000"
 3353      655F7400 
 3354              	.LASF85:
 3355 01da 63684462 		.ascii	"chDbgCheckClassS\000"
 3355      67436865 
 3355      636B436C 
 3355      61737353 
 3355      00
 3356              	.LASF43:
 3357 01eb 54687265 		.ascii	"ThreadsList\000"
 3357      6164734C 
 3357      69737400 
 3358              	.LASF19:
 3359 01f7 6576656E 		.ascii	"eventmask_t\000"
 3359      746D6173 
 3359      6B5F7400 
 3360              	.LASF58:
 3361 0203 4D757465 		.ascii	"Mutex\000"
 3361      7800
 3362              	.LASF84:
 3363 0209 6462675F 		.ascii	"dbg_check_unlock\000"
 3363      63686563 
 3363      6B5F756E 
 3363      6C6F636B 
 3363      00
 3364              	.LASF47:
 3365 021a 73697A65 		.ascii	"sizetype\000"
 3365      74797065 
 3365      00
 3366              	.LASF88:
 3367 0223 474E5520 		.ascii	"GNU C 4.8.3 20131129 (release) [ARM/embedded-4_8-br"
ARM GAS  /var/folders/qh/xwg3v3kj02qbxczjpdb8lzfr0000gn/T//cc1yMur7.s 			page 62


 3367      4320342E 
 3367      382E3320 
 3367      32303133 
 3367      31313239 
 3368 0256 616E6368 		.ascii	"anch revision 205641] -mcpu=cortex-m0 -mno-thumb-in"
 3368      20726576 
 3368      6973696F 
 3368      6E203230 
 3368      35363431 
 3369 0289 74657277 		.ascii	"terwork -mthumb -ggdb -O2 -fomit-frame-pointer -fal"
 3369      6F726B20 
 3369      2D6D7468 
 3369      756D6220 
 3369      2D676764 
 3370 02bc 69676E2D 		.ascii	"ign-functions=16 -ffunction-sections -fdata-section"
 3370      66756E63 
 3370      74696F6E 
 3370      733D3136 
 3370      202D6666 
 3371 02ef 73202D66 		.ascii	"s -fno-common\000"
 3371      6E6F2D63 
 3371      6F6D6D6F 
 3371      6E00
 3372              	.LASF28:
 3373 02fd 705F6F6C 		.ascii	"p_older\000"
 3373      64657200 
 3374              	.LASF50:
 3375 0305 725F6374 		.ascii	"r_ctx\000"
 3375      7800
 3376              	.LASF42:
 3377 030b 54687265 		.ascii	"ThreadsQueue\000"
 3377      61647351 
 3377      75657565 
 3377      00
 3378              	.LASF75:
 3379 0318 74696D65 		.ascii	"time\000"
 3379      00
 3380              	.LASF53:
 3381 031d 725F6375 		.ascii	"r_current\000"
 3381      7272656E 
 3381      7400
 3382              	.LASF52:
 3383 0327 725F6F6C 		.ascii	"r_older\000"
 3383      64657200 
 3384              	.LASF15:
 3385 032f 74726566 		.ascii	"trefs_t\000"
 3385      735F7400 
 3386              	.LASF24:
 3387 0337 705F7072 		.ascii	"p_prev\000"
 3387      657600
 3388              	.LASF17:
 3389 033e 74707269 		.ascii	"tprio_t\000"
 3389      6F5F7400 
 3390              	.LASF12:
 3391 0346 5F426F6F 		.ascii	"_Bool\000"
 3391      6C00
 3392              	.LASF6:
ARM GAS  /var/folders/qh/xwg3v3kj02qbxczjpdb8lzfr0000gn/T//cc1yMur7.s 			page 63


 3393 034c 696E7433 		.ascii	"int32_t\000"
 3393      325F7400 
 3394              	.LASF2:
 3395 0354 756E7369 		.ascii	"unsigned char\000"
 3395      676E6564 
 3395      20636861 
 3395      7200
 3396              	.LASF39:
 3397 0362 705F6D74 		.ascii	"p_mtxlist\000"
 3397      786C6973 
 3397      7400
 3398              	.LASF3:
 3399 036c 73686F72 		.ascii	"short int\000"
 3399      7420696E 
 3399      7400
 3400              	.LASF30:
 3401 0376 705F7374 		.ascii	"p_state\000"
 3401      61746500 
 3402              	.LASF33:
 3403 037e 705F7072 		.ascii	"p_preempt\000"
 3403      65656D70 
 3403      7400
 3404              	.LASF49:
 3405 0388 725F7072 		.ascii	"r_prio\000"
 3405      696F00
 3406              	.LASF65:
 3407 038f 65776D61 		.ascii	"ewmask\000"
 3407      736B00
 3408              	.LASF23:
 3409 0396 705F6E65 		.ascii	"p_next\000"
 3409      787400
 3410              	.LASF31:
 3411 039d 705F666C 		.ascii	"p_flags\000"
 3411      61677300 
 3412              	.LASF72:
 3413 03a5 63685365 		.ascii	"chSemWaitS\000"
 3413      6D576169 
 3413      745300
 3414              	.LASF22:
 3415 03b0 54687265 		.ascii	"Thread\000"
 3415      616400
 3416              	.LASF93:
 3417 03b7 63685363 		.ascii	"chSchGoSleepS\000"
 3417      68476F53 
 3417      6C656570 
 3417      5300
 3418              	.LASF38:
 3419 03c5 705F6570 		.ascii	"p_epending\000"
 3419      656E6469 
 3419      6E6700
 3420              	.LASF8:
 3421 03d0 75696E74 		.ascii	"uint32_t\000"
 3421      33325F74 
 3421      00
 3422              	.LASF48:
 3423 03d9 725F7175 		.ascii	"r_queue\000"
 3423      65756500 
ARM GAS  /var/folders/qh/xwg3v3kj02qbxczjpdb8lzfr0000gn/T//cc1yMur7.s 			page 64


 3424              	.LASF86:
 3425 03e1 63685363 		.ascii	"chSchReadyI\000"
 3425      68526561 
 3425      64794900 
 3426              	.LASF66:
 3427 03ed 63686172 		.ascii	"char\000"
 3427      00
 3428              	.LASF68:
 3429 03f2 6669666F 		.ascii	"fifo_remove\000"
 3429      5F72656D 
 3429      6F766500 
 3430              	.LASF74:
 3431 03fe 63685365 		.ascii	"chSemWaitTimeoutS\000"
 3431      6D576169 
 3431      7454696D 
 3431      656F7574 
 3431      5300
 3432              	.LASF61:
 3433 0410 6D5F6E65 		.ascii	"m_next\000"
 3433      787400
 3434              	.LASF20:
 3435 0417 73797374 		.ascii	"systime_t\000"
 3435      696D655F 
 3435      7400
 3436              	.LASF40:
 3437 0421 705F7265 		.ascii	"p_realprio\000"
 3437      616C7072 
 3437      696F00
 3438              	.LASF73:
 3439 042c 63685365 		.ascii	"chSemWait\000"
 3439      6D576169 
 3439      7400
 3440              	.LASF34:
 3441 0436 705F7469 		.ascii	"p_time\000"
 3441      6D6500
 3442              	.LASF67:
 3443 043d 6C69666F 		.ascii	"lifo_remove\000"
 3443      5F72656D 
 3443      6F766500 
 3444              	.LASF45:
 3445 0449 696E7463 		.ascii	"intctx\000"
 3445      747800
 3446              	.LASF36:
 3447 0450 705F6D73 		.ascii	"p_msgqueue\000"
 3447      67717565 
 3447      756500
 3448              	.LASF94:
 3449 045b 63685363 		.ascii	"chSchWakeupS\000"
 3449      6857616B 
 3449      65757053 
 3449      00
 3450              	.LASF55:
 3451 0468 53656D61 		.ascii	"Semaphore\000"
 3451      70686F72 
 3451      6500
 3452              	.LASF32:
 3453 0472 705F7265 		.ascii	"p_refs\000"
ARM GAS  /var/folders/qh/xwg3v3kj02qbxczjpdb8lzfr0000gn/T//cc1yMur7.s 			page 65


 3453      667300
 3454              	.LASF54:
 3455 0479 52656164 		.ascii	"ReadyList\000"
 3455      794C6973 
 3455      7400
 3456              	.LASF70:
 3457 0483 63685365 		.ascii	"chSemResetI\000"
 3457      6D526573 
 3457      65744900 
 3458              	.LASF92:
 3459 048f 726C6973 		.ascii	"rlist\000"
 3459      7400
 3460              	.LASF5:
 3461 0495 75696E74 		.ascii	"uint8_t\000"
 3461      385F7400 
 3462              	.LASF64:
 3463 049d 77746F62 		.ascii	"wtobjp\000"
 3463      6A7000
 3464              	.LASF29:
 3465 04a4 705F6E61 		.ascii	"p_name\000"
 3465      6D6500
 3466              	.LASF87:
 3467 04ab 63685363 		.ascii	"chSchGoSleepTimeoutS\000"
 3467      68476F53 
 3467      6C656570 
 3467      54696D65 
 3467      6F757453 
 3468              	.LASF60:
 3469 04c0 6D5F6F77 		.ascii	"m_owner\000"
 3469      6E657200 
 3470              	.LASF26:
 3471 04c8 705F6374 		.ascii	"p_ctx\000"
 3471      7800
 3472              	.LASF35:
 3473 04ce 705F7761 		.ascii	"p_waiting\000"
 3473      6974696E 
 3473      6700
 3474              	.LASF69:
 3475 04d8 63685365 		.ascii	"chSemInit\000"
 3475      6D496E69 
 3475      7400
 3476              		.ident	"GCC: (GNU Tools for ARM Embedded Processors) 4.8.3 20131129 (release) [ARM/embedded-4_8-br
ARM GAS  /var/folders/qh/xwg3v3kj02qbxczjpdb8lzfr0000gn/T//cc1yMur7.s 			page 66


DEFINED SYMBOLS
                            *ABS*:0000000000000000 chsem.c
/var/folders/qh/xwg3v3kj02qbxczjpdb8lzfr0000gn/T//cc1yMur7.s:18     .text.chSemInit:0000000000000000 $t
/var/folders/qh/xwg3v3kj02qbxczjpdb8lzfr0000gn/T//cc1yMur7.s:24     .text.chSemInit:0000000000000000 chSemInit
/var/folders/qh/xwg3v3kj02qbxczjpdb8lzfr0000gn/T//cc1yMur7.s:42     .text.chSemResetI:0000000000000000 $t
/var/folders/qh/xwg3v3kj02qbxczjpdb8lzfr0000gn/T//cc1yMur7.s:48     .text.chSemResetI:0000000000000000 chSemResetI
/var/folders/qh/xwg3v3kj02qbxczjpdb8lzfr0000gn/T//cc1yMur7.s:119    .text.chSemReset:0000000000000000 $t
/var/folders/qh/xwg3v3kj02qbxczjpdb8lzfr0000gn/T//cc1yMur7.s:125    .text.chSemReset:0000000000000000 chSemReset
/var/folders/qh/xwg3v3kj02qbxczjpdb8lzfr0000gn/T//cc1yMur7.s:170    .text.chSemWaitS:0000000000000000 $t
/var/folders/qh/xwg3v3kj02qbxczjpdb8lzfr0000gn/T//cc1yMur7.s:176    .text.chSemWaitS:0000000000000000 chSemWaitS
/var/folders/qh/xwg3v3kj02qbxczjpdb8lzfr0000gn/T//cc1yMur7.s:241    .text.chSemWaitS:0000000000000034 $d
/var/folders/qh/xwg3v3kj02qbxczjpdb8lzfr0000gn/T//cc1yMur7.s:246    .text.chSemWait:0000000000000000 $t
/var/folders/qh/xwg3v3kj02qbxczjpdb8lzfr0000gn/T//cc1yMur7.s:252    .text.chSemWait:0000000000000000 chSemWait
/var/folders/qh/xwg3v3kj02qbxczjpdb8lzfr0000gn/T//cc1yMur7.s:292    .text.chSemWaitTimeoutS:0000000000000000 $t
/var/folders/qh/xwg3v3kj02qbxczjpdb8lzfr0000gn/T//cc1yMur7.s:298    .text.chSemWaitTimeoutS:0000000000000000 chSemWaitTimeoutS
/var/folders/qh/xwg3v3kj02qbxczjpdb8lzfr0000gn/T//cc1yMur7.s:377    .text.chSemWaitTimeoutS:0000000000000040 $d
/var/folders/qh/xwg3v3kj02qbxczjpdb8lzfr0000gn/T//cc1yMur7.s:382    .text.chSemWaitTimeout:0000000000000000 $t
/var/folders/qh/xwg3v3kj02qbxczjpdb8lzfr0000gn/T//cc1yMur7.s:388    .text.chSemWaitTimeout:0000000000000000 chSemWaitTimeout
/var/folders/qh/xwg3v3kj02qbxczjpdb8lzfr0000gn/T//cc1yMur7.s:433    .text.chSemSignal:0000000000000000 $t
/var/folders/qh/xwg3v3kj02qbxczjpdb8lzfr0000gn/T//cc1yMur7.s:439    .text.chSemSignal:0000000000000000 chSemSignal
/var/folders/qh/xwg3v3kj02qbxczjpdb8lzfr0000gn/T//cc1yMur7.s:502    .text.chSemSignalI:0000000000000000 $t
/var/folders/qh/xwg3v3kj02qbxczjpdb8lzfr0000gn/T//cc1yMur7.s:508    .text.chSemSignalI:0000000000000000 chSemSignalI
/var/folders/qh/xwg3v3kj02qbxczjpdb8lzfr0000gn/T//cc1yMur7.s:559    .text.chSemAddCounterI:0000000000000000 $t
/var/folders/qh/xwg3v3kj02qbxczjpdb8lzfr0000gn/T//cc1yMur7.s:565    .text.chSemAddCounterI:0000000000000000 chSemAddCounterI
/var/folders/qh/xwg3v3kj02qbxczjpdb8lzfr0000gn/T//cc1yMur7.s:639    .text.chSemSignalWait:0000000000000000 $t
/var/folders/qh/xwg3v3kj02qbxczjpdb8lzfr0000gn/T//cc1yMur7.s:645    .text.chSemSignalWait:0000000000000000 chSemSignalWait
/var/folders/qh/xwg3v3kj02qbxczjpdb8lzfr0000gn/T//cc1yMur7.s:753    .text.chSemSignalWait:000000000000005c $d
                     .debug_frame:0000000000000010 $d
/var/folders/qh/xwg3v3kj02qbxczjpdb8lzfr0000gn/T//cc1yMur7.s:245    .text.chSemWaitS:0000000000000038 $t
/var/folders/qh/xwg3v3kj02qbxczjpdb8lzfr0000gn/T//cc1yMur7.s:381    .text.chSemWaitTimeoutS:0000000000000044 $t

UNDEFINED SYMBOLS
chDbgCheckClassI
chSchReadyI
dbg_check_lock
chSchRescheduleS
dbg_check_unlock
chDbgCheckClassS
chSchGoSleepS
rlist
chSchGoSleepTimeoutS
chSchWakeupS
