ARM GAS  /var/folders/qh/xwg3v3kj02qbxczjpdb8lzfr0000gn/T//cc6YcsW6.s 			page 1


   1              		.cpu cortex-m0
   2              		.fpu softvfp
   3              		.eabi_attribute 20, 1
   4              		.eabi_attribute 21, 1
   5              		.eabi_attribute 23, 3
   6              		.eabi_attribute 24, 1
   7              		.eabi_attribute 25, 1
   8              		.eabi_attribute 26, 1
   9              		.eabi_attribute 30, 2
  10              		.eabi_attribute 34, 0
  11              		.eabi_attribute 18, 4
  12              		.code	16
  13              		.file	"chsys.c"
  14              		.text
  15              	.Ltext0:
  16              		.cfi_sections	.debug_frame
  17              		.section	.text._idle_thread,"ax",%progbits
  18              		.align	2
  19              		.p2align 4,,15
  20              		.global	_idle_thread
  21              		.code	16
  22              		.thumb_func
  23              		.type	_idle_thread, %function
  24              	_idle_thread:
  25              	.LFB7:
  26              		.file 1 "../../os/kernel/src/chsys.c"
  27              		.loc 1 54 0
  28              		.cfi_startproc
  29              	.LVL0:
  30              		.loc 1 57 0
  31 0000 024B     		ldr	r3, .L4
  32 0002 034A     		ldr	r2, .L4+4
  33 0004 9B69     		ldr	r3, [r3, #24]
  34 0006 9A61     		str	r2, [r3, #24]
  35              	.L2:
  36 0008 FEE7     		b	.L2
  37              	.L5:
  38 000a C046     		.align	2
  39              	.L4:
  40 000c 00000000 		.word	rlist
  41 0010 00000000 		.word	.LC1
  42              		.cfi_endproc
  43              	.LFE7:
  44              		.size	_idle_thread, .-_idle_thread
  45 0014 C046C046 		.section	.text.chSysInit,"ax",%progbits
  45      C046C046 
  45      C046C046 
  46              		.align	2
  47              		.p2align 4,,15
  48              		.global	chSysInit
  49              		.code	16
  50              		.thumb_func
  51              		.type	chSysInit, %function
  52              	chSysInit:
  53              	.LFB8:
  54              		.loc 1 77 0
  55              		.cfi_startproc
ARM GAS  /var/folders/qh/xwg3v3kj02qbxczjpdb8lzfr0000gn/T//cc6YcsW6.s 			page 2


  56 0000 00B5     		push	{lr}
  57              		.cfi_def_cfa_offset 4
  58              		.cfi_offset 14, -4
  59              		.loc 1 83 0
  60 0002 154A     		ldr	r2, .L7
  61 0004 154B     		ldr	r3, .L7+4
  62              		.loc 1 77 0
  63 0006 83B0     		sub	sp, sp, #12
  64              		.cfi_def_cfa_offset 16
  65              		.loc 1 83 0
  66 0008 DA60     		str	r2, [r3, #12]
  67 000a 0A20     		mov	r0, #10
  68 000c 0021     		mov	r1, #0
  69 000e FFF7FEFF 		bl	nvicSetSystemHandlerPriority
  70              	.LVL1:
  71 0012 0B20     		mov	r0, #11
  72 0014 8021     		mov	r1, #128
  73 0016 FFF7FEFF 		bl	nvicSetSystemHandlerPriority
  74              	.LVL2:
  75              		.loc 1 84 0
  76 001a FFF7FEFF 		bl	_scheduler_init
  77              	.LVL3:
  78              		.loc 1 85 0
  79 001e FFF7FEFF 		bl	_vt_init
  80              	.LVL4:
  81              		.loc 1 87 0
  82 0022 FFF7FEFF 		bl	_core_init
  83              	.LVL5:
  84              		.loc 1 90 0
  85 0026 FFF7FEFF 		bl	_heap_init
  86              	.LVL6:
  87              		.loc 1 97 0
  88 002a 4021     		mov	r1, #64
  89 002c 0C48     		ldr	r0, .L7+8
  90 002e FFF7FEFF 		bl	_thread_init
  91              	.LVL7:
  92 0032 0C4B     		ldr	r3, .L7+12
  93 0034 9861     		str	r0, [r3, #24]
  94              		.loc 1 98 0
  95 0036 0123     		mov	r3, #1
  96 0038 0377     		strb	r3, [r0, #28]
  97              		.loc 1 104 0
  98              	@ 104 "../../os/kernel/src/chsys.c" 1
  99 003a 62B6     		cpsie   i
 100              	@ 0 "" 2
 101              		.loc 1 108 0
 102              		.code	16
 103 003c 094B     		ldr	r3, .L7+12
 104 003e 0A4A     		ldr	r2, .L7+16
 105 0040 9B69     		ldr	r3, [r3, #24]
 106              		.loc 1 114 0
 107 0042 C021     		mov	r1, #192
 108              		.loc 1 108 0
 109 0044 9A61     		str	r2, [r3, #24]
 110              		.loc 1 114 0
 111 0046 0023     		mov	r3, #0
 112 0048 0093     		str	r3, [sp]
ARM GAS  /var/folders/qh/xwg3v3kj02qbxczjpdb8lzfr0000gn/T//cc6YcsW6.s 			page 3


 113 004a 0122     		mov	r2, #1
 114 004c 074B     		ldr	r3, .L7+20
 115 004e 0848     		ldr	r0, .L7+24
 116 0050 FFF7FEFF 		bl	chThdCreateStatic
 117              	.LVL8:
 118              		.loc 1 117 0
 119 0054 03B0     		add	sp, sp, #12
 120              		@ sp needed
 121 0056 00BD     		pop	{pc}
 122              	.L8:
 123              		.align	2
 124              	.L7:
 125 0058 0000FA05 		.word	100270080
 126 005c 00ED00E0 		.word	-536810240
 127 0060 00000000 		.word	.LANCHOR0
 128 0064 00000000 		.word	rlist
 129 0068 00000000 		.word	ch_debug
 130 006c 00000000 		.word	_idle_thread
 131 0070 00000000 		.word	.LANCHOR1
 132              		.cfi_endproc
 133              	.LFE8:
 134              		.size	chSysInit, .-chSysInit
 135 0074 C046C046 		.section	.text.chSysTimerHandlerI,"ax",%progbits
 135      C046C046 
 135      C046C046 
 136              		.align	2
 137              		.p2align 4,,15
 138              		.global	chSysTimerHandlerI
 139              		.code	16
 140              		.thumb_func
 141              		.type	chSysTimerHandlerI, %function
 142              	chSysTimerHandlerI:
 143              	.LFB9:
 144              		.loc 1 130 0
 145              		.cfi_startproc
 146 0000 70B5     		push	{r4, r5, r6, lr}
 147              		.cfi_def_cfa_offset 16
 148              		.cfi_offset 4, -16
 149              		.cfi_offset 5, -12
 150              		.cfi_offset 6, -8
 151              		.cfi_offset 14, -4
 152              		.loc 1 136 0
 153 0002 134B     		ldr	r3, .L17
 154 0004 9B69     		ldr	r3, [r3, #24]
 155 0006 DA7F     		ldrb	r2, [r3, #31]
 156 0008 002A     		cmp	r2, #0
 157 000a 01D0     		beq	.L10
 158              		.loc 1 138 0
 159 000c 013A     		sub	r2, r2, #1
 160 000e DA77     		strb	r2, [r3, #31]
 161              	.L10:
 162              		.loc 1 141 0
 163 0010 1A6A     		ldr	r2, [r3, #32]
 164 0012 0132     		add	r2, r2, #1
 165 0014 1A62     		str	r2, [r3, #32]
 166              		.loc 1 143 0
 167 0016 0F4A     		ldr	r2, .L17+4
ARM GAS  /var/folders/qh/xwg3v3kj02qbxczjpdb8lzfr0000gn/T//cc6YcsW6.s 			page 4


 168 0018 D368     		ldr	r3, [r2, #12]
 169 001a 0133     		add	r3, r3, #1
 170 001c D360     		str	r3, [r2, #12]
 171 001e 1368     		ldr	r3, [r2]
 172 0020 9342     		cmp	r3, r2
 173 0022 14D0     		beq	.L9
 174              	.LBB2:
 175              		.loc 1 143 0 is_stmt 0 discriminator 1
 176 0024 9968     		ldr	r1, [r3, #8]
 177 0026 0139     		sub	r1, r1, #1
 178 0028 9960     		str	r1, [r3, #8]
 179              	.LVL9:
 180 002a 0029     		cmp	r1, #0
 181 002c 0FD1     		bne	.L9
 182              	.LBB3:
 183              		.loc 1 143 0
 184 002e 0026     		mov	r6, #0
 185              	.LBE3:
 186 0030 141C     		mov	r4, r2
 187              	.L13:
 188              	.LBB4:
 189              		.loc 1 143 0 discriminator 2
 190 0032 1968     		ldr	r1, [r3]
 191 0034 DD68     		ldr	r5, [r3, #12]
 192              	.LVL10:
 193 0036 1160     		str	r1, [r2]
 194 0038 DE60     		str	r6, [r3, #12]
 195 003a 4A60     		str	r2, [r1, #4]
 196              	@ 143 "../../os/kernel/src/chsys.c" 1
 197 003c 62B6     		cpsie   i
 198              	@ 0 "" 2
 199              		.code	16
 200 003e 1869     		ldr	r0, [r3, #16]
 201 0040 A847     		blx	r5
 202              	.LVL11:
 203              	@ 143 "../../os/kernel/src/chsys.c" 1
 204 0042 72B6     		cpsid   i
 205              	@ 0 "" 2
 206              		.code	16
 207              	.LBE4:
 208 0044 2368     		ldr	r3, [r4]
 209              	.LVL12:
 210 0046 221C     		mov	r2, r4
 211 0048 9968     		ldr	r1, [r3, #8]
 212 004a 0029     		cmp	r1, #0
 213 004c F1D0     		beq	.L13
 214              	.LVL13:
 215              	.L9:
 216              	.LBE2:
 217              		.loc 1 147 0 is_stmt 1
 218              		@ sp needed
 219 004e 70BD     		pop	{r4, r5, r6, pc}
 220              	.L18:
 221              		.align	2
 222              	.L17:
 223 0050 00000000 		.word	rlist
 224 0054 00000000 		.word	vtlist
ARM GAS  /var/folders/qh/xwg3v3kj02qbxczjpdb8lzfr0000gn/T//cc6YcsW6.s 			page 5


 225              		.cfi_endproc
 226              	.LFE9:
 227              		.size	chSysTimerHandlerI, .-chSysTimerHandlerI
 228              		.global	_idle_thread_wa
 229 0058 C046C046 		.section	.bss.mainthread.4774,"aw",%nobits
 229      C046C046 
 230              		.align	2
 231              		.set	.LANCHOR0,. + 0
 232              		.type	mainthread.4774, %object
 233              		.size	mainthread.4774, 72
 234              	mainthread.4774:
 235 0000 00000000 		.space	72
 235      00000000 
 235      00000000 
 235      00000000 
 235      00000000 
 236              		.section	.rodata.str1.4,"aMS",%progbits,1
 237              		.align	2
 238              	.LC1:
 239 0000 69646C65 		.ascii	"idle\000"
 239      00
 240 0005 000000   		.section	.bss._idle_thread_wa,"aw",%nobits
 241              		.align	3
 242              		.set	.LANCHOR1,. + 0
 243              		.type	_idle_thread_wa, %object
 244              		.size	_idle_thread_wa, 192
 245              	_idle_thread_wa:
 246 0000 00000000 		.space	192
 246      00000000 
 246      00000000 
 246      00000000 
 246      00000000 
 247              		.text
 248              	.Letext0:
 249              		.file 2 "/usr/local/Cellar/gcc-arm-none-eabi-48/20131218/lib/gcc/arm-none-eabi/4.8.3/include/stdde
 250              		.file 3 "/usr/local/Cellar/gcc-arm-none-eabi-48/20131218/arm-none-eabi/include/stdint.h"
 251              		.file 4 "../../os/ports/GCC/ARMCMx/chtypes.h"
 252              		.file 5 "../../os/kernel/include/chlists.h"
 253              		.file 6 "../../os/kernel/include/chthreads.h"
 254              		.file 7 "../../os/ports/GCC/ARMCMx/chcore_v6m.h"
 255              		.file 8 "../../os/ports/common/ARMCMx/nvic.h"
 256              		.file 9 "../../os/kernel/include/chvt.h"
 257              		.file 10 "../../os/kernel/include/chschd.h"
 258              		.file 11 "../../os/kernel/include/chmtx.h"
 259              		.file 12 "../../os/kernel/include/chregistry.h"
 260              		.file 13 "../../os/kernel/include/chmemcore.h"
 261              		.file 14 "../../os/kernel/include/chheap.h"