ARM GAS  /var/folders/qh/xwg3v3kj02qbxczjpdb8lzfr0000gn/T//ccQ3ewSi.s 			page 1


   1              		.cpu cortex-m0
   2              		.fpu softvfp
   3              		.eabi_attribute 20, 1
   4              		.eabi_attribute 21, 1
   5              		.eabi_attribute 23, 3
   6              		.eabi_attribute 24, 1
   7              		.eabi_attribute 25, 1
   8              		.eabi_attribute 26, 1
   9              		.eabi_attribute 30, 2
  10              		.eabi_attribute 34, 0
  11              		.eabi_attribute 18, 4
  12              		.code	16
  13              		.file	"chthreads.c"
  14              		.text
  15              	.Ltext0:
  16              		.cfi_sections	.debug_frame
  17              		.section	.text._thread_init,"ax",%progbits
  18              		.align	2
  19              		.p2align 4,,15
  20              		.global	_thread_init
  21              		.code	16
  22              		.thumb_func
  23              		.type	_thread_init, %function
  24              	_thread_init:
  25              	.LFB7:
  26              		.file 1 "../../os/kernel/src/chthreads.c"
  27              		.loc 1 69 0
  28              		.cfi_startproc
  29              	.LVL0:
  30              		.loc 1 72 0
  31 0000 0223     		mov	r3, #2
  32 0002 0377     		strb	r3, [r0, #28]
  33              		.loc 1 73 0
  34 0004 0023     		mov	r3, #0
  35 0006 4377     		strb	r3, [r0, #29]
  36              		.loc 1 79 0
  37 0008 C363     		str	r3, [r0, #60]
  38              		.loc 1 82 0
  39 000a 8363     		str	r3, [r0, #56]
  40              		.loc 1 85 0
  41 000c 0362     		str	r3, [r0, #32]
  42              		.loc 1 91 0
  43 000e 8361     		str	r3, [r0, #24]
  44              		.loc 1 75 0
  45 0010 1422     		mov	r2, #20
  46              		.loc 1 92 0
  47 0012 094B     		ldr	r3, .L2
  48              		.loc 1 75 0
  49 0014 C277     		strb	r2, [r0, #31]
  50              		.loc 1 88 0
  51 0016 0122     		mov	r2, #1
  52 0018 8277     		strb	r2, [r0, #30]
  53              		.loc 1 92 0
  54 001a 5A69     		ldr	r2, [r3, #20]
  55 001c 0361     		str	r3, [r0, #16]
  56              		.loc 1 71 0
  57 001e 8160     		str	r1, [r0, #8]
ARM GAS  /var/folders/qh/xwg3v3kj02qbxczjpdb8lzfr0000gn/T//ccQ3ewSi.s 			page 2


  58              		.loc 1 92 0
  59 0020 4261     		str	r2, [r0, #20]
  60 0022 5861     		str	r0, [r3, #20]
  61              		.loc 1 95 0
  62 0024 031C     		mov	r3, r0
  63 0026 2833     		add	r3, r3, #40
  64              		.loc 1 78 0
  65 0028 0164     		str	r1, [r0, #64]
  66              		.loc 1 92 0
  67 002a 1061     		str	r0, [r2, #16]
  68              		.loc 1 95 0
  69 002c 8362     		str	r3, [r0, #40]
  70              		.loc 1 98 0
  71 002e 0433     		add	r3, r3, #4
  72 0030 0363     		str	r3, [r0, #48]
  73 0032 C362     		str	r3, [r0, #44]
  74              		.loc 1 107 0
  75              		@ sp needed
  76 0034 7047     		bx	lr
  77              	.L3:
  78 0036 C046     		.align	2
  79              	.L2:
  80 0038 00000000 		.word	rlist
  81              		.cfi_endproc
  82              	.LFE7:
  83              		.size	_thread_init, .-_thread_init
  84 003c C046C046 		.section	.text.chThdCreateI,"ax",%progbits
  85              		.align	2
  86              		.p2align 4,,15
  87              		.global	chThdCreateI
  88              		.code	16
  89              		.thumb_func
  90              		.type	chThdCreateI, %function
  91              	chThdCreateI:
  92              	.LFB8:
  93              		.loc 1 151 0
  94              		.cfi_startproc
  95              	.LVL1:
  96              		.loc 1 160 0
  97 0000 2439     		sub	r1, r1, #36
  98              	.LVL2:
  99 0002 4118     		add	r1, r0, r1
 100              	.LVL3:
 101 0004 C160     		str	r1, [r0, #12]
 102 0006 0B61     		str	r3, [r1, #16]
 103 0008 009B     		ldr	r3, [sp]
 104              	.LVL4:
 105              		.loc 1 162 0
 106              		@ sp needed
 107              		.loc 1 160 0
 108 000a 4B61     		str	r3, [r1, #20]
 109 000c 0E4B     		ldr	r3, .L5
 110 000e 0B62     		str	r3, [r1, #32]
 111              	.LVL5:
 112              	.LBB12:
 113              	.LBB13:
 114              		.loc 1 72 0
ARM GAS  /var/folders/qh/xwg3v3kj02qbxczjpdb8lzfr0000gn/T//ccQ3ewSi.s 			page 3


 115 0010 0223     		mov	r3, #2
 116 0012 0377     		strb	r3, [r0, #28]
 117              	.LVL6:
 118              		.loc 1 73 0
 119 0014 0023     		mov	r3, #0
 120 0016 4377     		strb	r3, [r0, #29]
 121              		.loc 1 79 0
 122 0018 C363     		str	r3, [r0, #60]
 123              		.loc 1 82 0
 124 001a 8363     		str	r3, [r0, #56]
 125              		.loc 1 85 0
 126 001c 0362     		str	r3, [r0, #32]
 127              		.loc 1 91 0
 128 001e 8361     		str	r3, [r0, #24]
 129              		.loc 1 92 0
 130 0020 0A4B     		ldr	r3, .L5+4
 131              		.loc 1 71 0
 132 0022 8260     		str	r2, [r0, #8]
 133              		.loc 1 78 0
 134 0024 0264     		str	r2, [r0, #64]
 135              		.loc 1 88 0
 136 0026 0122     		mov	r2, #1
 137              	.LVL7:
 138 0028 8277     		strb	r2, [r0, #30]
 139              		.loc 1 92 0
 140 002a 5A69     		ldr	r2, [r3, #20]
 141 002c 0361     		str	r3, [r0, #16]
 142 002e 4261     		str	r2, [r0, #20]
 143 0030 5861     		str	r0, [r3, #20]
 144              		.loc 1 95 0
 145 0032 031C     		mov	r3, r0
 146              		.loc 1 75 0
 147 0034 1421     		mov	r1, #20
 148              		.loc 1 95 0
 149 0036 2833     		add	r3, r3, #40
 150              		.loc 1 75 0
 151 0038 C177     		strb	r1, [r0, #31]
 152              		.loc 1 92 0
 153 003a 1061     		str	r0, [r2, #16]
 154              		.loc 1 95 0
 155 003c 8362     		str	r3, [r0, #40]
 156              		.loc 1 98 0
 157 003e 0433     		add	r3, r3, #4
 158 0040 0363     		str	r3, [r0, #48]
 159 0042 C362     		str	r3, [r0, #44]
 160              	.LBE13:
 161              	.LBE12:
 162              		.loc 1 162 0
 163 0044 7047     		bx	lr
 164              	.L6:
 165 0046 C046     		.align	2
 166              	.L5:
 167 0048 00000000 		.word	_port_thread_start
 168 004c 00000000 		.word	rlist
 169              		.cfi_endproc
 170              	.LFE8:
 171              		.size	chThdCreateI, .-chThdCreateI
ARM GAS  /var/folders/qh/xwg3v3kj02qbxczjpdb8lzfr0000gn/T//ccQ3ewSi.s 			page 4


 172              		.section	.text.chThdCreateStatic,"ax",%progbits
 173              		.align	2
 174              		.p2align 4,,15
 175              		.global	chThdCreateStatic
 176              		.code	16
 177              		.thumb_func
 178              		.type	chThdCreateStatic, %function
 179              	chThdCreateStatic:
 180              	.LFB9:
 181              		.loc 1 181 0
 182              		.cfi_startproc
 183              	.LVL8:
 184 0000 10B5     		push	{r4, lr}
 185              		.cfi_def_cfa_offset 8
 186              		.cfi_offset 4, -8
 187              		.cfi_offset 14, -4
 188              		.loc 1 181 0
 189 0002 041C     		mov	r4, r0
 190              		.loc 1 192 0
 191              	@ 192 "../../os/kernel/src/chthreads.c" 1
 192 0004 72B6     		cpsid   i
 193              	@ 0 "" 2
 194              	.LVL9:
 195              		.code	16
 196              	.LBB14:
 197              	.LBB15:
 198              		.loc 1 160 0
 199 0006 2439     		sub	r1, r1, #36
 200              	.LVL10:
 201 0008 4118     		add	r1, r0, r1
 202              	.LVL11:
 203 000a C160     		str	r1, [r0, #12]
 204 000c 0B61     		str	r3, [r1, #16]
 205 000e 029B     		ldr	r3, [sp, #8]
 206              	.LVL12:
 207 0010 4B61     		str	r3, [r1, #20]
 208 0012 114B     		ldr	r3, .L8
 209 0014 0B62     		str	r3, [r1, #32]
 210              	.LVL13:
 211              	.LBB16:
 212              	.LBB17:
 213              		.loc 1 72 0
 214 0016 0223     		mov	r3, #2
 215 0018 0377     		strb	r3, [r0, #28]
 216              	.LVL14:
 217              		.loc 1 73 0
 218 001a 0023     		mov	r3, #0
 219 001c 4377     		strb	r3, [r0, #29]
 220              		.loc 1 79 0
 221 001e C363     		str	r3, [r0, #60]
 222              		.loc 1 82 0
 223 0020 8363     		str	r3, [r0, #56]
 224              		.loc 1 85 0
 225 0022 0362     		str	r3, [r0, #32]
 226              		.loc 1 91 0
 227 0024 8361     		str	r3, [r0, #24]
 228              		.loc 1 92 0
ARM GAS  /var/folders/qh/xwg3v3kj02qbxczjpdb8lzfr0000gn/T//ccQ3ewSi.s 			page 5


 229 0026 0D4B     		ldr	r3, .L8+4
 230              		.loc 1 71 0
 231 0028 8260     		str	r2, [r0, #8]
 232              		.loc 1 78 0
 233 002a 0264     		str	r2, [r0, #64]
 234              		.loc 1 88 0
 235 002c 0122     		mov	r2, #1
 236              	.LVL15:
 237 002e 8277     		strb	r2, [r0, #30]
 238              		.loc 1 92 0
 239 0030 5A69     		ldr	r2, [r3, #20]
 240 0032 0361     		str	r3, [r0, #16]
 241 0034 4261     		str	r2, [r0, #20]
 242 0036 5861     		str	r0, [r3, #20]
 243              		.loc 1 95 0
 244 0038 031C     		mov	r3, r0
 245              		.loc 1 75 0
 246 003a 1421     		mov	r1, #20
 247              		.loc 1 95 0
 248 003c 2833     		add	r3, r3, #40
 249              		.loc 1 75 0
 250 003e C177     		strb	r1, [r0, #31]
 251              		.loc 1 92 0
 252 0040 1061     		str	r0, [r2, #16]
 253              		.loc 1 95 0
 254 0042 8362     		str	r3, [r0, #40]
 255              		.loc 1 98 0
 256 0044 0433     		add	r3, r3, #4
 257 0046 0363     		str	r3, [r0, #48]
 258 0048 C362     		str	r3, [r0, #44]
 259              	.LBE17:
 260              	.LBE16:
 261              	.LBE15:
 262              	.LBE14:
 263              		.loc 1 193 0
 264 004a 0021     		mov	r1, #0
 265 004c FFF7FEFF 		bl	chSchWakeupS
 266              	.LVL16:
 267              		.loc 1 194 0
 268              	@ 194 "../../os/kernel/src/chthreads.c" 1
 269 0050 62B6     		cpsie   i
 270              	@ 0 "" 2
 271              		.loc 1 196 0
 272              		.code	16
 273 0052 201C     		mov	r0, r4
 274              		@ sp needed
 275              	.LVL17:
 276 0054 10BD     		pop	{r4, pc}
 277              	.L9:
 278 0056 C046     		.align	2
 279              	.L8:
 280 0058 00000000 		.word	_port_thread_start
 281 005c 00000000 		.word	rlist
 282              		.cfi_endproc
 283              	.LFE9:
 284              		.size	chThdCreateStatic, .-chThdCreateStatic
 285              		.section	.text.chThdSetPriority,"ax",%progbits
ARM GAS  /var/folders/qh/xwg3v3kj02qbxczjpdb8lzfr0000gn/T//ccQ3ewSi.s 			page 6


 286              		.align	2
 287              		.p2align 4,,15
 288              		.global	chThdSetPriority
 289              		.code	16
 290              		.thumb_func
 291              		.type	chThdSetPriority, %function
 292              	chThdSetPriority:
 293              	.LFB10:
 294              		.loc 1 210 0
 295              		.cfi_startproc
 296              	.LVL18:
 297 0000 10B5     		push	{r4, lr}
 298              		.cfi_def_cfa_offset 8
 299              		.cfi_offset 4, -8
 300              		.cfi_offset 14, -4
 301              		.loc 1 215 0
 302              	@ 215 "../../os/kernel/src/chthreads.c" 1
 303 0002 72B6     		cpsid   i
 304              	@ 0 "" 2
 305              		.loc 1 217 0
 306              		.code	16
 307 0004 074B     		ldr	r3, .L14
 308 0006 9B69     		ldr	r3, [r3, #24]
 309 0008 1C6C     		ldr	r4, [r3, #64]
 310              	.LVL19:
 311              		.loc 1 218 0
 312 000a 9968     		ldr	r1, [r3, #8]
 313 000c 8C42     		cmp	r4, r1
 314 000e 01D0     		beq	.L11
 315              		.loc 1 218 0 is_stmt 0 discriminator 1
 316 0010 8142     		cmp	r1, r0
 317 0012 00D2     		bcs	.L12
 318              	.L11:
 319              		.loc 1 219 0 is_stmt 1
 320 0014 9860     		str	r0, [r3, #8]
 321              	.L12:
 322              		.loc 1 220 0
 323 0016 1864     		str	r0, [r3, #64]
 324              		.loc 1 225 0
 325 0018 FFF7FEFF 		bl	chSchRescheduleS
 326              	.LVL20:
 327              		.loc 1 226 0
 328              	@ 226 "../../os/kernel/src/chthreads.c" 1
 329 001c 62B6     		cpsie   i
 330              	@ 0 "" 2
 331              		.loc 1 228 0
 332              		.code	16
 333 001e 201C     		mov	r0, r4
 334              		@ sp needed
 335              	.LVL21:
 336 0020 10BD     		pop	{r4, pc}
 337              	.L15:
 338 0022 C046     		.align	2
 339              	.L14:
 340 0024 00000000 		.word	rlist
 341              		.cfi_endproc
 342              	.LFE10:
ARM GAS  /var/folders/qh/xwg3v3kj02qbxczjpdb8lzfr0000gn/T//ccQ3ewSi.s 			page 7


 343              		.size	chThdSetPriority, .-chThdSetPriority
 344 0028 C046C046 		.section	.text.chThdResume,"ax",%progbits
 344      C046C046 
 345              		.align	2
 346              		.p2align 4,,15
 347              		.global	chThdResume
 348              		.code	16
 349              		.thumb_func
 350              		.type	chThdResume, %function
 351              	chThdResume:
 352              	.LFB11:
 353              		.loc 1 243 0
 354              		.cfi_startproc
 355              	.LVL22:
 356 0000 10B5     		push	{r4, lr}
 357              		.cfi_def_cfa_offset 8
 358              		.cfi_offset 4, -8
 359              		.cfi_offset 14, -4
 360              		.loc 1 243 0
 361 0002 041C     		mov	r4, r0
 362              		.loc 1 245 0
 363              	@ 245 "../../os/kernel/src/chthreads.c" 1
 364 0004 72B6     		cpsid   i
 365              	@ 0 "" 2
 366              		.loc 1 249 0
 367              		.code	16
 368 0006 0021     		mov	r1, #0
 369 0008 FFF7FEFF 		bl	chSchWakeupS
 370              	.LVL23:
 371              		.loc 1 250 0
 372              	@ 250 "../../os/kernel/src/chthreads.c" 1
 373 000c 62B6     		cpsie   i
 374              	@ 0 "" 2
 375              		.loc 1 252 0
 376              		.code	16
 377 000e 201C     		mov	r0, r4
 378              		@ sp needed
 379              	.LVL24:
 380 0010 10BD     		pop	{r4, pc}
 381              		.cfi_endproc
 382              	.LFE11:
 383              		.size	chThdResume, .-chThdResume
 384 0012 C046C046 		.section	.text.chThdTerminate,"ax",%progbits
 384      C046C046 
 384      C046C046 
 384      C046
 385              		.align	2
 386              		.p2align 4,,15
 387              		.global	chThdTerminate
 388              		.code	16
 389              		.thumb_func
 390              		.type	chThdTerminate, %function
 391              	chThdTerminate:
 392              	.LFB12:
 393              		.loc 1 266 0
 394              		.cfi_startproc
 395              	.LVL25:
ARM GAS  /var/folders/qh/xwg3v3kj02qbxczjpdb8lzfr0000gn/T//ccQ3ewSi.s 			page 8


 396              		.loc 1 268 0
 397              	@ 268 "../../os/kernel/src/chthreads.c" 1
 398 0000 72B6     		cpsid   i
 399              	@ 0 "" 2
 400              		.loc 1 269 0
 401              		.code	16
 402 0002 427F     		ldrb	r2, [r0, #29]
 403 0004 0423     		mov	r3, #4
 404 0006 1343     		orr	r3, r2
 405 0008 4377     		strb	r3, [r0, #29]
 406              		.loc 1 270 0
 407              	@ 270 "../../os/kernel/src/chthreads.c" 1
 408 000a 62B6     		cpsie   i
 409              	@ 0 "" 2
 410              		.loc 1 271 0
 411              		.code	16
 412              		@ sp needed
 413 000c 7047     		bx	lr
 414              		.cfi_endproc
 415              	.LFE12:
 416              		.size	chThdTerminate, .-chThdTerminate
 417 000e C046     		.section	.text.chThdSleep,"ax",%progbits
 418              		.align	2
 419              		.p2align 4,,15
 420              		.global	chThdSleep
 421              		.code	16
 422              		.thumb_func
 423              		.type	chThdSleep, %function
 424              	chThdSleep:
 425              	.LFB13:
 426              		.loc 1 285 0
 427              		.cfi_startproc
 428              	.LVL26:
 429 0000 08B5     		push	{r3, lr}
 430              		.cfi_def_cfa_offset 8
 431              		.cfi_offset 3, -8
 432              		.cfi_offset 14, -4
 433              		.loc 1 285 0
 434 0002 011C     		mov	r1, r0
 435              		.loc 1 289 0
 436              	@ 289 "../../os/kernel/src/chthreads.c" 1
 437 0004 72B6     		cpsid   i
 438              	@ 0 "" 2
 439              		.loc 1 290 0
 440              		.code	16
 441 0006 0620     		mov	r0, #6
 442              	.LVL27:
 443 0008 FFF7FEFF 		bl	chSchGoSleepTimeoutS
 444              	.LVL28:
 445              		.loc 1 291 0
 446              	@ 291 "../../os/kernel/src/chthreads.c" 1
 447 000c 62B6     		cpsie   i
 448              	@ 0 "" 2
 449              		.loc 1 292 0
 450              		.code	16
 451              		@ sp needed
 452 000e 08BD     		pop	{r3, pc}
ARM GAS  /var/folders/qh/xwg3v3kj02qbxczjpdb8lzfr0000gn/T//ccQ3ewSi.s 			page 9


 453              		.cfi_endproc
 454              	.LFE13:
 455              		.size	chThdSleep, .-chThdSleep
 456              		.section	.text.chThdSleepUntil,"ax",%progbits
 457              		.align	2
 458              		.p2align 4,,15
 459              		.global	chThdSleepUntil
 460              		.code	16
 461              		.thumb_func
 462              		.type	chThdSleepUntil, %function
 463              	chThdSleepUntil:
 464              	.LFB14:
 465              		.loc 1 302 0
 466              		.cfi_startproc
 467              	.LVL29:
 468 0000 08B5     		push	{r3, lr}
 469              		.cfi_def_cfa_offset 8
 470              		.cfi_offset 3, -8
 471              		.cfi_offset 14, -4
 472              		.loc 1 304 0
 473              	@ 304 "../../os/kernel/src/chthreads.c" 1
 474 0002 72B6     		cpsid   i
 475              	@ 0 "" 2
 476              		.loc 1 305 0
 477              		.code	16
 478 0004 044B     		ldr	r3, .L24
 479 0006 DB68     		ldr	r3, [r3, #12]
 480 0008 C11A     		sub	r1, r0, r3
 481              	.LVL30:
 482 000a 02D0     		beq	.L20
 483              		.loc 1 306 0
 484 000c 0620     		mov	r0, #6
 485 000e FFF7FEFF 		bl	chSchGoSleepTimeoutS
 486              	.LVL31:
 487              	.L20:
 488              		.loc 1 307 0
 489              	@ 307 "../../os/kernel/src/chthreads.c" 1
 490 0012 62B6     		cpsie   i
 491              	@ 0 "" 2
 492              		.loc 1 308 0
 493              		.code	16
 494              		@ sp needed
 495 0014 08BD     		pop	{r3, pc}
 496              	.L25:
 497 0016 C046     		.align	2
 498              	.L24:
 499 0018 00000000 		.word	vtlist
 500              		.cfi_endproc
 501              	.LFE14:
 502              		.size	chThdSleepUntil, .-chThdSleepUntil
 503 001c C046C046 		.section	.text.chThdYield,"ax",%progbits
 504              		.align	2
 505              		.p2align 4,,15
 506              		.global	chThdYield
 507              		.code	16
 508              		.thumb_func
 509              		.type	chThdYield, %function
ARM GAS  /var/folders/qh/xwg3v3kj02qbxczjpdb8lzfr0000gn/T//ccQ3ewSi.s 			page 10


 510              	chThdYield:
 511              	.LFB15:
 512              		.loc 1 317 0
 513              		.cfi_startproc
 514 0000 08B5     		push	{r3, lr}
 515              		.cfi_def_cfa_offset 8
 516              		.cfi_offset 3, -8
 517              		.cfi_offset 14, -4
 518              		.loc 1 319 0
 519              	@ 319 "../../os/kernel/src/chthreads.c" 1
 520 0002 72B6     		cpsid   i
 521              	@ 0 "" 2
 522              		.loc 1 320 0
 523              		.code	16
 524 0004 054B     		ldr	r3, .L28
 525 0006 1A68     		ldr	r2, [r3]
 526 0008 9B69     		ldr	r3, [r3, #24]
 527 000a 9268     		ldr	r2, [r2, #8]
 528 000c 9B68     		ldr	r3, [r3, #8]
 529 000e 9A42     		cmp	r2, r3
 530 0010 01D3     		bcc	.L27
 531              		.loc 1 320 0 is_stmt 0 discriminator 1
 532 0012 FFF7FEFF 		bl	chSchDoRescheduleBehind
 533              	.LVL32:
 534              	.L27:
 535              		.loc 1 321 0 is_stmt 1
 536              	@ 321 "../../os/kernel/src/chthreads.c" 1
 537 0016 62B6     		cpsie   i
 538              	@ 0 "" 2
 539              		.loc 1 322 0
 540              		.code	16
 541              		@ sp needed
 542 0018 08BD     		pop	{r3, pc}
 543              	.L29:
 544 001a C046     		.align	2
 545              	.L28:
 546 001c 00000000 		.word	rlist
 547              		.cfi_endproc
 548              	.LFE15:
 549              		.size	chThdYield, .-chThdYield
 550              		.section	.text.chThdExitS,"ax",%progbits
 551              		.align	2
 552              		.p2align 4,,15
 553              		.global	chThdExitS
 554              		.code	16
 555              		.thumb_func
 556              		.type	chThdExitS, %function
 557              	chThdExitS:
 558              	.LFB17:
 559              		.loc 1 359 0
 560              		.cfi_startproc
 561              	.LVL33:
 562 0000 38B5     		push	{r3, r4, r5, lr}
 563              		.cfi_def_cfa_offset 16
 564              		.cfi_offset 3, -16
 565              		.cfi_offset 4, -12
 566              		.cfi_offset 5, -8
ARM GAS  /var/folders/qh/xwg3v3kj02qbxczjpdb8lzfr0000gn/T//ccQ3ewSi.s 			page 11


 567              		.cfi_offset 14, -4
 568              		.loc 1 360 0
 569 0002 0D4B     		ldr	r3, .L37
 570 0004 9C69     		ldr	r4, [r3, #24]
 571              	.LVL34:
 572              		.loc 1 362 0
 573 0006 6062     		str	r0, [r4, #36]
 574              		.loc 1 367 0
 575 0008 251C     		mov	r5, r4
 576 000a A06A     		ldr	r0, [r4, #40]
 577              	.LVL35:
 578 000c 2835     		add	r5, r5, #40
 579 000e A842     		cmp	r0, r5
 580 0010 06D0     		beq	.L34
 581              	.LVL36:
 582              	.L36:
 583              	.LBB18:
 584              	.LBB19:
 585              		.file 2 "../../os/kernel/include/chinline.h"
 586              		.loc 2 82 0
 587 0012 0368     		ldr	r3, [r0]
 588 0014 A362     		str	r3, [r4, #40]
 589              	.LBE19:
 590              	.LBE18:
 591              		.loc 1 368 0
 592 0016 FFF7FEFF 		bl	chSchReadyI
 593              	.LVL37:
 594              		.loc 1 367 0
 595 001a A06A     		ldr	r0, [r4, #40]
 596 001c A842     		cmp	r0, r5
 597 001e F8D1     		bne	.L36
 598              	.LVL38:
 599              	.L34:
 600              		.loc 1 373 0
 601 0020 637F     		ldrb	r3, [r4, #29]
 602 0022 9A07     		lsl	r2, r3, #30
 603 0024 04D1     		bne	.L33
 604              		.loc 1 374 0
 605 0026 2269     		ldr	r2, [r4, #16]
 606 0028 6369     		ldr	r3, [r4, #20]
 607 002a 1A61     		str	r2, [r3, #16]
 608 002c 2269     		ldr	r2, [r4, #16]
 609 002e 5361     		str	r3, [r2, #20]
 610              	.L33:
 611              		.loc 1 376 0
 612 0030 0E20     		mov	r0, #14
 613 0032 FFF7FEFF 		bl	chSchGoSleepS
 614              	.LVL39:
 615              		.loc 1 379 0
 616              		@ sp needed
 617              	.LVL40:
 618              	.LVL41:
 619 0036 38BD     		pop	{r3, r4, r5, pc}
 620              	.L38:
 621              		.align	2
 622              	.L37:
 623 0038 00000000 		.word	rlist
ARM GAS  /var/folders/qh/xwg3v3kj02qbxczjpdb8lzfr0000gn/T//ccQ3ewSi.s 			page 12


 624              		.cfi_endproc
 625              	.LFE17:
 626              		.size	chThdExitS, .-chThdExitS
 627 003c C046C046 		.section	.text.chThdExit,"ax",%progbits
 628              		.align	2
 629              		.p2align 4,,15
 630              		.global	chThdExit
 631              		.code	16
 632              		.thumb_func
 633              		.type	chThdExit, %function
 634              	chThdExit:
 635              	.LFB16:
 636              		.loc 1 338 0
 637              		.cfi_startproc
 638              	.LVL42:
 639 0000 08B5     		push	{r3, lr}
 640              		.cfi_def_cfa_offset 8
 641              		.cfi_offset 3, -8
 642              		.cfi_offset 14, -4
 643              		.loc 1 340 0
 644              	@ 340 "../../os/kernel/src/chthreads.c" 1
 645 0002 72B6     		cpsid   i
 646              	@ 0 "" 2
 647              		.loc 1 341 0
 648              		.code	16
 649 0004 FFF7FEFF 		bl	chThdExitS
 650              	.LVL43:
 651              		.loc 1 343 0
 652              		@ sp needed
 653 0008 08BD     		pop	{r3, pc}
 654              		.cfi_endproc
 655              	.LFE16:
 656              		.size	chThdExit, .-chThdExit
 657 000a C046C046 		.section	.text.chThdWait,"ax",%progbits
 657      C046
 658              		.align	2
 659              		.p2align 4,,15
 660              		.global	chThdWait
 661              		.code	16
 662              		.thumb_func
 663              		.type	chThdWait, %function
 664              	chThdWait:
 665              	.LFB18:
 666              		.loc 1 413 0
 667              		.cfi_startproc
 668              	.LVL44:
 669 0000 38B5     		push	{r3, r4, r5, lr}
 670              		.cfi_def_cfa_offset 16
 671              		.cfi_offset 3, -16
 672              		.cfi_offset 4, -12
 673              		.cfi_offset 5, -8
 674              		.cfi_offset 14, -4
 675              		.loc 1 413 0
 676 0002 041C     		mov	r4, r0
 677              		.loc 1 418 0
 678              	@ 418 "../../os/kernel/src/chthreads.c" 1
 679 0004 72B6     		cpsid   i
ARM GAS  /var/folders/qh/xwg3v3kj02qbxczjpdb8lzfr0000gn/T//ccQ3ewSi.s 			page 13


 680              	@ 0 "" 2
 681              		.loc 1 423 0
 682              		.code	16
 683 0006 037F     		ldrb	r3, [r0, #28]
 684 0008 0E2B     		cmp	r3, #14
 685 000a 07D0     		beq	.L41
 686              		.loc 1 424 0
 687 000c 074B     		ldr	r3, .L45
 688              	.LBB20:
 689              	.LBB21:
 690              		.loc 2 75 0
 691 000e 826A     		ldr	r2, [r0, #40]
 692              	.LBE21:
 693              	.LBE20:
 694              		.loc 1 424 0
 695 0010 9B69     		ldr	r3, [r3, #24]
 696              	.LVL45:
 697              	.LBB23:
 698              	.LBB22:
 699              		.loc 2 75 0
 700 0012 1A60     		str	r2, [r3]
 701              		.loc 2 76 0
 702 0014 8362     		str	r3, [r0, #40]
 703              	.LBE22:
 704              	.LBE23:
 705              		.loc 1 425 0
 706 0016 0720     		mov	r0, #7
 707              	.LVL46:
 708 0018 FFF7FEFF 		bl	chSchGoSleepS
 709              	.LVL47:
 710              	.L41:
 711              		.loc 1 427 0
 712 001c 656A     		ldr	r5, [r4, #36]
 713              	.LVL48:
 714              		.loc 1 428 0
 715              	@ 428 "../../os/kernel/src/chthreads.c" 1
 716 001e 62B6     		cpsie   i
 717              	@ 0 "" 2
 718              		.loc 1 430 0
 719              		.code	16
 720 0020 201C     		mov	r0, r4
 721 0022 FFF7FEFF 		bl	chThdRelease
 722              	.LVL49:
 723              		.loc 1 433 0
 724              		@ sp needed
 725 0026 281C     		mov	r0, r5
 726              	.LVL50:
 727              	.LVL51:
 728 0028 38BD     		pop	{r3, r4, r5, pc}
 729              	.L46:
 730 002a C046     		.align	2
 731              	.L45:
 732 002c 00000000 		.word	rlist
 733              		.cfi_endproc
 734              	.LFE18:
 735              		.size	chThdWait, .-chThdWait
 736              		.text
ARM GAS  /var/folders/qh/xwg3v3kj02qbxczjpdb8lzfr0000gn/T//ccQ3ewSi.s 			page 14


 737              	.Letext0:
 738              		.file 3 "/usr/local/Cellar/gcc-arm-none-eabi-48/20131218/lib/gcc/arm-none-eabi/4.8.3/include/stdde
 739              		.file 4 "/usr/local/Cellar/gcc-arm-none-eabi-48/20131218/arm-none-eabi/include/stdint.h"
 740              		.file 5 "../../os/ports/GCC/ARMCMx/chtypes.h"
 741              		.file 6 "../../os/kernel/include/chlists.h"
 742              		.file 7 "../../os/kernel/include/chthreads.h"
 743              		.file 8 "../../os/ports/GCC/ARMCMx/chcore_v6m.h"
 744              		.file 9 "../../os/kernel/include/chvt.h"
 745              		.file 10 "../../os/kernel/include/chschd.h"
 746              		.file 11 "../../os/kernel/include/chmtx.h"
 747              		.file 12 "../../os/kernel/include/chdynamic.h"