ARM GAS  /var/folders/qh/xwg3v3kj02qbxczjpdb8lzfr0000gn/T//ccQ3ewSi.s 			page 1


   1              		.cpu cortex-m0
   2              		.fpu softvfp
   3              		.eabi_attribute 20, 1
   4              		.eabi_attribute 21, 1
   5              		.eabi_attribute 23, 3
   6              		.eabi_attribute 24, 1
   7              		.eabi_attribute 25, 1
   8              		.eabi_attribute 26, 1
   9              		.eabi_attribute 30, 2
  10              		.eabi_attribute 34, 0
  11              		.eabi_attribute 18, 4
  12              		.code	16
  13              		.file	"chthreads.c"
  14              		.text
  15              	.Ltext0:
  16              		.cfi_sections	.debug_frame
  17              		.section	.text._thread_init,"ax",%progbits
  18              		.align	2
  19              		.p2align 4,,15
  20              		.global	_thread_init
  21              		.code	16
  22              		.thumb_func
  23              		.type	_thread_init, %function
  24              	_thread_init:
  25              	.LFB7:
  26              		.file 1 "../../os/kernel/src/chthreads.c"
  27              		.loc 1 69 0
  28              		.cfi_startproc
  29              	.LVL0:
  30              		.loc 1 72 0
  31 0000 0223     		mov	r3, #2
  32 0002 0377     		strb	r3, [r0, #28]
  33              		.loc 1 73 0
  34 0004 0023     		mov	r3, #0
  35 0006 4377     		strb	r3, [r0, #29]
  36              		.loc 1 79 0
  37 0008 C363     		str	r3, [r0, #60]
  38              		.loc 1 82 0
  39 000a 8363     		str	r3, [r0, #56]
  40              		.loc 1 85 0
  41 000c 0362     		str	r3, [r0, #32]
  42              		.loc 1 91 0
  43 000e 8361     		str	r3, [r0, #24]
  44              		.loc 1 75 0
  45 0010 1422     		mov	r2, #20
  46              		.loc 1 92 0
  47 0012 094B     		ldr	r3, .L2
  48              		.loc 1 75 0
  49 0014 C277     		strb	r2, [r0, #31]
  50              		.loc 1 88 0
  51 0016 0122     		mov	r2, #1
  52 0018 8277     		strb	r2, [r0, #30]
  53              		.loc 1 92 0
  54 001a 5A69     		ldr	r2, [r3, #20]
  55 001c 0361     		str	r3, [r0, #16]
  56              		.loc 1 71 0
  57 001e 8160     		str	r1, [r0, #8]
ARM GAS  /var/folders/qh/xwg3v3kj02qbxczjpdb8lzfr0000gn/T//ccQ3ewSi.s 			page 2


  58              		.loc 1 92 0
  59 0020 4261     		str	r2, [r0, #20]
  60 0022 5861     		str	r0, [r3, #20]
  61              		.loc 1 95 0
  62 0024 031C     		mov	r3, r0
  63 0026 2833     		add	r3, r3, #40
  64              		.loc 1 78 0
  65 0028 0164     		str	r1, [r0, #64]
  66              		.loc 1 92 0
  67 002a 1061     		str	r0, [r2, #16]
  68              		.loc 1 95 0
  69 002c 8362     		str	r3, [r0, #40]
  70              		.loc 1 98 0
  71 002e 0433     		add	r3, r3, #4
  72 0030 0363     		str	r3, [r0, #48]
  73 0032 C362     		str	r3, [r0, #44]
  74              		.loc 1 107 0
  75              		@ sp needed
  76 0034 7047     		bx	lr
  77              	.L3:
  78 0036 C046     		.align	2
  79              	.L2:
  80 0038 00000000 		.word	rlist
  81              		.cfi_endproc
  82              	.LFE7:
  83              		.size	_thread_init, .-_thread_init
  84 003c C046C046 		.section	.text.chThdCreateI,"ax",%progbits
  85              		.align	2
  86              		.p2align 4,,15
  87              		.global	chThdCreateI
  88              		.code	16
  89              		.thumb_func
  90              		.type	chThdCreateI, %function
  91              	chThdCreateI:
  92              	.LFB8:
  93              		.loc 1 151 0
  94              		.cfi_startproc
  95              	.LVL1:
  96              		.loc 1 160 0
  97 0000 2439     		sub	r1, r1, #36
  98              	.LVL2:
  99 0002 4118     		add	r1, r0, r1
 100              	.LVL3:
 101 0004 C160     		str	r1, [r0, #12]
 102 0006 0B61     		str	r3, [r1, #16]
 103 0008 009B     		ldr	r3, [sp]
 104              	.LVL4:
 105              		.loc 1 162 0
 106              		@ sp needed
 107              		.loc 1 160 0
 108 000a 4B61     		str	r3, [r1, #20]
 109 000c 0E4B     		ldr	r3, .L5
 110 000e 0B62     		str	r3, [r1, #32]
 111              	.LVL5:
 112              	.LBB12:
 113              	.LBB13:
 114              		.loc 1 72 0
ARM GAS  /var/folders/qh/xwg3v3kj02qbxczjpdb8lzfr0000gn/T//ccQ3ewSi.s 			page 3


 115 0010 0223     		mov	r3, #2
 116 0012 0377     		strb	r3, [r0, #28]
 117              	.LVL6:
 118              		.loc 1 73 0
 119 0014 0023     		mov	r3, #0
 120 0016 4377     		strb	r3, [r0, #29]
 121              		.loc 1 79 0
 122 0018 C363     		str	r3, [r0, #60]
 123              		.loc 1 82 0
 124 001a 8363     		str	r3, [r0, #56]
 125              		.loc 1 85 0
 126 001c 0362     		str	r3, [r0, #32]
 127              		.loc 1 91 0
 128 001e 8361     		str	r3, [r0, #24]
 129              		.loc 1 92 0
 130 0020 0A4B     		ldr	r3, .L5+4
 131              		.loc 1 71 0
 132 0022 8260     		str	r2, [r0, #8]
 133              		.loc 1 78 0
 134 0024 0264     		str	r2, [r0, #64]
 135              		.loc 1 88 0
 136 0026 0122     		mov	r2, #1
 137              	.LVL7:
 138 0028 8277     		strb	r2, [r0, #30]
 139              		.loc 1 92 0
 140 002a 5A69     		ldr	r2, [r3, #20]
 141 002c 0361     		str	r3, [r0, #16]
 142 002e 4261     		str	r2, [r0, #20]
 143 0030 5861     		str	r0, [r3, #20]
 144              		.loc 1 95 0
 145 0032 031C     		mov	r3, r0
 146              		.loc 1 75 0
 147 0034 1421     		mov	r1, #20
 148              		.loc 1 95 0
 149 0036 2833     		add	r3, r3, #40
 150              		.loc 1 75 0
 151 0038 C177     		strb	r1, [r0, #31]
 152              		.loc 1 92 0
 153 003a 1061     		str	r0, [r2, #16]
 154              		.loc 1 95 0
 155 003c 8362     		str	r3, [r0, #40]
 156              		.loc 1 98 0
 157 003e 0433     		add	r3, r3, #4
 158 0040 0363     		str	r3, [r0, #48]
 159 0042 C362     		str	r3, [r0, #44]
 160              	.LBE13:
 161              	.LBE12:
 162              		.loc 1 162 0
 163 0044 7047     		bx	lr
 164              	.L6:
 165 0046 C046     		.align	2
 166              	.L5:
 167 0048 00000000 		.word	_port_thread_start
 168 004c 00000000 		.word	rlist
 169              		.cfi_endproc
 170              	.LFE8:
 171              		.size	chThdCreateI, .-chThdCreateI
ARM GAS  /var/folders/qh/xwg3v3kj02qbxczjpdb8lzfr0000gn/T//ccQ3ewSi.s 			page 4


 172              		.section	.text.chThdCreateStatic,"ax",%progbits
 173              		.align	2
 174              		.p2align 4,,15
 175              		.global	chThdCreateStatic
 176              		.code	16
 177              		.thumb_func
 178              		.type	chThdCreateStatic, %function
 179              	chThdCreateStatic:
 180              	.LFB9:
 181              		.loc 1 181 0
 182              		.cfi_startproc
 183              	.LVL8:
 184 0000 10B5     		push	{r4, lr}
 185              		.cfi_def_cfa_offset 8
 186              		.cfi_offset 4, -8
 187              		.cfi_offset 14, -4
 188              		.loc 1 181 0
 189 0002 041C     		mov	r4, r0
 190              		.loc 1 192 0
 191              	@ 192 "../../os/kernel/src/chthreads.c" 1
 192 0004 72B6     		cpsid   i
 193              	@ 0 "" 2
 194              	.LVL9:
 195              		.code	16
 196              	.LBB14:
 197              	.LBB15:
 198              		.loc 1 160 0
 199 0006 2439     		sub	r1, r1, #36
 200              	.LVL10:
 201 0008 4118     		add	r1, r0, r1
 202              	.LVL11:
 203 000a C160     		str	r1, [r0, #12]
 204 000c 0B61     		str	r3, [r1, #16]
 205 000e 029B     		ldr	r3, [sp, #8]
 206              	.LVL12:
 207 0010 4B61     		str	r3, [r1, #20]
 208 0012 114B     		ldr	r3, .L8
 209 0014 0B62     		str	r3, [r1, #32]
 210              	.LVL13:
 211              	.LBB16:
 212              	.LBB17:
 213              		.loc 1 72 0
 214 0016 0223     		mov	r3, #2
 215 0018 0377     		strb	r3, [r0, #28]
 216              	.LVL14:
 217              		.loc 1 73 0
 218 001a 0023     		mov	r3, #0
 219 001c 4377     		strb	r3, [r0, #29]
 220              		.loc 1 79 0
 221 001e C363     		str	r3, [r0, #60]
 222              		.loc 1 82 0
 223 0020 8363     		str	r3, [r0, #56]
 224              		.loc 1 85 0
 225 0022 0362     		str	r3, [r0, #32]
 226              		.loc 1 91 0
 227 0024 8361     		str	r3, [r0, #24]
 228              		.loc 1 92 0
ARM GAS  /var/folders/qh/xwg3v3kj02qbxczjpdb8lzfr0000gn/T//ccQ3ewSi.s 			page 5


 229 0026 0D4B     		ldr	r3, .L8+4
 230              		.loc 1 71 0
 231 0028 8260     		str	r2, [r0, #8]
 232              		.loc 1 78 0
 233 002a 0264     		str	r2, [r0, #64]
 234              		.loc 1 88 0
 235 002c 0122     		mov	r2, #1
 236              	.LVL15:
 237 002e 8277     		strb	r2, [r0, #30]
 238              		.loc 1 92 0
 239 0030 5A69     		ldr	r2, [r3, #20]
 240 0032 0361     		str	r3, [r0, #16]
 241 0034 4261     		str	r2, [r0, #20]
 242 0036 5861     		str	r0, [r3, #20]
 243              		.loc 1 95 0
 244 0038 031C     		mov	r3, r0
 245              		.loc 1 75 0
 246 003a 1421     		mov	r1, #20
 247              		.loc 1 95 0
 248 003c 2833     		add	r3, r3, #40
 249              		.loc 1 75 0
 250 003e C177     		strb	r1, [r0, #31]
 251              		.loc 1 92 0
 252 0040 1061     		str	r0, [r2, #16]
 253              		.loc 1 95 0
 254 0042 8362     		str	r3, [r0, #40]
 255              		.loc 1 98 0
 256 0044 0433     		add	r3, r3, #4
 257 0046 0363     		str	r3, [r0, #48]
 258 0048 C362     		str	r3, [r0, #44]
 259              	.LBE17:
 260              	.LBE16:
 261              	.LBE15:
 262              	.LBE14:
 263              		.loc 1 193 0
 264 004a 0021     		mov	r1, #0
 265 004c FFF7FEFF 		bl	chSchWakeupS
 266              	.LVL16:
 267              		.loc 1 194 0
 268              	@ 194 "../../os/kernel/src/chthreads.c" 1
 269 0050 62B6     		cpsie   i
 270              	@ 0 "" 2
 271              		.loc 1 196 0
 272              		.code	16
 273 0052 201C     		mov	r0, r4
 274              		@ sp needed
 275              	.LVL17:
 276 0054 10BD     		pop	{r4, pc}
 277              	.L9:
 278 0056 C046     		.align	2
 279              	.L8:
 280 0058 00000000 		.word	_port_thread_start
 281 005c 00000000 		.word	rlist
 282              		.cfi_endproc
 283              	.LFE9:
 284              		.size	chThdCreateStatic, .-chThdCreateStatic
 285              		.section	.text.chThdSetPriority,"ax",%progbits
ARM GAS  /var/folders/qh/xwg3v3kj02qbxczjpdb8lzfr0000gn/T//ccQ3ewSi.s 			page 6


 286              		.align	2
 287              		.p2align 4,,15
 288              		.global	chThdSetPriority
 289              		.code	16
 290              		.thumb_func
 291              		.type	chThdSetPriority, %function
 292              	chThdSetPriority:
 293              	.LFB10:
 294              		.loc 1 210 0
 295              		.cfi_startproc
 296              	.LVL18:
 297 0000 10B5     		push	{r4, lr}
 298              		.cfi_def_cfa_offset 8
 299              		.cfi_offset 4, -8
 300              		.cfi_offset 14, -4
 301              		.loc 1 215 0
 302              	@ 215 "../../os/kernel/src/chthreads.c" 1
 303 0002 72B6     		cpsid   i
 304              	@ 0 "" 2
 305              		.loc 1 217 0
 306              		.code	16
 307 0004 074B     		ldr	r3, .L14
 308 0006 9B69     		ldr	r3, [r3, #24]
 309 0008 1C6C     		ldr	r4, [r3, #64]
 310              	.LVL19:
 311              		.loc 1 218 0
 312 000a 9968     		ldr	r1, [r3, #8]
 313 000c 8C42     		cmp	r4, r1
 314 000e 01D0     		beq	.L11
 315              		.loc 1 218 0 is_stmt 0 discriminator 1
 316 0010 8142     		cmp	r1, r0
 317 0012 00D2     		bcs	.L12
 318              	.L11:
 319              		.loc 1 219 0 is_stmt 1
 320 0014 9860     		str	r0, [r3, #8]
 321              	.L12:
 322              		.loc 1 220 0
 323 0016 1864     		str	r0, [r3, #64]
 324              		.loc 1 225 0
 325 0018 FFF7FEFF 		bl	chSchRescheduleS
 326              	.LVL20:
 327              		.loc 1 226 0
 328              	@ 226 "../../os/kernel/src/chthreads.c" 1
 329 001c 62B6     		cpsie   i
 330              	@ 0 "" 2
 331              		.loc 1 228 0
 332              		.code	16
 333 001e 201C     		mov	r0, r4
 334              		@ sp needed
 335              	.LVL21:
 336 0020 10BD     		pop	{r4, pc}
 337              	.L15:
 338 0022 C046     		.align	2
 339              	.L14:
 340 0024 00000000 		.word	rlist
 341              		.cfi_endproc
 342              	.LFE10:
ARM GAS  /var/folders/qh/xwg3v3kj02qbxczjpdb8lzfr0000gn/T//ccQ3ewSi.s 			page 7


 343              		.size	chThdSetPriority, .-chThdSetPriority
 344 0028 C046C046 		.section	.text.chThdResume,"ax",%progbits
 344      C046C046 
 345              		.align	2
 346              		.p2align 4,,15
 347              		.global	chThdResume
 348              		.code	16
 349              		.thumb_func
 350              		.type	chThdResume, %function
 351              	chThdResume:
 352              	.LFB11:
 353              		.loc 1 243 0
 354              		.cfi_startproc
 355              	.LVL22:
 356 0000 10B5     		push	{r4, lr}
 357              		.cfi_def_cfa_offset 8
 358              		.cfi_offset 4, -8
 359              		.cfi_offset 14, -4
 360              		.loc 1 243 0
 361 0002 041C     		mov	r4, r0
 362              		.loc 1 245 0
 363              	@ 245 "../../os/kernel/src/chthreads.c" 1
 364 0004 72B6     		cpsid   i
 365              	@ 0 "" 2
 366              		.loc 1 249 0
 367              		.code	16
 368 0006 0021     		mov	r1, #0
 369 0008 FFF7FEFF 		bl	chSchWakeupS
 370              	.LVL23:
 371              		.loc 1 250 0
 372              	@ 250 "../../os/kernel/src/chthreads.c" 1
 373 000c 62B6     		cpsie   i
 374              	@ 0 "" 2
 375              		.loc 1 252 0
 376              		.code	16
 377 000e 201C     		mov	r0, r4
 378              		@ sp needed
 379              	.LVL24:
 380 0010 10BD     		pop	{r4, pc}
 381              		.cfi_endproc
 382              	.LFE11:
 383              		.size	chThdResume, .-chThdResume
 384 0012 C046C046 		.section	.text.chThdTerminate,"ax",%progbits
 384      C046C046 
 384      C046C046 
 384      C046
 385              		.align	2
 386              		.p2align 4,,15
 387              		.global	chThdTerminate
 388              		.code	16
 389              		.thumb_func
 390              		.type	chThdTerminate, %function
 391              	chThdTerminate:
 392              	.LFB12:
 393              		.loc 1 266 0
 394              		.cfi_startproc
 395              	.LVL25:
ARM GAS  /var/folders/qh/xwg3v3kj02qbxczjpdb8lzfr0000gn/T//ccQ3ewSi.s 			page 8


 396              		.loc 1 268 0
 397              	@ 268 "../../os/kernel/src/chthreads.c" 1
 398 0000 72B6     		cpsid   i
 399              	@ 0 "" 2
 400              		.loc 1 269 0
 401              		.code	16
 402 0002 427F     		ldrb	r2, [r0, #29]
 403 0004 0423     		mov	r3, #4
 404 0006 1343     		orr	r3, r2
 405 0008 4377     		strb	r3, [r0, #29]
 406              		.loc 1 270 0
 407              	@ 270 "../../os/kernel/src/chthreads.c" 1
 408 000a 62B6     		cpsie   i
 409              	@ 0 "" 2
 410              		.loc 1 271 0
 411              		.code	16
 412              		@ sp needed
 413 000c 7047     		bx	lr
 414              		.cfi_endproc
 415              	.LFE12:
 416              		.size	chThdTerminate, .-chThdTerminate
 417 000e C046     		.section	.text.chThdSleep,"ax",%progbits
 418              		.align	2
 419              		.p2align 4,,15
 420              		.global	chThdSleep
 421              		.code	16
 422              		.thumb_func
 423              		.type	chThdSleep, %function
 424              	chThdSleep:
 425              	.LFB13:
 426              		.loc 1 285 0
 427              		.cfi_startproc
 428              	.LVL26:
 429 0000 08B5     		push	{r3, lr}
 430              		.cfi_def_cfa_offset 8
 431              		.cfi_offset 3, -8
 432              		.cfi_offset 14, -4
 433              		.loc 1 285 0
 434 0002 011C     		mov	r1, r0
 435              		.loc 1 289 0
 436              	@ 289 "../../os/kernel/src/chthreads.c" 1
 437 0004 72B6     		cpsid   i
 438              	@ 0 "" 2
 439              		.loc 1 290 0
 440              		.code	16
 441 0006 0620     		mov	r0, #6
 442              	.LVL27:
 443 0008 FFF7FEFF 		bl	chSchGoSleepTimeoutS
 444              	.LVL28:
 445              		.loc 1 291 0
 446              	@ 291 "../../os/kernel/src/chthreads.c" 1
 447 000c 62B6     		cpsie   i
 448              	@ 0 "" 2
 449              		.loc 1 292 0
 450              		.code	16
 451              		@ sp needed
 452 000e 08BD     		pop	{r3, pc}
ARM GAS  /var/folders/qh/xwg3v3kj02qbxczjpdb8lzfr0000gn/T//ccQ3ewSi.s 			page 9


 453              		.cfi_endproc
 454              	.LFE13:
 455              		.size	chThdSleep, .-chThdSleep
 456              		.section	.text.chThdSleepUntil,"ax",%progbits
 457              		.align	2
 458              		.p2align 4,,15
 459              		.global	chThdSleepUntil
 460              		.code	16
 461              		.thumb_func
 462              		.type	chThdSleepUntil, %function
 463              	chThdSleepUntil:
 464              	.LFB14:
 465              		.loc 1 302 0
 466              		.cfi_startproc
 467              	.LVL29:
 468 0000 08B5     		push	{r3, lr}
 469              		.cfi_def_cfa_offset 8
 470              		.cfi_offset 3, -8
 471              		.cfi_offset 14, -4
 472              		.loc 1 304 0
 473              	@ 304 "../../os/kernel/src/chthreads.c" 1
 474 0002 72B6     		cpsid   i
 475              	@ 0 "" 2
 476              		.loc 1 305 0
 477              		.code	16
 478 0004 044B     		ldr	r3, .L24
 479 0006 DB68     		ldr	r3, [r3, #12]
 480 0008 C11A     		sub	r1, r0, r3
 481              	.LVL30:
 482 000a 02D0     		beq	.L20
 483              		.loc 1 306 0
 484 000c 0620     		mov	r0, #6
 485 000e FFF7FEFF 		bl	chSchGoSleepTimeoutS
 486              	.LVL31:
 487              	.L20:
 488              		.loc 1 307 0
 489              	@ 307 "../../os/kernel/src/chthreads.c" 1
 490 0012 62B6     		cpsie   i
 491              	@ 0 "" 2
 492              		.loc 1 308 0
 493              		.code	16
 494              		@ sp needed
 495 0014 08BD     		pop	{r3, pc}
 496              	.L25:
 497 0016 C046     		.align	2
 498              	.L24:
 499 0018 00000000 		.word	vtlist
 500              		.cfi_endproc
 501              	.LFE14:
 502              		.size	chThdSleepUntil, .-chThdSleepUntil
 503 001c C046C046 		.section	.text.chThdYield,"ax",%progbits
 504              		.align	2
 505              		.p2align 4,,15
 506              		.global	chThdYield
 507              		.code	16
 508              		.thumb_func
 509              		.type	chThdYield, %function
ARM GAS  /var/folders/qh/xwg3v3kj02qbxczjpdb8lzfr0000gn/T//ccQ3ewSi.s 			page 10


 510              	chThdYield:
 511              	.LFB15:
 512              		.loc 1 317 0
 513              		.cfi_startproc
 514 0000 08B5     		push	{r3, lr}
 515              		.cfi_def_cfa_offset 8
 516              		.cfi_offset 3, -8
 517              		.cfi_offset 14, -4
 518              		.loc 1 319 0
 519              	@ 319 "../../os/kernel/src/chthreads.c" 1
 520 0002 72B6     		cpsid   i
 521              	@ 0 "" 2
 522              		.loc 1 320 0
 523              		.code	16
 524 0004 054B     		ldr	r3, .L28
 525 0006 1A68     		ldr	r2, [r3]
 526 0008 9B69     		ldr	r3, [r3, #24]
 527 000a 9268     		ldr	r2, [r2, #8]
 528 000c 9B68     		ldr	r3, [r3, #8]
 529 000e 9A42     		cmp	r2, r3
 530 0010 01D3     		bcc	.L27
 531              		.loc 1 320 0 is_stmt 0 discriminator 1
 532 0012 FFF7FEFF 		bl	chSchDoRescheduleBehind
 533              	.LVL32:
 534              	.L27:
 535              		.loc 1 321 0 is_stmt 1
 536              	@ 321 "../../os/kernel/src/chthreads.c" 1
 537 0016 62B6     		cpsie   i
 538              	@ 0 "" 2
 539              		.loc 1 322 0
 540              		.code	16
 541              		@ sp needed
 542 0018 08BD     		pop	{r3, pc}
 543              	.L29:
 544 001a C046     		.align	2
 545              	.L28:
 546 001c 00000000 		.word	rlist
 547              		.cfi_endproc
 548              	.LFE15:
 549              		.size	chThdYield, .-chThdYield
 550              		.section	.text.chThdExitS,"ax",%progbits
 551              		.align	2
 552              		.p2align 4,,15
 553              		.global	chThdExitS
 554              		.code	16
 555              		.thumb_func
 556              		.type	chThdExitS, %function
 557              	chThdExitS:
 558              	.LFB17:
 559              		.loc 1 359 0
 560              		.cfi_startproc
 561              	.LVL33:
 562 0000 38B5     		push	{r3, r4, r5, lr}
 563              		.cfi_def_cfa_offset 16
 564              		.cfi_offset 3, -16
 565              		.cfi_offset 4, -12
 566              		.cfi_offset 5, -8
ARM GAS  /var/folders/qh/xwg3v3kj02qbxczjpdb8lzfr0000gn/T//ccQ3ewSi.s 			page 11


 567              		.cfi_offset 14, -4
 568              		.loc 1 360 0
 569 0002 0D4B     		ldr	r3, .L37
 570 0004 9C69     		ldr	r4, [r3, #24]
 571              	.LVL34:
 572              		.loc 1 362 0
 573 0006 6062     		str	r0, [r4, #36]
 574              		.loc 1 367 0
 575 0008 251C     		mov	r5, r4
 576 000a A06A     		ldr	r0, [r4, #40]
 577              	.LVL35:
 578 000c 2835     		add	r5, r5, #40
 579 000e A842     		cmp	r0, r5
 580 0010 06D0     		beq	.L34
 581              	.LVL36:
 582              	.L36:
 583              	.LBB18:
 584              	.LBB19:
 585              		.file 2 "../../os/kernel/include/chinline.h"
 586              		.loc 2 82 0
 587 0012 0368     		ldr	r3, [r0]
 588 0014 A362     		str	r3, [r4, #40]
 589              	.LBE19:
 590              	.LBE18:
 591              		.loc 1 368 0
 592 0016 FFF7FEFF 		bl	chSchReadyI
 593              	.LVL37:
 594              		.loc 1 367 0
 595 001a A06A     		ldr	r0, [r4, #40]
 596 001c A842     		cmp	r0, r5
 597 001e F8D1     		bne	.L36
 598              	.LVL38:
 599              	.L34:
 600              		.loc 1 373 0
 601 0020 637F     		ldrb	r3, [r4, #29]
 602 0022 9A07     		lsl	r2, r3, #30
 603 0024 04D1     		bne	.L33
 604              		.loc 1 374 0
 605 0026 2269     		ldr	r2, [r4, #16]
 606 0028 6369     		ldr	r3, [r4, #20]
 607 002a 1A61     		str	r2, [r3, #16]
 608 002c 2269     		ldr	r2, [r4, #16]
 609 002e 5361     		str	r3, [r2, #20]
 610              	.L33:
 611              		.loc 1 376 0
 612 0030 0E20     		mov	r0, #14
 613 0032 FFF7FEFF 		bl	chSchGoSleepS
 614              	.LVL39:
 615              		.loc 1 379 0
 616              		@ sp needed
 617              	.LVL40:
 618              	.LVL41:
 619 0036 38BD     		pop	{r3, r4, r5, pc}
 620              	.L38:
 621              		.align	2
 622              	.L37:
 623 0038 00000000 		.word	rlist
ARM GAS  /var/folders/qh/xwg3v3kj02qbxczjpdb8lzfr0000gn/T//ccQ3ewSi.s 			page 12


 624              		.cfi_endproc
 625              	.LFE17:
 626              		.size	chThdExitS, .-chThdExitS
 627 003c C046C046 		.section	.text.chThdExit,"ax",%progbits
 628              		.align	2
 629              		.p2align 4,,15
 630              		.global	chThdExit
 631              		.code	16
 632              		.thumb_func
 633              		.type	chThdExit, %function
 634              	chThdExit:
 635              	.LFB16:
 636              		.loc 1 338 0
 637              		.cfi_startproc
 638              	.LVL42:
 639 0000 08B5     		push	{r3, lr}
 640              		.cfi_def_cfa_offset 8
 641              		.cfi_offset 3, -8
 642              		.cfi_offset 14, -4
 643              		.loc 1 340 0
 644              	@ 340 "../../os/kernel/src/chthreads.c" 1
 645 0002 72B6     		cpsid   i
 646              	@ 0 "" 2
 647              		.loc 1 341 0
 648              		.code	16
 649 0004 FFF7FEFF 		bl	chThdExitS
 650              	.LVL43:
 651              		.loc 1 343 0
 652              		@ sp needed
 653 0008 08BD     		pop	{r3, pc}
 654              		.cfi_endproc
 655              	.LFE16:
 656              		.size	chThdExit, .-chThdExit
 657 000a C046C046 		.section	.text.chThdWait,"ax",%progbits
 657      C046
 658              		.align	2
 659              		.p2align 4,,15
 660              		.global	chThdWait
 661              		.code	16
 662              		.thumb_func
 663              		.type	chThdWait, %function
 664              	chThdWait:
 665              	.LFB18:
 666              		.loc 1 413 0
 667              		.cfi_startproc
 668              	.LVL44:
 669 0000 38B5     		push	{r3, r4, r5, lr}
 670              		.cfi_def_cfa_offset 16
 671              		.cfi_offset 3, -16
 672              		.cfi_offset 4, -12
 673              		.cfi_offset 5, -8
 674              		.cfi_offset 14, -4
 675              		.loc 1 413 0
 676 0002 041C     		mov	r4, r0
 677              		.loc 1 418 0
 678              	@ 418 "../../os/kernel/src/chthreads.c" 1
 679 0004 72B6     		cpsid   i
ARM GAS  /var/folders/qh/xwg3v3kj02qbxczjpdb8lzfr0000gn/T//ccQ3ewSi.s 			page 13


 680              	@ 0 "" 2
 681              		.loc 1 423 0
 682              		.code	16
 683 0006 037F     		ldrb	r3, [r0, #28]
 684 0008 0E2B     		cmp	r3, #14
 685 000a 07D0     		beq	.L41
 686              		.loc 1 424 0
 687 000c 074B     		ldr	r3, .L45
 688              	.LBB20:
 689              	.LBB21:
 690              		.loc 2 75 0
 691 000e 826A     		ldr	r2, [r0, #40]
 692              	.LBE21:
 693              	.LBE20:
 694              		.loc 1 424 0
 695 0010 9B69     		ldr	r3, [r3, #24]
 696              	.LVL45:
 697              	.LBB23:
 698              	.LBB22:
 699              		.loc 2 75 0
 700 0012 1A60     		str	r2, [r3]
 701              		.loc 2 76 0
 702 0014 8362     		str	r3, [r0, #40]
 703              	.LBE22:
 704              	.LBE23:
 705              		.loc 1 425 0
 706 0016 0720     		mov	r0, #7
 707              	.LVL46:
 708 0018 FFF7FEFF 		bl	chSchGoSleepS
 709              	.LVL47:
 710              	.L41:
 711              		.loc 1 427 0
 712 001c 656A     		ldr	r5, [r4, #36]
 713              	.LVL48:
 714              		.loc 1 428 0
 715              	@ 428 "../../os/kernel/src/chthreads.c" 1
 716 001e 62B6     		cpsie   i
 717              	@ 0 "" 2
 718              		.loc 1 430 0
 719              		.code	16
 720 0020 201C     		mov	r0, r4
 721 0022 FFF7FEFF 		bl	chThdRelease
 722              	.LVL49:
 723              		.loc 1 433 0
 724              		@ sp needed
 725 0026 281C     		mov	r0, r5
 726              	.LVL50:
 727              	.LVL51:
 728 0028 38BD     		pop	{r3, r4, r5, pc}
 729              	.L46:
 730 002a C046     		.align	2
 731              	.L45:
 732 002c 00000000 		.word	rlist
 733              		.cfi_endproc
 734              	.LFE18:
 735              		.size	chThdWait, .-chThdWait
 736              		.text
ARM GAS  /var/folders/qh/xwg3v3kj02qbxczjpdb8lzfr0000gn/T//ccQ3ewSi.s 			page 14


 737              	.Letext0:
 738              		.file 3 "/usr/local/Cellar/gcc-arm-none-eabi-48/20131218/lib/gcc/arm-none-eabi/4.8.3/include/stdde
 739              		.file 4 "/usr/local/Cellar/gcc-arm-none-eabi-48/20131218/arm-none-eabi/include/stdint.h"
 740              		.file 5 "../../os/ports/GCC/ARMCMx/chtypes.h"
 741              		.file 6 "../../os/kernel/include/chlists.h"
 742              		.file 7 "../../os/kernel/include/chthreads.h"
 743              		.file 8 "../../os/ports/GCC/ARMCMx/chcore_v6m.h"
 744              		.file 9 "../../os/kernel/include/chvt.h"
 745              		.file 10 "../../os/kernel/include/chschd.h"
 746              		.file 11 "../../os/kernel/include/chmtx.h"
 747              		.file 12 "../../os/kernel/include/chdynamic.h"
 748              		.section	.debug_info,"",%progbits
 749              	.Ldebug_info0:
 750 0000 F6090000 		.4byte	0x9f6
 751 0004 0400     		.2byte	0x4
 752 0006 00000000 		.4byte	.Ldebug_abbrev0
 753 000a 04       		.byte	0x4
 754 000b 01       		.uleb128 0x1
 755 000c 0B020000 		.4byte	.LASF99
 756 0010 01       		.byte	0x1
 757 0011 BA040000 		.4byte	.LASF100
 758 0015 2D010000 		.4byte	.LASF101
 759 0019 18000000 		.4byte	.Ldebug_ranges0+0x18
 760 001d 00000000 		.4byte	0
 761 0021 00000000 		.4byte	.Ldebug_line0
 762 0025 02       		.uleb128 0x2
 763 0026 04       		.byte	0x4
 764 0027 05       		.byte	0x5
 765 0028 696E7400 		.ascii	"int\000"
 766 002c 03       		.uleb128 0x3
 767 002d 0E000000 		.4byte	.LASF2
 768 0031 03       		.byte	0x3
 769 0032 D4       		.byte	0xd4
 770 0033 37000000 		.4byte	0x37
 771 0037 04       		.uleb128 0x4
 772 0038 04       		.byte	0x4
 773 0039 07       		.byte	0x7
 774 003a 06010000 		.4byte	.LASF0
 775 003e 04       		.uleb128 0x4
 776 003f 01       		.byte	0x1
 777 0040 06       		.byte	0x6
 778 0041 68000000 		.4byte	.LASF1
 779 0045 03       		.uleb128 0x3
 780 0046 B2040000 		.4byte	.LASF3
 781 004a 04       		.byte	0x4
 782 004b 2A       		.byte	0x2a
 783 004c 50000000 		.4byte	0x50
 784 0050 04       		.uleb128 0x4
 785 0051 01       		.byte	0x1
 786 0052 08       		.byte	0x8
 787 0053 7C030000 		.4byte	.LASF4
 788 0057 04       		.uleb128 0x4
 789 0058 02       		.byte	0x2
 790 0059 05       		.byte	0x5
 791 005a 94030000 		.4byte	.LASF5
 792 005e 04       		.uleb128 0x4
 793 005f 02       		.byte	0x2
ARM GAS  /var/folders/qh/xwg3v3kj02qbxczjpdb8lzfr0000gn/T//ccQ3ewSi.s 			page 15


 794 0060 07       		.byte	0x7
 795 0061 75010000 		.4byte	.LASF6
 796 0065 03       		.uleb128 0x3
 797 0066 74030000 		.4byte	.LASF7
 798 006a 04       		.byte	0x4
 799 006b 4F       		.byte	0x4f
 800 006c 70000000 		.4byte	0x70
 801 0070 04       		.uleb128 0x4
 802 0071 04       		.byte	0x4
 803 0072 05       		.byte	0x5
 804 0073 A5000000 		.4byte	.LASF8
 805 0077 03       		.uleb128 0x3
 806 0078 FA030000 		.4byte	.LASF9
 807 007c 04       		.byte	0x4
 808 007d 50       		.byte	0x50
 809 007e 82000000 		.4byte	0x82
 810 0082 04       		.uleb128 0x4
 811 0083 04       		.byte	0x4
 812 0084 07       		.byte	0x7
 813 0085 1B010000 		.4byte	.LASF10
 814 0089 04       		.uleb128 0x4
 815 008a 08       		.byte	0x8
 816 008b 05       		.byte	0x5
 817 008c 5A000000 		.4byte	.LASF11
 818 0090 04       		.uleb128 0x4
 819 0091 08       		.byte	0x8
 820 0092 07       		.byte	0x7
 821 0093 33000000 		.4byte	.LASF12
 822 0097 04       		.uleb128 0x4
 823 0098 01       		.byte	0x1
 824 0099 02       		.byte	0x2
 825 009a 6E030000 		.4byte	.LASF13
 826 009e 03       		.uleb128 0x3
 827 009f A3010000 		.4byte	.LASF14
 828 00a3 05       		.byte	0x5
 829 00a4 25       		.byte	0x25
 830 00a5 45000000 		.4byte	0x45
 831 00a9 03       		.uleb128 0x3
 832 00aa AE000000 		.4byte	.LASF15
 833 00ae 05       		.byte	0x5
 834 00af 26       		.byte	0x26
 835 00b0 45000000 		.4byte	0x45
 836 00b4 03       		.uleb128 0x3
 837 00b5 57030000 		.4byte	.LASF16
 838 00b9 05       		.byte	0x5
 839 00ba 27       		.byte	0x27
 840 00bb 45000000 		.4byte	0x45
 841 00bf 03       		.uleb128 0x3
 842 00c0 8E000000 		.4byte	.LASF17
 843 00c4 05       		.byte	0x5
 844 00c5 28       		.byte	0x28
 845 00c6 45000000 		.4byte	0x45
 846 00ca 03       		.uleb128 0x3
 847 00cb 66030000 		.4byte	.LASF18
 848 00cf 05       		.byte	0x5
 849 00d0 29       		.byte	0x29
 850 00d1 77000000 		.4byte	0x77
ARM GAS  /var/folders/qh/xwg3v3kj02qbxczjpdb8lzfr0000gn/T//ccQ3ewSi.s 			page 16


 851 00d5 03       		.uleb128 0x3
 852 00d6 95010000 		.4byte	.LASF19
 853 00da 05       		.byte	0x5
 854 00db 2A       		.byte	0x2a
 855 00dc 65000000 		.4byte	0x65
 856 00e0 03       		.uleb128 0x3
 857 00e1 C6010000 		.4byte	.LASF20
 858 00e5 05       		.byte	0x5
 859 00e6 2C       		.byte	0x2c
 860 00e7 77000000 		.4byte	0x77
 861 00eb 03       		.uleb128 0x3
 862 00ec 3D040000 		.4byte	.LASF21
 863 00f0 05       		.byte	0x5
 864 00f1 2E       		.byte	0x2e
 865 00f2 77000000 		.4byte	0x77
 866 00f6 03       		.uleb128 0x3
 867 00f7 DA030000 		.4byte	.LASF22
 868 00fb 06       		.byte	0x6
 869 00fc 23       		.byte	0x23
 870 00fd 01010000 		.4byte	0x101
 871 0101 05       		.uleb128 0x5
 872 0102 DA030000 		.4byte	.LASF22
 873 0106 48       		.byte	0x48
 874 0107 07       		.byte	0x7
 875 0108 57       		.byte	0x57
 876 0109 FE010000 		.4byte	0x1fe
 877 010d 06       		.uleb128 0x6
 878 010e BE030000 		.4byte	.LASF23
 879 0112 07       		.byte	0x7
 880 0113 58       		.byte	0x58
 881 0114 1F020000 		.4byte	0x21f
 882 0118 00       		.byte	0
 883 0119 06       		.uleb128 0x6
 884 011a 5F030000 		.4byte	.LASF24
 885 011e 07       		.byte	0x7
 886 011f 5A       		.byte	0x5a
 887 0120 1F020000 		.4byte	0x21f
 888 0124 04       		.byte	0x4
 889 0125 06       		.uleb128 0x6
 890 0126 53000000 		.4byte	.LASF25
 891 012a 07       		.byte	0x7
 892 012b 5C       		.byte	0x5c
 893 012c CA000000 		.4byte	0xca
 894 0130 08       		.byte	0x8
 895 0131 06       		.uleb128 0x6
 896 0132 17050000 		.4byte	.LASF26
 897 0136 07       		.byte	0x7
 898 0137 5D       		.byte	0x5d
 899 0138 CF020000 		.4byte	0x2cf
 900 013c 0C       		.byte	0xc
 901 013d 06       		.uleb128 0x6
 902 013e B7000000 		.4byte	.LASF27
 903 0142 07       		.byte	0x7
 904 0143 5F       		.byte	0x5f
 905 0144 1F020000 		.4byte	0x21f
 906 0148 10       		.byte	0x10
 907 0149 06       		.uleb128 0x6
ARM GAS  /var/folders/qh/xwg3v3kj02qbxczjpdb8lzfr0000gn/T//ccQ3ewSi.s 			page 17


 908 014a 09030000 		.4byte	.LASF28
 909 014e 07       		.byte	0x7
 910 014f 60       		.byte	0x60
 911 0150 1F020000 		.4byte	0x21f
 912 0154 14       		.byte	0x14
 913 0155 06       		.uleb128 0x6
 914 0156 E1040000 		.4byte	.LASF29
 915 015a 07       		.byte	0x7
 916 015b 67       		.byte	0x67
 917 015c 87040000 		.4byte	0x487
 918 0160 18       		.byte	0x18
 919 0161 06       		.uleb128 0x6
 920 0162 9E030000 		.4byte	.LASF30
 921 0166 07       		.byte	0x7
 922 0167 72       		.byte	0x72
 923 0168 A9000000 		.4byte	0xa9
 924 016c 1C       		.byte	0x1c
 925 016d 06       		.uleb128 0x6
 926 016e C5030000 		.4byte	.LASF31
 927 0172 07       		.byte	0x7
 928 0173 76       		.byte	0x76
 929 0174 9E000000 		.4byte	0x9e
 930 0178 1D       		.byte	0x1d
 931 0179 06       		.uleb128 0x6
 932 017a 9B040000 		.4byte	.LASF32
 933 017e 07       		.byte	0x7
 934 017f 7B       		.byte	0x7b
 935 0180 B4000000 		.4byte	0xb4
 936 0184 1E       		.byte	0x1e
 937 0185 06       		.uleb128 0x6
 938 0186 A6030000 		.4byte	.LASF33
 939 018a 07       		.byte	0x7
 940 018b 81       		.byte	0x81
 941 018c BF000000 		.4byte	0xbf
 942 0190 1F       		.byte	0x1f
 943 0191 06       		.uleb128 0x6
 944 0192 66040000 		.4byte	.LASF34
 945 0196 07       		.byte	0x7
 946 0197 88       		.byte	0x88
 947 0198 A4030000 		.4byte	0x3a4
 948 019c 20       		.byte	0x20
 949 019d 07       		.uleb128 0x7
 950 019e 705F7500 		.ascii	"p_u\000"
 951 01a2 07       		.byte	0x7
 952 01a3 AD       		.byte	0xad
 953 01a4 52040000 		.4byte	0x452
 954 01a8 24       		.byte	0x24
 955 01a9 06       		.uleb128 0x6
 956 01aa 1D050000 		.4byte	.LASF35
 957 01ae 07       		.byte	0x7
 958 01af B2       		.byte	0xb2
 959 01b0 45020000 		.4byte	0x245
 960 01b4 28       		.byte	0x28
 961 01b5 06       		.uleb128 0x6
 962 01b6 74040000 		.4byte	.LASF36
 963 01ba 07       		.byte	0x7
 964 01bb B8       		.byte	0xb8
ARM GAS  /var/folders/qh/xwg3v3kj02qbxczjpdb8lzfr0000gn/T//ccQ3ewSi.s 			page 18


 965 01bc 25020000 		.4byte	0x225
 966 01c0 2C       		.byte	0x2c
 967 01c1 06       		.uleb128 0x6
 968 01c2 08000000 		.4byte	.LASF37
 969 01c6 07       		.byte	0x7
 970 01c7 BC       		.byte	0xbc
 971 01c8 D5000000 		.4byte	0xd5
 972 01cc 34       		.byte	0x34
 973 01cd 06       		.uleb128 0x6
 974 01ce EF030000 		.4byte	.LASF38
 975 01d2 07       		.byte	0x7
 976 01d3 C2       		.byte	0xc2
 977 01d4 E0000000 		.4byte	0xe0
 978 01d8 38       		.byte	0x38
 979 01d9 06       		.uleb128 0x6
 980 01da 8A030000 		.4byte	.LASF39
 981 01de 07       		.byte	0x7
 982 01df C9       		.byte	0xc9
 983 01e0 99040000 		.4byte	0x499
 984 01e4 3C       		.byte	0x3c
 985 01e5 06       		.uleb128 0x6
 986 01e6 47040000 		.4byte	.LASF40
 987 01ea 07       		.byte	0x7
 988 01eb CD       		.byte	0xcd
 989 01ec CA000000 		.4byte	0xca
 990 01f0 40       		.byte	0x40
 991 01f1 06       		.uleb128 0x6
 992 01f2 7E000000 		.4byte	.LASF41
 993 01f6 07       		.byte	0x7
 994 01f7 D3       		.byte	0xd3
 995 01f8 5B020000 		.4byte	0x25b
 996 01fc 44       		.byte	0x44
 997 01fd 00       		.byte	0
 998 01fe 08       		.uleb128 0x8
 999 01ff 08       		.byte	0x8
 1000 0200 06       		.byte	0x6
 1001 0201 5A       		.byte	0x5a
 1002 0202 1F020000 		.4byte	0x21f
 1003 0206 06       		.uleb128 0x6
 1004 0207 BE030000 		.4byte	.LASF23
 1005 020b 06       		.byte	0x6
 1006 020c 5B       		.byte	0x5b
 1007 020d 1F020000 		.4byte	0x21f
 1008 0211 00       		.byte	0
 1009 0212 06       		.uleb128 0x6
 1010 0213 5F030000 		.4byte	.LASF24
 1011 0217 06       		.byte	0x6
 1012 0218 5D       		.byte	0x5d
 1013 0219 1F020000 		.4byte	0x21f
 1014 021d 04       		.byte	0x4
 1015 021e 00       		.byte	0
 1016 021f 09       		.uleb128 0x9
 1017 0220 04       		.byte	0x4
 1018 0221 F6000000 		.4byte	0xf6
 1019 0225 03       		.uleb128 0x3
 1020 0226 17030000 		.4byte	.LASF42
 1021 022a 06       		.byte	0x6
ARM GAS  /var/folders/qh/xwg3v3kj02qbxczjpdb8lzfr0000gn/T//ccQ3ewSi.s 			page 19


 1022 022b 5F       		.byte	0x5f
 1023 022c FE010000 		.4byte	0x1fe
 1024 0230 08       		.uleb128 0x8
 1025 0231 04       		.byte	0x4
 1026 0232 06       		.byte	0x6
 1027 0233 64       		.byte	0x64
 1028 0234 45020000 		.4byte	0x245
 1029 0238 06       		.uleb128 0x6
 1030 0239 BE030000 		.4byte	.LASF23
 1031 023d 06       		.byte	0x6
 1032 023e 66       		.byte	0x66
 1033 023f 1F020000 		.4byte	0x21f
 1034 0243 00       		.byte	0
 1035 0244 00       		.byte	0
 1036 0245 03       		.uleb128 0x3
 1037 0246 BA010000 		.4byte	.LASF43
 1038 024a 06       		.byte	0x6
 1039 024b 69       		.byte	0x69
 1040 024c 30020000 		.4byte	0x230
 1041 0250 03       		.uleb128 0x3
 1042 0251 E4000000 		.4byte	.LASF44
 1043 0255 08       		.byte	0x8
 1044 0256 A0       		.byte	0xa0
 1045 0257 5B020000 		.4byte	0x25b
 1046 025b 0A       		.uleb128 0xa
 1047 025c 04       		.byte	0x4
 1048 025d 05       		.uleb128 0x5
 1049 025e 6D040000 		.4byte	.LASF45
 1050 0262 24       		.byte	0x24
 1051 0263 08       		.byte	0x8
 1052 0264 B3       		.byte	0xb3
 1053 0265 CF020000 		.4byte	0x2cf
 1054 0269 07       		.uleb128 0x7
 1055 026a 723800   		.ascii	"r8\000"
 1056 026d 08       		.byte	0x8
 1057 026e B4       		.byte	0xb4
 1058 026f 50020000 		.4byte	0x250
 1059 0273 00       		.byte	0
 1060 0274 07       		.uleb128 0x7
 1061 0275 723900   		.ascii	"r9\000"
 1062 0278 08       		.byte	0x8
 1063 0279 B5       		.byte	0xb5
 1064 027a 50020000 		.4byte	0x250
 1065 027e 04       		.byte	0x4
 1066 027f 07       		.uleb128 0x7
 1067 0280 72313000 		.ascii	"r10\000"
 1068 0284 08       		.byte	0x8
 1069 0285 B6       		.byte	0xb6
 1070 0286 50020000 		.4byte	0x250
 1071 028a 08       		.byte	0x8
 1072 028b 07       		.uleb128 0x7
 1073 028c 72313100 		.ascii	"r11\000"
 1074 0290 08       		.byte	0x8
 1075 0291 B7       		.byte	0xb7
 1076 0292 50020000 		.4byte	0x250
 1077 0296 0C       		.byte	0xc
 1078 0297 07       		.uleb128 0x7
ARM GAS  /var/folders/qh/xwg3v3kj02qbxczjpdb8lzfr0000gn/T//ccQ3ewSi.s 			page 20


 1079 0298 723400   		.ascii	"r4\000"
 1080 029b 08       		.byte	0x8
 1081 029c B8       		.byte	0xb8
 1082 029d 50020000 		.4byte	0x250
 1083 02a1 10       		.byte	0x10
 1084 02a2 07       		.uleb128 0x7
 1085 02a3 723500   		.ascii	"r5\000"
 1086 02a6 08       		.byte	0x8
 1087 02a7 B9       		.byte	0xb9
 1088 02a8 50020000 		.4byte	0x250
 1089 02ac 14       		.byte	0x14
 1090 02ad 07       		.uleb128 0x7
 1091 02ae 723600   		.ascii	"r6\000"
 1092 02b1 08       		.byte	0x8
 1093 02b2 BA       		.byte	0xba
 1094 02b3 50020000 		.4byte	0x250
 1095 02b7 18       		.byte	0x18
 1096 02b8 07       		.uleb128 0x7
 1097 02b9 723700   		.ascii	"r7\000"
 1098 02bc 08       		.byte	0x8
 1099 02bd BB       		.byte	0xbb
 1100 02be 50020000 		.4byte	0x250
 1101 02c2 1C       		.byte	0x1c
 1102 02c3 07       		.uleb128 0x7
 1103 02c4 6C7200   		.ascii	"lr\000"
 1104 02c7 08       		.byte	0x8
 1105 02c8 BC       		.byte	0xbc
 1106 02c9 50020000 		.4byte	0x250
 1107 02cd 20       		.byte	0x20
 1108 02ce 00       		.byte	0
 1109 02cf 05       		.uleb128 0x5
 1110 02d0 68010000 		.4byte	.LASF46
 1111 02d4 04       		.byte	0x4
 1112 02d5 08       		.byte	0x8
 1113 02d6 C6       		.byte	0xc6
 1114 02d7 E8020000 		.4byte	0x2e8
 1115 02db 07       		.uleb128 0x7
 1116 02dc 72313300 		.ascii	"r13\000"
 1117 02e0 08       		.byte	0x8
 1118 02e1 C7       		.byte	0xc7
 1119 02e2 E8020000 		.4byte	0x2e8
 1120 02e6 00       		.byte	0
 1121 02e7 00       		.byte	0
 1122 02e8 09       		.uleb128 0x9
 1123 02e9 04       		.byte	0x4
 1124 02ea 5D020000 		.4byte	0x25d
 1125 02ee 04       		.uleb128 0x4
 1126 02ef 04       		.byte	0x4
 1127 02f0 07       		.byte	0x7
 1128 02f1 FA010000 		.4byte	.LASF47
 1129 02f5 03       		.uleb128 0x3
 1130 02f6 52040000 		.4byte	.LASF48
 1131 02fa 09       		.byte	0x9
 1132 02fb 51       		.byte	0x51
 1133 02fc 00030000 		.4byte	0x300
 1134 0300 09       		.uleb128 0x9
 1135 0301 04       		.byte	0x4
ARM GAS  /var/folders/qh/xwg3v3kj02qbxczjpdb8lzfr0000gn/T//ccQ3ewSi.s 			page 21


 1136 0302 06030000 		.4byte	0x306
 1137 0306 0B       		.uleb128 0xb
 1138 0307 11030000 		.4byte	0x311
 1139 030b 0C       		.uleb128 0xc
 1140 030c 5B020000 		.4byte	0x25b
 1141 0310 00       		.byte	0
 1142 0311 03       		.uleb128 0x3
 1143 0312 18040000 		.4byte	.LASF49
 1144 0316 09       		.byte	0x9
 1145 0317 56       		.byte	0x56
 1146 0318 1C030000 		.4byte	0x31c
 1147 031c 05       		.uleb128 0x5
 1148 031d 18040000 		.4byte	.LASF49
 1149 0321 14       		.byte	0x14
 1150 0322 09       		.byte	0x9
 1151 0323 5D       		.byte	0x5d
 1152 0324 65030000 		.4byte	0x365
 1153 0328 06       		.uleb128 0x6
 1154 0329 13010000 		.4byte	.LASF50
 1155 032d 09       		.byte	0x9
 1156 032e 5E       		.byte	0x5e
 1157 032f 65030000 		.4byte	0x365
 1158 0333 00       		.byte	0
 1159 0334 06       		.uleb128 0x6
 1160 0335 ED000000 		.4byte	.LASF51
 1161 0339 09       		.byte	0x9
 1162 033a 60       		.byte	0x60
 1163 033b 65030000 		.4byte	0x365
 1164 033f 04       		.byte	0x4
 1165 0340 06       		.uleb128 0x6
 1166 0341 F2010000 		.4byte	.LASF52
 1167 0345 09       		.byte	0x9
 1168 0346 62       		.byte	0x62
 1169 0347 EB000000 		.4byte	0xeb
 1170 034b 08       		.byte	0x8
 1171 034c 06       		.uleb128 0x6
 1172 034d 03020000 		.4byte	.LASF53
 1173 0351 09       		.byte	0x9
 1174 0352 63       		.byte	0x63
 1175 0353 F5020000 		.4byte	0x2f5
 1176 0357 0C       		.byte	0xc
 1177 0358 06       		.uleb128 0x6
 1178 0359 89040000 		.4byte	.LASF54
 1179 035d 09       		.byte	0x9
 1180 035e 65       		.byte	0x65
 1181 035f 5B020000 		.4byte	0x25b
 1182 0363 10       		.byte	0x10
 1183 0364 00       		.byte	0
 1184 0365 09       		.uleb128 0x9
 1185 0366 04       		.byte	0x4
 1186 0367 11030000 		.4byte	0x311
 1187 036b 08       		.uleb128 0x8
 1188 036c 10       		.byte	0x10
 1189 036d 09       		.byte	0x9
 1190 036e 6F       		.byte	0x6f
 1191 036f A4030000 		.4byte	0x3a4
 1192 0373 06       		.uleb128 0x6
ARM GAS  /var/folders/qh/xwg3v3kj02qbxczjpdb8lzfr0000gn/T//ccQ3ewSi.s 			page 22


 1193 0374 13010000 		.4byte	.LASF50
 1194 0378 09       		.byte	0x9
 1195 0379 70       		.byte	0x70
 1196 037a 65030000 		.4byte	0x365
 1197 037e 00       		.byte	0
 1198 037f 06       		.uleb128 0x6
 1199 0380 ED000000 		.4byte	.LASF51
 1200 0384 09       		.byte	0x9
 1201 0385 72       		.byte	0x72
 1202 0386 65030000 		.4byte	0x365
 1203 038a 04       		.byte	0x4
 1204 038b 06       		.uleb128 0x6
 1205 038c F2010000 		.4byte	.LASF52
 1206 0390 09       		.byte	0x9
 1207 0391 74       		.byte	0x74
 1208 0392 EB000000 		.4byte	0xeb
 1209 0396 08       		.byte	0x8
 1210 0397 06       		.uleb128 0x6
 1211 0398 E8040000 		.4byte	.LASF55
 1212 039c 09       		.byte	0x9
 1213 039d 75       		.byte	0x75
 1214 039e A4030000 		.4byte	0x3a4
 1215 03a2 0C       		.byte	0xc
 1216 03a3 00       		.byte	0
 1217 03a4 0D       		.uleb128 0xd
 1218 03a5 EB000000 		.4byte	0xeb
 1219 03a9 03       		.uleb128 0x3
 1220 03aa 08050000 		.4byte	.LASF56
 1221 03ae 09       		.byte	0x9
 1222 03af 76       		.byte	0x76
 1223 03b0 6B030000 		.4byte	0x36b
 1224 03b4 08       		.uleb128 0x8
 1225 03b5 1C       		.byte	0x1c
 1226 03b6 0A       		.byte	0xa
 1227 03b7 57       		.byte	0x57
 1228 03b8 05040000 		.4byte	0x405
 1229 03bc 06       		.uleb128 0x6
 1230 03bd 10040000 		.4byte	.LASF57
 1231 03c1 0A       		.byte	0xa
 1232 03c2 58       		.byte	0x58
 1233 03c3 25020000 		.4byte	0x225
 1234 03c7 00       		.byte	0
 1235 03c8 06       		.uleb128 0x6
 1236 03c9 B0030000 		.4byte	.LASF58
 1237 03cd 0A       		.byte	0xa
 1238 03ce 59       		.byte	0x59
 1239 03cf CA000000 		.4byte	0xca
 1240 03d3 08       		.byte	0x8
 1241 03d4 06       		.uleb128 0x6
 1242 03d5 11030000 		.4byte	.LASF59
 1243 03d9 0A       		.byte	0xa
 1244 03da 5B       		.byte	0x5b
 1245 03db CF020000 		.4byte	0x2cf
 1246 03df 0C       		.byte	0xc
 1247 03e0 06       		.uleb128 0x6
 1248 03e1 DC000000 		.4byte	.LASF60
 1249 03e5 0A       		.byte	0xa
ARM GAS  /var/folders/qh/xwg3v3kj02qbxczjpdb8lzfr0000gn/T//ccQ3ewSi.s 			page 23


 1250 03e6 5E       		.byte	0x5e
 1251 03e7 1F020000 		.4byte	0x21f
 1252 03eb 10       		.byte	0x10
 1253 03ec 06       		.uleb128 0x6
 1254 03ed 3F030000 		.4byte	.LASF61
 1255 03f1 0A       		.byte	0xa
 1256 03f2 5F       		.byte	0x5f
 1257 03f3 1F020000 		.4byte	0x21f
 1258 03f7 14       		.byte	0x14
 1259 03f8 06       		.uleb128 0x6
 1260 03f9 35030000 		.4byte	.LASF62
 1261 03fd 0A       		.byte	0xa
 1262 03fe 62       		.byte	0x62
 1263 03ff 1F020000 		.4byte	0x21f
 1264 0403 18       		.byte	0x18
 1265 0404 00       		.byte	0
 1266 0405 03       		.uleb128 0x3
 1267 0406 A2040000 		.4byte	.LASF63
 1268 040a 0A       		.byte	0xa
 1269 040b 64       		.byte	0x64
 1270 040c B4030000 		.4byte	0x3b4
 1271 0410 05       		.uleb128 0x5
 1272 0411 D2010000 		.4byte	.LASF64
 1273 0415 10       		.byte	0x10
 1274 0416 0B       		.byte	0xb
 1275 0417 25       		.byte	0x25
 1276 0418 41040000 		.4byte	0x441
 1277 041c 06       		.uleb128 0x6
 1278 041d 86000000 		.4byte	.LASF65
 1279 0421 0B       		.byte	0xb
 1280 0422 26       		.byte	0x26
 1281 0423 25020000 		.4byte	0x225
 1282 0427 00       		.byte	0
 1283 0428 06       		.uleb128 0x6
 1284 0429 0F050000 		.4byte	.LASF66
 1285 042d 0B       		.byte	0xb
 1286 042e 28       		.byte	0x28
 1287 042f 1F020000 		.4byte	0x21f
 1288 0433 08       		.byte	0x8
 1289 0434 06       		.uleb128 0x6
 1290 0435 36040000 		.4byte	.LASF67
 1291 0439 0B       		.byte	0xb
 1292 043a 2A       		.byte	0x2a
 1293 043b 41040000 		.4byte	0x441
 1294 043f 0C       		.byte	0xc
 1295 0440 00       		.byte	0
 1296 0441 09       		.uleb128 0x9
 1297 0442 04       		.byte	0x4
 1298 0443 10040000 		.4byte	0x410
 1299 0447 03       		.uleb128 0x3
 1300 0448 D2010000 		.4byte	.LASF64
 1301 044c 0B       		.byte	0xb
 1302 044d 2C       		.byte	0x2c
 1303 044e 10040000 		.4byte	0x410
 1304 0452 0E       		.uleb128 0xe
 1305 0453 04       		.byte	0x4
 1306 0454 07       		.byte	0x7
ARM GAS  /var/folders/qh/xwg3v3kj02qbxczjpdb8lzfr0000gn/T//ccQ3ewSi.s 			page 24


 1307 0455 8F       		.byte	0x8f
 1308 0456 87040000 		.4byte	0x487
 1309 045a 0F       		.uleb128 0xf
 1310 045b 1A000000 		.4byte	.LASF68
 1311 045f 07       		.byte	0x7
 1312 0460 96       		.byte	0x96
 1313 0461 D5000000 		.4byte	0xd5
 1314 0465 0F       		.uleb128 0xf
 1315 0466 4A000000 		.4byte	.LASF69
 1316 046a 07       		.byte	0x7
 1317 046b 9D       		.byte	0x9d
 1318 046c D5000000 		.4byte	0xd5
 1319 0470 0F       		.uleb128 0xf
 1320 0471 DA040000 		.4byte	.LASF70
 1321 0475 07       		.byte	0x7
 1322 0476 A4       		.byte	0xa4
 1323 0477 5B020000 		.4byte	0x25b
 1324 047b 0F       		.uleb128 0xf
 1325 047c B7030000 		.4byte	.LASF71
 1326 0480 07       		.byte	0x7
 1327 0481 AB       		.byte	0xab
 1328 0482 E0000000 		.4byte	0xe0
 1329 0486 00       		.byte	0
 1330 0487 09       		.uleb128 0x9
 1331 0488 04       		.byte	0x4
 1332 0489 8D040000 		.4byte	0x48d
 1333 048d 10       		.uleb128 0x10
 1334 048e 92040000 		.4byte	0x492
 1335 0492 04       		.uleb128 0x4
 1336 0493 01       		.byte	0x1
 1337 0494 08       		.byte	0x8
 1338 0495 25040000 		.4byte	.LASF72
 1339 0499 09       		.uleb128 0x9
 1340 049a 04       		.byte	0x4
 1341 049b 47040000 		.4byte	0x447
 1342 049f 03       		.uleb128 0x3
 1343 04a0 00000000 		.4byte	.LASF73
 1344 04a4 07       		.byte	0x7
 1345 04a5 DE       		.byte	0xde
 1346 04a6 AA040000 		.4byte	0x4aa
 1347 04aa 09       		.uleb128 0x9
 1348 04ab 04       		.byte	0x4
 1349 04ac B0040000 		.4byte	0x4b0
 1350 04b0 11       		.uleb128 0x11
 1351 04b1 D5000000 		.4byte	0xd5
 1352 04b5 BF040000 		.4byte	0x4bf
 1353 04b9 0C       		.uleb128 0xc
 1354 04ba 5B020000 		.4byte	0x25b
 1355 04be 00       		.byte	0
 1356 04bf 12       		.uleb128 0x12
 1357 04c0 03040000 		.4byte	.LASF75
 1358 04c4 01       		.byte	0x1
 1359 04c5 45       		.byte	0x45
 1360 04c6 1F020000 		.4byte	0x21f
 1361 04ca 01       		.byte	0x1
 1362 04cb E5040000 		.4byte	0x4e5
 1363 04cf 13       		.uleb128 0x13
ARM GAS  /var/folders/qh/xwg3v3kj02qbxczjpdb8lzfr0000gn/T//ccQ3ewSi.s 			page 25


 1364 04d0 747000   		.ascii	"tp\000"
 1365 04d3 01       		.byte	0x1
 1366 04d4 45       		.byte	0x45
 1367 04d5 1F020000 		.4byte	0x21f
 1368 04d9 14       		.uleb128 0x14
 1369 04da 15000000 		.4byte	.LASF74
 1370 04de 01       		.byte	0x1
 1371 04df 45       		.byte	0x45
 1372 04e0 CA000000 		.4byte	0xca
 1373 04e4 00       		.byte	0
 1374 04e5 12       		.uleb128 0x12
 1375 04e6 98000000 		.4byte	.LASF76
 1376 04ea 01       		.byte	0x1
 1377 04eb 96       		.byte	0x96
 1378 04ec 1F020000 		.4byte	0x21f
 1379 04f0 01       		.byte	0x1
 1380 04f1 36050000 		.4byte	0x536
 1381 04f5 13       		.uleb128 0x13
 1382 04f6 77737000 		.ascii	"wsp\000"
 1383 04fa 01       		.byte	0x1
 1384 04fb 96       		.byte	0x96
 1385 04fc 5B020000 		.4byte	0x25b
 1386 0500 14       		.uleb128 0x14
 1387 0501 70010000 		.4byte	.LASF77
 1388 0505 01       		.byte	0x1
 1389 0506 96       		.byte	0x96
 1390 0507 2C000000 		.4byte	0x2c
 1391 050b 14       		.uleb128 0x14
 1392 050c 15000000 		.4byte	.LASF74
 1393 0510 01       		.byte	0x1
 1394 0511 97       		.byte	0x97
 1395 0512 CA000000 		.4byte	0xca
 1396 0516 13       		.uleb128 0x13
 1397 0517 706600   		.ascii	"pf\000"
 1398 051a 01       		.byte	0x1
 1399 051b 97       		.byte	0x97
 1400 051c 9F040000 		.4byte	0x49f
 1401 0520 13       		.uleb128 0x13
 1402 0521 61726700 		.ascii	"arg\000"
 1403 0525 01       		.byte	0x1
 1404 0526 97       		.byte	0x97
 1405 0527 5B020000 		.4byte	0x25b
 1406 052b 15       		.uleb128 0x15
 1407 052c 747000   		.ascii	"tp\000"
 1408 052f 01       		.byte	0x1
 1409 0530 99       		.byte	0x99
 1410 0531 1F020000 		.4byte	0x21f
 1411 0535 00       		.byte	0
 1412 0536 16       		.uleb128 0x16
 1413 0537 BF000000 		.4byte	.LASF102
 1414 053b 02       		.byte	0x2
 1415 053c 4F       		.byte	0x4f
 1416 053d 1F020000 		.4byte	0x21f
 1417 0541 03       		.byte	0x3
 1418 0542 5C050000 		.4byte	0x55c
 1419 0546 13       		.uleb128 0x13
 1420 0547 746C7000 		.ascii	"tlp\000"
ARM GAS  /var/folders/qh/xwg3v3kj02qbxczjpdb8lzfr0000gn/T//ccQ3ewSi.s 			page 26


 1421 054b 02       		.byte	0x2
 1422 054c 4F       		.byte	0x4f
 1423 054d 5C050000 		.4byte	0x55c
 1424 0551 15       		.uleb128 0x15
 1425 0552 747000   		.ascii	"tp\000"
 1426 0555 02       		.byte	0x2
 1427 0556 51       		.byte	0x51
 1428 0557 1F020000 		.4byte	0x21f
 1429 055b 00       		.byte	0
 1430 055c 09       		.uleb128 0x9
 1431 055d 04       		.byte	0x4
 1432 055e 45020000 		.4byte	0x245
 1433 0562 17       		.uleb128 0x17
 1434 0563 29030000 		.4byte	.LASF103
 1435 0567 02       		.byte	0x2
 1436 0568 49       		.byte	0x49
 1437 0569 03       		.byte	0x3
 1438 056a 84050000 		.4byte	0x584
 1439 056e 13       		.uleb128 0x13
 1440 056f 747000   		.ascii	"tp\000"
 1441 0572 02       		.byte	0x2
 1442 0573 49       		.byte	0x49
 1443 0574 1F020000 		.4byte	0x21f
 1444 0578 13       		.uleb128 0x13
 1445 0579 746C7000 		.ascii	"tlp\000"
 1446 057d 02       		.byte	0x2
 1447 057e 49       		.byte	0x49
 1448 057f 5C050000 		.4byte	0x55c
 1449 0583 00       		.byte	0
 1450 0584 18       		.uleb128 0x18
 1451 0585 BF040000 		.4byte	0x4bf
 1452 0589 00000000 		.4byte	.LFB7
 1453 058d 3C000000 		.4byte	.LFE7-.LFB7
 1454 0591 01       		.uleb128 0x1
 1455 0592 9C       		.byte	0x9c
 1456 0593 A6050000 		.4byte	0x5a6
 1457 0597 19       		.uleb128 0x19
 1458 0598 CF040000 		.4byte	0x4cf
 1459 059c 01       		.uleb128 0x1
 1460 059d 50       		.byte	0x50
 1461 059e 19       		.uleb128 0x19
 1462 059f D9040000 		.4byte	0x4d9
 1463 05a3 01       		.uleb128 0x1
 1464 05a4 51       		.byte	0x51
 1465 05a5 00       		.byte	0
 1466 05a6 18       		.uleb128 0x18
 1467 05a7 E5040000 		.4byte	0x4e5
 1468 05ab 00000000 		.4byte	.LFB8
 1469 05af 50000000 		.4byte	.LFE8-.LFB8
 1470 05b3 01       		.uleb128 0x1
 1471 05b4 9C       		.byte	0x9c
 1472 05b5 0B060000 		.4byte	0x60b
 1473 05b9 19       		.uleb128 0x19
 1474 05ba F5040000 		.4byte	0x4f5
 1475 05be 01       		.uleb128 0x1
 1476 05bf 50       		.byte	0x50
 1477 05c0 1A       		.uleb128 0x1a
ARM GAS  /var/folders/qh/xwg3v3kj02qbxczjpdb8lzfr0000gn/T//ccQ3ewSi.s 			page 27


 1478 05c1 00050000 		.4byte	0x500
 1479 05c5 00000000 		.4byte	.LLST0
 1480 05c9 1A       		.uleb128 0x1a
 1481 05ca 0B050000 		.4byte	0x50b
 1482 05ce 2E000000 		.4byte	.LLST1
 1483 05d2 1A       		.uleb128 0x1a
 1484 05d3 16050000 		.4byte	0x516
 1485 05d7 4D000000 		.4byte	.LLST2
 1486 05db 19       		.uleb128 0x19
 1487 05dc 20050000 		.4byte	0x520
 1488 05e0 02       		.uleb128 0x2
 1489 05e1 91       		.byte	0x91
 1490 05e2 00       		.sleb128 0
 1491 05e3 1B       		.uleb128 0x1b
 1492 05e4 2B050000 		.4byte	0x52b
 1493 05e8 01       		.uleb128 0x1
 1494 05e9 50       		.byte	0x50
 1495 05ea 1C       		.uleb128 0x1c
 1496 05eb BF040000 		.4byte	0x4bf
 1497 05ef 10000000 		.4byte	.LBB12
 1498 05f3 34000000 		.4byte	.LBE12-.LBB12
 1499 05f7 01       		.byte	0x1
 1500 05f8 A1       		.byte	0xa1
 1501 05f9 1A       		.uleb128 0x1a
 1502 05fa D9040000 		.4byte	0x4d9
 1503 05fe 7A000000 		.4byte	.LLST3
 1504 0602 19       		.uleb128 0x19
 1505 0603 CF040000 		.4byte	0x4cf
 1506 0607 01       		.uleb128 0x1
 1507 0608 50       		.byte	0x50
 1508 0609 00       		.byte	0
 1509 060a 00       		.byte	0
 1510 060b 1D       		.uleb128 0x1d
 1511 060c E0010000 		.4byte	.LASF78
 1512 0610 01       		.byte	0x1
 1513 0611 B4       		.byte	0xb4
 1514 0612 1F020000 		.4byte	0x21f
 1515 0616 00000000 		.4byte	.LFB9
 1516 061a 60000000 		.4byte	.LFE9-.LFB9
 1517 061e 01       		.uleb128 0x1
 1518 061f 9C       		.byte	0x9c
 1519 0620 02070000 		.4byte	0x702
 1520 0624 1E       		.uleb128 0x1e
 1521 0625 77737000 		.ascii	"wsp\000"
 1522 0629 01       		.byte	0x1
 1523 062a B4       		.byte	0xb4
 1524 062b 5B020000 		.4byte	0x25b
 1525 062f 99000000 		.4byte	.LLST4
 1526 0633 1F       		.uleb128 0x1f
 1527 0634 70010000 		.4byte	.LASF77
 1528 0638 01       		.byte	0x1
 1529 0639 B4       		.byte	0xb4
 1530 063a 2C000000 		.4byte	0x2c
 1531 063e C2000000 		.4byte	.LLST5
 1532 0642 1F       		.uleb128 0x1f
 1533 0643 15000000 		.4byte	.LASF74
 1534 0647 01       		.byte	0x1
ARM GAS  /var/folders/qh/xwg3v3kj02qbxczjpdb8lzfr0000gn/T//ccQ3ewSi.s 			page 28


 1535 0648 B5       		.byte	0xb5
 1536 0649 CA000000 		.4byte	0xca
 1537 064d F0000000 		.4byte	.LLST6
 1538 0651 1E       		.uleb128 0x1e
 1539 0652 706600   		.ascii	"pf\000"
 1540 0655 01       		.byte	0x1
 1541 0656 B5       		.byte	0xb5
 1542 0657 9F040000 		.4byte	0x49f
 1543 065b 1D010000 		.4byte	.LLST7
 1544 065f 20       		.uleb128 0x20
 1545 0660 61726700 		.ascii	"arg\000"
 1546 0664 01       		.byte	0x1
 1547 0665 B5       		.byte	0xb5
 1548 0666 5B020000 		.4byte	0x25b
 1549 066a 02       		.uleb128 0x2
 1550 066b 91       		.byte	0x91
 1551 066c 00       		.sleb128 0
 1552 066d 15       		.uleb128 0x15
 1553 066e 747000   		.ascii	"tp\000"
 1554 0671 01       		.byte	0x1
 1555 0672 B6       		.byte	0xb6
 1556 0673 1F020000 		.4byte	0x21f
 1557 0677 21       		.uleb128 0x21
 1558 0678 E5040000 		.4byte	0x4e5
 1559 067c 06000000 		.4byte	.LBB14
 1560 0680 44000000 		.4byte	.LBE14-.LBB14
 1561 0684 01       		.byte	0x1
 1562 0685 C1       		.byte	0xc1
 1563 0686 EC060000 		.4byte	0x6ec
 1564 068a 19       		.uleb128 0x19
 1565 068b 20050000 		.4byte	0x520
 1566 068f 02       		.uleb128 0x2
 1567 0690 91       		.byte	0x91
 1568 0691 00       		.sleb128 0
 1569 0692 1A       		.uleb128 0x1a
 1570 0693 16050000 		.4byte	0x516
 1571 0697 4A010000 		.4byte	.LLST8
 1572 069b 1A       		.uleb128 0x1a
 1573 069c 0B050000 		.4byte	0x50b
 1574 06a0 77010000 		.4byte	.LLST9
 1575 06a4 1A       		.uleb128 0x1a
 1576 06a5 00050000 		.4byte	0x500
 1577 06a9 A4010000 		.4byte	.LLST10
 1578 06ad 1A       		.uleb128 0x1a
 1579 06ae F5040000 		.4byte	0x4f5
 1580 06b2 D2010000 		.4byte	.LLST11
 1581 06b6 22       		.uleb128 0x22
 1582 06b7 06000000 		.4byte	.LBB15
 1583 06bb 44000000 		.4byte	.LBE15-.LBB15
 1584 06bf 23       		.uleb128 0x23
 1585 06c0 2B050000 		.4byte	0x52b
 1586 06c4 D2010000 		.4byte	.LLST11
 1587 06c8 1C       		.uleb128 0x1c
 1588 06c9 BF040000 		.4byte	0x4bf
 1589 06cd 16000000 		.4byte	.LBB16
 1590 06d1 34000000 		.4byte	.LBE16-.LBB16
 1591 06d5 01       		.byte	0x1
ARM GAS  /var/folders/qh/xwg3v3kj02qbxczjpdb8lzfr0000gn/T//ccQ3ewSi.s 			page 29


 1592 06d6 A1       		.byte	0xa1
 1593 06d7 1A       		.uleb128 0x1a
 1594 06d8 D9040000 		.4byte	0x4d9
 1595 06dc FB010000 		.4byte	.LLST13
 1596 06e0 1A       		.uleb128 0x1a
 1597 06e1 CF040000 		.4byte	0x4cf
 1598 06e5 28020000 		.4byte	.LLST14
 1599 06e9 00       		.byte	0
 1600 06ea 00       		.byte	0
 1601 06eb 00       		.byte	0
 1602 06ec 24       		.uleb128 0x24
 1603 06ed 50000000 		.4byte	.LVL16
 1604 06f1 88090000 		.4byte	0x988
 1605 06f5 25       		.uleb128 0x25
 1606 06f6 01       		.uleb128 0x1
 1607 06f7 51       		.byte	0x51
 1608 06f8 01       		.uleb128 0x1
 1609 06f9 30       		.byte	0x30
 1610 06fa 25       		.uleb128 0x25
 1611 06fb 01       		.uleb128 0x1
 1612 06fc 50       		.byte	0x50
 1613 06fd 02       		.uleb128 0x2
 1614 06fe 74       		.byte	0x74
 1615 06ff 00       		.sleb128 0
 1616 0700 00       		.byte	0
 1617 0701 00       		.byte	0
 1618 0702 1D       		.uleb128 0x1d
 1619 0703 F5000000 		.4byte	.LASF79
 1620 0707 01       		.byte	0x1
 1621 0708 D2       		.byte	0xd2
 1622 0709 CA000000 		.4byte	0xca
 1623 070d 00000000 		.4byte	.LFB10
 1624 0711 28000000 		.4byte	.LFE10-.LFB10
 1625 0715 01       		.uleb128 0x1
 1626 0716 9C       		.byte	0x9c
 1627 0717 43070000 		.4byte	0x743
 1628 071b 1F       		.uleb128 0x1f
 1629 071c 9B010000 		.4byte	.LASF80
 1630 0720 01       		.byte	0x1
 1631 0721 D2       		.byte	0xd2
 1632 0722 CA000000 		.4byte	0xca
 1633 0726 51020000 		.4byte	.LLST15
 1634 072a 26       		.uleb128 0x26
 1635 072b D8010000 		.4byte	.LASF88
 1636 072f 01       		.byte	0x1
 1637 0730 D3       		.byte	0xd3
 1638 0731 CA000000 		.4byte	0xca
 1639 0735 72020000 		.4byte	.LLST16
 1640 0739 27       		.uleb128 0x27
 1641 073a 1C000000 		.4byte	.LVL20
 1642 073e 9E090000 		.4byte	0x99e
 1643 0742 00       		.byte	0
 1644 0743 1D       		.uleb128 0x1d
 1645 0744 E5020000 		.4byte	.LASF81
 1646 0748 01       		.byte	0x1
 1647 0749 F3       		.byte	0xf3
 1648 074a 1F020000 		.4byte	0x21f
ARM GAS  /var/folders/qh/xwg3v3kj02qbxczjpdb8lzfr0000gn/T//ccQ3ewSi.s 			page 30


 1649 074e 00000000 		.4byte	.LFB11
 1650 0752 12000000 		.4byte	.LFE11-.LFB11
 1651 0756 01       		.uleb128 0x1
 1652 0757 9C       		.byte	0x9c
 1653 0758 80070000 		.4byte	0x780
 1654 075c 1E       		.uleb128 0x1e
 1655 075d 747000   		.ascii	"tp\000"
 1656 0760 01       		.byte	0x1
 1657 0761 F3       		.byte	0xf3
 1658 0762 1F020000 		.4byte	0x21f
 1659 0766 90020000 		.4byte	.LLST17
 1660 076a 24       		.uleb128 0x24
 1661 076b 0C000000 		.4byte	.LVL23
 1662 076f 88090000 		.4byte	0x988
 1663 0773 25       		.uleb128 0x25
 1664 0774 01       		.uleb128 0x1
 1665 0775 51       		.byte	0x51
 1666 0776 01       		.uleb128 0x1
 1667 0777 30       		.byte	0x30
 1668 0778 25       		.uleb128 0x25
 1669 0779 01       		.uleb128 0x1
 1670 077a 50       		.byte	0x50
 1671 077b 02       		.uleb128 0x2
 1672 077c 74       		.byte	0x74
 1673 077d 00       		.sleb128 0
 1674 077e 00       		.byte	0
 1675 077f 00       		.byte	0
 1676 0780 28       		.uleb128 0x28
 1677 0781 AB010000 		.4byte	.LASF82
 1678 0785 01       		.byte	0x1
 1679 0786 0A01     		.2byte	0x10a
 1680 0788 00000000 		.4byte	.LFB12
 1681 078c 0E000000 		.4byte	.LFE12-.LFB12
 1682 0790 01       		.uleb128 0x1
 1683 0791 9C       		.byte	0x9c
 1684 0792 A4070000 		.4byte	0x7a4
 1685 0796 29       		.uleb128 0x29
 1686 0797 747000   		.ascii	"tp\000"
 1687 079a 01       		.byte	0x1
 1688 079b 0A01     		.2byte	0x10a
 1689 079d 1F020000 		.4byte	0x21f
 1690 07a1 01       		.uleb128 0x1
 1691 07a2 50       		.byte	0x50
 1692 07a3 00       		.byte	0
 1693 07a4 28       		.uleb128 0x28
 1694 07a5 90040000 		.4byte	.LASF83
 1695 07a9 01       		.byte	0x1
 1696 07aa 1D01     		.2byte	0x11d
 1697 07ac 00000000 		.4byte	.LFB13
 1698 07b0 10000000 		.4byte	.LFE13-.LFB13
 1699 07b4 01       		.uleb128 0x1
 1700 07b5 9C       		.byte	0x9c
 1701 07b6 E1070000 		.4byte	0x7e1
 1702 07ba 2A       		.uleb128 0x2a
 1703 07bb 24030000 		.4byte	.LASF84
 1704 07bf 01       		.byte	0x1
 1705 07c0 1D01     		.2byte	0x11d
ARM GAS  /var/folders/qh/xwg3v3kj02qbxczjpdb8lzfr0000gn/T//ccQ3ewSi.s 			page 31


 1706 07c2 EB000000 		.4byte	0xeb
 1707 07c6 B9020000 		.4byte	.LLST18
 1708 07ca 24       		.uleb128 0x24
 1709 07cb 0C000000 		.4byte	.LVL28
 1710 07cf A5090000 		.4byte	0x9a5
 1711 07d3 25       		.uleb128 0x25
 1712 07d4 01       		.uleb128 0x1
 1713 07d5 51       		.byte	0x51
 1714 07d6 03       		.uleb128 0x3
 1715 07d7 F3       		.byte	0xf3
 1716 07d8 01       		.uleb128 0x1
 1717 07d9 50       		.byte	0x50
 1718 07da 25       		.uleb128 0x25
 1719 07db 01       		.uleb128 0x1
 1720 07dc 50       		.byte	0x50
 1721 07dd 01       		.uleb128 0x1
 1722 07de 36       		.byte	0x36
 1723 07df 00       		.byte	0
 1724 07e0 00       		.byte	0
 1725 07e1 28       		.uleb128 0x28
 1726 07e2 47030000 		.4byte	.LASF85
 1727 07e6 01       		.byte	0x1
 1728 07e7 2E01     		.2byte	0x12e
 1729 07e9 00000000 		.4byte	.LFB14
 1730 07ed 1C000000 		.4byte	.LFE14-.LFB14
 1731 07f1 01       		.uleb128 0x1
 1732 07f2 9C       		.byte	0x9c
 1733 07f3 17080000 		.4byte	0x817
 1734 07f7 2A       		.uleb128 0x2a
 1735 07f8 24030000 		.4byte	.LASF84
 1736 07fc 01       		.byte	0x1
 1737 07fd 2E01     		.2byte	0x12e
 1738 07ff EB000000 		.4byte	0xeb
 1739 0803 E5020000 		.4byte	.LLST19
 1740 0807 24       		.uleb128 0x24
 1741 0808 12000000 		.4byte	.LVL31
 1742 080c A5090000 		.4byte	0x9a5
 1743 0810 25       		.uleb128 0x25
 1744 0811 01       		.uleb128 0x1
 1745 0812 50       		.byte	0x50
 1746 0813 01       		.uleb128 0x1
 1747 0814 36       		.byte	0x36
 1748 0815 00       		.byte	0
 1749 0816 00       		.byte	0
 1750 0817 28       		.uleb128 0x28
 1751 0818 5B040000 		.4byte	.LASF86
 1752 081c 01       		.byte	0x1
 1753 081d 3D01     		.2byte	0x13d
 1754 081f 00000000 		.4byte	.LFB15
 1755 0823 20000000 		.4byte	.LFE15-.LFB15
 1756 0827 01       		.uleb128 0x1
 1757 0828 9C       		.byte	0x9c
 1758 0829 37080000 		.4byte	0x837
 1759 082d 27       		.uleb128 0x27
 1760 082e 16000000 		.4byte	.LVL32
 1761 0832 BF090000 		.4byte	0x9bf
 1762 0836 00       		.byte	0
ARM GAS  /var/folders/qh/xwg3v3kj02qbxczjpdb8lzfr0000gn/T//ccQ3ewSi.s 			page 32


 1763 0837 28       		.uleb128 0x28
 1764 0838 28000000 		.4byte	.LASF87
 1765 083c 01       		.byte	0x1
 1766 083d 6701     		.2byte	0x167
 1767 083f 00000000 		.4byte	.LFB17
 1768 0843 3C000000 		.4byte	.LFE17-.LFB17
 1769 0847 01       		.uleb128 0x1
 1770 0848 9C       		.byte	0x9c
 1771 0849 B6080000 		.4byte	0x8b6
 1772 084d 2B       		.uleb128 0x2b
 1773 084e 6D736700 		.ascii	"msg\000"
 1774 0852 01       		.byte	0x1
 1775 0853 6701     		.2byte	0x167
 1776 0855 D5000000 		.4byte	0xd5
 1777 0859 03030000 		.4byte	.LLST20
 1778 085d 2C       		.uleb128 0x2c
 1779 085e 747000   		.ascii	"tp\000"
 1780 0861 01       		.byte	0x1
 1781 0862 6801     		.2byte	0x168
 1782 0864 1F020000 		.4byte	0x21f
 1783 0868 30030000 		.4byte	.LLST21
 1784 086c 2D       		.uleb128 0x2d
 1785 086d 36050000 		.4byte	0x536
 1786 0871 12000000 		.4byte	.LBB18
 1787 0875 04000000 		.4byte	.LBE18-.LBB18
 1788 0879 01       		.byte	0x1
 1789 087a 7001     		.2byte	0x170
 1790 087c 9D080000 		.4byte	0x89d
 1791 0880 1A       		.uleb128 0x1a
 1792 0881 46050000 		.4byte	0x546
 1793 0885 50030000 		.4byte	.LLST22
 1794 0889 22       		.uleb128 0x22
 1795 088a 12000000 		.4byte	.LBB19
 1796 088e 04000000 		.4byte	.LBE19-.LBB19
 1797 0892 23       		.uleb128 0x23
 1798 0893 51050000 		.4byte	0x551
 1799 0897 65030000 		.4byte	.LLST23
 1800 089b 00       		.byte	0
 1801 089c 00       		.byte	0
 1802 089d 27       		.uleb128 0x27
 1803 089e 1A000000 		.4byte	.LVL37
 1804 08a2 C6090000 		.4byte	0x9c6
 1805 08a6 24       		.uleb128 0x24
 1806 08a7 36000000 		.4byte	.LVL39
 1807 08ab DB090000 		.4byte	0x9db
 1808 08af 25       		.uleb128 0x25
 1809 08b0 01       		.uleb128 0x1
 1810 08b1 50       		.byte	0x50
 1811 08b2 01       		.uleb128 0x1
 1812 08b3 3E       		.byte	0x3e
 1813 08b4 00       		.byte	0
 1814 08b5 00       		.byte	0
 1815 08b6 28       		.uleb128 0x28
 1816 08b7 74000000 		.4byte	.LASF89
 1817 08bb 01       		.byte	0x1
 1818 08bc 5201     		.2byte	0x152
 1819 08be 00000000 		.4byte	.LFB16
ARM GAS  /var/folders/qh/xwg3v3kj02qbxczjpdb8lzfr0000gn/T//ccQ3ewSi.s 			page 33


 1820 08c2 0A000000 		.4byte	.LFE16-.LFB16
 1821 08c6 01       		.uleb128 0x1
 1822 08c7 9C       		.byte	0x9c
 1823 08c8 EE080000 		.4byte	0x8ee
 1824 08cc 2B       		.uleb128 0x2b
 1825 08cd 6D736700 		.ascii	"msg\000"
 1826 08d1 01       		.byte	0x1
 1827 08d2 5201     		.2byte	0x152
 1828 08d4 D5000000 		.4byte	0xd5
 1829 08d8 78030000 		.4byte	.LLST24
 1830 08dc 24       		.uleb128 0x24
 1831 08dd 08000000 		.4byte	.LVL43
 1832 08e1 37080000 		.4byte	0x837
 1833 08e5 25       		.uleb128 0x25
 1834 08e6 01       		.uleb128 0x1
 1835 08e7 50       		.byte	0x50
 1836 08e8 03       		.uleb128 0x3
 1837 08e9 F3       		.byte	0xf3
 1838 08ea 01       		.uleb128 0x1
 1839 08eb 50       		.byte	0x50
 1840 08ec 00       		.byte	0
 1841 08ed 00       		.byte	0
 1842 08ee 2E       		.uleb128 0x2e
 1843 08ef 7F040000 		.4byte	.LASF90
 1844 08f3 01       		.byte	0x1
 1845 08f4 9D01     		.2byte	0x19d
 1846 08f6 D5000000 		.4byte	0xd5
 1847 08fa 00000000 		.4byte	.LFB18
 1848 08fe 30000000 		.4byte	.LFE18-.LFB18
 1849 0902 01       		.uleb128 0x1
 1850 0903 9C       		.byte	0x9c
 1851 0904 72090000 		.4byte	0x972
 1852 0908 2B       		.uleb128 0x2b
 1853 0909 747000   		.ascii	"tp\000"
 1854 090c 01       		.byte	0x1
 1855 090d 9D01     		.2byte	0x19d
 1856 090f 1F020000 		.4byte	0x21f
 1857 0913 99030000 		.4byte	.LLST25
 1858 0917 2C       		.uleb128 0x2c
 1859 0918 6D736700 		.ascii	"msg\000"
 1860 091c 01       		.byte	0x1
 1861 091d 9E01     		.2byte	0x19e
 1862 091f D5000000 		.4byte	0xd5
 1863 0923 C5030000 		.4byte	.LLST26
 1864 0927 2F       		.uleb128 0x2f
 1865 0928 62050000 		.4byte	0x562
 1866 092c 0E000000 		.4byte	.LBB20
 1867 0930 00000000 		.4byte	.Ldebug_ranges0+0
 1868 0934 01       		.byte	0x1
 1869 0935 A801     		.2byte	0x1a8
 1870 0937 4E090000 		.4byte	0x94e
 1871 093b 1A       		.uleb128 0x1a
 1872 093c 78050000 		.4byte	0x578
 1873 0940 E3030000 		.4byte	.LLST27
 1874 0944 1A       		.uleb128 0x1a
 1875 0945 6E050000 		.4byte	0x56e
 1876 0949 05040000 		.4byte	.LLST28
ARM GAS  /var/folders/qh/xwg3v3kj02qbxczjpdb8lzfr0000gn/T//ccQ3ewSi.s 			page 34


 1877 094d 00       		.byte	0
 1878 094e 30       		.uleb128 0x30
 1879 094f 1C000000 		.4byte	.LVL47
 1880 0953 DB090000 		.4byte	0x9db
 1881 0957 61090000 		.4byte	0x961
 1882 095b 25       		.uleb128 0x25
 1883 095c 01       		.uleb128 0x1
 1884 095d 50       		.byte	0x50
 1885 095e 01       		.uleb128 0x1
 1886 095f 37       		.byte	0x37
 1887 0960 00       		.byte	0
 1888 0961 24       		.uleb128 0x24
 1889 0962 26000000 		.4byte	.LVL49
 1890 0966 EC090000 		.4byte	0x9ec
 1891 096a 25       		.uleb128 0x25
 1892 096b 01       		.uleb128 0x1
 1893 096c 50       		.byte	0x50
 1894 096d 02       		.uleb128 0x2
 1895 096e 74       		.byte	0x74
 1896 096f 00       		.sleb128 0
 1897 0970 00       		.byte	0
 1898 0971 00       		.byte	0
 1899 0972 31       		.uleb128 0x31
 1900 0973 21000000 		.4byte	.LASF91
 1901 0977 09       		.byte	0x9
 1902 0978 EE       		.byte	0xee
 1903 0979 A9030000 		.4byte	0x3a9
 1904 097d 31       		.uleb128 0x31
 1905 097e AC040000 		.4byte	.LASF92
 1906 0982 0A       		.byte	0xa
 1907 0983 68       		.byte	0x68
 1908 0984 05040000 		.4byte	0x405
 1909 0988 32       		.uleb128 0x32
 1910 0989 88010000 		.4byte	.LASF97
 1911 098d 0A       		.byte	0xa
 1912 098e 92       		.byte	0x92
 1913 098f 9E090000 		.4byte	0x99e
 1914 0993 0C       		.uleb128 0xc
 1915 0994 1F020000 		.4byte	0x21f
 1916 0998 0C       		.uleb128 0xc
 1917 0999 D5000000 		.4byte	0xd5
 1918 099d 00       		.byte	0
 1919 099e 33       		.uleb128 0x33
 1920 099f CB000000 		.4byte	.LASF94
 1921 09a3 0A       		.byte	0xa
 1922 09a4 95       		.byte	0x95
 1923 09a5 34       		.uleb128 0x34
 1924 09a6 F3040000 		.4byte	.LASF93
 1925 09aa 0A       		.byte	0xa
 1926 09ab 8F       		.byte	0x8f
 1927 09ac D5000000 		.4byte	0xd5
 1928 09b0 BF090000 		.4byte	0x9bf
 1929 09b4 0C       		.uleb128 0xc
 1930 09b5 A9000000 		.4byte	0xa9
 1931 09b9 0C       		.uleb128 0xc
 1932 09ba EB000000 		.4byte	0xeb
 1933 09be 00       		.byte	0
ARM GAS  /var/folders/qh/xwg3v3kj02qbxczjpdb8lzfr0000gn/T//ccQ3ewSi.s 			page 35


 1934 09bf 33       		.uleb128 0x33
 1935 09c0 F1020000 		.4byte	.LASF95
 1936 09c4 0A       		.byte	0xa
 1937 09c5 9B       		.byte	0x9b
 1938 09c6 34       		.uleb128 0x34
 1939 09c7 2A040000 		.4byte	.LASF96
 1940 09cb 0A       		.byte	0xa
 1941 09cc 89       		.byte	0x89
 1942 09cd 1F020000 		.4byte	0x21f
 1943 09d1 DB090000 		.4byte	0x9db
 1944 09d5 0C       		.uleb128 0xc
 1945 09d6 1F020000 		.4byte	0x21f
 1946 09da 00       		.byte	0
 1947 09db 32       		.uleb128 0x32
 1948 09dc E1030000 		.4byte	.LASF98
 1949 09e0 0A       		.byte	0xa
 1950 09e1 8C       		.byte	0x8c
 1951 09e2 EC090000 		.4byte	0x9ec
 1952 09e6 0C       		.uleb128 0xc
 1953 09e7 A9000000 		.4byte	0xa9
 1954 09eb 00       		.byte	0
 1955 09ec 35       		.uleb128 0x35
 1956 09ed CD030000 		.4byte	.LASF104
 1957 09f1 0C       		.byte	0xc
 1958 09f2 33       		.byte	0x33
 1959 09f3 0C       		.uleb128 0xc
 1960 09f4 1F020000 		.4byte	0x21f
 1961 09f8 00       		.byte	0
 1962 09f9 00       		.byte	0
 1963              		.section	.debug_abbrev,"",%progbits
 1964              	.Ldebug_abbrev0:
 1965 0000 01       		.uleb128 0x1
 1966 0001 11       		.uleb128 0x11
 1967 0002 01       		.byte	0x1
 1968 0003 25       		.uleb128 0x25
 1969 0004 0E       		.uleb128 0xe
 1970 0005 13       		.uleb128 0x13
 1971 0006 0B       		.uleb128 0xb
 1972 0007 03       		.uleb128 0x3
 1973 0008 0E       		.uleb128 0xe
 1974 0009 1B       		.uleb128 0x1b
 1975 000a 0E       		.uleb128 0xe
 1976 000b 55       		.uleb128 0x55
 1977 000c 17       		.uleb128 0x17
 1978 000d 11       		.uleb128 0x11
 1979 000e 01       		.uleb128 0x1
 1980 000f 10       		.uleb128 0x10
 1981 0010 17       		.uleb128 0x17
 1982 0011 00       		.byte	0
 1983 0012 00       		.byte	0
 1984 0013 02       		.uleb128 0x2
 1985 0014 24       		.uleb128 0x24
 1986 0015 00       		.byte	0
 1987 0016 0B       		.uleb128 0xb
 1988 0017 0B       		.uleb128 0xb
 1989 0018 3E       		.uleb128 0x3e
 1990 0019 0B       		.uleb128 0xb
ARM GAS  /var/folders/qh/xwg3v3kj02qbxczjpdb8lzfr0000gn/T//ccQ3ewSi.s 			page 36


 1991 001a 03       		.uleb128 0x3
 1992 001b 08       		.uleb128 0x8
 1993 001c 00       		.byte	0
 1994 001d 00       		.byte	0
 1995 001e 03       		.uleb128 0x3
 1996 001f 16       		.uleb128 0x16
 1997 0020 00       		.byte	0
 1998 0021 03       		.uleb128 0x3
 1999 0022 0E       		.uleb128 0xe
 2000 0023 3A       		.uleb128 0x3a
 2001 0024 0B       		.uleb128 0xb
 2002 0025 3B       		.uleb128 0x3b
 2003 0026 0B       		.uleb128 0xb
 2004 0027 49       		.uleb128 0x49
 2005 0028 13       		.uleb128 0x13
 2006 0029 00       		.byte	0
 2007 002a 00       		.byte	0
 2008 002b 04       		.uleb128 0x4
 2009 002c 24       		.uleb128 0x24
 2010 002d 00       		.byte	0
 2011 002e 0B       		.uleb128 0xb
 2012 002f 0B       		.uleb128 0xb
 2013 0030 3E       		.uleb128 0x3e
 2014 0031 0B       		.uleb128 0xb
 2015 0032 03       		.uleb128 0x3
 2016 0033 0E       		.uleb128 0xe
 2017 0034 00       		.byte	0
 2018 0035 00       		.byte	0
 2019 0036 05       		.uleb128 0x5
 2020 0037 13       		.uleb128 0x13
 2021 0038 01       		.byte	0x1
 2022 0039 03       		.uleb128 0x3
 2023 003a 0E       		.uleb128 0xe
 2024 003b 0B       		.uleb128 0xb
 2025 003c 0B       		.uleb128 0xb
 2026 003d 3A       		.uleb128 0x3a
 2027 003e 0B       		.uleb128 0xb
 2028 003f 3B       		.uleb128 0x3b
 2029 0040 0B       		.uleb128 0xb
 2030 0041 01       		.uleb128 0x1
 2031 0042 13       		.uleb128 0x13
 2032 0043 00       		.byte	0
 2033 0044 00       		.byte	0
 2034 0045 06       		.uleb128 0x6
 2035 0046 0D       		.uleb128 0xd
 2036 0047 00       		.byte	0
 2037 0048 03       		.uleb128 0x3
 2038 0049 0E       		.uleb128 0xe
 2039 004a 3A       		.uleb128 0x3a
 2040 004b 0B       		.uleb128 0xb
 2041 004c 3B       		.uleb128 0x3b
 2042 004d 0B       		.uleb128 0xb
 2043 004e 49       		.uleb128 0x49
 2044 004f 13       		.uleb128 0x13
 2045 0050 38       		.uleb128 0x38
 2046 0051 0B       		.uleb128 0xb
 2047 0052 00       		.byte	0
ARM GAS  /var/folders/qh/xwg3v3kj02qbxczjpdb8lzfr0000gn/T//ccQ3ewSi.s 			page 37


 2048 0053 00       		.byte	0
 2049 0054 07       		.uleb128 0x7
 2050 0055 0D       		.uleb128 0xd
 2051 0056 00       		.byte	0
 2052 0057 03       		.uleb128 0x3
 2053 0058 08       		.uleb128 0x8
 2054 0059 3A       		.uleb128 0x3a
 2055 005a 0B       		.uleb128 0xb
 2056 005b 3B       		.uleb128 0x3b
 2057 005c 0B       		.uleb128 0xb
 2058 005d 49       		.uleb128 0x49
 2059 005e 13       		.uleb128 0x13
 2060 005f 38       		.uleb128 0x38
 2061 0060 0B       		.uleb128 0xb
 2062 0061 00       		.byte	0
 2063 0062 00       		.byte	0
 2064 0063 08       		.uleb128 0x8
 2065 0064 13       		.uleb128 0x13
 2066 0065 01       		.byte	0x1
 2067 0066 0B       		.uleb128 0xb
 2068 0067 0B       		.uleb128 0xb
 2069 0068 3A       		.uleb128 0x3a
 2070 0069 0B       		.uleb128 0xb
 2071 006a 3B       		.uleb128 0x3b
 2072 006b 0B       		.uleb128 0xb
 2073 006c 01       		.uleb128 0x1
 2074 006d 13       		.uleb128 0x13
 2075 006e 00       		.byte	0
 2076 006f 00       		.byte	0
 2077 0070 09       		.uleb128 0x9
 2078 0071 0F       		.uleb128 0xf
 2079 0072 00       		.byte	0
 2080 0073 0B       		.uleb128 0xb
 2081 0074 0B       		.uleb128 0xb
 2082 0075 49       		.uleb128 0x49
 2083 0076 13       		.uleb128 0x13
 2084 0077 00       		.byte	0
 2085 0078 00       		.byte	0
 2086 0079 0A       		.uleb128 0xa
 2087 007a 0F       		.uleb128 0xf
 2088 007b 00       		.byte	0
 2089 007c 0B       		.uleb128 0xb
 2090 007d 0B       		.uleb128 0xb
 2091 007e 00       		.byte	0
 2092 007f 00       		.byte	0
 2093 0080 0B       		.uleb128 0xb
 2094 0081 15       		.uleb128 0x15
 2095 0082 01       		.byte	0x1
 2096 0083 27       		.uleb128 0x27
 2097 0084 19       		.uleb128 0x19
 2098 0085 01       		.uleb128 0x1
 2099 0086 13       		.uleb128 0x13
 2100 0087 00       		.byte	0
 2101 0088 00       		.byte	0
 2102 0089 0C       		.uleb128 0xc
 2103 008a 05       		.uleb128 0x5
 2104 008b 00       		.byte	0
ARM GAS  /var/folders/qh/xwg3v3kj02qbxczjpdb8lzfr0000gn/T//ccQ3ewSi.s 			page 38


 2105 008c 49       		.uleb128 0x49
 2106 008d 13       		.uleb128 0x13
 2107 008e 00       		.byte	0
 2108 008f 00       		.byte	0
 2109 0090 0D       		.uleb128 0xd
 2110 0091 35       		.uleb128 0x35
 2111 0092 00       		.byte	0
 2112 0093 49       		.uleb128 0x49
 2113 0094 13       		.uleb128 0x13
 2114 0095 00       		.byte	0
 2115 0096 00       		.byte	0
 2116 0097 0E       		.uleb128 0xe
 2117 0098 17       		.uleb128 0x17
 2118 0099 01       		.byte	0x1
 2119 009a 0B       		.uleb128 0xb
 2120 009b 0B       		.uleb128 0xb
 2121 009c 3A       		.uleb128 0x3a
 2122 009d 0B       		.uleb128 0xb
 2123 009e 3B       		.uleb128 0x3b
 2124 009f 0B       		.uleb128 0xb
 2125 00a0 01       		.uleb128 0x1
 2126 00a1 13       		.uleb128 0x13
 2127 00a2 00       		.byte	0
 2128 00a3 00       		.byte	0
 2129 00a4 0F       		.uleb128 0xf
 2130 00a5 0D       		.uleb128 0xd
 2131 00a6 00       		.byte	0
 2132 00a7 03       		.uleb128 0x3
 2133 00a8 0E       		.uleb128 0xe
 2134 00a9 3A       		.uleb128 0x3a
 2135 00aa 0B       		.uleb128 0xb
 2136 00ab 3B       		.uleb128 0x3b
 2137 00ac 0B       		.uleb128 0xb
 2138 00ad 49       		.uleb128 0x49
 2139 00ae 13       		.uleb128 0x13
 2140 00af 00       		.byte	0
 2141 00b0 00       		.byte	0
 2142 00b1 10       		.uleb128 0x10
 2143 00b2 26       		.uleb128 0x26
 2144 00b3 00       		.byte	0
 2145 00b4 49       		.uleb128 0x49
 2146 00b5 13       		.uleb128 0x13
 2147 00b6 00       		.byte	0
 2148 00b7 00       		.byte	0
 2149 00b8 11       		.uleb128 0x11
 2150 00b9 15       		.uleb128 0x15
 2151 00ba 01       		.byte	0x1
 2152 00bb 27       		.uleb128 0x27
 2153 00bc 19       		.uleb128 0x19
 2154 00bd 49       		.uleb128 0x49
 2155 00be 13       		.uleb128 0x13
 2156 00bf 01       		.uleb128 0x1
 2157 00c0 13       		.uleb128 0x13
 2158 00c1 00       		.byte	0
 2159 00c2 00       		.byte	0
 2160 00c3 12       		.uleb128 0x12
 2161 00c4 2E       		.uleb128 0x2e
ARM GAS  /var/folders/qh/xwg3v3kj02qbxczjpdb8lzfr0000gn/T//ccQ3ewSi.s 			page 39


 2162 00c5 01       		.byte	0x1
 2163 00c6 3F       		.uleb128 0x3f
 2164 00c7 19       		.uleb128 0x19
 2165 00c8 03       		.uleb128 0x3
 2166 00c9 0E       		.uleb128 0xe
 2167 00ca 3A       		.uleb128 0x3a
 2168 00cb 0B       		.uleb128 0xb
 2169 00cc 3B       		.uleb128 0x3b
 2170 00cd 0B       		.uleb128 0xb
 2171 00ce 27       		.uleb128 0x27
 2172 00cf 19       		.uleb128 0x19
 2173 00d0 49       		.uleb128 0x49
 2174 00d1 13       		.uleb128 0x13
 2175 00d2 20       		.uleb128 0x20
 2176 00d3 0B       		.uleb128 0xb
 2177 00d4 01       		.uleb128 0x1
 2178 00d5 13       		.uleb128 0x13
 2179 00d6 00       		.byte	0
 2180 00d7 00       		.byte	0
 2181 00d8 13       		.uleb128 0x13
 2182 00d9 05       		.uleb128 0x5
 2183 00da 00       		.byte	0
 2184 00db 03       		.uleb128 0x3
 2185 00dc 08       		.uleb128 0x8
 2186 00dd 3A       		.uleb128 0x3a
 2187 00de 0B       		.uleb128 0xb
 2188 00df 3B       		.uleb128 0x3b
 2189 00e0 0B       		.uleb128 0xb
 2190 00e1 49       		.uleb128 0x49
 2191 00e2 13       		.uleb128 0x13
 2192 00e3 00       		.byte	0
 2193 00e4 00       		.byte	0
 2194 00e5 14       		.uleb128 0x14
 2195 00e6 05       		.uleb128 0x5
 2196 00e7 00       		.byte	0
 2197 00e8 03       		.uleb128 0x3
 2198 00e9 0E       		.uleb128 0xe
 2199 00ea 3A       		.uleb128 0x3a
 2200 00eb 0B       		.uleb128 0xb
 2201 00ec 3B       		.uleb128 0x3b
 2202 00ed 0B       		.uleb128 0xb
 2203 00ee 49       		.uleb128 0x49
 2204 00ef 13       		.uleb128 0x13
 2205 00f0 00       		.byte	0
 2206 00f1 00       		.byte	0
 2207 00f2 15       		.uleb128 0x15
 2208 00f3 34       		.uleb128 0x34
 2209 00f4 00       		.byte	0
 2210 00f5 03       		.uleb128 0x3
 2211 00f6 08       		.uleb128 0x8
 2212 00f7 3A       		.uleb128 0x3a
 2213 00f8 0B       		.uleb128 0xb
 2214 00f9 3B       		.uleb128 0x3b
 2215 00fa 0B       		.uleb128 0xb
 2216 00fb 49       		.uleb128 0x49
 2217 00fc 13       		.uleb128 0x13
 2218 00fd 00       		.byte	0
ARM GAS  /var/folders/qh/xwg3v3kj02qbxczjpdb8lzfr0000gn/T//ccQ3ewSi.s 			page 40


 2219 00fe 00       		.byte	0
 2220 00ff 16       		.uleb128 0x16
 2221 0100 2E       		.uleb128 0x2e
 2222 0101 01       		.byte	0x1
 2223 0102 03       		.uleb128 0x3
 2224 0103 0E       		.uleb128 0xe
 2225 0104 3A       		.uleb128 0x3a
 2226 0105 0B       		.uleb128 0xb
 2227 0106 3B       		.uleb128 0x3b
 2228 0107 0B       		.uleb128 0xb
 2229 0108 27       		.uleb128 0x27
 2230 0109 19       		.uleb128 0x19
 2231 010a 49       		.uleb128 0x49
 2232 010b 13       		.uleb128 0x13
 2233 010c 20       		.uleb128 0x20
 2234 010d 0B       		.uleb128 0xb
 2235 010e 01       		.uleb128 0x1
 2236 010f 13       		.uleb128 0x13
 2237 0110 00       		.byte	0
 2238 0111 00       		.byte	0
 2239 0112 17       		.uleb128 0x17
 2240 0113 2E       		.uleb128 0x2e
 2241 0114 01       		.byte	0x1
 2242 0115 03       		.uleb128 0x3
 2243 0116 0E       		.uleb128 0xe
 2244 0117 3A       		.uleb128 0x3a
 2245 0118 0B       		.uleb128 0xb
 2246 0119 3B       		.uleb128 0x3b
 2247 011a 0B       		.uleb128 0xb
 2248 011b 27       		.uleb128 0x27
 2249 011c 19       		.uleb128 0x19
 2250 011d 20       		.uleb128 0x20
 2251 011e 0B       		.uleb128 0xb
 2252 011f 01       		.uleb128 0x1
 2253 0120 13       		.uleb128 0x13
 2254 0121 00       		.byte	0
 2255 0122 00       		.byte	0
 2256 0123 18       		.uleb128 0x18
 2257 0124 2E       		.uleb128 0x2e
 2258 0125 01       		.byte	0x1
 2259 0126 31       		.uleb128 0x31
 2260 0127 13       		.uleb128 0x13
 2261 0128 11       		.uleb128 0x11
 2262 0129 01       		.uleb128 0x1
 2263 012a 12       		.uleb128 0x12
 2264 012b 06       		.uleb128 0x6
 2265 012c 40       		.uleb128 0x40
 2266 012d 18       		.uleb128 0x18
 2267 012e 9742     		.uleb128 0x2117
 2268 0130 19       		.uleb128 0x19
 2269 0131 01       		.uleb128 0x1
 2270 0132 13       		.uleb128 0x13
 2271 0133 00       		.byte	0
 2272 0134 00       		.byte	0
 2273 0135 19       		.uleb128 0x19
 2274 0136 05       		.uleb128 0x5
 2275 0137 00       		.byte	0
ARM GAS  /var/folders/qh/xwg3v3kj02qbxczjpdb8lzfr0000gn/T//ccQ3ewSi.s 			page 41


 2276 0138 31       		.uleb128 0x31
 2277 0139 13       		.uleb128 0x13
 2278 013a 02       		.uleb128 0x2
 2279 013b 18       		.uleb128 0x18
 2280 013c 00       		.byte	0
 2281 013d 00       		.byte	0
 2282 013e 1A       		.uleb128 0x1a
 2283 013f 05       		.uleb128 0x5
 2284 0140 00       		.byte	0
 2285 0141 31       		.uleb128 0x31
 2286 0142 13       		.uleb128 0x13
 2287 0143 02       		.uleb128 0x2
 2288 0144 17       		.uleb128 0x17
 2289 0145 00       		.byte	0
 2290 0146 00       		.byte	0
 2291 0147 1B       		.uleb128 0x1b
 2292 0148 34       		.uleb128 0x34
 2293 0149 00       		.byte	0
 2294 014a 31       		.uleb128 0x31
 2295 014b 13       		.uleb128 0x13
 2296 014c 02       		.uleb128 0x2
 2297 014d 18       		.uleb128 0x18
 2298 014e 00       		.byte	0
 2299 014f 00       		.byte	0
 2300 0150 1C       		.uleb128 0x1c
 2301 0151 1D       		.uleb128 0x1d
 2302 0152 01       		.byte	0x1
 2303 0153 31       		.uleb128 0x31
 2304 0154 13       		.uleb128 0x13
 2305 0155 11       		.uleb128 0x11
 2306 0156 01       		.uleb128 0x1
 2307 0157 12       		.uleb128 0x12
 2308 0158 06       		.uleb128 0x6
 2309 0159 58       		.uleb128 0x58
 2310 015a 0B       		.uleb128 0xb
 2311 015b 59       		.uleb128 0x59
 2312 015c 0B       		.uleb128 0xb
 2313 015d 00       		.byte	0
 2314 015e 00       		.byte	0
 2315 015f 1D       		.uleb128 0x1d
 2316 0160 2E       		.uleb128 0x2e
 2317 0161 01       		.byte	0x1
 2318 0162 3F       		.uleb128 0x3f
 2319 0163 19       		.uleb128 0x19
 2320 0164 03       		.uleb128 0x3
 2321 0165 0E       		.uleb128 0xe
 2322 0166 3A       		.uleb128 0x3a
 2323 0167 0B       		.uleb128 0xb
 2324 0168 3B       		.uleb128 0x3b
 2325 0169 0B       		.uleb128 0xb
 2326 016a 27       		.uleb128 0x27
 2327 016b 19       		.uleb128 0x19
 2328 016c 49       		.uleb128 0x49
 2329 016d 13       		.uleb128 0x13
 2330 016e 11       		.uleb128 0x11
 2331 016f 01       		.uleb128 0x1
 2332 0170 12       		.uleb128 0x12
ARM GAS  /var/folders/qh/xwg3v3kj02qbxczjpdb8lzfr0000gn/T//ccQ3ewSi.s 			page 42


 2333 0171 06       		.uleb128 0x6
 2334 0172 40       		.uleb128 0x40
 2335 0173 18       		.uleb128 0x18
 2336 0174 9742     		.uleb128 0x2117
 2337 0176 19       		.uleb128 0x19
 2338 0177 01       		.uleb128 0x1
 2339 0178 13       		.uleb128 0x13
 2340 0179 00       		.byte	0
 2341 017a 00       		.byte	0
 2342 017b 1E       		.uleb128 0x1e
 2343 017c 05       		.uleb128 0x5
 2344 017d 00       		.byte	0
 2345 017e 03       		.uleb128 0x3
 2346 017f 08       		.uleb128 0x8
 2347 0180 3A       		.uleb128 0x3a
 2348 0181 0B       		.uleb128 0xb
 2349 0182 3B       		.uleb128 0x3b
 2350 0183 0B       		.uleb128 0xb
 2351 0184 49       		.uleb128 0x49
 2352 0185 13       		.uleb128 0x13
 2353 0186 02       		.uleb128 0x2
 2354 0187 17       		.uleb128 0x17
 2355 0188 00       		.byte	0
 2356 0189 00       		.byte	0
 2357 018a 1F       		.uleb128 0x1f
 2358 018b 05       		.uleb128 0x5
 2359 018c 00       		.byte	0
 2360 018d 03       		.uleb128 0x3
 2361 018e 0E       		.uleb128 0xe
 2362 018f 3A       		.uleb128 0x3a
 2363 0190 0B       		.uleb128 0xb
 2364 0191 3B       		.uleb128 0x3b
 2365 0192 0B       		.uleb128 0xb
 2366 0193 49       		.uleb128 0x49
 2367 0194 13       		.uleb128 0x13
 2368 0195 02       		.uleb128 0x2
 2369 0196 17       		.uleb128 0x17
 2370 0197 00       		.byte	0
 2371 0198 00       		.byte	0
 2372 0199 20       		.uleb128 0x20
 2373 019a 05       		.uleb128 0x5
 2374 019b 00       		.byte	0
 2375 019c 03       		.uleb128 0x3
 2376 019d 08       		.uleb128 0x8
 2377 019e 3A       		.uleb128 0x3a
 2378 019f 0B       		.uleb128 0xb
 2379 01a0 3B       		.uleb128 0x3b
 2380 01a1 0B       		.uleb128 0xb
 2381 01a2 49       		.uleb128 0x49
 2382 01a3 13       		.uleb128 0x13
 2383 01a4 02       		.uleb128 0x2
 2384 01a5 18       		.uleb128 0x18
 2385 01a6 00       		.byte	0
 2386 01a7 00       		.byte	0
 2387 01a8 21       		.uleb128 0x21
 2388 01a9 1D       		.uleb128 0x1d
 2389 01aa 01       		.byte	0x1
ARM GAS  /var/folders/qh/xwg3v3kj02qbxczjpdb8lzfr0000gn/T//ccQ3ewSi.s 			page 43


 2390 01ab 31       		.uleb128 0x31
 2391 01ac 13       		.uleb128 0x13
 2392 01ad 11       		.uleb128 0x11
 2393 01ae 01       		.uleb128 0x1
 2394 01af 12       		.uleb128 0x12
 2395 01b0 06       		.uleb128 0x6
 2396 01b1 58       		.uleb128 0x58
 2397 01b2 0B       		.uleb128 0xb
 2398 01b3 59       		.uleb128 0x59
 2399 01b4 0B       		.uleb128 0xb
 2400 01b5 01       		.uleb128 0x1
 2401 01b6 13       		.uleb128 0x13
 2402 01b7 00       		.byte	0
 2403 01b8 00       		.byte	0
 2404 01b9 22       		.uleb128 0x22
 2405 01ba 0B       		.uleb128 0xb
 2406 01bb 01       		.byte	0x1
 2407 01bc 11       		.uleb128 0x11
 2408 01bd 01       		.uleb128 0x1
 2409 01be 12       		.uleb128 0x12
 2410 01bf 06       		.uleb128 0x6
 2411 01c0 00       		.byte	0
 2412 01c1 00       		.byte	0
 2413 01c2 23       		.uleb128 0x23
 2414 01c3 34       		.uleb128 0x34
 2415 01c4 00       		.byte	0
 2416 01c5 31       		.uleb128 0x31
 2417 01c6 13       		.uleb128 0x13
 2418 01c7 02       		.uleb128 0x2
 2419 01c8 17       		.uleb128 0x17
 2420 01c9 00       		.byte	0
 2421 01ca 00       		.byte	0
 2422 01cb 24       		.uleb128 0x24
 2423 01cc 898201   		.uleb128 0x4109
 2424 01cf 01       		.byte	0x1
 2425 01d0 11       		.uleb128 0x11
 2426 01d1 01       		.uleb128 0x1
 2427 01d2 31       		.uleb128 0x31
 2428 01d3 13       		.uleb128 0x13
 2429 01d4 00       		.byte	0
 2430 01d5 00       		.byte	0
 2431 01d6 25       		.uleb128 0x25
 2432 01d7 8A8201   		.uleb128 0x410a
 2433 01da 00       		.byte	0
 2434 01db 02       		.uleb128 0x2
 2435 01dc 18       		.uleb128 0x18
 2436 01dd 9142     		.uleb128 0x2111
 2437 01df 18       		.uleb128 0x18
 2438 01e0 00       		.byte	0
 2439 01e1 00       		.byte	0
 2440 01e2 26       		.uleb128 0x26
 2441 01e3 34       		.uleb128 0x34
 2442 01e4 00       		.byte	0
 2443 01e5 03       		.uleb128 0x3
 2444 01e6 0E       		.uleb128 0xe
 2445 01e7 3A       		.uleb128 0x3a
 2446 01e8 0B       		.uleb128 0xb
ARM GAS  /var/folders/qh/xwg3v3kj02qbxczjpdb8lzfr0000gn/T//ccQ3ewSi.s 			page 44


 2447 01e9 3B       		.uleb128 0x3b
 2448 01ea 0B       		.uleb128 0xb
 2449 01eb 49       		.uleb128 0x49
 2450 01ec 13       		.uleb128 0x13
 2451 01ed 02       		.uleb128 0x2
 2452 01ee 17       		.uleb128 0x17
 2453 01ef 00       		.byte	0
 2454 01f0 00       		.byte	0
 2455 01f1 27       		.uleb128 0x27
 2456 01f2 898201   		.uleb128 0x4109
 2457 01f5 00       		.byte	0
 2458 01f6 11       		.uleb128 0x11
 2459 01f7 01       		.uleb128 0x1
 2460 01f8 31       		.uleb128 0x31
 2461 01f9 13       		.uleb128 0x13
 2462 01fa 00       		.byte	0
 2463 01fb 00       		.byte	0
 2464 01fc 28       		.uleb128 0x28
 2465 01fd 2E       		.uleb128 0x2e
 2466 01fe 01       		.byte	0x1
 2467 01ff 3F       		.uleb128 0x3f
 2468 0200 19       		.uleb128 0x19
 2469 0201 03       		.uleb128 0x3
 2470 0202 0E       		.uleb128 0xe
 2471 0203 3A       		.uleb128 0x3a
 2472 0204 0B       		.uleb128 0xb
 2473 0205 3B       		.uleb128 0x3b
 2474 0206 05       		.uleb128 0x5
 2475 0207 27       		.uleb128 0x27
 2476 0208 19       		.uleb128 0x19
 2477 0209 11       		.uleb128 0x11
 2478 020a 01       		.uleb128 0x1
 2479 020b 12       		.uleb128 0x12
 2480 020c 06       		.uleb128 0x6
 2481 020d 40       		.uleb128 0x40
 2482 020e 18       		.uleb128 0x18
 2483 020f 9742     		.uleb128 0x2117
 2484 0211 19       		.uleb128 0x19
 2485 0212 01       		.uleb128 0x1
 2486 0213 13       		.uleb128 0x13
 2487 0214 00       		.byte	0
 2488 0215 00       		.byte	0
 2489 0216 29       		.uleb128 0x29
 2490 0217 05       		.uleb128 0x5
 2491 0218 00       		.byte	0
 2492 0219 03       		.uleb128 0x3
 2493 021a 08       		.uleb128 0x8
 2494 021b 3A       		.uleb128 0x3a
 2495 021c 0B       		.uleb128 0xb
 2496 021d 3B       		.uleb128 0x3b
 2497 021e 05       		.uleb128 0x5
 2498 021f 49       		.uleb128 0x49
 2499 0220 13       		.uleb128 0x13
 2500 0221 02       		.uleb128 0x2
 2501 0222 18       		.uleb128 0x18
 2502 0223 00       		.byte	0
 2503 0224 00       		.byte	0
ARM GAS  /var/folders/qh/xwg3v3kj02qbxczjpdb8lzfr0000gn/T//ccQ3ewSi.s 			page 45


 2504 0225 2A       		.uleb128 0x2a
 2505 0226 05       		.uleb128 0x5
 2506 0227 00       		.byte	0
 2507 0228 03       		.uleb128 0x3
 2508 0229 0E       		.uleb128 0xe
 2509 022a 3A       		.uleb128 0x3a
 2510 022b 0B       		.uleb128 0xb
 2511 022c 3B       		.uleb128 0x3b
 2512 022d 05       		.uleb128 0x5
 2513 022e 49       		.uleb128 0x49
 2514 022f 13       		.uleb128 0x13
 2515 0230 02       		.uleb128 0x2
 2516 0231 17       		.uleb128 0x17
 2517 0232 00       		.byte	0
 2518 0233 00       		.byte	0
 2519 0234 2B       		.uleb128 0x2b
 2520 0235 05       		.uleb128 0x5
 2521 0236 00       		.byte	0
 2522 0237 03       		.uleb128 0x3
 2523 0238 08       		.uleb128 0x8
 2524 0239 3A       		.uleb128 0x3a
 2525 023a 0B       		.uleb128 0xb
 2526 023b 3B       		.uleb128 0x3b
 2527 023c 05       		.uleb128 0x5
 2528 023d 49       		.uleb128 0x49
 2529 023e 13       		.uleb128 0x13
 2530 023f 02       		.uleb128 0x2
 2531 0240 17       		.uleb128 0x17
 2532 0241 00       		.byte	0
 2533 0242 00       		.byte	0
 2534 0243 2C       		.uleb128 0x2c
 2535 0244 34       		.uleb128 0x34
 2536 0245 00       		.byte	0
 2537 0246 03       		.uleb128 0x3
 2538 0247 08       		.uleb128 0x8
 2539 0248 3A       		.uleb128 0x3a
 2540 0249 0B       		.uleb128 0xb
 2541 024a 3B       		.uleb128 0x3b
 2542 024b 05       		.uleb128 0x5
 2543 024c 49       		.uleb128 0x49
 2544 024d 13       		.uleb128 0x13
 2545 024e 02       		.uleb128 0x2
 2546 024f 17       		.uleb128 0x17
 2547 0250 00       		.byte	0
 2548 0251 00       		.byte	0
 2549 0252 2D       		.uleb128 0x2d
 2550 0253 1D       		.uleb128 0x1d
 2551 0254 01       		.byte	0x1
 2552 0255 31       		.uleb128 0x31
 2553 0256 13       		.uleb128 0x13
 2554 0257 11       		.uleb128 0x11
 2555 0258 01       		.uleb128 0x1
 2556 0259 12       		.uleb128 0x12
 2557 025a 06       		.uleb128 0x6
 2558 025b 58       		.uleb128 0x58
 2559 025c 0B       		.uleb128 0xb
 2560 025d 59       		.uleb128 0x59
ARM GAS  /var/folders/qh/xwg3v3kj02qbxczjpdb8lzfr0000gn/T//ccQ3ewSi.s 			page 46


 2561 025e 05       		.uleb128 0x5
 2562 025f 01       		.uleb128 0x1
 2563 0260 13       		.uleb128 0x13
 2564 0261 00       		.byte	0
 2565 0262 00       		.byte	0
 2566 0263 2E       		.uleb128 0x2e
 2567 0264 2E       		.uleb128 0x2e
 2568 0265 01       		.byte	0x1
 2569 0266 3F       		.uleb128 0x3f
 2570 0267 19       		.uleb128 0x19
 2571 0268 03       		.uleb128 0x3
 2572 0269 0E       		.uleb128 0xe
 2573 026a 3A       		.uleb128 0x3a
 2574 026b 0B       		.uleb128 0xb
 2575 026c 3B       		.uleb128 0x3b
 2576 026d 05       		.uleb128 0x5
 2577 026e 27       		.uleb128 0x27
 2578 026f 19       		.uleb128 0x19
 2579 0270 49       		.uleb128 0x49
 2580 0271 13       		.uleb128 0x13
 2581 0272 11       		.uleb128 0x11
 2582 0273 01       		.uleb128 0x1
 2583 0274 12       		.uleb128 0x12
 2584 0275 06       		.uleb128 0x6
 2585 0276 40       		.uleb128 0x40
 2586 0277 18       		.uleb128 0x18
 2587 0278 9742     		.uleb128 0x2117
 2588 027a 19       		.uleb128 0x19
 2589 027b 01       		.uleb128 0x1
 2590 027c 13       		.uleb128 0x13
 2591 027d 00       		.byte	0
 2592 027e 00       		.byte	0
 2593 027f 2F       		.uleb128 0x2f
 2594 0280 1D       		.uleb128 0x1d
 2595 0281 01       		.byte	0x1
 2596 0282 31       		.uleb128 0x31
 2597 0283 13       		.uleb128 0x13
 2598 0284 52       		.uleb128 0x52
 2599 0285 01       		.uleb128 0x1
 2600 0286 55       		.uleb128 0x55
 2601 0287 17       		.uleb128 0x17
 2602 0288 58       		.uleb128 0x58
 2603 0289 0B       		.uleb128 0xb
 2604 028a 59       		.uleb128 0x59
 2605 028b 05       		.uleb128 0x5
 2606 028c 01       		.uleb128 0x1
 2607 028d 13       		.uleb128 0x13
 2608 028e 00       		.byte	0
 2609 028f 00       		.byte	0
 2610 0290 30       		.uleb128 0x30
 2611 0291 898201   		.uleb128 0x4109
 2612 0294 01       		.byte	0x1
 2613 0295 11       		.uleb128 0x11
 2614 0296 01       		.uleb128 0x1
 2615 0297 31       		.uleb128 0x31
 2616 0298 13       		.uleb128 0x13
 2617 0299 01       		.uleb128 0x1
ARM GAS  /var/folders/qh/xwg3v3kj02qbxczjpdb8lzfr0000gn/T//ccQ3ewSi.s 			page 47


 2618 029a 13       		.uleb128 0x13
 2619 029b 00       		.byte	0
 2620 029c 00       		.byte	0
 2621 029d 31       		.uleb128 0x31
 2622 029e 34       		.uleb128 0x34
 2623 029f 00       		.byte	0
 2624 02a0 03       		.uleb128 0x3
 2625 02a1 0E       		.uleb128 0xe
 2626 02a2 3A       		.uleb128 0x3a
 2627 02a3 0B       		.uleb128 0xb
 2628 02a4 3B       		.uleb128 0x3b
 2629 02a5 0B       		.uleb128 0xb
 2630 02a6 49       		.uleb128 0x49
 2631 02a7 13       		.uleb128 0x13
 2632 02a8 3F       		.uleb128 0x3f
 2633 02a9 19       		.uleb128 0x19
 2634 02aa 3C       		.uleb128 0x3c
 2635 02ab 19       		.uleb128 0x19
 2636 02ac 00       		.byte	0
 2637 02ad 00       		.byte	0
 2638 02ae 32       		.uleb128 0x32
 2639 02af 2E       		.uleb128 0x2e
 2640 02b0 01       		.byte	0x1
 2641 02b1 3F       		.uleb128 0x3f
 2642 02b2 19       		.uleb128 0x19
 2643 02b3 03       		.uleb128 0x3
 2644 02b4 0E       		.uleb128 0xe
 2645 02b5 3A       		.uleb128 0x3a
 2646 02b6 0B       		.uleb128 0xb
 2647 02b7 3B       		.uleb128 0x3b
 2648 02b8 0B       		.uleb128 0xb
 2649 02b9 27       		.uleb128 0x27
 2650 02ba 19       		.uleb128 0x19
 2651 02bb 3C       		.uleb128 0x3c
 2652 02bc 19       		.uleb128 0x19
 2653 02bd 01       		.uleb128 0x1
 2654 02be 13       		.uleb128 0x13
 2655 02bf 00       		.byte	0
 2656 02c0 00       		.byte	0
 2657 02c1 33       		.uleb128 0x33
 2658 02c2 2E       		.uleb128 0x2e
 2659 02c3 00       		.byte	0
 2660 02c4 3F       		.uleb128 0x3f
 2661 02c5 19       		.uleb128 0x19
 2662 02c6 03       		.uleb128 0x3
 2663 02c7 0E       		.uleb128 0xe
 2664 02c8 3A       		.uleb128 0x3a
 2665 02c9 0B       		.uleb128 0xb
 2666 02ca 3B       		.uleb128 0x3b
 2667 02cb 0B       		.uleb128 0xb
 2668 02cc 27       		.uleb128 0x27
 2669 02cd 19       		.uleb128 0x19
 2670 02ce 3C       		.uleb128 0x3c
 2671 02cf 19       		.uleb128 0x19
 2672 02d0 00       		.byte	0
 2673 02d1 00       		.byte	0
 2674 02d2 34       		.uleb128 0x34
ARM GAS  /var/folders/qh/xwg3v3kj02qbxczjpdb8lzfr0000gn/T//ccQ3ewSi.s 			page 48


 2675 02d3 2E       		.uleb128 0x2e
 2676 02d4 01       		.byte	0x1
 2677 02d5 3F       		.uleb128 0x3f
 2678 02d6 19       		.uleb128 0x19
 2679 02d7 03       		.uleb128 0x3
 2680 02d8 0E       		.uleb128 0xe
 2681 02d9 3A       		.uleb128 0x3a
 2682 02da 0B       		.uleb128 0xb
 2683 02db 3B       		.uleb128 0x3b
 2684 02dc 0B       		.uleb128 0xb
 2685 02dd 27       		.uleb128 0x27
 2686 02de 19       		.uleb128 0x19
 2687 02df 49       		.uleb128 0x49
 2688 02e0 13       		.uleb128 0x13
 2689 02e1 3C       		.uleb128 0x3c
 2690 02e2 19       		.uleb128 0x19
 2691 02e3 01       		.uleb128 0x1
 2692 02e4 13       		.uleb128 0x13
 2693 02e5 00       		.byte	0
 2694 02e6 00       		.byte	0
 2695 02e7 35       		.uleb128 0x35
 2696 02e8 2E       		.uleb128 0x2e
 2697 02e9 01       		.byte	0x1
 2698 02ea 3F       		.uleb128 0x3f
 2699 02eb 19       		.uleb128 0x19
 2700 02ec 03       		.uleb128 0x3
 2701 02ed 0E       		.uleb128 0xe
 2702 02ee 3A       		.uleb128 0x3a
 2703 02ef 0B       		.uleb128 0xb
 2704 02f0 3B       		.uleb128 0x3b
 2705 02f1 0B       		.uleb128 0xb
 2706 02f2 27       		.uleb128 0x27
 2707 02f3 19       		.uleb128 0x19
 2708 02f4 3C       		.uleb128 0x3c
 2709 02f5 19       		.uleb128 0x19
 2710 02f6 00       		.byte	0
 2711 02f7 00       		.byte	0
 2712 02f8 00       		.byte	0
 2713              		.section	.debug_loc,"",%progbits
 2714              	.Ldebug_loc0:
 2715              	.LLST0:
 2716 0000 00000000 		.4byte	.LVL1
 2717 0004 02000000 		.4byte	.LVL2
 2718 0008 0100     		.2byte	0x1
 2719 000a 51       		.byte	0x51
 2720 000b 02000000 		.4byte	.LVL2
 2721 000f 04000000 		.4byte	.LVL3
 2722 0013 0300     		.2byte	0x3
 2723 0015 71       		.byte	0x71
 2724 0016 24       		.sleb128 36
 2725 0017 9F       		.byte	0x9f
 2726 0018 04000000 		.4byte	.LVL3
 2727 001c 50000000 		.4byte	.LFE8
 2728 0020 0400     		.2byte	0x4
 2729 0022 F3       		.byte	0xf3
 2730 0023 01       		.uleb128 0x1
 2731 0024 51       		.byte	0x51
ARM GAS  /var/folders/qh/xwg3v3kj02qbxczjpdb8lzfr0000gn/T//ccQ3ewSi.s 			page 49


 2732 0025 9F       		.byte	0x9f
 2733 0026 00000000 		.4byte	0
 2734 002a 00000000 		.4byte	0
 2735              	.LLST1:
 2736 002e 00000000 		.4byte	.LVL1
 2737 0032 28000000 		.4byte	.LVL7
 2738 0036 0100     		.2byte	0x1
 2739 0038 52       		.byte	0x52
 2740 0039 28000000 		.4byte	.LVL7
 2741 003d 50000000 		.4byte	.LFE8
 2742 0041 0200     		.2byte	0x2
 2743 0043 70       		.byte	0x70
 2744 0044 08       		.sleb128 8
 2745 0045 00000000 		.4byte	0
 2746 0049 00000000 		.4byte	0
 2747              	.LLST2:
 2748 004d 00000000 		.4byte	.LVL1
 2749 0051 0A000000 		.4byte	.LVL4
 2750 0055 0100     		.2byte	0x1
 2751 0057 53       		.byte	0x53
 2752 0058 0A000000 		.4byte	.LVL4
 2753 005c 14000000 		.4byte	.LVL6
 2754 0060 0200     		.2byte	0x2
 2755 0062 71       		.byte	0x71
 2756 0063 10       		.sleb128 16
 2757 0064 14000000 		.4byte	.LVL6
 2758 0068 50000000 		.4byte	.LFE8
 2759 006c 0400     		.2byte	0x4
 2760 006e F3       		.byte	0xf3
 2761 006f 01       		.uleb128 0x1
 2762 0070 53       		.byte	0x53
 2763 0071 9F       		.byte	0x9f
 2764 0072 00000000 		.4byte	0
 2765 0076 00000000 		.4byte	0
 2766              	.LLST3:
 2767 007a 10000000 		.4byte	.LVL5
 2768 007e 28000000 		.4byte	.LVL7
 2769 0082 0100     		.2byte	0x1
 2770 0084 52       		.byte	0x52
 2771 0085 28000000 		.4byte	.LVL7
 2772 0089 50000000 		.4byte	.LFE8
 2773 008d 0200     		.2byte	0x2
 2774 008f 70       		.byte	0x70
 2775 0090 08       		.sleb128 8
 2776 0091 00000000 		.4byte	0
 2777 0095 00000000 		.4byte	0
 2778              	.LLST4:
 2779 0099 00000000 		.4byte	.LVL8
 2780 009d 4F000000 		.4byte	.LVL16-1
 2781 00a1 0100     		.2byte	0x1
 2782 00a3 50       		.byte	0x50
 2783 00a4 4F000000 		.4byte	.LVL16-1
 2784 00a8 54000000 		.4byte	.LVL17
 2785 00ac 0100     		.2byte	0x1
 2786 00ae 54       		.byte	0x54
 2787 00af 54000000 		.4byte	.LVL17
 2788 00b3 60000000 		.4byte	.LFE9
ARM GAS  /var/folders/qh/xwg3v3kj02qbxczjpdb8lzfr0000gn/T//ccQ3ewSi.s 			page 50


 2789 00b7 0100     		.2byte	0x1
 2790 00b9 50       		.byte	0x50
 2791 00ba 00000000 		.4byte	0
 2792 00be 00000000 		.4byte	0
 2793              	.LLST5:
 2794 00c2 00000000 		.4byte	.LVL8
 2795 00c6 08000000 		.4byte	.LVL10
 2796 00ca 0100     		.2byte	0x1
 2797 00cc 51       		.byte	0x51
 2798 00cd 08000000 		.4byte	.LVL10
 2799 00d1 0A000000 		.4byte	.LVL11
 2800 00d5 0300     		.2byte	0x3
 2801 00d7 71       		.byte	0x71
 2802 00d8 24       		.sleb128 36
 2803 00d9 9F       		.byte	0x9f
 2804 00da 0A000000 		.4byte	.LVL11
 2805 00de 60000000 		.4byte	.LFE9
 2806 00e2 0400     		.2byte	0x4
 2807 00e4 F3       		.byte	0xf3
 2808 00e5 01       		.uleb128 0x1
 2809 00e6 51       		.byte	0x51
 2810 00e7 9F       		.byte	0x9f
 2811 00e8 00000000 		.4byte	0
 2812 00ec 00000000 		.4byte	0
 2813              	.LLST6:
 2814 00f0 00000000 		.4byte	.LVL8
 2815 00f4 2E000000 		.4byte	.LVL15
 2816 00f8 0100     		.2byte	0x1
 2817 00fa 52       		.byte	0x52
 2818 00fb 2E000000 		.4byte	.LVL15
 2819 00ff 4F000000 		.4byte	.LVL16-1
 2820 0103 0200     		.2byte	0x2
 2821 0105 70       		.byte	0x70
 2822 0106 08       		.sleb128 8
 2823 0107 4F000000 		.4byte	.LVL16-1
 2824 010b 60000000 		.4byte	.LFE9
 2825 010f 0400     		.2byte	0x4
 2826 0111 F3       		.byte	0xf3
 2827 0112 01       		.uleb128 0x1
 2828 0113 52       		.byte	0x52
 2829 0114 9F       		.byte	0x9f
 2830 0115 00000000 		.4byte	0
 2831 0119 00000000 		.4byte	0
 2832              	.LLST7:
 2833 011d 00000000 		.4byte	.LVL8
 2834 0121 10000000 		.4byte	.LVL12
 2835 0125 0100     		.2byte	0x1
 2836 0127 53       		.byte	0x53
 2837 0128 10000000 		.4byte	.LVL12
 2838 012c 1A000000 		.4byte	.LVL14
 2839 0130 0200     		.2byte	0x2
 2840 0132 71       		.byte	0x71
 2841 0133 10       		.sleb128 16
 2842 0134 1A000000 		.4byte	.LVL14
 2843 0138 60000000 		.4byte	.LFE9
 2844 013c 0400     		.2byte	0x4
 2845 013e F3       		.byte	0xf3
ARM GAS  /var/folders/qh/xwg3v3kj02qbxczjpdb8lzfr0000gn/T//ccQ3ewSi.s 			page 51


 2846 013f 01       		.uleb128 0x1
 2847 0140 53       		.byte	0x53
 2848 0141 9F       		.byte	0x9f
 2849 0142 00000000 		.4byte	0
 2850 0146 00000000 		.4byte	0
 2851              	.LLST8:
 2852 014a 06000000 		.4byte	.LVL9
 2853 014e 10000000 		.4byte	.LVL12
 2854 0152 0100     		.2byte	0x1
 2855 0154 53       		.byte	0x53
 2856 0155 10000000 		.4byte	.LVL12
 2857 0159 1A000000 		.4byte	.LVL14
 2858 015d 0200     		.2byte	0x2
 2859 015f 71       		.byte	0x71
 2860 0160 10       		.sleb128 16
 2861 0161 1A000000 		.4byte	.LVL14
 2862 0165 60000000 		.4byte	.LFE9
 2863 0169 0400     		.2byte	0x4
 2864 016b F3       		.byte	0xf3
 2865 016c 01       		.uleb128 0x1
 2866 016d 53       		.byte	0x53
 2867 016e 9F       		.byte	0x9f
 2868 016f 00000000 		.4byte	0
 2869 0173 00000000 		.4byte	0
 2870              	.LLST9:
 2871 0177 06000000 		.4byte	.LVL9
 2872 017b 2E000000 		.4byte	.LVL15
 2873 017f 0100     		.2byte	0x1
 2874 0181 52       		.byte	0x52
 2875 0182 2E000000 		.4byte	.LVL15
 2876 0186 4F000000 		.4byte	.LVL16-1
 2877 018a 0200     		.2byte	0x2
 2878 018c 70       		.byte	0x70
 2879 018d 08       		.sleb128 8
 2880 018e 4F000000 		.4byte	.LVL16-1
 2881 0192 60000000 		.4byte	.LFE9
 2882 0196 0400     		.2byte	0x4
 2883 0198 F3       		.byte	0xf3
 2884 0199 01       		.uleb128 0x1
 2885 019a 52       		.byte	0x52
 2886 019b 9F       		.byte	0x9f
 2887 019c 00000000 		.4byte	0
 2888 01a0 00000000 		.4byte	0
 2889              	.LLST10:
 2890 01a4 06000000 		.4byte	.LVL9
 2891 01a8 08000000 		.4byte	.LVL10
 2892 01ac 0100     		.2byte	0x1
 2893 01ae 51       		.byte	0x51
 2894 01af 08000000 		.4byte	.LVL10
 2895 01b3 0A000000 		.4byte	.LVL11
 2896 01b7 0300     		.2byte	0x3
 2897 01b9 71       		.byte	0x71
 2898 01ba 24       		.sleb128 36
 2899 01bb 9F       		.byte	0x9f
 2900 01bc 0A000000 		.4byte	.LVL11
 2901 01c0 60000000 		.4byte	.LFE9
 2902 01c4 0400     		.2byte	0x4
ARM GAS  /var/folders/qh/xwg3v3kj02qbxczjpdb8lzfr0000gn/T//ccQ3ewSi.s 			page 52


 2903 01c6 F3       		.byte	0xf3
 2904 01c7 01       		.uleb128 0x1
 2905 01c8 51       		.byte	0x51
 2906 01c9 9F       		.byte	0x9f
 2907 01ca 00000000 		.4byte	0
 2908 01ce 00000000 		.4byte	0
 2909              	.LLST11:
 2910 01d2 06000000 		.4byte	.LVL9
 2911 01d6 4F000000 		.4byte	.LVL16-1
 2912 01da 0100     		.2byte	0x1
 2913 01dc 50       		.byte	0x50
 2914 01dd 4F000000 		.4byte	.LVL16-1
 2915 01e1 54000000 		.4byte	.LVL17
 2916 01e5 0100     		.2byte	0x1
 2917 01e7 54       		.byte	0x54
 2918 01e8 54000000 		.4byte	.LVL17
 2919 01ec 60000000 		.4byte	.LFE9
 2920 01f0 0100     		.2byte	0x1
 2921 01f2 50       		.byte	0x50
 2922 01f3 00000000 		.4byte	0
 2923 01f7 00000000 		.4byte	0
 2924              	.LLST13:
 2925 01fb 16000000 		.4byte	.LVL13
 2926 01ff 2E000000 		.4byte	.LVL15
 2927 0203 0100     		.2byte	0x1
 2928 0205 52       		.byte	0x52
 2929 0206 2E000000 		.4byte	.LVL15
 2930 020a 4F000000 		.4byte	.LVL16-1
 2931 020e 0200     		.2byte	0x2
 2932 0210 70       		.byte	0x70
 2933 0211 08       		.sleb128 8
 2934 0212 4F000000 		.4byte	.LVL16-1
 2935 0216 60000000 		.4byte	.LFE9
 2936 021a 0400     		.2byte	0x4
 2937 021c F3       		.byte	0xf3
 2938 021d 01       		.uleb128 0x1
 2939 021e 52       		.byte	0x52
 2940 021f 9F       		.byte	0x9f
 2941 0220 00000000 		.4byte	0
 2942 0224 00000000 		.4byte	0
 2943              	.LLST14:
 2944 0228 16000000 		.4byte	.LVL13
 2945 022c 4F000000 		.4byte	.LVL16-1
 2946 0230 0100     		.2byte	0x1
 2947 0232 50       		.byte	0x50
 2948 0233 4F000000 		.4byte	.LVL16-1
 2949 0237 54000000 		.4byte	.LVL17
 2950 023b 0100     		.2byte	0x1
 2951 023d 54       		.byte	0x54
 2952 023e 54000000 		.4byte	.LVL17
 2953 0242 60000000 		.4byte	.LFE9
 2954 0246 0100     		.2byte	0x1
 2955 0248 50       		.byte	0x50
 2956 0249 00000000 		.4byte	0
 2957 024d 00000000 		.4byte	0
 2958              	.LLST15:
 2959 0251 00000000 		.4byte	.LVL18
ARM GAS  /var/folders/qh/xwg3v3kj02qbxczjpdb8lzfr0000gn/T//ccQ3ewSi.s 			page 53


 2960 0255 1B000000 		.4byte	.LVL20-1
 2961 0259 0100     		.2byte	0x1
 2962 025b 50       		.byte	0x50
 2963 025c 1B000000 		.4byte	.LVL20-1
 2964 0260 28000000 		.4byte	.LFE10
 2965 0264 0400     		.2byte	0x4
 2966 0266 F3       		.byte	0xf3
 2967 0267 01       		.uleb128 0x1
 2968 0268 50       		.byte	0x50
 2969 0269 9F       		.byte	0x9f
 2970 026a 00000000 		.4byte	0
 2971 026e 00000000 		.4byte	0
 2972              	.LLST16:
 2973 0272 0A000000 		.4byte	.LVL19
 2974 0276 20000000 		.4byte	.LVL21
 2975 027a 0100     		.2byte	0x1
 2976 027c 54       		.byte	0x54
 2977 027d 20000000 		.4byte	.LVL21
 2978 0281 28000000 		.4byte	.LFE10
 2979 0285 0100     		.2byte	0x1
 2980 0287 50       		.byte	0x50
 2981 0288 00000000 		.4byte	0
 2982 028c 00000000 		.4byte	0
 2983              	.LLST17:
 2984 0290 00000000 		.4byte	.LVL22
 2985 0294 0B000000 		.4byte	.LVL23-1
 2986 0298 0100     		.2byte	0x1
 2987 029a 50       		.byte	0x50
 2988 029b 0B000000 		.4byte	.LVL23-1
 2989 029f 10000000 		.4byte	.LVL24
 2990 02a3 0100     		.2byte	0x1
 2991 02a5 54       		.byte	0x54
 2992 02a6 10000000 		.4byte	.LVL24
 2993 02aa 12000000 		.4byte	.LFE11
 2994 02ae 0100     		.2byte	0x1
 2995 02b0 50       		.byte	0x50
 2996 02b1 00000000 		.4byte	0
 2997 02b5 00000000 		.4byte	0
 2998              	.LLST18:
 2999 02b9 00000000 		.4byte	.LVL26
 3000 02bd 08000000 		.4byte	.LVL27
 3001 02c1 0100     		.2byte	0x1
 3002 02c3 50       		.byte	0x50
 3003 02c4 08000000 		.4byte	.LVL27
 3004 02c8 0B000000 		.4byte	.LVL28-1
 3005 02cc 0100     		.2byte	0x1
 3006 02ce 51       		.byte	0x51
 3007 02cf 0B000000 		.4byte	.LVL28-1
 3008 02d3 10000000 		.4byte	.LFE13
 3009 02d7 0400     		.2byte	0x4
 3010 02d9 F3       		.byte	0xf3
 3011 02da 01       		.uleb128 0x1
 3012 02db 50       		.byte	0x50
 3013 02dc 9F       		.byte	0x9f
 3014 02dd 00000000 		.4byte	0
 3015 02e1 00000000 		.4byte	0
 3016              	.LLST19:
ARM GAS  /var/folders/qh/xwg3v3kj02qbxczjpdb8lzfr0000gn/T//ccQ3ewSi.s 			page 54


 3017 02e5 00000000 		.4byte	.LVL29
 3018 02e9 0A000000 		.4byte	.LVL30
 3019 02ed 0100     		.2byte	0x1
 3020 02ef 50       		.byte	0x50
 3021 02f0 0A000000 		.4byte	.LVL30
 3022 02f4 11000000 		.4byte	.LVL31-1
 3023 02f8 0100     		.2byte	0x1
 3024 02fa 51       		.byte	0x51
 3025 02fb 00000000 		.4byte	0
 3026 02ff 00000000 		.4byte	0
 3027              	.LLST20:
 3028 0303 00000000 		.4byte	.LVL33
 3029 0307 0C000000 		.4byte	.LVL35
 3030 030b 0100     		.2byte	0x1
 3031 030d 50       		.byte	0x50
 3032 030e 0C000000 		.4byte	.LVL35
 3033 0312 12000000 		.4byte	.LVL36
 3034 0316 0200     		.2byte	0x2
 3035 0318 74       		.byte	0x74
 3036 0319 24       		.sleb128 36
 3037 031a 12000000 		.4byte	.LVL36
 3038 031e 3C000000 		.4byte	.LFE17
 3039 0322 0400     		.2byte	0x4
 3040 0324 F3       		.byte	0xf3
 3041 0325 01       		.uleb128 0x1
 3042 0326 50       		.byte	0x50
 3043 0327 9F       		.byte	0x9f
 3044 0328 00000000 		.4byte	0
 3045 032c 00000000 		.4byte	0
 3046              	.LLST21:
 3047 0330 06000000 		.4byte	.LVL34
 3048 0334 36000000 		.4byte	.LVL40
 3049 0338 0100     		.2byte	0x1
 3050 033a 54       		.byte	0x54
 3051 033b 36000000 		.4byte	.LVL40
 3052 033f 36000000 		.4byte	.LVL41
 3053 0343 0300     		.2byte	0x3
 3054 0345 75       		.byte	0x75
 3055 0346 58       		.sleb128 -40
 3056 0347 9F       		.byte	0x9f
 3057 0348 00000000 		.4byte	0
 3058 034c 00000000 		.4byte	0
 3059              	.LLST22:
 3060 0350 12000000 		.4byte	.LVL36
 3061 0354 20000000 		.4byte	.LVL38
 3062 0358 0300     		.2byte	0x3
 3063 035a 74       		.byte	0x74
 3064 035b 28       		.sleb128 40
 3065 035c 9F       		.byte	0x9f
 3066 035d 00000000 		.4byte	0
 3067 0361 00000000 		.4byte	0
 3068              	.LLST23:
 3069 0365 12000000 		.4byte	.LVL36
 3070 0369 19000000 		.4byte	.LVL37-1
 3071 036d 0100     		.2byte	0x1
 3072 036f 50       		.byte	0x50
 3073 0370 00000000 		.4byte	0
ARM GAS  /var/folders/qh/xwg3v3kj02qbxczjpdb8lzfr0000gn/T//ccQ3ewSi.s 			page 55


 3074 0374 00000000 		.4byte	0
 3075              	.LLST24:
 3076 0378 00000000 		.4byte	.LVL42
 3077 037c 07000000 		.4byte	.LVL43-1
 3078 0380 0100     		.2byte	0x1
 3079 0382 50       		.byte	0x50
 3080 0383 07000000 		.4byte	.LVL43-1
 3081 0387 0A000000 		.4byte	.LFE16
 3082 038b 0400     		.2byte	0x4
 3083 038d F3       		.byte	0xf3
 3084 038e 01       		.uleb128 0x1
 3085 038f 50       		.byte	0x50
 3086 0390 9F       		.byte	0x9f
 3087 0391 00000000 		.4byte	0
 3088 0395 00000000 		.4byte	0
 3089              	.LLST25:
 3090 0399 00000000 		.4byte	.LVL44
 3091 039d 18000000 		.4byte	.LVL46
 3092 03a1 0100     		.2byte	0x1
 3093 03a3 50       		.byte	0x50
 3094 03a4 18000000 		.4byte	.LVL46
 3095 03a8 28000000 		.4byte	.LVL50
 3096 03ac 0100     		.2byte	0x1
 3097 03ae 54       		.byte	0x54
 3098 03af 28000000 		.4byte	.LVL50
 3099 03b3 30000000 		.4byte	.LFE18
 3100 03b7 0400     		.2byte	0x4
 3101 03b9 F3       		.byte	0xf3
 3102 03ba 01       		.uleb128 0x1
 3103 03bb 50       		.byte	0x50
 3104 03bc 9F       		.byte	0x9f
 3105 03bd 00000000 		.4byte	0
 3106 03c1 00000000 		.4byte	0
 3107              	.LLST26:
 3108 03c5 1E000000 		.4byte	.LVL48
 3109 03c9 28000000 		.4byte	.LVL51
 3110 03cd 0100     		.2byte	0x1
 3111 03cf 55       		.byte	0x55
 3112 03d0 28000000 		.4byte	.LVL51
 3113 03d4 30000000 		.4byte	.LFE18
 3114 03d8 0100     		.2byte	0x1
 3115 03da 50       		.byte	0x50
 3116 03db 00000000 		.4byte	0
 3117 03df 00000000 		.4byte	0
 3118              	.LLST27:
 3119 03e3 12000000 		.4byte	.LVL45
 3120 03e7 18000000 		.4byte	.LVL46
 3121 03eb 0300     		.2byte	0x3
 3122 03ed 70       		.byte	0x70
 3123 03ee 28       		.sleb128 40
 3124 03ef 9F       		.byte	0x9f
 3125 03f0 18000000 		.4byte	.LVL46
 3126 03f4 1C000000 		.4byte	.LVL47
 3127 03f8 0300     		.2byte	0x3
 3128 03fa 74       		.byte	0x74
 3129 03fb 28       		.sleb128 40
 3130 03fc 9F       		.byte	0x9f
ARM GAS  /var/folders/qh/xwg3v3kj02qbxczjpdb8lzfr0000gn/T//ccQ3ewSi.s 			page 56


 3131 03fd 00000000 		.4byte	0
 3132 0401 00000000 		.4byte	0
 3133              	.LLST28:
 3134 0405 12000000 		.4byte	.LVL45
 3135 0409 1B000000 		.4byte	.LVL47-1
 3136 040d 0100     		.2byte	0x1
 3137 040f 53       		.byte	0x53
 3138 0410 00000000 		.4byte	0
 3139 0414 00000000 		.4byte	0
 3140              		.section	.debug_aranges,"",%progbits
 3141 0000 74000000 		.4byte	0x74
 3142 0004 0200     		.2byte	0x2
 3143 0006 00000000 		.4byte	.Ldebug_info0
 3144 000a 04       		.byte	0x4
 3145 000b 00       		.byte	0
 3146 000c 0000     		.2byte	0
 3147 000e 0000     		.2byte	0
 3148 0010 00000000 		.4byte	.LFB7
 3149 0014 3C000000 		.4byte	.LFE7-.LFB7
 3150 0018 00000000 		.4byte	.LFB8
 3151 001c 50000000 		.4byte	.LFE8-.LFB8
 3152 0020 00000000 		.4byte	.LFB9
 3153 0024 60000000 		.4byte	.LFE9-.LFB9
 3154 0028 00000000 		.4byte	.LFB10
 3155 002c 28000000 		.4byte	.LFE10-.LFB10
 3156 0030 00000000 		.4byte	.LFB11
 3157 0034 12000000 		.4byte	.LFE11-.LFB11
 3158 0038 00000000 		.4byte	.LFB12
 3159 003c 0E000000 		.4byte	.LFE12-.LFB12
 3160 0040 00000000 		.4byte	.LFB13
 3161 0044 10000000 		.4byte	.LFE13-.LFB13
 3162 0048 00000000 		.4byte	.LFB14
 3163 004c 1C000000 		.4byte	.LFE14-.LFB14
 3164 0050 00000000 		.4byte	.LFB15
 3165 0054 20000000 		.4byte	.LFE15-.LFB15
 3166 0058 00000000 		.4byte	.LFB17
 3167 005c 3C000000 		.4byte	.LFE17-.LFB17
 3168 0060 00000000 		.4byte	.LFB16
 3169 0064 0A000000 		.4byte	.LFE16-.LFB16
 3170 0068 00000000 		.4byte	.LFB18
 3171 006c 30000000 		.4byte	.LFE18-.LFB18
 3172 0070 00000000 		.4byte	0
 3173 0074 00000000 		.4byte	0
 3174              		.section	.debug_ranges,"",%progbits
 3175              	.Ldebug_ranges0:
 3176 0000 0E000000 		.4byte	.LBB20
 3177 0004 10000000 		.4byte	.LBE20
 3178 0008 12000000 		.4byte	.LBB23
 3179 000c 16000000 		.4byte	.LBE23
 3180 0010 00000000 		.4byte	0
 3181 0014 00000000 		.4byte	0
 3182 0018 00000000 		.4byte	.LFB7
 3183 001c 3C000000 		.4byte	.LFE7
 3184 0020 00000000 		.4byte	.LFB8
 3185 0024 50000000 		.4byte	.LFE8
 3186 0028 00000000 		.4byte	.LFB9
 3187 002c 60000000 		.4byte	.LFE9
ARM GAS  /var/folders/qh/xwg3v3kj02qbxczjpdb8lzfr0000gn/T//ccQ3ewSi.s 			page 57


 3188 0030 00000000 		.4byte	.LFB10
 3189 0034 28000000 		.4byte	.LFE10
 3190 0038 00000000 		.4byte	.LFB11
 3191 003c 12000000 		.4byte	.LFE11
 3192 0040 00000000 		.4byte	.LFB12
 3193 0044 0E000000 		.4byte	.LFE12
 3194 0048 00000000 		.4byte	.LFB13
 3195 004c 10000000 		.4byte	.LFE13
 3196 0050 00000000 		.4byte	.LFB14
 3197 0054 1C000000 		.4byte	.LFE14
 3198 0058 00000000 		.4byte	.LFB15
 3199 005c 20000000 		.4byte	.LFE15
 3200 0060 00000000 		.4byte	.LFB17
 3201 0064 3C000000 		.4byte	.LFE17
 3202 0068 00000000 		.4byte	.LFB16
 3203 006c 0A000000 		.4byte	.LFE16
 3204 0070 00000000 		.4byte	.LFB18
 3205 0074 30000000 		.4byte	.LFE18
 3206 0078 00000000 		.4byte	0
 3207 007c 00000000 		.4byte	0
 3208              		.section	.debug_line,"",%progbits
 3209              	.Ldebug_line0:
 3210 0000 39030000 		.section	.debug_str,"MS",%progbits,1
 3210      02009101 
 3210      00000201 
 3210      FB0E0D00 
 3210      01010101 
 3211              	.LASF73:
 3212 0000 7466756E 		.ascii	"tfunc_t\000"
 3212      635F7400 
 3213              	.LASF37:
 3214 0008 705F6D73 		.ascii	"p_msg\000"
 3214      6700
 3215              	.LASF2:
 3216 000e 73697A65 		.ascii	"size_t\000"
 3216      5F7400
 3217              	.LASF74:
 3218 0015 7072696F 		.ascii	"prio\000"
 3218      00
 3219              	.LASF68:
 3220 001a 7264796D 		.ascii	"rdymsg\000"
 3220      736700
 3221              	.LASF91:
 3222 0021 76746C69 		.ascii	"vtlist\000"
 3222      737400
 3223              	.LASF87:
 3224 0028 63685468 		.ascii	"chThdExitS\000"
 3224      64457869 
 3224      745300
 3225              	.LASF12:
 3226 0033 6C6F6E67 		.ascii	"long long unsigned int\000"
 3226      206C6F6E 
 3226      6720756E 
 3226      7369676E 
 3226      65642069 
 3227              	.LASF69:
 3228 004a 65786974 		.ascii	"exitcode\000"
ARM GAS  /var/folders/qh/xwg3v3kj02qbxczjpdb8lzfr0000gn/T//ccQ3ewSi.s 			page 58


 3228      636F6465 
 3228      00
 3229              	.LASF25:
 3230 0053 705F7072 		.ascii	"p_prio\000"
 3230      696F00
 3231              	.LASF11:
 3232 005a 6C6F6E67 		.ascii	"long long int\000"
 3232      206C6F6E 
 3232      6720696E 
 3232      7400
 3233              	.LASF1:
 3234 0068 7369676E 		.ascii	"signed char\000"
 3234      65642063 
 3234      68617200 
 3235              	.LASF89:
 3236 0074 63685468 		.ascii	"chThdExit\000"
 3236      64457869 
 3236      7400
 3237              	.LASF41:
 3238 007e 705F6D70 		.ascii	"p_mpool\000"
 3238      6F6F6C00 
 3239              	.LASF65:
 3240 0086 6D5F7175 		.ascii	"m_queue\000"
 3240      65756500 
 3241              	.LASF17:
 3242 008e 74736C69 		.ascii	"tslices_t\000"
 3242      6365735F 
 3242      7400
 3243              	.LASF76:
 3244 0098 63685468 		.ascii	"chThdCreateI\000"
 3244      64437265 
 3244      61746549 
 3244      00
 3245              	.LASF8:
 3246 00a5 6C6F6E67 		.ascii	"long int\000"
 3246      20696E74 
 3246      00
 3247              	.LASF15:
 3248 00ae 74737461 		.ascii	"tstate_t\000"
 3248      74655F74 
 3248      00
 3249              	.LASF27:
 3250 00b7 705F6E65 		.ascii	"p_newer\000"
 3250      77657200 
 3251              	.LASF102:
 3252 00bf 6C697374 		.ascii	"list_remove\000"
 3252      5F72656D 
 3252      6F766500 
 3253              	.LASF94:
 3254 00cb 63685363 		.ascii	"chSchRescheduleS\000"
 3254      68526573 
 3254      63686564 
 3254      756C6553 
 3254      00
 3255              	.LASF60:
 3256 00dc 725F6E65 		.ascii	"r_newer\000"
 3256      77657200 
ARM GAS  /var/folders/qh/xwg3v3kj02qbxczjpdb8lzfr0000gn/T//ccQ3ewSi.s 			page 59


 3257              	.LASF44:
 3258 00e4 72656761 		.ascii	"regarm_t\000"
 3258      726D5F74 
 3258      00
 3259              	.LASF51:
 3260 00ed 76745F70 		.ascii	"vt_prev\000"
 3260      72657600 
 3261              	.LASF79:
 3262 00f5 63685468 		.ascii	"chThdSetPriority\000"
 3262      64536574 
 3262      5072696F 
 3262      72697479 
 3262      00
 3263              	.LASF0:
 3264 0106 756E7369 		.ascii	"unsigned int\000"
 3264      676E6564 
 3264      20696E74 
 3264      00
 3265              	.LASF50:
 3266 0113 76745F6E 		.ascii	"vt_next\000"
 3266      65787400 
 3267              	.LASF10:
 3268 011b 6C6F6E67 		.ascii	"long unsigned int\000"
 3268      20756E73 
 3268      69676E65 
 3268      6420696E 
 3268      7400
 3269              	.LASF101:
 3270 012d 2F557365 		.ascii	"/Users/John/Development/embedded/ChibiOS-RT/BluC/ST"
 3270      72732F4A 
 3270      6F686E2F 
 3270      44657665 
 3270      6C6F706D 
 3271 0160 4D333246 		.ascii	"M32F051\000"
 3271      30353100 
 3272              	.LASF46:
 3273 0168 636F6E74 		.ascii	"context\000"
 3273      65787400 
 3274              	.LASF77:
 3275 0170 73697A65 		.ascii	"size\000"
 3275      00
 3276              	.LASF6:
 3277 0175 73686F72 		.ascii	"short unsigned int\000"
 3277      7420756E 
 3277      7369676E 
 3277      65642069 
 3277      6E7400
 3278              	.LASF97:
 3279 0188 63685363 		.ascii	"chSchWakeupS\000"
 3279      6857616B 
 3279      65757053 
 3279      00
 3280              	.LASF19:
 3281 0195 6D73675F 		.ascii	"msg_t\000"
 3281      7400
 3282              	.LASF80:
 3283 019b 6E657770 		.ascii	"newprio\000"
ARM GAS  /var/folders/qh/xwg3v3kj02qbxczjpdb8lzfr0000gn/T//ccQ3ewSi.s 			page 60


 3283      72696F00 
 3284              	.LASF14:
 3285 01a3 746D6F64 		.ascii	"tmode_t\000"
 3285      655F7400 
 3286              	.LASF82:
 3287 01ab 63685468 		.ascii	"chThdTerminate\000"
 3287      64546572 
 3287      6D696E61 
 3287      746500
 3288              	.LASF43:
 3289 01ba 54687265 		.ascii	"ThreadsList\000"
 3289      6164734C 
 3289      69737400 
 3290              	.LASF20:
 3291 01c6 6576656E 		.ascii	"eventmask_t\000"
 3291      746D6173 
 3291      6B5F7400 
 3292              	.LASF64:
 3293 01d2 4D757465 		.ascii	"Mutex\000"
 3293      7800
 3294              	.LASF88:
 3295 01d8 6F6C6470 		.ascii	"oldprio\000"
 3295      72696F00 
 3296              	.LASF78:
 3297 01e0 63685468 		.ascii	"chThdCreateStatic\000"
 3297      64437265 
 3297      61746553 
 3297      74617469 
 3297      6300
 3298              	.LASF52:
 3299 01f2 76745F74 		.ascii	"vt_time\000"
 3299      696D6500 
 3300              	.LASF47:
 3301 01fa 73697A65 		.ascii	"sizetype\000"
 3301      74797065 
 3301      00
 3302              	.LASF53:
 3303 0203 76745F66 		.ascii	"vt_func\000"
 3303      756E6300 
 3304              	.LASF99:
 3305 020b 474E5520 		.ascii	"GNU C 4.8.3 20131129 (release) [ARM/embedded-4_8-br"
 3305      4320342E 
 3305      382E3320 
 3305      32303133 
 3305      31313239 
 3306 023e 616E6368 		.ascii	"anch revision 205641] -mcpu=cortex-m0 -mno-thumb-in"
 3306      20726576 
 3306      6973696F 
 3306      6E203230 
 3306      35363431 
 3307 0271 74657277 		.ascii	"terwork -mthumb -ggdb -O2 -fomit-frame-pointer -fal"
 3307      6F726B20 
 3307      2D6D7468 
 3307      756D6220 
 3307      2D676764 
 3308 02a4 69676E2D 		.ascii	"ign-functions=16 -ffunction-sections -fdata-section"
 3308      66756E63 
ARM GAS  /var/folders/qh/xwg3v3kj02qbxczjpdb8lzfr0000gn/T//ccQ3ewSi.s 			page 61


 3308      74696F6E 
 3308      733D3136 
 3308      202D6666 
 3309 02d7 73202D66 		.ascii	"s -fno-common\000"
 3309      6E6F2D63 
 3309      6F6D6D6F 
 3309      6E00
 3310              	.LASF81:
 3311 02e5 63685468 		.ascii	"chThdResume\000"
 3311      64526573 
 3311      756D6500 
 3312              	.LASF95:
 3313 02f1 63685363 		.ascii	"chSchDoRescheduleBehind\000"
 3313      68446F52 
 3313      65736368 
 3313      6564756C 
 3313      65426568 
 3314              	.LASF28:
 3315 0309 705F6F6C 		.ascii	"p_older\000"
 3315      64657200 
 3316              	.LASF59:
 3317 0311 725F6374 		.ascii	"r_ctx\000"
 3317      7800
 3318              	.LASF42:
 3319 0317 54687265 		.ascii	"ThreadsQueue\000"
 3319      61647351 
 3319      75657565 
 3319      00
 3320              	.LASF84:
 3321 0324 74696D65 		.ascii	"time\000"
 3321      00
 3322              	.LASF103:
 3323 0329 6C697374 		.ascii	"list_insert\000"
 3323      5F696E73 
 3323      65727400 
 3324              	.LASF62:
 3325 0335 725F6375 		.ascii	"r_current\000"
 3325      7272656E 
 3325      7400
 3326              	.LASF61:
 3327 033f 725F6F6C 		.ascii	"r_older\000"
 3327      64657200 
 3328              	.LASF85:
 3329 0347 63685468 		.ascii	"chThdSleepUntil\000"
 3329      64536C65 
 3329      6570556E 
 3329      74696C00 
 3330              	.LASF16:
 3331 0357 74726566 		.ascii	"trefs_t\000"
 3331      735F7400 
 3332              	.LASF24:
 3333 035f 705F7072 		.ascii	"p_prev\000"
 3333      657600
 3334              	.LASF18:
 3335 0366 74707269 		.ascii	"tprio_t\000"
 3335      6F5F7400 
 3336              	.LASF13:
ARM GAS  /var/folders/qh/xwg3v3kj02qbxczjpdb8lzfr0000gn/T//ccQ3ewSi.s 			page 62


 3337 036e 5F426F6F 		.ascii	"_Bool\000"
 3337      6C00
 3338              	.LASF7:
 3339 0374 696E7433 		.ascii	"int32_t\000"
 3339      325F7400 
 3340              	.LASF4:
 3341 037c 756E7369 		.ascii	"unsigned char\000"
 3341      676E6564 
 3341      20636861 
 3341      7200
 3342              	.LASF39:
 3343 038a 705F6D74 		.ascii	"p_mtxlist\000"
 3343      786C6973 
 3343      7400
 3344              	.LASF5:
 3345 0394 73686F72 		.ascii	"short int\000"
 3345      7420696E 
 3345      7400
 3346              	.LASF30:
 3347 039e 705F7374 		.ascii	"p_state\000"
 3347      61746500 
 3348              	.LASF33:
 3349 03a6 705F7072 		.ascii	"p_preempt\000"
 3349      65656D70 
 3349      7400
 3350              	.LASF58:
 3351 03b0 725F7072 		.ascii	"r_prio\000"
 3351      696F00
 3352              	.LASF71:
 3353 03b7 65776D61 		.ascii	"ewmask\000"
 3353      736B00
 3354              	.LASF23:
 3355 03be 705F6E65 		.ascii	"p_next\000"
 3355      787400
 3356              	.LASF31:
 3357 03c5 705F666C 		.ascii	"p_flags\000"
 3357      61677300 
 3358              	.LASF104:
 3359 03cd 63685468 		.ascii	"chThdRelease\000"
 3359      6452656C 
 3359      65617365 
 3359      00
 3360              	.LASF22:
 3361 03da 54687265 		.ascii	"Thread\000"
 3361      616400
 3362              	.LASF98:
 3363 03e1 63685363 		.ascii	"chSchGoSleepS\000"
 3363      68476F53 
 3363      6C656570 
 3363      5300
 3364              	.LASF38:
 3365 03ef 705F6570 		.ascii	"p_epending\000"
 3365      656E6469 
 3365      6E6700
 3366              	.LASF9:
 3367 03fa 75696E74 		.ascii	"uint32_t\000"
 3367      33325F74 
ARM GAS  /var/folders/qh/xwg3v3kj02qbxczjpdb8lzfr0000gn/T//ccQ3ewSi.s 			page 63


 3367      00
 3368              	.LASF75:
 3369 0403 5F746872 		.ascii	"_thread_init\000"
 3369      6561645F 
 3369      696E6974 
 3369      00
 3370              	.LASF57:
 3371 0410 725F7175 		.ascii	"r_queue\000"
 3371      65756500 
 3372              	.LASF49:
 3373 0418 56697274 		.ascii	"VirtualTimer\000"
 3373      75616C54 
 3373      696D6572 
 3373      00
 3374              	.LASF72:
 3375 0425 63686172 		.ascii	"char\000"
 3375      00
 3376              	.LASF96:
 3377 042a 63685363 		.ascii	"chSchReadyI\000"
 3377      68526561 
 3377      64794900 
 3378              	.LASF67:
 3379 0436 6D5F6E65 		.ascii	"m_next\000"
 3379      787400
 3380              	.LASF21:
 3381 043d 73797374 		.ascii	"systime_t\000"
 3381      696D655F 
 3381      7400
 3382              	.LASF40:
 3383 0447 705F7265 		.ascii	"p_realprio\000"
 3383      616C7072 
 3383      696F00
 3384              	.LASF48:
 3385 0452 76746675 		.ascii	"vtfunc_t\000"
 3385      6E635F74 
 3385      00
 3386              	.LASF86:
 3387 045b 63685468 		.ascii	"chThdYield\000"
 3387      64596965 
 3387      6C6400
 3388              	.LASF34:
 3389 0466 705F7469 		.ascii	"p_time\000"
 3389      6D6500
 3390              	.LASF45:
 3391 046d 696E7463 		.ascii	"intctx\000"
 3391      747800
 3392              	.LASF36:
 3393 0474 705F6D73 		.ascii	"p_msgqueue\000"
 3393      67717565 
 3393      756500
 3394              	.LASF90:
 3395 047f 63685468 		.ascii	"chThdWait\000"
 3395      64576169 
 3395      7400
 3396              	.LASF54:
 3397 0489 76745F70 		.ascii	"vt_par\000"
 3397      617200
ARM GAS  /var/folders/qh/xwg3v3kj02qbxczjpdb8lzfr0000gn/T//ccQ3ewSi.s 			page 64


 3398              	.LASF83:
 3399 0490 63685468 		.ascii	"chThdSleep\000"
 3399      64536C65 
 3399      657000
 3400              	.LASF32:
 3401 049b 705F7265 		.ascii	"p_refs\000"
 3401      667300
 3402              	.LASF63:
 3403 04a2 52656164 		.ascii	"ReadyList\000"
 3403      794C6973 
 3403      7400
 3404              	.LASF92:
 3405 04ac 726C6973 		.ascii	"rlist\000"
 3405      7400
 3406              	.LASF3:
 3407 04b2 75696E74 		.ascii	"uint8_t\000"
 3407      385F7400 
 3408              	.LASF100:
 3409 04ba 2E2E2F2E 		.ascii	"../../os/kernel/src/chthreads.c\000"
 3409      2E2F6F73 
 3409      2F6B6572 
 3409      6E656C2F 
 3409      7372632F 
 3410              	.LASF70:
 3411 04da 77746F62 		.ascii	"wtobjp\000"
 3411      6A7000
 3412              	.LASF29:
 3413 04e1 705F6E61 		.ascii	"p_name\000"
 3413      6D6500
 3414              	.LASF55:
 3415 04e8 76745F73 		.ascii	"vt_systime\000"
 3415      79737469 
 3415      6D6500
 3416              	.LASF93:
 3417 04f3 63685363 		.ascii	"chSchGoSleepTimeoutS\000"
 3417      68476F53 
 3417      6C656570 
 3417      54696D65 
 3417      6F757453 
 3418              	.LASF56:
 3419 0508 56544C69 		.ascii	"VTList\000"
 3419      737400
 3420              	.LASF66:
 3421 050f 6D5F6F77 		.ascii	"m_owner\000"
 3421      6E657200 
 3422              	.LASF26:
 3423 0517 705F6374 		.ascii	"p_ctx\000"
 3423      7800
 3424              	.LASF35:
 3425 051d 705F7761 		.ascii	"p_waiting\000"
 3425      6974696E 
 3425      6700
 3426              		.ident	"GCC: (GNU Tools for ARM Embedded Processors) 4.8.3 20131129 (release) [ARM/embedded-4_8-br
ARM GAS  /var/folders/qh/xwg3v3kj02qbxczjpdb8lzfr0000gn/T//ccQ3ewSi.s 			page 65


DEFINED SYMBOLS
                            *ABS*:0000000000000000 chthreads.c
/var/folders/qh/xwg3v3kj02qbxczjpdb8lzfr0000gn/T//ccQ3ewSi.s:18     .text._thread_init:0000000000000000 $t
/var/folders/qh/xwg3v3kj02qbxczjpdb8lzfr0000gn/T//ccQ3ewSi.s:24     .text._thread_init:0000000000000000 _thread_init
/var/folders/qh/xwg3v3kj02qbxczjpdb8lzfr0000gn/T//ccQ3ewSi.s:80     .text._thread_init:0000000000000038 $d
/var/folders/qh/xwg3v3kj02qbxczjpdb8lzfr0000gn/T//ccQ3ewSi.s:85     .text.chThdCreateI:0000000000000000 $t
/var/folders/qh/xwg3v3kj02qbxczjpdb8lzfr0000gn/T//ccQ3ewSi.s:91     .text.chThdCreateI:0000000000000000 chThdCreateI
/var/folders/qh/xwg3v3kj02qbxczjpdb8lzfr0000gn/T//ccQ3ewSi.s:167    .text.chThdCreateI:0000000000000048 $d
/var/folders/qh/xwg3v3kj02qbxczjpdb8lzfr0000gn/T//ccQ3ewSi.s:173    .text.chThdCreateStatic:0000000000000000 $t
/var/folders/qh/xwg3v3kj02qbxczjpdb8lzfr0000gn/T//ccQ3ewSi.s:179    .text.chThdCreateStatic:0000000000000000 chThdCreateStatic
/var/folders/qh/xwg3v3kj02qbxczjpdb8lzfr0000gn/T//ccQ3ewSi.s:280    .text.chThdCreateStatic:0000000000000058 $d
/var/folders/qh/xwg3v3kj02qbxczjpdb8lzfr0000gn/T//ccQ3ewSi.s:286    .text.chThdSetPriority:0000000000000000 $t
/var/folders/qh/xwg3v3kj02qbxczjpdb8lzfr0000gn/T//ccQ3ewSi.s:292    .text.chThdSetPriority:0000000000000000 chThdSetPriority
/var/folders/qh/xwg3v3kj02qbxczjpdb8lzfr0000gn/T//ccQ3ewSi.s:340    .text.chThdSetPriority:0000000000000024 $d
/var/folders/qh/xwg3v3kj02qbxczjpdb8lzfr0000gn/T//ccQ3ewSi.s:345    .text.chThdResume:0000000000000000 $t
/var/folders/qh/xwg3v3kj02qbxczjpdb8lzfr0000gn/T//ccQ3ewSi.s:351    .text.chThdResume:0000000000000000 chThdResume
/var/folders/qh/xwg3v3kj02qbxczjpdb8lzfr0000gn/T//ccQ3ewSi.s:385    .text.chThdTerminate:0000000000000000 $t
/var/folders/qh/xwg3v3kj02qbxczjpdb8lzfr0000gn/T//ccQ3ewSi.s:391    .text.chThdTerminate:0000000000000000 chThdTerminate
/var/folders/qh/xwg3v3kj02qbxczjpdb8lzfr0000gn/T//ccQ3ewSi.s:418    .text.chThdSleep:0000000000000000 $t
/var/folders/qh/xwg3v3kj02qbxczjpdb8lzfr0000gn/T//ccQ3ewSi.s:424    .text.chThdSleep:0000000000000000 chThdSleep
/var/folders/qh/xwg3v3kj02qbxczjpdb8lzfr0000gn/T//ccQ3ewSi.s:457    .text.chThdSleepUntil:0000000000000000 $t
/var/folders/qh/xwg3v3kj02qbxczjpdb8lzfr0000gn/T//ccQ3ewSi.s:463    .text.chThdSleepUntil:0000000000000000 chThdSleepUntil
/var/folders/qh/xwg3v3kj02qbxczjpdb8lzfr0000gn/T//ccQ3ewSi.s:499    .text.chThdSleepUntil:0000000000000018 $d
/var/folders/qh/xwg3v3kj02qbxczjpdb8lzfr0000gn/T//ccQ3ewSi.s:504    .text.chThdYield:0000000000000000 $t
/var/folders/qh/xwg3v3kj02qbxczjpdb8lzfr0000gn/T//ccQ3ewSi.s:510    .text.chThdYield:0000000000000000 chThdYield
/var/folders/qh/xwg3v3kj02qbxczjpdb8lzfr0000gn/T//ccQ3ewSi.s:546    .text.chThdYield:000000000000001c $d
/var/folders/qh/xwg3v3kj02qbxczjpdb8lzfr0000gn/T//ccQ3ewSi.s:551    .text.chThdExitS:0000000000000000 $t
/var/folders/qh/xwg3v3kj02qbxczjpdb8lzfr0000gn/T//ccQ3ewSi.s:557    .text.chThdExitS:0000000000000000 chThdExitS
/var/folders/qh/xwg3v3kj02qbxczjpdb8lzfr0000gn/T//ccQ3ewSi.s:623    .text.chThdExitS:0000000000000038 $d
/var/folders/qh/xwg3v3kj02qbxczjpdb8lzfr0000gn/T//ccQ3ewSi.s:628    .text.chThdExit:0000000000000000 $t
/var/folders/qh/xwg3v3kj02qbxczjpdb8lzfr0000gn/T//ccQ3ewSi.s:634    .text.chThdExit:0000000000000000 chThdExit
/var/folders/qh/xwg3v3kj02qbxczjpdb8lzfr0000gn/T//ccQ3ewSi.s:658    .text.chThdWait:0000000000000000 $t
/var/folders/qh/xwg3v3kj02qbxczjpdb8lzfr0000gn/T//ccQ3ewSi.s:664    .text.chThdWait:0000000000000000 chThdWait
/var/folders/qh/xwg3v3kj02qbxczjpdb8lzfr0000gn/T//ccQ3ewSi.s:732    .text.chThdWait:000000000000002c $d
                     .debug_frame:0000000000000010 $d
/var/folders/qh/xwg3v3kj02qbxczjpdb8lzfr0000gn/T//ccQ3ewSi.s:84     .text._thread_init:000000000000003c $t
/var/folders/qh/xwg3v3kj02qbxczjpdb8lzfr0000gn/T//ccQ3ewSi.s:344    .text.chThdSetPriority:0000000000000028 $t
/var/folders/qh/xwg3v3kj02qbxczjpdb8lzfr0000gn/T//ccQ3ewSi.s:503    .text.chThdSleepUntil:000000000000001c $t
/var/folders/qh/xwg3v3kj02qbxczjpdb8lzfr0000gn/T//ccQ3ewSi.s:627    .text.chThdExitS:000000000000003c $t

UNDEFINED SYMBOLS
rlist
_port_thread_start
chSchWakeupS
chSchRescheduleS
chSchGoSleepTimeoutS
vtlist
chSchDoRescheduleBehind
chSchReadyI
chSchGoSleepS
chThdRelease
