ARM GAS  /var/folders/qh/xwg3v3kj02qbxczjpdb8lzfr0000gn/T//ccgHUQmN.s 			page 1


   1              		.cpu cortex-m0
   2              		.fpu softvfp
   3              		.eabi_attribute 20, 1
   4              		.eabi_attribute 21, 1
   5              		.eabi_attribute 23, 3
   6              		.eabi_attribute 24, 1
   7              		.eabi_attribute 25, 1
   8              		.eabi_attribute 26, 1
   9              		.eabi_attribute 30, 2
  10              		.eabi_attribute 34, 0
  11              		.eabi_attribute 18, 4
  12              		.code	16
  13              		.file	"cmd.c"
  14              		.text
  15              	.Ltext0:
  16              		.cfi_sections	.debug_frame
  17              		.section	.text.chprintf,"ax",%progbits
  18              		.align	2
  19              		.p2align 4,,15
  20              		.code	16
  21              		.thumb_func
  22              		.type	chprintf, %function
  23              	chprintf:
  24              	.LFB40:
  25              		.file 1 "../../os/various/chprintf.h"
  26              		.loc 1 69 0
  27              		.cfi_startproc
  28              	.LVL0:
  29 0000 0EB4     		push	{r1, r2, r3}
  30              		.cfi_def_cfa_offset 12
  31 0002 00B5     		push	{lr}
  32              		.cfi_def_cfa_offset 16
  33              		.cfi_offset 14, -16
  34 0004 82B0     		sub	sp, sp, #8
  35              		.cfi_def_cfa_offset 24
  36              		.loc 1 69 0
  37 0006 03AA     		add	r2, sp, #12
  38 0008 08CA     		ldmia	r2!, {r3}
  39              		.loc 1 73 0
  40 000a 191C     		mov	r1, r3
  41              		.loc 1 72 0
  42 000c 0192     		str	r2, [sp, #4]
  43              		.loc 1 73 0
  44 000e FFF7FEFF 		bl	chvprintf
  45              	.LVL1:
  46              		.loc 1 75 0
  47 0012 02B0     		add	sp, sp, #8
  48              		@ sp needed
  49 0014 08BC     		pop	{r3}
  50 0016 03B0     		add	sp, sp, #12
  51 0018 1847     		bx	r3
  52              		.cfi_endproc
  53              	.LFE40:
  54              		.size	chprintf, .-chprintf
  55              		.global	__aeabi_fmul
  56              		.global	__aeabi_fdiv
  57              		.global	__aeabi_f2iz
ARM GAS  /var/folders/qh/xwg3v3kj02qbxczjpdb8lzfr0000gn/T//ccgHUQmN.s 			page 2


  58 001a C046C046 		.section	.text.cmdGetTemp,"ax",%progbits
  58      C046
  59              		.align	2
  60              		.p2align 4,,15
  61              		.global	cmdGetTemp
  62              		.code	16
  63              		.thumb_func
  64              		.type	cmdGetTemp, %function
  65              	cmdGetTemp:
  66              	.LFB41:
  67              		.file 2 "cmd.c"
  68              		.loc 2 14 0
  69              		.cfi_startproc
  70              	.LVL2:
  71 0000 F0B5     		push	{r4, r5, r6, r7, lr}
  72              		.cfi_def_cfa_offset 20
  73              		.cfi_offset 4, -20
  74              		.cfi_offset 5, -16
  75              		.cfi_offset 6, -12
  76              		.cfi_offset 7, -8
  77              		.cfi_offset 14, -4
  78 0002 8BB0     		sub	sp, sp, #44
  79              		.cfi_def_cfa_offset 64
  80              		.loc 2 15 0
  81 0004 03AD     		add	r5, sp, #12
  82 0006 1B4A     		ldr	r2, .L8
  83              	.LVL3:
  84 0008 2B1C     		mov	r3, r5
  85              		.loc 2 14 0
  86 000a 071C     		mov	r7, r0
  87              		.loc 2 15 0
  88 000c 13CA     		ldmia	r2!, {r0, r1, r4}
  89 000e 13C3     		stmia	r3!, {r0, r1, r4}
  90              	.LVL4:
  91 0010 13CA     		ldmia	r2!, {r0, r1, r4}
  92 0012 13C3     		stmia	r3!, {r0, r1, r4}
  93 0014 1268     		ldr	r2, [r2]
  94              		.loc 2 27 0
  95 0016 184C     		ldr	r4, .L8+4
  96              		.loc 2 15 0
  97 0018 1A60     		str	r2, [r3]
  98              		.loc 2 26 0
  99 001a 184B     		ldr	r3, .L8+8
 100 001c E022     		mov	r2, #224
 101 001e 5204     		lsl	r2, r2, #17
 102 0020 1A60     		str	r2, [r3]
 103              		.loc 2 27 0
 104 0022 201C     		mov	r0, r4
 105 0024 1649     		ldr	r1, .L8+12
 106 0026 FFF7FEFF 		bl	chprintf
 107              	.LVL5:
 108              		.loc 2 28 0
 109 002a 9821     		mov	r1, #152
 110 002c 0095     		str	r5, [sp]
 111 002e 1548     		ldr	r0, .L8+16
 112 0030 4900     		lsl	r1, r1, #1
 113 0032 4022     		mov	r2, #64
ARM GAS  /var/folders/qh/xwg3v3kj02qbxczjpdb8lzfr0000gn/T//ccgHUQmN.s 			page 3


 114 0034 144B     		ldr	r3, .L8+20
 115 0036 FFF7FEFF 		bl	chThdCreateStatic
 116              	.LVL6:
 117              		.loc 2 29 0
 118 003a 144D     		ldr	r5, .L8+24
 119 003c 2868     		ldr	r0, [r5]
 120 003e 0028     		cmp	r0, #0
 121 0040 07D1     		bne	.L4
 122 0042 134E     		ldr	r6, .L8+28
 123              	.L5:
 124              		.loc 2 31 0
 125 0044 311C     		mov	r1, r6
 126 0046 201C     		mov	r0, r4
 127 0048 FFF7FEFF 		bl	chprintf
 128              	.LVL7:
 129              		.loc 2 29 0
 130 004c 2968     		ldr	r1, [r5]
 131 004e 0029     		cmp	r1, #0
 132 0050 F8D0     		beq	.L5
 133              	.L4:
 134              	.LVL8:
 135              		.loc 2 33 0
 136 0052 104B     		ldr	r3, .L8+32
 137              	.LVL9:
 138 0054 1049     		ldr	r1, .L8+36
 139 0056 1868     		ldr	r0, [r3]
 140 0058 FFF7FEFF 		bl	__aeabi_fmul
 141              	.LVL10:
 142 005c 0F49     		ldr	r1, .L8+40
 143 005e FFF7FEFF 		bl	__aeabi_fdiv
 144              	.LVL11:
 145 0062 FFF7FEFF 		bl	__aeabi_f2iz
 146              	.LVL12:
 147              		.loc 2 34 0
 148 0066 0E49     		ldr	r1, .L8+44
 149              		.loc 2 33 0
 150 0068 021C     		mov	r2, r0
 151              		.loc 2 34 0
 152 006a 381C     		mov	r0, r7
 153 006c FFF7FEFF 		bl	chprintf
 154              	.LVL13:
 155              		.loc 2 35 0
 156 0070 0BB0     		add	sp, sp, #44
 157              		@ sp needed
 158              	.LVL14:
 159 0072 F0BD     		pop	{r4, r5, r6, r7, pc}
 160              	.L9:
 161              		.align	2
 162              	.L8:
 163 0074 00000000 		.word	.LANCHOR0
 164 0078 00000000 		.word	SD1
 165 007c 08270140 		.word	1073817352
 166 0080 00000000 		.word	.LC3
 167 0084 00000000 		.word	.LANCHOR1
 168 0088 00000000 		.word	adcConversionThread
 169 008c 00000000 		.word	adcDataReady
 170 0090 30000000 		.word	.LC11
ARM GAS  /var/folders/qh/xwg3v3kj02qbxczjpdb8lzfr0000gn/T//ccgHUQmN.s 			page 4


 171 0094 00000000 		.word	value
 172 0098 0000A543 		.word	1134886912
 173 009c 00F07F45 		.word	1166012416
 174 00a0 20000000 		.word	.LC8
 175              		.cfi_endproc
 176              	.LFE41:
 177              		.size	cmdGetTemp, .-cmdGetTemp
 178 00a4 C046C046 		.section	.text.cmdGetVoltage,"ax",%progbits
 178      C046C046 
 178      C046C046 
 179              		.align	2
 180              		.p2align 4,,15
 181              		.global	cmdGetVoltage
 182              		.code	16
 183              		.thumb_func
 184              		.type	cmdGetVoltage, %function
 185              	cmdGetVoltage:
 186              	.LFB42:
 187              		.loc 2 38 0
 188              		.cfi_startproc
 189              	.LVL15:
 190 0000 08B5     		push	{r3, lr}
 191              		.cfi_def_cfa_offset 8
 192              		.cfi_offset 3, -8
 193              		.cfi_offset 14, -4
 194              		.loc 2 49 0
 195 0002 0249     		ldr	r1, .L11
 196              	.LVL16:
 197 0004 FFF7FEFF 		bl	chprintf
 198              	.LVL17:
 199              		.loc 2 51 0
 200              		@ sp needed
 201 0008 08BD     		pop	{r3, pc}
 202              	.L12:
 203 000a C046     		.align	2
 204              	.L11:
 205 000c 38000000 		.word	.LC13
 206              		.cfi_endproc
 207              	.LFE42:
 208              		.size	cmdGetVoltage, .-cmdGetVoltage
 209              		.section	.text.cmdGetBattery,"ax",%progbits
 210              		.align	2
 211              		.p2align 4,,15
 212              		.global	cmdGetBattery
 213              		.code	16
 214              		.thumb_func
 215              		.type	cmdGetBattery, %function
 216              	cmdGetBattery:
 217              	.LFB43:
 218              		.loc 2 54 0
 219              		.cfi_startproc
 220              	.LVL18:
 221 0000 08B5     		push	{r3, lr}
 222              		.cfi_def_cfa_offset 8
 223              		.cfi_offset 3, -8
 224              		.cfi_offset 14, -4
 225              		.loc 2 66 0
ARM GAS  /var/folders/qh/xwg3v3kj02qbxczjpdb8lzfr0000gn/T//ccgHUQmN.s 			page 5


 226 0002 0249     		ldr	r1, .L14
 227              	.LVL19:
 228 0004 FFF7FEFF 		bl	chprintf
 229              	.LVL20:
 230              		.loc 2 68 0
 231              		@ sp needed
 232 0008 08BD     		pop	{r3, pc}
 233              	.L15:
 234 000a C046     		.align	2
 235              	.L14:
 236 000c 38000000 		.word	.LC13
 237              		.cfi_endproc
 238              	.LFE43:
 239              		.size	cmdGetBattery, .-cmdGetBattery
 240              		.section	.text.cmdAdc,"ax",%progbits
 241              		.align	2
 242              		.p2align 4,,15
 243              		.global	cmdAdc
 244              		.code	16
 245              		.thumb_func
 246              		.type	cmdAdc, %function
 247              	cmdAdc:
 248              	.LFB44:
 249              		.loc 2 78 0
 250              		.cfi_startproc
 251              	.LVL21:
 252 0000 08B5     		push	{r3, lr}
 253              		.cfi_def_cfa_offset 8
 254              		.cfi_offset 3, -8
 255              		.cfi_offset 14, -4
 256              		.loc 2 89 0
 257 0002 0249     		ldr	r1, .L17
 258              	.LVL22:
 259 0004 FFF7FEFF 		bl	chprintf
 260              	.LVL23:
 261              		.loc 2 91 0
 262              		@ sp needed
 263 0008 08BD     		pop	{r3, pc}
 264              	.L18:
 265 000a C046     		.align	2
 266              	.L17:
 267 000c 38000000 		.word	.LC13
 268              		.cfi_endproc
 269              	.LFE44:
 270              		.size	cmdAdc, .-cmdAdc
 271              		.section	.text.cmdDac,"ax",%progbits
 272              		.align	2
 273              		.p2align 4,,15
 274              		.global	cmdDac
 275              		.code	16
 276              		.thumb_func
 277              		.type	cmdDac, %function
 278              	cmdDac:
 279              	.LFB45:
 280              		.loc 2 94 0
 281              		.cfi_startproc
 282              	.LVL24:
ARM GAS  /var/folders/qh/xwg3v3kj02qbxczjpdb8lzfr0000gn/T//ccgHUQmN.s 			page 6


 283 0000 08B5     		push	{r3, lr}
 284              		.cfi_def_cfa_offset 8
 285              		.cfi_offset 3, -8
 286              		.cfi_offset 14, -4
 287              		.loc 2 109 0
 288 0002 0249     		ldr	r1, .L20
 289              	.LVL25:
 290 0004 FFF7FEFF 		bl	chprintf
 291              	.LVL26:
 292              		.loc 2 111 0
 293              		@ sp needed
 294 0008 08BD     		pop	{r3, pc}
 295              	.L21:
 296 000a C046     		.align	2
 297              	.L20:
 298 000c 38000000 		.word	.LC13
 299              		.cfi_endproc
 300              	.LFE45:
 301              		.size	cmdDac, .-cmdDac
 302              		.section	.text.cmdUart,"ax",%progbits
 303              		.align	2
 304              		.p2align 4,,15
 305              		.global	cmdUart
 306              		.code	16
 307              		.thumb_func
 308              		.type	cmdUart, %function
 309              	cmdUart:
 310              	.LFB46:
 311              		.loc 2 114 0
 312              		.cfi_startproc
 313              	.LVL27:
 314 0000 08B5     		push	{r3, lr}
 315              		.cfi_def_cfa_offset 8
 316              		.cfi_offset 3, -8
 317              		.cfi_offset 14, -4
 318              		.loc 2 122 0
 319 0002 0249     		ldr	r1, .L23
 320              	.LVL28:
 321 0004 FFF7FEFF 		bl	chprintf
 322              	.LVL29:
 323              		.loc 2 124 0
 324              		@ sp needed
 325 0008 08BD     		pop	{r3, pc}
 326              	.L24:
 327 000a C046     		.align	2
 328              	.L23:
 329 000c 38000000 		.word	.LC13
 330              		.cfi_endproc
 331              	.LFE46:
 332              		.size	cmdUart, .-cmdUart
 333              		.section	.text.cmdSpi,"ax",%progbits
 334              		.align	2
 335              		.p2align 4,,15
 336              		.global	cmdSpi
 337              		.code	16
 338              		.thumb_func
 339              		.type	cmdSpi, %function
ARM GAS  /var/folders/qh/xwg3v3kj02qbxczjpdb8lzfr0000gn/T//ccgHUQmN.s 			page 7


 340              	cmdSpi:
 341              	.LFB47:
 342              		.loc 2 127 0
 343              		.cfi_startproc
 344              	.LVL30:
 345 0000 08B5     		push	{r3, lr}
 346              		.cfi_def_cfa_offset 8
 347              		.cfi_offset 3, -8
 348              		.cfi_offset 14, -4
 349              		.loc 2 128 0
 350 0002 0249     		ldr	r1, .L26
 351              	.LVL31:
 352 0004 FFF7FEFF 		bl	chprintf
 353              	.LVL32:
 354              		.loc 2 130 0
 355              		@ sp needed
 356 0008 08BD     		pop	{r3, pc}
 357              	.L27:
 358 000a C046     		.align	2
 359              	.L26:
 360 000c 38000000 		.word	.LC13
 361              		.cfi_endproc
 362              	.LFE47:
 363              		.size	cmdSpi, .-cmdSpi
 364              		.section	.text.cmdBluetooth,"ax",%progbits
 365              		.align	2
 366              		.p2align 4,,15
 367              		.global	cmdBluetooth
 368              		.code	16
 369              		.thumb_func
 370              		.type	cmdBluetooth, %function
 371              	cmdBluetooth:
 372              	.LFB48:
 373              		.loc 2 133 0
 374              		.cfi_startproc
 375              	.LVL33:
 376 0000 08B5     		push	{r3, lr}
 377              		.cfi_def_cfa_offset 8
 378              		.cfi_offset 3, -8
 379              		.cfi_offset 14, -4
 380              		.loc 2 140 0
 381 0002 0249     		ldr	r1, .L29
 382              	.LVL34:
 383 0004 FFF7FEFF 		bl	chprintf
 384              	.LVL35:
 385              		.loc 2 142 0
 386              		@ sp needed
 387 0008 08BD     		pop	{r3, pc}
 388              	.L30:
 389 000a C046     		.align	2
 390              	.L29:
 391 000c 38000000 		.word	.LC13
 392              		.cfi_endproc
 393              	.LFE48:
 394              		.size	cmdBluetooth, .-cmdBluetooth
 395              		.section	.text.cmdI2c,"ax",%progbits
 396              		.align	2
ARM GAS  /var/folders/qh/xwg3v3kj02qbxczjpdb8lzfr0000gn/T//ccgHUQmN.s 			page 8


 397              		.p2align 4,,15
 398              		.global	cmdI2c
 399              		.code	16
 400              		.thumb_func
 401              		.type	cmdI2c, %function
 402              	cmdI2c:
 403              	.LFB49:
 404              		.loc 2 147 0
 405              		.cfi_startproc
 406              	.LVL36:
 407 0000 08B5     		push	{r3, lr}
 408              		.cfi_def_cfa_offset 8
 409              		.cfi_offset 3, -8
 410              		.cfi_offset 14, -4
 411              		.loc 2 148 0
 412 0002 0249     		ldr	r1, .L32
 413              	.LVL37:
 414 0004 FFF7FEFF 		bl	chprintf
 415              	.LVL38:
 416              		.loc 2 150 0
 417              		@ sp needed
 418 0008 08BD     		pop	{r3, pc}
 419              	.L33:
 420 000a C046     		.align	2
 421              	.L32:
 422 000c 38000000 		.word	.LC13
 423              		.cfi_endproc
 424              	.LFE49:
 425              		.size	cmdI2c, .-cmdI2c
 426              		.section	.text.cmdPwm,"ax",%progbits
 427              		.align	2
 428              		.p2align 4,,15
 429              		.global	cmdPwm
 430              		.code	16
 431              		.thumb_func
 432              		.type	cmdPwm, %function
 433              	cmdPwm:
 434              	.LFB50:
 435              		.loc 2 154 0
 436              		.cfi_startproc
 437              	.LVL39:
 438 0000 08B5     		push	{r3, lr}
 439              		.cfi_def_cfa_offset 8
 440              		.cfi_offset 3, -8
 441              		.cfi_offset 14, -4
 442              		.loc 2 155 0
 443 0002 0249     		ldr	r1, .L35
 444              	.LVL40:
 445 0004 FFF7FEFF 		bl	chprintf
 446              	.LVL41:
 447              		.loc 2 157 0
 448              		@ sp needed
 449 0008 08BD     		pop	{r3, pc}
 450              	.L36:
 451 000a C046     		.align	2
 452              	.L35:
 453 000c 38000000 		.word	.LC13
ARM GAS  /var/folders/qh/xwg3v3kj02qbxczjpdb8lzfr0000gn/T//ccgHUQmN.s 			page 9


 454              		.cfi_endproc
 455              	.LFE50:
 456              		.size	cmdPwm, .-cmdPwm
 457              		.section	.text.cmdDate,"ax",%progbits
 458              		.align	2
 459              		.p2align 4,,15
 460              		.global	cmdDate
 461              		.code	16
 462              		.thumb_func
 463              		.type	cmdDate, %function
 464              	cmdDate:
 465              	.LFB51:
 466              		.loc 2 160 0
 467              		.cfi_startproc
 468              	.LVL42:
 469 0000 08B5     		push	{r3, lr}
 470              		.cfi_def_cfa_offset 8
 471              		.cfi_offset 3, -8
 472              		.cfi_offset 14, -4
 473              		.loc 2 168 0
 474 0002 0249     		ldr	r1, .L38
 475              	.LVL43:
 476 0004 FFF7FEFF 		bl	chprintf
 477              	.LVL44:
 478              		.loc 2 170 0
 479              		@ sp needed
 480 0008 08BD     		pop	{r3, pc}
 481              	.L39:
 482 000a C046     		.align	2
 483              	.L38:
 484 000c 38000000 		.word	.LC13
 485              		.cfi_endproc
 486              	.LFE51:
 487              		.size	cmdDate, .-cmdDate
 488              		.section	.rodata
 489              		.align	2
 490              		.set	.LANCHOR0,. + 0
 491              	.LC0:
 492 0000 00       		.byte	0
 493 0001 00       		.space	1
 494 0002 0100     		.short	1
 495 0004 00000000 		.word	adcTempCallBack
 496 0008 00000000 		.word	adcErrorCallBack
 497 000c 00000000 		.word	0
 498 0010 00000000 		.word	0
 499 0014 00000000 		.word	0
 500 0018 00000100 		.word	65536
 501              		.section	.bss.adcTempArea.6161,"aw",%nobits
 502              		.align	3
 503              		.set	.LANCHOR1,. + 0
 504              		.type	adcTempArea.6161, %object
 505              		.size	adcTempArea.6161, 304
 506              	adcTempArea.6161:
 507 0000 00000000 		.space	304
 507      00000000 
 507      00000000 
 507      00000000 
ARM GAS  /var/folders/qh/xwg3v3kj02qbxczjpdb8lzfr0000gn/T//ccgHUQmN.s 			page 10


 507      00000000 
 508              		.section	.rodata.str1.4,"aMS",%progbits,1
 509              		.align	2
 510              	.LC3:
 511 0000 54656D70 		.ascii	"Temperature Conversion Started\000"
 511      65726174 
 511      75726520 
 511      436F6E76 
 511      65727369 
 512 001f 00       		.space	1
 513              	.LC8:
 514 0020 54454D50 		.ascii	"TEMP DCV: %d \012\015\000"
 514      20444356 
 514      3A202564 
 514      200A0D00 
 515              	.LC11:
 516 0030 77616974 		.ascii	"waiting\000"
 516      696E6700 
 517              	.LC13:
 518 0038 48656C6C 		.ascii	"Hello World\000"
 518      6F20576F 
 518      726C6400 
 519              		.text
 520              	.Letext0:
 521              		.file 3 "/usr/local/Cellar/gcc-arm-none-eabi-48/20131218/lib/gcc/arm-none-eabi/4.8.3/include/stdde
 522              		.file 4 "/usr/local/Cellar/gcc-arm-none-eabi-48/20131218/arm-none-eabi/include/stdint.h"
 523              		.file 5 "../../os/ports/GCC/ARMCMx/chtypes.h"
 524              		.file 6 "../../os/kernel/include/chlists.h"
 525              		.file 7 "../../os/kernel/include/chthreads.h"
 526              		.file 8 "../../os/ports/GCC/ARMCMx/chcore_v6m.h"
 527              		.file 9 "../../os/kernel/include/chmtx.h"
 528              		.file 10 "../../os/kernel/include/chevents.h"
 529              		.file 11 "../../os/kernel/include/chqueues.h"
 530              		.file 12 "../../os/kernel/include/chstreams.h"
 531              		.file 13 "../../os/hal/platforms/STM32F0xx/stm32f0xx.h"
 532              		.file 14 "../../os/hal/platforms/STM32F0xx/stm32_dma.h"
 533              		.file 15 "../../os/hal/include/adc.h"
 534              		.file 16 "../../os/hal/platforms/STM32F0xx/adc_lld.h"
 535              		.file 17 "../../os/hal/include/serial.h"
 536              		.file 18 "/usr/local/Cellar/gcc-arm-none-eabi-48/20131218/lib/gcc/arm-none-eabi/4.8.3/include/stda
 537              		.file 19 "<built-in>"
 538              		.file 20 "../../os/hal/platforms/STM32/USARTv2/serial_lld.h"