ARM GAS  /var/folders/qh/xwg3v3kj02qbxczjpdb8lzfr0000gn/T//ccCZhKSZ.s 			page 1


   1              		.cpu cortex-m0
   2              		.fpu softvfp
   3              		.eabi_attribute 20, 1
   4              		.eabi_attribute 21, 1
   5              		.eabi_attribute 23, 3
   6              		.eabi_attribute 24, 1
   7              		.eabi_attribute 25, 1
   8              		.eabi_attribute 26, 1
   9              		.eabi_attribute 30, 2
  10              		.eabi_attribute 34, 0
  11              		.eabi_attribute 18, 4
  12              		.code	16
  13              		.file	"cmd.c"
  14              		.text
  15              	.Ltext0:
  16              		.cfi_sections	.debug_frame
  17              		.section	.text.chprintf.constprop.0,"ax",%progbits
  18              		.align	2
  19              		.p2align 4,,15
  20              		.code	16
  21              		.thumb_func
  22              		.type	chprintf.constprop.0, %function
  23              	chprintf.constprop.0:
  24              	.LFB49:
  25              		.file 1 "../../os/various/chprintf.h"
  26              		.loc 1 69 0
  27              		.cfi_startproc
  28              	.LVL0:
  29 0000 0EB4     		push	{r1, r2, r3}
  30              		.cfi_def_cfa_offset 12
  31 0002 00B5     		push	{lr}
  32              		.cfi_def_cfa_offset 16
  33              		.cfi_offset 14, -16
  34 0004 82B0     		sub	sp, sp, #8
  35              		.cfi_def_cfa_offset 24
  36              		.loc 1 72 0
  37 0006 04AA     		add	r2, sp, #16
  38              		.loc 1 73 0
  39 0008 0349     		ldr	r1, .L2
  40              		.loc 1 72 0
  41 000a 0192     		str	r2, [sp, #4]
  42              		.loc 1 73 0
  43 000c FFF7FEFF 		bl	chvprintf
  44              	.LVL1:
  45              		.loc 1 75 0
  46 0010 02B0     		add	sp, sp, #8
  47              		@ sp needed
  48 0012 08BC     		pop	{r3}
  49 0014 03B0     		add	sp, sp, #12
  50 0016 1847     		bx	r3
  51              	.L3:
  52              		.align	2
  53              	.L2:
  54 0018 00000000 		.word	.LC0
  55              		.cfi_endproc
  56              	.LFE49:
  57              		.size	chprintf.constprop.0, .-chprintf.constprop.0
ARM GAS  /var/folders/qh/xwg3v3kj02qbxczjpdb8lzfr0000gn/T//ccCZhKSZ.s 			page 2


  58 001c C046C046 		.section	.text.cmdGetTemp,"ax",%progbits
  59              		.align	2
  60              		.p2align 4,,15
  61              		.global	cmdGetTemp
  62              		.code	16
  63              		.thumb_func
  64              		.type	cmdGetTemp, %function
  65              	cmdGetTemp:
  66              	.LFB41:
  67              		.file 2 "cmd.c"
  68              		.loc 2 13 0
  69              		.cfi_startproc
  70              	.LVL2:
  71 0000 00B5     		push	{lr}
  72              		.cfi_def_cfa_offset 4
  73              		.cfi_offset 14, -4
  74              		.loc 2 14 0
  75 0002 0023     		mov	r3, #0
  76              		.loc 2 13 0
  77 0004 83B0     		sub	sp, sp, #12
  78              		.cfi_def_cfa_offset 16
  79              		.loc 2 14 0
  80 0006 9821     		mov	r1, #152
  81              	.LVL3:
  82 0008 0093     		str	r3, [sp]
  83 000a 4900     		lsl	r1, r1, #1
  84 000c 4022     		mov	r2, #64
  85              	.LVL4:
  86 000e 054B     		ldr	r3, .L5
  87 0010 0548     		ldr	r0, .L5+4
  88              	.LVL5:
  89 0012 FFF7FEFF 		bl	chThdCreateStatic
  90              	.LVL6:
  91              		.loc 2 19 0
  92 0016 FA20     		mov	r0, #250
  93 0018 4000     		lsl	r0, r0, #1
  94 001a FFF7FEFF 		bl	chThdSleep
  95              	.LVL7:
  96              		.loc 2 20 0
  97 001e 03B0     		add	sp, sp, #12
  98              		@ sp needed
  99 0020 00BD     		pop	{pc}
 100              	.L6:
 101 0022 C046     		.align	2
 102              	.L5:
 103 0024 00000000 		.word	adcConversionThread
 104 0028 00000000 		.word	.LANCHOR0
 105              		.cfi_endproc
 106              	.LFE41:
 107              		.size	cmdGetTemp, .-cmdGetTemp
 108 002c C046C046 		.section	.text.cmdGetVoltage,"ax",%progbits
 109              		.align	2
 110              		.p2align 4,,15
 111              		.global	cmdGetVoltage
 112              		.code	16
 113              		.thumb_func
 114              		.type	cmdGetVoltage, %function
ARM GAS  /var/folders/qh/xwg3v3kj02qbxczjpdb8lzfr0000gn/T//ccCZhKSZ.s 			page 3


 115              	cmdGetVoltage:
 116              	.LFB42:
 117              		.loc 2 23 0
 118              		.cfi_startproc
 119              	.LVL8:
 120 0000 08B5     		push	{r3, lr}
 121              		.cfi_def_cfa_offset 8
 122              		.cfi_offset 3, -8
 123              		.cfi_offset 14, -4
 124              		.loc 2 24 0
 125 0002 0249     		ldr	r1, .L8
 126              	.LVL9:
 127 0004 FFF7FEFF 		bl	chprintf.constprop.0
 128              	.LVL10:
 129              		.loc 2 26 0
 130              		@ sp needed
 131 0008 08BD     		pop	{r3, pc}
 132              	.L9:
 133 000a C046     		.align	2
 134              	.L8:
 135 000c 00000000 		.word	.LC0
 136              		.cfi_endproc
 137              	.LFE42:
 138              		.size	cmdGetVoltage, .-cmdGetVoltage
 139              		.section	.text.cmdGetBattery,"ax",%progbits
 140              		.align	2
 141              		.p2align 4,,15
 142              		.global	cmdGetBattery
 143              		.code	16
 144              		.thumb_func
 145              		.type	cmdGetBattery, %function
 146              	cmdGetBattery:
 147              	.LFB43:
 148              		.loc 2 29 0
 149              		.cfi_startproc
 150              	.LVL11:
 151 0000 08B5     		push	{r3, lr}
 152              		.cfi_def_cfa_offset 8
 153              		.cfi_offset 3, -8
 154              		.cfi_offset 14, -4
 155              		.loc 2 30 0
 156 0002 0249     		ldr	r1, .L11
 157              	.LVL12:
 158 0004 FFF7FEFF 		bl	chprintf.constprop.0
 159              	.LVL13:
 160              		.loc 2 32 0
 161              		@ sp needed
 162 0008 08BD     		pop	{r3, pc}
 163              	.L12:
 164 000a C046     		.align	2
 165              	.L11:
 166 000c 00000000 		.word	.LC0
 167              		.cfi_endproc
 168              	.LFE43:
 169              		.size	cmdGetBattery, .-cmdGetBattery
 170              		.section	.text.cmdAdc,"ax",%progbits
 171              		.align	2
ARM GAS  /var/folders/qh/xwg3v3kj02qbxczjpdb8lzfr0000gn/T//ccCZhKSZ.s 			page 4


 172              		.p2align 4,,15
 173              		.global	cmdAdc
 174              		.code	16
 175              		.thumb_func
 176              		.type	cmdAdc, %function
 177              	cmdAdc:
 178              	.LFB44:
 179              		.loc 2 42 0
 180              		.cfi_startproc
 181              	.LVL14:
 182 0000 08B5     		push	{r3, lr}
 183              		.cfi_def_cfa_offset 8
 184              		.cfi_offset 3, -8
 185              		.cfi_offset 14, -4
 186              		.loc 2 43 0
 187 0002 0249     		ldr	r1, .L14
 188              	.LVL15:
 189 0004 FFF7FEFF 		bl	chprintf.constprop.0
 190              	.LVL16:
 191              		.loc 2 45 0
 192              		@ sp needed
 193 0008 08BD     		pop	{r3, pc}
 194              	.L15:
 195 000a C046     		.align	2
 196              	.L14:
 197 000c 00000000 		.word	.LC0
 198              		.cfi_endproc
 199              	.LFE44:
 200              		.size	cmdAdc, .-cmdAdc
 201              		.section	.text.cmdPwm,"ax",%progbits
 202              		.align	2
 203              		.p2align 4,,15
 204              		.global	cmdPwm
 205              		.code	16
 206              		.thumb_func
 207              		.type	cmdPwm, %function
 208              	cmdPwm:
 209              	.LFB45:
 210              		.loc 2 48 0
 211              		.cfi_startproc
 212              	.LVL17:
 213 0000 08B5     		push	{r3, lr}
 214              		.cfi_def_cfa_offset 8
 215              		.cfi_offset 3, -8
 216              		.cfi_offset 14, -4
 217              		.loc 2 49 0
 218 0002 0249     		ldr	r1, .L17
 219              	.LVL18:
 220 0004 FFF7FEFF 		bl	chprintf.constprop.0
 221              	.LVL19:
 222              		.loc 2 51 0
 223              		@ sp needed
 224 0008 08BD     		pop	{r3, pc}
 225              	.L18:
 226 000a C046     		.align	2
 227              	.L17:
 228 000c 00000000 		.word	.LC0
ARM GAS  /var/folders/qh/xwg3v3kj02qbxczjpdb8lzfr0000gn/T//ccCZhKSZ.s 			page 5


 229              		.cfi_endproc
 230              	.LFE45:
 231              		.size	cmdPwm, .-cmdPwm
 232              		.section	.text.cmdUart,"ax",%progbits
 233              		.align	2
 234              		.p2align 4,,15
 235              		.global	cmdUart
 236              		.code	16
 237              		.thumb_func
 238              		.type	cmdUart, %function
 239              	cmdUart:
 240              	.LFB46:
 241              		.loc 2 54 0
 242              		.cfi_startproc
 243              	.LVL20:
 244 0000 08B5     		push	{r3, lr}
 245              		.cfi_def_cfa_offset 8
 246              		.cfi_offset 3, -8
 247              		.cfi_offset 14, -4
 248              		.loc 2 55 0
 249 0002 0249     		ldr	r1, .L20
 250              	.LVL21:
 251 0004 FFF7FEFF 		bl	chprintf.constprop.0
 252              	.LVL22:
 253              		.loc 2 57 0
 254              		@ sp needed
 255 0008 08BD     		pop	{r3, pc}
 256              	.L21:
 257 000a C046     		.align	2
 258              	.L20:
 259 000c 00000000 		.word	.LC0
 260              		.cfi_endproc
 261              	.LFE46:
 262              		.size	cmdUart, .-cmdUart
 263              		.section	.text.cmdSpi,"ax",%progbits
 264              		.align	2
 265              		.p2align 4,,15
 266              		.global	cmdSpi
 267              		.code	16
 268              		.thumb_func
 269              		.type	cmdSpi, %function
 270              	cmdSpi:
 271              	.LFB47:
 272              		.loc 2 60 0
 273              		.cfi_startproc
 274              	.LVL23:
 275 0000 08B5     		push	{r3, lr}
 276              		.cfi_def_cfa_offset 8
 277              		.cfi_offset 3, -8
 278              		.cfi_offset 14, -4
 279              		.loc 2 61 0
 280 0002 0249     		ldr	r1, .L23
 281              	.LVL24:
 282 0004 FFF7FEFF 		bl	chprintf.constprop.0
 283              	.LVL25:
 284              		.loc 2 63 0
 285              		@ sp needed
ARM GAS  /var/folders/qh/xwg3v3kj02qbxczjpdb8lzfr0000gn/T//ccCZhKSZ.s 			page 6


 286 0008 08BD     		pop	{r3, pc}
 287              	.L24:
 288 000a C046     		.align	2
 289              	.L23:
 290 000c 00000000 		.word	.LC0
 291              		.cfi_endproc
 292              	.LFE47:
 293              		.size	cmdSpi, .-cmdSpi
 294              		.section	.text.cmdBluetooth,"ax",%progbits
 295              		.align	2
 296              		.p2align 4,,15
 297              		.global	cmdBluetooth
 298              		.code	16
 299              		.thumb_func
 300              		.type	cmdBluetooth, %function
 301              	cmdBluetooth:
 302              	.LFB48:
 303              		.loc 2 66 0
 304              		.cfi_startproc
 305              	.LVL26:
 306 0000 08B5     		push	{r3, lr}
 307              		.cfi_def_cfa_offset 8
 308              		.cfi_offset 3, -8
 309              		.cfi_offset 14, -4
 310              		.loc 2 67 0
 311 0002 0249     		ldr	r1, .L26
 312              	.LVL27:
 313 0004 FFF7FEFF 		bl	chprintf.constprop.0
 314              	.LVL28:
 315              		.loc 2 69 0
 316              		@ sp needed
 317 0008 08BD     		pop	{r3, pc}
 318              	.L27:
 319 000a C046     		.align	2
 320              	.L26:
 321 000c 00000000 		.word	.LC0
 322              		.cfi_endproc
 323              	.LFE48:
 324              		.size	cmdBluetooth, .-cmdBluetooth
 325              		.section	.bss.adcTempArea,"aw",%nobits
 326              		.align	3
 327              		.set	.LANCHOR0,. + 0
 328              		.type	adcTempArea, %object
 329              		.size	adcTempArea, 304
 330              	adcTempArea:
 331 0000 00000000 		.space	304
 331      00000000 
 331      00000000 
 331      00000000 
 331      00000000 
 332              		.section	.rodata.str1.4,"aMS",%progbits,1
 333              		.align	2
 334              	.LC0:
 335 0000 48656C6C 		.ascii	"Hello World\000"
 335      6F20576F 
 335      726C6400 
 336              		.text
ARM GAS  /var/folders/qh/xwg3v3kj02qbxczjpdb8lzfr0000gn/T//ccCZhKSZ.s 			page 7


 337              	.Letext0:
 338              		.file 3 "/usr/local/Cellar/gcc-arm-none-eabi-48/20131218/lib/gcc/arm-none-eabi/4.8.3/include/stdde
 339              		.file 4 "/usr/local/Cellar/gcc-arm-none-eabi-48/20131218/arm-none-eabi/include/stdint.h"
 340              		.file 5 "../../os/ports/GCC/ARMCMx/chtypes.h"
 341              		.file 6 "../../os/kernel/include/chlists.h"
 342              		.file 7 "../../os/kernel/include/chthreads.h"
 343              		.file 8 "../../os/ports/GCC/ARMCMx/chcore_v6m.h"
 344              		.file 9 "../../os/kernel/include/chmtx.h"
 345              		.file 10 "../../os/kernel/include/chstreams.h"
 346              		.file 11 "/usr/local/Cellar/gcc-arm-none-eabi-48/20131218/lib/gcc/arm-none-eabi/4.8.3/include/stda
 347              		.file 12 "<built-in>"
 348              		.section	.debug_info,"",%progbits
 349              	.Ldebug_info0:
 350 0000 D1080000 		.4byte	0x8d1
 351 0004 0400     		.2byte	0x4
 352 0006 00000000 		.4byte	.Ldebug_abbrev0
 353 000a 04       		.byte	0x4
 354 000b 01       		.uleb128 0x1
 355 000c 04010000 		.4byte	.LASF78
 356 0010 01       		.byte	0x1
 357 0011 54000000 		.4byte	.LASF79
 358 0015 49020000 		.4byte	.LASF80
 359 0019 00000000 		.4byte	.Ldebug_ranges0+0
 360 001d 00000000 		.4byte	0
 361 0021 00000000 		.4byte	.Ldebug_line0
 362 0025 02       		.uleb128 0x2
 363 0026 04       		.byte	0x4
 364 0027 05       		.byte	0x5
 365 0028 696E7400 		.ascii	"int\000"
 366 002c 03       		.uleb128 0x3
 367 002d 4D000000 		.4byte	.LASF2
 368 0031 03       		.byte	0x3
 369 0032 D4       		.byte	0xd4
 370 0033 37000000 		.4byte	0x37
 371 0037 04       		.uleb128 0x4
 372 0038 04       		.byte	0x4
 373 0039 07       		.byte	0x7
 374 003a D2020000 		.4byte	.LASF0
 375 003e 04       		.uleb128 0x4
 376 003f 01       		.byte	0x1
 377 0040 06       		.byte	0x6
 378 0041 9E020000 		.4byte	.LASF1
 379 0045 03       		.uleb128 0x3
 380 0046 D7000000 		.4byte	.LASF3
 381 004a 04       		.byte	0x4
 382 004b 2A       		.byte	0x2a
 383 004c 50000000 		.4byte	0x50
 384 0050 04       		.uleb128 0x4
 385 0051 01       		.byte	0x1
 386 0052 08       		.byte	0x8
 387 0053 84020000 		.4byte	.LASF4
 388 0057 04       		.uleb128 0x4
 389 0058 02       		.byte	0x2
 390 0059 05       		.byte	0x5
 391 005a 43000000 		.4byte	.LASF5
 392 005e 04       		.uleb128 0x4
 393 005f 02       		.byte	0x2
ARM GAS  /var/folders/qh/xwg3v3kj02qbxczjpdb8lzfr0000gn/T//ccCZhKSZ.s 			page 8


 394 0060 07       		.byte	0x7
 395 0061 FF020000 		.4byte	.LASF6
 396 0065 03       		.uleb128 0x3
 397 0066 FC000000 		.4byte	.LASF7
 398 006a 04       		.byte	0x4
 399 006b 4F       		.byte	0x4f
 400 006c 70000000 		.4byte	0x70
 401 0070 04       		.uleb128 0x4
 402 0071 04       		.byte	0x4
 403 0072 05       		.byte	0x5
 404 0073 19020000 		.4byte	.LASF8
 405 0077 03       		.uleb128 0x3
 406 0078 C9020000 		.4byte	.LASF9
 407 007c 04       		.byte	0x4
 408 007d 50       		.byte	0x50
 409 007e 82000000 		.4byte	0x82
 410 0082 04       		.uleb128 0x4
 411 0083 04       		.byte	0x4
 412 0084 07       		.byte	0x7
 413 0085 98030000 		.4byte	.LASF10
 414 0089 04       		.uleb128 0x4
 415 008a 08       		.byte	0x8
 416 008b 05       		.byte	0x5
 417 008c F2010000 		.4byte	.LASF11
 418 0090 03       		.uleb128 0x3
 419 0091 2E000000 		.4byte	.LASF12
 420 0095 04       		.byte	0x4
 421 0096 78       		.byte	0x78
 422 0097 9B000000 		.4byte	0x9b
 423 009b 04       		.uleb128 0x4
 424 009c 08       		.byte	0x8
 425 009d 07       		.byte	0x7
 426 009e B2020000 		.4byte	.LASF13
 427 00a2 04       		.uleb128 0x4
 428 00a3 01       		.byte	0x1
 429 00a4 02       		.byte	0x2
 430 00a5 60030000 		.4byte	.LASF14
 431 00a9 03       		.uleb128 0x3
 432 00aa EA010000 		.4byte	.LASF15
 433 00ae 05       		.byte	0x5
 434 00af 25       		.byte	0x25
 435 00b0 45000000 		.4byte	0x45
 436 00b4 03       		.uleb128 0x3
 437 00b5 BE030000 		.4byte	.LASF16
 438 00b9 05       		.byte	0x5
 439 00ba 26       		.byte	0x26
 440 00bb 45000000 		.4byte	0x45
 441 00bf 03       		.uleb128 0x3
 442 00c0 00000000 		.4byte	.LASF17
 443 00c4 05       		.byte	0x5
 444 00c5 27       		.byte	0x27
 445 00c6 45000000 		.4byte	0x45
 446 00ca 03       		.uleb128 0x3
 447 00cb F2000000 		.4byte	.LASF18
 448 00cf 05       		.byte	0x5
 449 00d0 28       		.byte	0x28
 450 00d1 45000000 		.4byte	0x45
ARM GAS  /var/folders/qh/xwg3v3kj02qbxczjpdb8lzfr0000gn/T//ccCZhKSZ.s 			page 9


 451 00d5 03       		.uleb128 0x3
 452 00d6 07020000 		.4byte	.LASF19
 453 00da 05       		.byte	0x5
 454 00db 29       		.byte	0x29
 455 00dc 77000000 		.4byte	0x77
 456 00e0 03       		.uleb128 0x3
 457 00e1 13040000 		.4byte	.LASF20
 458 00e5 05       		.byte	0x5
 459 00e6 2A       		.byte	0x2a
 460 00e7 65000000 		.4byte	0x65
 461 00eb 03       		.uleb128 0x3
 462 00ec 9A000000 		.4byte	.LASF21
 463 00f0 05       		.byte	0x5
 464 00f1 2C       		.byte	0x2c
 465 00f2 77000000 		.4byte	0x77
 466 00f6 03       		.uleb128 0x3
 467 00f7 2F030000 		.4byte	.LASF22
 468 00fb 05       		.byte	0x5
 469 00fc 2E       		.byte	0x2e
 470 00fd 77000000 		.4byte	0x77
 471 0101 03       		.uleb128 0x3
 472 0102 C7030000 		.4byte	.LASF23
 473 0106 06       		.byte	0x6
 474 0107 23       		.byte	0x23
 475 0108 0C010000 		.4byte	0x10c
 476 010c 05       		.uleb128 0x5
 477 010d C7030000 		.4byte	.LASF23
 478 0111 48       		.byte	0x48
 479 0112 07       		.byte	0x7
 480 0113 57       		.byte	0x57
 481 0114 09020000 		.4byte	0x209
 482 0118 06       		.uleb128 0x6
 483 0119 B8000000 		.4byte	.LASF24
 484 011d 07       		.byte	0x7
 485 011e 58       		.byte	0x58
 486 011f 2A020000 		.4byte	0x22a
 487 0123 00       		.byte	0
 488 0124 06       		.uleb128 0x6
 489 0125 65000000 		.4byte	.LASF25
 490 0129 07       		.byte	0x7
 491 012a 5A       		.byte	0x5a
 492 012b 2A020000 		.4byte	0x22a
 493 012f 04       		.byte	0x4
 494 0130 06       		.uleb128 0x6
 495 0131 B1000000 		.4byte	.LASF26
 496 0135 07       		.byte	0x7
 497 0136 5C       		.byte	0x5c
 498 0137 D5000000 		.4byte	0xd5
 499 013b 08       		.byte	0x8
 500 013c 06       		.uleb128 0x6
 501 013d FE030000 		.4byte	.LASF27
 502 0141 07       		.byte	0x7
 503 0142 5D       		.byte	0x5d
 504 0143 E5020000 		.4byte	0x2e5
 505 0147 0C       		.byte	0xc
 506 0148 06       		.uleb128 0x6
 507 0149 AA020000 		.4byte	.LASF28
ARM GAS  /var/folders/qh/xwg3v3kj02qbxczjpdb8lzfr0000gn/T//ccCZhKSZ.s 			page 10


 508 014d 07       		.byte	0x7
 509 014e 5F       		.byte	0x5f
 510 014f 2A020000 		.4byte	0x22a
 511 0153 10       		.byte	0x10
 512 0154 06       		.uleb128 0x6
 513 0155 EF030000 		.4byte	.LASF29
 514 0159 07       		.byte	0x7
 515 015a 60       		.byte	0x60
 516 015b 2A020000 		.4byte	0x22a
 517 015f 14       		.byte	0x14
 518 0160 06       		.uleb128 0x6
 519 0161 00020000 		.4byte	.LASF30
 520 0165 07       		.byte	0x7
 521 0166 67       		.byte	0x67
 522 0167 87030000 		.4byte	0x387
 523 016b 18       		.byte	0x18
 524 016c 06       		.uleb128 0x6
 525 016d 4B030000 		.4byte	.LASF31
 526 0171 07       		.byte	0x7
 527 0172 72       		.byte	0x72
 528 0173 B4000000 		.4byte	0xb4
 529 0177 1C       		.byte	0x1c
 530 0178 06       		.uleb128 0x6
 531 0179 12030000 		.4byte	.LASF32
 532 017d 07       		.byte	0x7
 533 017e 76       		.byte	0x76
 534 017f A9000000 		.4byte	0xa9
 535 0183 1D       		.byte	0x1d
 536 0184 06       		.uleb128 0x6
 537 0185 F7030000 		.4byte	.LASF33
 538 0189 07       		.byte	0x7
 539 018a 7B       		.byte	0x7b
 540 018b BF000000 		.4byte	0xbf
 541 018f 1E       		.byte	0x1e
 542 0190 06       		.uleb128 0x6
 543 0191 1A030000 		.4byte	.LASF34
 544 0195 07       		.byte	0x7
 545 0196 81       		.byte	0x81
 546 0197 CA000000 		.4byte	0xca
 547 019b 1F       		.byte	0x1f
 548 019c 06       		.uleb128 0x6
 549 019d DE010000 		.4byte	.LASF35
 550 01a1 07       		.byte	0x7
 551 01a2 88       		.byte	0x88
 552 01a3 0B030000 		.4byte	0x30b
 553 01a7 20       		.byte	0x20
 554 01a8 07       		.uleb128 0x7
 555 01a9 705F7500 		.ascii	"p_u\000"
 556 01ad 07       		.byte	0x7
 557 01ae AD       		.byte	0xad
 558 01af 52030000 		.4byte	0x352
 559 01b3 24       		.byte	0x24
 560 01b4 06       		.uleb128 0x6
 561 01b5 6F030000 		.4byte	.LASF36
 562 01b9 07       		.byte	0x7
 563 01ba B2       		.byte	0xb2
 564 01bb 50020000 		.4byte	0x250
ARM GAS  /var/folders/qh/xwg3v3kj02qbxczjpdb8lzfr0000gn/T//ccCZhKSZ.s 			page 11


 565 01bf 28       		.byte	0x28
 566 01c0 06       		.uleb128 0x6
 567 01c1 A6000000 		.4byte	.LASF37
 568 01c5 07       		.byte	0x7
 569 01c6 B8       		.byte	0xb8
 570 01c7 30020000 		.4byte	0x230
 571 01cb 2C       		.byte	0x2c
 572 01cc 06       		.uleb128 0x6
 573 01cd 43020000 		.4byte	.LASF38
 574 01d1 07       		.byte	0x7
 575 01d2 BC       		.byte	0xbc
 576 01d3 E0000000 		.4byte	0xe0
 577 01d7 34       		.byte	0x34
 578 01d8 06       		.uleb128 0x6
 579 01d9 5A000000 		.4byte	.LASF39
 580 01dd 07       		.byte	0x7
 581 01de C2       		.byte	0xc2
 582 01df EB000000 		.4byte	0xeb
 583 01e3 38       		.byte	0x38
 584 01e4 06       		.uleb128 0x6
 585 01e5 79030000 		.4byte	.LASF40
 586 01e9 07       		.byte	0x7
 587 01ea C9       		.byte	0xc9
 588 01eb 99030000 		.4byte	0x399
 589 01ef 3C       		.byte	0x3c
 590 01f0 06       		.uleb128 0x6
 591 01f1 24030000 		.4byte	.LASF41
 592 01f5 07       		.byte	0x7
 593 01f6 CD       		.byte	0xcd
 594 01f7 D5000000 		.4byte	0xd5
 595 01fb 40       		.byte	0x40
 596 01fc 06       		.uleb128 0x6
 597 01fd EF020000 		.4byte	.LASF42
 598 0201 07       		.byte	0x7
 599 0202 D3       		.byte	0xd3
 600 0203 66020000 		.4byte	0x266
 601 0207 44       		.byte	0x44
 602 0208 00       		.byte	0
 603 0209 08       		.uleb128 0x8
 604 020a 08       		.byte	0x8
 605 020b 06       		.byte	0x6
 606 020c 5A       		.byte	0x5a
 607 020d 2A020000 		.4byte	0x22a
 608 0211 06       		.uleb128 0x6
 609 0212 B8000000 		.4byte	.LASF24
 610 0216 06       		.byte	0x6
 611 0217 5B       		.byte	0x5b
 612 0218 2A020000 		.4byte	0x22a
 613 021c 00       		.byte	0
 614 021d 06       		.uleb128 0x6
 615 021e 65000000 		.4byte	.LASF25
 616 0222 06       		.byte	0x6
 617 0223 5D       		.byte	0x5d
 618 0224 2A020000 		.4byte	0x22a
 619 0228 04       		.byte	0x4
 620 0229 00       		.byte	0
 621 022a 09       		.uleb128 0x9
ARM GAS  /var/folders/qh/xwg3v3kj02qbxczjpdb8lzfr0000gn/T//ccCZhKSZ.s 			page 12


 622 022b 04       		.byte	0x4
 623 022c 01010000 		.4byte	0x101
 624 0230 03       		.uleb128 0x3
 625 0231 53030000 		.4byte	.LASF43
 626 0235 06       		.byte	0x6
 627 0236 5F       		.byte	0x5f
 628 0237 09020000 		.4byte	0x209
 629 023b 08       		.uleb128 0x8
 630 023c 04       		.byte	0x4
 631 023d 06       		.byte	0x6
 632 023e 64       		.byte	0x64
 633 023f 50020000 		.4byte	0x250
 634 0243 06       		.uleb128 0x6
 635 0244 B8000000 		.4byte	.LASF24
 636 0248 06       		.byte	0x6
 637 0249 66       		.byte	0x66
 638 024a 2A020000 		.4byte	0x22a
 639 024e 00       		.byte	0
 640 024f 00       		.byte	0
 641 0250 03       		.uleb128 0x3
 642 0251 37000000 		.4byte	.LASF44
 643 0255 06       		.byte	0x6
 644 0256 69       		.byte	0x69
 645 0257 3B020000 		.4byte	0x23b
 646 025b 03       		.uleb128 0x3
 647 025c CE000000 		.4byte	.LASF45
 648 0260 08       		.byte	0x8
 649 0261 A0       		.byte	0xa0
 650 0262 66020000 		.4byte	0x266
 651 0266 0A       		.uleb128 0xa
 652 0267 04       		.byte	0x4
 653 0268 03       		.uleb128 0x3
 654 0269 E4020000 		.4byte	.LASF46
 655 026d 08       		.byte	0x8
 656 026e A6       		.byte	0xa6
 657 026f 90000000 		.4byte	0x90
 658 0273 05       		.uleb128 0x5
 659 0274 83030000 		.4byte	.LASF47
 660 0278 24       		.byte	0x24
 661 0279 08       		.byte	0x8
 662 027a B3       		.byte	0xb3
 663 027b E5020000 		.4byte	0x2e5
 664 027f 07       		.uleb128 0x7
 665 0280 723800   		.ascii	"r8\000"
 666 0283 08       		.byte	0x8
 667 0284 B4       		.byte	0xb4
 668 0285 5B020000 		.4byte	0x25b
 669 0289 00       		.byte	0
 670 028a 07       		.uleb128 0x7
 671 028b 723900   		.ascii	"r9\000"
 672 028e 08       		.byte	0x8
 673 028f B5       		.byte	0xb5
 674 0290 5B020000 		.4byte	0x25b
 675 0294 04       		.byte	0x4
 676 0295 07       		.uleb128 0x7
 677 0296 72313000 		.ascii	"r10\000"
 678 029a 08       		.byte	0x8
ARM GAS  /var/folders/qh/xwg3v3kj02qbxczjpdb8lzfr0000gn/T//ccCZhKSZ.s 			page 13


 679 029b B6       		.byte	0xb6
 680 029c 5B020000 		.4byte	0x25b
 681 02a0 08       		.byte	0x8
 682 02a1 07       		.uleb128 0x7
 683 02a2 72313100 		.ascii	"r11\000"
 684 02a6 08       		.byte	0x8
 685 02a7 B7       		.byte	0xb7
 686 02a8 5B020000 		.4byte	0x25b
 687 02ac 0C       		.byte	0xc
 688 02ad 07       		.uleb128 0x7
 689 02ae 723400   		.ascii	"r4\000"
 690 02b1 08       		.byte	0x8
 691 02b2 B8       		.byte	0xb8
 692 02b3 5B020000 		.4byte	0x25b
 693 02b7 10       		.byte	0x10
 694 02b8 07       		.uleb128 0x7
 695 02b9 723500   		.ascii	"r5\000"
 696 02bc 08       		.byte	0x8
 697 02bd B9       		.byte	0xb9
 698 02be 5B020000 		.4byte	0x25b
 699 02c2 14       		.byte	0x14
 700 02c3 07       		.uleb128 0x7
 701 02c4 723600   		.ascii	"r6\000"
 702 02c7 08       		.byte	0x8
 703 02c8 BA       		.byte	0xba
 704 02c9 5B020000 		.4byte	0x25b
 705 02cd 18       		.byte	0x18
 706 02ce 07       		.uleb128 0x7
 707 02cf 723700   		.ascii	"r7\000"
 708 02d2 08       		.byte	0x8
 709 02d3 BB       		.byte	0xbb
 710 02d4 5B020000 		.4byte	0x25b
 711 02d8 1C       		.byte	0x1c
 712 02d9 07       		.uleb128 0x7
 713 02da 6C7200   		.ascii	"lr\000"
 714 02dd 08       		.byte	0x8
 715 02de BC       		.byte	0xbc
 716 02df 5B020000 		.4byte	0x25b
 717 02e3 20       		.byte	0x20
 718 02e4 00       		.byte	0
 719 02e5 05       		.uleb128 0x5
 720 02e6 30020000 		.4byte	.LASF48
 721 02ea 04       		.byte	0x4
 722 02eb 08       		.byte	0x8
 723 02ec C6       		.byte	0xc6
 724 02ed FE020000 		.4byte	0x2fe
 725 02f1 07       		.uleb128 0x7
 726 02f2 72313300 		.ascii	"r13\000"
 727 02f6 08       		.byte	0x8
 728 02f7 C7       		.byte	0xc7
 729 02f8 FE020000 		.4byte	0x2fe
 730 02fc 00       		.byte	0
 731 02fd 00       		.byte	0
 732 02fe 09       		.uleb128 0x9
 733 02ff 04       		.byte	0x4
 734 0300 73020000 		.4byte	0x273
 735 0304 04       		.uleb128 0x4
ARM GAS  /var/folders/qh/xwg3v3kj02qbxczjpdb8lzfr0000gn/T//ccCZhKSZ.s 			page 14


 736 0305 04       		.byte	0x4
 737 0306 07       		.byte	0x7
 738 0307 D7030000 		.4byte	.LASF49
 739 030b 0B       		.uleb128 0xb
 740 030c F6000000 		.4byte	0xf6
 741 0310 05       		.uleb128 0x5
 742 0311 22020000 		.4byte	.LASF50
 743 0315 10       		.byte	0x10
 744 0316 09       		.byte	0x9
 745 0317 25       		.byte	0x25
 746 0318 41030000 		.4byte	0x341
 747 031c 06       		.uleb128 0x6
 748 031d 28020000 		.4byte	.LASF51
 749 0321 09       		.byte	0x9
 750 0322 26       		.byte	0x26
 751 0323 30020000 		.4byte	0x230
 752 0327 00       		.byte	0
 753 0328 06       		.uleb128 0x6
 754 0329 04040000 		.4byte	.LASF52
 755 032d 09       		.byte	0x9
 756 032e 28       		.byte	0x28
 757 032f 2A020000 		.4byte	0x22a
 758 0333 08       		.byte	0x8
 759 0334 06       		.uleb128 0x6
 760 0335 08000000 		.4byte	.LASF53
 761 0339 09       		.byte	0x9
 762 033a 2A       		.byte	0x2a
 763 033b 41030000 		.4byte	0x341
 764 033f 0C       		.byte	0xc
 765 0340 00       		.byte	0
 766 0341 09       		.uleb128 0x9
 767 0342 04       		.byte	0x4
 768 0343 10030000 		.4byte	0x310
 769 0347 03       		.uleb128 0x3
 770 0348 22020000 		.4byte	.LASF50
 771 034c 09       		.byte	0x9
 772 034d 2C       		.byte	0x2c
 773 034e 10030000 		.4byte	0x310
 774 0352 0C       		.uleb128 0xc
 775 0353 04       		.byte	0x4
 776 0354 07       		.byte	0x7
 777 0355 8F       		.byte	0x8f
 778 0356 87030000 		.4byte	0x387
 779 035a 0D       		.uleb128 0xd
 780 035b 0C040000 		.4byte	.LASF54
 781 035f 07       		.byte	0x7
 782 0360 96       		.byte	0x96
 783 0361 E0000000 		.4byte	0xe0
 784 0365 0D       		.uleb128 0xd
 785 0366 CE030000 		.4byte	.LASF55
 786 036a 07       		.byte	0x7
 787 036b 9D       		.byte	0x9d
 788 036c E0000000 		.4byte	0xe0
 789 0370 0D       		.uleb128 0xd
 790 0371 B7030000 		.4byte	.LASF56
 791 0375 07       		.byte	0x7
 792 0376 A4       		.byte	0xa4
ARM GAS  /var/folders/qh/xwg3v3kj02qbxczjpdb8lzfr0000gn/T//ccCZhKSZ.s 			page 15


 793 0377 66020000 		.4byte	0x266
 794 037b 0D       		.uleb128 0xd
 795 037c 92020000 		.4byte	.LASF57
 796 0380 07       		.byte	0x7
 797 0381 AB       		.byte	0xab
 798 0382 EB000000 		.4byte	0xeb
 799 0386 00       		.byte	0
 800 0387 09       		.uleb128 0x9
 801 0388 04       		.byte	0x4
 802 0389 8D030000 		.4byte	0x38d
 803 038d 0E       		.uleb128 0xe
 804 038e 92030000 		.4byte	0x392
 805 0392 04       		.uleb128 0x4
 806 0393 01       		.byte	0x1
 807 0394 08       		.byte	0x8
 808 0395 3E030000 		.4byte	.LASF58
 809 0399 09       		.uleb128 0x9
 810 039a 04       		.byte	0x4
 811 039b 47030000 		.4byte	0x347
 812 039f 03       		.uleb128 0x3
 813 03a0 43030000 		.4byte	.LASF59
 814 03a4 07       		.byte	0x7
 815 03a5 DE       		.byte	0xde
 816 03a6 AA030000 		.4byte	0x3aa
 817 03aa 09       		.uleb128 0x9
 818 03ab 04       		.byte	0x4
 819 03ac B0030000 		.4byte	0x3b0
 820 03b0 0F       		.uleb128 0xf
 821 03b1 E0000000 		.4byte	0xe0
 822 03b5 BF030000 		.4byte	0x3bf
 823 03b9 10       		.uleb128 0x10
 824 03ba 66020000 		.4byte	0x266
 825 03be 00       		.byte	0
 826 03bf 09       		.uleb128 0x9
 827 03c0 04       		.byte	0x4
 828 03c1 45000000 		.4byte	0x45
 829 03c5 05       		.uleb128 0x5
 830 03c6 19040000 		.4byte	.LASF60
 831 03ca 10       		.byte	0x10
 832 03cb 0A       		.byte	0xa
 833 03cc 41       		.byte	0x41
 834 03cd 02040000 		.4byte	0x402
 835 03d1 06       		.uleb128 0x6
 836 03d2 AA030000 		.4byte	.LASF61
 837 03d6 0A       		.byte	0xa
 838 03d7 42       		.byte	0x42
 839 03d8 26040000 		.4byte	0x426
 840 03dc 00       		.byte	0
 841 03dd 06       		.uleb128 0x6
 842 03de 99020000 		.4byte	.LASF62
 843 03e2 0A       		.byte	0xa
 844 03e3 42       		.byte	0x42
 845 03e4 45040000 		.4byte	0x445
 846 03e8 04       		.byte	0x4
 847 03e9 07       		.uleb128 0x7
 848 03ea 70757400 		.ascii	"put\000"
 849 03ee 0A       		.byte	0xa
ARM GAS  /var/folders/qh/xwg3v3kj02qbxczjpdb8lzfr0000gn/T//ccCZhKSZ.s 			page 16


 850 03ef 42       		.byte	0x42
 851 03f0 5F040000 		.4byte	0x45f
 852 03f4 08       		.byte	0x8
 853 03f5 07       		.uleb128 0x7
 854 03f6 67657400 		.ascii	"get\000"
 855 03fa 0A       		.byte	0xa
 856 03fb 42       		.byte	0x42
 857 03fc AA030000 		.4byte	0x3aa
 858 0400 0C       		.byte	0xc
 859 0401 00       		.byte	0
 860 0402 0F       		.uleb128 0xf
 861 0403 2C000000 		.4byte	0x2c
 862 0407 1B040000 		.4byte	0x41b
 863 040b 10       		.uleb128 0x10
 864 040c 66020000 		.4byte	0x266
 865 0410 10       		.uleb128 0x10
 866 0411 1B040000 		.4byte	0x41b
 867 0415 10       		.uleb128 0x10
 868 0416 2C000000 		.4byte	0x2c
 869 041a 00       		.byte	0
 870 041b 09       		.uleb128 0x9
 871 041c 04       		.byte	0x4
 872 041d 21040000 		.4byte	0x421
 873 0421 0E       		.uleb128 0xe
 874 0422 45000000 		.4byte	0x45
 875 0426 09       		.uleb128 0x9
 876 0427 04       		.byte	0x4
 877 0428 02040000 		.4byte	0x402
 878 042c 0F       		.uleb128 0xf
 879 042d 2C000000 		.4byte	0x2c
 880 0431 45040000 		.4byte	0x445
 881 0435 10       		.uleb128 0x10
 882 0436 66020000 		.4byte	0x266
 883 043a 10       		.uleb128 0x10
 884 043b BF030000 		.4byte	0x3bf
 885 043f 10       		.uleb128 0x10
 886 0440 2C000000 		.4byte	0x2c
 887 0444 00       		.byte	0
 888 0445 09       		.uleb128 0x9
 889 0446 04       		.byte	0x4
 890 0447 2C040000 		.4byte	0x42c
 891 044b 0F       		.uleb128 0xf
 892 044c E0000000 		.4byte	0xe0
 893 0450 5F040000 		.4byte	0x45f
 894 0454 10       		.uleb128 0x10
 895 0455 66020000 		.4byte	0x266
 896 0459 10       		.uleb128 0x10
 897 045a 45000000 		.4byte	0x45
 898 045e 00       		.byte	0
 899 045f 09       		.uleb128 0x9
 900 0460 04       		.byte	0x4
 901 0461 4B040000 		.4byte	0x44b
 902 0465 08       		.uleb128 0x8
 903 0466 04       		.byte	0x4
 904 0467 0A       		.byte	0xa
 905 0468 4A       		.byte	0x4a
 906 0469 7A040000 		.4byte	0x47a
ARM GAS  /var/folders/qh/xwg3v3kj02qbxczjpdb8lzfr0000gn/T//ccCZhKSZ.s 			page 17


 907 046d 07       		.uleb128 0x7
 908 046e 766D7400 		.ascii	"vmt\000"
 909 0472 0A       		.byte	0xa
 910 0473 4C       		.byte	0x4c
 911 0474 7A040000 		.4byte	0x47a
 912 0478 00       		.byte	0
 913 0479 00       		.byte	0
 914 047a 09       		.uleb128 0x9
 915 047b 04       		.byte	0x4
 916 047c 80040000 		.4byte	0x480
 917 0480 0E       		.uleb128 0xe
 918 0481 C5030000 		.4byte	0x3c5
 919 0485 03       		.uleb128 0x3
 920 0486 6C000000 		.4byte	.LASF63
 921 048a 0A       		.byte	0xa
 922 048b 4E       		.byte	0x4e
 923 048c 65040000 		.4byte	0x465
 924 0490 09       		.uleb128 0x9
 925 0491 04       		.byte	0x4
 926 0492 85040000 		.4byte	0x485
 927 0496 09       		.uleb128 0x9
 928 0497 04       		.byte	0x4
 929 0498 9C040000 		.4byte	0x49c
 930 049c 09       		.uleb128 0x9
 931 049d 04       		.byte	0x4
 932 049e 92030000 		.4byte	0x392
 933 04a2 03       		.uleb128 0x3
 934 04a3 E0030000 		.4byte	.LASF64
 935 04a7 0B       		.byte	0xb
 936 04a8 28       		.byte	0x28
 937 04a9 AD040000 		.4byte	0x4ad
 938 04ad 05       		.uleb128 0x5
 939 04ae 0F020000 		.4byte	.LASF65
 940 04b2 04       		.byte	0x4
 941 04b3 0C       		.byte	0xc
 942 04b4 00       		.byte	0
 943 04b5 C4040000 		.4byte	0x4c4
 944 04b9 11       		.uleb128 0x11
 945 04ba 39030000 		.4byte	.LASF66
 946 04be 66020000 		.4byte	0x266
 947 04c2 00       		.byte	0
 948 04c3 00       		.byte	0
 949 04c4 03       		.uleb128 0x3
 950 04c5 BF000000 		.4byte	.LASF67
 951 04c9 0B       		.byte	0xb
 952 04ca 62       		.byte	0x62
 953 04cb A2040000 		.4byte	0x4a2
 954 04cf 12       		.uleb128 0x12
 955 04d0 66030000 		.4byte	.LASF81
 956 04d4 01       		.byte	0x1
 957 04d5 45       		.byte	0x45
 958 04d6 03       		.byte	0x3
 959 04d7 FD040000 		.4byte	0x4fd
 960 04db 13       		.uleb128 0x13
 961 04dc 63687000 		.ascii	"chp\000"
 962 04e0 01       		.byte	0x1
 963 04e1 45       		.byte	0x45
ARM GAS  /var/folders/qh/xwg3v3kj02qbxczjpdb8lzfr0000gn/T//ccCZhKSZ.s 			page 18


 964 04e2 90040000 		.4byte	0x490
 965 04e6 13       		.uleb128 0x13
 966 04e7 666D7400 		.ascii	"fmt\000"
 967 04eb 01       		.byte	0x1
 968 04ec 45       		.byte	0x45
 969 04ed 87030000 		.4byte	0x387
 970 04f1 14       		.uleb128 0x14
 971 04f2 15       		.uleb128 0x15
 972 04f3 617000   		.ascii	"ap\000"
 973 04f6 01       		.byte	0x1
 974 04f7 46       		.byte	0x46
 975 04f8 C4040000 		.4byte	0x4c4
 976 04fc 00       		.byte	0
 977 04fd 16       		.uleb128 0x16
 978 04fe CF040000 		.4byte	0x4cf
 979 0502 00000000 		.4byte	.LFB49
 980 0506 1C000000 		.4byte	.LFE49-.LFB49
 981 050a 01       		.uleb128 0x1
 982 050b 9C       		.byte	0x9c
 983 050c 57050000 		.4byte	0x557
 984 0510 17       		.uleb128 0x17
 985 0511 DB040000 		.4byte	0x4db
 986 0515 00000000 		.4byte	.LLST0
 987 0519 18       		.uleb128 0x18
 988 051a E6040000 		.4byte	0x4e6
 989 051e 02       		.uleb128 0x2
 990 051f 91       		.byte	0x91
 991 0520 74       		.sleb128 -12
 992 0521 14       		.uleb128 0x14
 993 0522 19       		.uleb128 0x19
 994 0523 F2040000 		.4byte	0x4f2
 995 0527 02       		.uleb128 0x2
 996 0528 91       		.byte	0x91
 997 0529 6C       		.sleb128 -20
 998 052a 18       		.uleb128 0x18
 999 052b E6040000 		.4byte	0x4e6
 1000 052f 06       		.uleb128 0x6
 1001 0530 03       		.byte	0x3
 1002 0531 00000000 		.4byte	.LC0
 1003 0535 9F       		.byte	0x9f
 1004 0536 1A       		.uleb128 0x1a
 1005 0537 10000000 		.4byte	.LVL1
 1006 053b 81080000 		.4byte	0x881
 1007 053f 1B       		.uleb128 0x1b
 1008 0540 01       		.uleb128 0x1
 1009 0541 52       		.byte	0x52
 1010 0542 02       		.uleb128 0x2
 1011 0543 91       		.byte	0x91
 1012 0544 60       		.sleb128 -32
 1013 0545 1B       		.uleb128 0x1b
 1014 0546 01       		.uleb128 0x1
 1015 0547 51       		.byte	0x51
 1016 0548 05       		.uleb128 0x5
 1017 0549 03       		.byte	0x3
 1018 054a 00000000 		.4byte	.LC0
 1019 054e 1B       		.uleb128 0x1b
 1020 054f 01       		.uleb128 0x1
ARM GAS  /var/folders/qh/xwg3v3kj02qbxczjpdb8lzfr0000gn/T//ccCZhKSZ.s 			page 19


 1021 0550 50       		.byte	0x50
 1022 0551 03       		.uleb128 0x3
 1023 0552 F3       		.byte	0xf3
 1024 0553 01       		.uleb128 0x1
 1025 0554 50       		.byte	0x50
 1026 0555 00       		.byte	0
 1027 0556 00       		.byte	0
 1028 0557 1C       		.uleb128 0x1c
 1029 0558 38020000 		.4byte	.LASF70
 1030 055c 02       		.byte	0x2
 1031 055d 0C       		.byte	0xc
 1032 055e 00000000 		.4byte	.LFB41
 1033 0562 2C000000 		.4byte	.LFE41-.LFB41
 1034 0566 01       		.uleb128 0x1
 1035 0567 9C       		.byte	0x9c
 1036 0568 D5050000 		.4byte	0x5d5
 1037 056c 1D       		.uleb128 0x1d
 1038 056d 63687000 		.ascii	"chp\000"
 1039 0571 02       		.byte	0x2
 1040 0572 0C       		.byte	0xc
 1041 0573 90040000 		.4byte	0x490
 1042 0577 21000000 		.4byte	.LLST1
 1043 057b 1E       		.uleb128 0x1e
 1044 057c E5010000 		.4byte	.LASF68
 1045 0580 02       		.byte	0x2
 1046 0581 0C       		.byte	0xc
 1047 0582 25000000 		.4byte	0x25
 1048 0586 42000000 		.4byte	.LLST2
 1049 058a 1E       		.uleb128 0x1e
 1050 058b DF020000 		.4byte	.LASF69
 1051 058f 02       		.byte	0x2
 1052 0590 0C       		.byte	0xc
 1053 0591 96040000 		.4byte	0x496
 1054 0595 63000000 		.4byte	.LLST3
 1055 0599 1F       		.uleb128 0x1f
 1056 059a 16000000 		.4byte	.LVL6
 1057 059e 9C080000 		.4byte	0x89c
 1058 05a2 C3050000 		.4byte	0x5c3
 1059 05a6 1B       		.uleb128 0x1b
 1060 05a7 01       		.uleb128 0x1
 1061 05a8 52       		.byte	0x52
 1062 05a9 02       		.uleb128 0x2
 1063 05aa 08       		.byte	0x8
 1064 05ab 40       		.byte	0x40
 1065 05ac 1B       		.uleb128 0x1b
 1066 05ad 01       		.uleb128 0x1
 1067 05ae 51       		.byte	0x51
 1068 05af 03       		.uleb128 0x3
 1069 05b0 0A       		.byte	0xa
 1070 05b1 3001     		.2byte	0x130
 1071 05b3 1B       		.uleb128 0x1b
 1072 05b4 01       		.uleb128 0x1
 1073 05b5 50       		.byte	0x50
 1074 05b6 05       		.uleb128 0x5
 1075 05b7 03       		.byte	0x3
 1076 05b8 00000000 		.4byte	.LANCHOR0
 1077 05bc 1B       		.uleb128 0x1b
ARM GAS  /var/folders/qh/xwg3v3kj02qbxczjpdb8lzfr0000gn/T//ccCZhKSZ.s 			page 20


 1078 05bd 02       		.uleb128 0x2
 1079 05be 7D       		.byte	0x7d
 1080 05bf 00       		.sleb128 0
 1081 05c0 01       		.uleb128 0x1
 1082 05c1 30       		.byte	0x30
 1083 05c2 00       		.byte	0
 1084 05c3 1A       		.uleb128 0x1a
 1085 05c4 1E000000 		.4byte	.LVL7
 1086 05c8 C6080000 		.4byte	0x8c6
 1087 05cc 1B       		.uleb128 0x1b
 1088 05cd 01       		.uleb128 0x1
 1089 05ce 50       		.byte	0x50
 1090 05cf 03       		.uleb128 0x3
 1091 05d0 0A       		.byte	0xa
 1092 05d1 F401     		.2byte	0x1f4
 1093 05d3 00       		.byte	0
 1094 05d4 00       		.byte	0
 1095 05d5 1C       		.uleb128 0x1c
 1096 05d6 81000000 		.4byte	.LASF71
 1097 05da 02       		.byte	0x2
 1098 05db 16       		.byte	0x16
 1099 05dc 00000000 		.4byte	.LFB42
 1100 05e0 10000000 		.4byte	.LFE42-.LFB42
 1101 05e4 01       		.uleb128 0x1
 1102 05e5 9C       		.byte	0x9c
 1103 05e6 32060000 		.4byte	0x632
 1104 05ea 1D       		.uleb128 0x1d
 1105 05eb 63687000 		.ascii	"chp\000"
 1106 05ef 02       		.byte	0x2
 1107 05f0 16       		.byte	0x16
 1108 05f1 90040000 		.4byte	0x490
 1109 05f5 84000000 		.4byte	.LLST4
 1110 05f9 1E       		.uleb128 0x1e
 1111 05fa E5010000 		.4byte	.LASF68
 1112 05fe 02       		.byte	0x2
 1113 05ff 16       		.byte	0x16
 1114 0600 25000000 		.4byte	0x25
 1115 0604 A5000000 		.4byte	.LLST5
 1116 0608 1E       		.uleb128 0x1e
 1117 0609 DF020000 		.4byte	.LASF69
 1118 060d 02       		.byte	0x2
 1119 060e 16       		.byte	0x16
 1120 060f 96040000 		.4byte	0x496
 1121 0613 C6000000 		.4byte	.LLST6
 1122 0617 1A       		.uleb128 0x1a
 1123 0618 08000000 		.4byte	.LVL10
 1124 061c FD040000 		.4byte	0x4fd
 1125 0620 1B       		.uleb128 0x1b
 1126 0621 01       		.uleb128 0x1
 1127 0622 51       		.byte	0x51
 1128 0623 05       		.uleb128 0x5
 1129 0624 03       		.byte	0x3
 1130 0625 00000000 		.4byte	.LC0
 1131 0629 1B       		.uleb128 0x1b
 1132 062a 01       		.uleb128 0x1
 1133 062b 50       		.byte	0x50
 1134 062c 03       		.uleb128 0x3
ARM GAS  /var/folders/qh/xwg3v3kj02qbxczjpdb8lzfr0000gn/T//ccCZhKSZ.s 			page 21


 1135 062d F3       		.byte	0xf3
 1136 062e 01       		.uleb128 0x1
 1137 062f 50       		.byte	0x50
 1138 0630 00       		.byte	0
 1139 0631 00       		.byte	0
 1140 0632 1C       		.uleb128 0x1c
 1141 0633 8A030000 		.4byte	.LASF72
 1142 0637 02       		.byte	0x2
 1143 0638 1C       		.byte	0x1c
 1144 0639 00000000 		.4byte	.LFB43
 1145 063d 10000000 		.4byte	.LFE43-.LFB43
 1146 0641 01       		.uleb128 0x1
 1147 0642 9C       		.byte	0x9c
 1148 0643 8F060000 		.4byte	0x68f
 1149 0647 1D       		.uleb128 0x1d
 1150 0648 63687000 		.ascii	"chp\000"
 1151 064c 02       		.byte	0x2
 1152 064d 1C       		.byte	0x1c
 1153 064e 90040000 		.4byte	0x490
 1154 0652 E7000000 		.4byte	.LLST7
 1155 0656 1E       		.uleb128 0x1e
 1156 0657 E5010000 		.4byte	.LASF68
 1157 065b 02       		.byte	0x2
 1158 065c 1C       		.byte	0x1c
 1159 065d 25000000 		.4byte	0x25
 1160 0661 08010000 		.4byte	.LLST8
 1161 0665 1E       		.uleb128 0x1e
 1162 0666 DF020000 		.4byte	.LASF69
 1163 066a 02       		.byte	0x2
 1164 066b 1C       		.byte	0x1c
 1165 066c 96040000 		.4byte	0x496
 1166 0670 29010000 		.4byte	.LLST9
 1167 0674 1A       		.uleb128 0x1a
 1168 0675 08000000 		.4byte	.LVL13
 1169 0679 FD040000 		.4byte	0x4fd
 1170 067d 1B       		.uleb128 0x1b
 1171 067e 01       		.uleb128 0x1
 1172 067f 51       		.byte	0x51
 1173 0680 05       		.uleb128 0x5
 1174 0681 03       		.byte	0x3
 1175 0682 00000000 		.4byte	.LC0
 1176 0686 1B       		.uleb128 0x1b
 1177 0687 01       		.uleb128 0x1
 1178 0688 50       		.byte	0x50
 1179 0689 03       		.uleb128 0x3
 1180 068a F3       		.byte	0xf3
 1181 068b 01       		.uleb128 0x1
 1182 068c 50       		.byte	0x50
 1183 068d 00       		.byte	0
 1184 068e 00       		.byte	0
 1185 068f 1C       		.uleb128 0x1c
 1186 0690 B0030000 		.4byte	.LASF73
 1187 0694 02       		.byte	0x2
 1188 0695 29       		.byte	0x29
 1189 0696 00000000 		.4byte	.LFB44
 1190 069a 10000000 		.4byte	.LFE44-.LFB44
 1191 069e 01       		.uleb128 0x1
ARM GAS  /var/folders/qh/xwg3v3kj02qbxczjpdb8lzfr0000gn/T//ccCZhKSZ.s 			page 22


 1192 069f 9C       		.byte	0x9c
 1193 06a0 EC060000 		.4byte	0x6ec
 1194 06a4 1D       		.uleb128 0x1d
 1195 06a5 63687000 		.ascii	"chp\000"
 1196 06a9 02       		.byte	0x2
 1197 06aa 29       		.byte	0x29
 1198 06ab 90040000 		.4byte	0x490
 1199 06af 4A010000 		.4byte	.LLST10
 1200 06b3 1E       		.uleb128 0x1e
 1201 06b4 E5010000 		.4byte	.LASF68
 1202 06b8 02       		.byte	0x2
 1203 06b9 29       		.byte	0x29
 1204 06ba 25000000 		.4byte	0x25
 1205 06be 6B010000 		.4byte	.LLST11
 1206 06c2 1E       		.uleb128 0x1e
 1207 06c3 DF020000 		.4byte	.LASF69
 1208 06c7 02       		.byte	0x2
 1209 06c8 29       		.byte	0x29
 1210 06c9 96040000 		.4byte	0x496
 1211 06cd 8C010000 		.4byte	.LLST12
 1212 06d1 1A       		.uleb128 0x1a
 1213 06d2 08000000 		.4byte	.LVL16
 1214 06d6 FD040000 		.4byte	0x4fd
 1215 06da 1B       		.uleb128 0x1b
 1216 06db 01       		.uleb128 0x1
 1217 06dc 51       		.byte	0x51
 1218 06dd 05       		.uleb128 0x5
 1219 06de 03       		.byte	0x3
 1220 06df 00000000 		.4byte	.LC0
 1221 06e3 1B       		.uleb128 0x1b
 1222 06e4 01       		.uleb128 0x1
 1223 06e5 50       		.byte	0x50
 1224 06e6 03       		.uleb128 0x3
 1225 06e7 F3       		.byte	0xf3
 1226 06e8 01       		.uleb128 0x1
 1227 06e9 50       		.byte	0x50
 1228 06ea 00       		.byte	0
 1229 06eb 00       		.byte	0
 1230 06ec 1C       		.uleb128 0x1c
 1231 06ed EB000000 		.4byte	.LASF74
 1232 06f1 02       		.byte	0x2
 1233 06f2 2F       		.byte	0x2f
 1234 06f3 00000000 		.4byte	.LFB45
 1235 06f7 10000000 		.4byte	.LFE45-.LFB45
 1236 06fb 01       		.uleb128 0x1
 1237 06fc 9C       		.byte	0x9c
 1238 06fd 49070000 		.4byte	0x749
 1239 0701 1D       		.uleb128 0x1d
 1240 0702 63687000 		.ascii	"chp\000"
 1241 0706 02       		.byte	0x2
 1242 0707 2F       		.byte	0x2f
 1243 0708 90040000 		.4byte	0x490
 1244 070c AD010000 		.4byte	.LLST13
 1245 0710 1E       		.uleb128 0x1e
 1246 0711 E5010000 		.4byte	.LASF68
 1247 0715 02       		.byte	0x2
 1248 0716 2F       		.byte	0x2f
ARM GAS  /var/folders/qh/xwg3v3kj02qbxczjpdb8lzfr0000gn/T//ccCZhKSZ.s 			page 23


 1249 0717 25000000 		.4byte	0x25
 1250 071b CE010000 		.4byte	.LLST14
 1251 071f 1E       		.uleb128 0x1e
 1252 0720 DF020000 		.4byte	.LASF69
 1253 0724 02       		.byte	0x2
 1254 0725 2F       		.byte	0x2f
 1255 0726 96040000 		.4byte	0x496
 1256 072a EF010000 		.4byte	.LLST15
 1257 072e 1A       		.uleb128 0x1a
 1258 072f 08000000 		.4byte	.LVL19
 1259 0733 FD040000 		.4byte	0x4fd
 1260 0737 1B       		.uleb128 0x1b
 1261 0738 01       		.uleb128 0x1
 1262 0739 51       		.byte	0x51
 1263 073a 05       		.uleb128 0x5
 1264 073b 03       		.byte	0x3
 1265 073c 00000000 		.4byte	.LC0
 1266 0740 1B       		.uleb128 0x1b
 1267 0741 01       		.uleb128 0x1
 1268 0742 50       		.byte	0x50
 1269 0743 03       		.uleb128 0x3
 1270 0744 F3       		.byte	0xf3
 1271 0745 01       		.uleb128 0x1
 1272 0746 50       		.byte	0x50
 1273 0747 00       		.byte	0
 1274 0748 00       		.byte	0
 1275 0749 1C       		.uleb128 0x1c
 1276 074a F7020000 		.4byte	.LASF75
 1277 074e 02       		.byte	0x2
 1278 074f 35       		.byte	0x35
 1279 0750 00000000 		.4byte	.LFB46
 1280 0754 10000000 		.4byte	.LFE46-.LFB46
 1281 0758 01       		.uleb128 0x1
 1282 0759 9C       		.byte	0x9c
 1283 075a A6070000 		.4byte	0x7a6
 1284 075e 1D       		.uleb128 0x1d
 1285 075f 63687000 		.ascii	"chp\000"
 1286 0763 02       		.byte	0x2
 1287 0764 35       		.byte	0x35
 1288 0765 90040000 		.4byte	0x490
 1289 0769 10020000 		.4byte	.LLST16
 1290 076d 1E       		.uleb128 0x1e
 1291 076e E5010000 		.4byte	.LASF68
 1292 0772 02       		.byte	0x2
 1293 0773 35       		.byte	0x35
 1294 0774 25000000 		.4byte	0x25
 1295 0778 31020000 		.4byte	.LLST17
 1296 077c 1E       		.uleb128 0x1e
 1297 077d DF020000 		.4byte	.LASF69
 1298 0781 02       		.byte	0x2
 1299 0782 35       		.byte	0x35
 1300 0783 96040000 		.4byte	0x496
 1301 0787 52020000 		.4byte	.LLST18
 1302 078b 1A       		.uleb128 0x1a
 1303 078c 08000000 		.4byte	.LVL22
 1304 0790 FD040000 		.4byte	0x4fd
 1305 0794 1B       		.uleb128 0x1b
ARM GAS  /var/folders/qh/xwg3v3kj02qbxczjpdb8lzfr0000gn/T//ccCZhKSZ.s 			page 24


 1306 0795 01       		.uleb128 0x1
 1307 0796 51       		.byte	0x51
 1308 0797 05       		.uleb128 0x5
 1309 0798 03       		.byte	0x3
 1310 0799 00000000 		.4byte	.LC0
 1311 079d 1B       		.uleb128 0x1b
 1312 079e 01       		.uleb128 0x1
 1313 079f 50       		.byte	0x50
 1314 07a0 03       		.uleb128 0x3
 1315 07a1 F3       		.byte	0xf3
 1316 07a2 01       		.uleb128 0x1
 1317 07a3 50       		.byte	0x50
 1318 07a4 00       		.byte	0
 1319 07a5 00       		.byte	0
 1320 07a6 1C       		.uleb128 0x1c
 1321 07a7 C7000000 		.4byte	.LASF76
 1322 07ab 02       		.byte	0x2
 1323 07ac 3B       		.byte	0x3b
 1324 07ad 00000000 		.4byte	.LFB47
 1325 07b1 10000000 		.4byte	.LFE47-.LFB47
 1326 07b5 01       		.uleb128 0x1
 1327 07b6 9C       		.byte	0x9c
 1328 07b7 03080000 		.4byte	0x803
 1329 07bb 1D       		.uleb128 0x1d
 1330 07bc 63687000 		.ascii	"chp\000"
 1331 07c0 02       		.byte	0x2
 1332 07c1 3B       		.byte	0x3b
 1333 07c2 90040000 		.4byte	0x490
 1334 07c6 73020000 		.4byte	.LLST19
 1335 07ca 1E       		.uleb128 0x1e
 1336 07cb E5010000 		.4byte	.LASF68
 1337 07cf 02       		.byte	0x2
 1338 07d0 3B       		.byte	0x3b
 1339 07d1 25000000 		.4byte	0x25
 1340 07d5 94020000 		.4byte	.LLST20
 1341 07d9 1E       		.uleb128 0x1e
 1342 07da DF020000 		.4byte	.LASF69
 1343 07de 02       		.byte	0x2
 1344 07df 3B       		.byte	0x3b
 1345 07e0 96040000 		.4byte	0x496
 1346 07e4 B5020000 		.4byte	.LLST21
 1347 07e8 1A       		.uleb128 0x1a
 1348 07e9 08000000 		.4byte	.LVL25
 1349 07ed FD040000 		.4byte	0x4fd
 1350 07f1 1B       		.uleb128 0x1b
 1351 07f2 01       		.uleb128 0x1
 1352 07f3 51       		.byte	0x51
 1353 07f4 05       		.uleb128 0x5
 1354 07f5 03       		.byte	0x3
 1355 07f6 00000000 		.4byte	.LC0
 1356 07fa 1B       		.uleb128 0x1b
 1357 07fb 01       		.uleb128 0x1
 1358 07fc 50       		.byte	0x50
 1359 07fd 03       		.uleb128 0x3
 1360 07fe F3       		.byte	0xf3
 1361 07ff 01       		.uleb128 0x1
 1362 0800 50       		.byte	0x50
ARM GAS  /var/folders/qh/xwg3v3kj02qbxczjpdb8lzfr0000gn/T//ccCZhKSZ.s 			page 25


 1363 0801 00       		.byte	0
 1364 0802 00       		.byte	0
 1365 0803 1C       		.uleb128 0x1c
 1366 0804 0F000000 		.4byte	.LASF77
 1367 0808 02       		.byte	0x2
 1368 0809 41       		.byte	0x41
 1369 080a 00000000 		.4byte	.LFB48
 1370 080e 10000000 		.4byte	.LFE48-.LFB48
 1371 0812 01       		.uleb128 0x1
 1372 0813 9C       		.byte	0x9c
 1373 0814 60080000 		.4byte	0x860
 1374 0818 1D       		.uleb128 0x1d
 1375 0819 63687000 		.ascii	"chp\000"
 1376 081d 02       		.byte	0x2
 1377 081e 41       		.byte	0x41
 1378 081f 90040000 		.4byte	0x490
 1379 0823 D6020000 		.4byte	.LLST22
 1380 0827 1E       		.uleb128 0x1e
 1381 0828 E5010000 		.4byte	.LASF68
 1382 082c 02       		.byte	0x2
 1383 082d 41       		.byte	0x41
 1384 082e 25000000 		.4byte	0x25
 1385 0832 F7020000 		.4byte	.LLST23
 1386 0836 1E       		.uleb128 0x1e
 1387 0837 DF020000 		.4byte	.LASF69
 1388 083b 02       		.byte	0x2
 1389 083c 41       		.byte	0x41
 1390 083d 96040000 		.4byte	0x496
 1391 0841 18030000 		.4byte	.LLST24
 1392 0845 1A       		.uleb128 0x1a
 1393 0846 08000000 		.4byte	.LVL28
 1394 084a FD040000 		.4byte	0x4fd
 1395 084e 1B       		.uleb128 0x1b
 1396 084f 01       		.uleb128 0x1
 1397 0850 51       		.byte	0x51
 1398 0851 05       		.uleb128 0x5
 1399 0852 03       		.byte	0x3
 1400 0853 00000000 		.4byte	.LC0
 1401 0857 1B       		.uleb128 0x1b
 1402 0858 01       		.uleb128 0x1
 1403 0859 50       		.byte	0x50
 1404 085a 03       		.uleb128 0x3
 1405 085b F3       		.byte	0xf3
 1406 085c 01       		.uleb128 0x1
 1407 085d 50       		.byte	0x50
 1408 085e 00       		.byte	0
 1409 085f 00       		.byte	0
 1410 0860 20       		.uleb128 0x20
 1411 0861 68020000 		.4byte	0x268
 1412 0865 70080000 		.4byte	0x870
 1413 0869 21       		.uleb128 0x21
 1414 086a 04030000 		.4byte	0x304
 1415 086e 25       		.byte	0x25
 1416 086f 00       		.byte	0
 1417 0870 22       		.uleb128 0x22
 1418 0871 DF000000 		.4byte	.LASF82
 1419 0875 02       		.byte	0x2
ARM GAS  /var/folders/qh/xwg3v3kj02qbxczjpdb8lzfr0000gn/T//ccCZhKSZ.s 			page 26


 1420 0876 0A       		.byte	0xa
 1421 0877 60080000 		.4byte	0x860
 1422 087b 05       		.uleb128 0x5
 1423 087c 03       		.byte	0x3
 1424 087d 00000000 		.4byte	adcTempArea
 1425 0881 23       		.uleb128 0x23
 1426 0882 31040000 		.4byte	.LASF83
 1427 0886 01       		.byte	0x1
 1428 0887 28       		.byte	0x28
 1429 0888 9C080000 		.4byte	0x89c
 1430 088c 10       		.uleb128 0x10
 1431 088d 90040000 		.4byte	0x490
 1432 0891 10       		.uleb128 0x10
 1433 0892 87030000 		.4byte	0x387
 1434 0896 10       		.uleb128 0x10
 1435 0897 C4040000 		.4byte	0x4c4
 1436 089b 00       		.byte	0
 1437 089c 24       		.uleb128 0x24
 1438 089d 1C000000 		.4byte	.LASF84
 1439 08a1 07       		.byte	0x7
 1440 08a2 6901     		.2byte	0x169
 1441 08a4 2A020000 		.4byte	0x22a
 1442 08a8 C6080000 		.4byte	0x8c6
 1443 08ac 10       		.uleb128 0x10
 1444 08ad 66020000 		.4byte	0x266
 1445 08b1 10       		.uleb128 0x10
 1446 08b2 2C000000 		.4byte	0x2c
 1447 08b6 10       		.uleb128 0x10
 1448 08b7 D5000000 		.4byte	0xd5
 1449 08bb 10       		.uleb128 0x10
 1450 08bc 9F030000 		.4byte	0x39f
 1451 08c0 10       		.uleb128 0x10
 1452 08c1 66020000 		.4byte	0x266
 1453 08c5 00       		.byte	0
 1454 08c6 25       		.uleb128 0x25
 1455 08c7 8F000000 		.4byte	.LASF85
 1456 08cb 07       		.byte	0x7
 1457 08cc 6E01     		.2byte	0x16e
 1458 08ce 10       		.uleb128 0x10
 1459 08cf F6000000 		.4byte	0xf6
 1460 08d3 00       		.byte	0
 1461 08d4 00       		.byte	0
 1462              		.section	.debug_abbrev,"",%progbits
 1463              	.Ldebug_abbrev0:
 1464 0000 01       		.uleb128 0x1
 1465 0001 11       		.uleb128 0x11
 1466 0002 01       		.byte	0x1
 1467 0003 25       		.uleb128 0x25
 1468 0004 0E       		.uleb128 0xe
 1469 0005 13       		.uleb128 0x13
 1470 0006 0B       		.uleb128 0xb
 1471 0007 03       		.uleb128 0x3
 1472 0008 0E       		.uleb128 0xe
 1473 0009 1B       		.uleb128 0x1b
 1474 000a 0E       		.uleb128 0xe
 1475 000b 55       		.uleb128 0x55
 1476 000c 17       		.uleb128 0x17
ARM GAS  /var/folders/qh/xwg3v3kj02qbxczjpdb8lzfr0000gn/T//ccCZhKSZ.s 			page 27


 1477 000d 11       		.uleb128 0x11
 1478 000e 01       		.uleb128 0x1
 1479 000f 10       		.uleb128 0x10
 1480 0010 17       		.uleb128 0x17
 1481 0011 00       		.byte	0
 1482 0012 00       		.byte	0
 1483 0013 02       		.uleb128 0x2
 1484 0014 24       		.uleb128 0x24
 1485 0015 00       		.byte	0
 1486 0016 0B       		.uleb128 0xb
 1487 0017 0B       		.uleb128 0xb
 1488 0018 3E       		.uleb128 0x3e
 1489 0019 0B       		.uleb128 0xb
 1490 001a 03       		.uleb128 0x3
 1491 001b 08       		.uleb128 0x8
 1492 001c 00       		.byte	0
 1493 001d 00       		.byte	0
 1494 001e 03       		.uleb128 0x3
 1495 001f 16       		.uleb128 0x16
 1496 0020 00       		.byte	0
 1497 0021 03       		.uleb128 0x3
 1498 0022 0E       		.uleb128 0xe
 1499 0023 3A       		.uleb128 0x3a
 1500 0024 0B       		.uleb128 0xb
 1501 0025 3B       		.uleb128 0x3b
 1502 0026 0B       		.uleb128 0xb
 1503 0027 49       		.uleb128 0x49
 1504 0028 13       		.uleb128 0x13
 1505 0029 00       		.byte	0
 1506 002a 00       		.byte	0
 1507 002b 04       		.uleb128 0x4
 1508 002c 24       		.uleb128 0x24
 1509 002d 00       		.byte	0
 1510 002e 0B       		.uleb128 0xb
 1511 002f 0B       		.uleb128 0xb
 1512 0030 3E       		.uleb128 0x3e
 1513 0031 0B       		.uleb128 0xb
 1514 0032 03       		.uleb128 0x3
 1515 0033 0E       		.uleb128 0xe
 1516 0034 00       		.byte	0
 1517 0035 00       		.byte	0
 1518 0036 05       		.uleb128 0x5
 1519 0037 13       		.uleb128 0x13
 1520 0038 01       		.byte	0x1
 1521 0039 03       		.uleb128 0x3
 1522 003a 0E       		.uleb128 0xe
 1523 003b 0B       		.uleb128 0xb
 1524 003c 0B       		.uleb128 0xb
 1525 003d 3A       		.uleb128 0x3a
 1526 003e 0B       		.uleb128 0xb
 1527 003f 3B       		.uleb128 0x3b
 1528 0040 0B       		.uleb128 0xb
 1529 0041 01       		.uleb128 0x1
 1530 0042 13       		.uleb128 0x13
 1531 0043 00       		.byte	0
 1532 0044 00       		.byte	0
 1533 0045 06       		.uleb128 0x6
ARM GAS  /var/folders/qh/xwg3v3kj02qbxczjpdb8lzfr0000gn/T//ccCZhKSZ.s 			page 28


 1534 0046 0D       		.uleb128 0xd
 1535 0047 00       		.byte	0
 1536 0048 03       		.uleb128 0x3
 1537 0049 0E       		.uleb128 0xe
 1538 004a 3A       		.uleb128 0x3a
 1539 004b 0B       		.uleb128 0xb
 1540 004c 3B       		.uleb128 0x3b
 1541 004d 0B       		.uleb128 0xb
 1542 004e 49       		.uleb128 0x49
 1543 004f 13       		.uleb128 0x13
 1544 0050 38       		.uleb128 0x38
 1545 0051 0B       		.uleb128 0xb
 1546 0052 00       		.byte	0
 1547 0053 00       		.byte	0
 1548 0054 07       		.uleb128 0x7
 1549 0055 0D       		.uleb128 0xd
 1550 0056 00       		.byte	0
 1551 0057 03       		.uleb128 0x3
 1552 0058 08       		.uleb128 0x8
 1553 0059 3A       		.uleb128 0x3a
 1554 005a 0B       		.uleb128 0xb
 1555 005b 3B       		.uleb128 0x3b
 1556 005c 0B       		.uleb128 0xb
 1557 005d 49       		.uleb128 0x49
 1558 005e 13       		.uleb128 0x13
 1559 005f 38       		.uleb128 0x38
 1560 0060 0B       		.uleb128 0xb
 1561 0061 00       		.byte	0
 1562 0062 00       		.byte	0
 1563 0063 08       		.uleb128 0x8
 1564 0064 13       		.uleb128 0x13
 1565 0065 01       		.byte	0x1
 1566 0066 0B       		.uleb128 0xb
 1567 0067 0B       		.uleb128 0xb
 1568 0068 3A       		.uleb128 0x3a
 1569 0069 0B       		.uleb128 0xb
 1570 006a 3B       		.uleb128 0x3b
 1571 006b 0B       		.uleb128 0xb
 1572 006c 01       		.uleb128 0x1
 1573 006d 13       		.uleb128 0x13
 1574 006e 00       		.byte	0
 1575 006f 00       		.byte	0
 1576 0070 09       		.uleb128 0x9
 1577 0071 0F       		.uleb128 0xf
 1578 0072 00       		.byte	0
 1579 0073 0B       		.uleb128 0xb
 1580 0074 0B       		.uleb128 0xb
 1581 0075 49       		.uleb128 0x49
 1582 0076 13       		.uleb128 0x13
 1583 0077 00       		.byte	0
 1584 0078 00       		.byte	0
 1585 0079 0A       		.uleb128 0xa
 1586 007a 0F       		.uleb128 0xf
 1587 007b 00       		.byte	0
 1588 007c 0B       		.uleb128 0xb
 1589 007d 0B       		.uleb128 0xb
 1590 007e 00       		.byte	0
ARM GAS  /var/folders/qh/xwg3v3kj02qbxczjpdb8lzfr0000gn/T//ccCZhKSZ.s 			page 29


 1591 007f 00       		.byte	0
 1592 0080 0B       		.uleb128 0xb
 1593 0081 35       		.uleb128 0x35
 1594 0082 00       		.byte	0
 1595 0083 49       		.uleb128 0x49
 1596 0084 13       		.uleb128 0x13
 1597 0085 00       		.byte	0
 1598 0086 00       		.byte	0
 1599 0087 0C       		.uleb128 0xc
 1600 0088 17       		.uleb128 0x17
 1601 0089 01       		.byte	0x1
 1602 008a 0B       		.uleb128 0xb
 1603 008b 0B       		.uleb128 0xb
 1604 008c 3A       		.uleb128 0x3a
 1605 008d 0B       		.uleb128 0xb
 1606 008e 3B       		.uleb128 0x3b
 1607 008f 0B       		.uleb128 0xb
 1608 0090 01       		.uleb128 0x1
 1609 0091 13       		.uleb128 0x13
 1610 0092 00       		.byte	0
 1611 0093 00       		.byte	0
 1612 0094 0D       		.uleb128 0xd
 1613 0095 0D       		.uleb128 0xd
 1614 0096 00       		.byte	0
 1615 0097 03       		.uleb128 0x3
 1616 0098 0E       		.uleb128 0xe
 1617 0099 3A       		.uleb128 0x3a
 1618 009a 0B       		.uleb128 0xb
 1619 009b 3B       		.uleb128 0x3b
 1620 009c 0B       		.uleb128 0xb
 1621 009d 49       		.uleb128 0x49
 1622 009e 13       		.uleb128 0x13
 1623 009f 00       		.byte	0
 1624 00a0 00       		.byte	0
 1625 00a1 0E       		.uleb128 0xe
 1626 00a2 26       		.uleb128 0x26
 1627 00a3 00       		.byte	0
 1628 00a4 49       		.uleb128 0x49
 1629 00a5 13       		.uleb128 0x13
 1630 00a6 00       		.byte	0
 1631 00a7 00       		.byte	0
 1632 00a8 0F       		.uleb128 0xf
 1633 00a9 15       		.uleb128 0x15
 1634 00aa 01       		.byte	0x1
 1635 00ab 27       		.uleb128 0x27
 1636 00ac 19       		.uleb128 0x19
 1637 00ad 49       		.uleb128 0x49
 1638 00ae 13       		.uleb128 0x13
 1639 00af 01       		.uleb128 0x1
 1640 00b0 13       		.uleb128 0x13
 1641 00b1 00       		.byte	0
 1642 00b2 00       		.byte	0
 1643 00b3 10       		.uleb128 0x10
 1644 00b4 05       		.uleb128 0x5
 1645 00b5 00       		.byte	0
 1646 00b6 49       		.uleb128 0x49
 1647 00b7 13       		.uleb128 0x13
ARM GAS  /var/folders/qh/xwg3v3kj02qbxczjpdb8lzfr0000gn/T//ccCZhKSZ.s 			page 30


 1648 00b8 00       		.byte	0
 1649 00b9 00       		.byte	0
 1650 00ba 11       		.uleb128 0x11
 1651 00bb 0D       		.uleb128 0xd
 1652 00bc 00       		.byte	0
 1653 00bd 03       		.uleb128 0x3
 1654 00be 0E       		.uleb128 0xe
 1655 00bf 49       		.uleb128 0x49
 1656 00c0 13       		.uleb128 0x13
 1657 00c1 38       		.uleb128 0x38
 1658 00c2 0B       		.uleb128 0xb
 1659 00c3 34       		.uleb128 0x34
 1660 00c4 19       		.uleb128 0x19
 1661 00c5 00       		.byte	0
 1662 00c6 00       		.byte	0
 1663 00c7 12       		.uleb128 0x12
 1664 00c8 2E       		.uleb128 0x2e
 1665 00c9 01       		.byte	0x1
 1666 00ca 03       		.uleb128 0x3
 1667 00cb 0E       		.uleb128 0xe
 1668 00cc 3A       		.uleb128 0x3a
 1669 00cd 0B       		.uleb128 0xb
 1670 00ce 3B       		.uleb128 0x3b
 1671 00cf 0B       		.uleb128 0xb
 1672 00d0 27       		.uleb128 0x27
 1673 00d1 19       		.uleb128 0x19
 1674 00d2 20       		.uleb128 0x20
 1675 00d3 0B       		.uleb128 0xb
 1676 00d4 01       		.uleb128 0x1
 1677 00d5 13       		.uleb128 0x13
 1678 00d6 00       		.byte	0
 1679 00d7 00       		.byte	0
 1680 00d8 13       		.uleb128 0x13
 1681 00d9 05       		.uleb128 0x5
 1682 00da 00       		.byte	0
 1683 00db 03       		.uleb128 0x3
 1684 00dc 08       		.uleb128 0x8
 1685 00dd 3A       		.uleb128 0x3a
 1686 00de 0B       		.uleb128 0xb
 1687 00df 3B       		.uleb128 0x3b
 1688 00e0 0B       		.uleb128 0xb
 1689 00e1 49       		.uleb128 0x49
 1690 00e2 13       		.uleb128 0x13
 1691 00e3 00       		.byte	0
 1692 00e4 00       		.byte	0
 1693 00e5 14       		.uleb128 0x14
 1694 00e6 18       		.uleb128 0x18
 1695 00e7 00       		.byte	0
 1696 00e8 00       		.byte	0
 1697 00e9 00       		.byte	0
 1698 00ea 15       		.uleb128 0x15
 1699 00eb 34       		.uleb128 0x34
 1700 00ec 00       		.byte	0
 1701 00ed 03       		.uleb128 0x3
 1702 00ee 08       		.uleb128 0x8
 1703 00ef 3A       		.uleb128 0x3a
 1704 00f0 0B       		.uleb128 0xb
ARM GAS  /var/folders/qh/xwg3v3kj02qbxczjpdb8lzfr0000gn/T//ccCZhKSZ.s 			page 31


 1705 00f1 3B       		.uleb128 0x3b
 1706 00f2 0B       		.uleb128 0xb
 1707 00f3 49       		.uleb128 0x49
 1708 00f4 13       		.uleb128 0x13
 1709 00f5 00       		.byte	0
 1710 00f6 00       		.byte	0
 1711 00f7 16       		.uleb128 0x16
 1712 00f8 2E       		.uleb128 0x2e
 1713 00f9 01       		.byte	0x1
 1714 00fa 31       		.uleb128 0x31
 1715 00fb 13       		.uleb128 0x13
 1716 00fc 11       		.uleb128 0x11
 1717 00fd 01       		.uleb128 0x1
 1718 00fe 12       		.uleb128 0x12
 1719 00ff 06       		.uleb128 0x6
 1720 0100 40       		.uleb128 0x40
 1721 0101 18       		.uleb128 0x18
 1722 0102 9742     		.uleb128 0x2117
 1723 0104 19       		.uleb128 0x19
 1724 0105 01       		.uleb128 0x1
 1725 0106 13       		.uleb128 0x13
 1726 0107 00       		.byte	0
 1727 0108 00       		.byte	0
 1728 0109 17       		.uleb128 0x17
 1729 010a 05       		.uleb128 0x5
 1730 010b 00       		.byte	0
 1731 010c 31       		.uleb128 0x31
 1732 010d 13       		.uleb128 0x13
 1733 010e 02       		.uleb128 0x2
 1734 010f 17       		.uleb128 0x17
 1735 0110 00       		.byte	0
 1736 0111 00       		.byte	0
 1737 0112 18       		.uleb128 0x18
 1738 0113 05       		.uleb128 0x5
 1739 0114 00       		.byte	0
 1740 0115 31       		.uleb128 0x31
 1741 0116 13       		.uleb128 0x13
 1742 0117 02       		.uleb128 0x2
 1743 0118 18       		.uleb128 0x18
 1744 0119 00       		.byte	0
 1745 011a 00       		.byte	0
 1746 011b 19       		.uleb128 0x19
 1747 011c 34       		.uleb128 0x34
 1748 011d 00       		.byte	0
 1749 011e 31       		.uleb128 0x31
 1750 011f 13       		.uleb128 0x13
 1751 0120 02       		.uleb128 0x2
 1752 0121 18       		.uleb128 0x18
 1753 0122 00       		.byte	0
 1754 0123 00       		.byte	0
 1755 0124 1A       		.uleb128 0x1a
 1756 0125 898201   		.uleb128 0x4109
 1757 0128 01       		.byte	0x1
 1758 0129 11       		.uleb128 0x11
 1759 012a 01       		.uleb128 0x1
 1760 012b 31       		.uleb128 0x31
 1761 012c 13       		.uleb128 0x13
ARM GAS  /var/folders/qh/xwg3v3kj02qbxczjpdb8lzfr0000gn/T//ccCZhKSZ.s 			page 32


 1762 012d 00       		.byte	0
 1763 012e 00       		.byte	0
 1764 012f 1B       		.uleb128 0x1b
 1765 0130 8A8201   		.uleb128 0x410a
 1766 0133 00       		.byte	0
 1767 0134 02       		.uleb128 0x2
 1768 0135 18       		.uleb128 0x18
 1769 0136 9142     		.uleb128 0x2111
 1770 0138 18       		.uleb128 0x18
 1771 0139 00       		.byte	0
 1772 013a 00       		.byte	0
 1773 013b 1C       		.uleb128 0x1c
 1774 013c 2E       		.uleb128 0x2e
 1775 013d 01       		.byte	0x1
 1776 013e 3F       		.uleb128 0x3f
 1777 013f 19       		.uleb128 0x19
 1778 0140 03       		.uleb128 0x3
 1779 0141 0E       		.uleb128 0xe
 1780 0142 3A       		.uleb128 0x3a
 1781 0143 0B       		.uleb128 0xb
 1782 0144 3B       		.uleb128 0x3b
 1783 0145 0B       		.uleb128 0xb
 1784 0146 27       		.uleb128 0x27
 1785 0147 19       		.uleb128 0x19
 1786 0148 11       		.uleb128 0x11
 1787 0149 01       		.uleb128 0x1
 1788 014a 12       		.uleb128 0x12
 1789 014b 06       		.uleb128 0x6
 1790 014c 40       		.uleb128 0x40
 1791 014d 18       		.uleb128 0x18
 1792 014e 9742     		.uleb128 0x2117
 1793 0150 19       		.uleb128 0x19
 1794 0151 01       		.uleb128 0x1
 1795 0152 13       		.uleb128 0x13
 1796 0153 00       		.byte	0
 1797 0154 00       		.byte	0
 1798 0155 1D       		.uleb128 0x1d
 1799 0156 05       		.uleb128 0x5
 1800 0157 00       		.byte	0
 1801 0158 03       		.uleb128 0x3
 1802 0159 08       		.uleb128 0x8
 1803 015a 3A       		.uleb128 0x3a
 1804 015b 0B       		.uleb128 0xb
 1805 015c 3B       		.uleb128 0x3b
 1806 015d 0B       		.uleb128 0xb
 1807 015e 49       		.uleb128 0x49
 1808 015f 13       		.uleb128 0x13
 1809 0160 02       		.uleb128 0x2
 1810 0161 17       		.uleb128 0x17
 1811 0162 00       		.byte	0
 1812 0163 00       		.byte	0
 1813 0164 1E       		.uleb128 0x1e
 1814 0165 05       		.uleb128 0x5
 1815 0166 00       		.byte	0
 1816 0167 03       		.uleb128 0x3
 1817 0168 0E       		.uleb128 0xe
 1818 0169 3A       		.uleb128 0x3a
ARM GAS  /var/folders/qh/xwg3v3kj02qbxczjpdb8lzfr0000gn/T//ccCZhKSZ.s 			page 33


 1819 016a 0B       		.uleb128 0xb
 1820 016b 3B       		.uleb128 0x3b
 1821 016c 0B       		.uleb128 0xb
 1822 016d 49       		.uleb128 0x49
 1823 016e 13       		.uleb128 0x13
 1824 016f 02       		.uleb128 0x2
 1825 0170 17       		.uleb128 0x17
 1826 0171 00       		.byte	0
 1827 0172 00       		.byte	0
 1828 0173 1F       		.uleb128 0x1f
 1829 0174 898201   		.uleb128 0x4109
 1830 0177 01       		.byte	0x1
 1831 0178 11       		.uleb128 0x11
 1832 0179 01       		.uleb128 0x1
 1833 017a 31       		.uleb128 0x31
 1834 017b 13       		.uleb128 0x13
 1835 017c 01       		.uleb128 0x1
 1836 017d 13       		.uleb128 0x13
 1837 017e 00       		.byte	0
 1838 017f 00       		.byte	0
 1839 0180 20       		.uleb128 0x20
 1840 0181 01       		.uleb128 0x1
 1841 0182 01       		.byte	0x1
 1842 0183 49       		.uleb128 0x49
 1843 0184 13       		.uleb128 0x13
 1844 0185 01       		.uleb128 0x1
 1845 0186 13       		.uleb128 0x13
 1846 0187 00       		.byte	0
 1847 0188 00       		.byte	0
 1848 0189 21       		.uleb128 0x21
 1849 018a 21       		.uleb128 0x21
 1850 018b 00       		.byte	0
 1851 018c 49       		.uleb128 0x49
 1852 018d 13       		.uleb128 0x13
 1853 018e 2F       		.uleb128 0x2f
 1854 018f 0B       		.uleb128 0xb
 1855 0190 00       		.byte	0
 1856 0191 00       		.byte	0
 1857 0192 22       		.uleb128 0x22
 1858 0193 34       		.uleb128 0x34
 1859 0194 00       		.byte	0
 1860 0195 03       		.uleb128 0x3
 1861 0196 0E       		.uleb128 0xe
 1862 0197 3A       		.uleb128 0x3a
 1863 0198 0B       		.uleb128 0xb
 1864 0199 3B       		.uleb128 0x3b
 1865 019a 0B       		.uleb128 0xb
 1866 019b 49       		.uleb128 0x49
 1867 019c 13       		.uleb128 0x13
 1868 019d 02       		.uleb128 0x2
 1869 019e 18       		.uleb128 0x18
 1870 019f 00       		.byte	0
 1871 01a0 00       		.byte	0
 1872 01a1 23       		.uleb128 0x23
 1873 01a2 2E       		.uleb128 0x2e
 1874 01a3 01       		.byte	0x1
 1875 01a4 3F       		.uleb128 0x3f
ARM GAS  /var/folders/qh/xwg3v3kj02qbxczjpdb8lzfr0000gn/T//ccCZhKSZ.s 			page 34


 1876 01a5 19       		.uleb128 0x19
 1877 01a6 03       		.uleb128 0x3
 1878 01a7 0E       		.uleb128 0xe
 1879 01a8 3A       		.uleb128 0x3a
 1880 01a9 0B       		.uleb128 0xb
 1881 01aa 3B       		.uleb128 0x3b
 1882 01ab 0B       		.uleb128 0xb
 1883 01ac 27       		.uleb128 0x27
 1884 01ad 19       		.uleb128 0x19
 1885 01ae 3C       		.uleb128 0x3c
 1886 01af 19       		.uleb128 0x19
 1887 01b0 01       		.uleb128 0x1
 1888 01b1 13       		.uleb128 0x13
 1889 01b2 00       		.byte	0
 1890 01b3 00       		.byte	0
 1891 01b4 24       		.uleb128 0x24
 1892 01b5 2E       		.uleb128 0x2e
 1893 01b6 01       		.byte	0x1
 1894 01b7 3F       		.uleb128 0x3f
 1895 01b8 19       		.uleb128 0x19
 1896 01b9 03       		.uleb128 0x3
 1897 01ba 0E       		.uleb128 0xe
 1898 01bb 3A       		.uleb128 0x3a
 1899 01bc 0B       		.uleb128 0xb
 1900 01bd 3B       		.uleb128 0x3b
 1901 01be 05       		.uleb128 0x5
 1902 01bf 27       		.uleb128 0x27
 1903 01c0 19       		.uleb128 0x19
 1904 01c1 49       		.uleb128 0x49
 1905 01c2 13       		.uleb128 0x13
 1906 01c3 3C       		.uleb128 0x3c
 1907 01c4 19       		.uleb128 0x19
 1908 01c5 01       		.uleb128 0x1
 1909 01c6 13       		.uleb128 0x13
 1910 01c7 00       		.byte	0
 1911 01c8 00       		.byte	0
 1912 01c9 25       		.uleb128 0x25
 1913 01ca 2E       		.uleb128 0x2e
 1914 01cb 01       		.byte	0x1
 1915 01cc 3F       		.uleb128 0x3f
 1916 01cd 19       		.uleb128 0x19
 1917 01ce 03       		.uleb128 0x3
 1918 01cf 0E       		.uleb128 0xe
 1919 01d0 3A       		.uleb128 0x3a
 1920 01d1 0B       		.uleb128 0xb
 1921 01d2 3B       		.uleb128 0x3b
 1922 01d3 05       		.uleb128 0x5
 1923 01d4 27       		.uleb128 0x27
 1924 01d5 19       		.uleb128 0x19
 1925 01d6 3C       		.uleb128 0x3c
 1926 01d7 19       		.uleb128 0x19
 1927 01d8 00       		.byte	0
 1928 01d9 00       		.byte	0
 1929 01da 00       		.byte	0
 1930              		.section	.debug_loc,"",%progbits
 1931              	.Ldebug_loc0:
 1932              	.LLST0:
ARM GAS  /var/folders/qh/xwg3v3kj02qbxczjpdb8lzfr0000gn/T//ccCZhKSZ.s 			page 35


 1933 0000 00000000 		.4byte	.LVL0
 1934 0004 0F000000 		.4byte	.LVL1-1
 1935 0008 0100     		.2byte	0x1
 1936 000a 50       		.byte	0x50
 1937 000b 0F000000 		.4byte	.LVL1-1
 1938 000f 1C000000 		.4byte	.LFE49
 1939 0013 0400     		.2byte	0x4
 1940 0015 F3       		.byte	0xf3
 1941 0016 01       		.uleb128 0x1
 1942 0017 50       		.byte	0x50
 1943 0018 9F       		.byte	0x9f
 1944 0019 00000000 		.4byte	0
 1945 001d 00000000 		.4byte	0
 1946              	.LLST1:
 1947 0021 00000000 		.4byte	.LVL2
 1948 0025 12000000 		.4byte	.LVL5
 1949 0029 0100     		.2byte	0x1
 1950 002b 50       		.byte	0x50
 1951 002c 12000000 		.4byte	.LVL5
 1952 0030 2C000000 		.4byte	.LFE41
 1953 0034 0400     		.2byte	0x4
 1954 0036 F3       		.byte	0xf3
 1955 0037 01       		.uleb128 0x1
 1956 0038 50       		.byte	0x50
 1957 0039 9F       		.byte	0x9f
 1958 003a 00000000 		.4byte	0
 1959 003e 00000000 		.4byte	0
 1960              	.LLST2:
 1961 0042 00000000 		.4byte	.LVL2
 1962 0046 08000000 		.4byte	.LVL3
 1963 004a 0100     		.2byte	0x1
 1964 004c 51       		.byte	0x51
 1965 004d 08000000 		.4byte	.LVL3
 1966 0051 2C000000 		.4byte	.LFE41
 1967 0055 0400     		.2byte	0x4
 1968 0057 F3       		.byte	0xf3
 1969 0058 01       		.uleb128 0x1
 1970 0059 51       		.byte	0x51
 1971 005a 9F       		.byte	0x9f
 1972 005b 00000000 		.4byte	0
 1973 005f 00000000 		.4byte	0
 1974              	.LLST3:
 1975 0063 00000000 		.4byte	.LVL2
 1976 0067 0E000000 		.4byte	.LVL4
 1977 006b 0100     		.2byte	0x1
 1978 006d 52       		.byte	0x52
 1979 006e 0E000000 		.4byte	.LVL4
 1980 0072 2C000000 		.4byte	.LFE41
 1981 0076 0400     		.2byte	0x4
 1982 0078 F3       		.byte	0xf3
 1983 0079 01       		.uleb128 0x1
 1984 007a 52       		.byte	0x52
 1985 007b 9F       		.byte	0x9f
 1986 007c 00000000 		.4byte	0
 1987 0080 00000000 		.4byte	0
 1988              	.LLST4:
 1989 0084 00000000 		.4byte	.LVL8
ARM GAS  /var/folders/qh/xwg3v3kj02qbxczjpdb8lzfr0000gn/T//ccCZhKSZ.s 			page 36


 1990 0088 07000000 		.4byte	.LVL10-1
 1991 008c 0100     		.2byte	0x1
 1992 008e 50       		.byte	0x50
 1993 008f 07000000 		.4byte	.LVL10-1
 1994 0093 10000000 		.4byte	.LFE42
 1995 0097 0400     		.2byte	0x4
 1996 0099 F3       		.byte	0xf3
 1997 009a 01       		.uleb128 0x1
 1998 009b 50       		.byte	0x50
 1999 009c 9F       		.byte	0x9f
 2000 009d 00000000 		.4byte	0
 2001 00a1 00000000 		.4byte	0
 2002              	.LLST5:
 2003 00a5 00000000 		.4byte	.LVL8
 2004 00a9 04000000 		.4byte	.LVL9
 2005 00ad 0100     		.2byte	0x1
 2006 00af 51       		.byte	0x51
 2007 00b0 04000000 		.4byte	.LVL9
 2008 00b4 10000000 		.4byte	.LFE42
 2009 00b8 0400     		.2byte	0x4
 2010 00ba F3       		.byte	0xf3
 2011 00bb 01       		.uleb128 0x1
 2012 00bc 51       		.byte	0x51
 2013 00bd 9F       		.byte	0x9f
 2014 00be 00000000 		.4byte	0
 2015 00c2 00000000 		.4byte	0
 2016              	.LLST6:
 2017 00c6 00000000 		.4byte	.LVL8
 2018 00ca 07000000 		.4byte	.LVL10-1
 2019 00ce 0100     		.2byte	0x1
 2020 00d0 52       		.byte	0x52
 2021 00d1 07000000 		.4byte	.LVL10-1
 2022 00d5 10000000 		.4byte	.LFE42
 2023 00d9 0400     		.2byte	0x4
 2024 00db F3       		.byte	0xf3
 2025 00dc 01       		.uleb128 0x1
 2026 00dd 52       		.byte	0x52
 2027 00de 9F       		.byte	0x9f
 2028 00df 00000000 		.4byte	0
 2029 00e3 00000000 		.4byte	0
 2030              	.LLST7:
 2031 00e7 00000000 		.4byte	.LVL11
 2032 00eb 07000000 		.4byte	.LVL13-1
 2033 00ef 0100     		.2byte	0x1
 2034 00f1 50       		.byte	0x50
 2035 00f2 07000000 		.4byte	.LVL13-1
 2036 00f6 10000000 		.4byte	.LFE43
 2037 00fa 0400     		.2byte	0x4
 2038 00fc F3       		.byte	0xf3
 2039 00fd 01       		.uleb128 0x1
 2040 00fe 50       		.byte	0x50
 2041 00ff 9F       		.byte	0x9f
 2042 0100 00000000 		.4byte	0
 2043 0104 00000000 		.4byte	0
 2044              	.LLST8:
 2045 0108 00000000 		.4byte	.LVL11
 2046 010c 04000000 		.4byte	.LVL12
ARM GAS  /var/folders/qh/xwg3v3kj02qbxczjpdb8lzfr0000gn/T//ccCZhKSZ.s 			page 37


 2047 0110 0100     		.2byte	0x1
 2048 0112 51       		.byte	0x51
 2049 0113 04000000 		.4byte	.LVL12
 2050 0117 10000000 		.4byte	.LFE43
 2051 011b 0400     		.2byte	0x4
 2052 011d F3       		.byte	0xf3
 2053 011e 01       		.uleb128 0x1
 2054 011f 51       		.byte	0x51
 2055 0120 9F       		.byte	0x9f
 2056 0121 00000000 		.4byte	0
 2057 0125 00000000 		.4byte	0
 2058              	.LLST9:
 2059 0129 00000000 		.4byte	.LVL11
 2060 012d 07000000 		.4byte	.LVL13-1
 2061 0131 0100     		.2byte	0x1
 2062 0133 52       		.byte	0x52
 2063 0134 07000000 		.4byte	.LVL13-1
 2064 0138 10000000 		.4byte	.LFE43
 2065 013c 0400     		.2byte	0x4
 2066 013e F3       		.byte	0xf3
 2067 013f 01       		.uleb128 0x1
 2068 0140 52       		.byte	0x52
 2069 0141 9F       		.byte	0x9f
 2070 0142 00000000 		.4byte	0
 2071 0146 00000000 		.4byte	0
 2072              	.LLST10:
 2073 014a 00000000 		.4byte	.LVL14
 2074 014e 07000000 		.4byte	.LVL16-1
 2075 0152 0100     		.2byte	0x1
 2076 0154 50       		.byte	0x50
 2077 0155 07000000 		.4byte	.LVL16-1
 2078 0159 10000000 		.4byte	.LFE44
 2079 015d 0400     		.2byte	0x4
 2080 015f F3       		.byte	0xf3
 2081 0160 01       		.uleb128 0x1
 2082 0161 50       		.byte	0x50
 2083 0162 9F       		.byte	0x9f
 2084 0163 00000000 		.4byte	0
 2085 0167 00000000 		.4byte	0
 2086              	.LLST11:
 2087 016b 00000000 		.4byte	.LVL14
 2088 016f 04000000 		.4byte	.LVL15
 2089 0173 0100     		.2byte	0x1
 2090 0175 51       		.byte	0x51
 2091 0176 04000000 		.4byte	.LVL15
 2092 017a 10000000 		.4byte	.LFE44
 2093 017e 0400     		.2byte	0x4
 2094 0180 F3       		.byte	0xf3
 2095 0181 01       		.uleb128 0x1
 2096 0182 51       		.byte	0x51
 2097 0183 9F       		.byte	0x9f
 2098 0184 00000000 		.4byte	0
 2099 0188 00000000 		.4byte	0
 2100              	.LLST12:
 2101 018c 00000000 		.4byte	.LVL14
 2102 0190 07000000 		.4byte	.LVL16-1
 2103 0194 0100     		.2byte	0x1
ARM GAS  /var/folders/qh/xwg3v3kj02qbxczjpdb8lzfr0000gn/T//ccCZhKSZ.s 			page 38


 2104 0196 52       		.byte	0x52
 2105 0197 07000000 		.4byte	.LVL16-1
 2106 019b 10000000 		.4byte	.LFE44
 2107 019f 0400     		.2byte	0x4
 2108 01a1 F3       		.byte	0xf3
 2109 01a2 01       		.uleb128 0x1
 2110 01a3 52       		.byte	0x52
 2111 01a4 9F       		.byte	0x9f
 2112 01a5 00000000 		.4byte	0
 2113 01a9 00000000 		.4byte	0
 2114              	.LLST13:
 2115 01ad 00000000 		.4byte	.LVL17
 2116 01b1 07000000 		.4byte	.LVL19-1
 2117 01b5 0100     		.2byte	0x1
 2118 01b7 50       		.byte	0x50
 2119 01b8 07000000 		.4byte	.LVL19-1
 2120 01bc 10000000 		.4byte	.LFE45
 2121 01c0 0400     		.2byte	0x4
 2122 01c2 F3       		.byte	0xf3
 2123 01c3 01       		.uleb128 0x1
 2124 01c4 50       		.byte	0x50
 2125 01c5 9F       		.byte	0x9f
 2126 01c6 00000000 		.4byte	0
 2127 01ca 00000000 		.4byte	0
 2128              	.LLST14:
 2129 01ce 00000000 		.4byte	.LVL17
 2130 01d2 04000000 		.4byte	.LVL18
 2131 01d6 0100     		.2byte	0x1
 2132 01d8 51       		.byte	0x51
 2133 01d9 04000000 		.4byte	.LVL18
 2134 01dd 10000000 		.4byte	.LFE45
 2135 01e1 0400     		.2byte	0x4
 2136 01e3 F3       		.byte	0xf3
 2137 01e4 01       		.uleb128 0x1
 2138 01e5 51       		.byte	0x51
 2139 01e6 9F       		.byte	0x9f
 2140 01e7 00000000 		.4byte	0
 2141 01eb 00000000 		.4byte	0
 2142              	.LLST15:
 2143 01ef 00000000 		.4byte	.LVL17
 2144 01f3 07000000 		.4byte	.LVL19-1
 2145 01f7 0100     		.2byte	0x1
 2146 01f9 52       		.byte	0x52
 2147 01fa 07000000 		.4byte	.LVL19-1
 2148 01fe 10000000 		.4byte	.LFE45
 2149 0202 0400     		.2byte	0x4
 2150 0204 F3       		.byte	0xf3
 2151 0205 01       		.uleb128 0x1
 2152 0206 52       		.byte	0x52
 2153 0207 9F       		.byte	0x9f
 2154 0208 00000000 		.4byte	0
 2155 020c 00000000 		.4byte	0
 2156              	.LLST16:
 2157 0210 00000000 		.4byte	.LVL20
 2158 0214 07000000 		.4byte	.LVL22-1
 2159 0218 0100     		.2byte	0x1
 2160 021a 50       		.byte	0x50
ARM GAS  /var/folders/qh/xwg3v3kj02qbxczjpdb8lzfr0000gn/T//ccCZhKSZ.s 			page 39


 2161 021b 07000000 		.4byte	.LVL22-1
 2162 021f 10000000 		.4byte	.LFE46
 2163 0223 0400     		.2byte	0x4
 2164 0225 F3       		.byte	0xf3
 2165 0226 01       		.uleb128 0x1
 2166 0227 50       		.byte	0x50
 2167 0228 9F       		.byte	0x9f
 2168 0229 00000000 		.4byte	0
 2169 022d 00000000 		.4byte	0
 2170              	.LLST17:
 2171 0231 00000000 		.4byte	.LVL20
 2172 0235 04000000 		.4byte	.LVL21
 2173 0239 0100     		.2byte	0x1
 2174 023b 51       		.byte	0x51
 2175 023c 04000000 		.4byte	.LVL21
 2176 0240 10000000 		.4byte	.LFE46
 2177 0244 0400     		.2byte	0x4
 2178 0246 F3       		.byte	0xf3
 2179 0247 01       		.uleb128 0x1
 2180 0248 51       		.byte	0x51
 2181 0249 9F       		.byte	0x9f
 2182 024a 00000000 		.4byte	0
 2183 024e 00000000 		.4byte	0
 2184              	.LLST18:
 2185 0252 00000000 		.4byte	.LVL20
 2186 0256 07000000 		.4byte	.LVL22-1
 2187 025a 0100     		.2byte	0x1
 2188 025c 52       		.byte	0x52
 2189 025d 07000000 		.4byte	.LVL22-1
 2190 0261 10000000 		.4byte	.LFE46
 2191 0265 0400     		.2byte	0x4
 2192 0267 F3       		.byte	0xf3
 2193 0268 01       		.uleb128 0x1
 2194 0269 52       		.byte	0x52
 2195 026a 9F       		.byte	0x9f
 2196 026b 00000000 		.4byte	0
 2197 026f 00000000 		.4byte	0
 2198              	.LLST19:
 2199 0273 00000000 		.4byte	.LVL23
 2200 0277 07000000 		.4byte	.LVL25-1
 2201 027b 0100     		.2byte	0x1
 2202 027d 50       		.byte	0x50
 2203 027e 07000000 		.4byte	.LVL25-1
 2204 0282 10000000 		.4byte	.LFE47
 2205 0286 0400     		.2byte	0x4
 2206 0288 F3       		.byte	0xf3
 2207 0289 01       		.uleb128 0x1
 2208 028a 50       		.byte	0x50
 2209 028b 9F       		.byte	0x9f
 2210 028c 00000000 		.4byte	0
 2211 0290 00000000 		.4byte	0
 2212              	.LLST20:
 2213 0294 00000000 		.4byte	.LVL23
 2214 0298 04000000 		.4byte	.LVL24
 2215 029c 0100     		.2byte	0x1
 2216 029e 51       		.byte	0x51
 2217 029f 04000000 		.4byte	.LVL24
ARM GAS  /var/folders/qh/xwg3v3kj02qbxczjpdb8lzfr0000gn/T//ccCZhKSZ.s 			page 40


 2218 02a3 10000000 		.4byte	.LFE47
 2219 02a7 0400     		.2byte	0x4
 2220 02a9 F3       		.byte	0xf3
 2221 02aa 01       		.uleb128 0x1
 2222 02ab 51       		.byte	0x51
 2223 02ac 9F       		.byte	0x9f
 2224 02ad 00000000 		.4byte	0
 2225 02b1 00000000 		.4byte	0
 2226              	.LLST21:
 2227 02b5 00000000 		.4byte	.LVL23
 2228 02b9 07000000 		.4byte	.LVL25-1
 2229 02bd 0100     		.2byte	0x1
 2230 02bf 52       		.byte	0x52
 2231 02c0 07000000 		.4byte	.LVL25-1
 2232 02c4 10000000 		.4byte	.LFE47
 2233 02c8 0400     		.2byte	0x4
 2234 02ca F3       		.byte	0xf3
 2235 02cb 01       		.uleb128 0x1
 2236 02cc 52       		.byte	0x52
 2237 02cd 9F       		.byte	0x9f
 2238 02ce 00000000 		.4byte	0
 2239 02d2 00000000 		.4byte	0
 2240              	.LLST22:
 2241 02d6 00000000 		.4byte	.LVL26
 2242 02da 07000000 		.4byte	.LVL28-1
 2243 02de 0100     		.2byte	0x1
 2244 02e0 50       		.byte	0x50
 2245 02e1 07000000 		.4byte	.LVL28-1
 2246 02e5 10000000 		.4byte	.LFE48
 2247 02e9 0400     		.2byte	0x4
 2248 02eb F3       		.byte	0xf3
 2249 02ec 01       		.uleb128 0x1
 2250 02ed 50       		.byte	0x50
 2251 02ee 9F       		.byte	0x9f
 2252 02ef 00000000 		.4byte	0
 2253 02f3 00000000 		.4byte	0
 2254              	.LLST23:
 2255 02f7 00000000 		.4byte	.LVL26
 2256 02fb 04000000 		.4byte	.LVL27
 2257 02ff 0100     		.2byte	0x1
 2258 0301 51       		.byte	0x51
 2259 0302 04000000 		.4byte	.LVL27
 2260 0306 10000000 		.4byte	.LFE48
 2261 030a 0400     		.2byte	0x4
 2262 030c F3       		.byte	0xf3
 2263 030d 01       		.uleb128 0x1
 2264 030e 51       		.byte	0x51
 2265 030f 9F       		.byte	0x9f
 2266 0310 00000000 		.4byte	0
 2267 0314 00000000 		.4byte	0
 2268              	.LLST24:
 2269 0318 00000000 		.4byte	.LVL26
 2270 031c 07000000 		.4byte	.LVL28-1
 2271 0320 0100     		.2byte	0x1
 2272 0322 52       		.byte	0x52
 2273 0323 07000000 		.4byte	.LVL28-1
 2274 0327 10000000 		.4byte	.LFE48
ARM GAS  /var/folders/qh/xwg3v3kj02qbxczjpdb8lzfr0000gn/T//ccCZhKSZ.s 			page 41


 2275 032b 0400     		.2byte	0x4
 2276 032d F3       		.byte	0xf3
 2277 032e 01       		.uleb128 0x1
 2278 032f 52       		.byte	0x52
 2279 0330 9F       		.byte	0x9f
 2280 0331 00000000 		.4byte	0
 2281 0335 00000000 		.4byte	0
 2282              		.section	.debug_aranges,"",%progbits
 2283 0000 5C000000 		.4byte	0x5c
 2284 0004 0200     		.2byte	0x2
 2285 0006 00000000 		.4byte	.Ldebug_info0
 2286 000a 04       		.byte	0x4
 2287 000b 00       		.byte	0
 2288 000c 0000     		.2byte	0
 2289 000e 0000     		.2byte	0
 2290 0010 00000000 		.4byte	.LFB49
 2291 0014 1C000000 		.4byte	.LFE49-.LFB49
 2292 0018 00000000 		.4byte	.LFB41
 2293 001c 2C000000 		.4byte	.LFE41-.LFB41
 2294 0020 00000000 		.4byte	.LFB42
 2295 0024 10000000 		.4byte	.LFE42-.LFB42
 2296 0028 00000000 		.4byte	.LFB43
 2297 002c 10000000 		.4byte	.LFE43-.LFB43
 2298 0030 00000000 		.4byte	.LFB44
 2299 0034 10000000 		.4byte	.LFE44-.LFB44
 2300 0038 00000000 		.4byte	.LFB45
 2301 003c 10000000 		.4byte	.LFE45-.LFB45
 2302 0040 00000000 		.4byte	.LFB46
 2303 0044 10000000 		.4byte	.LFE46-.LFB46
 2304 0048 00000000 		.4byte	.LFB47
 2305 004c 10000000 		.4byte	.LFE47-.LFB47
 2306 0050 00000000 		.4byte	.LFB48
 2307 0054 10000000 		.4byte	.LFE48-.LFB48
 2308 0058 00000000 		.4byte	0
 2309 005c 00000000 		.4byte	0
 2310              		.section	.debug_ranges,"",%progbits
 2311              	.Ldebug_ranges0:
 2312 0000 00000000 		.4byte	.LFB49
 2313 0004 1C000000 		.4byte	.LFE49
 2314 0008 00000000 		.4byte	.LFB41
 2315 000c 2C000000 		.4byte	.LFE41
 2316 0010 00000000 		.4byte	.LFB42
 2317 0014 10000000 		.4byte	.LFE42
 2318 0018 00000000 		.4byte	.LFB43
 2319 001c 10000000 		.4byte	.LFE43
 2320 0020 00000000 		.4byte	.LFB44
 2321 0024 10000000 		.4byte	.LFE44
 2322 0028 00000000 		.4byte	.LFB45
 2323 002c 10000000 		.4byte	.LFE45
 2324 0030 00000000 		.4byte	.LFB46
 2325 0034 10000000 		.4byte	.LFE46
 2326 0038 00000000 		.4byte	.LFB47
 2327 003c 10000000 		.4byte	.LFE47
 2328 0040 00000000 		.4byte	.LFB48
 2329 0044 10000000 		.4byte	.LFE48
 2330 0048 00000000 		.4byte	0
 2331 004c 00000000 		.4byte	0
ARM GAS  /var/folders/qh/xwg3v3kj02qbxczjpdb8lzfr0000gn/T//ccCZhKSZ.s 			page 42


 2332              		.section	.debug_line,"",%progbits
 2333              	.Ldebug_line0:
 2334 0000 43020000 		.section	.debug_str,"MS",%progbits,1
 2334      02008C01 
 2334      00000201 
 2334      FB0E0D00 
 2334      01010101 
 2335              	.LASF17:
 2336 0000 74726566 		.ascii	"trefs_t\000"
 2336      735F7400 
 2337              	.LASF53:
 2338 0008 6D5F6E65 		.ascii	"m_next\000"
 2338      787400
 2339              	.LASF77:
 2340 000f 636D6442 		.ascii	"cmdBluetooth\000"
 2340      6C756574 
 2340      6F6F7468 
 2340      00
 2341              	.LASF84:
 2342 001c 63685468 		.ascii	"chThdCreateStatic\000"
 2342      64437265 
 2342      61746553 
 2342      74617469 
 2342      6300
 2343              	.LASF12:
 2344 002e 75696E74 		.ascii	"uint64_t\000"
 2344      36345F74 
 2344      00
 2345              	.LASF44:
 2346 0037 54687265 		.ascii	"ThreadsList\000"
 2346      6164734C 
 2346      69737400 
 2347              	.LASF5:
 2348 0043 73686F72 		.ascii	"short int\000"
 2348      7420696E 
 2348      7400
 2349              	.LASF2:
 2350 004d 73697A65 		.ascii	"size_t\000"
 2350      5F7400
 2351              	.LASF79:
 2352 0054 636D642E 		.ascii	"cmd.c\000"
 2352      6300
 2353              	.LASF39:
 2354 005a 705F6570 		.ascii	"p_epending\000"
 2354      656E6469 
 2354      6E6700
 2355              	.LASF25:
 2356 0065 705F7072 		.ascii	"p_prev\000"
 2356      657600
 2357              	.LASF63:
 2358 006c 42617365 		.ascii	"BaseSequentialStream\000"
 2358      53657175 
 2358      656E7469 
 2358      616C5374 
 2358      7265616D 
 2359              	.LASF71:
 2360 0081 636D6447 		.ascii	"cmdGetVoltage\000"
ARM GAS  /var/folders/qh/xwg3v3kj02qbxczjpdb8lzfr0000gn/T//ccCZhKSZ.s 			page 43


 2360      6574566F 
 2360      6C746167 
 2360      6500
 2361              	.LASF85:
 2362 008f 63685468 		.ascii	"chThdSleep\000"
 2362      64536C65 
 2362      657000
 2363              	.LASF21:
 2364 009a 6576656E 		.ascii	"eventmask_t\000"
 2364      746D6173 
 2364      6B5F7400 
 2365              	.LASF37:
 2366 00a6 705F6D73 		.ascii	"p_msgqueue\000"
 2366      67717565 
 2366      756500
 2367              	.LASF26:
 2368 00b1 705F7072 		.ascii	"p_prio\000"
 2368      696F00
 2369              	.LASF24:
 2370 00b8 705F6E65 		.ascii	"p_next\000"
 2370      787400
 2371              	.LASF67:
 2372 00bf 76615F6C 		.ascii	"va_list\000"
 2372      69737400 
 2373              	.LASF76:
 2374 00c7 636D6453 		.ascii	"cmdSpi\000"
 2374      706900
 2375              	.LASF45:
 2376 00ce 72656761 		.ascii	"regarm_t\000"
 2376      726D5F74 
 2376      00
 2377              	.LASF3:
 2378 00d7 75696E74 		.ascii	"uint8_t\000"
 2378      385F7400 
 2379              	.LASF82:
 2380 00df 61646354 		.ascii	"adcTempArea\000"
 2380      656D7041 
 2380      72656100 
 2381              	.LASF74:
 2382 00eb 636D6450 		.ascii	"cmdPwm\000"
 2382      776D00
 2383              	.LASF18:
 2384 00f2 74736C69 		.ascii	"tslices_t\000"
 2384      6365735F 
 2384      7400
 2385              	.LASF7:
 2386 00fc 696E7433 		.ascii	"int32_t\000"
 2386      325F7400 
 2387              	.LASF78:
 2388 0104 474E5520 		.ascii	"GNU C 4.8.3 20131129 (release) [ARM/embedded-4_8-br"
 2388      4320342E 
 2388      382E3320 
 2388      32303133 
 2388      31313239 
 2389 0137 616E6368 		.ascii	"anch revision 205641] -mcpu=cortex-m0 -mno-thumb-in"
 2389      20726576 
 2389      6973696F 
ARM GAS  /var/folders/qh/xwg3v3kj02qbxczjpdb8lzfr0000gn/T//ccCZhKSZ.s 			page 44


 2389      6E203230 
 2389      35363431 
 2390 016a 74657277 		.ascii	"terwork -mthumb -ggdb -O2 -fomit-frame-pointer -fal"
 2390      6F726B20 
 2390      2D6D7468 
 2390      756D6220 
 2390      2D676764 
 2391 019d 69676E2D 		.ascii	"ign-functions=16 -ffunction-sections -fdata-section"
 2391      66756E63 
 2391      74696F6E 
 2391      733D3136 
 2391      202D6666 
 2392 01d0 73202D66 		.ascii	"s -fno-common\000"
 2392      6E6F2D63 
 2392      6F6D6D6F 
 2392      6E00
 2393              	.LASF35:
 2394 01de 705F7469 		.ascii	"p_time\000"
 2394      6D6500
 2395              	.LASF68:
 2396 01e5 61726763 		.ascii	"argc\000"
 2396      00
 2397              	.LASF15:
 2398 01ea 746D6F64 		.ascii	"tmode_t\000"
 2398      655F7400 
 2399              	.LASF11:
 2400 01f2 6C6F6E67 		.ascii	"long long int\000"
 2400      206C6F6E 
 2400      6720696E 
 2400      7400
 2401              	.LASF30:
 2402 0200 705F6E61 		.ascii	"p_name\000"
 2402      6D6500
 2403              	.LASF19:
 2404 0207 74707269 		.ascii	"tprio_t\000"
 2404      6F5F7400 
 2405              	.LASF65:
 2406 020f 5F5F7661 		.ascii	"__va_list\000"
 2406      5F6C6973 
 2406      7400
 2407              	.LASF8:
 2408 0219 6C6F6E67 		.ascii	"long int\000"
 2408      20696E74 
 2408      00
 2409              	.LASF50:
 2410 0222 4D757465 		.ascii	"Mutex\000"
 2410      7800
 2411              	.LASF51:
 2412 0228 6D5F7175 		.ascii	"m_queue\000"
 2412      65756500 
 2413              	.LASF48:
 2414 0230 636F6E74 		.ascii	"context\000"
 2414      65787400 
 2415              	.LASF70:
 2416 0238 636D6447 		.ascii	"cmdGetTemp\000"
 2416      65745465 
 2416      6D7000
ARM GAS  /var/folders/qh/xwg3v3kj02qbxczjpdb8lzfr0000gn/T//ccCZhKSZ.s 			page 45


 2417              	.LASF38:
 2418 0243 705F6D73 		.ascii	"p_msg\000"
 2418      6700
 2419              	.LASF80:
 2420 0249 2F557365 		.ascii	"/Users/John/Development/embedded/ChibiOS-RT/BluC/ST"
 2420      72732F4A 
 2420      6F686E2F 
 2420      44657665 
 2420      6C6F706D 
 2421 027c 4D333246 		.ascii	"M32F051\000"
 2421      30353100 
 2422              	.LASF4:
 2423 0284 756E7369 		.ascii	"unsigned char\000"
 2423      676E6564 
 2423      20636861 
 2423      7200
 2424              	.LASF57:
 2425 0292 65776D61 		.ascii	"ewmask\000"
 2425      736B00
 2426              	.LASF62:
 2427 0299 72656164 		.ascii	"read\000"
 2427      00
 2428              	.LASF1:
 2429 029e 7369676E 		.ascii	"signed char\000"
 2429      65642063 
 2429      68617200 
 2430              	.LASF28:
 2431 02aa 705F6E65 		.ascii	"p_newer\000"
 2431      77657200 
 2432              	.LASF13:
 2433 02b2 6C6F6E67 		.ascii	"long long unsigned int\000"
 2433      206C6F6E 
 2433      6720756E 
 2433      7369676E 
 2433      65642069 
 2434              	.LASF9:
 2435 02c9 75696E74 		.ascii	"uint32_t\000"
 2435      33325F74 
 2435      00
 2436              	.LASF0:
 2437 02d2 756E7369 		.ascii	"unsigned int\000"
 2437      676E6564 
 2437      20696E74 
 2437      00
 2438              	.LASF69:
 2439 02df 61726776 		.ascii	"argv\000"
 2439      00
 2440              	.LASF46:
 2441 02e4 73746B61 		.ascii	"stkalign_t\000"
 2441      6C69676E 
 2441      5F7400
 2442              	.LASF42:
 2443 02ef 705F6D70 		.ascii	"p_mpool\000"
 2443      6F6F6C00 
 2444              	.LASF75:
 2445 02f7 636D6455 		.ascii	"cmdUart\000"
 2445      61727400 
ARM GAS  /var/folders/qh/xwg3v3kj02qbxczjpdb8lzfr0000gn/T//ccCZhKSZ.s 			page 46


 2446              	.LASF6:
 2447 02ff 73686F72 		.ascii	"short unsigned int\000"
 2447      7420756E 
 2447      7369676E 
 2447      65642069 
 2447      6E7400
 2448              	.LASF32:
 2449 0312 705F666C 		.ascii	"p_flags\000"
 2449      61677300 
 2450              	.LASF34:
 2451 031a 705F7072 		.ascii	"p_preempt\000"
 2451      65656D70 
 2451      7400
 2452              	.LASF41:
 2453 0324 705F7265 		.ascii	"p_realprio\000"
 2453      616C7072 
 2453      696F00
 2454              	.LASF22:
 2455 032f 73797374 		.ascii	"systime_t\000"
 2455      696D655F 
 2455      7400
 2456              	.LASF66:
 2457 0339 5F5F6170 		.ascii	"__ap\000"
 2457      00
 2458              	.LASF58:
 2459 033e 63686172 		.ascii	"char\000"
 2459      00
 2460              	.LASF59:
 2461 0343 7466756E 		.ascii	"tfunc_t\000"
 2461      635F7400 
 2462              	.LASF31:
 2463 034b 705F7374 		.ascii	"p_state\000"
 2463      61746500 
 2464              	.LASF43:
 2465 0353 54687265 		.ascii	"ThreadsQueue\000"
 2465      61647351 
 2465      75657565 
 2465      00
 2466              	.LASF14:
 2467 0360 5F426F6F 		.ascii	"_Bool\000"
 2467      6C00
 2468              	.LASF81:
 2469 0366 63687072 		.ascii	"chprintf\000"
 2469      696E7466 
 2469      00
 2470              	.LASF36:
 2471 036f 705F7761 		.ascii	"p_waiting\000"
 2471      6974696E 
 2471      6700
 2472              	.LASF40:
 2473 0379 705F6D74 		.ascii	"p_mtxlist\000"
 2473      786C6973 
 2473      7400
 2474              	.LASF47:
 2475 0383 696E7463 		.ascii	"intctx\000"
 2475      747800
 2476              	.LASF72:
ARM GAS  /var/folders/qh/xwg3v3kj02qbxczjpdb8lzfr0000gn/T//ccCZhKSZ.s 			page 47


 2477 038a 636D6447 		.ascii	"cmdGetBattery\000"
 2477      65744261 
 2477      74746572 
 2477      7900
 2478              	.LASF10:
 2479 0398 6C6F6E67 		.ascii	"long unsigned int\000"
 2479      20756E73 
 2479      69676E65 
 2479      6420696E 
 2479      7400
 2480              	.LASF61:
 2481 03aa 77726974 		.ascii	"write\000"
 2481      6500
 2482              	.LASF73:
 2483 03b0 636D6441 		.ascii	"cmdAdc\000"
 2483      646300
 2484              	.LASF56:
 2485 03b7 77746F62 		.ascii	"wtobjp\000"
 2485      6A7000
 2486              	.LASF16:
 2487 03be 74737461 		.ascii	"tstate_t\000"
 2487      74655F74 
 2487      00
 2488              	.LASF23:
 2489 03c7 54687265 		.ascii	"Thread\000"
 2489      616400
 2490              	.LASF55:
 2491 03ce 65786974 		.ascii	"exitcode\000"
 2491      636F6465 
 2491      00
 2492              	.LASF49:
 2493 03d7 73697A65 		.ascii	"sizetype\000"
 2493      74797065 
 2493      00
 2494              	.LASF64:
 2495 03e0 5F5F676E 		.ascii	"__gnuc_va_list\000"
 2495      75635F76 
 2495      615F6C69 
 2495      737400
 2496              	.LASF29:
 2497 03ef 705F6F6C 		.ascii	"p_older\000"
 2497      64657200 
 2498              	.LASF33:
 2499 03f7 705F7265 		.ascii	"p_refs\000"
 2499      667300
 2500              	.LASF27:
 2501 03fe 705F6374 		.ascii	"p_ctx\000"
 2501      7800
 2502              	.LASF52:
 2503 0404 6D5F6F77 		.ascii	"m_owner\000"
 2503      6E657200 
 2504              	.LASF54:
 2505 040c 7264796D 		.ascii	"rdymsg\000"
 2505      736700
 2506              	.LASF20:
 2507 0413 6D73675F 		.ascii	"msg_t\000"
 2507      7400
ARM GAS  /var/folders/qh/xwg3v3kj02qbxczjpdb8lzfr0000gn/T//ccCZhKSZ.s 			page 48


 2508              	.LASF60:
 2509 0419 42617365 		.ascii	"BaseSequentialStreamVMT\000"
 2509      53657175 
 2509      656E7469 
 2509      616C5374 
 2509      7265616D 
 2510              	.LASF83:
 2511 0431 63687670 		.ascii	"chvprintf\000"
 2511      72696E74 
 2511      6600
 2512              		.ident	"GCC: (GNU Tools for ARM Embedded Processors) 4.8.3 20131129 (release) [ARM/embedded-4_8-br
ARM GAS  /var/folders/qh/xwg3v3kj02qbxczjpdb8lzfr0000gn/T//ccCZhKSZ.s 			page 49


DEFINED SYMBOLS
                            *ABS*:0000000000000000 cmd.c
/var/folders/qh/xwg3v3kj02qbxczjpdb8lzfr0000gn/T//ccCZhKSZ.s:18     .text.chprintf.constprop.0:0000000000000000 $t
/var/folders/qh/xwg3v3kj02qbxczjpdb8lzfr0000gn/T//ccCZhKSZ.s:23     .text.chprintf.constprop.0:0000000000000000 chprintf.constprop.0
/var/folders/qh/xwg3v3kj02qbxczjpdb8lzfr0000gn/T//ccCZhKSZ.s:54     .text.chprintf.constprop.0:0000000000000018 $d
/var/folders/qh/xwg3v3kj02qbxczjpdb8lzfr0000gn/T//ccCZhKSZ.s:59     .text.cmdGetTemp:0000000000000000 $t
/var/folders/qh/xwg3v3kj02qbxczjpdb8lzfr0000gn/T//ccCZhKSZ.s:65     .text.cmdGetTemp:0000000000000000 cmdGetTemp
/var/folders/qh/xwg3v3kj02qbxczjpdb8lzfr0000gn/T//ccCZhKSZ.s:103    .text.cmdGetTemp:0000000000000024 $d
/var/folders/qh/xwg3v3kj02qbxczjpdb8lzfr0000gn/T//ccCZhKSZ.s:109    .text.cmdGetVoltage:0000000000000000 $t
/var/folders/qh/xwg3v3kj02qbxczjpdb8lzfr0000gn/T//ccCZhKSZ.s:115    .text.cmdGetVoltage:0000000000000000 cmdGetVoltage
/var/folders/qh/xwg3v3kj02qbxczjpdb8lzfr0000gn/T//ccCZhKSZ.s:135    .text.cmdGetVoltage:000000000000000c $d
/var/folders/qh/xwg3v3kj02qbxczjpdb8lzfr0000gn/T//ccCZhKSZ.s:140    .text.cmdGetBattery:0000000000000000 $t
/var/folders/qh/xwg3v3kj02qbxczjpdb8lzfr0000gn/T//ccCZhKSZ.s:146    .text.cmdGetBattery:0000000000000000 cmdGetBattery
/var/folders/qh/xwg3v3kj02qbxczjpdb8lzfr0000gn/T//ccCZhKSZ.s:166    .text.cmdGetBattery:000000000000000c $d
/var/folders/qh/xwg3v3kj02qbxczjpdb8lzfr0000gn/T//ccCZhKSZ.s:171    .text.cmdAdc:0000000000000000 $t
/var/folders/qh/xwg3v3kj02qbxczjpdb8lzfr0000gn/T//ccCZhKSZ.s:177    .text.cmdAdc:0000000000000000 cmdAdc
/var/folders/qh/xwg3v3kj02qbxczjpdb8lzfr0000gn/T//ccCZhKSZ.s:197    .text.cmdAdc:000000000000000c $d
/var/folders/qh/xwg3v3kj02qbxczjpdb8lzfr0000gn/T//ccCZhKSZ.s:202    .text.cmdPwm:0000000000000000 $t
/var/folders/qh/xwg3v3kj02qbxczjpdb8lzfr0000gn/T//ccCZhKSZ.s:208    .text.cmdPwm:0000000000000000 cmdPwm
/var/folders/qh/xwg3v3kj02qbxczjpdb8lzfr0000gn/T//ccCZhKSZ.s:228    .text.cmdPwm:000000000000000c $d
/var/folders/qh/xwg3v3kj02qbxczjpdb8lzfr0000gn/T//ccCZhKSZ.s:233    .text.cmdUart:0000000000000000 $t
/var/folders/qh/xwg3v3kj02qbxczjpdb8lzfr0000gn/T//ccCZhKSZ.s:239    .text.cmdUart:0000000000000000 cmdUart
/var/folders/qh/xwg3v3kj02qbxczjpdb8lzfr0000gn/T//ccCZhKSZ.s:259    .text.cmdUart:000000000000000c $d
/var/folders/qh/xwg3v3kj02qbxczjpdb8lzfr0000gn/T//ccCZhKSZ.s:264    .text.cmdSpi:0000000000000000 $t
/var/folders/qh/xwg3v3kj02qbxczjpdb8lzfr0000gn/T//ccCZhKSZ.s:270    .text.cmdSpi:0000000000000000 cmdSpi
/var/folders/qh/xwg3v3kj02qbxczjpdb8lzfr0000gn/T//ccCZhKSZ.s:290    .text.cmdSpi:000000000000000c $d
/var/folders/qh/xwg3v3kj02qbxczjpdb8lzfr0000gn/T//ccCZhKSZ.s:295    .text.cmdBluetooth:0000000000000000 $t
/var/folders/qh/xwg3v3kj02qbxczjpdb8lzfr0000gn/T//ccCZhKSZ.s:301    .text.cmdBluetooth:0000000000000000 cmdBluetooth
/var/folders/qh/xwg3v3kj02qbxczjpdb8lzfr0000gn/T//ccCZhKSZ.s:321    .text.cmdBluetooth:000000000000000c $d
/var/folders/qh/xwg3v3kj02qbxczjpdb8lzfr0000gn/T//ccCZhKSZ.s:326    .bss.adcTempArea:0000000000000000 $d
/var/folders/qh/xwg3v3kj02qbxczjpdb8lzfr0000gn/T//ccCZhKSZ.s:330    .bss.adcTempArea:0000000000000000 adcTempArea
/var/folders/qh/xwg3v3kj02qbxczjpdb8lzfr0000gn/T//ccCZhKSZ.s:333    .rodata.str1.4:0000000000000000 $d
                     .debug_frame:0000000000000010 $d
/var/folders/qh/xwg3v3kj02qbxczjpdb8lzfr0000gn/T//ccCZhKSZ.s:58     .text.chprintf.constprop.0:000000000000001c $t
/var/folders/qh/xwg3v3kj02qbxczjpdb8lzfr0000gn/T//ccCZhKSZ.s:108    .text.cmdGetTemp:000000000000002c $t

UNDEFINED SYMBOLS
chvprintf
chThdCreateStatic
chThdSleep
adcConversionThread
