ARM GAS  /var/folders/qh/xwg3v3kj02qbxczjpdb8lzfr0000gn/T//ccRq4Toz.s 			page 1


   1              		.cpu cortex-m0
   2              		.fpu softvfp
   3              		.eabi_attribute 20, 1
   4              		.eabi_attribute 21, 1
   5              		.eabi_attribute 23, 3
   6              		.eabi_attribute 24, 1
   7              		.eabi_attribute 25, 1
   8              		.eabi_attribute 26, 1
   9              		.eabi_attribute 30, 2
  10              		.eabi_attribute 34, 0
  11              		.eabi_attribute 18, 4
  12              		.code	16
  13              		.file	"cmd.c"
  14              		.text
  15              	.Ltext0:
  16              		.cfi_sections	.debug_frame
  17              		.section	.text.chprintf,"ax",%progbits
  18              		.align	2
  19              		.p2align 4,,15
  20              		.code	16
  21              		.thumb_func
  22              		.type	chprintf, %function
  23              	chprintf:
  24              	.LFB40:
  25              		.file 1 "../../os/various/chprintf.h"
  26              		.loc 1 69 0
  27              		.cfi_startproc
  28              	.LVL0:
  29 0000 0EB4     		push	{r1, r2, r3}
  30              		.cfi_def_cfa_offset 12
  31 0002 00B5     		push	{lr}
  32              		.cfi_def_cfa_offset 16
  33              		.cfi_offset 14, -16
  34 0004 82B0     		sub	sp, sp, #8
  35              		.cfi_def_cfa_offset 24
  36              		.loc 1 69 0
  37 0006 03AA     		add	r2, sp, #12
  38 0008 08CA     		ldmia	r2!, {r3}
  39              		.loc 1 73 0
  40 000a 191C     		mov	r1, r3
  41              		.loc 1 72 0
  42 000c 0192     		str	r2, [sp, #4]
  43              		.loc 1 73 0
  44 000e FFF7FEFF 		bl	chvprintf
  45              	.LVL1:
  46              		.loc 1 75 0
  47 0012 02B0     		add	sp, sp, #8
  48              		@ sp needed
  49 0014 08BC     		pop	{r3}
  50 0016 03B0     		add	sp, sp, #12
  51 0018 1847     		bx	r3
  52              		.cfi_endproc
  53              	.LFE40:
  54              		.size	chprintf, .-chprintf
  55 001a C046C046 		.section	.text.cmdGetTemp,"ax",%progbits
  55      C046
  56              		.align	2
ARM GAS  /var/folders/qh/xwg3v3kj02qbxczjpdb8lzfr0000gn/T//ccRq4Toz.s 			page 2


  57              		.p2align 4,,15
  58              		.global	cmdGetTemp
  59              		.code	16
  60              		.thumb_func
  61              		.type	cmdGetTemp, %function
  62              	cmdGetTemp:
  63              	.LFB41:
  64              		.file 2 "cmd.c"
  65              		.loc 2 13 0
  66              		.cfi_startproc
  67              	.LVL2:
  68 0000 70B5     		push	{r4, r5, r6, lr}
  69              		.cfi_def_cfa_offset 16
  70              		.cfi_offset 4, -16
  71              		.cfi_offset 5, -12
  72              		.cfi_offset 6, -8
  73              		.cfi_offset 14, -4
  74              		.loc 2 15 0
  75 0002 124B     		ldr	r3, .L8
  76              		.loc 2 16 0
  77 0004 124C     		ldr	r4, .L8+4
  78              		.loc 2 15 0
  79 0006 E022     		mov	r2, #224
  80              	.LVL3:
  81 0008 5204     		lsl	r2, r2, #17
  82              		.loc 2 13 0
  83 000a 82B0     		sub	sp, sp, #8
  84              		.cfi_def_cfa_offset 24
  85              		.loc 2 15 0
  86 000c 1A60     		str	r2, [r3]
  87              		.loc 2 16 0
  88 000e 201C     		mov	r0, r4
  89              	.LVL4:
  90 0010 1049     		ldr	r1, .L8+8
  91              	.LVL5:
  92 0012 FFF7FEFF 		bl	chprintf
  93              	.LVL6:
  94              		.loc 2 17 0
  95 0016 0023     		mov	r3, #0
  96 0018 9821     		mov	r1, #152
  97 001a 0093     		str	r3, [sp]
  98 001c 0E48     		ldr	r0, .L8+12
  99 001e 0F4B     		ldr	r3, .L8+16
 100 0020 4900     		lsl	r1, r1, #1
 101 0022 4022     		mov	r2, #64
 102 0024 FFF7FEFF 		bl	chThdCreateStatic
 103              	.LVL7:
 104              		.loc 2 18 0
 105 0028 0D4D     		ldr	r5, .L8+20
 106 002a 2B68     		ldr	r3, [r5]
 107 002c 002B     		cmp	r3, #0
 108 002e 07D1     		bne	.L4
 109 0030 0C4E     		ldr	r6, .L8+24
 110              	.L5:
 111              		.loc 2 20 0
 112 0032 201C     		mov	r0, r4
 113 0034 311C     		mov	r1, r6
ARM GAS  /var/folders/qh/xwg3v3kj02qbxczjpdb8lzfr0000gn/T//ccRq4Toz.s 			page 3


 114 0036 FFF7FEFF 		bl	chprintf
 115              	.LVL8:
 116              		.loc 2 18 0
 117 003a 2B68     		ldr	r3, [r5]
 118 003c 002B     		cmp	r3, #0
 119 003e F8D0     		beq	.L5
 120              	.L4:
 121              		.loc 2 22 0
 122 0040 201C     		mov	r0, r4
 123 0042 0949     		ldr	r1, .L8+28
 124 0044 FFF7FEFF 		bl	chprintf
 125              	.LVL9:
 126              		.loc 2 23 0
 127 0048 02B0     		add	sp, sp, #8
 128              		@ sp needed
 129 004a 70BD     		pop	{r4, r5, r6, pc}
 130              	.L9:
 131              		.align	2
 132              	.L8:
 133 004c 08270140 		.word	1073817352
 134 0050 00000000 		.word	SD1
 135 0054 00000000 		.word	.LC1
 136 0058 00000000 		.word	.LANCHOR0
 137 005c 00000000 		.word	adcConversionThread
 138 0060 00000000 		.word	adcDataReady
 139 0064 2C000000 		.word	.LC8
 140 0068 20000000 		.word	.LC6
 141              		.cfi_endproc
 142              	.LFE41:
 143              		.size	cmdGetTemp, .-cmdGetTemp
 144 006c C046C046 		.section	.text.cmdGetVoltage,"ax",%progbits
 145              		.align	2
 146              		.p2align 4,,15
 147              		.global	cmdGetVoltage
 148              		.code	16
 149              		.thumb_func
 150              		.type	cmdGetVoltage, %function
 151              	cmdGetVoltage:
 152              	.LFB42:
 153              		.loc 2 26 0
 154              		.cfi_startproc
 155              	.LVL10:
 156 0000 08B5     		push	{r3, lr}
 157              		.cfi_def_cfa_offset 8
 158              		.cfi_offset 3, -8
 159              		.cfi_offset 14, -4
 160              		.loc 2 27 0
 161 0002 0249     		ldr	r1, .L11
 162              	.LVL11:
 163 0004 FFF7FEFF 		bl	chprintf
 164              	.LVL12:
 165              		.loc 2 29 0
 166              		@ sp needed
 167 0008 08BD     		pop	{r3, pc}
 168              	.L12:
 169 000a C046     		.align	2
 170              	.L11:
ARM GAS  /var/folders/qh/xwg3v3kj02qbxczjpdb8lzfr0000gn/T//ccRq4Toz.s 			page 4


 171 000c 34000000 		.word	.LC10
 172              		.cfi_endproc
 173              	.LFE42:
 174              		.size	cmdGetVoltage, .-cmdGetVoltage
 175              		.section	.text.cmdGetBattery,"ax",%progbits
 176              		.align	2
 177              		.p2align 4,,15
 178              		.global	cmdGetBattery
 179              		.code	16
 180              		.thumb_func
 181              		.type	cmdGetBattery, %function
 182              	cmdGetBattery:
 183              	.LFB43:
 184              		.loc 2 32 0
 185              		.cfi_startproc
 186              	.LVL13:
 187 0000 08B5     		push	{r3, lr}
 188              		.cfi_def_cfa_offset 8
 189              		.cfi_offset 3, -8
 190              		.cfi_offset 14, -4
 191              		.loc 2 33 0
 192 0002 0249     		ldr	r1, .L14
 193              	.LVL14:
 194 0004 FFF7FEFF 		bl	chprintf
 195              	.LVL15:
 196              		.loc 2 35 0
 197              		@ sp needed
 198 0008 08BD     		pop	{r3, pc}
 199              	.L15:
 200 000a C046     		.align	2
 201              	.L14:
 202 000c 34000000 		.word	.LC10
 203              		.cfi_endproc
 204              	.LFE43:
 205              		.size	cmdGetBattery, .-cmdGetBattery
 206              		.section	.text.cmdAdc,"ax",%progbits
 207              		.align	2
 208              		.p2align 4,,15
 209              		.global	cmdAdc
 210              		.code	16
 211              		.thumb_func
 212              		.type	cmdAdc, %function
 213              	cmdAdc:
 214              	.LFB44:
 215              		.loc 2 45 0
 216              		.cfi_startproc
 217              	.LVL16:
 218 0000 08B5     		push	{r3, lr}
 219              		.cfi_def_cfa_offset 8
 220              		.cfi_offset 3, -8
 221              		.cfi_offset 14, -4
 222              		.loc 2 46 0
 223 0002 0249     		ldr	r1, .L17
 224              	.LVL17:
 225 0004 FFF7FEFF 		bl	chprintf
 226              	.LVL18:
 227              		.loc 2 48 0
ARM GAS  /var/folders/qh/xwg3v3kj02qbxczjpdb8lzfr0000gn/T//ccRq4Toz.s 			page 5


 228              		@ sp needed
 229 0008 08BD     		pop	{r3, pc}
 230              	.L18:
 231 000a C046     		.align	2
 232              	.L17:
 233 000c 34000000 		.word	.LC10
 234              		.cfi_endproc
 235              	.LFE44:
 236              		.size	cmdAdc, .-cmdAdc
 237              		.section	.text.cmdPwm,"ax",%progbits
 238              		.align	2
 239              		.p2align 4,,15
 240              		.global	cmdPwm
 241              		.code	16
 242              		.thumb_func
 243              		.type	cmdPwm, %function
 244              	cmdPwm:
 245              	.LFB45:
 246              		.loc 2 51 0
 247              		.cfi_startproc
 248              	.LVL19:
 249 0000 08B5     		push	{r3, lr}
 250              		.cfi_def_cfa_offset 8
 251              		.cfi_offset 3, -8
 252              		.cfi_offset 14, -4
 253              		.loc 2 52 0
 254 0002 0249     		ldr	r1, .L20
 255              	.LVL20:
 256 0004 FFF7FEFF 		bl	chprintf
 257              	.LVL21:
 258              		.loc 2 54 0
 259              		@ sp needed
 260 0008 08BD     		pop	{r3, pc}
 261              	.L21:
 262 000a C046     		.align	2
 263              	.L20:
 264 000c 34000000 		.word	.LC10
 265              		.cfi_endproc
 266              	.LFE45:
 267              		.size	cmdPwm, .-cmdPwm
 268              		.section	.text.cmdUart,"ax",%progbits
 269              		.align	2
 270              		.p2align 4,,15
 271              		.global	cmdUart
 272              		.code	16
 273              		.thumb_func
 274              		.type	cmdUart, %function
 275              	cmdUart:
 276              	.LFB46:
 277              		.loc 2 57 0
 278              		.cfi_startproc
 279              	.LVL22:
 280 0000 08B5     		push	{r3, lr}
 281              		.cfi_def_cfa_offset 8
 282              		.cfi_offset 3, -8
 283              		.cfi_offset 14, -4
 284              		.loc 2 58 0
ARM GAS  /var/folders/qh/xwg3v3kj02qbxczjpdb8lzfr0000gn/T//ccRq4Toz.s 			page 6


 285 0002 0249     		ldr	r1, .L23
 286              	.LVL23:
 287 0004 FFF7FEFF 		bl	chprintf
 288              	.LVL24:
 289              		.loc 2 60 0
 290              		@ sp needed
 291 0008 08BD     		pop	{r3, pc}
 292              	.L24:
 293 000a C046     		.align	2
 294              	.L23:
 295 000c 34000000 		.word	.LC10
 296              		.cfi_endproc
 297              	.LFE46:
 298              		.size	cmdUart, .-cmdUart
 299              		.section	.text.cmdSpi,"ax",%progbits
 300              		.align	2
 301              		.p2align 4,,15
 302              		.global	cmdSpi
 303              		.code	16
 304              		.thumb_func
 305              		.type	cmdSpi, %function
 306              	cmdSpi:
 307              	.LFB47:
 308              		.loc 2 63 0
 309              		.cfi_startproc
 310              	.LVL25:
 311 0000 08B5     		push	{r3, lr}
 312              		.cfi_def_cfa_offset 8
 313              		.cfi_offset 3, -8
 314              		.cfi_offset 14, -4
 315              		.loc 2 64 0
 316 0002 0249     		ldr	r1, .L26
 317              	.LVL26:
 318 0004 FFF7FEFF 		bl	chprintf
 319              	.LVL27:
 320              		.loc 2 66 0
 321              		@ sp needed
 322 0008 08BD     		pop	{r3, pc}
 323              	.L27:
 324 000a C046     		.align	2
 325              	.L26:
 326 000c 34000000 		.word	.LC10
 327              		.cfi_endproc
 328              	.LFE47:
 329              		.size	cmdSpi, .-cmdSpi
 330              		.section	.text.cmdBluetooth,"ax",%progbits
 331              		.align	2
 332              		.p2align 4,,15
 333              		.global	cmdBluetooth
 334              		.code	16
 335              		.thumb_func
 336              		.type	cmdBluetooth, %function
 337              	cmdBluetooth:
 338              	.LFB48:
 339              		.loc 2 69 0
 340              		.cfi_startproc
 341              	.LVL28:
ARM GAS  /var/folders/qh/xwg3v3kj02qbxczjpdb8lzfr0000gn/T//ccRq4Toz.s 			page 7


 342 0000 08B5     		push	{r3, lr}
 343              		.cfi_def_cfa_offset 8
 344              		.cfi_offset 3, -8
 345              		.cfi_offset 14, -4
 346              		.loc 2 70 0
 347 0002 0249     		ldr	r1, .L29
 348              	.LVL29:
 349 0004 FFF7FEFF 		bl	chprintf
 350              	.LVL30:
 351              		.loc 2 72 0
 352              		@ sp needed
 353 0008 08BD     		pop	{r3, pc}
 354              	.L30:
 355 000a C046     		.align	2
 356              	.L29:
 357 000c 34000000 		.word	.LC10
 358              		.cfi_endproc
 359              	.LFE48:
 360              		.size	cmdBluetooth, .-cmdBluetooth
 361              		.section	.bss.adcTempArea.5718,"aw",%nobits
 362              		.align	3
 363              		.set	.LANCHOR0,. + 0
 364              		.type	adcTempArea.5718, %object
 365              		.size	adcTempArea.5718, 304
 366              	adcTempArea.5718:
 367 0000 00000000 		.space	304
 367      00000000 
 367      00000000 
 367      00000000 
 367      00000000 
 368              		.section	.rodata.str1.4,"aMS",%progbits,1
 369              		.align	2
 370              	.LC1:
 371 0000 54656D70 		.ascii	"Temperature Conversion Started\000"
 371      65726174 
 371      75726520 
 371      436F6E76 
 371      65727369 
 372 001f 00       		.space	1
 373              	.LC6:
 374 0020 444F4F4F 		.ascii	"DOOOOOONE\000"
 374      4F4F4F4E 
 374      4500
 375 002a 0000     		.space	2
 376              	.LC8:
 377 002c 77616974 		.ascii	"waiting\000"
 377      696E6700 
 378              	.LC10:
 379 0034 48656C6C 		.ascii	"Hello World\000"
 379      6F20576F 
 379      726C6400 
 380              		.text
 381              	.Letext0:
 382              		.file 3 "/usr/local/Cellar/gcc-arm-none-eabi-48/20131218/lib/gcc/arm-none-eabi/4.8.3/include/stdde
 383              		.file 4 "/usr/local/Cellar/gcc-arm-none-eabi-48/20131218/arm-none-eabi/include/stdint.h"
 384              		.file 5 "../../os/ports/GCC/ARMCMx/chtypes.h"
 385              		.file 6 "../../os/kernel/include/chlists.h"
ARM GAS  /var/folders/qh/xwg3v3kj02qbxczjpdb8lzfr0000gn/T//ccRq4Toz.s 			page 8


 386              		.file 7 "../../os/kernel/include/chthreads.h"
 387              		.file 8 "../../os/ports/GCC/ARMCMx/chcore_v6m.h"
 388              		.file 9 "../../os/kernel/include/chmtx.h"
 389              		.file 10 "../../os/kernel/include/chevents.h"
 390              		.file 11 "../../os/kernel/include/chqueues.h"
 391              		.file 12 "../../os/kernel/include/chstreams.h"
 392              		.file 13 "../../os/hal/platforms/STM32F0xx/stm32f0xx.h"
 393              		.file 14 "../../os/hal/platforms/STM32F0xx/stm32_dma.h"
 394              		.file 15 "../../os/hal/include/adc.h"
 395              		.file 16 "../../os/hal/platforms/STM32F0xx/adc_lld.h"
 396              		.file 17 "../../os/hal/include/serial.h"
 397              		.file 18 "/usr/local/Cellar/gcc-arm-none-eabi-48/20131218/lib/gcc/arm-none-eabi/4.8.3/include/stda
 398              		.file 19 "<built-in>"
 399              		.file 20 "cmdadc.h"
 400              		.file 21 "../../os/hal/platforms/STM32/USARTv2/serial_lld.h"
 401              		.section	.debug_info,"",%progbits
 402              	.Ldebug_info0:
 403 0000 8E100000 		.4byte	0x108e
 404 0004 0400     		.2byte	0x4
 405 0006 00000000 		.4byte	.Ldebug_abbrev0
 406 000a 04       		.byte	0x4
 407 000b 01       		.uleb128 0x1
 408 000c EF000000 		.4byte	.LASF178
 409 0010 01       		.byte	0x1
 410 0011 BE000000 		.4byte	.LASF179
 411 0015 B0020000 		.4byte	.LASF180
 412 0019 00000000 		.4byte	.Ldebug_ranges0+0
 413 001d 00000000 		.4byte	0
 414 0021 00000000 		.4byte	.Ldebug_line0
 415 0025 02       		.uleb128 0x2
 416 0026 04       		.byte	0x4
 417 0027 05       		.byte	0x5
 418 0028 696E7400 		.ascii	"int\000"
 419 002c 03       		.uleb128 0x3
 420 002d EB020000 		.4byte	.LASF2
 421 0031 03       		.byte	0x3
 422 0032 D4       		.byte	0xd4
 423 0033 37000000 		.4byte	0x37
 424 0037 04       		.uleb128 0x4
 425 0038 04       		.byte	0x4
 426 0039 07       		.byte	0x7
 427 003a 74000000 		.4byte	.LASF0
 428 003e 04       		.uleb128 0x4
 429 003f 01       		.byte	0x1
 430 0040 06       		.byte	0x6
 431 0041 69070000 		.4byte	.LASF1
 432 0045 03       		.uleb128 0x3
 433 0046 0A040000 		.4byte	.LASF3
 434 004a 04       		.byte	0x4
 435 004b 2A       		.byte	0x2a
 436 004c 50000000 		.4byte	0x50
 437 0050 04       		.uleb128 0x4
 438 0051 01       		.byte	0x1
 439 0052 08       		.byte	0x8
 440 0053 11070000 		.4byte	.LASF4
 441 0057 04       		.uleb128 0x4
 442 0058 02       		.byte	0x2
ARM GAS  /var/folders/qh/xwg3v3kj02qbxczjpdb8lzfr0000gn/T//ccRq4Toz.s 			page 9


 443 0059 05       		.byte	0x5
 444 005a CC050000 		.4byte	.LASF5
 445 005e 03       		.uleb128 0x3
 446 005f 3B050000 		.4byte	.LASF6
 447 0063 04       		.byte	0x4
 448 0064 36       		.byte	0x36
 449 0065 69000000 		.4byte	0x69
 450 0069 04       		.uleb128 0x4
 451 006a 02       		.byte	0x2
 452 006b 07       		.byte	0x7
 453 006c 7B070000 		.4byte	.LASF7
 454 0070 03       		.uleb128 0x3
 455 0071 F6060000 		.4byte	.LASF8
 456 0075 04       		.byte	0x4
 457 0076 4F       		.byte	0x4f
 458 0077 7B000000 		.4byte	0x7b
 459 007b 04       		.uleb128 0x4
 460 007c 04       		.byte	0x4
 461 007d 05       		.byte	0x5
 462 007e 15060000 		.4byte	.LASF9
 463 0082 03       		.uleb128 0x3
 464 0083 F0010000 		.4byte	.LASF10
 465 0087 04       		.byte	0x4
 466 0088 50       		.byte	0x50
 467 0089 8D000000 		.4byte	0x8d
 468 008d 04       		.uleb128 0x4
 469 008e 04       		.byte	0x4
 470 008f 07       		.byte	0x7
 471 0090 C8060000 		.4byte	.LASF11
 472 0094 04       		.uleb128 0x4
 473 0095 08       		.byte	0x8
 474 0096 05       		.byte	0x5
 475 0097 56040000 		.4byte	.LASF12
 476 009b 03       		.uleb128 0x3
 477 009c 45060000 		.4byte	.LASF13
 478 00a0 04       		.byte	0x4
 479 00a1 78       		.byte	0x78
 480 00a2 A6000000 		.4byte	0xa6
 481 00a6 04       		.uleb128 0x4
 482 00a7 08       		.byte	0x8
 483 00a8 07       		.byte	0x7
 484 00a9 53020000 		.4byte	.LASF14
 485 00ad 03       		.uleb128 0x3
 486 00ae FE020000 		.4byte	.LASF15
 487 00b2 05       		.byte	0x5
 488 00b3 24       		.byte	0x24
 489 00b4 B8000000 		.4byte	0xb8
 490 00b8 04       		.uleb128 0x4
 491 00b9 01       		.byte	0x1
 492 00ba 02       		.byte	0x2
 493 00bb 05030000 		.4byte	.LASF16
 494 00bf 03       		.uleb128 0x3
 495 00c0 0E050000 		.4byte	.LASF17
 496 00c4 05       		.byte	0x5
 497 00c5 25       		.byte	0x25
 498 00c6 45000000 		.4byte	0x45
 499 00ca 03       		.uleb128 0x3
ARM GAS  /var/folders/qh/xwg3v3kj02qbxczjpdb8lzfr0000gn/T//ccRq4Toz.s 			page 10


 500 00cb DE030000 		.4byte	.LASF18
 501 00cf 05       		.byte	0x5
 502 00d0 26       		.byte	0x26
 503 00d1 45000000 		.4byte	0x45
 504 00d5 03       		.uleb128 0x3
 505 00d6 B2060000 		.4byte	.LASF19
 506 00da 05       		.byte	0x5
 507 00db 27       		.byte	0x27
 508 00dc 45000000 		.4byte	0x45
 509 00e0 03       		.uleb128 0x3
 510 00e1 C5040000 		.4byte	.LASF20
 511 00e5 05       		.byte	0x5
 512 00e6 28       		.byte	0x28
 513 00e7 45000000 		.4byte	0x45
 514 00eb 03       		.uleb128 0x3
 515 00ec 33020000 		.4byte	.LASF21
 516 00f0 05       		.byte	0x5
 517 00f1 29       		.byte	0x29
 518 00f2 82000000 		.4byte	0x82
 519 00f6 03       		.uleb128 0x3
 520 00f7 7E040000 		.4byte	.LASF22
 521 00fb 05       		.byte	0x5
 522 00fc 2A       		.byte	0x2a
 523 00fd 70000000 		.4byte	0x70
 524 0101 03       		.uleb128 0x3
 525 0102 0C020000 		.4byte	.LASF23
 526 0106 05       		.byte	0x5
 527 0107 2C       		.byte	0x2c
 528 0108 82000000 		.4byte	0x82
 529 010c 03       		.uleb128 0x3
 530 010d 12040000 		.4byte	.LASF24
 531 0111 05       		.byte	0x5
 532 0112 2D       		.byte	0x2d
 533 0113 82000000 		.4byte	0x82
 534 0117 03       		.uleb128 0x3
 535 0118 4C000000 		.4byte	.LASF25
 536 011c 05       		.byte	0x5
 537 011d 2E       		.byte	0x2e
 538 011e 82000000 		.4byte	0x82
 539 0122 03       		.uleb128 0x3
 540 0123 D7030000 		.4byte	.LASF26
 541 0127 06       		.byte	0x6
 542 0128 23       		.byte	0x23
 543 0129 2D010000 		.4byte	0x12d
 544 012d 05       		.uleb128 0x5
 545 012e D7030000 		.4byte	.LASF26
 546 0132 48       		.byte	0x48
 547 0133 07       		.byte	0x7
 548 0134 57       		.byte	0x57
 549 0135 2A020000 		.4byte	0x22a
 550 0139 06       		.uleb128 0x6
 551 013a 3E060000 		.4byte	.LASF27
 552 013e 07       		.byte	0x7
 553 013f 58       		.byte	0x58
 554 0140 4B020000 		.4byte	0x24b
 555 0144 00       		.byte	0
 556 0145 06       		.uleb128 0x6
ARM GAS  /var/folders/qh/xwg3v3kj02qbxczjpdb8lzfr0000gn/T//ccRq4Toz.s 			page 11


 557 0146 A2060000 		.4byte	.LASF28
 558 014a 07       		.byte	0x7
 559 014b 5A       		.byte	0x5a
 560 014c 4B020000 		.4byte	0x24b
 561 0150 04       		.byte	0x4
 562 0151 06       		.uleb128 0x6
 563 0152 3D000000 		.4byte	.LASF29
 564 0156 07       		.byte	0x7
 565 0157 5C       		.byte	0x5c
 566 0158 EB000000 		.4byte	0xeb
 567 015c 08       		.byte	0x8
 568 015d 06       		.uleb128 0x6
 569 015e 4E060000 		.4byte	.LASF30
 570 0162 07       		.byte	0x7
 571 0163 5D       		.byte	0x5d
 572 0164 06030000 		.4byte	0x306
 573 0168 0C       		.byte	0xc
 574 0169 06       		.uleb128 0x6
 575 016a 85020000 		.4byte	.LASF31
 576 016e 07       		.byte	0x7
 577 016f 5F       		.byte	0x5f
 578 0170 4B020000 		.4byte	0x24b
 579 0174 10       		.byte	0x10
 580 0175 06       		.uleb128 0x6
 581 0176 FA030000 		.4byte	.LASF32
 582 017a 07       		.byte	0x7
 583 017b 60       		.byte	0x60
 584 017c 4B020000 		.4byte	0x24b
 585 0180 14       		.byte	0x14
 586 0181 06       		.uleb128 0x6
 587 0182 8F030000 		.4byte	.LASF33
 588 0186 07       		.byte	0x7
 589 0187 67       		.byte	0x67
 590 0188 1F040000 		.4byte	0x41f
 591 018c 18       		.byte	0x18
 592 018d 06       		.uleb128 0x6
 593 018e 02040000 		.4byte	.LASF34
 594 0192 07       		.byte	0x7
 595 0193 72       		.byte	0x72
 596 0194 CA000000 		.4byte	0xca
 597 0198 1C       		.byte	0x1c
 598 0199 06       		.uleb128 0x6
 599 019a AB040000 		.4byte	.LASF35
 600 019e 07       		.byte	0x7
 601 019f 76       		.byte	0x76
 602 01a0 BF000000 		.4byte	0xbf
 603 01a4 1D       		.byte	0x1d
 604 01a5 06       		.uleb128 0x6
 605 01a6 1F070000 		.4byte	.LASF36
 606 01aa 07       		.byte	0x7
 607 01ab 7B       		.byte	0x7b
 608 01ac D5000000 		.4byte	0xd5
 609 01b0 1E       		.byte	0x1e
 610 01b1 06       		.uleb128 0x6
 611 01b2 26070000 		.4byte	.LASF37
 612 01b6 07       		.byte	0x7
 613 01b7 81       		.byte	0x81
ARM GAS  /var/folders/qh/xwg3v3kj02qbxczjpdb8lzfr0000gn/T//ccRq4Toz.s 			page 12


 614 01b8 E0000000 		.4byte	0xe0
 615 01bc 1F       		.byte	0x1f
 616 01bd 06       		.uleb128 0x6
 617 01be 23000000 		.4byte	.LASF38
 618 01c2 07       		.byte	0x7
 619 01c3 88       		.byte	0x88
 620 01c4 31030000 		.4byte	0x331
 621 01c8 20       		.byte	0x20
 622 01c9 07       		.uleb128 0x7
 623 01ca 705F7500 		.ascii	"p_u\000"
 624 01ce 07       		.byte	0x7
 625 01cf AD       		.byte	0xad
 626 01d0 EA030000 		.4byte	0x3ea
 627 01d4 24       		.byte	0x24
 628 01d5 06       		.uleb128 0x6
 629 01d6 0C000000 		.4byte	.LASF39
 630 01da 07       		.byte	0x7
 631 01db B2       		.byte	0xb2
 632 01dc 71020000 		.4byte	0x271
 633 01e0 28       		.byte	0x28
 634 01e1 06       		.uleb128 0x6
 635 01e2 5E000000 		.4byte	.LASF40
 636 01e6 07       		.byte	0x7
 637 01e7 B8       		.byte	0xb8
 638 01e8 51020000 		.4byte	0x251
 639 01ec 2C       		.byte	0x2c
 640 01ed 06       		.uleb128 0x6
 641 01ee 08050000 		.4byte	.LASF41
 642 01f2 07       		.byte	0x7
 643 01f3 BC       		.byte	0xbc
 644 01f4 F6000000 		.4byte	0xf6
 645 01f8 34       		.byte	0x34
 646 01f9 06       		.uleb128 0x6
 647 01fa 02060000 		.4byte	.LASF42
 648 01fe 07       		.byte	0x7
 649 01ff C2       		.byte	0xc2
 650 0200 01010000 		.4byte	0x101
 651 0204 38       		.byte	0x38
 652 0205 06       		.uleb128 0x6
 653 0206 36040000 		.4byte	.LASF43
 654 020a 07       		.byte	0x7
 655 020b C9       		.byte	0xc9
 656 020c 31040000 		.4byte	0x431
 657 0210 3C       		.byte	0x3c
 658 0211 06       		.uleb128 0x6
 659 0212 8F050000 		.4byte	.LASF44
 660 0216 07       		.byte	0x7
 661 0217 CD       		.byte	0xcd
 662 0218 EB000000 		.4byte	0xeb
 663 021c 40       		.byte	0x40
 664 021d 06       		.uleb128 0x6
 665 021e 2E040000 		.4byte	.LASF45
 666 0222 07       		.byte	0x7
 667 0223 D3       		.byte	0xd3
 668 0224 87020000 		.4byte	0x287
 669 0228 44       		.byte	0x44
 670 0229 00       		.byte	0
ARM GAS  /var/folders/qh/xwg3v3kj02qbxczjpdb8lzfr0000gn/T//ccRq4Toz.s 			page 13


 671 022a 08       		.uleb128 0x8
 672 022b 08       		.byte	0x8
 673 022c 06       		.byte	0x6
 674 022d 5A       		.byte	0x5a
 675 022e 4B020000 		.4byte	0x24b
 676 0232 06       		.uleb128 0x6
 677 0233 3E060000 		.4byte	.LASF27
 678 0237 06       		.byte	0x6
 679 0238 5B       		.byte	0x5b
 680 0239 4B020000 		.4byte	0x24b
 681 023d 00       		.byte	0
 682 023e 06       		.uleb128 0x6
 683 023f A2060000 		.4byte	.LASF28
 684 0243 06       		.byte	0x6
 685 0244 5D       		.byte	0x5d
 686 0245 4B020000 		.4byte	0x24b
 687 0249 04       		.byte	0x4
 688 024a 00       		.byte	0
 689 024b 09       		.uleb128 0x9
 690 024c 04       		.byte	0x4
 691 024d 22010000 		.4byte	0x122
 692 0251 03       		.uleb128 0x3
 693 0252 B6030000 		.4byte	.LASF46
 694 0256 06       		.byte	0x6
 695 0257 5F       		.byte	0x5f
 696 0258 2A020000 		.4byte	0x22a
 697 025c 08       		.uleb128 0x8
 698 025d 04       		.byte	0x4
 699 025e 06       		.byte	0x6
 700 025f 64       		.byte	0x64
 701 0260 71020000 		.4byte	0x271
 702 0264 06       		.uleb128 0x6
 703 0265 3E060000 		.4byte	.LASF27
 704 0269 06       		.byte	0x6
 705 026a 66       		.byte	0x66
 706 026b 4B020000 		.4byte	0x24b
 707 026f 00       		.byte	0
 708 0270 00       		.byte	0
 709 0271 03       		.uleb128 0x3
 710 0272 00000000 		.4byte	.LASF47
 711 0276 06       		.byte	0x6
 712 0277 69       		.byte	0x69
 713 0278 5C020000 		.4byte	0x25c
 714 027c 03       		.uleb128 0x3
 715 027d 34000000 		.4byte	.LASF48
 716 0281 08       		.byte	0x8
 717 0282 A0       		.byte	0xa0
 718 0283 87020000 		.4byte	0x287
 719 0287 0A       		.uleb128 0xa
 720 0288 04       		.byte	0x4
 721 0289 03       		.uleb128 0x3
 722 028a 8E070000 		.4byte	.LASF49
 723 028e 08       		.byte	0x8
 724 028f A6       		.byte	0xa6
 725 0290 9B000000 		.4byte	0x9b
 726 0294 05       		.uleb128 0x5
 727 0295 44050000 		.4byte	.LASF50
ARM GAS  /var/folders/qh/xwg3v3kj02qbxczjpdb8lzfr0000gn/T//ccRq4Toz.s 			page 14


 728 0299 24       		.byte	0x24
 729 029a 08       		.byte	0x8
 730 029b B3       		.byte	0xb3
 731 029c 06030000 		.4byte	0x306
 732 02a0 07       		.uleb128 0x7
 733 02a1 723800   		.ascii	"r8\000"
 734 02a4 08       		.byte	0x8
 735 02a5 B4       		.byte	0xb4
 736 02a6 7C020000 		.4byte	0x27c
 737 02aa 00       		.byte	0
 738 02ab 07       		.uleb128 0x7
 739 02ac 723900   		.ascii	"r9\000"
 740 02af 08       		.byte	0x8
 741 02b0 B5       		.byte	0xb5
 742 02b1 7C020000 		.4byte	0x27c
 743 02b5 04       		.byte	0x4
 744 02b6 07       		.uleb128 0x7
 745 02b7 72313000 		.ascii	"r10\000"
 746 02bb 08       		.byte	0x8
 747 02bc B6       		.byte	0xb6
 748 02bd 7C020000 		.4byte	0x27c
 749 02c1 08       		.byte	0x8
 750 02c2 07       		.uleb128 0x7
 751 02c3 72313100 		.ascii	"r11\000"
 752 02c7 08       		.byte	0x8
 753 02c8 B7       		.byte	0xb7
 754 02c9 7C020000 		.4byte	0x27c
 755 02cd 0C       		.byte	0xc
 756 02ce 07       		.uleb128 0x7
 757 02cf 723400   		.ascii	"r4\000"
 758 02d2 08       		.byte	0x8
 759 02d3 B8       		.byte	0xb8
 760 02d4 7C020000 		.4byte	0x27c
 761 02d8 10       		.byte	0x10
 762 02d9 07       		.uleb128 0x7
 763 02da 723500   		.ascii	"r5\000"
 764 02dd 08       		.byte	0x8
 765 02de B9       		.byte	0xb9
 766 02df 7C020000 		.4byte	0x27c
 767 02e3 14       		.byte	0x14
 768 02e4 07       		.uleb128 0x7
 769 02e5 723600   		.ascii	"r6\000"
 770 02e8 08       		.byte	0x8
 771 02e9 BA       		.byte	0xba
 772 02ea 7C020000 		.4byte	0x27c
 773 02ee 18       		.byte	0x18
 774 02ef 07       		.uleb128 0x7
 775 02f0 723700   		.ascii	"r7\000"
 776 02f3 08       		.byte	0x8
 777 02f4 BB       		.byte	0xbb
 778 02f5 7C020000 		.4byte	0x27c
 779 02f9 1C       		.byte	0x1c
 780 02fa 07       		.uleb128 0x7
 781 02fb 6C7200   		.ascii	"lr\000"
 782 02fe 08       		.byte	0x8
 783 02ff BC       		.byte	0xbc
 784 0300 7C020000 		.4byte	0x27c
ARM GAS  /var/folders/qh/xwg3v3kj02qbxczjpdb8lzfr0000gn/T//ccRq4Toz.s 			page 15


 785 0304 20       		.byte	0x20
 786 0305 00       		.byte	0
 787 0306 05       		.uleb128 0x5
 788 0307 8B040000 		.4byte	.LASF51
 789 030b 04       		.byte	0x4
 790 030c 08       		.byte	0x8
 791 030d C6       		.byte	0xc6
 792 030e 1F030000 		.4byte	0x31f
 793 0312 07       		.uleb128 0x7
 794 0313 72313300 		.ascii	"r13\000"
 795 0317 08       		.byte	0x8
 796 0318 C7       		.byte	0xc7
 797 0319 1F030000 		.4byte	0x31f
 798 031d 00       		.byte	0
 799 031e 00       		.byte	0
 800 031f 09       		.uleb128 0x9
 801 0320 04       		.byte	0x4
 802 0321 94020000 		.4byte	0x294
 803 0325 0B       		.uleb128 0xb
 804 0326 82000000 		.4byte	0x82
 805 032a 04       		.uleb128 0x4
 806 032b 04       		.byte	0x4
 807 032c 07       		.byte	0x7
 808 032d A9060000 		.4byte	.LASF52
 809 0331 0B       		.uleb128 0xb
 810 0332 17010000 		.4byte	0x117
 811 0336 05       		.uleb128 0x5
 812 0337 32030000 		.4byte	.LASF53
 813 033b 10       		.byte	0x10
 814 033c 09       		.byte	0x9
 815 033d 25       		.byte	0x25
 816 033e 67030000 		.4byte	0x367
 817 0342 06       		.uleb128 0x6
 818 0343 0D060000 		.4byte	.LASF54
 819 0347 09       		.byte	0x9
 820 0348 26       		.byte	0x26
 821 0349 51020000 		.4byte	0x251
 822 034d 00       		.byte	0
 823 034e 06       		.uleb128 0x6
 824 034f 56000000 		.4byte	.LASF55
 825 0353 09       		.byte	0x9
 826 0354 28       		.byte	0x28
 827 0355 4B020000 		.4byte	0x24b
 828 0359 08       		.byte	0x8
 829 035a 06       		.uleb128 0x6
 830 035b 62070000 		.4byte	.LASF56
 831 035f 09       		.byte	0x9
 832 0360 2A       		.byte	0x2a
 833 0361 67030000 		.4byte	0x367
 834 0365 0C       		.byte	0xc
 835 0366 00       		.byte	0
 836 0367 09       		.uleb128 0x9
 837 0368 04       		.byte	0x4
 838 0369 36030000 		.4byte	0x336
 839 036d 03       		.uleb128 0x3
 840 036e 32030000 		.4byte	.LASF53
 841 0372 09       		.byte	0x9
ARM GAS  /var/folders/qh/xwg3v3kj02qbxczjpdb8lzfr0000gn/T//ccRq4Toz.s 			page 16


 842 0373 2C       		.byte	0x2c
 843 0374 36030000 		.4byte	0x336
 844 0378 03       		.uleb128 0x3
 845 0379 BA060000 		.4byte	.LASF57
 846 037d 0A       		.byte	0xa
 847 037e 25       		.byte	0x25
 848 037f 83030000 		.4byte	0x383
 849 0383 05       		.uleb128 0x5
 850 0384 BA060000 		.4byte	.LASF57
 851 0388 10       		.byte	0x10
 852 0389 0A       		.byte	0xa
 853 038a 2A       		.byte	0x2a
 854 038b C0030000 		.4byte	0x3c0
 855 038f 06       		.uleb128 0x6
 856 0390 00050000 		.4byte	.LASF58
 857 0394 0A       		.byte	0xa
 858 0395 2B       		.byte	0x2b
 859 0396 C0030000 		.4byte	0x3c0
 860 039a 00       		.byte	0
 861 039b 06       		.uleb128 0x6
 862 039c 64060000 		.4byte	.LASF59
 863 03a0 0A       		.byte	0xa
 864 03a1 2E       		.byte	0x2e
 865 03a2 4B020000 		.4byte	0x24b
 866 03a6 04       		.byte	0x4
 867 03a7 06       		.uleb128 0x6
 868 03a8 93000000 		.4byte	.LASF60
 869 03ac 0A       		.byte	0xa
 870 03ad 30       		.byte	0x30
 871 03ae 01010000 		.4byte	0x101
 872 03b2 08       		.byte	0x8
 873 03b3 06       		.uleb128 0x6
 874 03b4 BD070000 		.4byte	.LASF61
 875 03b8 0A       		.byte	0xa
 876 03b9 33       		.byte	0x33
 877 03ba 0C010000 		.4byte	0x10c
 878 03be 0C       		.byte	0xc
 879 03bf 00       		.byte	0
 880 03c0 09       		.uleb128 0x9
 881 03c1 04       		.byte	0x4
 882 03c2 78030000 		.4byte	0x378
 883 03c6 05       		.uleb128 0x5
 884 03c7 E2040000 		.4byte	.LASF62
 885 03cb 04       		.byte	0x4
 886 03cc 0A       		.byte	0xa
 887 03cd 3A       		.byte	0x3a
 888 03ce DF030000 		.4byte	0x3df
 889 03d2 06       		.uleb128 0x6
 890 03d3 30070000 		.4byte	.LASF63
 891 03d7 0A       		.byte	0xa
 892 03d8 3B       		.byte	0x3b
 893 03d9 C0030000 		.4byte	0x3c0
 894 03dd 00       		.byte	0
 895 03de 00       		.byte	0
 896 03df 03       		.uleb128 0x3
 897 03e0 E2040000 		.4byte	.LASF62
 898 03e4 0A       		.byte	0xa
ARM GAS  /var/folders/qh/xwg3v3kj02qbxczjpdb8lzfr0000gn/T//ccRq4Toz.s 			page 17


 899 03e5 3E       		.byte	0x3e
 900 03e6 C6030000 		.4byte	0x3c6
 901 03ea 0C       		.uleb128 0xc
 902 03eb 04       		.byte	0x4
 903 03ec 07       		.byte	0x7
 904 03ed 8F       		.byte	0x8f
 905 03ee 1F040000 		.4byte	0x41f
 906 03f2 0D       		.uleb128 0xd
 907 03f3 F2020000 		.4byte	.LASF64
 908 03f7 07       		.byte	0x7
 909 03f8 96       		.byte	0x96
 910 03f9 F6000000 		.4byte	0xf6
 911 03fd 0D       		.uleb128 0xd
 912 03fe C6070000 		.4byte	.LASF65
 913 0402 07       		.byte	0x7
 914 0403 9D       		.byte	0x9d
 915 0404 F6000000 		.4byte	0xf6
 916 0408 0D       		.uleb128 0xd
 917 0409 CD000000 		.4byte	.LASF66
 918 040d 07       		.byte	0x7
 919 040e A4       		.byte	0xa4
 920 040f 87020000 		.4byte	0x287
 921 0413 0D       		.uleb128 0xd
 922 0414 C9010000 		.4byte	.LASF67
 923 0418 07       		.byte	0x7
 924 0419 AB       		.byte	0xab
 925 041a 01010000 		.4byte	0x101
 926 041e 00       		.byte	0
 927 041f 09       		.uleb128 0x9
 928 0420 04       		.byte	0x4
 929 0421 25040000 		.4byte	0x425
 930 0425 0E       		.uleb128 0xe
 931 0426 2A040000 		.4byte	0x42a
 932 042a 04       		.uleb128 0x4
 933 042b 01       		.byte	0x1
 934 042c 08       		.byte	0x8
 935 042d C3030000 		.4byte	.LASF68
 936 0431 09       		.uleb128 0x9
 937 0432 04       		.byte	0x4
 938 0433 6D030000 		.4byte	0x36d
 939 0437 03       		.uleb128 0x3
 940 0438 42020000 		.4byte	.LASF69
 941 043c 07       		.byte	0x7
 942 043d DE       		.byte	0xde
 943 043e 42040000 		.4byte	0x442
 944 0442 09       		.uleb128 0x9
 945 0443 04       		.byte	0x4
 946 0444 48040000 		.4byte	0x448
 947 0448 0F       		.uleb128 0xf
 948 0449 F6000000 		.4byte	0xf6
 949 044d 57040000 		.4byte	0x457
 950 0451 10       		.uleb128 0x10
 951 0452 87020000 		.4byte	0x287
 952 0456 00       		.byte	0
 953 0457 03       		.uleb128 0x3
 954 0458 27050000 		.4byte	.LASF70
 955 045c 0B       		.byte	0xb
ARM GAS  /var/folders/qh/xwg3v3kj02qbxczjpdb8lzfr0000gn/T//ccRq4Toz.s 			page 18


 956 045d 30       		.byte	0x30
 957 045e 62040000 		.4byte	0x462
 958 0462 05       		.uleb128 0x5
 959 0463 27050000 		.4byte	.LASF70
 960 0467 24       		.byte	0x24
 961 0468 0B       		.byte	0xb
 962 0469 3E       		.byte	0x3e
 963 046a CF040000 		.4byte	0x4cf
 964 046e 06       		.uleb128 0x6
 965 046f 8D020000 		.4byte	.LASF71
 966 0473 0B       		.byte	0xb
 967 0474 3F       		.byte	0x3f
 968 0475 51020000 		.4byte	0x251
 969 0479 00       		.byte	0
 970 047a 06       		.uleb128 0x6
 971 047b 8D060000 		.4byte	.LASF72
 972 047f 0B       		.byte	0xb
 973 0480 40       		.byte	0x40
 974 0481 2C000000 		.4byte	0x2c
 975 0485 08       		.byte	0x8
 976 0486 06       		.uleb128 0x6
 977 0487 6A040000 		.4byte	.LASF73
 978 048b 0B       		.byte	0xb
 979 048c 41       		.byte	0x41
 980 048d F1040000 		.4byte	0x4f1
 981 0491 0C       		.byte	0xc
 982 0492 06       		.uleb128 0x6
 983 0493 9C060000 		.4byte	.LASF74
 984 0497 0B       		.byte	0xb
 985 0498 42       		.byte	0x42
 986 0499 F1040000 		.4byte	0x4f1
 987 049d 10       		.byte	0x10
 988 049e 06       		.uleb128 0x6
 989 049f C8030000 		.4byte	.LASF75
 990 04a3 0B       		.byte	0xb
 991 04a4 44       		.byte	0x44
 992 04a5 F1040000 		.4byte	0x4f1
 993 04a9 14       		.byte	0x14
 994 04aa 06       		.uleb128 0x6
 995 04ab 81000000 		.4byte	.LASF76
 996 04af 0B       		.byte	0xb
 997 04b0 45       		.byte	0x45
 998 04b1 F1040000 		.4byte	0x4f1
 999 04b5 18       		.byte	0x18
 1000 04b6 06       		.uleb128 0x6
 1001 04b7 4F030000 		.4byte	.LASF77
 1002 04bb 0B       		.byte	0xb
 1003 04bc 46       		.byte	0x46
 1004 04bd CF040000 		.4byte	0x4cf
 1005 04c1 1C       		.byte	0x1c
 1006 04c2 06       		.uleb128 0x6
 1007 04c3 D4000000 		.4byte	.LASF78
 1008 04c7 0B       		.byte	0xb
 1009 04c8 47       		.byte	0x47
 1010 04c9 87020000 		.4byte	0x287
 1011 04cd 20       		.byte	0x20
 1012 04ce 00       		.byte	0
ARM GAS  /var/folders/qh/xwg3v3kj02qbxczjpdb8lzfr0000gn/T//ccRq4Toz.s 			page 19


 1013 04cf 03       		.uleb128 0x3
 1014 04d0 89000000 		.4byte	.LASF79
 1015 04d4 0B       		.byte	0xb
 1016 04d5 33       		.byte	0x33
 1017 04d6 DA040000 		.4byte	0x4da
 1018 04da 09       		.uleb128 0x9
 1019 04db 04       		.byte	0x4
 1020 04dc E0040000 		.4byte	0x4e0
 1021 04e0 11       		.uleb128 0x11
 1022 04e1 EB040000 		.4byte	0x4eb
 1023 04e5 10       		.uleb128 0x10
 1024 04e6 EB040000 		.4byte	0x4eb
 1025 04ea 00       		.byte	0
 1026 04eb 09       		.uleb128 0x9
 1027 04ec 04       		.byte	0x4
 1028 04ed 57040000 		.4byte	0x457
 1029 04f1 09       		.uleb128 0x9
 1030 04f2 04       		.byte	0x4
 1031 04f3 45000000 		.4byte	0x45
 1032 04f7 03       		.uleb128 0x3
 1033 04f8 AB030000 		.4byte	.LASF80
 1034 04fc 0B       		.byte	0xb
 1035 04fd 7B       		.byte	0x7b
 1036 04fe 57040000 		.4byte	0x457
 1037 0502 03       		.uleb128 0x3
 1038 0503 38030000 		.4byte	.LASF81
 1039 0507 0B       		.byte	0xb
 1040 0508 EE       		.byte	0xee
 1041 0509 57040000 		.4byte	0x457
 1042 050d 05       		.uleb128 0x5
 1043 050e 9B000000 		.4byte	.LASF82
 1044 0512 10       		.byte	0x10
 1045 0513 0C       		.byte	0xc
 1046 0514 41       		.byte	0x41
 1047 0515 4A050000 		.4byte	0x54a
 1048 0519 06       		.uleb128 0x6
 1049 051a 64040000 		.4byte	.LASF83
 1050 051e 0C       		.byte	0xc
 1051 051f 42       		.byte	0x42
 1052 0520 6E050000 		.4byte	0x56e
 1053 0524 00       		.byte	0
 1054 0525 06       		.uleb128 0x6
 1055 0526 5F060000 		.4byte	.LASF84
 1056 052a 0C       		.byte	0xc
 1057 052b 42       		.byte	0x42
 1058 052c 8D050000 		.4byte	0x58d
 1059 0530 04       		.byte	0x4
 1060 0531 07       		.uleb128 0x7
 1061 0532 70757400 		.ascii	"put\000"
 1062 0536 0C       		.byte	0xc
 1063 0537 42       		.byte	0x42
 1064 0538 A7050000 		.4byte	0x5a7
 1065 053c 08       		.byte	0x8
 1066 053d 07       		.uleb128 0x7
 1067 053e 67657400 		.ascii	"get\000"
 1068 0542 0C       		.byte	0xc
 1069 0543 42       		.byte	0x42
ARM GAS  /var/folders/qh/xwg3v3kj02qbxczjpdb8lzfr0000gn/T//ccRq4Toz.s 			page 20


 1070 0544 42040000 		.4byte	0x442
 1071 0548 0C       		.byte	0xc
 1072 0549 00       		.byte	0
 1073 054a 0F       		.uleb128 0xf
 1074 054b 2C000000 		.4byte	0x2c
 1075 054f 63050000 		.4byte	0x563
 1076 0553 10       		.uleb128 0x10
 1077 0554 87020000 		.4byte	0x287
 1078 0558 10       		.uleb128 0x10
 1079 0559 63050000 		.4byte	0x563
 1080 055d 10       		.uleb128 0x10
 1081 055e 2C000000 		.4byte	0x2c
 1082 0562 00       		.byte	0
 1083 0563 09       		.uleb128 0x9
 1084 0564 04       		.byte	0x4
 1085 0565 69050000 		.4byte	0x569
 1086 0569 0E       		.uleb128 0xe
 1087 056a 45000000 		.4byte	0x45
 1088 056e 09       		.uleb128 0x9
 1089 056f 04       		.byte	0x4
 1090 0570 4A050000 		.4byte	0x54a
 1091 0574 0F       		.uleb128 0xf
 1092 0575 2C000000 		.4byte	0x2c
 1093 0579 8D050000 		.4byte	0x58d
 1094 057d 10       		.uleb128 0x10
 1095 057e 87020000 		.4byte	0x287
 1096 0582 10       		.uleb128 0x10
 1097 0583 F1040000 		.4byte	0x4f1
 1098 0587 10       		.uleb128 0x10
 1099 0588 2C000000 		.4byte	0x2c
 1100 058c 00       		.byte	0
 1101 058d 09       		.uleb128 0x9
 1102 058e 04       		.byte	0x4
 1103 058f 74050000 		.4byte	0x574
 1104 0593 0F       		.uleb128 0xf
 1105 0594 F6000000 		.4byte	0xf6
 1106 0598 A7050000 		.4byte	0x5a7
 1107 059c 10       		.uleb128 0x10
 1108 059d 87020000 		.4byte	0x287
 1109 05a1 10       		.uleb128 0x10
 1110 05a2 45000000 		.4byte	0x45
 1111 05a6 00       		.byte	0
 1112 05a7 09       		.uleb128 0x9
 1113 05a8 04       		.byte	0x4
 1114 05a9 93050000 		.4byte	0x593
 1115 05ad 08       		.uleb128 0x8
 1116 05ae 04       		.byte	0x4
 1117 05af 0C       		.byte	0xc
 1118 05b0 4A       		.byte	0x4a
 1119 05b1 C2050000 		.4byte	0x5c2
 1120 05b5 07       		.uleb128 0x7
 1121 05b6 766D7400 		.ascii	"vmt\000"
 1122 05ba 0C       		.byte	0xc
 1123 05bb 4C       		.byte	0x4c
 1124 05bc C2050000 		.4byte	0x5c2
 1125 05c0 00       		.byte	0
 1126 05c1 00       		.byte	0
ARM GAS  /var/folders/qh/xwg3v3kj02qbxczjpdb8lzfr0000gn/T//ccRq4Toz.s 			page 21


 1127 05c2 09       		.uleb128 0x9
 1128 05c3 04       		.byte	0x4
 1129 05c4 C8050000 		.4byte	0x5c8
 1130 05c8 0E       		.uleb128 0xe
 1131 05c9 0D050000 		.4byte	0x50d
 1132 05cd 03       		.uleb128 0x3
 1133 05ce 96030000 		.4byte	.LASF85
 1134 05d2 0C       		.byte	0xc
 1135 05d3 4E       		.byte	0x4e
 1136 05d4 AD050000 		.4byte	0x5ad
 1137 05d8 12       		.uleb128 0x12
 1138 05d9 44       		.byte	0x44
 1139 05da 0D       		.byte	0xd
 1140 05db 2B01     		.2byte	0x12b
 1141 05dd 88060000 		.4byte	0x688
 1142 05e1 13       		.uleb128 0x13
 1143 05e2 49535200 		.ascii	"ISR\000"
 1144 05e6 0D       		.byte	0xd
 1145 05e7 2D01     		.2byte	0x12d
 1146 05e9 25030000 		.4byte	0x325
 1147 05ed 00       		.byte	0
 1148 05ee 13       		.uleb128 0x13
 1149 05ef 49455200 		.ascii	"IER\000"
 1150 05f3 0D       		.byte	0xd
 1151 05f4 2E01     		.2byte	0x12e
 1152 05f6 25030000 		.4byte	0x325
 1153 05fa 04       		.byte	0x4
 1154 05fb 13       		.uleb128 0x13
 1155 05fc 435200   		.ascii	"CR\000"
 1156 05ff 0D       		.byte	0xd
 1157 0600 2F01     		.2byte	0x12f
 1158 0602 25030000 		.4byte	0x325
 1159 0606 08       		.byte	0x8
 1160 0607 14       		.uleb128 0x14
 1161 0608 D6040000 		.4byte	.LASF86
 1162 060c 0D       		.byte	0xd
 1163 060d 3001     		.2byte	0x130
 1164 060f 25030000 		.4byte	0x325
 1165 0613 0C       		.byte	0xc
 1166 0614 14       		.uleb128 0x14
 1167 0615 DC040000 		.4byte	.LASF87
 1168 0619 0D       		.byte	0xd
 1169 061a 3101     		.2byte	0x131
 1170 061c 25030000 		.4byte	0x325
 1171 0620 10       		.byte	0x10
 1172 0621 14       		.uleb128 0x14
 1173 0622 F9020000 		.4byte	.LASF88
 1174 0626 0D       		.byte	0xd
 1175 0627 3201     		.2byte	0x132
 1176 0629 25030000 		.4byte	0x325
 1177 062d 14       		.byte	0x14
 1178 062e 14       		.uleb128 0x14
 1179 062f 9A050000 		.4byte	.LASF89
 1180 0633 0D       		.byte	0xd
 1181 0634 3301     		.2byte	0x133
 1182 0636 82000000 		.4byte	0x82
 1183 063a 18       		.byte	0x18
ARM GAS  /var/folders/qh/xwg3v3kj02qbxczjpdb8lzfr0000gn/T//ccRq4Toz.s 			page 22


 1184 063b 14       		.uleb128 0x14
 1185 063c A4050000 		.4byte	.LASF90
 1186 0640 0D       		.byte	0xd
 1187 0641 3401     		.2byte	0x134
 1188 0643 82000000 		.4byte	0x82
 1189 0647 1C       		.byte	0x1c
 1190 0648 13       		.uleb128 0x13
 1191 0649 545200   		.ascii	"TR\000"
 1192 064c 0D       		.byte	0xd
 1193 064d 3501     		.2byte	0x135
 1194 064f 25030000 		.4byte	0x325
 1195 0653 20       		.byte	0x20
 1196 0654 14       		.uleb128 0x14
 1197 0655 AE050000 		.4byte	.LASF91
 1198 0659 0D       		.byte	0xd
 1199 065a 3601     		.2byte	0x136
 1200 065c 82000000 		.4byte	0x82
 1201 0660 24       		.byte	0x24
 1202 0661 14       		.uleb128 0x14
 1203 0662 7E020000 		.4byte	.LASF92
 1204 0666 0D       		.byte	0xd
 1205 0667 3701     		.2byte	0x137
 1206 0669 25030000 		.4byte	0x325
 1207 066d 28       		.byte	0x28
 1208 066e 14       		.uleb128 0x14
 1209 066f B8050000 		.4byte	.LASF93
 1210 0673 0D       		.byte	0xd
 1211 0674 3801     		.2byte	0x138
 1212 0676 88060000 		.4byte	0x688
 1213 067a 2C       		.byte	0x2c
 1214 067b 13       		.uleb128 0x13
 1215 067c 445200   		.ascii	"DR\000"
 1216 067f 0D       		.byte	0xd
 1217 0680 3901     		.2byte	0x139
 1218 0682 25030000 		.4byte	0x325
 1219 0686 40       		.byte	0x40
 1220 0687 00       		.byte	0
 1221 0688 15       		.uleb128 0x15
 1222 0689 82000000 		.4byte	0x82
 1223 068d 98060000 		.4byte	0x698
 1224 0691 16       		.uleb128 0x16
 1225 0692 2A030000 		.4byte	0x32a
 1226 0696 04       		.byte	0x4
 1227 0697 00       		.byte	0
 1228 0698 17       		.uleb128 0x17
 1229 0699 3E070000 		.4byte	.LASF94
 1230 069d 0D       		.byte	0xd
 1231 069e 3A01     		.2byte	0x13a
 1232 06a0 D8050000 		.4byte	0x5d8
 1233 06a4 12       		.uleb128 0x12
 1234 06a5 04       		.byte	0x4
 1235 06a6 0D       		.byte	0xd
 1236 06a7 3C01     		.2byte	0x13c
 1237 06a9 BB060000 		.4byte	0x6bb
 1238 06ad 13       		.uleb128 0x13
 1239 06ae 43435200 		.ascii	"CCR\000"
 1240 06b2 0D       		.byte	0xd
ARM GAS  /var/folders/qh/xwg3v3kj02qbxczjpdb8lzfr0000gn/T//ccRq4Toz.s 			page 23


 1241 06b3 3E01     		.2byte	0x13e
 1242 06b5 25030000 		.4byte	0x325
 1243 06b9 00       		.byte	0
 1244 06ba 00       		.byte	0
 1245 06bb 17       		.uleb128 0x17
 1246 06bc D6050000 		.4byte	.LASF95
 1247 06c0 0D       		.byte	0xd
 1248 06c1 3F01     		.2byte	0x13f
 1249 06c3 A4060000 		.4byte	0x6a4
 1250 06c7 12       		.uleb128 0x12
 1251 06c8 10       		.byte	0x10
 1252 06c9 0D       		.byte	0xd
 1253 06ca 8A01     		.2byte	0x18a
 1254 06cc 05070000 		.4byte	0x705
 1255 06d0 13       		.uleb128 0x13
 1256 06d1 43435200 		.ascii	"CCR\000"
 1257 06d5 0D       		.byte	0xd
 1258 06d6 8C01     		.2byte	0x18c
 1259 06d8 25030000 		.4byte	0x325
 1260 06dc 00       		.byte	0
 1261 06dd 14       		.uleb128 0x14
 1262 06de DE010000 		.4byte	.LASF96
 1263 06e2 0D       		.byte	0xd
 1264 06e3 8D01     		.2byte	0x18d
 1265 06e5 25030000 		.4byte	0x325
 1266 06e9 04       		.byte	0x4
 1267 06ea 14       		.uleb128 0x14
 1268 06eb 97020000 		.4byte	.LASF97
 1269 06ef 0D       		.byte	0xd
 1270 06f0 8E01     		.2byte	0x18e
 1271 06f2 25030000 		.4byte	0x325
 1272 06f6 08       		.byte	0x8
 1273 06f7 14       		.uleb128 0x14
 1274 06f8 B9000000 		.4byte	.LASF98
 1275 06fc 0D       		.byte	0xd
 1276 06fd 8F01     		.2byte	0x18f
 1277 06ff 25030000 		.4byte	0x325
 1278 0703 0C       		.byte	0xc
 1279 0704 00       		.byte	0
 1280 0705 17       		.uleb128 0x17
 1281 0706 DB000000 		.4byte	.LASF99
 1282 070a 0D       		.byte	0xd
 1283 070b 9001     		.2byte	0x190
 1284 070d C7060000 		.4byte	0x6c7
 1285 0711 0B       		.uleb128 0xb
 1286 0712 5E000000 		.4byte	0x5e
 1287 0716 12       		.uleb128 0x12
 1288 0717 2C       		.byte	0x2c
 1289 0718 0D       		.byte	0xd
 1290 0719 AA02     		.2byte	0x2aa
 1291 071b F0070000 		.4byte	0x7f0
 1292 071f 13       		.uleb128 0x13
 1293 0720 43523100 		.ascii	"CR1\000"
 1294 0724 0D       		.byte	0xd
 1295 0725 AC02     		.2byte	0x2ac
 1296 0727 25030000 		.4byte	0x325
 1297 072b 00       		.byte	0
ARM GAS  /var/folders/qh/xwg3v3kj02qbxczjpdb8lzfr0000gn/T//ccRq4Toz.s 			page 24


 1298 072c 13       		.uleb128 0x13
 1299 072d 43523200 		.ascii	"CR2\000"
 1300 0731 0D       		.byte	0xd
 1301 0732 AD02     		.2byte	0x2ad
 1302 0734 25030000 		.4byte	0x325
 1303 0738 04       		.byte	0x4
 1304 0739 13       		.uleb128 0x13
 1305 073a 43523300 		.ascii	"CR3\000"
 1306 073e 0D       		.byte	0xd
 1307 073f AE02     		.2byte	0x2ae
 1308 0741 25030000 		.4byte	0x325
 1309 0745 08       		.byte	0x8
 1310 0746 13       		.uleb128 0x13
 1311 0747 42525200 		.ascii	"BRR\000"
 1312 074b 0D       		.byte	0xd
 1313 074c AF02     		.2byte	0x2af
 1314 074e 11070000 		.4byte	0x711
 1315 0752 0C       		.byte	0xc
 1316 0753 14       		.uleb128 0x14
 1317 0754 9A050000 		.4byte	.LASF89
 1318 0758 0D       		.byte	0xd
 1319 0759 B002     		.2byte	0x2b0
 1320 075b 5E000000 		.4byte	0x5e
 1321 075f 0E       		.byte	0xe
 1322 0760 14       		.uleb128 0x14
 1323 0761 E4010000 		.4byte	.LASF100
 1324 0765 0D       		.byte	0xd
 1325 0766 B102     		.2byte	0x2b1
 1326 0768 11070000 		.4byte	0x711
 1327 076c 10       		.byte	0x10
 1328 076d 14       		.uleb128 0x14
 1329 076e A4050000 		.4byte	.LASF90
 1330 0772 0D       		.byte	0xd
 1331 0773 B202     		.2byte	0x2b2
 1332 0775 5E000000 		.4byte	0x5e
 1333 0779 12       		.byte	0x12
 1334 077a 14       		.uleb128 0x14
 1335 077b 1E040000 		.4byte	.LASF101
 1336 077f 0D       		.byte	0xd
 1337 0780 B302     		.2byte	0x2b3
 1338 0782 25030000 		.4byte	0x325
 1339 0786 14       		.byte	0x14
 1340 0787 13       		.uleb128 0x13
 1341 0788 52515200 		.ascii	"RQR\000"
 1342 078c 0D       		.byte	0xd
 1343 078d B402     		.2byte	0x2b4
 1344 078f 11070000 		.4byte	0x711
 1345 0793 18       		.byte	0x18
 1346 0794 14       		.uleb128 0x14
 1347 0795 AE050000 		.4byte	.LASF91
 1348 0799 0D       		.byte	0xd
 1349 079a B502     		.2byte	0x2b5
 1350 079c 5E000000 		.4byte	0x5e
 1351 07a0 1A       		.byte	0x1a
 1352 07a1 13       		.uleb128 0x13
 1353 07a2 49535200 		.ascii	"ISR\000"
 1354 07a6 0D       		.byte	0xd
ARM GAS  /var/folders/qh/xwg3v3kj02qbxczjpdb8lzfr0000gn/T//ccRq4Toz.s 			page 25


 1355 07a7 B602     		.2byte	0x2b6
 1356 07a9 25030000 		.4byte	0x325
 1357 07ad 1C       		.byte	0x1c
 1358 07ae 13       		.uleb128 0x13
 1359 07af 49435200 		.ascii	"ICR\000"
 1360 07b3 0D       		.byte	0xd
 1361 07b4 B702     		.2byte	0x2b7
 1362 07b6 25030000 		.4byte	0x325
 1363 07ba 20       		.byte	0x20
 1364 07bb 13       		.uleb128 0x13
 1365 07bc 52445200 		.ascii	"RDR\000"
 1366 07c0 0D       		.byte	0xd
 1367 07c1 B802     		.2byte	0x2b8
 1368 07c3 11070000 		.4byte	0x711
 1369 07c7 24       		.byte	0x24
 1370 07c8 14       		.uleb128 0x14
 1371 07c9 B8050000 		.4byte	.LASF93
 1372 07cd 0D       		.byte	0xd
 1373 07ce B902     		.2byte	0x2b9
 1374 07d0 5E000000 		.4byte	0x5e
 1375 07d4 26       		.byte	0x26
 1376 07d5 13       		.uleb128 0x13
 1377 07d6 54445200 		.ascii	"TDR\000"
 1378 07da 0D       		.byte	0xd
 1379 07db BA02     		.2byte	0x2ba
 1380 07dd 11070000 		.4byte	0x711
 1381 07e1 28       		.byte	0x28
 1382 07e2 14       		.uleb128 0x14
 1383 07e3 C2050000 		.4byte	.LASF102
 1384 07e7 0D       		.byte	0xd
 1385 07e8 BB02     		.2byte	0x2bb
 1386 07ea 5E000000 		.4byte	0x5e
 1387 07ee 2A       		.byte	0x2a
 1388 07ef 00       		.byte	0
 1389 07f0 17       		.uleb128 0x17
 1390 07f1 24030000 		.4byte	.LASF103
 1391 07f5 0D       		.byte	0xd
 1392 07f6 BC02     		.2byte	0x2bc
 1393 07f8 16070000 		.4byte	0x716
 1394 07fc 08       		.uleb128 0x8
 1395 07fd 0C       		.byte	0xc
 1396 07fe 0E       		.byte	0xe
 1397 07ff B6       		.byte	0xb6
 1398 0800 41080000 		.4byte	0x841
 1399 0804 06       		.uleb128 0x6
 1400 0805 5C050000 		.4byte	.LASF104
 1401 0809 0E       		.byte	0xe
 1402 080a B7       		.byte	0xb7
 1403 080b 41080000 		.4byte	0x841
 1404 080f 00       		.byte	0
 1405 0810 06       		.uleb128 0x6
 1406 0811 18020000 		.4byte	.LASF105
 1407 0815 0E       		.byte	0xe
 1408 0816 B8       		.byte	0xb8
 1409 0817 47080000 		.4byte	0x847
 1410 081b 04       		.byte	0x4
 1411 081c 06       		.uleb128 0x6
ARM GAS  /var/folders/qh/xwg3v3kj02qbxczjpdb8lzfr0000gn/T//ccRq4Toz.s 			page 26


 1412 081d D0030000 		.4byte	.LASF106
 1413 0821 0E       		.byte	0xe
 1414 0822 B9       		.byte	0xb9
 1415 0823 45000000 		.4byte	0x45
 1416 0827 08       		.byte	0x8
 1417 0828 06       		.uleb128 0x6
 1418 0829 CF070000 		.4byte	.LASF107
 1419 082d 0E       		.byte	0xe
 1420 082e BB       		.byte	0xbb
 1421 082f 45000000 		.4byte	0x45
 1422 0833 09       		.byte	0x9
 1423 0834 06       		.uleb128 0x6
 1424 0835 6A020000 		.4byte	.LASF108
 1425 0839 0E       		.byte	0xe
 1426 083a BC       		.byte	0xbc
 1427 083b 45000000 		.4byte	0x45
 1428 083f 0A       		.byte	0xa
 1429 0840 00       		.byte	0
 1430 0841 09       		.uleb128 0x9
 1431 0842 04       		.byte	0x4
 1432 0843 05070000 		.4byte	0x705
 1433 0847 09       		.uleb128 0x9
 1434 0848 04       		.byte	0x4
 1435 0849 25030000 		.4byte	0x325
 1436 084d 03       		.uleb128 0x3
 1437 084e E7030000 		.4byte	.LASF109
 1438 0852 0E       		.byte	0xe
 1439 0853 BD       		.byte	0xbd
 1440 0854 FC070000 		.4byte	0x7fc
 1441 0858 0F       		.uleb128 0xf
 1442 0859 F6000000 		.4byte	0xf6
 1443 085d 71080000 		.4byte	0x871
 1444 0861 10       		.uleb128 0x10
 1445 0862 87020000 		.4byte	0x287
 1446 0866 10       		.uleb128 0x10
 1447 0867 45000000 		.4byte	0x45
 1448 086b 10       		.uleb128 0x10
 1449 086c 17010000 		.4byte	0x117
 1450 0870 00       		.byte	0
 1451 0871 09       		.uleb128 0x9
 1452 0872 04       		.byte	0x4
 1453 0873 58080000 		.4byte	0x858
 1454 0877 0F       		.uleb128 0xf
 1455 0878 F6000000 		.4byte	0xf6
 1456 087c 8B080000 		.4byte	0x88b
 1457 0880 10       		.uleb128 0x10
 1458 0881 87020000 		.4byte	0x287
 1459 0885 10       		.uleb128 0x10
 1460 0886 17010000 		.4byte	0x117
 1461 088a 00       		.byte	0
 1462 088b 09       		.uleb128 0x9
 1463 088c 04       		.byte	0x4
 1464 088d 77080000 		.4byte	0x877
 1465 0891 0F       		.uleb128 0xf
 1466 0892 2C000000 		.4byte	0x2c
 1467 0896 AF080000 		.4byte	0x8af
 1468 089a 10       		.uleb128 0x10
ARM GAS  /var/folders/qh/xwg3v3kj02qbxczjpdb8lzfr0000gn/T//ccRq4Toz.s 			page 27


 1469 089b 87020000 		.4byte	0x287
 1470 089f 10       		.uleb128 0x10
 1471 08a0 63050000 		.4byte	0x563
 1472 08a4 10       		.uleb128 0x10
 1473 08a5 2C000000 		.4byte	0x2c
 1474 08a9 10       		.uleb128 0x10
 1475 08aa 17010000 		.4byte	0x117
 1476 08ae 00       		.byte	0
 1477 08af 09       		.uleb128 0x9
 1478 08b0 04       		.byte	0x4
 1479 08b1 91080000 		.4byte	0x891
 1480 08b5 0F       		.uleb128 0xf
 1481 08b6 2C000000 		.4byte	0x2c
 1482 08ba D3080000 		.4byte	0x8d3
 1483 08be 10       		.uleb128 0x10
 1484 08bf 87020000 		.4byte	0x287
 1485 08c3 10       		.uleb128 0x10
 1486 08c4 F1040000 		.4byte	0x4f1
 1487 08c8 10       		.uleb128 0x10
 1488 08c9 2C000000 		.4byte	0x2c
 1489 08cd 10       		.uleb128 0x10
 1490 08ce 17010000 		.4byte	0x117
 1491 08d2 00       		.byte	0
 1492 08d3 09       		.uleb128 0x9
 1493 08d4 04       		.byte	0x4
 1494 08d5 B5080000 		.4byte	0x8b5
 1495 08d9 18       		.uleb128 0x18
 1496 08da 01       		.byte	0x1
 1497 08db 0F       		.byte	0xf
 1498 08dc 4E       		.byte	0x4e
 1499 08dd 06090000 		.4byte	0x906
 1500 08e1 19       		.uleb128 0x19
 1501 08e2 54060000 		.4byte	.LASF110
 1502 08e6 00       		.sleb128 0
 1503 08e7 19       		.uleb128 0x19
 1504 08e8 B4070000 		.4byte	.LASF111
 1505 08ec 01       		.sleb128 1
 1506 08ed 19       		.uleb128 0x19
 1507 08ee DA060000 		.4byte	.LASF112
 1508 08f2 02       		.sleb128 2
 1509 08f3 19       		.uleb128 0x19
 1510 08f4 64050000 		.4byte	.LASF113
 1511 08f8 03       		.sleb128 3
 1512 08f9 19       		.uleb128 0x19
 1513 08fa 68030000 		.4byte	.LASF114
 1514 08fe 04       		.sleb128 4
 1515 08ff 19       		.uleb128 0x19
 1516 0900 7B030000 		.4byte	.LASF115
 1517 0904 05       		.sleb128 5
 1518 0905 00       		.byte	0
 1519 0906 03       		.uleb128 0x3
 1520 0907 EB060000 		.4byte	.LASF116
 1521 090b 0F       		.byte	0xf
 1522 090c 55       		.byte	0x55
 1523 090d D9080000 		.4byte	0x8d9
 1524 0911 03       		.uleb128 0x3
 1525 0912 16050000 		.4byte	.LASF117
ARM GAS  /var/folders/qh/xwg3v3kj02qbxczjpdb8lzfr0000gn/T//ccRq4Toz.s 			page 28


 1526 0916 10       		.byte	0x10
 1527 0917 8F       		.byte	0x8f
 1528 0918 5E000000 		.4byte	0x5e
 1529 091c 03       		.uleb128 0x3
 1530 091d E9050000 		.4byte	.LASF118
 1531 0921 10       		.byte	0x10
 1532 0922 94       		.byte	0x94
 1533 0923 5E000000 		.4byte	0x5e
 1534 0927 18       		.uleb128 0x18
 1535 0928 01       		.byte	0x1
 1536 0929 10       		.byte	0x10
 1537 092a 9B       		.byte	0x9b
 1538 092b 42090000 		.4byte	0x942
 1539 092f 19       		.uleb128 0x19
 1540 0930 7A060000 		.4byte	.LASF119
 1541 0934 00       		.sleb128 0
 1542 0935 19       		.uleb128 0x19
 1543 0936 4B050000 		.4byte	.LASF120
 1544 093a 01       		.sleb128 1
 1545 093b 19       		.uleb128 0x19
 1546 093c 18030000 		.4byte	.LASF121
 1547 0940 02       		.sleb128 2
 1548 0941 00       		.byte	0
 1549 0942 03       		.uleb128 0x3
 1550 0943 69000000 		.4byte	.LASF122
 1551 0947 10       		.byte	0x10
 1552 0948 9F       		.byte	0x9f
 1553 0949 27090000 		.4byte	0x927
 1554 094d 03       		.uleb128 0x3
 1555 094e 85030000 		.4byte	.LASF123
 1556 0952 10       		.byte	0x10
 1557 0953 A4       		.byte	0xa4
 1558 0954 58090000 		.4byte	0x958
 1559 0958 05       		.uleb128 0x5
 1560 0959 85030000 		.4byte	.LASF123
 1561 095d 34       		.byte	0x34
 1562 095e 10       		.byte	0x10
 1563 095f F2       		.byte	0xf2
 1564 0960 E4090000 		.4byte	0x9e4
 1565 0964 06       		.uleb128 0x6
 1566 0965 38070000 		.4byte	.LASF124
 1567 0969 10       		.byte	0x10
 1568 096a F6       		.byte	0xf6
 1569 096b 06090000 		.4byte	0x906
 1570 096f 00       		.byte	0
 1571 0970 06       		.uleb128 0x6
 1572 0971 88050000 		.4byte	.LASF125
 1573 0975 10       		.byte	0x10
 1574 0976 FA       		.byte	0xfa
 1575 0977 CA0A0000 		.4byte	0xaca
 1576 097b 04       		.byte	0x4
 1577 097c 06       		.uleb128 0x6
 1578 097d 4E040000 		.4byte	.LASF126
 1579 0981 10       		.byte	0x10
 1580 0982 FE       		.byte	0xfe
 1581 0983 100A0000 		.4byte	0xa10
 1582 0987 08       		.byte	0x8
ARM GAS  /var/folders/qh/xwg3v3kj02qbxczjpdb8lzfr0000gn/T//ccRq4Toz.s 			page 29


 1583 0988 14       		.uleb128 0x14
 1584 0989 78040000 		.4byte	.LASF127
 1585 098d 10       		.byte	0x10
 1586 098e 0201     		.2byte	0x102
 1587 0990 2C000000 		.4byte	0x2c
 1588 0994 0C       		.byte	0xc
 1589 0995 14       		.uleb128 0x14
 1590 0996 A7070000 		.4byte	.LASF128
 1591 099a 10       		.byte	0x10
 1592 099b 0601     		.2byte	0x106
 1593 099d D50A0000 		.4byte	0xad5
 1594 09a1 10       		.byte	0x10
 1595 09a2 14       		.uleb128 0x14
 1596 09a3 0A070000 		.4byte	.LASF129
 1597 09a7 10       		.byte	0x10
 1598 09a8 0B01     		.2byte	0x10b
 1599 09aa 4B020000 		.4byte	0x24b
 1600 09ae 14       		.byte	0x14
 1601 09af 14       		.uleb128 0x14
 1602 09b0 1D020000 		.4byte	.LASF130
 1603 09b4 10       		.byte	0x10
 1604 09b5 1201     		.2byte	0x112
 1605 09b7 6D030000 		.4byte	0x36d
 1606 09bb 18       		.byte	0x18
 1607 09bc 13       		.uleb128 0x13
 1608 09bd 61646300 		.ascii	"adc\000"
 1609 09c1 10       		.byte	0x10
 1610 09c2 1E01     		.2byte	0x11e
 1611 09c4 E00A0000 		.4byte	0xae0
 1612 09c8 28       		.byte	0x28
 1613 09c9 14       		.uleb128 0x14
 1614 09ca 58030000 		.4byte	.LASF131
 1615 09ce 10       		.byte	0x10
 1616 09cf 2201     		.2byte	0x122
 1617 09d1 E60A0000 		.4byte	0xae6
 1618 09d5 2C       		.byte	0x2c
 1619 09d6 14       		.uleb128 0x14
 1620 09d7 44000000 		.4byte	.LASF132
 1621 09db 10       		.byte	0x10
 1622 09dc 2601     		.2byte	0x126
 1623 09de 82000000 		.4byte	0x82
 1624 09e2 30       		.byte	0x30
 1625 09e3 00       		.byte	0
 1626 09e4 03       		.uleb128 0x3
 1627 09e5 9D040000 		.4byte	.LASF133
 1628 09e9 10       		.byte	0x10
 1629 09ea AE       		.byte	0xae
 1630 09eb EF090000 		.4byte	0x9ef
 1631 09ef 09       		.uleb128 0x9
 1632 09f0 04       		.byte	0x4
 1633 09f1 F5090000 		.4byte	0x9f5
 1634 09f5 11       		.uleb128 0x11
 1635 09f6 0A0A0000 		.4byte	0xa0a
 1636 09fa 10       		.uleb128 0x10
 1637 09fb 0A0A0000 		.4byte	0xa0a
 1638 09ff 10       		.uleb128 0x10
 1639 0a00 100A0000 		.4byte	0xa10
ARM GAS  /var/folders/qh/xwg3v3kj02qbxczjpdb8lzfr0000gn/T//ccRq4Toz.s 			page 30


 1640 0a04 10       		.uleb128 0x10
 1641 0a05 2C000000 		.4byte	0x2c
 1642 0a09 00       		.byte	0
 1643 0a0a 09       		.uleb128 0x9
 1644 0a0b 04       		.byte	0x4
 1645 0a0c 4D090000 		.4byte	0x94d
 1646 0a10 09       		.uleb128 0x9
 1647 0a11 04       		.byte	0x4
 1648 0a12 11090000 		.4byte	0x911
 1649 0a16 03       		.uleb128 0x3
 1650 0a17 F9010000 		.4byte	.LASF134
 1651 0a1b 10       		.byte	0x10
 1652 0a1c B7       		.byte	0xb7
 1653 0a1d 210A0000 		.4byte	0xa21
 1654 0a21 09       		.uleb128 0x9
 1655 0a22 04       		.byte	0x4
 1656 0a23 270A0000 		.4byte	0xa27
 1657 0a27 11       		.uleb128 0x11
 1658 0a28 370A0000 		.4byte	0xa37
 1659 0a2c 10       		.uleb128 0x10
 1660 0a2d 0A0A0000 		.4byte	0xa0a
 1661 0a31 10       		.uleb128 0x10
 1662 0a32 42090000 		.4byte	0x942
 1663 0a36 00       		.byte	0
 1664 0a37 08       		.uleb128 0x8
 1665 0a38 1C       		.byte	0x1c
 1666 0a39 10       		.byte	0x10
 1667 0a3a C1       		.byte	0xc1
 1668 0a3b 9F0A0000 		.4byte	0xa9f
 1669 0a3f 06       		.uleb128 0x6
 1670 0a40 4A020000 		.4byte	.LASF135
 1671 0a44 10       		.byte	0x10
 1672 0a45 C5       		.byte	0xc5
 1673 0a46 AD000000 		.4byte	0xad
 1674 0a4a 00       		.byte	0
 1675 0a4b 06       		.uleb128 0x6
 1676 0a4c 31060000 		.4byte	.LASF136
 1677 0a50 10       		.byte	0x10
 1678 0a51 C9       		.byte	0xc9
 1679 0a52 1C090000 		.4byte	0x91c
 1680 0a56 02       		.byte	0x2
 1681 0a57 06       		.uleb128 0x6
 1682 0a58 3B020000 		.4byte	.LASF137
 1683 0a5c 10       		.byte	0x10
 1684 0a5d CD       		.byte	0xcd
 1685 0a5e E4090000 		.4byte	0x9e4
 1686 0a62 04       		.byte	0x4
 1687 0a63 06       		.uleb128 0x6
 1688 0a64 C4000000 		.4byte	.LASF138
 1689 0a68 10       		.byte	0x10
 1690 0a69 D1       		.byte	0xd1
 1691 0a6a 160A0000 		.4byte	0xa16
 1692 0a6e 08       		.byte	0x8
 1693 0a6f 06       		.uleb128 0x6
 1694 0a70 FC050000 		.4byte	.LASF139
 1695 0a74 10       		.byte	0x10
 1696 0a75 D6       		.byte	0xd6
ARM GAS  /var/folders/qh/xwg3v3kj02qbxczjpdb8lzfr0000gn/T//ccRq4Toz.s 			page 31


 1697 0a76 82000000 		.4byte	0x82
 1698 0a7a 0C       		.byte	0xc
 1699 0a7b 07       		.uleb128 0x7
 1700 0a7c 747200   		.ascii	"tr\000"
 1701 0a7f 10       		.byte	0x10
 1702 0a80 DA       		.byte	0xda
 1703 0a81 82000000 		.4byte	0x82
 1704 0a85 10       		.byte	0x10
 1705 0a86 06       		.uleb128 0x6
 1706 0a87 73040000 		.4byte	.LASF140
 1707 0a8b 10       		.byte	0x10
 1708 0a8c DE       		.byte	0xde
 1709 0a8d 82000000 		.4byte	0x82
 1710 0a91 14       		.byte	0x14
 1711 0a92 06       		.uleb128 0x6
 1712 0a93 E4060000 		.4byte	.LASF141
 1713 0a97 10       		.byte	0x10
 1714 0a98 E4       		.byte	0xe4
 1715 0a99 82000000 		.4byte	0x82
 1716 0a9d 18       		.byte	0x18
 1717 0a9e 00       		.byte	0
 1718 0a9f 03       		.uleb128 0x3
 1719 0aa0 1E060000 		.4byte	.LASF142
 1720 0aa4 10       		.byte	0x10
 1721 0aa5 E5       		.byte	0xe5
 1722 0aa6 370A0000 		.4byte	0xa37
 1723 0aaa 08       		.uleb128 0x8
 1724 0aab 04       		.byte	0x4
 1725 0aac 10       		.byte	0x10
 1726 0aad EB       		.byte	0xeb
 1727 0aae BF0A0000 		.4byte	0xabf
 1728 0ab2 06       		.uleb128 0x6
 1729 0ab3 B3000000 		.4byte	.LASF143
 1730 0ab7 10       		.byte	0x10
 1731 0ab8 EC       		.byte	0xec
 1732 0ab9 82000000 		.4byte	0x82
 1733 0abd 00       		.byte	0
 1734 0abe 00       		.byte	0
 1735 0abf 03       		.uleb128 0x3
 1736 0ac0 93040000 		.4byte	.LASF144
 1737 0ac4 10       		.byte	0x10
 1738 0ac5 ED       		.byte	0xed
 1739 0ac6 AA0A0000 		.4byte	0xaaa
 1740 0aca 09       		.uleb128 0x9
 1741 0acb 04       		.byte	0x4
 1742 0acc D00A0000 		.4byte	0xad0
 1743 0ad0 0E       		.uleb128 0xe
 1744 0ad1 BF0A0000 		.4byte	0xabf
 1745 0ad5 09       		.uleb128 0x9
 1746 0ad6 04       		.byte	0x4
 1747 0ad7 DB0A0000 		.4byte	0xadb
 1748 0adb 0E       		.uleb128 0xe
 1749 0adc 9F0A0000 		.4byte	0xa9f
 1750 0ae0 09       		.uleb128 0x9
 1751 0ae1 04       		.byte	0x4
 1752 0ae2 98060000 		.4byte	0x698
 1753 0ae6 09       		.uleb128 0x9
ARM GAS  /var/folders/qh/xwg3v3kj02qbxczjpdb8lzfr0000gn/T//ccRq4Toz.s 			page 32


 1754 0ae7 04       		.byte	0x4
 1755 0ae8 EC0A0000 		.4byte	0xaec
 1756 0aec 0E       		.uleb128 0xe
 1757 0aed 4D080000 		.4byte	0x84d
 1758 0af1 18       		.uleb128 0x18
 1759 0af2 01       		.byte	0x1
 1760 0af3 11       		.byte	0x11
 1761 0af4 5D       		.byte	0x5d
 1762 0af5 0C0B0000 		.4byte	0xb0c
 1763 0af9 19       		.uleb128 0x19
 1764 0afa 70060000 		.4byte	.LASF145
 1765 0afe 00       		.sleb128 0
 1766 0aff 19       		.uleb128 0x19
 1767 0b00 0B030000 		.4byte	.LASF146
 1768 0b04 01       		.sleb128 1
 1769 0b05 19       		.uleb128 0x19
 1770 0b06 6F050000 		.4byte	.LASF147
 1771 0b0a 02       		.sleb128 2
 1772 0b0b 00       		.byte	0
 1773 0b0c 03       		.uleb128 0x3
 1774 0b0d 23020000 		.4byte	.LASF148
 1775 0b11 11       		.byte	0x11
 1776 0b12 61       		.byte	0x61
 1777 0b13 F10A0000 		.4byte	0xaf1
 1778 0b17 03       		.uleb128 0x3
 1779 0b18 16000000 		.4byte	.LASF149
 1780 0b1c 11       		.byte	0x11
 1781 0b1d 66       		.byte	0x66
 1782 0b1e 220B0000 		.4byte	0xb22
 1783 0b22 05       		.uleb128 0x5
 1784 0b23 16000000 		.4byte	.LASF149
 1785 0b27 7C       		.byte	0x7c
 1786 0b28 11       		.byte	0x11
 1787 0b29 80       		.byte	0x80
 1788 0b2a 990B0000 		.4byte	0xb99
 1789 0b2e 07       		.uleb128 0x7
 1790 0b2f 766D7400 		.ascii	"vmt\000"
 1791 0b33 11       		.byte	0x11
 1792 0b34 82       		.byte	0x82
 1793 0b35 060C0000 		.4byte	0xc06
 1794 0b39 00       		.byte	0
 1795 0b3a 06       		.uleb128 0x6
 1796 0b3b 2D020000 		.4byte	.LASF150
 1797 0b3f 11       		.byte	0x11
 1798 0b40 83       		.byte	0x83
 1799 0b41 DF030000 		.4byte	0x3df
 1800 0b45 04       		.byte	0x4
 1801 0b46 06       		.uleb128 0x6
 1802 0b47 38070000 		.4byte	.LASF124
 1803 0b4b 11       		.byte	0x11
 1804 0b4c 83       		.byte	0x83
 1805 0b4d 0C0B0000 		.4byte	0xb0c
 1806 0b51 08       		.byte	0x8
 1807 0b52 06       		.uleb128 0x6
 1808 0b53 E9010000 		.4byte	.LASF151
 1809 0b57 11       		.byte	0x11
 1810 0b58 83       		.byte	0x83
ARM GAS  /var/folders/qh/xwg3v3kj02qbxczjpdb8lzfr0000gn/T//ccRq4Toz.s 			page 33


 1811 0b59 F7040000 		.4byte	0x4f7
 1812 0b5d 0C       		.byte	0xc
 1813 0b5e 06       		.uleb128 0x6
 1814 0b5f 34050000 		.4byte	.LASF152
 1815 0b63 11       		.byte	0x11
 1816 0b64 83       		.byte	0x83
 1817 0b65 02050000 		.4byte	0x502
 1818 0b69 30       		.byte	0x30
 1819 0b6a 07       		.uleb128 0x7
 1820 0b6b 696200   		.ascii	"ib\000"
 1821 0b6e 11       		.byte	0x11
 1822 0b6f 83       		.byte	0x83
 1823 0b70 110C0000 		.4byte	0xc11
 1824 0b74 54       		.byte	0x54
 1825 0b75 07       		.uleb128 0x7
 1826 0b76 6F6200   		.ascii	"ob\000"
 1827 0b79 11       		.byte	0x11
 1828 0b7a 83       		.byte	0x83
 1829 0b7b 110C0000 		.4byte	0xc11
 1830 0b7f 64       		.byte	0x64
 1831 0b80 06       		.uleb128 0x6
 1832 0b81 40040000 		.4byte	.LASF153
 1833 0b85 11       		.byte	0x11
 1834 0b86 83       		.byte	0x83
 1835 0b87 210C0000 		.4byte	0xc21
 1836 0b8b 74       		.byte	0x74
 1837 0b8c 06       		.uleb128 0x6
 1838 0b8d 75030000 		.4byte	.LASF154
 1839 0b91 11       		.byte	0x11
 1840 0b92 83       		.byte	0x83
 1841 0b93 82000000 		.4byte	0x82
 1842 0b97 78       		.byte	0x78
 1843 0b98 00       		.byte	0
 1844 0b99 05       		.uleb128 0x5
 1845 0b9a 78050000 		.4byte	.LASF155
 1846 0b9e 20       		.byte	0x20
 1847 0b9f 11       		.byte	0x11
 1848 0ba0 75       		.byte	0x75
 1849 0ba1 060C0000 		.4byte	0xc06
 1850 0ba5 06       		.uleb128 0x6
 1851 0ba6 64040000 		.4byte	.LASF83
 1852 0baa 11       		.byte	0x11
 1853 0bab 76       		.byte	0x76
 1854 0bac 6E050000 		.4byte	0x56e
 1855 0bb0 00       		.byte	0
 1856 0bb1 06       		.uleb128 0x6
 1857 0bb2 5F060000 		.4byte	.LASF84
 1858 0bb6 11       		.byte	0x11
 1859 0bb7 76       		.byte	0x76
 1860 0bb8 8D050000 		.4byte	0x58d
 1861 0bbc 04       		.byte	0x4
 1862 0bbd 07       		.uleb128 0x7
 1863 0bbe 70757400 		.ascii	"put\000"
 1864 0bc2 11       		.byte	0x11
 1865 0bc3 76       		.byte	0x76
 1866 0bc4 A7050000 		.4byte	0x5a7
 1867 0bc8 08       		.byte	0x8
ARM GAS  /var/folders/qh/xwg3v3kj02qbxczjpdb8lzfr0000gn/T//ccRq4Toz.s 			page 34


 1868 0bc9 07       		.uleb128 0x7
 1869 0bca 67657400 		.ascii	"get\000"
 1870 0bce 11       		.byte	0x11
 1871 0bcf 76       		.byte	0x76
 1872 0bd0 42040000 		.4byte	0x442
 1873 0bd4 0C       		.byte	0xc
 1874 0bd5 06       		.uleb128 0x6
 1875 0bd6 AB020000 		.4byte	.LASF156
 1876 0bda 11       		.byte	0x11
 1877 0bdb 76       		.byte	0x76
 1878 0bdc 71080000 		.4byte	0x871
 1879 0be0 10       		.byte	0x10
 1880 0be1 06       		.uleb128 0x6
 1881 0be2 97060000 		.4byte	.LASF157
 1882 0be6 11       		.byte	0x11
 1883 0be7 76       		.byte	0x76
 1884 0be8 8B080000 		.4byte	0x88b
 1885 0bec 14       		.byte	0x14
 1886 0bed 06       		.uleb128 0x6
 1887 0bee D7010000 		.4byte	.LASF158
 1888 0bf2 11       		.byte	0x11
 1889 0bf3 76       		.byte	0x76
 1890 0bf4 AF080000 		.4byte	0x8af
 1891 0bf8 18       		.byte	0x18
 1892 0bf9 06       		.uleb128 0x6
 1893 0bfa 75070000 		.4byte	.LASF159
 1894 0bfe 11       		.byte	0x11
 1895 0bff 76       		.byte	0x76
 1896 0c00 D3080000 		.4byte	0x8d3
 1897 0c04 1C       		.byte	0x1c
 1898 0c05 00       		.byte	0
 1899 0c06 09       		.uleb128 0x9
 1900 0c07 04       		.byte	0x4
 1901 0c08 0C0C0000 		.4byte	0xc0c
 1902 0c0c 0E       		.uleb128 0xe
 1903 0c0d 990B0000 		.4byte	0xb99
 1904 0c11 15       		.uleb128 0x15
 1905 0c12 45000000 		.4byte	0x45
 1906 0c16 210C0000 		.4byte	0xc21
 1907 0c1a 16       		.uleb128 0x16
 1908 0c1b 2A030000 		.4byte	0x32a
 1909 0c1f 0F       		.byte	0xf
 1910 0c20 00       		.byte	0
 1911 0c21 09       		.uleb128 0x9
 1912 0c22 04       		.byte	0x4
 1913 0c23 F0070000 		.4byte	0x7f0
 1914 0c27 09       		.uleb128 0x9
 1915 0c28 04       		.byte	0x4
 1916 0c29 CD050000 		.4byte	0x5cd
 1917 0c2d 09       		.uleb128 0x9
 1918 0c2e 04       		.byte	0x4
 1919 0c2f 330C0000 		.4byte	0xc33
 1920 0c33 09       		.uleb128 0x9
 1921 0c34 04       		.byte	0x4
 1922 0c35 2A040000 		.4byte	0x42a
 1923 0c39 03       		.uleb128 0x3
 1924 0c3a 9C020000 		.4byte	.LASF160
ARM GAS  /var/folders/qh/xwg3v3kj02qbxczjpdb8lzfr0000gn/T//ccRq4Toz.s 			page 35


 1925 0c3e 12       		.byte	0x12
 1926 0c3f 28       		.byte	0x28
 1927 0c40 440C0000 		.4byte	0xc44
 1928 0c44 05       		.uleb128 0x5
 1929 0c45 58070000 		.4byte	.LASF161
 1930 0c49 04       		.byte	0x4
 1931 0c4a 13       		.byte	0x13
 1932 0c4b 00       		.byte	0
 1933 0c4c 5B0C0000 		.4byte	0xc5b
 1934 0c50 1A       		.uleb128 0x1a
 1935 0c51 B3040000 		.4byte	.LASF162
 1936 0c55 87020000 		.4byte	0x287
 1937 0c59 00       		.byte	0
 1938 0c5a 00       		.byte	0
 1939 0c5b 03       		.uleb128 0x3
 1940 0c5c 46040000 		.4byte	.LASF163
 1941 0c60 12       		.byte	0x12
 1942 0c61 62       		.byte	0x62
 1943 0c62 390C0000 		.4byte	0xc39
 1944 0c66 1B       		.uleb128 0x1b
 1945 0c67 5F030000 		.4byte	.LASF181
 1946 0c6b 01       		.byte	0x1
 1947 0c6c 45       		.byte	0x45
 1948 0c6d 00000000 		.4byte	.LFB40
 1949 0c71 1A000000 		.4byte	.LFE40-.LFB40
 1950 0c75 01       		.uleb128 0x1
 1951 0c76 9C       		.byte	0x9c
 1952 0c77 C50C0000 		.4byte	0xcc5
 1953 0c7b 1C       		.uleb128 0x1c
 1954 0c7c 63687000 		.ascii	"chp\000"
 1955 0c80 01       		.byte	0x1
 1956 0c81 45       		.byte	0x45
 1957 0c82 270C0000 		.4byte	0xc27
 1958 0c86 00000000 		.4byte	.LLST0
 1959 0c8a 1D       		.uleb128 0x1d
 1960 0c8b 666D7400 		.ascii	"fmt\000"
 1961 0c8f 01       		.byte	0x1
 1962 0c90 45       		.byte	0x45
 1963 0c91 1F040000 		.4byte	0x41f
 1964 0c95 02       		.uleb128 0x2
 1965 0c96 91       		.byte	0x91
 1966 0c97 74       		.sleb128 -12
 1967 0c98 1E       		.uleb128 0x1e
 1968 0c99 1F       		.uleb128 0x1f
 1969 0c9a 617000   		.ascii	"ap\000"
 1970 0c9d 01       		.byte	0x1
 1971 0c9e 46       		.byte	0x46
 1972 0c9f 5B0C0000 		.4byte	0xc5b
 1973 0ca3 02       		.uleb128 0x2
 1974 0ca4 91       		.byte	0x91
 1975 0ca5 6C       		.sleb128 -20
 1976 0ca6 20       		.uleb128 0x20
 1977 0ca7 12000000 		.4byte	.LVL1
 1978 0cab 50100000 		.4byte	0x1050
 1979 0caf 21       		.uleb128 0x21
 1980 0cb0 01       		.uleb128 0x1
 1981 0cb1 52       		.byte	0x52
ARM GAS  /var/folders/qh/xwg3v3kj02qbxczjpdb8lzfr0000gn/T//ccRq4Toz.s 			page 36


 1982 0cb2 02       		.uleb128 0x2
 1983 0cb3 91       		.byte	0x91
 1984 0cb4 60       		.sleb128 -32
 1985 0cb5 21       		.uleb128 0x21
 1986 0cb6 01       		.uleb128 0x1
 1987 0cb7 51       		.byte	0x51
 1988 0cb8 03       		.uleb128 0x3
 1989 0cb9 91       		.byte	0x91
 1990 0cba 5C       		.sleb128 -36
 1991 0cbb 06       		.byte	0x6
 1992 0cbc 21       		.uleb128 0x21
 1993 0cbd 01       		.uleb128 0x1
 1994 0cbe 50       		.byte	0x50
 1995 0cbf 03       		.uleb128 0x3
 1996 0cc0 F3       		.byte	0xf3
 1997 0cc1 01       		.uleb128 0x1
 1998 0cc2 50       		.byte	0x50
 1999 0cc3 00       		.byte	0
 2000 0cc4 00       		.byte	0
 2001 0cc5 22       		.uleb128 0x22
 2002 0cc6 44030000 		.4byte	.LASF167
 2003 0cca 02       		.byte	0x2
 2004 0ccb 0C       		.byte	0xc
 2005 0ccc 00000000 		.4byte	.LFB41
 2006 0cd0 6C000000 		.4byte	.LFE41-.LFB41
 2007 0cd4 01       		.uleb128 0x1
 2008 0cd5 9C       		.byte	0x9c
 2009 0cd6 930D0000 		.4byte	0xd93
 2010 0cda 1C       		.uleb128 0x1c
 2011 0cdb 63687000 		.ascii	"chp\000"
 2012 0cdf 02       		.byte	0x2
 2013 0ce0 0C       		.byte	0xc
 2014 0ce1 270C0000 		.4byte	0xc27
 2015 0ce5 21000000 		.4byte	.LLST1
 2016 0ce9 23       		.uleb128 0x23
 2017 0cea 13030000 		.4byte	.LASF164
 2018 0cee 02       		.byte	0x2
 2019 0cef 0C       		.byte	0xc
 2020 0cf0 25000000 		.4byte	0x25
 2021 0cf4 42000000 		.4byte	.LLST2
 2022 0cf8 23       		.uleb128 0x23
 2023 0cf9 22050000 		.4byte	.LASF165
 2024 0cfd 02       		.byte	0x2
 2025 0cfe 0C       		.byte	0xc
 2026 0cff 2D0C0000 		.4byte	0xc2d
 2027 0d03 63000000 		.4byte	.LLST3
 2028 0d07 24       		.uleb128 0x24
 2029 0d08 FE060000 		.4byte	.LASF166
 2030 0d0c 02       		.byte	0x2
 2031 0d0d 0E       		.byte	0xe
 2032 0d0e 930D0000 		.4byte	0xd93
 2033 0d12 05       		.uleb128 0x5
 2034 0d13 03       		.byte	0x3
 2035 0d14 00000000 		.4byte	adcTempArea.5718
 2036 0d18 25       		.uleb128 0x25
 2037 0d19 16000000 		.4byte	.LVL6
 2038 0d1d 660C0000 		.4byte	0xc66
ARM GAS  /var/folders/qh/xwg3v3kj02qbxczjpdb8lzfr0000gn/T//ccRq4Toz.s 			page 37


 2039 0d21 350D0000 		.4byte	0xd35
 2040 0d25 21       		.uleb128 0x21
 2041 0d26 01       		.uleb128 0x1
 2042 0d27 51       		.byte	0x51
 2043 0d28 05       		.uleb128 0x5
 2044 0d29 03       		.byte	0x3
 2045 0d2a 00000000 		.4byte	.LC1
 2046 0d2e 21       		.uleb128 0x21
 2047 0d2f 01       		.uleb128 0x1
 2048 0d30 50       		.byte	0x50
 2049 0d31 02       		.uleb128 0x2
 2050 0d32 74       		.byte	0x74
 2051 0d33 00       		.sleb128 0
 2052 0d34 00       		.byte	0
 2053 0d35 25       		.uleb128 0x25
 2054 0d36 28000000 		.4byte	.LVL7
 2055 0d3a 6B100000 		.4byte	0x106b
 2056 0d3e 5F0D0000 		.4byte	0xd5f
 2057 0d42 21       		.uleb128 0x21
 2058 0d43 01       		.uleb128 0x1
 2059 0d44 52       		.byte	0x52
 2060 0d45 02       		.uleb128 0x2
 2061 0d46 08       		.byte	0x8
 2062 0d47 40       		.byte	0x40
 2063 0d48 21       		.uleb128 0x21
 2064 0d49 01       		.uleb128 0x1
 2065 0d4a 51       		.byte	0x51
 2066 0d4b 03       		.uleb128 0x3
 2067 0d4c 0A       		.byte	0xa
 2068 0d4d 3001     		.2byte	0x130
 2069 0d4f 21       		.uleb128 0x21
 2070 0d50 01       		.uleb128 0x1
 2071 0d51 50       		.byte	0x50
 2072 0d52 05       		.uleb128 0x5
 2073 0d53 03       		.byte	0x3
 2074 0d54 00000000 		.4byte	.LANCHOR0
 2075 0d58 21       		.uleb128 0x21
 2076 0d59 02       		.uleb128 0x2
 2077 0d5a 7D       		.byte	0x7d
 2078 0d5b 00       		.sleb128 0
 2079 0d5c 01       		.uleb128 0x1
 2080 0d5d 30       		.byte	0x30
 2081 0d5e 00       		.byte	0
 2082 0d5f 25       		.uleb128 0x25
 2083 0d60 3A000000 		.4byte	.LVL8
 2084 0d64 660C0000 		.4byte	0xc66
 2085 0d68 790D0000 		.4byte	0xd79
 2086 0d6c 21       		.uleb128 0x21
 2087 0d6d 01       		.uleb128 0x1
 2088 0d6e 51       		.byte	0x51
 2089 0d6f 02       		.uleb128 0x2
 2090 0d70 76       		.byte	0x76
 2091 0d71 00       		.sleb128 0
 2092 0d72 21       		.uleb128 0x21
 2093 0d73 01       		.uleb128 0x1
 2094 0d74 50       		.byte	0x50
 2095 0d75 02       		.uleb128 0x2
ARM GAS  /var/folders/qh/xwg3v3kj02qbxczjpdb8lzfr0000gn/T//ccRq4Toz.s 			page 38


 2096 0d76 74       		.byte	0x74
 2097 0d77 00       		.sleb128 0
 2098 0d78 00       		.byte	0
 2099 0d79 20       		.uleb128 0x20
 2100 0d7a 48000000 		.4byte	.LVL9
 2101 0d7e 660C0000 		.4byte	0xc66
 2102 0d82 21       		.uleb128 0x21
 2103 0d83 01       		.uleb128 0x1
 2104 0d84 51       		.byte	0x51
 2105 0d85 05       		.uleb128 0x5
 2106 0d86 03       		.byte	0x3
 2107 0d87 20000000 		.4byte	.LC6
 2108 0d8b 21       		.uleb128 0x21
 2109 0d8c 01       		.uleb128 0x1
 2110 0d8d 50       		.byte	0x50
 2111 0d8e 02       		.uleb128 0x2
 2112 0d8f 74       		.byte	0x74
 2113 0d90 00       		.sleb128 0
 2114 0d91 00       		.byte	0
 2115 0d92 00       		.byte	0
 2116 0d93 15       		.uleb128 0x15
 2117 0d94 89020000 		.4byte	0x289
 2118 0d98 A30D0000 		.4byte	0xda3
 2119 0d9c 16       		.uleb128 0x16
 2120 0d9d 2A030000 		.4byte	0x32a
 2121 0da1 25       		.byte	0x25
 2122 0da2 00       		.byte	0
 2123 0da3 22       		.uleb128 0x22
 2124 0da4 99070000 		.4byte	.LASF168
 2125 0da8 02       		.byte	0x2
 2126 0da9 19       		.byte	0x19
 2127 0daa 00000000 		.4byte	.LFB42
 2128 0dae 10000000 		.4byte	.LFE42-.LFB42
 2129 0db2 01       		.uleb128 0x1
 2130 0db3 9C       		.byte	0x9c
 2131 0db4 000E0000 		.4byte	0xe00
 2132 0db8 1C       		.uleb128 0x1c
 2133 0db9 63687000 		.ascii	"chp\000"
 2134 0dbd 02       		.byte	0x2
 2135 0dbe 19       		.byte	0x19
 2136 0dbf 270C0000 		.4byte	0xc27
 2137 0dc3 84000000 		.4byte	.LLST4
 2138 0dc7 23       		.uleb128 0x23
 2139 0dc8 13030000 		.4byte	.LASF164
 2140 0dcc 02       		.byte	0x2
 2141 0dcd 19       		.byte	0x19
 2142 0dce 25000000 		.4byte	0x25
 2143 0dd2 A5000000 		.4byte	.LLST5
 2144 0dd6 23       		.uleb128 0x23
 2145 0dd7 22050000 		.4byte	.LASF165
 2146 0ddb 02       		.byte	0x2
 2147 0ddc 19       		.byte	0x19
 2148 0ddd 2D0C0000 		.4byte	0xc2d
 2149 0de1 C6000000 		.4byte	.LLST6
 2150 0de5 20       		.uleb128 0x20
 2151 0de6 08000000 		.4byte	.LVL12
 2152 0dea 660C0000 		.4byte	0xc66
ARM GAS  /var/folders/qh/xwg3v3kj02qbxczjpdb8lzfr0000gn/T//ccRq4Toz.s 			page 39


 2153 0dee 21       		.uleb128 0x21
 2154 0def 01       		.uleb128 0x1
 2155 0df0 51       		.byte	0x51
 2156 0df1 05       		.uleb128 0x5
 2157 0df2 03       		.byte	0x3
 2158 0df3 34000000 		.4byte	.LC10
 2159 0df7 21       		.uleb128 0x21
 2160 0df8 01       		.uleb128 0x1
 2161 0df9 50       		.byte	0x50
 2162 0dfa 03       		.uleb128 0x3
 2163 0dfb F3       		.byte	0xf3
 2164 0dfc 01       		.uleb128 0x1
 2165 0dfd 50       		.byte	0x50
 2166 0dfe 00       		.byte	0
 2167 0dff 00       		.byte	0
 2168 0e00 22       		.uleb128 0x22
 2169 0e01 4A070000 		.4byte	.LASF169
 2170 0e05 02       		.byte	0x2
 2171 0e06 1F       		.byte	0x1f
 2172 0e07 00000000 		.4byte	.LFB43
 2173 0e0b 10000000 		.4byte	.LFE43-.LFB43
 2174 0e0f 01       		.uleb128 0x1
 2175 0e10 9C       		.byte	0x9c
 2176 0e11 5D0E0000 		.4byte	0xe5d
 2177 0e15 1C       		.uleb128 0x1c
 2178 0e16 63687000 		.ascii	"chp\000"
 2179 0e1a 02       		.byte	0x2
 2180 0e1b 1F       		.byte	0x1f
 2181 0e1c 270C0000 		.4byte	0xc27
 2182 0e20 E7000000 		.4byte	.LLST7
 2183 0e24 23       		.uleb128 0x23
 2184 0e25 13030000 		.4byte	.LASF164
 2185 0e29 02       		.byte	0x2
 2186 0e2a 1F       		.byte	0x1f
 2187 0e2b 25000000 		.4byte	0x25
 2188 0e2f 08010000 		.4byte	.LLST8
 2189 0e33 23       		.uleb128 0x23
 2190 0e34 22050000 		.4byte	.LASF165
 2191 0e38 02       		.byte	0x2
 2192 0e39 1F       		.byte	0x1f
 2193 0e3a 2D0C0000 		.4byte	0xc2d
 2194 0e3e 29010000 		.4byte	.LLST9
 2195 0e42 20       		.uleb128 0x20
 2196 0e43 08000000 		.4byte	.LVL15
 2197 0e47 660C0000 		.4byte	0xc66
 2198 0e4b 21       		.uleb128 0x21
 2199 0e4c 01       		.uleb128 0x1
 2200 0e4d 51       		.byte	0x51
 2201 0e4e 05       		.uleb128 0x5
 2202 0e4f 03       		.byte	0x3
 2203 0e50 34000000 		.4byte	.LC10
 2204 0e54 21       		.uleb128 0x21
 2205 0e55 01       		.uleb128 0x1
 2206 0e56 50       		.byte	0x50
 2207 0e57 03       		.uleb128 0x3
 2208 0e58 F3       		.byte	0xf3
 2209 0e59 01       		.uleb128 0x1
ARM GAS  /var/folders/qh/xwg3v3kj02qbxczjpdb8lzfr0000gn/T//ccRq4Toz.s 			page 40


 2210 0e5a 50       		.byte	0x50
 2211 0e5b 00       		.byte	0
 2212 0e5c 00       		.byte	0
 2213 0e5d 22       		.uleb128 0x22
 2214 0e5e CF040000 		.4byte	.LASF170
 2215 0e62 02       		.byte	0x2
 2216 0e63 2C       		.byte	0x2c
 2217 0e64 00000000 		.4byte	.LFB44
 2218 0e68 10000000 		.4byte	.LFE44-.LFB44
 2219 0e6c 01       		.uleb128 0x1
 2220 0e6d 9C       		.byte	0x9c
 2221 0e6e BA0E0000 		.4byte	0xeba
 2222 0e72 1C       		.uleb128 0x1c
 2223 0e73 63687000 		.ascii	"chp\000"
 2224 0e77 02       		.byte	0x2
 2225 0e78 2C       		.byte	0x2c
 2226 0e79 270C0000 		.4byte	0xc27
 2227 0e7d 4A010000 		.4byte	.LLST10
 2228 0e81 23       		.uleb128 0x23
 2229 0e82 13030000 		.4byte	.LASF164
 2230 0e86 02       		.byte	0x2
 2231 0e87 2C       		.byte	0x2c
 2232 0e88 25000000 		.4byte	0x25
 2233 0e8c 6B010000 		.4byte	.LLST11
 2234 0e90 23       		.uleb128 0x23
 2235 0e91 22050000 		.4byte	.LASF165
 2236 0e95 02       		.byte	0x2
 2237 0e96 2C       		.byte	0x2c
 2238 0e97 2D0C0000 		.4byte	0xc2d
 2239 0e9b 8C010000 		.4byte	.LLST12
 2240 0e9f 20       		.uleb128 0x20
 2241 0ea0 08000000 		.4byte	.LVL18
 2242 0ea4 660C0000 		.4byte	0xc66
 2243 0ea8 21       		.uleb128 0x21
 2244 0ea9 01       		.uleb128 0x1
 2245 0eaa 51       		.byte	0x51
 2246 0eab 05       		.uleb128 0x5
 2247 0eac 03       		.byte	0x3
 2248 0ead 34000000 		.4byte	.LC10
 2249 0eb1 21       		.uleb128 0x21
 2250 0eb2 01       		.uleb128 0x1
 2251 0eb3 50       		.byte	0x50
 2252 0eb4 03       		.uleb128 0x3
 2253 0eb5 F3       		.byte	0xf3
 2254 0eb6 01       		.uleb128 0x1
 2255 0eb7 50       		.byte	0x50
 2256 0eb8 00       		.byte	0
 2257 0eb9 00       		.byte	0
 2258 0eba 22       		.uleb128 0x22
 2259 0ebb D0010000 		.4byte	.LASF171
 2260 0ebf 02       		.byte	0x2
 2261 0ec0 32       		.byte	0x32
 2262 0ec1 00000000 		.4byte	.LFB45
 2263 0ec5 10000000 		.4byte	.LFE45-.LFB45
 2264 0ec9 01       		.uleb128 0x1
 2265 0eca 9C       		.byte	0x9c
 2266 0ecb 170F0000 		.4byte	0xf17
ARM GAS  /var/folders/qh/xwg3v3kj02qbxczjpdb8lzfr0000gn/T//ccRq4Toz.s 			page 41


 2267 0ecf 1C       		.uleb128 0x1c
 2268 0ed0 63687000 		.ascii	"chp\000"
 2269 0ed4 02       		.byte	0x2
 2270 0ed5 32       		.byte	0x32
 2271 0ed6 270C0000 		.4byte	0xc27
 2272 0eda AD010000 		.4byte	.LLST13
 2273 0ede 23       		.uleb128 0x23
 2274 0edf 13030000 		.4byte	.LASF164
 2275 0ee3 02       		.byte	0x2
 2276 0ee4 32       		.byte	0x32
 2277 0ee5 25000000 		.4byte	0x25
 2278 0ee9 CE010000 		.4byte	.LLST14
 2279 0eed 23       		.uleb128 0x23
 2280 0eee 22050000 		.4byte	.LASF165
 2281 0ef2 02       		.byte	0x2
 2282 0ef3 32       		.byte	0x32
 2283 0ef4 2D0C0000 		.4byte	0xc2d
 2284 0ef8 EF010000 		.4byte	.LLST15
 2285 0efc 20       		.uleb128 0x20
 2286 0efd 08000000 		.4byte	.LVL21
 2287 0f01 660C0000 		.4byte	0xc66
 2288 0f05 21       		.uleb128 0x21
 2289 0f06 01       		.uleb128 0x1
 2290 0f07 51       		.byte	0x51
 2291 0f08 05       		.uleb128 0x5
 2292 0f09 03       		.byte	0x3
 2293 0f0a 34000000 		.4byte	.LC10
 2294 0f0e 21       		.uleb128 0x21
 2295 0f0f 01       		.uleb128 0x1
 2296 0f10 50       		.byte	0x50
 2297 0f11 03       		.uleb128 0x3
 2298 0f12 F3       		.byte	0xf3
 2299 0f13 01       		.uleb128 0x1
 2300 0f14 50       		.byte	0x50
 2301 0f15 00       		.byte	0
 2302 0f16 00       		.byte	0
 2303 0f17 22       		.uleb128 0x22
 2304 0f18 AC070000 		.4byte	.LASF172
 2305 0f1c 02       		.byte	0x2
 2306 0f1d 38       		.byte	0x38
 2307 0f1e 00000000 		.4byte	.LFB46
 2308 0f22 10000000 		.4byte	.LFE46-.LFB46
 2309 0f26 01       		.uleb128 0x1
 2310 0f27 9C       		.byte	0x9c
 2311 0f28 740F0000 		.4byte	0xf74
 2312 0f2c 1C       		.uleb128 0x1c
 2313 0f2d 63687000 		.ascii	"chp\000"
 2314 0f31 02       		.byte	0x2
 2315 0f32 38       		.byte	0x38
 2316 0f33 270C0000 		.4byte	0xc27
 2317 0f37 10020000 		.4byte	.LLST16
 2318 0f3b 23       		.uleb128 0x23
 2319 0f3c 13030000 		.4byte	.LASF164
 2320 0f40 02       		.byte	0x2
 2321 0f41 38       		.byte	0x38
 2322 0f42 25000000 		.4byte	0x25
 2323 0f46 31020000 		.4byte	.LLST17
ARM GAS  /var/folders/qh/xwg3v3kj02qbxczjpdb8lzfr0000gn/T//ccRq4Toz.s 			page 42


 2324 0f4a 23       		.uleb128 0x23
 2325 0f4b 22050000 		.4byte	.LASF165
 2326 0f4f 02       		.byte	0x2
 2327 0f50 38       		.byte	0x38
 2328 0f51 2D0C0000 		.4byte	0xc2d
 2329 0f55 52020000 		.4byte	.LLST18
 2330 0f59 20       		.uleb128 0x20
 2331 0f5a 08000000 		.4byte	.LVL24
 2332 0f5e 660C0000 		.4byte	0xc66
 2333 0f62 21       		.uleb128 0x21
 2334 0f63 01       		.uleb128 0x1
 2335 0f64 51       		.byte	0x51
 2336 0f65 05       		.uleb128 0x5
 2337 0f66 03       		.byte	0x3
 2338 0f67 34000000 		.4byte	.LC10
 2339 0f6b 21       		.uleb128 0x21
 2340 0f6c 01       		.uleb128 0x1
 2341 0f6d 50       		.byte	0x50
 2342 0f6e 03       		.uleb128 0x3
 2343 0f6f F3       		.byte	0xf3
 2344 0f70 01       		.uleb128 0x1
 2345 0f71 50       		.byte	0x50
 2346 0f72 00       		.byte	0
 2347 0f73 00       		.byte	0
 2348 0f74 22       		.uleb128 0x22
 2349 0f75 84040000 		.4byte	.LASF173
 2350 0f79 02       		.byte	0x2
 2351 0f7a 3E       		.byte	0x3e
 2352 0f7b 00000000 		.4byte	.LFB47
 2353 0f7f 10000000 		.4byte	.LFE47-.LFB47
 2354 0f83 01       		.uleb128 0x1
 2355 0f84 9C       		.byte	0x9c
 2356 0f85 D10F0000 		.4byte	0xfd1
 2357 0f89 1C       		.uleb128 0x1c
 2358 0f8a 63687000 		.ascii	"chp\000"
 2359 0f8e 02       		.byte	0x2
 2360 0f8f 3E       		.byte	0x3e
 2361 0f90 270C0000 		.4byte	0xc27
 2362 0f94 73020000 		.4byte	.LLST19
 2363 0f98 23       		.uleb128 0x23
 2364 0f99 13030000 		.4byte	.LASF164
 2365 0f9d 02       		.byte	0x2
 2366 0f9e 3E       		.byte	0x3e
 2367 0f9f 25000000 		.4byte	0x25
 2368 0fa3 94020000 		.4byte	.LLST20
 2369 0fa7 23       		.uleb128 0x23
 2370 0fa8 22050000 		.4byte	.LASF165
 2371 0fac 02       		.byte	0x2
 2372 0fad 3E       		.byte	0x3e
 2373 0fae 2D0C0000 		.4byte	0xc2d
 2374 0fb2 B5020000 		.4byte	.LLST21
 2375 0fb6 20       		.uleb128 0x20
 2376 0fb7 08000000 		.4byte	.LVL27
 2377 0fbb 660C0000 		.4byte	0xc66
 2378 0fbf 21       		.uleb128 0x21
 2379 0fc0 01       		.uleb128 0x1
 2380 0fc1 51       		.byte	0x51
ARM GAS  /var/folders/qh/xwg3v3kj02qbxczjpdb8lzfr0000gn/T//ccRq4Toz.s 			page 43


 2381 0fc2 05       		.uleb128 0x5
 2382 0fc3 03       		.byte	0x3
 2383 0fc4 34000000 		.4byte	.LC10
 2384 0fc8 21       		.uleb128 0x21
 2385 0fc9 01       		.uleb128 0x1
 2386 0fca 50       		.byte	0x50
 2387 0fcb 03       		.uleb128 0x3
 2388 0fcc F3       		.byte	0xf3
 2389 0fcd 01       		.uleb128 0x1
 2390 0fce 50       		.byte	0x50
 2391 0fcf 00       		.byte	0
 2392 0fd0 00       		.byte	0
 2393 0fd1 22       		.uleb128 0x22
 2394 0fd2 71020000 		.4byte	.LASF174
 2395 0fd6 02       		.byte	0x2
 2396 0fd7 44       		.byte	0x44
 2397 0fd8 00000000 		.4byte	.LFB48
 2398 0fdc 10000000 		.4byte	.LFE48-.LFB48
 2399 0fe0 01       		.uleb128 0x1
 2400 0fe1 9C       		.byte	0x9c
 2401 0fe2 2E100000 		.4byte	0x102e
 2402 0fe6 1C       		.uleb128 0x1c
 2403 0fe7 63687000 		.ascii	"chp\000"
 2404 0feb 02       		.byte	0x2
 2405 0fec 44       		.byte	0x44
 2406 0fed 270C0000 		.4byte	0xc27
 2407 0ff1 D6020000 		.4byte	.LLST22
 2408 0ff5 23       		.uleb128 0x23
 2409 0ff6 13030000 		.4byte	.LASF164
 2410 0ffa 02       		.byte	0x2
 2411 0ffb 44       		.byte	0x44
 2412 0ffc 25000000 		.4byte	0x25
 2413 1000 F7020000 		.4byte	.LLST23
 2414 1004 23       		.uleb128 0x23
 2415 1005 22050000 		.4byte	.LASF165
 2416 1009 02       		.byte	0x2
 2417 100a 44       		.byte	0x44
 2418 100b 2D0C0000 		.4byte	0xc2d
 2419 100f 18030000 		.4byte	.LLST24
 2420 1013 20       		.uleb128 0x20
 2421 1014 08000000 		.4byte	.LVL30
 2422 1018 660C0000 		.4byte	0xc66
 2423 101c 21       		.uleb128 0x21
 2424 101d 01       		.uleb128 0x1
 2425 101e 51       		.byte	0x51
 2426 101f 05       		.uleb128 0x5
 2427 1020 03       		.byte	0x3
 2428 1021 34000000 		.4byte	.LC10
 2429 1025 21       		.uleb128 0x21
 2430 1026 01       		.uleb128 0x1
 2431 1027 50       		.byte	0x50
 2432 1028 03       		.uleb128 0x3
 2433 1029 F3       		.byte	0xf3
 2434 102a 01       		.uleb128 0x1
 2435 102b 50       		.byte	0x50
 2436 102c 00       		.byte	0
 2437 102d 00       		.byte	0
ARM GAS  /var/folders/qh/xwg3v3kj02qbxczjpdb8lzfr0000gn/T//ccRq4Toz.s 			page 44


 2438 102e 26       		.uleb128 0x26
 2439 102f 23040000 		.4byte	.LASF182
 2440 1033 14       		.byte	0x14
 2441 1034 15       		.byte	0x15
 2442 1035 DB0A0000 		.4byte	0xadb
 2443 1039 27       		.uleb128 0x27
 2444 103a 53443100 		.ascii	"SD1\000"
 2445 103e 15       		.byte	0x15
 2446 103f 1101     		.2byte	0x111
 2447 1041 170B0000 		.4byte	0xb17
 2448 1045 28       		.uleb128 0x28
 2449 1046 B8040000 		.4byte	.LASF175
 2450 104a 02       		.byte	0x2
 2451 104b 07       		.byte	0x7
 2452 104c 25000000 		.4byte	0x25
 2453 1050 29       		.uleb128 0x29
 2454 1051 2A000000 		.4byte	.LASF176
 2455 1055 01       		.byte	0x1
 2456 1056 28       		.byte	0x28
 2457 1057 6B100000 		.4byte	0x106b
 2458 105b 10       		.uleb128 0x10
 2459 105c 270C0000 		.4byte	0xc27
 2460 1060 10       		.uleb128 0x10
 2461 1061 1F040000 		.4byte	0x41f
 2462 1065 10       		.uleb128 0x10
 2463 1066 5B0C0000 		.4byte	0xc5b
 2464 106a 00       		.byte	0
 2465 106b 2A       		.uleb128 0x2a
 2466 106c EE040000 		.4byte	.LASF177
 2467 1070 07       		.byte	0x7
 2468 1071 6901     		.2byte	0x169
 2469 1073 4B020000 		.4byte	0x24b
 2470 1077 10       		.uleb128 0x10
 2471 1078 87020000 		.4byte	0x287
 2472 107c 10       		.uleb128 0x10
 2473 107d 2C000000 		.4byte	0x2c
 2474 1081 10       		.uleb128 0x10
 2475 1082 EB000000 		.4byte	0xeb
 2476 1086 10       		.uleb128 0x10
 2477 1087 37040000 		.4byte	0x437
 2478 108b 10       		.uleb128 0x10
 2479 108c 87020000 		.4byte	0x287
 2480 1090 00       		.byte	0
 2481 1091 00       		.byte	0
 2482              		.section	.debug_abbrev,"",%progbits
 2483              	.Ldebug_abbrev0:
 2484 0000 01       		.uleb128 0x1
 2485 0001 11       		.uleb128 0x11
 2486 0002 01       		.byte	0x1
 2487 0003 25       		.uleb128 0x25
 2488 0004 0E       		.uleb128 0xe
 2489 0005 13       		.uleb128 0x13
 2490 0006 0B       		.uleb128 0xb
 2491 0007 03       		.uleb128 0x3
 2492 0008 0E       		.uleb128 0xe
 2493 0009 1B       		.uleb128 0x1b
 2494 000a 0E       		.uleb128 0xe
ARM GAS  /var/folders/qh/xwg3v3kj02qbxczjpdb8lzfr0000gn/T//ccRq4Toz.s 			page 45


 2495 000b 55       		.uleb128 0x55
 2496 000c 17       		.uleb128 0x17
 2497 000d 11       		.uleb128 0x11
 2498 000e 01       		.uleb128 0x1
 2499 000f 10       		.uleb128 0x10
 2500 0010 17       		.uleb128 0x17
 2501 0011 00       		.byte	0
 2502 0012 00       		.byte	0
 2503 0013 02       		.uleb128 0x2
 2504 0014 24       		.uleb128 0x24
 2505 0015 00       		.byte	0
 2506 0016 0B       		.uleb128 0xb
 2507 0017 0B       		.uleb128 0xb
 2508 0018 3E       		.uleb128 0x3e
 2509 0019 0B       		.uleb128 0xb
 2510 001a 03       		.uleb128 0x3
 2511 001b 08       		.uleb128 0x8
 2512 001c 00       		.byte	0
 2513 001d 00       		.byte	0
 2514 001e 03       		.uleb128 0x3
 2515 001f 16       		.uleb128 0x16
 2516 0020 00       		.byte	0
 2517 0021 03       		.uleb128 0x3
 2518 0022 0E       		.uleb128 0xe
 2519 0023 3A       		.uleb128 0x3a
 2520 0024 0B       		.uleb128 0xb
 2521 0025 3B       		.uleb128 0x3b
 2522 0026 0B       		.uleb128 0xb
 2523 0027 49       		.uleb128 0x49
 2524 0028 13       		.uleb128 0x13
 2525 0029 00       		.byte	0
 2526 002a 00       		.byte	0
 2527 002b 04       		.uleb128 0x4
 2528 002c 24       		.uleb128 0x24
 2529 002d 00       		.byte	0
 2530 002e 0B       		.uleb128 0xb
 2531 002f 0B       		.uleb128 0xb
 2532 0030 3E       		.uleb128 0x3e
 2533 0031 0B       		.uleb128 0xb
 2534 0032 03       		.uleb128 0x3
 2535 0033 0E       		.uleb128 0xe
 2536 0034 00       		.byte	0
 2537 0035 00       		.byte	0
 2538 0036 05       		.uleb128 0x5
 2539 0037 13       		.uleb128 0x13
 2540 0038 01       		.byte	0x1
 2541 0039 03       		.uleb128 0x3
 2542 003a 0E       		.uleb128 0xe
 2543 003b 0B       		.uleb128 0xb
 2544 003c 0B       		.uleb128 0xb
 2545 003d 3A       		.uleb128 0x3a
 2546 003e 0B       		.uleb128 0xb
 2547 003f 3B       		.uleb128 0x3b
 2548 0040 0B       		.uleb128 0xb
 2549 0041 01       		.uleb128 0x1
 2550 0042 13       		.uleb128 0x13
 2551 0043 00       		.byte	0
ARM GAS  /var/folders/qh/xwg3v3kj02qbxczjpdb8lzfr0000gn/T//ccRq4Toz.s 			page 46


 2552 0044 00       		.byte	0
 2553 0045 06       		.uleb128 0x6
 2554 0046 0D       		.uleb128 0xd
 2555 0047 00       		.byte	0
 2556 0048 03       		.uleb128 0x3
 2557 0049 0E       		.uleb128 0xe
 2558 004a 3A       		.uleb128 0x3a
 2559 004b 0B       		.uleb128 0xb
 2560 004c 3B       		.uleb128 0x3b
 2561 004d 0B       		.uleb128 0xb
 2562 004e 49       		.uleb128 0x49
 2563 004f 13       		.uleb128 0x13
 2564 0050 38       		.uleb128 0x38
 2565 0051 0B       		.uleb128 0xb
 2566 0052 00       		.byte	0
 2567 0053 00       		.byte	0
 2568 0054 07       		.uleb128 0x7
 2569 0055 0D       		.uleb128 0xd
 2570 0056 00       		.byte	0
 2571 0057 03       		.uleb128 0x3
 2572 0058 08       		.uleb128 0x8
 2573 0059 3A       		.uleb128 0x3a
 2574 005a 0B       		.uleb128 0xb
 2575 005b 3B       		.uleb128 0x3b
 2576 005c 0B       		.uleb128 0xb
 2577 005d 49       		.uleb128 0x49
 2578 005e 13       		.uleb128 0x13
 2579 005f 38       		.uleb128 0x38
 2580 0060 0B       		.uleb128 0xb
 2581 0061 00       		.byte	0
 2582 0062 00       		.byte	0
 2583 0063 08       		.uleb128 0x8
 2584 0064 13       		.uleb128 0x13
 2585 0065 01       		.byte	0x1
 2586 0066 0B       		.uleb128 0xb
 2587 0067 0B       		.uleb128 0xb
 2588 0068 3A       		.uleb128 0x3a
 2589 0069 0B       		.uleb128 0xb
 2590 006a 3B       		.uleb128 0x3b
 2591 006b 0B       		.uleb128 0xb
 2592 006c 01       		.uleb128 0x1
 2593 006d 13       		.uleb128 0x13
 2594 006e 00       		.byte	0
 2595 006f 00       		.byte	0
 2596 0070 09       		.uleb128 0x9
 2597 0071 0F       		.uleb128 0xf
 2598 0072 00       		.byte	0
 2599 0073 0B       		.uleb128 0xb
 2600 0074 0B       		.uleb128 0xb
 2601 0075 49       		.uleb128 0x49
 2602 0076 13       		.uleb128 0x13
 2603 0077 00       		.byte	0
 2604 0078 00       		.byte	0
 2605 0079 0A       		.uleb128 0xa
 2606 007a 0F       		.uleb128 0xf
 2607 007b 00       		.byte	0
 2608 007c 0B       		.uleb128 0xb
ARM GAS  /var/folders/qh/xwg3v3kj02qbxczjpdb8lzfr0000gn/T//ccRq4Toz.s 			page 47


 2609 007d 0B       		.uleb128 0xb
 2610 007e 00       		.byte	0
 2611 007f 00       		.byte	0
 2612 0080 0B       		.uleb128 0xb
 2613 0081 35       		.uleb128 0x35
 2614 0082 00       		.byte	0
 2615 0083 49       		.uleb128 0x49
 2616 0084 13       		.uleb128 0x13
 2617 0085 00       		.byte	0
 2618 0086 00       		.byte	0
 2619 0087 0C       		.uleb128 0xc
 2620 0088 17       		.uleb128 0x17
 2621 0089 01       		.byte	0x1
 2622 008a 0B       		.uleb128 0xb
 2623 008b 0B       		.uleb128 0xb
 2624 008c 3A       		.uleb128 0x3a
 2625 008d 0B       		.uleb128 0xb
 2626 008e 3B       		.uleb128 0x3b
 2627 008f 0B       		.uleb128 0xb
 2628 0090 01       		.uleb128 0x1
 2629 0091 13       		.uleb128 0x13
 2630 0092 00       		.byte	0
 2631 0093 00       		.byte	0
 2632 0094 0D       		.uleb128 0xd
 2633 0095 0D       		.uleb128 0xd
 2634 0096 00       		.byte	0
 2635 0097 03       		.uleb128 0x3
 2636 0098 0E       		.uleb128 0xe
 2637 0099 3A       		.uleb128 0x3a
 2638 009a 0B       		.uleb128 0xb
 2639 009b 3B       		.uleb128 0x3b
 2640 009c 0B       		.uleb128 0xb
 2641 009d 49       		.uleb128 0x49
 2642 009e 13       		.uleb128 0x13
 2643 009f 00       		.byte	0
 2644 00a0 00       		.byte	0
 2645 00a1 0E       		.uleb128 0xe
 2646 00a2 26       		.uleb128 0x26
 2647 00a3 00       		.byte	0
 2648 00a4 49       		.uleb128 0x49
 2649 00a5 13       		.uleb128 0x13
 2650 00a6 00       		.byte	0
 2651 00a7 00       		.byte	0
 2652 00a8 0F       		.uleb128 0xf
 2653 00a9 15       		.uleb128 0x15
 2654 00aa 01       		.byte	0x1
 2655 00ab 27       		.uleb128 0x27
 2656 00ac 19       		.uleb128 0x19
 2657 00ad 49       		.uleb128 0x49
 2658 00ae 13       		.uleb128 0x13
 2659 00af 01       		.uleb128 0x1
 2660 00b0 13       		.uleb128 0x13
 2661 00b1 00       		.byte	0
 2662 00b2 00       		.byte	0
 2663 00b3 10       		.uleb128 0x10
 2664 00b4 05       		.uleb128 0x5
 2665 00b5 00       		.byte	0
ARM GAS  /var/folders/qh/xwg3v3kj02qbxczjpdb8lzfr0000gn/T//ccRq4Toz.s 			page 48


 2666 00b6 49       		.uleb128 0x49
 2667 00b7 13       		.uleb128 0x13
 2668 00b8 00       		.byte	0
 2669 00b9 00       		.byte	0
 2670 00ba 11       		.uleb128 0x11
 2671 00bb 15       		.uleb128 0x15
 2672 00bc 01       		.byte	0x1
 2673 00bd 27       		.uleb128 0x27
 2674 00be 19       		.uleb128 0x19
 2675 00bf 01       		.uleb128 0x1
 2676 00c0 13       		.uleb128 0x13
 2677 00c1 00       		.byte	0
 2678 00c2 00       		.byte	0
 2679 00c3 12       		.uleb128 0x12
 2680 00c4 13       		.uleb128 0x13
 2681 00c5 01       		.byte	0x1
 2682 00c6 0B       		.uleb128 0xb
 2683 00c7 0B       		.uleb128 0xb
 2684 00c8 3A       		.uleb128 0x3a
 2685 00c9 0B       		.uleb128 0xb
 2686 00ca 3B       		.uleb128 0x3b
 2687 00cb 05       		.uleb128 0x5
 2688 00cc 01       		.uleb128 0x1
 2689 00cd 13       		.uleb128 0x13
 2690 00ce 00       		.byte	0
 2691 00cf 00       		.byte	0
 2692 00d0 13       		.uleb128 0x13
 2693 00d1 0D       		.uleb128 0xd
 2694 00d2 00       		.byte	0
 2695 00d3 03       		.uleb128 0x3
 2696 00d4 08       		.uleb128 0x8
 2697 00d5 3A       		.uleb128 0x3a
 2698 00d6 0B       		.uleb128 0xb
 2699 00d7 3B       		.uleb128 0x3b
 2700 00d8 05       		.uleb128 0x5
 2701 00d9 49       		.uleb128 0x49
 2702 00da 13       		.uleb128 0x13
 2703 00db 38       		.uleb128 0x38
 2704 00dc 0B       		.uleb128 0xb
 2705 00dd 00       		.byte	0
 2706 00de 00       		.byte	0
 2707 00df 14       		.uleb128 0x14
 2708 00e0 0D       		.uleb128 0xd
 2709 00e1 00       		.byte	0
 2710 00e2 03       		.uleb128 0x3
 2711 00e3 0E       		.uleb128 0xe
 2712 00e4 3A       		.uleb128 0x3a
 2713 00e5 0B       		.uleb128 0xb
 2714 00e6 3B       		.uleb128 0x3b
 2715 00e7 05       		.uleb128 0x5
 2716 00e8 49       		.uleb128 0x49
 2717 00e9 13       		.uleb128 0x13
 2718 00ea 38       		.uleb128 0x38
 2719 00eb 0B       		.uleb128 0xb
 2720 00ec 00       		.byte	0
 2721 00ed 00       		.byte	0
 2722 00ee 15       		.uleb128 0x15
ARM GAS  /var/folders/qh/xwg3v3kj02qbxczjpdb8lzfr0000gn/T//ccRq4Toz.s 			page 49


 2723 00ef 01       		.uleb128 0x1
 2724 00f0 01       		.byte	0x1
 2725 00f1 49       		.uleb128 0x49
 2726 00f2 13       		.uleb128 0x13
 2727 00f3 01       		.uleb128 0x1
 2728 00f4 13       		.uleb128 0x13
 2729 00f5 00       		.byte	0
 2730 00f6 00       		.byte	0
 2731 00f7 16       		.uleb128 0x16
 2732 00f8 21       		.uleb128 0x21
 2733 00f9 00       		.byte	0
 2734 00fa 49       		.uleb128 0x49
 2735 00fb 13       		.uleb128 0x13
 2736 00fc 2F       		.uleb128 0x2f
 2737 00fd 0B       		.uleb128 0xb
 2738 00fe 00       		.byte	0
 2739 00ff 00       		.byte	0
 2740 0100 17       		.uleb128 0x17
 2741 0101 16       		.uleb128 0x16
 2742 0102 00       		.byte	0
 2743 0103 03       		.uleb128 0x3
 2744 0104 0E       		.uleb128 0xe
 2745 0105 3A       		.uleb128 0x3a
 2746 0106 0B       		.uleb128 0xb
 2747 0107 3B       		.uleb128 0x3b
 2748 0108 05       		.uleb128 0x5
 2749 0109 49       		.uleb128 0x49
 2750 010a 13       		.uleb128 0x13
 2751 010b 00       		.byte	0
 2752 010c 00       		.byte	0
 2753 010d 18       		.uleb128 0x18
 2754 010e 04       		.uleb128 0x4
 2755 010f 01       		.byte	0x1
 2756 0110 0B       		.uleb128 0xb
 2757 0111 0B       		.uleb128 0xb
 2758 0112 3A       		.uleb128 0x3a
 2759 0113 0B       		.uleb128 0xb
 2760 0114 3B       		.uleb128 0x3b
 2761 0115 0B       		.uleb128 0xb
 2762 0116 01       		.uleb128 0x1
 2763 0117 13       		.uleb128 0x13
 2764 0118 00       		.byte	0
 2765 0119 00       		.byte	0
 2766 011a 19       		.uleb128 0x19
 2767 011b 28       		.uleb128 0x28
 2768 011c 00       		.byte	0
 2769 011d 03       		.uleb128 0x3
 2770 011e 0E       		.uleb128 0xe
 2771 011f 1C       		.uleb128 0x1c
 2772 0120 0D       		.uleb128 0xd
 2773 0121 00       		.byte	0
 2774 0122 00       		.byte	0
 2775 0123 1A       		.uleb128 0x1a
 2776 0124 0D       		.uleb128 0xd
 2777 0125 00       		.byte	0
 2778 0126 03       		.uleb128 0x3
 2779 0127 0E       		.uleb128 0xe
ARM GAS  /var/folders/qh/xwg3v3kj02qbxczjpdb8lzfr0000gn/T//ccRq4Toz.s 			page 50


 2780 0128 49       		.uleb128 0x49
 2781 0129 13       		.uleb128 0x13
 2782 012a 38       		.uleb128 0x38
 2783 012b 0B       		.uleb128 0xb
 2784 012c 34       		.uleb128 0x34
 2785 012d 19       		.uleb128 0x19
 2786 012e 00       		.byte	0
 2787 012f 00       		.byte	0
 2788 0130 1B       		.uleb128 0x1b
 2789 0131 2E       		.uleb128 0x2e
 2790 0132 01       		.byte	0x1
 2791 0133 03       		.uleb128 0x3
 2792 0134 0E       		.uleb128 0xe
 2793 0135 3A       		.uleb128 0x3a
 2794 0136 0B       		.uleb128 0xb
 2795 0137 3B       		.uleb128 0x3b
 2796 0138 0B       		.uleb128 0xb
 2797 0139 27       		.uleb128 0x27
 2798 013a 19       		.uleb128 0x19
 2799 013b 11       		.uleb128 0x11
 2800 013c 01       		.uleb128 0x1
 2801 013d 12       		.uleb128 0x12
 2802 013e 06       		.uleb128 0x6
 2803 013f 40       		.uleb128 0x40
 2804 0140 18       		.uleb128 0x18
 2805 0141 9742     		.uleb128 0x2117
 2806 0143 19       		.uleb128 0x19
 2807 0144 01       		.uleb128 0x1
 2808 0145 13       		.uleb128 0x13
 2809 0146 00       		.byte	0
 2810 0147 00       		.byte	0
 2811 0148 1C       		.uleb128 0x1c
 2812 0149 05       		.uleb128 0x5
 2813 014a 00       		.byte	0
 2814 014b 03       		.uleb128 0x3
 2815 014c 08       		.uleb128 0x8
 2816 014d 3A       		.uleb128 0x3a
 2817 014e 0B       		.uleb128 0xb
 2818 014f 3B       		.uleb128 0x3b
 2819 0150 0B       		.uleb128 0xb
 2820 0151 49       		.uleb128 0x49
 2821 0152 13       		.uleb128 0x13
 2822 0153 02       		.uleb128 0x2
 2823 0154 17       		.uleb128 0x17
 2824 0155 00       		.byte	0
 2825 0156 00       		.byte	0
 2826 0157 1D       		.uleb128 0x1d
 2827 0158 05       		.uleb128 0x5
 2828 0159 00       		.byte	0
 2829 015a 03       		.uleb128 0x3
 2830 015b 08       		.uleb128 0x8
 2831 015c 3A       		.uleb128 0x3a
 2832 015d 0B       		.uleb128 0xb
 2833 015e 3B       		.uleb128 0x3b
 2834 015f 0B       		.uleb128 0xb
 2835 0160 49       		.uleb128 0x49
 2836 0161 13       		.uleb128 0x13
ARM GAS  /var/folders/qh/xwg3v3kj02qbxczjpdb8lzfr0000gn/T//ccRq4Toz.s 			page 51


 2837 0162 02       		.uleb128 0x2
 2838 0163 18       		.uleb128 0x18
 2839 0164 00       		.byte	0
 2840 0165 00       		.byte	0
 2841 0166 1E       		.uleb128 0x1e
 2842 0167 18       		.uleb128 0x18
 2843 0168 00       		.byte	0
 2844 0169 00       		.byte	0
 2845 016a 00       		.byte	0
 2846 016b 1F       		.uleb128 0x1f
 2847 016c 34       		.uleb128 0x34
 2848 016d 00       		.byte	0
 2849 016e 03       		.uleb128 0x3
 2850 016f 08       		.uleb128 0x8
 2851 0170 3A       		.uleb128 0x3a
 2852 0171 0B       		.uleb128 0xb
 2853 0172 3B       		.uleb128 0x3b
 2854 0173 0B       		.uleb128 0xb
 2855 0174 49       		.uleb128 0x49
 2856 0175 13       		.uleb128 0x13
 2857 0176 02       		.uleb128 0x2
 2858 0177 18       		.uleb128 0x18
 2859 0178 00       		.byte	0
 2860 0179 00       		.byte	0
 2861 017a 20       		.uleb128 0x20
 2862 017b 898201   		.uleb128 0x4109
 2863 017e 01       		.byte	0x1
 2864 017f 11       		.uleb128 0x11
 2865 0180 01       		.uleb128 0x1
 2866 0181 31       		.uleb128 0x31
 2867 0182 13       		.uleb128 0x13
 2868 0183 00       		.byte	0
 2869 0184 00       		.byte	0
 2870 0185 21       		.uleb128 0x21
 2871 0186 8A8201   		.uleb128 0x410a
 2872 0189 00       		.byte	0
 2873 018a 02       		.uleb128 0x2
 2874 018b 18       		.uleb128 0x18
 2875 018c 9142     		.uleb128 0x2111
 2876 018e 18       		.uleb128 0x18
 2877 018f 00       		.byte	0
 2878 0190 00       		.byte	0
 2879 0191 22       		.uleb128 0x22
 2880 0192 2E       		.uleb128 0x2e
 2881 0193 01       		.byte	0x1
 2882 0194 3F       		.uleb128 0x3f
 2883 0195 19       		.uleb128 0x19
 2884 0196 03       		.uleb128 0x3
 2885 0197 0E       		.uleb128 0xe
 2886 0198 3A       		.uleb128 0x3a
 2887 0199 0B       		.uleb128 0xb
 2888 019a 3B       		.uleb128 0x3b
 2889 019b 0B       		.uleb128 0xb
 2890 019c 27       		.uleb128 0x27
 2891 019d 19       		.uleb128 0x19
 2892 019e 11       		.uleb128 0x11
 2893 019f 01       		.uleb128 0x1
ARM GAS  /var/folders/qh/xwg3v3kj02qbxczjpdb8lzfr0000gn/T//ccRq4Toz.s 			page 52


 2894 01a0 12       		.uleb128 0x12
 2895 01a1 06       		.uleb128 0x6
 2896 01a2 40       		.uleb128 0x40
 2897 01a3 18       		.uleb128 0x18
 2898 01a4 9742     		.uleb128 0x2117
 2899 01a6 19       		.uleb128 0x19
 2900 01a7 01       		.uleb128 0x1
 2901 01a8 13       		.uleb128 0x13
 2902 01a9 00       		.byte	0
 2903 01aa 00       		.byte	0
 2904 01ab 23       		.uleb128 0x23
 2905 01ac 05       		.uleb128 0x5
 2906 01ad 00       		.byte	0
 2907 01ae 03       		.uleb128 0x3
 2908 01af 0E       		.uleb128 0xe
 2909 01b0 3A       		.uleb128 0x3a
 2910 01b1 0B       		.uleb128 0xb
 2911 01b2 3B       		.uleb128 0x3b
 2912 01b3 0B       		.uleb128 0xb
 2913 01b4 49       		.uleb128 0x49
 2914 01b5 13       		.uleb128 0x13
 2915 01b6 02       		.uleb128 0x2
 2916 01b7 17       		.uleb128 0x17
 2917 01b8 00       		.byte	0
 2918 01b9 00       		.byte	0
 2919 01ba 24       		.uleb128 0x24
 2920 01bb 34       		.uleb128 0x34
 2921 01bc 00       		.byte	0
 2922 01bd 03       		.uleb128 0x3
 2923 01be 0E       		.uleb128 0xe
 2924 01bf 3A       		.uleb128 0x3a
 2925 01c0 0B       		.uleb128 0xb
 2926 01c1 3B       		.uleb128 0x3b
 2927 01c2 0B       		.uleb128 0xb
 2928 01c3 49       		.uleb128 0x49
 2929 01c4 13       		.uleb128 0x13
 2930 01c5 02       		.uleb128 0x2
 2931 01c6 18       		.uleb128 0x18
 2932 01c7 00       		.byte	0
 2933 01c8 00       		.byte	0
 2934 01c9 25       		.uleb128 0x25
 2935 01ca 898201   		.uleb128 0x4109
 2936 01cd 01       		.byte	0x1
 2937 01ce 11       		.uleb128 0x11
 2938 01cf 01       		.uleb128 0x1
 2939 01d0 31       		.uleb128 0x31
 2940 01d1 13       		.uleb128 0x13
 2941 01d2 01       		.uleb128 0x1
 2942 01d3 13       		.uleb128 0x13
 2943 01d4 00       		.byte	0
 2944 01d5 00       		.byte	0
 2945 01d6 26       		.uleb128 0x26
 2946 01d7 34       		.uleb128 0x34
 2947 01d8 00       		.byte	0
 2948 01d9 03       		.uleb128 0x3
 2949 01da 0E       		.uleb128 0xe
 2950 01db 3A       		.uleb128 0x3a
ARM GAS  /var/folders/qh/xwg3v3kj02qbxczjpdb8lzfr0000gn/T//ccRq4Toz.s 			page 53


 2951 01dc 0B       		.uleb128 0xb
 2952 01dd 3B       		.uleb128 0x3b
 2953 01de 0B       		.uleb128 0xb
 2954 01df 49       		.uleb128 0x49
 2955 01e0 13       		.uleb128 0x13
 2956 01e1 00       		.byte	0
 2957 01e2 00       		.byte	0
 2958 01e3 27       		.uleb128 0x27
 2959 01e4 34       		.uleb128 0x34
 2960 01e5 00       		.byte	0
 2961 01e6 03       		.uleb128 0x3
 2962 01e7 08       		.uleb128 0x8
 2963 01e8 3A       		.uleb128 0x3a
 2964 01e9 0B       		.uleb128 0xb
 2965 01ea 3B       		.uleb128 0x3b
 2966 01eb 05       		.uleb128 0x5
 2967 01ec 49       		.uleb128 0x49
 2968 01ed 13       		.uleb128 0x13
 2969 01ee 3F       		.uleb128 0x3f
 2970 01ef 19       		.uleb128 0x19
 2971 01f0 3C       		.uleb128 0x3c
 2972 01f1 19       		.uleb128 0x19
 2973 01f2 00       		.byte	0
 2974 01f3 00       		.byte	0
 2975 01f4 28       		.uleb128 0x28
 2976 01f5 34       		.uleb128 0x34
 2977 01f6 00       		.byte	0
 2978 01f7 03       		.uleb128 0x3
 2979 01f8 0E       		.uleb128 0xe
 2980 01f9 3A       		.uleb128 0x3a
 2981 01fa 0B       		.uleb128 0xb
 2982 01fb 3B       		.uleb128 0x3b
 2983 01fc 0B       		.uleb128 0xb
 2984 01fd 49       		.uleb128 0x49
 2985 01fe 13       		.uleb128 0x13
 2986 01ff 3F       		.uleb128 0x3f
 2987 0200 19       		.uleb128 0x19
 2988 0201 3C       		.uleb128 0x3c
 2989 0202 19       		.uleb128 0x19
 2990 0203 00       		.byte	0
 2991 0204 00       		.byte	0
 2992 0205 29       		.uleb128 0x29
 2993 0206 2E       		.uleb128 0x2e
 2994 0207 01       		.byte	0x1
 2995 0208 3F       		.uleb128 0x3f
 2996 0209 19       		.uleb128 0x19
 2997 020a 03       		.uleb128 0x3
 2998 020b 0E       		.uleb128 0xe
 2999 020c 3A       		.uleb128 0x3a
 3000 020d 0B       		.uleb128 0xb
 3001 020e 3B       		.uleb128 0x3b
 3002 020f 0B       		.uleb128 0xb
 3003 0210 27       		.uleb128 0x27
 3004 0211 19       		.uleb128 0x19
 3005 0212 3C       		.uleb128 0x3c
 3006 0213 19       		.uleb128 0x19
 3007 0214 01       		.uleb128 0x1
ARM GAS  /var/folders/qh/xwg3v3kj02qbxczjpdb8lzfr0000gn/T//ccRq4Toz.s 			page 54


 3008 0215 13       		.uleb128 0x13
 3009 0216 00       		.byte	0
 3010 0217 00       		.byte	0
 3011 0218 2A       		.uleb128 0x2a
 3012 0219 2E       		.uleb128 0x2e
 3013 021a 01       		.byte	0x1
 3014 021b 3F       		.uleb128 0x3f
 3015 021c 19       		.uleb128 0x19
 3016 021d 03       		.uleb128 0x3
 3017 021e 0E       		.uleb128 0xe
 3018 021f 3A       		.uleb128 0x3a
 3019 0220 0B       		.uleb128 0xb
 3020 0221 3B       		.uleb128 0x3b
 3021 0222 05       		.uleb128 0x5
 3022 0223 27       		.uleb128 0x27
 3023 0224 19       		.uleb128 0x19
 3024 0225 49       		.uleb128 0x49
 3025 0226 13       		.uleb128 0x13
 3026 0227 3C       		.uleb128 0x3c
 3027 0228 19       		.uleb128 0x19
 3028 0229 00       		.byte	0
 3029 022a 00       		.byte	0
 3030 022b 00       		.byte	0
 3031              		.section	.debug_loc,"",%progbits
 3032              	.Ldebug_loc0:
 3033              	.LLST0:
 3034 0000 00000000 		.4byte	.LVL0
 3035 0004 11000000 		.4byte	.LVL1-1
 3036 0008 0100     		.2byte	0x1
 3037 000a 50       		.byte	0x50
 3038 000b 11000000 		.4byte	.LVL1-1
 3039 000f 1A000000 		.4byte	.LFE40
 3040 0013 0400     		.2byte	0x4
 3041 0015 F3       		.byte	0xf3
 3042 0016 01       		.uleb128 0x1
 3043 0017 50       		.byte	0x50
 3044 0018 9F       		.byte	0x9f
 3045 0019 00000000 		.4byte	0
 3046 001d 00000000 		.4byte	0
 3047              	.LLST1:
 3048 0021 00000000 		.4byte	.LVL2
 3049 0025 10000000 		.4byte	.LVL4
 3050 0029 0100     		.2byte	0x1
 3051 002b 50       		.byte	0x50
 3052 002c 10000000 		.4byte	.LVL4
 3053 0030 6C000000 		.4byte	.LFE41
 3054 0034 0400     		.2byte	0x4
 3055 0036 F3       		.byte	0xf3
 3056 0037 01       		.uleb128 0x1
 3057 0038 50       		.byte	0x50
 3058 0039 9F       		.byte	0x9f
 3059 003a 00000000 		.4byte	0
 3060 003e 00000000 		.4byte	0
 3061              	.LLST2:
 3062 0042 00000000 		.4byte	.LVL2
 3063 0046 12000000 		.4byte	.LVL5
 3064 004a 0100     		.2byte	0x1
ARM GAS  /var/folders/qh/xwg3v3kj02qbxczjpdb8lzfr0000gn/T//ccRq4Toz.s 			page 55


 3065 004c 51       		.byte	0x51
 3066 004d 12000000 		.4byte	.LVL5
 3067 0051 6C000000 		.4byte	.LFE41
 3068 0055 0400     		.2byte	0x4
 3069 0057 F3       		.byte	0xf3
 3070 0058 01       		.uleb128 0x1
 3071 0059 51       		.byte	0x51
 3072 005a 9F       		.byte	0x9f
 3073 005b 00000000 		.4byte	0
 3074 005f 00000000 		.4byte	0
 3075              	.LLST3:
 3076 0063 00000000 		.4byte	.LVL2
 3077 0067 08000000 		.4byte	.LVL3
 3078 006b 0100     		.2byte	0x1
 3079 006d 52       		.byte	0x52
 3080 006e 08000000 		.4byte	.LVL3
 3081 0072 6C000000 		.4byte	.LFE41
 3082 0076 0400     		.2byte	0x4
 3083 0078 F3       		.byte	0xf3
 3084 0079 01       		.uleb128 0x1
 3085 007a 52       		.byte	0x52
 3086 007b 9F       		.byte	0x9f
 3087 007c 00000000 		.4byte	0
 3088 0080 00000000 		.4byte	0
 3089              	.LLST4:
 3090 0084 00000000 		.4byte	.LVL10
 3091 0088 07000000 		.4byte	.LVL12-1
 3092 008c 0100     		.2byte	0x1
 3093 008e 50       		.byte	0x50
 3094 008f 07000000 		.4byte	.LVL12-1
 3095 0093 10000000 		.4byte	.LFE42
 3096 0097 0400     		.2byte	0x4
 3097 0099 F3       		.byte	0xf3
 3098 009a 01       		.uleb128 0x1
 3099 009b 50       		.byte	0x50
 3100 009c 9F       		.byte	0x9f
 3101 009d 00000000 		.4byte	0
 3102 00a1 00000000 		.4byte	0
 3103              	.LLST5:
 3104 00a5 00000000 		.4byte	.LVL10
 3105 00a9 04000000 		.4byte	.LVL11
 3106 00ad 0100     		.2byte	0x1
 3107 00af 51       		.byte	0x51
 3108 00b0 04000000 		.4byte	.LVL11
 3109 00b4 10000000 		.4byte	.LFE42
 3110 00b8 0400     		.2byte	0x4
 3111 00ba F3       		.byte	0xf3
 3112 00bb 01       		.uleb128 0x1
 3113 00bc 51       		.byte	0x51
 3114 00bd 9F       		.byte	0x9f
 3115 00be 00000000 		.4byte	0
 3116 00c2 00000000 		.4byte	0
 3117              	.LLST6:
 3118 00c6 00000000 		.4byte	.LVL10
 3119 00ca 07000000 		.4byte	.LVL12-1
 3120 00ce 0100     		.2byte	0x1
 3121 00d0 52       		.byte	0x52
ARM GAS  /var/folders/qh/xwg3v3kj02qbxczjpdb8lzfr0000gn/T//ccRq4Toz.s 			page 56


 3122 00d1 07000000 		.4byte	.LVL12-1
 3123 00d5 10000000 		.4byte	.LFE42
 3124 00d9 0400     		.2byte	0x4
 3125 00db F3       		.byte	0xf3
 3126 00dc 01       		.uleb128 0x1
 3127 00dd 52       		.byte	0x52
 3128 00de 9F       		.byte	0x9f
 3129 00df 00000000 		.4byte	0
 3130 00e3 00000000 		.4byte	0
 3131              	.LLST7:
 3132 00e7 00000000 		.4byte	.LVL13
 3133 00eb 07000000 		.4byte	.LVL15-1
 3134 00ef 0100     		.2byte	0x1
 3135 00f1 50       		.byte	0x50
 3136 00f2 07000000 		.4byte	.LVL15-1
 3137 00f6 10000000 		.4byte	.LFE43
 3138 00fa 0400     		.2byte	0x4
 3139 00fc F3       		.byte	0xf3
 3140 00fd 01       		.uleb128 0x1
 3141 00fe 50       		.byte	0x50
 3142 00ff 9F       		.byte	0x9f
 3143 0100 00000000 		.4byte	0
 3144 0104 00000000 		.4byte	0
 3145              	.LLST8:
 3146 0108 00000000 		.4byte	.LVL13
 3147 010c 04000000 		.4byte	.LVL14
 3148 0110 0100     		.2byte	0x1
 3149 0112 51       		.byte	0x51
 3150 0113 04000000 		.4byte	.LVL14
 3151 0117 10000000 		.4byte	.LFE43
 3152 011b 0400     		.2byte	0x4
 3153 011d F3       		.byte	0xf3
 3154 011e 01       		.uleb128 0x1
 3155 011f 51       		.byte	0x51
 3156 0120 9F       		.byte	0x9f
 3157 0121 00000000 		.4byte	0
 3158 0125 00000000 		.4byte	0
 3159              	.LLST9:
 3160 0129 00000000 		.4byte	.LVL13
 3161 012d 07000000 		.4byte	.LVL15-1
 3162 0131 0100     		.2byte	0x1
 3163 0133 52       		.byte	0x52
 3164 0134 07000000 		.4byte	.LVL15-1
 3165 0138 10000000 		.4byte	.LFE43
 3166 013c 0400     		.2byte	0x4
 3167 013e F3       		.byte	0xf3
 3168 013f 01       		.uleb128 0x1
 3169 0140 52       		.byte	0x52
 3170 0141 9F       		.byte	0x9f
 3171 0142 00000000 		.4byte	0
 3172 0146 00000000 		.4byte	0
 3173              	.LLST10:
 3174 014a 00000000 		.4byte	.LVL16
 3175 014e 07000000 		.4byte	.LVL18-1
 3176 0152 0100     		.2byte	0x1
 3177 0154 50       		.byte	0x50
 3178 0155 07000000 		.4byte	.LVL18-1
ARM GAS  /var/folders/qh/xwg3v3kj02qbxczjpdb8lzfr0000gn/T//ccRq4Toz.s 			page 57


 3179 0159 10000000 		.4byte	.LFE44
 3180 015d 0400     		.2byte	0x4
 3181 015f F3       		.byte	0xf3
 3182 0160 01       		.uleb128 0x1
 3183 0161 50       		.byte	0x50
 3184 0162 9F       		.byte	0x9f
 3185 0163 00000000 		.4byte	0
 3186 0167 00000000 		.4byte	0
 3187              	.LLST11:
 3188 016b 00000000 		.4byte	.LVL16
 3189 016f 04000000 		.4byte	.LVL17
 3190 0173 0100     		.2byte	0x1
 3191 0175 51       		.byte	0x51
 3192 0176 04000000 		.4byte	.LVL17
 3193 017a 10000000 		.4byte	.LFE44
 3194 017e 0400     		.2byte	0x4
 3195 0180 F3       		.byte	0xf3
 3196 0181 01       		.uleb128 0x1
 3197 0182 51       		.byte	0x51
 3198 0183 9F       		.byte	0x9f
 3199 0184 00000000 		.4byte	0
 3200 0188 00000000 		.4byte	0
 3201              	.LLST12:
 3202 018c 00000000 		.4byte	.LVL16
 3203 0190 07000000 		.4byte	.LVL18-1
 3204 0194 0100     		.2byte	0x1
 3205 0196 52       		.byte	0x52
 3206 0197 07000000 		.4byte	.LVL18-1
 3207 019b 10000000 		.4byte	.LFE44
 3208 019f 0400     		.2byte	0x4
 3209 01a1 F3       		.byte	0xf3
 3210 01a2 01       		.uleb128 0x1
 3211 01a3 52       		.byte	0x52
 3212 01a4 9F       		.byte	0x9f
 3213 01a5 00000000 		.4byte	0
 3214 01a9 00000000 		.4byte	0
 3215              	.LLST13:
 3216 01ad 00000000 		.4byte	.LVL19
 3217 01b1 07000000 		.4byte	.LVL21-1
 3218 01b5 0100     		.2byte	0x1
 3219 01b7 50       		.byte	0x50
 3220 01b8 07000000 		.4byte	.LVL21-1
 3221 01bc 10000000 		.4byte	.LFE45
 3222 01c0 0400     		.2byte	0x4
 3223 01c2 F3       		.byte	0xf3
 3224 01c3 01       		.uleb128 0x1
 3225 01c4 50       		.byte	0x50
 3226 01c5 9F       		.byte	0x9f
 3227 01c6 00000000 		.4byte	0
 3228 01ca 00000000 		.4byte	0
 3229              	.LLST14:
 3230 01ce 00000000 		.4byte	.LVL19
 3231 01d2 04000000 		.4byte	.LVL20
 3232 01d6 0100     		.2byte	0x1
 3233 01d8 51       		.byte	0x51
 3234 01d9 04000000 		.4byte	.LVL20
 3235 01dd 10000000 		.4byte	.LFE45
ARM GAS  /var/folders/qh/xwg3v3kj02qbxczjpdb8lzfr0000gn/T//ccRq4Toz.s 			page 58


 3236 01e1 0400     		.2byte	0x4
 3237 01e3 F3       		.byte	0xf3
 3238 01e4 01       		.uleb128 0x1
 3239 01e5 51       		.byte	0x51
 3240 01e6 9F       		.byte	0x9f
 3241 01e7 00000000 		.4byte	0
 3242 01eb 00000000 		.4byte	0
 3243              	.LLST15:
 3244 01ef 00000000 		.4byte	.LVL19
 3245 01f3 07000000 		.4byte	.LVL21-1
 3246 01f7 0100     		.2byte	0x1
 3247 01f9 52       		.byte	0x52
 3248 01fa 07000000 		.4byte	.LVL21-1
 3249 01fe 10000000 		.4byte	.LFE45
 3250 0202 0400     		.2byte	0x4
 3251 0204 F3       		.byte	0xf3
 3252 0205 01       		.uleb128 0x1
 3253 0206 52       		.byte	0x52
 3254 0207 9F       		.byte	0x9f
 3255 0208 00000000 		.4byte	0
 3256 020c 00000000 		.4byte	0
 3257              	.LLST16:
 3258 0210 00000000 		.4byte	.LVL22
 3259 0214 07000000 		.4byte	.LVL24-1
 3260 0218 0100     		.2byte	0x1
 3261 021a 50       		.byte	0x50
 3262 021b 07000000 		.4byte	.LVL24-1
 3263 021f 10000000 		.4byte	.LFE46
 3264 0223 0400     		.2byte	0x4
 3265 0225 F3       		.byte	0xf3
 3266 0226 01       		.uleb128 0x1
 3267 0227 50       		.byte	0x50
 3268 0228 9F       		.byte	0x9f
 3269 0229 00000000 		.4byte	0
 3270 022d 00000000 		.4byte	0
 3271              	.LLST17:
 3272 0231 00000000 		.4byte	.LVL22
 3273 0235 04000000 		.4byte	.LVL23
 3274 0239 0100     		.2byte	0x1
 3275 023b 51       		.byte	0x51
 3276 023c 04000000 		.4byte	.LVL23
 3277 0240 10000000 		.4byte	.LFE46
 3278 0244 0400     		.2byte	0x4
 3279 0246 F3       		.byte	0xf3
 3280 0247 01       		.uleb128 0x1
 3281 0248 51       		.byte	0x51
 3282 0249 9F       		.byte	0x9f
 3283 024a 00000000 		.4byte	0
 3284 024e 00000000 		.4byte	0
 3285              	.LLST18:
 3286 0252 00000000 		.4byte	.LVL22
 3287 0256 07000000 		.4byte	.LVL24-1
 3288 025a 0100     		.2byte	0x1
 3289 025c 52       		.byte	0x52
 3290 025d 07000000 		.4byte	.LVL24-1
 3291 0261 10000000 		.4byte	.LFE46
 3292 0265 0400     		.2byte	0x4
ARM GAS  /var/folders/qh/xwg3v3kj02qbxczjpdb8lzfr0000gn/T//ccRq4Toz.s 			page 59


 3293 0267 F3       		.byte	0xf3
 3294 0268 01       		.uleb128 0x1
 3295 0269 52       		.byte	0x52
 3296 026a 9F       		.byte	0x9f
 3297 026b 00000000 		.4byte	0
 3298 026f 00000000 		.4byte	0
 3299              	.LLST19:
 3300 0273 00000000 		.4byte	.LVL25
 3301 0277 07000000 		.4byte	.LVL27-1
 3302 027b 0100     		.2byte	0x1
 3303 027d 50       		.byte	0x50
 3304 027e 07000000 		.4byte	.LVL27-1
 3305 0282 10000000 		.4byte	.LFE47
 3306 0286 0400     		.2byte	0x4
 3307 0288 F3       		.byte	0xf3
 3308 0289 01       		.uleb128 0x1
 3309 028a 50       		.byte	0x50
 3310 028b 9F       		.byte	0x9f
 3311 028c 00000000 		.4byte	0
 3312 0290 00000000 		.4byte	0
 3313              	.LLST20:
 3314 0294 00000000 		.4byte	.LVL25
 3315 0298 04000000 		.4byte	.LVL26
 3316 029c 0100     		.2byte	0x1
 3317 029e 51       		.byte	0x51
 3318 029f 04000000 		.4byte	.LVL26
 3319 02a3 10000000 		.4byte	.LFE47
 3320 02a7 0400     		.2byte	0x4
 3321 02a9 F3       		.byte	0xf3
 3322 02aa 01       		.uleb128 0x1
 3323 02ab 51       		.byte	0x51
 3324 02ac 9F       		.byte	0x9f
 3325 02ad 00000000 		.4byte	0
 3326 02b1 00000000 		.4byte	0
 3327              	.LLST21:
 3328 02b5 00000000 		.4byte	.LVL25
 3329 02b9 07000000 		.4byte	.LVL27-1
 3330 02bd 0100     		.2byte	0x1
 3331 02bf 52       		.byte	0x52
 3332 02c0 07000000 		.4byte	.LVL27-1
 3333 02c4 10000000 		.4byte	.LFE47
 3334 02c8 0400     		.2byte	0x4
 3335 02ca F3       		.byte	0xf3
 3336 02cb 01       		.uleb128 0x1
 3337 02cc 52       		.byte	0x52
 3338 02cd 9F       		.byte	0x9f
 3339 02ce 00000000 		.4byte	0
 3340 02d2 00000000 		.4byte	0
 3341              	.LLST22:
 3342 02d6 00000000 		.4byte	.LVL28
 3343 02da 07000000 		.4byte	.LVL30-1
 3344 02de 0100     		.2byte	0x1
 3345 02e0 50       		.byte	0x50
 3346 02e1 07000000 		.4byte	.LVL30-1
 3347 02e5 10000000 		.4byte	.LFE48
 3348 02e9 0400     		.2byte	0x4
 3349 02eb F3       		.byte	0xf3
ARM GAS  /var/folders/qh/xwg3v3kj02qbxczjpdb8lzfr0000gn/T//ccRq4Toz.s 			page 60


 3350 02ec 01       		.uleb128 0x1
 3351 02ed 50       		.byte	0x50
 3352 02ee 9F       		.byte	0x9f
 3353 02ef 00000000 		.4byte	0
 3354 02f3 00000000 		.4byte	0
 3355              	.LLST23:
 3356 02f7 00000000 		.4byte	.LVL28
 3357 02fb 04000000 		.4byte	.LVL29
 3358 02ff 0100     		.2byte	0x1
 3359 0301 51       		.byte	0x51
 3360 0302 04000000 		.4byte	.LVL29
 3361 0306 10000000 		.4byte	.LFE48
 3362 030a 0400     		.2byte	0x4
 3363 030c F3       		.byte	0xf3
 3364 030d 01       		.uleb128 0x1
 3365 030e 51       		.byte	0x51
 3366 030f 9F       		.byte	0x9f
 3367 0310 00000000 		.4byte	0
 3368 0314 00000000 		.4byte	0
 3369              	.LLST24:
 3370 0318 00000000 		.4byte	.LVL28
 3371 031c 07000000 		.4byte	.LVL30-1
 3372 0320 0100     		.2byte	0x1
 3373 0322 52       		.byte	0x52
 3374 0323 07000000 		.4byte	.LVL30-1
 3375 0327 10000000 		.4byte	.LFE48
 3376 032b 0400     		.2byte	0x4
 3377 032d F3       		.byte	0xf3
 3378 032e 01       		.uleb128 0x1
 3379 032f 52       		.byte	0x52
 3380 0330 9F       		.byte	0x9f
 3381 0331 00000000 		.4byte	0
 3382 0335 00000000 		.4byte	0
 3383              		.section	.debug_aranges,"",%progbits
 3384 0000 5C000000 		.4byte	0x5c
 3385 0004 0200     		.2byte	0x2
 3386 0006 00000000 		.4byte	.Ldebug_info0
 3387 000a 04       		.byte	0x4
 3388 000b 00       		.byte	0
 3389 000c 0000     		.2byte	0
 3390 000e 0000     		.2byte	0
 3391 0010 00000000 		.4byte	.LFB40
 3392 0014 1A000000 		.4byte	.LFE40-.LFB40
 3393 0018 00000000 		.4byte	.LFB41
 3394 001c 6C000000 		.4byte	.LFE41-.LFB41
 3395 0020 00000000 		.4byte	.LFB42
 3396 0024 10000000 		.4byte	.LFE42-.LFB42
 3397 0028 00000000 		.4byte	.LFB43
 3398 002c 10000000 		.4byte	.LFE43-.LFB43
 3399 0030 00000000 		.4byte	.LFB44
 3400 0034 10000000 		.4byte	.LFE44-.LFB44
 3401 0038 00000000 		.4byte	.LFB45
 3402 003c 10000000 		.4byte	.LFE45-.LFB45
 3403 0040 00000000 		.4byte	.LFB46
 3404 0044 10000000 		.4byte	.LFE46-.LFB46
 3405 0048 00000000 		.4byte	.LFB47
 3406 004c 10000000 		.4byte	.LFE47-.LFB47
ARM GAS  /var/folders/qh/xwg3v3kj02qbxczjpdb8lzfr0000gn/T//ccRq4Toz.s 			page 61


 3407 0050 00000000 		.4byte	.LFB48
 3408 0054 10000000 		.4byte	.LFE48-.LFB48
 3409 0058 00000000 		.4byte	0
 3410 005c 00000000 		.4byte	0
 3411              		.section	.debug_ranges,"",%progbits
 3412              	.Ldebug_ranges0:
 3413 0000 00000000 		.4byte	.LFB40
 3414 0004 1A000000 		.4byte	.LFE40
 3415 0008 00000000 		.4byte	.LFB41
 3416 000c 6C000000 		.4byte	.LFE41
 3417 0010 00000000 		.4byte	.LFB42
 3418 0014 10000000 		.4byte	.LFE42
 3419 0018 00000000 		.4byte	.LFB43
 3420 001c 10000000 		.4byte	.LFE43
 3421 0020 00000000 		.4byte	.LFB44
 3422 0024 10000000 		.4byte	.LFE44
 3423 0028 00000000 		.4byte	.LFB45
 3424 002c 10000000 		.4byte	.LFE45
 3425 0030 00000000 		.4byte	.LFB46
 3426 0034 10000000 		.4byte	.LFE46
 3427 0038 00000000 		.4byte	.LFB47
 3428 003c 10000000 		.4byte	.LFE47
 3429 0040 00000000 		.4byte	.LFB48
 3430 0044 10000000 		.4byte	.LFE48
 3431 0048 00000000 		.4byte	0
 3432 004c 00000000 		.4byte	0
 3433              		.section	.debug_line,"",%progbits
 3434              	.Ldebug_line0:
 3435 0000 1D030000 		.section	.debug_str,"MS",%progbits,1
 3435      02005F02 
 3435      00000201 
 3435      FB0E0D00 
 3435      01010101 
 3436              	.LASF47:
 3437 0000 54687265 		.ascii	"ThreadsList\000"
 3437      6164734C 
 3437      69737400 
 3438              	.LASF39:
 3439 000c 705F7761 		.ascii	"p_waiting\000"
 3439      6974696E 
 3439      6700
 3440              	.LASF149:
 3441 0016 53657269 		.ascii	"SerialDriver\000"
 3441      616C4472 
 3441      69766572 
 3441      00
 3442              	.LASF38:
 3443 0023 705F7469 		.ascii	"p_time\000"
 3443      6D6500
 3444              	.LASF176:
 3445 002a 63687670 		.ascii	"chvprintf\000"
 3445      72696E74 
 3445      6600
 3446              	.LASF48:
 3447 0034 72656761 		.ascii	"regarm_t\000"
 3447      726D5F74 
 3447      00
ARM GAS  /var/folders/qh/xwg3v3kj02qbxczjpdb8lzfr0000gn/T//ccRq4Toz.s 			page 62


 3448              	.LASF29:
 3449 003d 705F7072 		.ascii	"p_prio\000"
 3449      696F00
 3450              	.LASF132:
 3451 0044 646D616D 		.ascii	"dmamode\000"
 3451      6F646500 
 3452              	.LASF25:
 3453 004c 73797374 		.ascii	"systime_t\000"
 3453      696D655F 
 3453      7400
 3454              	.LASF55:
 3455 0056 6D5F6F77 		.ascii	"m_owner\000"
 3455      6E657200 
 3456              	.LASF40:
 3457 005e 705F6D73 		.ascii	"p_msgqueue\000"
 3457      67717565 
 3457      756500
 3458              	.LASF122:
 3459 0069 61646365 		.ascii	"adcerror_t\000"
 3459      72726F72 
 3459      5F7400
 3460              	.LASF0:
 3461 0074 756E7369 		.ascii	"unsigned int\000"
 3461      676E6564 
 3461      20696E74 
 3461      00
 3462              	.LASF76:
 3463 0081 715F7264 		.ascii	"q_rdptr\000"
 3463      70747200 
 3464              	.LASF79:
 3465 0089 716E6F74 		.ascii	"qnotify_t\000"
 3465      6966795F 
 3465      7400
 3466              	.LASF60:
 3467 0093 656C5F6D 		.ascii	"el_mask\000"
 3467      61736B00 
 3468              	.LASF82:
 3469 009b 42617365 		.ascii	"BaseSequentialStreamVMT\000"
 3469      53657175 
 3469      656E7469 
 3469      616C5374 
 3469      7265616D 
 3470              	.LASF143:
 3471 00b3 64756D6D 		.ascii	"dummy\000"
 3471      7900
 3472              	.LASF98:
 3473 00b9 434D4152 		.ascii	"CMAR\000"
 3473      00
 3474              	.LASF179:
 3475 00be 636D642E 		.ascii	"cmd.c\000"
 3475      6300
 3476              	.LASF138:
 3477 00c4 6572726F 		.ascii	"error_cb\000"
 3477      725F6362 
 3477      00
 3478              	.LASF66:
 3479 00cd 77746F62 		.ascii	"wtobjp\000"
ARM GAS  /var/folders/qh/xwg3v3kj02qbxczjpdb8lzfr0000gn/T//ccRq4Toz.s 			page 63


 3479      6A7000
 3480              	.LASF78:
 3481 00d4 715F6C69 		.ascii	"q_link\000"
 3481      6E6B00
 3482              	.LASF99:
 3483 00db 444D415F 		.ascii	"DMA_Channel_TypeDef\000"
 3483      4368616E 
 3483      6E656C5F 
 3483      54797065 
 3483      44656600 
 3484              	.LASF178:
 3485 00ef 474E5520 		.ascii	"GNU C 4.8.3 20131129 (release) [ARM/embedded-4_8-br"
 3485      4320342E 
 3485      382E3320 
 3485      32303133 
 3485      31313239 
 3486 0122 616E6368 		.ascii	"anch revision 205641] -mcpu=cortex-m0 -mno-thumb-in"
 3486      20726576 
 3486      6973696F 
 3486      6E203230 
 3486      35363431 
 3487 0155 74657277 		.ascii	"terwork -mthumb -ggdb -O2 -fomit-frame-pointer -fal"
 3487      6F726B20 
 3487      2D6D7468 
 3487      756D6220 
 3487      2D676764 
 3488 0188 69676E2D 		.ascii	"ign-functions=16 -ffunction-sections -fdata-section"
 3488      66756E63 
 3488      74696F6E 
 3488      733D3136 
 3488      202D6666 
 3489 01bb 73202D66 		.ascii	"s -fno-common\000"
 3489      6E6F2D63 
 3489      6F6D6D6F 
 3489      6E00
 3490              	.LASF67:
 3491 01c9 65776D61 		.ascii	"ewmask\000"
 3491      736B00
 3492              	.LASF171:
 3493 01d0 636D6450 		.ascii	"cmdPwm\000"
 3493      776D00
 3494              	.LASF158:
 3495 01d7 77726974 		.ascii	"writet\000"
 3495      657400
 3496              	.LASF96:
 3497 01de 434E4454 		.ascii	"CNDTR\000"
 3497      5200
 3498              	.LASF100:
 3499 01e4 47545052 		.ascii	"GTPR\000"
 3499      00
 3500              	.LASF151:
 3501 01e9 69717565 		.ascii	"iqueue\000"
 3501      756500
 3502              	.LASF10:
 3503 01f0 75696E74 		.ascii	"uint32_t\000"
 3503      33325F74 
 3503      00
ARM GAS  /var/folders/qh/xwg3v3kj02qbxczjpdb8lzfr0000gn/T//ccRq4Toz.s 			page 64


 3504              	.LASF134:
 3505 01f9 61646365 		.ascii	"adcerrorcallback_t\000"
 3505      72726F72 
 3505      63616C6C 
 3505      6261636B 
 3505      5F7400
 3506              	.LASF23:
 3507 020c 6576656E 		.ascii	"eventmask_t\000"
 3507      746D6173 
 3507      6B5F7400 
 3508              	.LASF105:
 3509 0218 69666372 		.ascii	"ifcr\000"
 3509      00
 3510              	.LASF130:
 3511 021d 6D757465 		.ascii	"mutex\000"
 3511      7800
 3512              	.LASF148:
 3513 0223 73647374 		.ascii	"sdstate_t\000"
 3513      6174655F 
 3513      7400
 3514              	.LASF150:
 3515 022d 6576656E 		.ascii	"event\000"
 3515      7400
 3516              	.LASF21:
 3517 0233 74707269 		.ascii	"tprio_t\000"
 3517      6F5F7400 
 3518              	.LASF137:
 3519 023b 656E645F 		.ascii	"end_cb\000"
 3519      636200
 3520              	.LASF69:
 3521 0242 7466756E 		.ascii	"tfunc_t\000"
 3521      635F7400 
 3522              	.LASF135:
 3523 024a 63697263 		.ascii	"circular\000"
 3523      756C6172 
 3523      00
 3524              	.LASF14:
 3525 0253 6C6F6E67 		.ascii	"long long unsigned int\000"
 3525      206C6F6E 
 3525      6720756E 
 3525      7369676E 
 3525      65642069 
 3526              	.LASF108:
 3527 026a 76656374 		.ascii	"vector\000"
 3527      6F7200
 3528              	.LASF174:
 3529 0271 636D6442 		.ascii	"cmdBluetooth\000"
 3529      6C756574 
 3529      6F6F7468 
 3529      00
 3530              	.LASF92:
 3531 027e 43485345 		.ascii	"CHSELR\000"
 3531      4C5200
 3532              	.LASF31:
 3533 0285 705F6E65 		.ascii	"p_newer\000"
 3533      77657200 
 3534              	.LASF71:
ARM GAS  /var/folders/qh/xwg3v3kj02qbxczjpdb8lzfr0000gn/T//ccRq4Toz.s 			page 65


 3535 028d 715F7761 		.ascii	"q_waiting\000"
 3535      6974696E 
 3535      6700
 3536              	.LASF97:
 3537 0297 43504152 		.ascii	"CPAR\000"
 3537      00
 3538              	.LASF160:
 3539 029c 5F5F676E 		.ascii	"__gnuc_va_list\000"
 3539      75635F76 
 3539      615F6C69 
 3539      737400
 3540              	.LASF156:
 3541 02ab 70757474 		.ascii	"putt\000"
 3541      00
 3542              	.LASF180:
 3543 02b0 2F557365 		.ascii	"/Users/John/Development/embedded/ChibiOS-RT/BluC/ST"
 3543      72732F4A 
 3543      6F686E2F 
 3543      44657665 
 3543      6C6F706D 
 3544 02e3 4D333246 		.ascii	"M32F051\000"
 3544      30353100 
 3545              	.LASF2:
 3546 02eb 73697A65 		.ascii	"size_t\000"
 3546      5F7400
 3547              	.LASF64:
 3548 02f2 7264796D 		.ascii	"rdymsg\000"
 3548      736700
 3549              	.LASF88:
 3550 02f9 534D5052 		.ascii	"SMPR\000"
 3550      00
 3551              	.LASF15:
 3552 02fe 626F6F6C 		.ascii	"bool_t\000"
 3552      5F7400
 3553              	.LASF16:
 3554 0305 5F426F6F 		.ascii	"_Bool\000"
 3554      6C00
 3555              	.LASF146:
 3556 030b 53445F53 		.ascii	"SD_STOP\000"
 3556      544F5000 
 3557              	.LASF164:
 3558 0313 61726763 		.ascii	"argc\000"
 3558      00
 3559              	.LASF121:
 3560 0318 4144435F 		.ascii	"ADC_ERR_AWD\000"
 3560      4552525F 
 3560      41574400 
 3561              	.LASF103:
 3562 0324 55534152 		.ascii	"USART_TypeDef\000"
 3562      545F5479 
 3562      70654465 
 3562      6600
 3563              	.LASF53:
 3564 0332 4D757465 		.ascii	"Mutex\000"
 3564      7800
 3565              	.LASF81:
 3566 0338 4F757470 		.ascii	"OutputQueue\000"
ARM GAS  /var/folders/qh/xwg3v3kj02qbxczjpdb8lzfr0000gn/T//ccRq4Toz.s 			page 66


 3566      75745175 
 3566      65756500 
 3567              	.LASF167:
 3568 0344 636D6447 		.ascii	"cmdGetTemp\000"
 3568      65745465 
 3568      6D7000
 3569              	.LASF77:
 3570 034f 715F6E6F 		.ascii	"q_notify\000"
 3570      74696679 
 3570      00
 3571              	.LASF131:
 3572 0358 646D6173 		.ascii	"dmastp\000"
 3572      747000
 3573              	.LASF181:
 3574 035f 63687072 		.ascii	"chprintf\000"
 3574      696E7466 
 3574      00
 3575              	.LASF114:
 3576 0368 4144435F 		.ascii	"ADC_COMPLETE\000"
 3576      434F4D50 
 3576      4C455445 
 3576      00
 3577              	.LASF154:
 3578 0375 636C6F63 		.ascii	"clock\000"
 3578      6B00
 3579              	.LASF115:
 3580 037b 4144435F 		.ascii	"ADC_ERROR\000"
 3580      4552524F 
 3580      5200
 3581              	.LASF123:
 3582 0385 41444344 		.ascii	"ADCDriver\000"
 3582      72697665 
 3582      7200
 3583              	.LASF33:
 3584 038f 705F6E61 		.ascii	"p_name\000"
 3584      6D6500
 3585              	.LASF85:
 3586 0396 42617365 		.ascii	"BaseSequentialStream\000"
 3586      53657175 
 3586      656E7469 
 3586      616C5374 
 3586      7265616D 
 3587              	.LASF80:
 3588 03ab 496E7075 		.ascii	"InputQueue\000"
 3588      74517565 
 3588      756500
 3589              	.LASF46:
 3590 03b6 54687265 		.ascii	"ThreadsQueue\000"
 3590      61647351 
 3590      75657565 
 3590      00
 3591              	.LASF68:
 3592 03c3 63686172 		.ascii	"char\000"
 3592      00
 3593              	.LASF75:
 3594 03c8 715F7772 		.ascii	"q_wrptr\000"
 3594      70747200 
ARM GAS  /var/folders/qh/xwg3v3kj02qbxczjpdb8lzfr0000gn/T//ccRq4Toz.s 			page 67


 3595              	.LASF106:
 3596 03d0 69736869 		.ascii	"ishift\000"
 3596      667400
 3597              	.LASF26:
 3598 03d7 54687265 		.ascii	"Thread\000"
 3598      616400
 3599              	.LASF18:
 3600 03de 74737461 		.ascii	"tstate_t\000"
 3600      74655F74 
 3600      00
 3601              	.LASF109:
 3602 03e7 73746D33 		.ascii	"stm32_dma_stream_t\000"
 3602      325F646D 
 3602      615F7374 
 3602      7265616D 
 3602      5F7400
 3603              	.LASF32:
 3604 03fa 705F6F6C 		.ascii	"p_older\000"
 3604      64657200 
 3605              	.LASF34:
 3606 0402 705F7374 		.ascii	"p_state\000"
 3606      61746500 
 3607              	.LASF3:
 3608 040a 75696E74 		.ascii	"uint8_t\000"
 3608      385F7400 
 3609              	.LASF24:
 3610 0412 666C6167 		.ascii	"flagsmask_t\000"
 3610      736D6173 
 3610      6B5F7400 
 3611              	.LASF101:
 3612 041e 52544F52 		.ascii	"RTOR\000"
 3612      00
 3613              	.LASF182:
 3614 0423 61646367 		.ascii	"adcgrpcfg1\000"
 3614      72706366 
 3614      673100
 3615              	.LASF45:
 3616 042e 705F6D70 		.ascii	"p_mpool\000"
 3616      6F6F6C00 
 3617              	.LASF43:
 3618 0436 705F6D74 		.ascii	"p_mtxlist\000"
 3618      786C6973 
 3618      7400
 3619              	.LASF153:
 3620 0440 75736172 		.ascii	"usart\000"
 3620      7400
 3621              	.LASF163:
 3622 0446 76615F6C 		.ascii	"va_list\000"
 3622      69737400 
 3623              	.LASF126:
 3624 044e 73616D70 		.ascii	"samples\000"
 3624      6C657300 
 3625              	.LASF12:
 3626 0456 6C6F6E67 		.ascii	"long long int\000"
 3626      206C6F6E 
 3626      6720696E 
 3626      7400
ARM GAS  /var/folders/qh/xwg3v3kj02qbxczjpdb8lzfr0000gn/T//ccRq4Toz.s 			page 68


 3627              	.LASF83:
 3628 0464 77726974 		.ascii	"write\000"
 3628      6500
 3629              	.LASF73:
 3630 046a 715F6275 		.ascii	"q_buffer\000"
 3630      66666572 
 3630      00
 3631              	.LASF140:
 3632 0473 736D7072 		.ascii	"smpr\000"
 3632      00
 3633              	.LASF127:
 3634 0478 64657074 		.ascii	"depth\000"
 3634      6800
 3635              	.LASF22:
 3636 047e 6D73675F 		.ascii	"msg_t\000"
 3636      7400
 3637              	.LASF173:
 3638 0484 636D6453 		.ascii	"cmdSpi\000"
 3638      706900
 3639              	.LASF51:
 3640 048b 636F6E74 		.ascii	"context\000"
 3640      65787400 
 3641              	.LASF144:
 3642 0493 41444343 		.ascii	"ADCConfig\000"
 3642      6F6E6669 
 3642      6700
 3643              	.LASF133:
 3644 049d 61646363 		.ascii	"adccallback_t\000"
 3644      616C6C62 
 3644      61636B5F 
 3644      7400
 3645              	.LASF35:
 3646 04ab 705F666C 		.ascii	"p_flags\000"
 3646      61677300 
 3647              	.LASF162:
 3648 04b3 5F5F6170 		.ascii	"__ap\000"
 3648      00
 3649              	.LASF175:
 3650 04b8 61646344 		.ascii	"adcDataReady\000"
 3650      61746152 
 3650      65616479 
 3650      00
 3651              	.LASF20:
 3652 04c5 74736C69 		.ascii	"tslices_t\000"
 3652      6365735F 
 3652      7400
 3653              	.LASF170:
 3654 04cf 636D6441 		.ascii	"cmdAdc\000"
 3654      646300
 3655              	.LASF86:
 3656 04d6 43464752 		.ascii	"CFGR1\000"
 3656      3100
 3657              	.LASF87:
 3658 04dc 43464752 		.ascii	"CFGR2\000"
 3658      3200
 3659              	.LASF62:
 3660 04e2 4576656E 		.ascii	"EventSource\000"
ARM GAS  /var/folders/qh/xwg3v3kj02qbxczjpdb8lzfr0000gn/T//ccRq4Toz.s 			page 69


 3660      74536F75 
 3660      72636500 
 3661              	.LASF177:
 3662 04ee 63685468 		.ascii	"chThdCreateStatic\000"
 3662      64437265 
 3662      61746553 
 3662      74617469 
 3662      6300
 3663              	.LASF58:
 3664 0500 656C5F6E 		.ascii	"el_next\000"
 3664      65787400 
 3665              	.LASF41:
 3666 0508 705F6D73 		.ascii	"p_msg\000"
 3666      6700
 3667              	.LASF17:
 3668 050e 746D6F64 		.ascii	"tmode_t\000"
 3668      655F7400 
 3669              	.LASF117:
 3670 0516 61646373 		.ascii	"adcsample_t\000"
 3670      616D706C 
 3670      655F7400 
 3671              	.LASF165:
 3672 0522 61726776 		.ascii	"argv\000"
 3672      00
 3673              	.LASF70:
 3674 0527 47656E65 		.ascii	"GenericQueue\000"
 3674      72696351 
 3674      75657565 
 3674      00
 3675              	.LASF152:
 3676 0534 6F717565 		.ascii	"oqueue\000"
 3676      756500
 3677              	.LASF6:
 3678 053b 75696E74 		.ascii	"uint16_t\000"
 3678      31365F74 
 3678      00
 3679              	.LASF50:
 3680 0544 696E7463 		.ascii	"intctx\000"
 3680      747800
 3681              	.LASF120:
 3682 054b 4144435F 		.ascii	"ADC_ERR_OVERFLOW\000"
 3682      4552525F 
 3682      4F564552 
 3682      464C4F57 
 3682      00
 3683              	.LASF104:
 3684 055c 6368616E 		.ascii	"channel\000"
 3684      6E656C00 
 3685              	.LASF113:
 3686 0564 4144435F 		.ascii	"ADC_ACTIVE\000"
 3686      41435449 
 3686      564500
 3687              	.LASF147:
 3688 056f 53445F52 		.ascii	"SD_READY\000"
 3688      45414459 
 3688      00
 3689              	.LASF155:
ARM GAS  /var/folders/qh/xwg3v3kj02qbxczjpdb8lzfr0000gn/T//ccRq4Toz.s 			page 70


 3690 0578 53657269 		.ascii	"SerialDriverVMT\000"
 3690      616C4472 
 3690      69766572 
 3690      564D5400 
 3691              	.LASF125:
 3692 0588 636F6E66 		.ascii	"config\000"
 3692      696700
 3693              	.LASF44:
 3694 058f 705F7265 		.ascii	"p_realprio\000"
 3694      616C7072 
 3694      696F00
 3695              	.LASF89:
 3696 059a 52455345 		.ascii	"RESERVED1\000"
 3696      52564544 
 3696      3100
 3697              	.LASF90:
 3698 05a4 52455345 		.ascii	"RESERVED2\000"
 3698      52564544 
 3698      3200
 3699              	.LASF91:
 3700 05ae 52455345 		.ascii	"RESERVED3\000"
 3700      52564544 
 3700      3300
 3701              	.LASF93:
 3702 05b8 52455345 		.ascii	"RESERVED4\000"
 3702      52564544 
 3702      3400
 3703              	.LASF102:
 3704 05c2 52455345 		.ascii	"RESERVED5\000"
 3704      52564544 
 3704      3500
 3705              	.LASF5:
 3706 05cc 73686F72 		.ascii	"short int\000"
 3706      7420696E 
 3706      7400
 3707              	.LASF95:
 3708 05d6 4144435F 		.ascii	"ADC_Common_TypeDef\000"
 3708      436F6D6D 
 3708      6F6E5F54 
 3708      79706544 
 3708      656600
 3709              	.LASF118:
 3710 05e9 6164635F 		.ascii	"adc_channels_num_t\000"
 3710      6368616E 
 3710      6E656C73 
 3710      5F6E756D 
 3710      5F7400
 3711              	.LASF139:
 3712 05fc 63666772 		.ascii	"cfgr1\000"
 3712      3100
 3713              	.LASF42:
 3714 0602 705F6570 		.ascii	"p_epending\000"
 3714      656E6469 
 3714      6E6700
 3715              	.LASF54:
 3716 060d 6D5F7175 		.ascii	"m_queue\000"
 3716      65756500 
ARM GAS  /var/folders/qh/xwg3v3kj02qbxczjpdb8lzfr0000gn/T//ccRq4Toz.s 			page 71


 3717              	.LASF9:
 3718 0615 6C6F6E67 		.ascii	"long int\000"
 3718      20696E74 
 3718      00
 3719              	.LASF142:
 3720 061e 41444343 		.ascii	"ADCConversionGroup\000"
 3720      6F6E7665 
 3720      7273696F 
 3720      6E47726F 
 3720      757000
 3721              	.LASF136:
 3722 0631 6E756D5F 		.ascii	"num_channels\000"
 3722      6368616E 
 3722      6E656C73 
 3722      00
 3723              	.LASF27:
 3724 063e 705F6E65 		.ascii	"p_next\000"
 3724      787400
 3725              	.LASF13:
 3726 0645 75696E74 		.ascii	"uint64_t\000"
 3726      36345F74 
 3726      00
 3727              	.LASF30:
 3728 064e 705F6374 		.ascii	"p_ctx\000"
 3728      7800
 3729              	.LASF110:
 3730 0654 4144435F 		.ascii	"ADC_UNINIT\000"
 3730      554E494E 
 3730      495400
 3731              	.LASF84:
 3732 065f 72656164 		.ascii	"read\000"
 3732      00
 3733              	.LASF59:
 3734 0664 656C5F6C 		.ascii	"el_listener\000"
 3734      69737465 
 3734      6E657200 
 3735              	.LASF145:
 3736 0670 53445F55 		.ascii	"SD_UNINIT\000"
 3736      4E494E49 
 3736      5400
 3737              	.LASF119:
 3738 067a 4144435F 		.ascii	"ADC_ERR_DMAFAILURE\000"
 3738      4552525F 
 3738      444D4146 
 3738      41494C55 
 3738      524500
 3739              	.LASF72:
 3740 068d 715F636F 		.ascii	"q_counter\000"
 3740      756E7465 
 3740      7200
 3741              	.LASF157:
 3742 0697 67657474 		.ascii	"gett\000"
 3742      00
 3743              	.LASF74:
 3744 069c 715F746F 		.ascii	"q_top\000"
 3744      7000
 3745              	.LASF28:
ARM GAS  /var/folders/qh/xwg3v3kj02qbxczjpdb8lzfr0000gn/T//ccRq4Toz.s 			page 72


 3746 06a2 705F7072 		.ascii	"p_prev\000"
 3746      657600
 3747              	.LASF52:
 3748 06a9 73697A65 		.ascii	"sizetype\000"
 3748      74797065 
 3748      00
 3749              	.LASF19:
 3750 06b2 74726566 		.ascii	"trefs_t\000"
 3750      735F7400 
 3751              	.LASF57:
 3752 06ba 4576656E 		.ascii	"EventListener\000"
 3752      744C6973 
 3752      74656E65 
 3752      7200
 3753              	.LASF11:
 3754 06c8 6C6F6E67 		.ascii	"long unsigned int\000"
 3754      20756E73 
 3754      69676E65 
 3754      6420696E 
 3754      7400
 3755              	.LASF112:
 3756 06da 4144435F 		.ascii	"ADC_READY\000"
 3756      52454144 
 3756      5900
 3757              	.LASF141:
 3758 06e4 63687365 		.ascii	"chselr\000"
 3758      6C7200
 3759              	.LASF116:
 3760 06eb 61646373 		.ascii	"adcstate_t\000"
 3760      74617465 
 3760      5F7400
 3761              	.LASF8:
 3762 06f6 696E7433 		.ascii	"int32_t\000"
 3762      325F7400 
 3763              	.LASF166:
 3764 06fe 61646354 		.ascii	"adcTempArea\000"
 3764      656D7041 
 3764      72656100 
 3765              	.LASF129:
 3766 070a 74687265 		.ascii	"thread\000"
 3766      616400
 3767              	.LASF4:
 3768 0711 756E7369 		.ascii	"unsigned char\000"
 3768      676E6564 
 3768      20636861 
 3768      7200
 3769              	.LASF36:
 3770 071f 705F7265 		.ascii	"p_refs\000"
 3770      667300
 3771              	.LASF37:
 3772 0726 705F7072 		.ascii	"p_preempt\000"
 3772      65656D70 
 3772      7400
 3773              	.LASF63:
 3774 0730 65735F6E 		.ascii	"es_next\000"
 3774      65787400 
 3775              	.LASF124:
ARM GAS  /var/folders/qh/xwg3v3kj02qbxczjpdb8lzfr0000gn/T//ccRq4Toz.s 			page 73


 3776 0738 73746174 		.ascii	"state\000"
 3776      6500
 3777              	.LASF94:
 3778 073e 4144435F 		.ascii	"ADC_TypeDef\000"
 3778      54797065 
 3778      44656600 
 3779              	.LASF169:
 3780 074a 636D6447 		.ascii	"cmdGetBattery\000"
 3780      65744261 
 3780      74746572 
 3780      7900
 3781              	.LASF161:
 3782 0758 5F5F7661 		.ascii	"__va_list\000"
 3782      5F6C6973 
 3782      7400
 3783              	.LASF56:
 3784 0762 6D5F6E65 		.ascii	"m_next\000"
 3784      787400
 3785              	.LASF1:
 3786 0769 7369676E 		.ascii	"signed char\000"
 3786      65642063 
 3786      68617200 
 3787              	.LASF159:
 3788 0775 72656164 		.ascii	"readt\000"
 3788      7400
 3789              	.LASF7:
 3790 077b 73686F72 		.ascii	"short unsigned int\000"
 3790      7420756E 
 3790      7369676E 
 3790      65642069 
 3790      6E7400
 3791              	.LASF49:
 3792 078e 73746B61 		.ascii	"stkalign_t\000"
 3792      6C69676E 
 3792      5F7400
 3793              	.LASF168:
 3794 0799 636D6447 		.ascii	"cmdGetVoltage\000"
 3794      6574566F 
 3794      6C746167 
 3794      6500
 3795              	.LASF128:
 3796 07a7 67727070 		.ascii	"grpp\000"
 3796      00
 3797              	.LASF172:
 3798 07ac 636D6455 		.ascii	"cmdUart\000"
 3798      61727400 
 3799              	.LASF111:
 3800 07b4 4144435F 		.ascii	"ADC_STOP\000"
 3800      53544F50 
 3800      00
 3801              	.LASF61:
 3802 07bd 656C5F66 		.ascii	"el_flags\000"
 3802      6C616773 
 3802      00
 3803              	.LASF65:
 3804 07c6 65786974 		.ascii	"exitcode\000"
 3804      636F6465 
ARM GAS  /var/folders/qh/xwg3v3kj02qbxczjpdb8lzfr0000gn/T//ccRq4Toz.s 			page 74


 3804      00
 3805              	.LASF107:
 3806 07cf 73656C66 		.ascii	"selfindex\000"
 3806      696E6465 
 3806      7800
 3807              		.ident	"GCC: (GNU Tools for ARM Embedded Processors) 4.8.3 20131129 (release) [ARM/embedded-4_8-br
ARM GAS  /var/folders/qh/xwg3v3kj02qbxczjpdb8lzfr0000gn/T//ccRq4Toz.s 			page 75


DEFINED SYMBOLS
                            *ABS*:0000000000000000 cmd.c
/var/folders/qh/xwg3v3kj02qbxczjpdb8lzfr0000gn/T//ccRq4Toz.s:18     .text.chprintf:0000000000000000 $t
/var/folders/qh/xwg3v3kj02qbxczjpdb8lzfr0000gn/T//ccRq4Toz.s:23     .text.chprintf:0000000000000000 chprintf
/var/folders/qh/xwg3v3kj02qbxczjpdb8lzfr0000gn/T//ccRq4Toz.s:56     .text.cmdGetTemp:0000000000000000 $t
/var/folders/qh/xwg3v3kj02qbxczjpdb8lzfr0000gn/T//ccRq4Toz.s:62     .text.cmdGetTemp:0000000000000000 cmdGetTemp
/var/folders/qh/xwg3v3kj02qbxczjpdb8lzfr0000gn/T//ccRq4Toz.s:133    .text.cmdGetTemp:000000000000004c $d
/var/folders/qh/xwg3v3kj02qbxczjpdb8lzfr0000gn/T//ccRq4Toz.s:145    .text.cmdGetVoltage:0000000000000000 $t
/var/folders/qh/xwg3v3kj02qbxczjpdb8lzfr0000gn/T//ccRq4Toz.s:151    .text.cmdGetVoltage:0000000000000000 cmdGetVoltage
/var/folders/qh/xwg3v3kj02qbxczjpdb8lzfr0000gn/T//ccRq4Toz.s:171    .text.cmdGetVoltage:000000000000000c $d
/var/folders/qh/xwg3v3kj02qbxczjpdb8lzfr0000gn/T//ccRq4Toz.s:176    .text.cmdGetBattery:0000000000000000 $t
/var/folders/qh/xwg3v3kj02qbxczjpdb8lzfr0000gn/T//ccRq4Toz.s:182    .text.cmdGetBattery:0000000000000000 cmdGetBattery
/var/folders/qh/xwg3v3kj02qbxczjpdb8lzfr0000gn/T//ccRq4Toz.s:202    .text.cmdGetBattery:000000000000000c $d
/var/folders/qh/xwg3v3kj02qbxczjpdb8lzfr0000gn/T//ccRq4Toz.s:207    .text.cmdAdc:0000000000000000 $t
/var/folders/qh/xwg3v3kj02qbxczjpdb8lzfr0000gn/T//ccRq4Toz.s:213    .text.cmdAdc:0000000000000000 cmdAdc
/var/folders/qh/xwg3v3kj02qbxczjpdb8lzfr0000gn/T//ccRq4Toz.s:233    .text.cmdAdc:000000000000000c $d
/var/folders/qh/xwg3v3kj02qbxczjpdb8lzfr0000gn/T//ccRq4Toz.s:238    .text.cmdPwm:0000000000000000 $t
/var/folders/qh/xwg3v3kj02qbxczjpdb8lzfr0000gn/T//ccRq4Toz.s:244    .text.cmdPwm:0000000000000000 cmdPwm
/var/folders/qh/xwg3v3kj02qbxczjpdb8lzfr0000gn/T//ccRq4Toz.s:264    .text.cmdPwm:000000000000000c $d
/var/folders/qh/xwg3v3kj02qbxczjpdb8lzfr0000gn/T//ccRq4Toz.s:269    .text.cmdUart:0000000000000000 $t
/var/folders/qh/xwg3v3kj02qbxczjpdb8lzfr0000gn/T//ccRq4Toz.s:275    .text.cmdUart:0000000000000000 cmdUart
/var/folders/qh/xwg3v3kj02qbxczjpdb8lzfr0000gn/T//ccRq4Toz.s:295    .text.cmdUart:000000000000000c $d
/var/folders/qh/xwg3v3kj02qbxczjpdb8lzfr0000gn/T//ccRq4Toz.s:300    .text.cmdSpi:0000000000000000 $t
/var/folders/qh/xwg3v3kj02qbxczjpdb8lzfr0000gn/T//ccRq4Toz.s:306    .text.cmdSpi:0000000000000000 cmdSpi
/var/folders/qh/xwg3v3kj02qbxczjpdb8lzfr0000gn/T//ccRq4Toz.s:326    .text.cmdSpi:000000000000000c $d
/var/folders/qh/xwg3v3kj02qbxczjpdb8lzfr0000gn/T//ccRq4Toz.s:331    .text.cmdBluetooth:0000000000000000 $t
/var/folders/qh/xwg3v3kj02qbxczjpdb8lzfr0000gn/T//ccRq4Toz.s:337    .text.cmdBluetooth:0000000000000000 cmdBluetooth
/var/folders/qh/xwg3v3kj02qbxczjpdb8lzfr0000gn/T//ccRq4Toz.s:357    .text.cmdBluetooth:000000000000000c $d
/var/folders/qh/xwg3v3kj02qbxczjpdb8lzfr0000gn/T//ccRq4Toz.s:362    .bss.adcTempArea.5718:0000000000000000 $d
/var/folders/qh/xwg3v3kj02qbxczjpdb8lzfr0000gn/T//ccRq4Toz.s:366    .bss.adcTempArea.5718:0000000000000000 adcTempArea.5718
/var/folders/qh/xwg3v3kj02qbxczjpdb8lzfr0000gn/T//ccRq4Toz.s:369    .rodata.str1.4:0000000000000000 $d
                     .debug_frame:0000000000000010 $d
/var/folders/qh/xwg3v3kj02qbxczjpdb8lzfr0000gn/T//ccRq4Toz.s:144    .text.cmdGetTemp:000000000000006c $t

UNDEFINED SYMBOLS
chvprintf
chThdCreateStatic
SD1
adcConversionThread
adcDataReady
