ARM GAS  /var/folders/qh/xwg3v3kj02qbxczjpdb8lzfr0000gn/T//ccxFafFa.s 			page 1


   1              		.cpu cortex-m0
   2              		.fpu softvfp
   3              		.eabi_attribute 20, 1
   4              		.eabi_attribute 21, 1
   5              		.eabi_attribute 23, 3
   6              		.eabi_attribute 24, 1
   7              		.eabi_attribute 25, 1
   8              		.eabi_attribute 26, 1
   9              		.eabi_attribute 30, 2
  10              		.eabi_attribute 34, 0
  11              		.eabi_attribute 18, 4
  12              		.code	16
  13              		.file	"cmd.c"
  14              		.text
  15              	.Ltext0:
  16              		.cfi_sections	.debug_frame
  17              		.section	.text.chprintf,"ax",%progbits
  18              		.align	2
  19              		.p2align 4,,15
  20              		.code	16
  21              		.thumb_func
  22              		.type	chprintf, %function
  23              	chprintf:
  24              	.LFB40:
  25              		.file 1 "../../os/various/chprintf.h"
  26              		.loc 1 69 0
  27              		.cfi_startproc
  28              	.LVL0:
  29 0000 0EB4     		push	{r1, r2, r3}
  30              		.cfi_def_cfa_offset 12
  31 0002 00B5     		push	{lr}
  32              		.cfi_def_cfa_offset 16
  33              		.cfi_offset 14, -16
  34 0004 82B0     		sub	sp, sp, #8
  35              		.cfi_def_cfa_offset 24
  36              		.loc 1 69 0
  37 0006 03AA     		add	r2, sp, #12
  38 0008 08CA     		ldmia	r2!, {r3}
  39              		.loc 1 73 0
  40 000a 191C     		mov	r1, r3
  41              		.loc 1 72 0
  42 000c 0192     		str	r2, [sp, #4]
  43              		.loc 1 73 0
  44 000e FFF7FEFF 		bl	chvprintf
  45              	.LVL1:
  46              		.loc 1 75 0
  47 0012 02B0     		add	sp, sp, #8
  48              		@ sp needed
  49 0014 08BC     		pop	{r3}
  50 0016 03B0     		add	sp, sp, #12
  51 0018 1847     		bx	r3
  52              		.cfi_endproc
  53              	.LFE40:
  54              		.size	chprintf, .-chprintf
  55 001a C046C046 		.section	.text.cmdGetTemp,"ax",%progbits
  55      C046
  56              		.align	2
ARM GAS  /var/folders/qh/xwg3v3kj02qbxczjpdb8lzfr0000gn/T//ccxFafFa.s 			page 2


  57              		.p2align 4,,15
  58              		.global	cmdGetTemp
  59              		.code	16
  60              		.thumb_func
  61              		.type	cmdGetTemp, %function
  62              	cmdGetTemp:
  63              	.LFB41:
  64              		.file 2 "cmd.c"
  65              		.loc 2 14 0
  66              		.cfi_startproc
  67              	.LVL2:
  68 0000 F0B5     		push	{r4, r5, r6, r7, lr}
  69              		.cfi_def_cfa_offset 20
  70              		.cfi_offset 4, -20
  71              		.cfi_offset 5, -16
  72              		.cfi_offset 6, -12
  73              		.cfi_offset 7, -8
  74              		.cfi_offset 14, -4
  75              		.loc 2 16 0
  76 0002 174B     		ldr	r3, .L8+8
  77              		.loc 2 17 0
  78 0004 174D     		ldr	r5, .L8+12
  79              		.loc 2 16 0
  80 0006 E022     		mov	r2, #224
  81              	.LVL3:
  82 0008 5204     		lsl	r2, r2, #17
  83              		.loc 2 14 0
  84 000a 83B0     		sub	sp, sp, #12
  85              		.cfi_def_cfa_offset 32
  86              		.loc 2 16 0
  87 000c 1A60     		str	r2, [r3]
  88              		.loc 2 17 0
  89 000e 1649     		ldr	r1, .L8+16
  90              	.LVL4:
  91              		.loc 2 14 0
  92 0010 071C     		mov	r7, r0
  93              		.loc 2 17 0
  94 0012 281C     		mov	r0, r5
  95              	.LVL5:
  96 0014 FFF7FEFF 		bl	chprintf
  97              	.LVL6:
  98              		.loc 2 18 0
  99 0018 0023     		mov	r3, #0
 100 001a 9821     		mov	r1, #152
 101 001c 0093     		str	r3, [sp]
 102 001e 1348     		ldr	r0, .L8+20
 103 0020 134B     		ldr	r3, .L8+24
 104 0022 4900     		lsl	r1, r1, #1
 105 0024 4022     		mov	r2, #64
 106 0026 FFF7FEFF 		bl	chThdCreateStatic
 107              	.LVL7:
 108              		.loc 2 19 0
 109 002a 124C     		ldr	r4, .L8+28
 110 002c 2368     		ldr	r3, [r4]
 111 002e 002B     		cmp	r3, #0
 112 0030 07D1     		bne	.L4
 113 0032 114E     		ldr	r6, .L8+32
ARM GAS  /var/folders/qh/xwg3v3kj02qbxczjpdb8lzfr0000gn/T//ccxFafFa.s 			page 3


 114              	.L5:
 115              		.loc 2 21 0
 116 0034 281C     		mov	r0, r5
 117 0036 311C     		mov	r1, r6
 118 0038 FFF7FEFF 		bl	chprintf
 119              	.LVL8:
 120              		.loc 2 19 0
 121 003c 2368     		ldr	r3, [r4]
 122 003e 002B     		cmp	r3, #0
 123 0040 F8D0     		beq	.L5
 124              	.L4:
 125              	.LVL9:
 126              		.loc 2 25 0
 127 0042 381C     		mov	r0, r7
 128 0044 0D49     		ldr	r1, .L8+36
 129 0046 054B     		ldr	r3, .L8+4
 130 0048 034A     		ldr	r2, .L8
 131 004a FFF7FEFF 		bl	chprintf
 132              	.LVL10:
 133              		.loc 2 26 0
 134 004e 03B0     		add	sp, sp, #12
 135              		@ sp needed
 136              	.LVL11:
 137 0050 F0BD     		pop	{r4, r5, r6, r7, pc}
 138              	.L9:
 139 0052 C046C046 		.align	3
 139      C046
 140              	.L8:
 141 0058 000000E0 		.word	3758096384
 142 005c 7A142940 		.word	1076434042
 143 0060 08270140 		.word	1073817352
 144 0064 00000000 		.word	SD1
 145 0068 00000000 		.word	.LC1
 146 006c 00000000 		.word	.LANCHOR0
 147 0070 00000000 		.word	adcConversionThread
 148 0074 00000000 		.word	adcDataReady
 149 0078 34000000 		.word	.LC8
 150 007c 20000000 		.word	.LC6
 151              		.cfi_endproc
 152              	.LFE41:
 153              		.size	cmdGetTemp, .-cmdGetTemp
 154              		.section	.text.cmdGetVoltage,"ax",%progbits
 155              		.align	2
 156              		.p2align 4,,15
 157              		.global	cmdGetVoltage
 158              		.code	16
 159              		.thumb_func
 160              		.type	cmdGetVoltage, %function
 161              	cmdGetVoltage:
 162              	.LFB42:
 163              		.loc 2 29 0
 164              		.cfi_startproc
 165              	.LVL12:
 166 0000 08B5     		push	{r3, lr}
 167              		.cfi_def_cfa_offset 8
 168              		.cfi_offset 3, -8
 169              		.cfi_offset 14, -4
ARM GAS  /var/folders/qh/xwg3v3kj02qbxczjpdb8lzfr0000gn/T//ccxFafFa.s 			page 4


 170              		.loc 2 40 0
 171 0002 0249     		ldr	r1, .L11
 172              	.LVL13:
 173 0004 FFF7FEFF 		bl	chprintf
 174              	.LVL14:
 175              		.loc 2 42 0
 176              		@ sp needed
 177 0008 08BD     		pop	{r3, pc}
 178              	.L12:
 179 000a C046     		.align	2
 180              	.L11:
 181 000c 3C000000 		.word	.LC10
 182              		.cfi_endproc
 183              	.LFE42:
 184              		.size	cmdGetVoltage, .-cmdGetVoltage
 185              		.section	.text.cmdGetBattery,"ax",%progbits
 186              		.align	2
 187              		.p2align 4,,15
 188              		.global	cmdGetBattery
 189              		.code	16
 190              		.thumb_func
 191              		.type	cmdGetBattery, %function
 192              	cmdGetBattery:
 193              	.LFB43:
 194              		.loc 2 45 0
 195              		.cfi_startproc
 196              	.LVL15:
 197 0000 08B5     		push	{r3, lr}
 198              		.cfi_def_cfa_offset 8
 199              		.cfi_offset 3, -8
 200              		.cfi_offset 14, -4
 201              		.loc 2 57 0
 202 0002 0249     		ldr	r1, .L14
 203              	.LVL16:
 204 0004 FFF7FEFF 		bl	chprintf
 205              	.LVL17:
 206              		.loc 2 59 0
 207              		@ sp needed
 208 0008 08BD     		pop	{r3, pc}
 209              	.L15:
 210 000a C046     		.align	2
 211              	.L14:
 212 000c 3C000000 		.word	.LC10
 213              		.cfi_endproc
 214              	.LFE43:
 215              		.size	cmdGetBattery, .-cmdGetBattery
 216              		.section	.text.cmdAdc,"ax",%progbits
 217              		.align	2
 218              		.p2align 4,,15
 219              		.global	cmdAdc
 220              		.code	16
 221              		.thumb_func
 222              		.type	cmdAdc, %function
 223              	cmdAdc:
 224              	.LFB44:
 225              		.loc 2 69 0
 226              		.cfi_startproc
ARM GAS  /var/folders/qh/xwg3v3kj02qbxczjpdb8lzfr0000gn/T//ccxFafFa.s 			page 5


 227              	.LVL18:
 228 0000 08B5     		push	{r3, lr}
 229              		.cfi_def_cfa_offset 8
 230              		.cfi_offset 3, -8
 231              		.cfi_offset 14, -4
 232              		.loc 2 80 0
 233 0002 0249     		ldr	r1, .L17
 234              	.LVL19:
 235 0004 FFF7FEFF 		bl	chprintf
 236              	.LVL20:
 237              		.loc 2 82 0
 238              		@ sp needed
 239 0008 08BD     		pop	{r3, pc}
 240              	.L18:
 241 000a C046     		.align	2
 242              	.L17:
 243 000c 3C000000 		.word	.LC10
 244              		.cfi_endproc
 245              	.LFE44:
 246              		.size	cmdAdc, .-cmdAdc
 247              		.section	.text.cmdDac,"ax",%progbits
 248              		.align	2
 249              		.p2align 4,,15
 250              		.global	cmdDac
 251              		.code	16
 252              		.thumb_func
 253              		.type	cmdDac, %function
 254              	cmdDac:
 255              	.LFB45:
 256              		.loc 2 85 0
 257              		.cfi_startproc
 258              	.LVL21:
 259 0000 08B5     		push	{r3, lr}
 260              		.cfi_def_cfa_offset 8
 261              		.cfi_offset 3, -8
 262              		.cfi_offset 14, -4
 263              		.loc 2 100 0
 264 0002 0249     		ldr	r1, .L20
 265              	.LVL22:
 266 0004 FFF7FEFF 		bl	chprintf
 267              	.LVL23:
 268              		.loc 2 102 0
 269              		@ sp needed
 270 0008 08BD     		pop	{r3, pc}
 271              	.L21:
 272 000a C046     		.align	2
 273              	.L20:
 274 000c 3C000000 		.word	.LC10
 275              		.cfi_endproc
 276              	.LFE45:
 277              		.size	cmdDac, .-cmdDac
 278              		.section	.text.cmdUart,"ax",%progbits
 279              		.align	2
 280              		.p2align 4,,15
 281              		.global	cmdUart
 282              		.code	16
 283              		.thumb_func
ARM GAS  /var/folders/qh/xwg3v3kj02qbxczjpdb8lzfr0000gn/T//ccxFafFa.s 			page 6


 284              		.type	cmdUart, %function
 285              	cmdUart:
 286              	.LFB46:
 287              		.loc 2 105 0
 288              		.cfi_startproc
 289              	.LVL24:
 290 0000 08B5     		push	{r3, lr}
 291              		.cfi_def_cfa_offset 8
 292              		.cfi_offset 3, -8
 293              		.cfi_offset 14, -4
 294              		.loc 2 113 0
 295 0002 0249     		ldr	r1, .L23
 296              	.LVL25:
 297 0004 FFF7FEFF 		bl	chprintf
 298              	.LVL26:
 299              		.loc 2 115 0
 300              		@ sp needed
 301 0008 08BD     		pop	{r3, pc}
 302              	.L24:
 303 000a C046     		.align	2
 304              	.L23:
 305 000c 3C000000 		.word	.LC10
 306              		.cfi_endproc
 307              	.LFE46:
 308              		.size	cmdUart, .-cmdUart
 309              		.section	.text.cmdSpi,"ax",%progbits
 310              		.align	2
 311              		.p2align 4,,15
 312              		.global	cmdSpi
 313              		.code	16
 314              		.thumb_func
 315              		.type	cmdSpi, %function
 316              	cmdSpi:
 317              	.LFB47:
 318              		.loc 2 118 0
 319              		.cfi_startproc
 320              	.LVL27:
 321 0000 08B5     		push	{r3, lr}
 322              		.cfi_def_cfa_offset 8
 323              		.cfi_offset 3, -8
 324              		.cfi_offset 14, -4
 325              		.loc 2 119 0
 326 0002 0249     		ldr	r1, .L26
 327              	.LVL28:
 328 0004 FFF7FEFF 		bl	chprintf
 329              	.LVL29:
 330              		.loc 2 121 0
 331              		@ sp needed
 332 0008 08BD     		pop	{r3, pc}
 333              	.L27:
 334 000a C046     		.align	2
 335              	.L26:
 336 000c 3C000000 		.word	.LC10
 337              		.cfi_endproc
 338              	.LFE47:
 339              		.size	cmdSpi, .-cmdSpi
 340              		.section	.text.cmdBluetooth,"ax",%progbits
ARM GAS  /var/folders/qh/xwg3v3kj02qbxczjpdb8lzfr0000gn/T//ccxFafFa.s 			page 7


 341              		.align	2
 342              		.p2align 4,,15
 343              		.global	cmdBluetooth
 344              		.code	16
 345              		.thumb_func
 346              		.type	cmdBluetooth, %function
 347              	cmdBluetooth:
 348              	.LFB48:
 349              		.loc 2 124 0
 350              		.cfi_startproc
 351              	.LVL30:
 352 0000 08B5     		push	{r3, lr}
 353              		.cfi_def_cfa_offset 8
 354              		.cfi_offset 3, -8
 355              		.cfi_offset 14, -4
 356              		.loc 2 131 0
 357 0002 0249     		ldr	r1, .L29
 358              	.LVL31:
 359 0004 FFF7FEFF 		bl	chprintf
 360              	.LVL32:
 361              		.loc 2 133 0
 362              		@ sp needed
 363 0008 08BD     		pop	{r3, pc}
 364              	.L30:
 365 000a C046     		.align	2
 366              	.L29:
 367 000c 3C000000 		.word	.LC10
 368              		.cfi_endproc
 369              	.LFE48:
 370              		.size	cmdBluetooth, .-cmdBluetooth
 371              		.section	.text.cmdI2c,"ax",%progbits
 372              		.align	2
 373              		.p2align 4,,15
 374              		.global	cmdI2c
 375              		.code	16
 376              		.thumb_func
 377              		.type	cmdI2c, %function
 378              	cmdI2c:
 379              	.LFB49:
 380              		.loc 2 138 0
 381              		.cfi_startproc
 382              	.LVL33:
 383 0000 08B5     		push	{r3, lr}
 384              		.cfi_def_cfa_offset 8
 385              		.cfi_offset 3, -8
 386              		.cfi_offset 14, -4
 387              		.loc 2 139 0
 388 0002 0249     		ldr	r1, .L32
 389              	.LVL34:
 390 0004 FFF7FEFF 		bl	chprintf
 391              	.LVL35:
 392              		.loc 2 141 0
 393              		@ sp needed
 394 0008 08BD     		pop	{r3, pc}
 395              	.L33:
 396 000a C046     		.align	2
 397              	.L32:
ARM GAS  /var/folders/qh/xwg3v3kj02qbxczjpdb8lzfr0000gn/T//ccxFafFa.s 			page 8


 398 000c 3C000000 		.word	.LC10
 399              		.cfi_endproc
 400              	.LFE49:
 401              		.size	cmdI2c, .-cmdI2c
 402              		.section	.text.cmdPwm,"ax",%progbits
 403              		.align	2
 404              		.p2align 4,,15
 405              		.global	cmdPwm
 406              		.code	16
 407              		.thumb_func
 408              		.type	cmdPwm, %function
 409              	cmdPwm:
 410              	.LFB50:
 411              		.loc 2 145 0
 412              		.cfi_startproc
 413              	.LVL36:
 414 0000 08B5     		push	{r3, lr}
 415              		.cfi_def_cfa_offset 8
 416              		.cfi_offset 3, -8
 417              		.cfi_offset 14, -4
 418              		.loc 2 146 0
 419 0002 0249     		ldr	r1, .L35
 420              	.LVL37:
 421 0004 FFF7FEFF 		bl	chprintf
 422              	.LVL38:
 423              		.loc 2 148 0
 424              		@ sp needed
 425 0008 08BD     		pop	{r3, pc}
 426              	.L36:
 427 000a C046     		.align	2
 428              	.L35:
 429 000c 3C000000 		.word	.LC10
 430              		.cfi_endproc
 431              	.LFE50:
 432              		.size	cmdPwm, .-cmdPwm
 433              		.section	.text.cmdDate,"ax",%progbits
 434              		.align	2
 435              		.p2align 4,,15
 436              		.global	cmdDate
 437              		.code	16
 438              		.thumb_func
 439              		.type	cmdDate, %function
 440              	cmdDate:
 441              	.LFB51:
 442              		.loc 2 151 0
 443              		.cfi_startproc
 444              	.LVL39:
 445 0000 08B5     		push	{r3, lr}
 446              		.cfi_def_cfa_offset 8
 447              		.cfi_offset 3, -8
 448              		.cfi_offset 14, -4
 449              		.loc 2 159 0
 450 0002 0249     		ldr	r1, .L38
 451              	.LVL40:
 452 0004 FFF7FEFF 		bl	chprintf
 453              	.LVL41:
 454              		.loc 2 161 0
ARM GAS  /var/folders/qh/xwg3v3kj02qbxczjpdb8lzfr0000gn/T//ccxFafFa.s 			page 9


 455              		@ sp needed
 456 0008 08BD     		pop	{r3, pc}
 457              	.L39:
 458 000a C046     		.align	2
 459              	.L38:
 460 000c 3C000000 		.word	.LC10
 461              		.cfi_endproc
 462              	.LFE51:
 463              		.size	cmdDate, .-cmdDate
 464              		.global	valu
 465              		.section	.bss.adcTempArea.6161,"aw",%nobits
 466              		.align	3
 467              		.set	.LANCHOR0,. + 0
 468              		.type	adcTempArea.6161, %object
 469              		.size	adcTempArea.6161, 304
 470              	adcTempArea.6161:
 471 0000 00000000 		.space	304
 471      00000000 
 471      00000000 
 471      00000000 
 471      00000000 
 472              		.section	.data.valu,"aw",%progbits
 473              		.align	2
 474              		.type	valu, %object
 475              		.size	valu, 4
 476              	valu:
 477 0000 00004041 		.word	1094713344
 478              		.section	.rodata.str1.4,"aMS",%progbits,1
 479              		.align	2
 480              	.LC1:
 481 0000 54656D70 		.ascii	"Temperature Conversion Started\000"
 481      65726174 
 481      75726520 
 481      436F6E76 
 481      65727369 
 482 001f 00       		.space	1
 483              	.LC6:
 484 0020 54454D50 		.ascii	"TEMP DCV: %2.6f \012\015\000"
 484      20444356 
 484      3A202532 
 484      2E366620 
 484      0A0D00
 485 0033 00       		.space	1
 486              	.LC8:
 487 0034 77616974 		.ascii	"waiting\000"
 487      696E6700 
 488              	.LC10:
 489 003c 48656C6C 		.ascii	"Hello World\000"
 489      6F20576F 
 489      726C6400 
 490              		.text
 491              	.Letext0:
 492              		.file 3 "/usr/local/Cellar/gcc-arm-none-eabi-48/20131218/lib/gcc/arm-none-eabi/4.8.3/include/stdde
 493              		.file 4 "/usr/local/Cellar/gcc-arm-none-eabi-48/20131218/arm-none-eabi/include/stdint.h"
 494              		.file 5 "../../os/ports/GCC/ARMCMx/chtypes.h"
 495              		.file 6 "../../os/kernel/include/chlists.h"
 496              		.file 7 "../../os/kernel/include/chthreads.h"
ARM GAS  /var/folders/qh/xwg3v3kj02qbxczjpdb8lzfr0000gn/T//ccxFafFa.s 			page 10


 497              		.file 8 "../../os/ports/GCC/ARMCMx/chcore_v6m.h"
 498              		.file 9 "../../os/kernel/include/chmtx.h"
 499              		.file 10 "../../os/kernel/include/chevents.h"
 500              		.file 11 "../../os/kernel/include/chqueues.h"
 501              		.file 12 "../../os/kernel/include/chstreams.h"
 502              		.file 13 "../../os/hal/platforms/STM32F0xx/stm32f0xx.h"
 503              		.file 14 "../../os/hal/platforms/STM32F0xx/stm32_dma.h"
 504              		.file 15 "../../os/hal/include/adc.h"
 505              		.file 16 "../../os/hal/platforms/STM32F0xx/adc_lld.h"
 506              		.file 17 "../../os/hal/include/serial.h"
 507              		.file 18 "/usr/local/Cellar/gcc-arm-none-eabi-48/20131218/lib/gcc/arm-none-eabi/4.8.3/include/stda
 508              		.file 19 "<built-in>"
 509              		.file 20 "cmdadc.h"
 510              		.file 21 "../../os/hal/platforms/STM32/USARTv2/serial_lld.h"
 511              		.section	.debug_info,"",%progbits
 512              	.Ldebug_info0:
 513 0000 FE110000 		.4byte	0x11fe
 514 0004 0400     		.2byte	0x4
 515 0006 00000000 		.4byte	.Ldebug_abbrev0
 516 000a 04       		.byte	0x4
 517 000b 01       		.uleb128 0x1
 518 000c EF000000 		.4byte	.LASF188
 519 0010 01       		.byte	0x1
 520 0011 BE000000 		.4byte	.LASF189
 521 0015 C9020000 		.4byte	.LASF190
 522 0019 00000000 		.4byte	.Ldebug_ranges0+0
 523 001d 00000000 		.4byte	0
 524 0021 00000000 		.4byte	.Ldebug_line0
 525 0025 02       		.uleb128 0x2
 526 0026 08       		.byte	0x8
 527 0027 04       		.byte	0x4
 528 0028 DB070000 		.4byte	.LASF0
 529 002c 03       		.uleb128 0x3
 530 002d 04       		.byte	0x4
 531 002e 05       		.byte	0x5
 532 002f 696E7400 		.ascii	"int\000"
 533 0033 04       		.uleb128 0x4
 534 0034 04030000 		.4byte	.LASF3
 535 0038 03       		.byte	0x3
 536 0039 D4       		.byte	0xd4
 537 003a 3E000000 		.4byte	0x3e
 538 003e 02       		.uleb128 0x2
 539 003f 04       		.byte	0x4
 540 0040 07       		.byte	0x7
 541 0041 74000000 		.4byte	.LASF1
 542 0045 02       		.uleb128 0x2
 543 0046 01       		.byte	0x1
 544 0047 06       		.byte	0x6
 545 0048 9D070000 		.4byte	.LASF2
 546 004c 04       		.uleb128 0x4
 547 004d 23040000 		.4byte	.LASF4
 548 0051 04       		.byte	0x4
 549 0052 2A       		.byte	0x2a
 550 0053 57000000 		.4byte	0x57
 551 0057 02       		.uleb128 0x2
 552 0058 01       		.byte	0x1
 553 0059 08       		.byte	0x8
ARM GAS  /var/folders/qh/xwg3v3kj02qbxczjpdb8lzfr0000gn/T//ccxFafFa.s 			page 11


 554 005a 3F070000 		.4byte	.LASF5
 555 005e 02       		.uleb128 0x2
 556 005f 02       		.byte	0x2
 557 0060 05       		.byte	0x5
 558 0061 FA050000 		.4byte	.LASF6
 559 0065 04       		.uleb128 0x4
 560 0066 69050000 		.4byte	.LASF7
 561 006a 04       		.byte	0x4
 562 006b 36       		.byte	0x36
 563 006c 70000000 		.4byte	0x70
 564 0070 02       		.uleb128 0x2
 565 0071 02       		.byte	0x2
 566 0072 07       		.byte	0x7
 567 0073 AF070000 		.4byte	.LASF8
 568 0077 04       		.uleb128 0x4
 569 0078 24070000 		.4byte	.LASF9
 570 007c 04       		.byte	0x4
 571 007d 4F       		.byte	0x4f
 572 007e 82000000 		.4byte	0x82
 573 0082 02       		.uleb128 0x2
 574 0083 04       		.byte	0x4
 575 0084 05       		.byte	0x5
 576 0085 43060000 		.4byte	.LASF10
 577 0089 04       		.uleb128 0x4
 578 008a F0010000 		.4byte	.LASF11
 579 008e 04       		.byte	0x4
 580 008f 50       		.byte	0x50
 581 0090 94000000 		.4byte	0x94
 582 0094 02       		.uleb128 0x2
 583 0095 04       		.byte	0x4
 584 0096 07       		.byte	0x7
 585 0097 F6060000 		.4byte	.LASF12
 586 009b 02       		.uleb128 0x2
 587 009c 08       		.byte	0x8
 588 009d 05       		.byte	0x5
 589 009e 76040000 		.4byte	.LASF13
 590 00a2 04       		.uleb128 0x4
 591 00a3 73060000 		.4byte	.LASF14
 592 00a7 04       		.byte	0x4
 593 00a8 78       		.byte	0x78
 594 00a9 AD000000 		.4byte	0xad
 595 00ad 02       		.uleb128 0x2
 596 00ae 08       		.byte	0x8
 597 00af 07       		.byte	0x7
 598 00b0 5E020000 		.4byte	.LASF15
 599 00b4 04       		.uleb128 0x4
 600 00b5 17030000 		.4byte	.LASF16
 601 00b9 05       		.byte	0x5
 602 00ba 24       		.byte	0x24
 603 00bb BF000000 		.4byte	0xbf
 604 00bf 02       		.uleb128 0x2
 605 00c0 01       		.byte	0x1
 606 00c1 02       		.byte	0x2
 607 00c2 1E030000 		.4byte	.LASF17
 608 00c6 04       		.uleb128 0x4
 609 00c7 3C050000 		.4byte	.LASF18
 610 00cb 05       		.byte	0x5
ARM GAS  /var/folders/qh/xwg3v3kj02qbxczjpdb8lzfr0000gn/T//ccxFafFa.s 			page 12


 611 00cc 25       		.byte	0x25
 612 00cd 4C000000 		.4byte	0x4c
 613 00d1 04       		.uleb128 0x4
 614 00d2 F7030000 		.4byte	.LASF19
 615 00d6 05       		.byte	0x5
 616 00d7 26       		.byte	0x26
 617 00d8 4C000000 		.4byte	0x4c
 618 00dc 04       		.uleb128 0x4
 619 00dd E0060000 		.4byte	.LASF20
 620 00e1 05       		.byte	0x5
 621 00e2 27       		.byte	0x27
 622 00e3 4C000000 		.4byte	0x4c
 623 00e7 04       		.uleb128 0x4
 624 00e8 F3040000 		.4byte	.LASF21
 625 00ec 05       		.byte	0x5
 626 00ed 28       		.byte	0x28
 627 00ee 4C000000 		.4byte	0x4c
 628 00f2 04       		.uleb128 0x4
 629 00f3 3E020000 		.4byte	.LASF22
 630 00f7 05       		.byte	0x5
 631 00f8 29       		.byte	0x29
 632 00f9 89000000 		.4byte	0x89
 633 00fd 04       		.uleb128 0x4
 634 00fe 9E040000 		.4byte	.LASF23
 635 0102 05       		.byte	0x5
 636 0103 2A       		.byte	0x2a
 637 0104 77000000 		.4byte	0x77
 638 0108 04       		.uleb128 0x4
 639 0109 0C020000 		.4byte	.LASF24
 640 010d 05       		.byte	0x5
 641 010e 2C       		.byte	0x2c
 642 010f 89000000 		.4byte	0x89
 643 0113 04       		.uleb128 0x4
 644 0114 2B040000 		.4byte	.LASF25
 645 0118 05       		.byte	0x5
 646 0119 2D       		.byte	0x2d
 647 011a 89000000 		.4byte	0x89
 648 011e 04       		.uleb128 0x4
 649 011f 4C000000 		.4byte	.LASF26
 650 0123 05       		.byte	0x5
 651 0124 2E       		.byte	0x2e
 652 0125 89000000 		.4byte	0x89
 653 0129 04       		.uleb128 0x4
 654 012a F0030000 		.4byte	.LASF27
 655 012e 06       		.byte	0x6
 656 012f 23       		.byte	0x23
 657 0130 34010000 		.4byte	0x134
 658 0134 05       		.uleb128 0x5
 659 0135 F0030000 		.4byte	.LASF27
 660 0139 48       		.byte	0x48
 661 013a 07       		.byte	0x7
 662 013b 57       		.byte	0x57
 663 013c 31020000 		.4byte	0x231
 664 0140 06       		.uleb128 0x6
 665 0141 6C060000 		.4byte	.LASF28
 666 0145 07       		.byte	0x7
 667 0146 58       		.byte	0x58
ARM GAS  /var/folders/qh/xwg3v3kj02qbxczjpdb8lzfr0000gn/T//ccxFafFa.s 			page 13


 668 0147 52020000 		.4byte	0x252
 669 014b 00       		.byte	0
 670 014c 06       		.uleb128 0x6
 671 014d D0060000 		.4byte	.LASF29
 672 0151 07       		.byte	0x7
 673 0152 5A       		.byte	0x5a
 674 0153 52020000 		.4byte	0x252
 675 0157 04       		.byte	0x4
 676 0158 06       		.uleb128 0x6
 677 0159 3D000000 		.4byte	.LASF30
 678 015d 07       		.byte	0x7
 679 015e 5C       		.byte	0x5c
 680 015f F2000000 		.4byte	0xf2
 681 0163 08       		.byte	0x8
 682 0164 06       		.uleb128 0x6
 683 0165 7C060000 		.4byte	.LASF31
 684 0169 07       		.byte	0x7
 685 016a 5D       		.byte	0x5d
 686 016b 0D030000 		.4byte	0x30d
 687 016f 0C       		.byte	0xc
 688 0170 06       		.uleb128 0x6
 689 0171 98020000 		.4byte	.LASF32
 690 0175 07       		.byte	0x7
 691 0176 5F       		.byte	0x5f
 692 0177 52020000 		.4byte	0x252
 693 017b 10       		.byte	0x10
 694 017c 06       		.uleb128 0x6
 695 017d 13040000 		.4byte	.LASF33
 696 0181 07       		.byte	0x7
 697 0182 60       		.byte	0x60
 698 0183 52020000 		.4byte	0x252
 699 0187 14       		.byte	0x14
 700 0188 06       		.uleb128 0x6
 701 0189 A8030000 		.4byte	.LASF34
 702 018d 07       		.byte	0x7
 703 018e 67       		.byte	0x67
 704 018f 26040000 		.4byte	0x426
 705 0193 18       		.byte	0x18
 706 0194 06       		.uleb128 0x6
 707 0195 1B040000 		.4byte	.LASF35
 708 0199 07       		.byte	0x7
 709 019a 72       		.byte	0x72
 710 019b D1000000 		.4byte	0xd1
 711 019f 1C       		.byte	0x1c
 712 01a0 06       		.uleb128 0x6
 713 01a1 D2040000 		.4byte	.LASF36
 714 01a5 07       		.byte	0x7
 715 01a6 76       		.byte	0x76
 716 01a7 C6000000 		.4byte	0xc6
 717 01ab 1D       		.byte	0x1d
 718 01ac 06       		.uleb128 0x6
 719 01ad 4D070000 		.4byte	.LASF37
 720 01b1 07       		.byte	0x7
 721 01b2 7B       		.byte	0x7b
 722 01b3 DC000000 		.4byte	0xdc
 723 01b7 1E       		.byte	0x1e
 724 01b8 06       		.uleb128 0x6
ARM GAS  /var/folders/qh/xwg3v3kj02qbxczjpdb8lzfr0000gn/T//ccxFafFa.s 			page 14


 725 01b9 54070000 		.4byte	.LASF38
 726 01bd 07       		.byte	0x7
 727 01be 81       		.byte	0x81
 728 01bf E7000000 		.4byte	0xe7
 729 01c3 1F       		.byte	0x1f
 730 01c4 06       		.uleb128 0x6
 731 01c5 23000000 		.4byte	.LASF39
 732 01c9 07       		.byte	0x7
 733 01ca 88       		.byte	0x88
 734 01cb 38030000 		.4byte	0x338
 735 01cf 20       		.byte	0x20
 736 01d0 07       		.uleb128 0x7
 737 01d1 705F7500 		.ascii	"p_u\000"
 738 01d5 07       		.byte	0x7
 739 01d6 AD       		.byte	0xad
 740 01d7 F1030000 		.4byte	0x3f1
 741 01db 24       		.byte	0x24
 742 01dc 06       		.uleb128 0x6
 743 01dd 0C000000 		.4byte	.LASF40
 744 01e1 07       		.byte	0x7
 745 01e2 B2       		.byte	0xb2
 746 01e3 78020000 		.4byte	0x278
 747 01e7 28       		.byte	0x28
 748 01e8 06       		.uleb128 0x6
 749 01e9 5E000000 		.4byte	.LASF41
 750 01ed 07       		.byte	0x7
 751 01ee B8       		.byte	0xb8
 752 01ef 58020000 		.4byte	0x258
 753 01f3 2C       		.byte	0x2c
 754 01f4 06       		.uleb128 0x6
 755 01f5 36050000 		.4byte	.LASF42
 756 01f9 07       		.byte	0x7
 757 01fa BC       		.byte	0xbc
 758 01fb FD000000 		.4byte	0xfd
 759 01ff 34       		.byte	0x34
 760 0200 06       		.uleb128 0x6
 761 0201 30060000 		.4byte	.LASF43
 762 0205 07       		.byte	0x7
 763 0206 C2       		.byte	0xc2
 764 0207 08010000 		.4byte	0x108
 765 020b 38       		.byte	0x38
 766 020c 06       		.uleb128 0x6
 767 020d 4F040000 		.4byte	.LASF44
 768 0211 07       		.byte	0x7
 769 0212 C9       		.byte	0xc9
 770 0213 38040000 		.4byte	0x438
 771 0217 3C       		.byte	0x3c
 772 0218 06       		.uleb128 0x6
 773 0219 BD050000 		.4byte	.LASF45
 774 021d 07       		.byte	0x7
 775 021e CD       		.byte	0xcd
 776 021f F2000000 		.4byte	0xf2
 777 0223 40       		.byte	0x40
 778 0224 06       		.uleb128 0x6
 779 0225 47040000 		.4byte	.LASF46
 780 0229 07       		.byte	0x7
 781 022a D3       		.byte	0xd3
ARM GAS  /var/folders/qh/xwg3v3kj02qbxczjpdb8lzfr0000gn/T//ccxFafFa.s 			page 15


 782 022b 8E020000 		.4byte	0x28e
 783 022f 44       		.byte	0x44
 784 0230 00       		.byte	0
 785 0231 08       		.uleb128 0x8
 786 0232 08       		.byte	0x8
 787 0233 06       		.byte	0x6
 788 0234 5A       		.byte	0x5a
 789 0235 52020000 		.4byte	0x252
 790 0239 06       		.uleb128 0x6
 791 023a 6C060000 		.4byte	.LASF28
 792 023e 06       		.byte	0x6
 793 023f 5B       		.byte	0x5b
 794 0240 52020000 		.4byte	0x252
 795 0244 00       		.byte	0
 796 0245 06       		.uleb128 0x6
 797 0246 D0060000 		.4byte	.LASF29
 798 024a 06       		.byte	0x6
 799 024b 5D       		.byte	0x5d
 800 024c 52020000 		.4byte	0x252
 801 0250 04       		.byte	0x4
 802 0251 00       		.byte	0
 803 0252 09       		.uleb128 0x9
 804 0253 04       		.byte	0x4
 805 0254 29010000 		.4byte	0x129
 806 0258 04       		.uleb128 0x4
 807 0259 CF030000 		.4byte	.LASF47
 808 025d 06       		.byte	0x6
 809 025e 5F       		.byte	0x5f
 810 025f 31020000 		.4byte	0x231
 811 0263 08       		.uleb128 0x8
 812 0264 04       		.byte	0x4
 813 0265 06       		.byte	0x6
 814 0266 64       		.byte	0x64
 815 0267 78020000 		.4byte	0x278
 816 026b 06       		.uleb128 0x6
 817 026c 6C060000 		.4byte	.LASF28
 818 0270 06       		.byte	0x6
 819 0271 66       		.byte	0x66
 820 0272 52020000 		.4byte	0x252
 821 0276 00       		.byte	0
 822 0277 00       		.byte	0
 823 0278 04       		.uleb128 0x4
 824 0279 00000000 		.4byte	.LASF48
 825 027d 06       		.byte	0x6
 826 027e 69       		.byte	0x69
 827 027f 63020000 		.4byte	0x263
 828 0283 04       		.uleb128 0x4
 829 0284 34000000 		.4byte	.LASF49
 830 0288 08       		.byte	0x8
 831 0289 A0       		.byte	0xa0
 832 028a 8E020000 		.4byte	0x28e
 833 028e 0A       		.uleb128 0xa
 834 028f 04       		.byte	0x4
 835 0290 04       		.uleb128 0x4
 836 0291 C2070000 		.4byte	.LASF50
 837 0295 08       		.byte	0x8
 838 0296 A6       		.byte	0xa6
ARM GAS  /var/folders/qh/xwg3v3kj02qbxczjpdb8lzfr0000gn/T//ccxFafFa.s 			page 16


 839 0297 A2000000 		.4byte	0xa2
 840 029b 05       		.uleb128 0x5
 841 029c 72050000 		.4byte	.LASF51
 842 02a0 24       		.byte	0x24
 843 02a1 08       		.byte	0x8
 844 02a2 B3       		.byte	0xb3
 845 02a3 0D030000 		.4byte	0x30d
 846 02a7 07       		.uleb128 0x7
 847 02a8 723800   		.ascii	"r8\000"
 848 02ab 08       		.byte	0x8
 849 02ac B4       		.byte	0xb4
 850 02ad 83020000 		.4byte	0x283
 851 02b1 00       		.byte	0
 852 02b2 07       		.uleb128 0x7
 853 02b3 723900   		.ascii	"r9\000"
 854 02b6 08       		.byte	0x8
 855 02b7 B5       		.byte	0xb5
 856 02b8 83020000 		.4byte	0x283
 857 02bc 04       		.byte	0x4
 858 02bd 07       		.uleb128 0x7
 859 02be 72313000 		.ascii	"r10\000"
 860 02c2 08       		.byte	0x8
 861 02c3 B6       		.byte	0xb6
 862 02c4 83020000 		.4byte	0x283
 863 02c8 08       		.byte	0x8
 864 02c9 07       		.uleb128 0x7
 865 02ca 72313100 		.ascii	"r11\000"
 866 02ce 08       		.byte	0x8
 867 02cf B7       		.byte	0xb7
 868 02d0 83020000 		.4byte	0x283
 869 02d4 0C       		.byte	0xc
 870 02d5 07       		.uleb128 0x7
 871 02d6 723400   		.ascii	"r4\000"
 872 02d9 08       		.byte	0x8
 873 02da B8       		.byte	0xb8
 874 02db 83020000 		.4byte	0x283
 875 02df 10       		.byte	0x10
 876 02e0 07       		.uleb128 0x7
 877 02e1 723500   		.ascii	"r5\000"
 878 02e4 08       		.byte	0x8
 879 02e5 B9       		.byte	0xb9
 880 02e6 83020000 		.4byte	0x283
 881 02ea 14       		.byte	0x14
 882 02eb 07       		.uleb128 0x7
 883 02ec 723600   		.ascii	"r6\000"
 884 02ef 08       		.byte	0x8
 885 02f0 BA       		.byte	0xba
 886 02f1 83020000 		.4byte	0x283
 887 02f5 18       		.byte	0x18
 888 02f6 07       		.uleb128 0x7
 889 02f7 723700   		.ascii	"r7\000"
 890 02fa 08       		.byte	0x8
 891 02fb BB       		.byte	0xbb
 892 02fc 83020000 		.4byte	0x283
 893 0300 1C       		.byte	0x1c
 894 0301 07       		.uleb128 0x7
 895 0302 6C7200   		.ascii	"lr\000"
ARM GAS  /var/folders/qh/xwg3v3kj02qbxczjpdb8lzfr0000gn/T//ccxFafFa.s 			page 17


 896 0305 08       		.byte	0x8
 897 0306 BC       		.byte	0xbc
 898 0307 83020000 		.4byte	0x283
 899 030b 20       		.byte	0x20
 900 030c 00       		.byte	0
 901 030d 05       		.uleb128 0x5
 902 030e AB040000 		.4byte	.LASF52
 903 0312 04       		.byte	0x4
 904 0313 08       		.byte	0x8
 905 0314 C6       		.byte	0xc6
 906 0315 26030000 		.4byte	0x326
 907 0319 07       		.uleb128 0x7
 908 031a 72313300 		.ascii	"r13\000"
 909 031e 08       		.byte	0x8
 910 031f C7       		.byte	0xc7
 911 0320 26030000 		.4byte	0x326
 912 0324 00       		.byte	0
 913 0325 00       		.byte	0
 914 0326 09       		.uleb128 0x9
 915 0327 04       		.byte	0x4
 916 0328 9B020000 		.4byte	0x29b
 917 032c 0B       		.uleb128 0xb
 918 032d 89000000 		.4byte	0x89
 919 0331 02       		.uleb128 0x2
 920 0332 04       		.byte	0x4
 921 0333 07       		.byte	0x7
 922 0334 D7060000 		.4byte	.LASF53
 923 0338 0B       		.uleb128 0xb
 924 0339 1E010000 		.4byte	0x11e
 925 033d 05       		.uleb128 0x5
 926 033e 4B030000 		.4byte	.LASF54
 927 0342 10       		.byte	0x10
 928 0343 09       		.byte	0x9
 929 0344 25       		.byte	0x25
 930 0345 6E030000 		.4byte	0x36e
 931 0349 06       		.uleb128 0x6
 932 034a 3B060000 		.4byte	.LASF55
 933 034e 09       		.byte	0x9
 934 034f 26       		.byte	0x26
 935 0350 58020000 		.4byte	0x258
 936 0354 00       		.byte	0
 937 0355 06       		.uleb128 0x6
 938 0356 56000000 		.4byte	.LASF56
 939 035a 09       		.byte	0x9
 940 035b 28       		.byte	0x28
 941 035c 52020000 		.4byte	0x252
 942 0360 08       		.byte	0x8
 943 0361 06       		.uleb128 0x6
 944 0362 96070000 		.4byte	.LASF57
 945 0366 09       		.byte	0x9
 946 0367 2A       		.byte	0x2a
 947 0368 6E030000 		.4byte	0x36e
 948 036c 0C       		.byte	0xc
 949 036d 00       		.byte	0
 950 036e 09       		.uleb128 0x9
 951 036f 04       		.byte	0x4
 952 0370 3D030000 		.4byte	0x33d
ARM GAS  /var/folders/qh/xwg3v3kj02qbxczjpdb8lzfr0000gn/T//ccxFafFa.s 			page 18


 953 0374 04       		.uleb128 0x4
 954 0375 4B030000 		.4byte	.LASF54
 955 0379 09       		.byte	0x9
 956 037a 2C       		.byte	0x2c
 957 037b 3D030000 		.4byte	0x33d
 958 037f 04       		.uleb128 0x4
 959 0380 E8060000 		.4byte	.LASF58
 960 0384 0A       		.byte	0xa
 961 0385 25       		.byte	0x25
 962 0386 8A030000 		.4byte	0x38a
 963 038a 05       		.uleb128 0x5
 964 038b E8060000 		.4byte	.LASF58
 965 038f 10       		.byte	0x10
 966 0390 0A       		.byte	0xa
 967 0391 2A       		.byte	0x2a
 968 0392 C7030000 		.4byte	0x3c7
 969 0396 06       		.uleb128 0x6
 970 0397 2E050000 		.4byte	.LASF59
 971 039b 0A       		.byte	0xa
 972 039c 2B       		.byte	0x2b
 973 039d C7030000 		.4byte	0x3c7
 974 03a1 00       		.byte	0
 975 03a2 06       		.uleb128 0x6
 976 03a3 92060000 		.4byte	.LASF60
 977 03a7 0A       		.byte	0xa
 978 03a8 2E       		.byte	0x2e
 979 03a9 52020000 		.4byte	0x252
 980 03ad 04       		.byte	0x4
 981 03ae 06       		.uleb128 0x6
 982 03af 93000000 		.4byte	.LASF61
 983 03b3 0A       		.byte	0xa
 984 03b4 30       		.byte	0x30
 985 03b5 08010000 		.4byte	0x108
 986 03b9 08       		.byte	0x8
 987 03ba 06       		.uleb128 0x6
 988 03bb F8070000 		.4byte	.LASF62
 989 03bf 0A       		.byte	0xa
 990 03c0 33       		.byte	0x33
 991 03c1 13010000 		.4byte	0x113
 992 03c5 0C       		.byte	0xc
 993 03c6 00       		.byte	0
 994 03c7 09       		.uleb128 0x9
 995 03c8 04       		.byte	0x4
 996 03c9 7F030000 		.4byte	0x37f
 997 03cd 05       		.uleb128 0x5
 998 03ce 10050000 		.4byte	.LASF63
 999 03d2 04       		.byte	0x4
 1000 03d3 0A       		.byte	0xa
 1001 03d4 3A       		.byte	0x3a
 1002 03d5 E6030000 		.4byte	0x3e6
 1003 03d9 06       		.uleb128 0x6
 1004 03da 5E070000 		.4byte	.LASF64
 1005 03de 0A       		.byte	0xa
 1006 03df 3B       		.byte	0x3b
 1007 03e0 C7030000 		.4byte	0x3c7
 1008 03e4 00       		.byte	0
 1009 03e5 00       		.byte	0
ARM GAS  /var/folders/qh/xwg3v3kj02qbxczjpdb8lzfr0000gn/T//ccxFafFa.s 			page 19


 1010 03e6 04       		.uleb128 0x4
 1011 03e7 10050000 		.4byte	.LASF63
 1012 03eb 0A       		.byte	0xa
 1013 03ec 3E       		.byte	0x3e
 1014 03ed CD030000 		.4byte	0x3cd
 1015 03f1 0C       		.uleb128 0xc
 1016 03f2 04       		.byte	0x4
 1017 03f3 07       		.byte	0x7
 1018 03f4 8F       		.byte	0x8f
 1019 03f5 26040000 		.4byte	0x426
 1020 03f9 0D       		.uleb128 0xd
 1021 03fa 0B030000 		.4byte	.LASF65
 1022 03fe 07       		.byte	0x7
 1023 03ff 96       		.byte	0x96
 1024 0400 FD000000 		.4byte	0xfd
 1025 0404 0D       		.uleb128 0xd
 1026 0405 01080000 		.4byte	.LASF66
 1027 0409 07       		.byte	0x7
 1028 040a 9D       		.byte	0x9d
 1029 040b FD000000 		.4byte	0xfd
 1030 040f 0D       		.uleb128 0xd
 1031 0410 CD000000 		.4byte	.LASF67
 1032 0414 07       		.byte	0x7
 1033 0415 A4       		.byte	0xa4
 1034 0416 8E020000 		.4byte	0x28e
 1035 041a 0D       		.uleb128 0xd
 1036 041b C9010000 		.4byte	.LASF68
 1037 041f 07       		.byte	0x7
 1038 0420 AB       		.byte	0xab
 1039 0421 08010000 		.4byte	0x108
 1040 0425 00       		.byte	0
 1041 0426 09       		.uleb128 0x9
 1042 0427 04       		.byte	0x4
 1043 0428 2C040000 		.4byte	0x42c
 1044 042c 0E       		.uleb128 0xe
 1045 042d 31040000 		.4byte	0x431
 1046 0431 02       		.uleb128 0x2
 1047 0432 01       		.byte	0x1
 1048 0433 08       		.byte	0x8
 1049 0434 DC030000 		.4byte	.LASF69
 1050 0438 09       		.uleb128 0x9
 1051 0439 04       		.byte	0x4
 1052 043a 74030000 		.4byte	0x374
 1053 043e 04       		.uleb128 0x4
 1054 043f 4D020000 		.4byte	.LASF70
 1055 0443 07       		.byte	0x7
 1056 0444 DE       		.byte	0xde
 1057 0445 49040000 		.4byte	0x449
 1058 0449 09       		.uleb128 0x9
 1059 044a 04       		.byte	0x4
 1060 044b 4F040000 		.4byte	0x44f
 1061 044f 0F       		.uleb128 0xf
 1062 0450 FD000000 		.4byte	0xfd
 1063 0454 5E040000 		.4byte	0x45e
 1064 0458 10       		.uleb128 0x10
 1065 0459 8E020000 		.4byte	0x28e
 1066 045d 00       		.byte	0
ARM GAS  /var/folders/qh/xwg3v3kj02qbxczjpdb8lzfr0000gn/T//ccxFafFa.s 			page 20


 1067 045e 04       		.uleb128 0x4
 1068 045f 55050000 		.4byte	.LASF71
 1069 0463 0B       		.byte	0xb
 1070 0464 30       		.byte	0x30
 1071 0465 69040000 		.4byte	0x469
 1072 0469 05       		.uleb128 0x5
 1073 046a 55050000 		.4byte	.LASF71
 1074 046e 24       		.byte	0x24
 1075 046f 0B       		.byte	0xb
 1076 0470 3E       		.byte	0x3e
 1077 0471 D6040000 		.4byte	0x4d6
 1078 0475 06       		.uleb128 0x6
 1079 0476 A6020000 		.4byte	.LASF72
 1080 047a 0B       		.byte	0xb
 1081 047b 3F       		.byte	0x3f
 1082 047c 58020000 		.4byte	0x258
 1083 0480 00       		.byte	0
 1084 0481 06       		.uleb128 0x6
 1085 0482 BB060000 		.4byte	.LASF73
 1086 0486 0B       		.byte	0xb
 1087 0487 40       		.byte	0x40
 1088 0488 33000000 		.4byte	0x33
 1089 048c 08       		.byte	0x8
 1090 048d 06       		.uleb128 0x6
 1091 048e 8A040000 		.4byte	.LASF74
 1092 0492 0B       		.byte	0xb
 1093 0493 41       		.byte	0x41
 1094 0494 F8040000 		.4byte	0x4f8
 1095 0498 0C       		.byte	0xc
 1096 0499 06       		.uleb128 0x6
 1097 049a CA060000 		.4byte	.LASF75
 1098 049e 0B       		.byte	0xb
 1099 049f 42       		.byte	0x42
 1100 04a0 F8040000 		.4byte	0x4f8
 1101 04a4 10       		.byte	0x10
 1102 04a5 06       		.uleb128 0x6
 1103 04a6 E1030000 		.4byte	.LASF76
 1104 04aa 0B       		.byte	0xb
 1105 04ab 44       		.byte	0x44
 1106 04ac F8040000 		.4byte	0x4f8
 1107 04b0 14       		.byte	0x14
 1108 04b1 06       		.uleb128 0x6
 1109 04b2 81000000 		.4byte	.LASF77
 1110 04b6 0B       		.byte	0xb
 1111 04b7 45       		.byte	0x45
 1112 04b8 F8040000 		.4byte	0x4f8
 1113 04bc 18       		.byte	0x18
 1114 04bd 06       		.uleb128 0x6
 1115 04be 68030000 		.4byte	.LASF78
 1116 04c2 0B       		.byte	0xb
 1117 04c3 46       		.byte	0x46
 1118 04c4 D6040000 		.4byte	0x4d6
 1119 04c8 1C       		.byte	0x1c
 1120 04c9 06       		.uleb128 0x6
 1121 04ca D4000000 		.4byte	.LASF79
 1122 04ce 0B       		.byte	0xb
 1123 04cf 47       		.byte	0x47
ARM GAS  /var/folders/qh/xwg3v3kj02qbxczjpdb8lzfr0000gn/T//ccxFafFa.s 			page 21


 1124 04d0 8E020000 		.4byte	0x28e
 1125 04d4 20       		.byte	0x20
 1126 04d5 00       		.byte	0
 1127 04d6 04       		.uleb128 0x4
 1128 04d7 89000000 		.4byte	.LASF80
 1129 04db 0B       		.byte	0xb
 1130 04dc 33       		.byte	0x33
 1131 04dd E1040000 		.4byte	0x4e1
 1132 04e1 09       		.uleb128 0x9
 1133 04e2 04       		.byte	0x4
 1134 04e3 E7040000 		.4byte	0x4e7
 1135 04e7 11       		.uleb128 0x11
 1136 04e8 F2040000 		.4byte	0x4f2
 1137 04ec 10       		.uleb128 0x10
 1138 04ed F2040000 		.4byte	0x4f2
 1139 04f1 00       		.byte	0
 1140 04f2 09       		.uleb128 0x9
 1141 04f3 04       		.byte	0x4
 1142 04f4 5E040000 		.4byte	0x45e
 1143 04f8 09       		.uleb128 0x9
 1144 04f9 04       		.byte	0x4
 1145 04fa 4C000000 		.4byte	0x4c
 1146 04fe 04       		.uleb128 0x4
 1147 04ff C4030000 		.4byte	.LASF81
 1148 0503 0B       		.byte	0xb
 1149 0504 7B       		.byte	0x7b
 1150 0505 5E040000 		.4byte	0x45e
 1151 0509 04       		.uleb128 0x4
 1152 050a 51030000 		.4byte	.LASF82
 1153 050e 0B       		.byte	0xb
 1154 050f EE       		.byte	0xee
 1155 0510 5E040000 		.4byte	0x45e
 1156 0514 05       		.uleb128 0x5
 1157 0515 9B000000 		.4byte	.LASF83
 1158 0519 10       		.byte	0x10
 1159 051a 0C       		.byte	0xc
 1160 051b 41       		.byte	0x41
 1161 051c 51050000 		.4byte	0x551
 1162 0520 06       		.uleb128 0x6
 1163 0521 84040000 		.4byte	.LASF84
 1164 0525 0C       		.byte	0xc
 1165 0526 42       		.byte	0x42
 1166 0527 75050000 		.4byte	0x575
 1167 052b 00       		.byte	0
 1168 052c 06       		.uleb128 0x6
 1169 052d 8D060000 		.4byte	.LASF85
 1170 0531 0C       		.byte	0xc
 1171 0532 42       		.byte	0x42
 1172 0533 94050000 		.4byte	0x594
 1173 0537 04       		.byte	0x4
 1174 0538 07       		.uleb128 0x7
 1175 0539 70757400 		.ascii	"put\000"
 1176 053d 0C       		.byte	0xc
 1177 053e 42       		.byte	0x42
 1178 053f AE050000 		.4byte	0x5ae
 1179 0543 08       		.byte	0x8
 1180 0544 07       		.uleb128 0x7
ARM GAS  /var/folders/qh/xwg3v3kj02qbxczjpdb8lzfr0000gn/T//ccxFafFa.s 			page 22


 1181 0545 67657400 		.ascii	"get\000"
 1182 0549 0C       		.byte	0xc
 1183 054a 42       		.byte	0x42
 1184 054b 49040000 		.4byte	0x449
 1185 054f 0C       		.byte	0xc
 1186 0550 00       		.byte	0
 1187 0551 0F       		.uleb128 0xf
 1188 0552 33000000 		.4byte	0x33
 1189 0556 6A050000 		.4byte	0x56a
 1190 055a 10       		.uleb128 0x10
 1191 055b 8E020000 		.4byte	0x28e
 1192 055f 10       		.uleb128 0x10
 1193 0560 6A050000 		.4byte	0x56a
 1194 0564 10       		.uleb128 0x10
 1195 0565 33000000 		.4byte	0x33
 1196 0569 00       		.byte	0
 1197 056a 09       		.uleb128 0x9
 1198 056b 04       		.byte	0x4
 1199 056c 70050000 		.4byte	0x570
 1200 0570 0E       		.uleb128 0xe
 1201 0571 4C000000 		.4byte	0x4c
 1202 0575 09       		.uleb128 0x9
 1203 0576 04       		.byte	0x4
 1204 0577 51050000 		.4byte	0x551
 1205 057b 0F       		.uleb128 0xf
 1206 057c 33000000 		.4byte	0x33
 1207 0580 94050000 		.4byte	0x594
 1208 0584 10       		.uleb128 0x10
 1209 0585 8E020000 		.4byte	0x28e
 1210 0589 10       		.uleb128 0x10
 1211 058a F8040000 		.4byte	0x4f8
 1212 058e 10       		.uleb128 0x10
 1213 058f 33000000 		.4byte	0x33
 1214 0593 00       		.byte	0
 1215 0594 09       		.uleb128 0x9
 1216 0595 04       		.byte	0x4
 1217 0596 7B050000 		.4byte	0x57b
 1218 059a 0F       		.uleb128 0xf
 1219 059b FD000000 		.4byte	0xfd
 1220 059f AE050000 		.4byte	0x5ae
 1221 05a3 10       		.uleb128 0x10
 1222 05a4 8E020000 		.4byte	0x28e
 1223 05a8 10       		.uleb128 0x10
 1224 05a9 4C000000 		.4byte	0x4c
 1225 05ad 00       		.byte	0
 1226 05ae 09       		.uleb128 0x9
 1227 05af 04       		.byte	0x4
 1228 05b0 9A050000 		.4byte	0x59a
 1229 05b4 08       		.uleb128 0x8
 1230 05b5 04       		.byte	0x4
 1231 05b6 0C       		.byte	0xc
 1232 05b7 4A       		.byte	0x4a
 1233 05b8 C9050000 		.4byte	0x5c9
 1234 05bc 07       		.uleb128 0x7
 1235 05bd 766D7400 		.ascii	"vmt\000"
 1236 05c1 0C       		.byte	0xc
 1237 05c2 4C       		.byte	0x4c
ARM GAS  /var/folders/qh/xwg3v3kj02qbxczjpdb8lzfr0000gn/T//ccxFafFa.s 			page 23


 1238 05c3 C9050000 		.4byte	0x5c9
 1239 05c7 00       		.byte	0
 1240 05c8 00       		.byte	0
 1241 05c9 09       		.uleb128 0x9
 1242 05ca 04       		.byte	0x4
 1243 05cb CF050000 		.4byte	0x5cf
 1244 05cf 0E       		.uleb128 0xe
 1245 05d0 14050000 		.4byte	0x514
 1246 05d4 04       		.uleb128 0x4
 1247 05d5 AF030000 		.4byte	.LASF86
 1248 05d9 0C       		.byte	0xc
 1249 05da 4E       		.byte	0x4e
 1250 05db B4050000 		.4byte	0x5b4
 1251 05df 12       		.uleb128 0x12
 1252 05e0 44       		.byte	0x44
 1253 05e1 0D       		.byte	0xd
 1254 05e2 2B01     		.2byte	0x12b
 1255 05e4 8F060000 		.4byte	0x68f
 1256 05e8 13       		.uleb128 0x13
 1257 05e9 49535200 		.ascii	"ISR\000"
 1258 05ed 0D       		.byte	0xd
 1259 05ee 2D01     		.2byte	0x12d
 1260 05f0 2C030000 		.4byte	0x32c
 1261 05f4 00       		.byte	0
 1262 05f5 13       		.uleb128 0x13
 1263 05f6 49455200 		.ascii	"IER\000"
 1264 05fa 0D       		.byte	0xd
 1265 05fb 2E01     		.2byte	0x12e
 1266 05fd 2C030000 		.4byte	0x32c
 1267 0601 04       		.byte	0x4
 1268 0602 13       		.uleb128 0x13
 1269 0603 435200   		.ascii	"CR\000"
 1270 0606 0D       		.byte	0xd
 1271 0607 2F01     		.2byte	0x12f
 1272 0609 2C030000 		.4byte	0x32c
 1273 060d 08       		.byte	0x8
 1274 060e 14       		.uleb128 0x14
 1275 060f 04050000 		.4byte	.LASF87
 1276 0613 0D       		.byte	0xd
 1277 0614 3001     		.2byte	0x130
 1278 0616 2C030000 		.4byte	0x32c
 1279 061a 0C       		.byte	0xc
 1280 061b 14       		.uleb128 0x14
 1281 061c 0A050000 		.4byte	.LASF88
 1282 0620 0D       		.byte	0xd
 1283 0621 3101     		.2byte	0x131
 1284 0623 2C030000 		.4byte	0x32c
 1285 0627 10       		.byte	0x10
 1286 0628 14       		.uleb128 0x14
 1287 0629 12030000 		.4byte	.LASF89
 1288 062d 0D       		.byte	0xd
 1289 062e 3201     		.2byte	0x132
 1290 0630 2C030000 		.4byte	0x32c
 1291 0634 14       		.byte	0x14
 1292 0635 14       		.uleb128 0x14
 1293 0636 C8050000 		.4byte	.LASF90
 1294 063a 0D       		.byte	0xd
ARM GAS  /var/folders/qh/xwg3v3kj02qbxczjpdb8lzfr0000gn/T//ccxFafFa.s 			page 24


 1295 063b 3301     		.2byte	0x133
 1296 063d 89000000 		.4byte	0x89
 1297 0641 18       		.byte	0x18
 1298 0642 14       		.uleb128 0x14
 1299 0643 D2050000 		.4byte	.LASF91
 1300 0647 0D       		.byte	0xd
 1301 0648 3401     		.2byte	0x134
 1302 064a 89000000 		.4byte	0x89
 1303 064e 1C       		.byte	0x1c
 1304 064f 13       		.uleb128 0x13
 1305 0650 545200   		.ascii	"TR\000"
 1306 0653 0D       		.byte	0xd
 1307 0654 3501     		.2byte	0x135
 1308 0656 2C030000 		.4byte	0x32c
 1309 065a 20       		.byte	0x20
 1310 065b 14       		.uleb128 0x14
 1311 065c DC050000 		.4byte	.LASF92
 1312 0660 0D       		.byte	0xd
 1313 0661 3601     		.2byte	0x136
 1314 0663 89000000 		.4byte	0x89
 1315 0667 24       		.byte	0x24
 1316 0668 14       		.uleb128 0x14
 1317 0669 91020000 		.4byte	.LASF93
 1318 066d 0D       		.byte	0xd
 1319 066e 3701     		.2byte	0x137
 1320 0670 2C030000 		.4byte	0x32c
 1321 0674 28       		.byte	0x28
 1322 0675 14       		.uleb128 0x14
 1323 0676 E6050000 		.4byte	.LASF94
 1324 067a 0D       		.byte	0xd
 1325 067b 3801     		.2byte	0x138
 1326 067d 8F060000 		.4byte	0x68f
 1327 0681 2C       		.byte	0x2c
 1328 0682 13       		.uleb128 0x13
 1329 0683 445200   		.ascii	"DR\000"
 1330 0686 0D       		.byte	0xd
 1331 0687 3901     		.2byte	0x139
 1332 0689 2C030000 		.4byte	0x32c
 1333 068d 40       		.byte	0x40
 1334 068e 00       		.byte	0
 1335 068f 15       		.uleb128 0x15
 1336 0690 89000000 		.4byte	0x89
 1337 0694 9F060000 		.4byte	0x69f
 1338 0698 16       		.uleb128 0x16
 1339 0699 31030000 		.4byte	0x331
 1340 069d 04       		.byte	0x4
 1341 069e 00       		.byte	0
 1342 069f 17       		.uleb128 0x17
 1343 06a0 6C070000 		.4byte	.LASF95
 1344 06a4 0D       		.byte	0xd
 1345 06a5 3A01     		.2byte	0x13a
 1346 06a7 DF050000 		.4byte	0x5df
 1347 06ab 12       		.uleb128 0x12
 1348 06ac 04       		.byte	0x4
 1349 06ad 0D       		.byte	0xd
 1350 06ae 3C01     		.2byte	0x13c
 1351 06b0 C2060000 		.4byte	0x6c2
ARM GAS  /var/folders/qh/xwg3v3kj02qbxczjpdb8lzfr0000gn/T//ccxFafFa.s 			page 25


 1352 06b4 13       		.uleb128 0x13
 1353 06b5 43435200 		.ascii	"CCR\000"
 1354 06b9 0D       		.byte	0xd
 1355 06ba 3E01     		.2byte	0x13e
 1356 06bc 2C030000 		.4byte	0x32c
 1357 06c0 00       		.byte	0
 1358 06c1 00       		.byte	0
 1359 06c2 17       		.uleb128 0x17
 1360 06c3 04060000 		.4byte	.LASF96
 1361 06c7 0D       		.byte	0xd
 1362 06c8 3F01     		.2byte	0x13f
 1363 06ca AB060000 		.4byte	0x6ab
 1364 06ce 12       		.uleb128 0x12
 1365 06cf 10       		.byte	0x10
 1366 06d0 0D       		.byte	0xd
 1367 06d1 8A01     		.2byte	0x18a
 1368 06d3 0C070000 		.4byte	0x70c
 1369 06d7 13       		.uleb128 0x13
 1370 06d8 43435200 		.ascii	"CCR\000"
 1371 06dc 0D       		.byte	0xd
 1372 06dd 8C01     		.2byte	0x18c
 1373 06df 2C030000 		.4byte	0x32c
 1374 06e3 00       		.byte	0
 1375 06e4 14       		.uleb128 0x14
 1376 06e5 DE010000 		.4byte	.LASF97
 1377 06e9 0D       		.byte	0xd
 1378 06ea 8D01     		.2byte	0x18d
 1379 06ec 2C030000 		.4byte	0x32c
 1380 06f0 04       		.byte	0x4
 1381 06f1 14       		.uleb128 0x14
 1382 06f2 B0020000 		.4byte	.LASF98
 1383 06f6 0D       		.byte	0xd
 1384 06f7 8E01     		.2byte	0x18e
 1385 06f9 2C030000 		.4byte	0x32c
 1386 06fd 08       		.byte	0x8
 1387 06fe 14       		.uleb128 0x14
 1388 06ff B9000000 		.4byte	.LASF99
 1389 0703 0D       		.byte	0xd
 1390 0704 8F01     		.2byte	0x18f
 1391 0706 2C030000 		.4byte	0x32c
 1392 070a 0C       		.byte	0xc
 1393 070b 00       		.byte	0
 1394 070c 17       		.uleb128 0x17
 1395 070d DB000000 		.4byte	.LASF100
 1396 0711 0D       		.byte	0xd
 1397 0712 9001     		.2byte	0x190
 1398 0714 CE060000 		.4byte	0x6ce
 1399 0718 0B       		.uleb128 0xb
 1400 0719 65000000 		.4byte	0x65
 1401 071d 12       		.uleb128 0x12
 1402 071e 2C       		.byte	0x2c
 1403 071f 0D       		.byte	0xd
 1404 0720 AA02     		.2byte	0x2aa
 1405 0722 F7070000 		.4byte	0x7f7
 1406 0726 13       		.uleb128 0x13
 1407 0727 43523100 		.ascii	"CR1\000"
 1408 072b 0D       		.byte	0xd
ARM GAS  /var/folders/qh/xwg3v3kj02qbxczjpdb8lzfr0000gn/T//ccxFafFa.s 			page 26


 1409 072c AC02     		.2byte	0x2ac
 1410 072e 2C030000 		.4byte	0x32c
 1411 0732 00       		.byte	0
 1412 0733 13       		.uleb128 0x13
 1413 0734 43523200 		.ascii	"CR2\000"
 1414 0738 0D       		.byte	0xd
 1415 0739 AD02     		.2byte	0x2ad
 1416 073b 2C030000 		.4byte	0x32c
 1417 073f 04       		.byte	0x4
 1418 0740 13       		.uleb128 0x13
 1419 0741 43523300 		.ascii	"CR3\000"
 1420 0745 0D       		.byte	0xd
 1421 0746 AE02     		.2byte	0x2ae
 1422 0748 2C030000 		.4byte	0x32c
 1423 074c 08       		.byte	0x8
 1424 074d 13       		.uleb128 0x13
 1425 074e 42525200 		.ascii	"BRR\000"
 1426 0752 0D       		.byte	0xd
 1427 0753 AF02     		.2byte	0x2af
 1428 0755 18070000 		.4byte	0x718
 1429 0759 0C       		.byte	0xc
 1430 075a 14       		.uleb128 0x14
 1431 075b C8050000 		.4byte	.LASF90
 1432 075f 0D       		.byte	0xd
 1433 0760 B002     		.2byte	0x2b0
 1434 0762 65000000 		.4byte	0x65
 1435 0766 0E       		.byte	0xe
 1436 0767 14       		.uleb128 0x14
 1437 0768 E4010000 		.4byte	.LASF101
 1438 076c 0D       		.byte	0xd
 1439 076d B102     		.2byte	0x2b1
 1440 076f 18070000 		.4byte	0x718
 1441 0773 10       		.byte	0x10
 1442 0774 14       		.uleb128 0x14
 1443 0775 D2050000 		.4byte	.LASF91
 1444 0779 0D       		.byte	0xd
 1445 077a B202     		.2byte	0x2b2
 1446 077c 65000000 		.4byte	0x65
 1447 0780 12       		.byte	0x12
 1448 0781 14       		.uleb128 0x14
 1449 0782 37040000 		.4byte	.LASF102
 1450 0786 0D       		.byte	0xd
 1451 0787 B302     		.2byte	0x2b3
 1452 0789 2C030000 		.4byte	0x32c
 1453 078d 14       		.byte	0x14
 1454 078e 13       		.uleb128 0x13
 1455 078f 52515200 		.ascii	"RQR\000"
 1456 0793 0D       		.byte	0xd
 1457 0794 B402     		.2byte	0x2b4
 1458 0796 18070000 		.4byte	0x718
 1459 079a 18       		.byte	0x18
 1460 079b 14       		.uleb128 0x14
 1461 079c DC050000 		.4byte	.LASF92
 1462 07a0 0D       		.byte	0xd
 1463 07a1 B502     		.2byte	0x2b5
 1464 07a3 65000000 		.4byte	0x65
 1465 07a7 1A       		.byte	0x1a
ARM GAS  /var/folders/qh/xwg3v3kj02qbxczjpdb8lzfr0000gn/T//ccxFafFa.s 			page 27


 1466 07a8 13       		.uleb128 0x13
 1467 07a9 49535200 		.ascii	"ISR\000"
 1468 07ad 0D       		.byte	0xd
 1469 07ae B602     		.2byte	0x2b6
 1470 07b0 2C030000 		.4byte	0x32c
 1471 07b4 1C       		.byte	0x1c
 1472 07b5 13       		.uleb128 0x13
 1473 07b6 49435200 		.ascii	"ICR\000"
 1474 07ba 0D       		.byte	0xd
 1475 07bb B702     		.2byte	0x2b7
 1476 07bd 2C030000 		.4byte	0x32c
 1477 07c1 20       		.byte	0x20
 1478 07c2 13       		.uleb128 0x13
 1479 07c3 52445200 		.ascii	"RDR\000"
 1480 07c7 0D       		.byte	0xd
 1481 07c8 B802     		.2byte	0x2b8
 1482 07ca 18070000 		.4byte	0x718
 1483 07ce 24       		.byte	0x24
 1484 07cf 14       		.uleb128 0x14
 1485 07d0 E6050000 		.4byte	.LASF94
 1486 07d4 0D       		.byte	0xd
 1487 07d5 B902     		.2byte	0x2b9
 1488 07d7 65000000 		.4byte	0x65
 1489 07db 26       		.byte	0x26
 1490 07dc 13       		.uleb128 0x13
 1491 07dd 54445200 		.ascii	"TDR\000"
 1492 07e1 0D       		.byte	0xd
 1493 07e2 BA02     		.2byte	0x2ba
 1494 07e4 18070000 		.4byte	0x718
 1495 07e8 28       		.byte	0x28
 1496 07e9 14       		.uleb128 0x14
 1497 07ea F0050000 		.4byte	.LASF103
 1498 07ee 0D       		.byte	0xd
 1499 07ef BB02     		.2byte	0x2bb
 1500 07f1 65000000 		.4byte	0x65
 1501 07f5 2A       		.byte	0x2a
 1502 07f6 00       		.byte	0
 1503 07f7 17       		.uleb128 0x17
 1504 07f8 3D030000 		.4byte	.LASF104
 1505 07fc 0D       		.byte	0xd
 1506 07fd BC02     		.2byte	0x2bc
 1507 07ff 1D070000 		.4byte	0x71d
 1508 0803 08       		.uleb128 0x8
 1509 0804 0C       		.byte	0xc
 1510 0805 0E       		.byte	0xe
 1511 0806 B6       		.byte	0xb6
 1512 0807 48080000 		.4byte	0x848
 1513 080b 06       		.uleb128 0x6
 1514 080c 8A050000 		.4byte	.LASF105
 1515 0810 0E       		.byte	0xe
 1516 0811 B7       		.byte	0xb7
 1517 0812 48080000 		.4byte	0x848
 1518 0816 00       		.byte	0
 1519 0817 06       		.uleb128 0x6
 1520 0818 18020000 		.4byte	.LASF106
 1521 081c 0E       		.byte	0xe
 1522 081d B8       		.byte	0xb8
ARM GAS  /var/folders/qh/xwg3v3kj02qbxczjpdb8lzfr0000gn/T//ccxFafFa.s 			page 28


 1523 081e 4E080000 		.4byte	0x84e
 1524 0822 04       		.byte	0x4
 1525 0823 06       		.uleb128 0x6
 1526 0824 E9030000 		.4byte	.LASF107
 1527 0828 0E       		.byte	0xe
 1528 0829 B9       		.byte	0xb9
 1529 082a 4C000000 		.4byte	0x4c
 1530 082e 08       		.byte	0x8
 1531 082f 06       		.uleb128 0x6
 1532 0830 0A080000 		.4byte	.LASF108
 1533 0834 0E       		.byte	0xe
 1534 0835 BB       		.byte	0xbb
 1535 0836 4C000000 		.4byte	0x4c
 1536 083a 09       		.byte	0x9
 1537 083b 06       		.uleb128 0x6
 1538 083c 75020000 		.4byte	.LASF109
 1539 0840 0E       		.byte	0xe
 1540 0841 BC       		.byte	0xbc
 1541 0842 4C000000 		.4byte	0x4c
 1542 0846 0A       		.byte	0xa
 1543 0847 00       		.byte	0
 1544 0848 09       		.uleb128 0x9
 1545 0849 04       		.byte	0x4
 1546 084a 0C070000 		.4byte	0x70c
 1547 084e 09       		.uleb128 0x9
 1548 084f 04       		.byte	0x4
 1549 0850 2C030000 		.4byte	0x32c
 1550 0854 04       		.uleb128 0x4
 1551 0855 00040000 		.4byte	.LASF110
 1552 0859 0E       		.byte	0xe
 1553 085a BD       		.byte	0xbd
 1554 085b 03080000 		.4byte	0x803
 1555 085f 0F       		.uleb128 0xf
 1556 0860 FD000000 		.4byte	0xfd
 1557 0864 78080000 		.4byte	0x878
 1558 0868 10       		.uleb128 0x10
 1559 0869 8E020000 		.4byte	0x28e
 1560 086d 10       		.uleb128 0x10
 1561 086e 4C000000 		.4byte	0x4c
 1562 0872 10       		.uleb128 0x10
 1563 0873 1E010000 		.4byte	0x11e
 1564 0877 00       		.byte	0
 1565 0878 09       		.uleb128 0x9
 1566 0879 04       		.byte	0x4
 1567 087a 5F080000 		.4byte	0x85f
 1568 087e 0F       		.uleb128 0xf
 1569 087f FD000000 		.4byte	0xfd
 1570 0883 92080000 		.4byte	0x892
 1571 0887 10       		.uleb128 0x10
 1572 0888 8E020000 		.4byte	0x28e
 1573 088c 10       		.uleb128 0x10
 1574 088d 1E010000 		.4byte	0x11e
 1575 0891 00       		.byte	0
 1576 0892 09       		.uleb128 0x9
 1577 0893 04       		.byte	0x4
 1578 0894 7E080000 		.4byte	0x87e
 1579 0898 0F       		.uleb128 0xf
ARM GAS  /var/folders/qh/xwg3v3kj02qbxczjpdb8lzfr0000gn/T//ccxFafFa.s 			page 29


 1580 0899 33000000 		.4byte	0x33
 1581 089d B6080000 		.4byte	0x8b6
 1582 08a1 10       		.uleb128 0x10
 1583 08a2 8E020000 		.4byte	0x28e
 1584 08a6 10       		.uleb128 0x10
 1585 08a7 6A050000 		.4byte	0x56a
 1586 08ab 10       		.uleb128 0x10
 1587 08ac 33000000 		.4byte	0x33
 1588 08b0 10       		.uleb128 0x10
 1589 08b1 1E010000 		.4byte	0x11e
 1590 08b5 00       		.byte	0
 1591 08b6 09       		.uleb128 0x9
 1592 08b7 04       		.byte	0x4
 1593 08b8 98080000 		.4byte	0x898
 1594 08bc 0F       		.uleb128 0xf
 1595 08bd 33000000 		.4byte	0x33
 1596 08c1 DA080000 		.4byte	0x8da
 1597 08c5 10       		.uleb128 0x10
 1598 08c6 8E020000 		.4byte	0x28e
 1599 08ca 10       		.uleb128 0x10
 1600 08cb F8040000 		.4byte	0x4f8
 1601 08cf 10       		.uleb128 0x10
 1602 08d0 33000000 		.4byte	0x33
 1603 08d4 10       		.uleb128 0x10
 1604 08d5 1E010000 		.4byte	0x11e
 1605 08d9 00       		.byte	0
 1606 08da 09       		.uleb128 0x9
 1607 08db 04       		.byte	0x4
 1608 08dc BC080000 		.4byte	0x8bc
 1609 08e0 18       		.uleb128 0x18
 1610 08e1 01       		.byte	0x1
 1611 08e2 0F       		.byte	0xf
 1612 08e3 4E       		.byte	0x4e
 1613 08e4 0D090000 		.4byte	0x90d
 1614 08e8 19       		.uleb128 0x19
 1615 08e9 82060000 		.4byte	.LASF111
 1616 08ed 00       		.sleb128 0
 1617 08ee 19       		.uleb128 0x19
 1618 08ef EF070000 		.4byte	.LASF112
 1619 08f3 01       		.sleb128 1
 1620 08f4 19       		.uleb128 0x19
 1621 08f5 08070000 		.4byte	.LASF113
 1622 08f9 02       		.sleb128 2
 1623 08fa 19       		.uleb128 0x19
 1624 08fb 92050000 		.4byte	.LASF114
 1625 08ff 03       		.sleb128 3
 1626 0900 19       		.uleb128 0x19
 1627 0901 81030000 		.4byte	.LASF115
 1628 0905 04       		.sleb128 4
 1629 0906 19       		.uleb128 0x19
 1630 0907 94030000 		.4byte	.LASF116
 1631 090b 05       		.sleb128 5
 1632 090c 00       		.byte	0
 1633 090d 04       		.uleb128 0x4
 1634 090e 19070000 		.4byte	.LASF117
 1635 0912 0F       		.byte	0xf
 1636 0913 55       		.byte	0x55
ARM GAS  /var/folders/qh/xwg3v3kj02qbxczjpdb8lzfr0000gn/T//ccxFafFa.s 			page 30


 1637 0914 E0080000 		.4byte	0x8e0
 1638 0918 04       		.uleb128 0x4
 1639 0919 44050000 		.4byte	.LASF118
 1640 091d 10       		.byte	0x10
 1641 091e 8F       		.byte	0x8f
 1642 091f 65000000 		.4byte	0x65
 1643 0923 04       		.uleb128 0x4
 1644 0924 17060000 		.4byte	.LASF119
 1645 0928 10       		.byte	0x10
 1646 0929 94       		.byte	0x94
 1647 092a 65000000 		.4byte	0x65
 1648 092e 18       		.uleb128 0x18
 1649 092f 01       		.byte	0x1
 1650 0930 10       		.byte	0x10
 1651 0931 9B       		.byte	0x9b
 1652 0932 49090000 		.4byte	0x949
 1653 0936 19       		.uleb128 0x19
 1654 0937 A8060000 		.4byte	.LASF120
 1655 093b 00       		.sleb128 0
 1656 093c 19       		.uleb128 0x19
 1657 093d 79050000 		.4byte	.LASF121
 1658 0941 01       		.sleb128 1
 1659 0942 19       		.uleb128 0x19
 1660 0943 31030000 		.4byte	.LASF122
 1661 0947 02       		.sleb128 2
 1662 0948 00       		.byte	0
 1663 0949 04       		.uleb128 0x4
 1664 094a 69000000 		.4byte	.LASF123
 1665 094e 10       		.byte	0x10
 1666 094f 9F       		.byte	0x9f
 1667 0950 2E090000 		.4byte	0x92e
 1668 0954 04       		.uleb128 0x4
 1669 0955 9E030000 		.4byte	.LASF124
 1670 0959 10       		.byte	0x10
 1671 095a A4       		.byte	0xa4
 1672 095b 5F090000 		.4byte	0x95f
 1673 095f 05       		.uleb128 0x5
 1674 0960 9E030000 		.4byte	.LASF124
 1675 0964 34       		.byte	0x34
 1676 0965 10       		.byte	0x10
 1677 0966 F2       		.byte	0xf2
 1678 0967 EB090000 		.4byte	0x9eb
 1679 096b 06       		.uleb128 0x6
 1680 096c 66070000 		.4byte	.LASF125
 1681 0970 10       		.byte	0x10
 1682 0971 F6       		.byte	0xf6
 1683 0972 0D090000 		.4byte	0x90d
 1684 0976 00       		.byte	0
 1685 0977 06       		.uleb128 0x6
 1686 0978 B6050000 		.4byte	.LASF126
 1687 097c 10       		.byte	0x10
 1688 097d FA       		.byte	0xfa
 1689 097e D10A0000 		.4byte	0xad1
 1690 0982 04       		.byte	0x4
 1691 0983 06       		.uleb128 0x6
 1692 0984 6E040000 		.4byte	.LASF127
 1693 0988 10       		.byte	0x10
ARM GAS  /var/folders/qh/xwg3v3kj02qbxczjpdb8lzfr0000gn/T//ccxFafFa.s 			page 31


 1694 0989 FE       		.byte	0xfe
 1695 098a 170A0000 		.4byte	0xa17
 1696 098e 08       		.byte	0x8
 1697 098f 14       		.uleb128 0x14
 1698 0990 98040000 		.4byte	.LASF128
 1699 0994 10       		.byte	0x10
 1700 0995 0201     		.2byte	0x102
 1701 0997 33000000 		.4byte	0x33
 1702 099b 0C       		.byte	0xc
 1703 099c 14       		.uleb128 0x14
 1704 099d E2070000 		.4byte	.LASF129
 1705 09a1 10       		.byte	0x10
 1706 09a2 0601     		.2byte	0x106
 1707 09a4 DC0A0000 		.4byte	0xadc
 1708 09a8 10       		.byte	0x10
 1709 09a9 14       		.uleb128 0x14
 1710 09aa 38070000 		.4byte	.LASF130
 1711 09ae 10       		.byte	0x10
 1712 09af 0B01     		.2byte	0x10b
 1713 09b1 52020000 		.4byte	0x252
 1714 09b5 14       		.byte	0x14
 1715 09b6 14       		.uleb128 0x14
 1716 09b7 28020000 		.4byte	.LASF131
 1717 09bb 10       		.byte	0x10
 1718 09bc 1201     		.2byte	0x112
 1719 09be 74030000 		.4byte	0x374
 1720 09c2 18       		.byte	0x18
 1721 09c3 13       		.uleb128 0x13
 1722 09c4 61646300 		.ascii	"adc\000"
 1723 09c8 10       		.byte	0x10
 1724 09c9 1E01     		.2byte	0x11e
 1725 09cb E70A0000 		.4byte	0xae7
 1726 09cf 28       		.byte	0x28
 1727 09d0 14       		.uleb128 0x14
 1728 09d1 71030000 		.4byte	.LASF132
 1729 09d5 10       		.byte	0x10
 1730 09d6 2201     		.2byte	0x122
 1731 09d8 ED0A0000 		.4byte	0xaed
 1732 09dc 2C       		.byte	0x2c
 1733 09dd 14       		.uleb128 0x14
 1734 09de 44000000 		.4byte	.LASF133
 1735 09e2 10       		.byte	0x10
 1736 09e3 2601     		.2byte	0x126
 1737 09e5 89000000 		.4byte	0x89
 1738 09e9 30       		.byte	0x30
 1739 09ea 00       		.byte	0
 1740 09eb 04       		.uleb128 0x4
 1741 09ec C4040000 		.4byte	.LASF134
 1742 09f0 10       		.byte	0x10
 1743 09f1 AE       		.byte	0xae
 1744 09f2 F6090000 		.4byte	0x9f6
 1745 09f6 09       		.uleb128 0x9
 1746 09f7 04       		.byte	0x4
 1747 09f8 FC090000 		.4byte	0x9fc
 1748 09fc 11       		.uleb128 0x11
 1749 09fd 110A0000 		.4byte	0xa11
 1750 0a01 10       		.uleb128 0x10
ARM GAS  /var/folders/qh/xwg3v3kj02qbxczjpdb8lzfr0000gn/T//ccxFafFa.s 			page 32


 1751 0a02 110A0000 		.4byte	0xa11
 1752 0a06 10       		.uleb128 0x10
 1753 0a07 170A0000 		.4byte	0xa17
 1754 0a0b 10       		.uleb128 0x10
 1755 0a0c 33000000 		.4byte	0x33
 1756 0a10 00       		.byte	0
 1757 0a11 09       		.uleb128 0x9
 1758 0a12 04       		.byte	0x4
 1759 0a13 54090000 		.4byte	0x954
 1760 0a17 09       		.uleb128 0x9
 1761 0a18 04       		.byte	0x4
 1762 0a19 18090000 		.4byte	0x918
 1763 0a1d 04       		.uleb128 0x4
 1764 0a1e F9010000 		.4byte	.LASF135
 1765 0a22 10       		.byte	0x10
 1766 0a23 B7       		.byte	0xb7
 1767 0a24 280A0000 		.4byte	0xa28
 1768 0a28 09       		.uleb128 0x9
 1769 0a29 04       		.byte	0x4
 1770 0a2a 2E0A0000 		.4byte	0xa2e
 1771 0a2e 11       		.uleb128 0x11
 1772 0a2f 3E0A0000 		.4byte	0xa3e
 1773 0a33 10       		.uleb128 0x10
 1774 0a34 110A0000 		.4byte	0xa11
 1775 0a38 10       		.uleb128 0x10
 1776 0a39 49090000 		.4byte	0x949
 1777 0a3d 00       		.byte	0
 1778 0a3e 08       		.uleb128 0x8
 1779 0a3f 1C       		.byte	0x1c
 1780 0a40 10       		.byte	0x10
 1781 0a41 C1       		.byte	0xc1
 1782 0a42 A60A0000 		.4byte	0xaa6
 1783 0a46 06       		.uleb128 0x6
 1784 0a47 55020000 		.4byte	.LASF136
 1785 0a4b 10       		.byte	0x10
 1786 0a4c C5       		.byte	0xc5
 1787 0a4d B4000000 		.4byte	0xb4
 1788 0a51 00       		.byte	0
 1789 0a52 06       		.uleb128 0x6
 1790 0a53 5F060000 		.4byte	.LASF137
 1791 0a57 10       		.byte	0x10
 1792 0a58 C9       		.byte	0xc9
 1793 0a59 23090000 		.4byte	0x923
 1794 0a5d 02       		.byte	0x2
 1795 0a5e 06       		.uleb128 0x6
 1796 0a5f 46020000 		.4byte	.LASF138
 1797 0a63 10       		.byte	0x10
 1798 0a64 CD       		.byte	0xcd
 1799 0a65 EB090000 		.4byte	0x9eb
 1800 0a69 04       		.byte	0x4
 1801 0a6a 06       		.uleb128 0x6
 1802 0a6b C4000000 		.4byte	.LASF139
 1803 0a6f 10       		.byte	0x10
 1804 0a70 D1       		.byte	0xd1
 1805 0a71 1D0A0000 		.4byte	0xa1d
 1806 0a75 08       		.byte	0x8
 1807 0a76 06       		.uleb128 0x6
ARM GAS  /var/folders/qh/xwg3v3kj02qbxczjpdb8lzfr0000gn/T//ccxFafFa.s 			page 33


 1808 0a77 2A060000 		.4byte	.LASF140
 1809 0a7b 10       		.byte	0x10
 1810 0a7c D6       		.byte	0xd6
 1811 0a7d 89000000 		.4byte	0x89
 1812 0a81 0C       		.byte	0xc
 1813 0a82 07       		.uleb128 0x7
 1814 0a83 747200   		.ascii	"tr\000"
 1815 0a86 10       		.byte	0x10
 1816 0a87 DA       		.byte	0xda
 1817 0a88 89000000 		.4byte	0x89
 1818 0a8c 10       		.byte	0x10
 1819 0a8d 06       		.uleb128 0x6
 1820 0a8e 93040000 		.4byte	.LASF141
 1821 0a92 10       		.byte	0x10
 1822 0a93 DE       		.byte	0xde
 1823 0a94 89000000 		.4byte	0x89
 1824 0a98 14       		.byte	0x14
 1825 0a99 06       		.uleb128 0x6
 1826 0a9a 12070000 		.4byte	.LASF142
 1827 0a9e 10       		.byte	0x10
 1828 0a9f E4       		.byte	0xe4
 1829 0aa0 89000000 		.4byte	0x89
 1830 0aa4 18       		.byte	0x18
 1831 0aa5 00       		.byte	0
 1832 0aa6 04       		.uleb128 0x4
 1833 0aa7 4C060000 		.4byte	.LASF143
 1834 0aab 10       		.byte	0x10
 1835 0aac E5       		.byte	0xe5
 1836 0aad 3E0A0000 		.4byte	0xa3e
 1837 0ab1 08       		.uleb128 0x8
 1838 0ab2 04       		.byte	0x4
 1839 0ab3 10       		.byte	0x10
 1840 0ab4 EB       		.byte	0xeb
 1841 0ab5 C60A0000 		.4byte	0xac6
 1842 0ab9 06       		.uleb128 0x6
 1843 0aba B3000000 		.4byte	.LASF144
 1844 0abe 10       		.byte	0x10
 1845 0abf EC       		.byte	0xec
 1846 0ac0 89000000 		.4byte	0x89
 1847 0ac4 00       		.byte	0
 1848 0ac5 00       		.byte	0
 1849 0ac6 04       		.uleb128 0x4
 1850 0ac7 BA040000 		.4byte	.LASF145
 1851 0acb 10       		.byte	0x10
 1852 0acc ED       		.byte	0xed
 1853 0acd B10A0000 		.4byte	0xab1
 1854 0ad1 09       		.uleb128 0x9
 1855 0ad2 04       		.byte	0x4
 1856 0ad3 D70A0000 		.4byte	0xad7
 1857 0ad7 0E       		.uleb128 0xe
 1858 0ad8 C60A0000 		.4byte	0xac6
 1859 0adc 09       		.uleb128 0x9
 1860 0add 04       		.byte	0x4
 1861 0ade E20A0000 		.4byte	0xae2
 1862 0ae2 0E       		.uleb128 0xe
 1863 0ae3 A60A0000 		.4byte	0xaa6
 1864 0ae7 09       		.uleb128 0x9
ARM GAS  /var/folders/qh/xwg3v3kj02qbxczjpdb8lzfr0000gn/T//ccxFafFa.s 			page 34


 1865 0ae8 04       		.byte	0x4
 1866 0ae9 9F060000 		.4byte	0x69f
 1867 0aed 09       		.uleb128 0x9
 1868 0aee 04       		.byte	0x4
 1869 0aef F30A0000 		.4byte	0xaf3
 1870 0af3 0E       		.uleb128 0xe
 1871 0af4 54080000 		.4byte	0x854
 1872 0af8 18       		.uleb128 0x18
 1873 0af9 01       		.byte	0x1
 1874 0afa 11       		.byte	0x11
 1875 0afb 5D       		.byte	0x5d
 1876 0afc 130B0000 		.4byte	0xb13
 1877 0b00 19       		.uleb128 0x19
 1878 0b01 9E060000 		.4byte	.LASF146
 1879 0b05 00       		.sleb128 0
 1880 0b06 19       		.uleb128 0x19
 1881 0b07 24030000 		.4byte	.LASF147
 1882 0b0b 01       		.sleb128 1
 1883 0b0c 19       		.uleb128 0x19
 1884 0b0d 9D050000 		.4byte	.LASF148
 1885 0b11 02       		.sleb128 2
 1886 0b12 00       		.byte	0
 1887 0b13 04       		.uleb128 0x4
 1888 0b14 2E020000 		.4byte	.LASF149
 1889 0b18 11       		.byte	0x11
 1890 0b19 61       		.byte	0x61
 1891 0b1a F80A0000 		.4byte	0xaf8
 1892 0b1e 04       		.uleb128 0x4
 1893 0b1f 16000000 		.4byte	.LASF150
 1894 0b23 11       		.byte	0x11
 1895 0b24 66       		.byte	0x66
 1896 0b25 290B0000 		.4byte	0xb29
 1897 0b29 05       		.uleb128 0x5
 1898 0b2a 16000000 		.4byte	.LASF150
 1899 0b2e 7C       		.byte	0x7c
 1900 0b2f 11       		.byte	0x11
 1901 0b30 80       		.byte	0x80
 1902 0b31 A00B0000 		.4byte	0xba0
 1903 0b35 07       		.uleb128 0x7
 1904 0b36 766D7400 		.ascii	"vmt\000"
 1905 0b3a 11       		.byte	0x11
 1906 0b3b 82       		.byte	0x82
 1907 0b3c 0D0C0000 		.4byte	0xc0d
 1908 0b40 00       		.byte	0
 1909 0b41 06       		.uleb128 0x6
 1910 0b42 38020000 		.4byte	.LASF151
 1911 0b46 11       		.byte	0x11
 1912 0b47 83       		.byte	0x83
 1913 0b48 E6030000 		.4byte	0x3e6
 1914 0b4c 04       		.byte	0x4
 1915 0b4d 06       		.uleb128 0x6
 1916 0b4e 66070000 		.4byte	.LASF125
 1917 0b52 11       		.byte	0x11
 1918 0b53 83       		.byte	0x83
 1919 0b54 130B0000 		.4byte	0xb13
 1920 0b58 08       		.byte	0x8
 1921 0b59 06       		.uleb128 0x6
ARM GAS  /var/folders/qh/xwg3v3kj02qbxczjpdb8lzfr0000gn/T//ccxFafFa.s 			page 35


 1922 0b5a E9010000 		.4byte	.LASF152
 1923 0b5e 11       		.byte	0x11
 1924 0b5f 83       		.byte	0x83
 1925 0b60 FE040000 		.4byte	0x4fe
 1926 0b64 0C       		.byte	0xc
 1927 0b65 06       		.uleb128 0x6
 1928 0b66 62050000 		.4byte	.LASF153
 1929 0b6a 11       		.byte	0x11
 1930 0b6b 83       		.byte	0x83
 1931 0b6c 09050000 		.4byte	0x509
 1932 0b70 30       		.byte	0x30
 1933 0b71 07       		.uleb128 0x7
 1934 0b72 696200   		.ascii	"ib\000"
 1935 0b75 11       		.byte	0x11
 1936 0b76 83       		.byte	0x83
 1937 0b77 180C0000 		.4byte	0xc18
 1938 0b7b 54       		.byte	0x54
 1939 0b7c 07       		.uleb128 0x7
 1940 0b7d 6F6200   		.ascii	"ob\000"
 1941 0b80 11       		.byte	0x11
 1942 0b81 83       		.byte	0x83
 1943 0b82 180C0000 		.4byte	0xc18
 1944 0b86 64       		.byte	0x64
 1945 0b87 06       		.uleb128 0x6
 1946 0b88 60040000 		.4byte	.LASF154
 1947 0b8c 11       		.byte	0x11
 1948 0b8d 83       		.byte	0x83
 1949 0b8e 280C0000 		.4byte	0xc28
 1950 0b92 74       		.byte	0x74
 1951 0b93 06       		.uleb128 0x6
 1952 0b94 8E030000 		.4byte	.LASF155
 1953 0b98 11       		.byte	0x11
 1954 0b99 83       		.byte	0x83
 1955 0b9a 89000000 		.4byte	0x89
 1956 0b9e 78       		.byte	0x78
 1957 0b9f 00       		.byte	0
 1958 0ba0 05       		.uleb128 0x5
 1959 0ba1 A6050000 		.4byte	.LASF156
 1960 0ba5 20       		.byte	0x20
 1961 0ba6 11       		.byte	0x11
 1962 0ba7 75       		.byte	0x75
 1963 0ba8 0D0C0000 		.4byte	0xc0d
 1964 0bac 06       		.uleb128 0x6
 1965 0bad 84040000 		.4byte	.LASF84
 1966 0bb1 11       		.byte	0x11
 1967 0bb2 76       		.byte	0x76
 1968 0bb3 75050000 		.4byte	0x575
 1969 0bb7 00       		.byte	0
 1970 0bb8 06       		.uleb128 0x6
 1971 0bb9 8D060000 		.4byte	.LASF85
 1972 0bbd 11       		.byte	0x11
 1973 0bbe 76       		.byte	0x76
 1974 0bbf 94050000 		.4byte	0x594
 1975 0bc3 04       		.byte	0x4
 1976 0bc4 07       		.uleb128 0x7
 1977 0bc5 70757400 		.ascii	"put\000"
 1978 0bc9 11       		.byte	0x11
ARM GAS  /var/folders/qh/xwg3v3kj02qbxczjpdb8lzfr0000gn/T//ccxFafFa.s 			page 36


 1979 0bca 76       		.byte	0x76
 1980 0bcb AE050000 		.4byte	0x5ae
 1981 0bcf 08       		.byte	0x8
 1982 0bd0 07       		.uleb128 0x7
 1983 0bd1 67657400 		.ascii	"get\000"
 1984 0bd5 11       		.byte	0x11
 1985 0bd6 76       		.byte	0x76
 1986 0bd7 49040000 		.4byte	0x449
 1987 0bdb 0C       		.byte	0xc
 1988 0bdc 06       		.uleb128 0x6
 1989 0bdd C4020000 		.4byte	.LASF157
 1990 0be1 11       		.byte	0x11
 1991 0be2 76       		.byte	0x76
 1992 0be3 78080000 		.4byte	0x878
 1993 0be7 10       		.byte	0x10
 1994 0be8 06       		.uleb128 0x6
 1995 0be9 C5060000 		.4byte	.LASF158
 1996 0bed 11       		.byte	0x11
 1997 0bee 76       		.byte	0x76
 1998 0bef 92080000 		.4byte	0x892
 1999 0bf3 14       		.byte	0x14
 2000 0bf4 06       		.uleb128 0x6
 2001 0bf5 D7010000 		.4byte	.LASF159
 2002 0bf9 11       		.byte	0x11
 2003 0bfa 76       		.byte	0x76
 2004 0bfb B6080000 		.4byte	0x8b6
 2005 0bff 18       		.byte	0x18
 2006 0c00 06       		.uleb128 0x6
 2007 0c01 A9070000 		.4byte	.LASF160
 2008 0c05 11       		.byte	0x11
 2009 0c06 76       		.byte	0x76
 2010 0c07 DA080000 		.4byte	0x8da
 2011 0c0b 1C       		.byte	0x1c
 2012 0c0c 00       		.byte	0
 2013 0c0d 09       		.uleb128 0x9
 2014 0c0e 04       		.byte	0x4
 2015 0c0f 130C0000 		.4byte	0xc13
 2016 0c13 0E       		.uleb128 0xe
 2017 0c14 A00B0000 		.4byte	0xba0
 2018 0c18 15       		.uleb128 0x15
 2019 0c19 4C000000 		.4byte	0x4c
 2020 0c1d 280C0000 		.4byte	0xc28
 2021 0c21 16       		.uleb128 0x16
 2022 0c22 31030000 		.4byte	0x331
 2023 0c26 0F       		.byte	0xf
 2024 0c27 00       		.byte	0
 2025 0c28 09       		.uleb128 0x9
 2026 0c29 04       		.byte	0x4
 2027 0c2a F7070000 		.4byte	0x7f7
 2028 0c2e 09       		.uleb128 0x9
 2029 0c2f 04       		.byte	0x4
 2030 0c30 D4050000 		.4byte	0x5d4
 2031 0c34 09       		.uleb128 0x9
 2032 0c35 04       		.byte	0x4
 2033 0c36 3A0C0000 		.4byte	0xc3a
 2034 0c3a 09       		.uleb128 0x9
 2035 0c3b 04       		.byte	0x4
ARM GAS  /var/folders/qh/xwg3v3kj02qbxczjpdb8lzfr0000gn/T//ccxFafFa.s 			page 37


 2036 0c3c 31040000 		.4byte	0x431
 2037 0c40 04       		.uleb128 0x4
 2038 0c41 B5020000 		.4byte	.LASF161
 2039 0c45 12       		.byte	0x12
 2040 0c46 28       		.byte	0x28
 2041 0c47 4B0C0000 		.4byte	0xc4b
 2042 0c4b 05       		.uleb128 0x5
 2043 0c4c 8C070000 		.4byte	.LASF162
 2044 0c50 04       		.byte	0x4
 2045 0c51 13       		.byte	0x13
 2046 0c52 00       		.byte	0
 2047 0c53 620C0000 		.4byte	0xc62
 2048 0c57 1A       		.uleb128 0x1a
 2049 0c58 DA040000 		.4byte	.LASF163
 2050 0c5c 8E020000 		.4byte	0x28e
 2051 0c60 00       		.byte	0
 2052 0c61 00       		.byte	0
 2053 0c62 04       		.uleb128 0x4
 2054 0c63 66040000 		.4byte	.LASF164
 2055 0c67 12       		.byte	0x12
 2056 0c68 62       		.byte	0x62
 2057 0c69 400C0000 		.4byte	0xc40
 2058 0c6d 1B       		.uleb128 0x1b
 2059 0c6e 78030000 		.4byte	.LASF191
 2060 0c72 01       		.byte	0x1
 2061 0c73 45       		.byte	0x45
 2062 0c74 00000000 		.4byte	.LFB40
 2063 0c78 1A000000 		.4byte	.LFE40-.LFB40
 2064 0c7c 01       		.uleb128 0x1
 2065 0c7d 9C       		.byte	0x9c
 2066 0c7e CC0C0000 		.4byte	0xccc
 2067 0c82 1C       		.uleb128 0x1c
 2068 0c83 63687000 		.ascii	"chp\000"
 2069 0c87 01       		.byte	0x1
 2070 0c88 45       		.byte	0x45
 2071 0c89 2E0C0000 		.4byte	0xc2e
 2072 0c8d 00000000 		.4byte	.LLST0
 2073 0c91 1D       		.uleb128 0x1d
 2074 0c92 666D7400 		.ascii	"fmt\000"
 2075 0c96 01       		.byte	0x1
 2076 0c97 45       		.byte	0x45
 2077 0c98 26040000 		.4byte	0x426
 2078 0c9c 02       		.uleb128 0x2
 2079 0c9d 91       		.byte	0x91
 2080 0c9e 74       		.sleb128 -12
 2081 0c9f 1E       		.uleb128 0x1e
 2082 0ca0 1F       		.uleb128 0x1f
 2083 0ca1 617000   		.ascii	"ap\000"
 2084 0ca4 01       		.byte	0x1
 2085 0ca5 46       		.byte	0x46
 2086 0ca6 620C0000 		.4byte	0xc62
 2087 0caa 02       		.uleb128 0x2
 2088 0cab 91       		.byte	0x91
 2089 0cac 6C       		.sleb128 -20
 2090 0cad 20       		.uleb128 0x20
 2091 0cae 12000000 		.4byte	.LVL1
 2092 0cb2 C0110000 		.4byte	0x11c0
ARM GAS  /var/folders/qh/xwg3v3kj02qbxczjpdb8lzfr0000gn/T//ccxFafFa.s 			page 38


 2093 0cb6 21       		.uleb128 0x21
 2094 0cb7 01       		.uleb128 0x1
 2095 0cb8 52       		.byte	0x52
 2096 0cb9 02       		.uleb128 0x2
 2097 0cba 91       		.byte	0x91
 2098 0cbb 60       		.sleb128 -32
 2099 0cbc 21       		.uleb128 0x21
 2100 0cbd 01       		.uleb128 0x1
 2101 0cbe 51       		.byte	0x51
 2102 0cbf 03       		.uleb128 0x3
 2103 0cc0 91       		.byte	0x91
 2104 0cc1 5C       		.sleb128 -36
 2105 0cc2 06       		.byte	0x6
 2106 0cc3 21       		.uleb128 0x21
 2107 0cc4 01       		.uleb128 0x1
 2108 0cc5 50       		.byte	0x50
 2109 0cc6 03       		.uleb128 0x3
 2110 0cc7 F3       		.byte	0xf3
 2111 0cc8 01       		.uleb128 0x1
 2112 0cc9 50       		.byte	0x50
 2113 0cca 00       		.byte	0
 2114 0ccb 00       		.byte	0
 2115 0ccc 22       		.uleb128 0x22
 2116 0ccd 5D030000 		.4byte	.LASF170
 2117 0cd1 02       		.byte	0x2
 2118 0cd2 0D       		.byte	0xd
 2119 0cd3 00000000 		.4byte	.LFB41
 2120 0cd7 80000000 		.4byte	.LFE41-.LFB41
 2121 0cdb 01       		.uleb128 0x1
 2122 0cdc 9C       		.byte	0x9c
 2123 0cdd C90D0000 		.4byte	0xdc9
 2124 0ce1 1C       		.uleb128 0x1c
 2125 0ce2 63687000 		.ascii	"chp\000"
 2126 0ce6 02       		.byte	0x2
 2127 0ce7 0D       		.byte	0xd
 2128 0ce8 2E0C0000 		.4byte	0xc2e
 2129 0cec 21000000 		.4byte	.LLST1
 2130 0cf0 23       		.uleb128 0x23
 2131 0cf1 2C030000 		.4byte	.LASF165
 2132 0cf5 02       		.byte	0x2
 2133 0cf6 0D       		.byte	0xd
 2134 0cf7 2C000000 		.4byte	0x2c
 2135 0cfb 4D000000 		.4byte	.LLST2
 2136 0cff 23       		.uleb128 0x23
 2137 0d00 50050000 		.4byte	.LASF166
 2138 0d04 02       		.byte	0x2
 2139 0d05 0D       		.byte	0xd
 2140 0d06 340C0000 		.4byte	0xc34
 2141 0d0a 6E000000 		.4byte	.LLST3
 2142 0d0e 24       		.uleb128 0x24
 2143 0d0f 2C070000 		.4byte	.LASF167
 2144 0d13 02       		.byte	0x2
 2145 0d14 0F       		.byte	0xf
 2146 0d15 C90D0000 		.4byte	0xdc9
 2147 0d19 05       		.uleb128 0x5
 2148 0d1a 03       		.byte	0x3
 2149 0d1b 00000000 		.4byte	adcTempArea.6161
ARM GAS  /var/folders/qh/xwg3v3kj02qbxczjpdb8lzfr0000gn/T//ccxFafFa.s 			page 39


 2150 0d1f 25       		.uleb128 0x25
 2151 0d20 B3040000 		.4byte	.LASF181
 2152 0d24 02       		.byte	0x2
 2153 0d25 17       		.byte	0x17
 2154 0d26 D90D0000 		.4byte	0xdd9
 2155 0d2a 26       		.uleb128 0x26
 2156 0d2b 86070000 		.4byte	.LASF168
 2157 0d2f 02       		.byte	0x2
 2158 0d30 18       		.byte	0x18
 2159 0d31 D90D0000 		.4byte	0xdd9
 2160 0d35 04       		.byte	0x4
 2161 0d36 D7A34841 		.4byte	0x4148a3d7
 2162 0d3a 27       		.uleb128 0x27
 2163 0d3b 18000000 		.4byte	.LVL6
 2164 0d3f 6D0C0000 		.4byte	0xc6d
 2165 0d43 570D0000 		.4byte	0xd57
 2166 0d47 21       		.uleb128 0x21
 2167 0d48 01       		.uleb128 0x1
 2168 0d49 51       		.byte	0x51
 2169 0d4a 05       		.uleb128 0x5
 2170 0d4b 03       		.byte	0x3
 2171 0d4c 00000000 		.4byte	.LC1
 2172 0d50 21       		.uleb128 0x21
 2173 0d51 01       		.uleb128 0x1
 2174 0d52 50       		.byte	0x50
 2175 0d53 02       		.uleb128 0x2
 2176 0d54 75       		.byte	0x75
 2177 0d55 00       		.sleb128 0
 2178 0d56 00       		.byte	0
 2179 0d57 27       		.uleb128 0x27
 2180 0d58 2A000000 		.4byte	.LVL7
 2181 0d5c DB110000 		.4byte	0x11db
 2182 0d60 810D0000 		.4byte	0xd81
 2183 0d64 21       		.uleb128 0x21
 2184 0d65 01       		.uleb128 0x1
 2185 0d66 52       		.byte	0x52
 2186 0d67 02       		.uleb128 0x2
 2187 0d68 08       		.byte	0x8
 2188 0d69 40       		.byte	0x40
 2189 0d6a 21       		.uleb128 0x21
 2190 0d6b 01       		.uleb128 0x1
 2191 0d6c 51       		.byte	0x51
 2192 0d6d 03       		.uleb128 0x3
 2193 0d6e 0A       		.byte	0xa
 2194 0d6f 3001     		.2byte	0x130
 2195 0d71 21       		.uleb128 0x21
 2196 0d72 01       		.uleb128 0x1
 2197 0d73 50       		.byte	0x50
 2198 0d74 05       		.uleb128 0x5
 2199 0d75 03       		.byte	0x3
 2200 0d76 00000000 		.4byte	.LANCHOR0
 2201 0d7a 21       		.uleb128 0x21
 2202 0d7b 02       		.uleb128 0x2
 2203 0d7c 7D       		.byte	0x7d
 2204 0d7d 00       		.sleb128 0
 2205 0d7e 01       		.uleb128 0x1
 2206 0d7f 30       		.byte	0x30
ARM GAS  /var/folders/qh/xwg3v3kj02qbxczjpdb8lzfr0000gn/T//ccxFafFa.s 			page 40


 2207 0d80 00       		.byte	0
 2208 0d81 27       		.uleb128 0x27
 2209 0d82 3C000000 		.4byte	.LVL8
 2210 0d86 6D0C0000 		.4byte	0xc6d
 2211 0d8a 9B0D0000 		.4byte	0xd9b
 2212 0d8e 21       		.uleb128 0x21
 2213 0d8f 01       		.uleb128 0x1
 2214 0d90 51       		.byte	0x51
 2215 0d91 02       		.uleb128 0x2
 2216 0d92 76       		.byte	0x76
 2217 0d93 00       		.sleb128 0
 2218 0d94 21       		.uleb128 0x21
 2219 0d95 01       		.uleb128 0x1
 2220 0d96 50       		.byte	0x50
 2221 0d97 02       		.uleb128 0x2
 2222 0d98 75       		.byte	0x75
 2223 0d99 00       		.sleb128 0
 2224 0d9a 00       		.byte	0
 2225 0d9b 20       		.uleb128 0x20
 2226 0d9c 4E000000 		.4byte	.LVL10
 2227 0da0 6D0C0000 		.4byte	0xc6d
 2228 0da4 21       		.uleb128 0x21
 2229 0da5 06       		.uleb128 0x6
 2230 0da6 52       		.byte	0x52
 2231 0da7 93       		.byte	0x93
 2232 0da8 04       		.uleb128 0x4
 2233 0da9 53       		.byte	0x53
 2234 0daa 93       		.byte	0x93
 2235 0dab 04       		.uleb128 0x4
 2236 0dac 0B       		.uleb128 0xb
 2237 0dad F4       		.byte	0xf4
 2238 0dae 25       		.uleb128 0x25
 2239 0daf 08       		.byte	0x8
 2240 0db0 000000E0 		.4byte	0xe0000000
 2241 0db4 7A142940 		.4byte	0x4029147a
 2242 0db8 21       		.uleb128 0x21
 2243 0db9 01       		.uleb128 0x1
 2244 0dba 51       		.byte	0x51
 2245 0dbb 05       		.uleb128 0x5
 2246 0dbc 03       		.byte	0x3
 2247 0dbd 20000000 		.4byte	.LC6
 2248 0dc1 21       		.uleb128 0x21
 2249 0dc2 01       		.uleb128 0x1
 2250 0dc3 50       		.byte	0x50
 2251 0dc4 02       		.uleb128 0x2
 2252 0dc5 77       		.byte	0x77
 2253 0dc6 00       		.sleb128 0
 2254 0dc7 00       		.byte	0
 2255 0dc8 00       		.byte	0
 2256 0dc9 15       		.uleb128 0x15
 2257 0dca 90020000 		.4byte	0x290
 2258 0dce D90D0000 		.4byte	0xdd9
 2259 0dd2 16       		.uleb128 0x16
 2260 0dd3 31030000 		.4byte	0x331
 2261 0dd7 25       		.byte	0x25
 2262 0dd8 00       		.byte	0
 2263 0dd9 02       		.uleb128 0x2
ARM GAS  /var/folders/qh/xwg3v3kj02qbxczjpdb8lzfr0000gn/T//ccxFafFa.s 			page 41


 2264 0dda 04       		.byte	0x4
 2265 0ddb 04       		.byte	0x4
 2266 0ddc 22020000 		.4byte	.LASF169
 2267 0de0 22       		.uleb128 0x22
 2268 0de1 CD070000 		.4byte	.LASF171
 2269 0de5 02       		.byte	0x2
 2270 0de6 1C       		.byte	0x1c
 2271 0de7 00000000 		.4byte	.LFB42
 2272 0deb 10000000 		.4byte	.LFE42-.LFB42
 2273 0def 01       		.uleb128 0x1
 2274 0df0 9C       		.byte	0x9c
 2275 0df1 3D0E0000 		.4byte	0xe3d
 2276 0df5 1C       		.uleb128 0x1c
 2277 0df6 63687000 		.ascii	"chp\000"
 2278 0dfa 02       		.byte	0x2
 2279 0dfb 1C       		.byte	0x1c
 2280 0dfc 2E0C0000 		.4byte	0xc2e
 2281 0e00 8F000000 		.4byte	.LLST4
 2282 0e04 23       		.uleb128 0x23
 2283 0e05 2C030000 		.4byte	.LASF165
 2284 0e09 02       		.byte	0x2
 2285 0e0a 1C       		.byte	0x1c
 2286 0e0b 2C000000 		.4byte	0x2c
 2287 0e0f B0000000 		.4byte	.LLST5
 2288 0e13 23       		.uleb128 0x23
 2289 0e14 50050000 		.4byte	.LASF166
 2290 0e18 02       		.byte	0x2
 2291 0e19 1C       		.byte	0x1c
 2292 0e1a 340C0000 		.4byte	0xc34
 2293 0e1e D1000000 		.4byte	.LLST6
 2294 0e22 20       		.uleb128 0x20
 2295 0e23 08000000 		.4byte	.LVL14
 2296 0e27 6D0C0000 		.4byte	0xc6d
 2297 0e2b 21       		.uleb128 0x21
 2298 0e2c 01       		.uleb128 0x1
 2299 0e2d 51       		.byte	0x51
 2300 0e2e 05       		.uleb128 0x5
 2301 0e2f 03       		.byte	0x3
 2302 0e30 3C000000 		.4byte	.LC10
 2303 0e34 21       		.uleb128 0x21
 2304 0e35 01       		.uleb128 0x1
 2305 0e36 50       		.byte	0x50
 2306 0e37 03       		.uleb128 0x3
 2307 0e38 F3       		.byte	0xf3
 2308 0e39 01       		.uleb128 0x1
 2309 0e3a 50       		.byte	0x50
 2310 0e3b 00       		.byte	0
 2311 0e3c 00       		.byte	0
 2312 0e3d 22       		.uleb128 0x22
 2313 0e3e 78070000 		.4byte	.LASF172
 2314 0e42 02       		.byte	0x2
 2315 0e43 2C       		.byte	0x2c
 2316 0e44 00000000 		.4byte	.LFB43
 2317 0e48 10000000 		.4byte	.LFE43-.LFB43
 2318 0e4c 01       		.uleb128 0x1
 2319 0e4d 9C       		.byte	0x9c
 2320 0e4e 9A0E0000 		.4byte	0xe9a
ARM GAS  /var/folders/qh/xwg3v3kj02qbxczjpdb8lzfr0000gn/T//ccxFafFa.s 			page 42


 2321 0e52 1C       		.uleb128 0x1c
 2322 0e53 63687000 		.ascii	"chp\000"
 2323 0e57 02       		.byte	0x2
 2324 0e58 2C       		.byte	0x2c
 2325 0e59 2E0C0000 		.4byte	0xc2e
 2326 0e5d F2000000 		.4byte	.LLST7
 2327 0e61 23       		.uleb128 0x23
 2328 0e62 2C030000 		.4byte	.LASF165
 2329 0e66 02       		.byte	0x2
 2330 0e67 2C       		.byte	0x2c
 2331 0e68 2C000000 		.4byte	0x2c
 2332 0e6c 13010000 		.4byte	.LLST8
 2333 0e70 23       		.uleb128 0x23
 2334 0e71 50050000 		.4byte	.LASF166
 2335 0e75 02       		.byte	0x2
 2336 0e76 2C       		.byte	0x2c
 2337 0e77 340C0000 		.4byte	0xc34
 2338 0e7b 34010000 		.4byte	.LLST9
 2339 0e7f 20       		.uleb128 0x20
 2340 0e80 08000000 		.4byte	.LVL17
 2341 0e84 6D0C0000 		.4byte	0xc6d
 2342 0e88 21       		.uleb128 0x21
 2343 0e89 01       		.uleb128 0x1
 2344 0e8a 51       		.byte	0x51
 2345 0e8b 05       		.uleb128 0x5
 2346 0e8c 03       		.byte	0x3
 2347 0e8d 3C000000 		.4byte	.LC10
 2348 0e91 21       		.uleb128 0x21
 2349 0e92 01       		.uleb128 0x1
 2350 0e93 50       		.byte	0x50
 2351 0e94 03       		.uleb128 0x3
 2352 0e95 F3       		.byte	0xf3
 2353 0e96 01       		.uleb128 0x1
 2354 0e97 50       		.byte	0x50
 2355 0e98 00       		.byte	0
 2356 0e99 00       		.byte	0
 2357 0e9a 22       		.uleb128 0x22
 2358 0e9b FD040000 		.4byte	.LASF173
 2359 0e9f 02       		.byte	0x2
 2360 0ea0 44       		.byte	0x44
 2361 0ea1 00000000 		.4byte	.LFB44
 2362 0ea5 10000000 		.4byte	.LFE44-.LFB44
 2363 0ea9 01       		.uleb128 0x1
 2364 0eaa 9C       		.byte	0x9c
 2365 0eab F70E0000 		.4byte	0xef7
 2366 0eaf 1C       		.uleb128 0x1c
 2367 0eb0 63687000 		.ascii	"chp\000"
 2368 0eb4 02       		.byte	0x2
 2369 0eb5 44       		.byte	0x44
 2370 0eb6 2E0C0000 		.4byte	0xc2e
 2371 0eba 55010000 		.4byte	.LLST10
 2372 0ebe 23       		.uleb128 0x23
 2373 0ebf 2C030000 		.4byte	.LASF165
 2374 0ec3 02       		.byte	0x2
 2375 0ec4 44       		.byte	0x44
 2376 0ec5 2C000000 		.4byte	0x2c
 2377 0ec9 76010000 		.4byte	.LLST11
ARM GAS  /var/folders/qh/xwg3v3kj02qbxczjpdb8lzfr0000gn/T//ccxFafFa.s 			page 43


 2378 0ecd 23       		.uleb128 0x23
 2379 0ece 50050000 		.4byte	.LASF166
 2380 0ed2 02       		.byte	0x2
 2381 0ed3 44       		.byte	0x44
 2382 0ed4 340C0000 		.4byte	0xc34
 2383 0ed8 97010000 		.4byte	.LLST12
 2384 0edc 20       		.uleb128 0x20
 2385 0edd 08000000 		.4byte	.LVL20
 2386 0ee1 6D0C0000 		.4byte	0xc6d
 2387 0ee5 21       		.uleb128 0x21
 2388 0ee6 01       		.uleb128 0x1
 2389 0ee7 51       		.byte	0x51
 2390 0ee8 05       		.uleb128 0x5
 2391 0ee9 03       		.byte	0x3
 2392 0eea 3C000000 		.4byte	.LC10
 2393 0eee 21       		.uleb128 0x21
 2394 0eef 01       		.uleb128 0x1
 2395 0ef0 50       		.byte	0x50
 2396 0ef1 03       		.uleb128 0x3
 2397 0ef2 F3       		.byte	0xf3
 2398 0ef3 01       		.uleb128 0x1
 2399 0ef4 50       		.byte	0x50
 2400 0ef5 00       		.byte	0
 2401 0ef6 00       		.byte	0
 2402 0ef7 22       		.uleb128 0x22
 2403 0ef8 EC040000 		.4byte	.LASF174
 2404 0efc 02       		.byte	0x2
 2405 0efd 54       		.byte	0x54
 2406 0efe 00000000 		.4byte	.LFB45
 2407 0f02 10000000 		.4byte	.LFE45-.LFB45
 2408 0f06 01       		.uleb128 0x1
 2409 0f07 9C       		.byte	0x9c
 2410 0f08 540F0000 		.4byte	0xf54
 2411 0f0c 1C       		.uleb128 0x1c
 2412 0f0d 63687000 		.ascii	"chp\000"
 2413 0f11 02       		.byte	0x2
 2414 0f12 54       		.byte	0x54
 2415 0f13 2E0C0000 		.4byte	0xc2e
 2416 0f17 B8010000 		.4byte	.LLST13
 2417 0f1b 23       		.uleb128 0x23
 2418 0f1c 2C030000 		.4byte	.LASF165
 2419 0f20 02       		.byte	0x2
 2420 0f21 54       		.byte	0x54
 2421 0f22 2C000000 		.4byte	0x2c
 2422 0f26 D9010000 		.4byte	.LLST14
 2423 0f2a 23       		.uleb128 0x23
 2424 0f2b 50050000 		.4byte	.LASF166
 2425 0f2f 02       		.byte	0x2
 2426 0f30 54       		.byte	0x54
 2427 0f31 340C0000 		.4byte	0xc34
 2428 0f35 FA010000 		.4byte	.LLST15
 2429 0f39 20       		.uleb128 0x20
 2430 0f3a 08000000 		.4byte	.LVL23
 2431 0f3e 6D0C0000 		.4byte	0xc6d
 2432 0f42 21       		.uleb128 0x21
 2433 0f43 01       		.uleb128 0x1
 2434 0f44 51       		.byte	0x51
ARM GAS  /var/folders/qh/xwg3v3kj02qbxczjpdb8lzfr0000gn/T//ccxFafFa.s 			page 44


 2435 0f45 05       		.uleb128 0x5
 2436 0f46 03       		.byte	0x3
 2437 0f47 3C000000 		.4byte	.LC10
 2438 0f4b 21       		.uleb128 0x21
 2439 0f4c 01       		.uleb128 0x1
 2440 0f4d 50       		.byte	0x50
 2441 0f4e 03       		.uleb128 0x3
 2442 0f4f F3       		.byte	0xf3
 2443 0f50 01       		.uleb128 0x1
 2444 0f51 50       		.byte	0x50
 2445 0f52 00       		.byte	0
 2446 0f53 00       		.byte	0
 2447 0f54 22       		.uleb128 0x22
 2448 0f55 E7070000 		.4byte	.LASF175
 2449 0f59 02       		.byte	0x2
 2450 0f5a 68       		.byte	0x68
 2451 0f5b 00000000 		.4byte	.LFB46
 2452 0f5f 10000000 		.4byte	.LFE46-.LFB46
 2453 0f63 01       		.uleb128 0x1
 2454 0f64 9C       		.byte	0x9c
 2455 0f65 B10F0000 		.4byte	0xfb1
 2456 0f69 1C       		.uleb128 0x1c
 2457 0f6a 63687000 		.ascii	"chp\000"
 2458 0f6e 02       		.byte	0x2
 2459 0f6f 68       		.byte	0x68
 2460 0f70 2E0C0000 		.4byte	0xc2e
 2461 0f74 1B020000 		.4byte	.LLST16
 2462 0f78 23       		.uleb128 0x23
 2463 0f79 2C030000 		.4byte	.LASF165
 2464 0f7d 02       		.byte	0x2
 2465 0f7e 68       		.byte	0x68
 2466 0f7f 2C000000 		.4byte	0x2c
 2467 0f83 3C020000 		.4byte	.LLST17
 2468 0f87 23       		.uleb128 0x23
 2469 0f88 50050000 		.4byte	.LASF166
 2470 0f8c 02       		.byte	0x2
 2471 0f8d 68       		.byte	0x68
 2472 0f8e 340C0000 		.4byte	0xc34
 2473 0f92 5D020000 		.4byte	.LLST18
 2474 0f96 20       		.uleb128 0x20
 2475 0f97 08000000 		.4byte	.LVL26
 2476 0f9b 6D0C0000 		.4byte	0xc6d
 2477 0f9f 21       		.uleb128 0x21
 2478 0fa0 01       		.uleb128 0x1
 2479 0fa1 51       		.byte	0x51
 2480 0fa2 05       		.uleb128 0x5
 2481 0fa3 03       		.byte	0x3
 2482 0fa4 3C000000 		.4byte	.LC10
 2483 0fa8 21       		.uleb128 0x21
 2484 0fa9 01       		.uleb128 0x1
 2485 0faa 50       		.byte	0x50
 2486 0fab 03       		.uleb128 0x3
 2487 0fac F3       		.byte	0xf3
 2488 0fad 01       		.uleb128 0x1
 2489 0fae 50       		.byte	0x50
 2490 0faf 00       		.byte	0
 2491 0fb0 00       		.byte	0
ARM GAS  /var/folders/qh/xwg3v3kj02qbxczjpdb8lzfr0000gn/T//ccxFafFa.s 			page 45


 2492 0fb1 22       		.uleb128 0x22
 2493 0fb2 A4040000 		.4byte	.LASF176
 2494 0fb6 02       		.byte	0x2
 2495 0fb7 75       		.byte	0x75
 2496 0fb8 00000000 		.4byte	.LFB47
 2497 0fbc 10000000 		.4byte	.LFE47-.LFB47
 2498 0fc0 01       		.uleb128 0x1
 2499 0fc1 9C       		.byte	0x9c
 2500 0fc2 0E100000 		.4byte	0x100e
 2501 0fc6 1C       		.uleb128 0x1c
 2502 0fc7 63687000 		.ascii	"chp\000"
 2503 0fcb 02       		.byte	0x2
 2504 0fcc 75       		.byte	0x75
 2505 0fcd 2E0C0000 		.4byte	0xc2e
 2506 0fd1 7E020000 		.4byte	.LLST19
 2507 0fd5 23       		.uleb128 0x23
 2508 0fd6 2C030000 		.4byte	.LASF165
 2509 0fda 02       		.byte	0x2
 2510 0fdb 75       		.byte	0x75
 2511 0fdc 2C000000 		.4byte	0x2c
 2512 0fe0 9F020000 		.4byte	.LLST20
 2513 0fe4 23       		.uleb128 0x23
 2514 0fe5 50050000 		.4byte	.LASF166
 2515 0fe9 02       		.byte	0x2
 2516 0fea 75       		.byte	0x75
 2517 0feb 340C0000 		.4byte	0xc34
 2518 0fef C0020000 		.4byte	.LLST21
 2519 0ff3 20       		.uleb128 0x20
 2520 0ff4 08000000 		.4byte	.LVL29
 2521 0ff8 6D0C0000 		.4byte	0xc6d
 2522 0ffc 21       		.uleb128 0x21
 2523 0ffd 01       		.uleb128 0x1
 2524 0ffe 51       		.byte	0x51
 2525 0fff 05       		.uleb128 0x5
 2526 1000 03       		.byte	0x3
 2527 1001 3C000000 		.4byte	.LC10
 2528 1005 21       		.uleb128 0x21
 2529 1006 01       		.uleb128 0x1
 2530 1007 50       		.byte	0x50
 2531 1008 03       		.uleb128 0x3
 2532 1009 F3       		.byte	0xf3
 2533 100a 01       		.uleb128 0x1
 2534 100b 50       		.byte	0x50
 2535 100c 00       		.byte	0
 2536 100d 00       		.byte	0
 2537 100e 22       		.uleb128 0x22
 2538 100f 7C020000 		.4byte	.LASF177
 2539 1013 02       		.byte	0x2
 2540 1014 7B       		.byte	0x7b
 2541 1015 00000000 		.4byte	.LFB48
 2542 1019 10000000 		.4byte	.LFE48-.LFB48
 2543 101d 01       		.uleb128 0x1
 2544 101e 9C       		.byte	0x9c
 2545 101f 6B100000 		.4byte	0x106b
 2546 1023 1C       		.uleb128 0x1c
 2547 1024 63687000 		.ascii	"chp\000"
 2548 1028 02       		.byte	0x2
ARM GAS  /var/folders/qh/xwg3v3kj02qbxczjpdb8lzfr0000gn/T//ccxFafFa.s 			page 46


 2549 1029 7B       		.byte	0x7b
 2550 102a 2E0C0000 		.4byte	0xc2e
 2551 102e E1020000 		.4byte	.LLST22
 2552 1032 23       		.uleb128 0x23
 2553 1033 2C030000 		.4byte	.LASF165
 2554 1037 02       		.byte	0x2
 2555 1038 7B       		.byte	0x7b
 2556 1039 2C000000 		.4byte	0x2c
 2557 103d 02030000 		.4byte	.LLST23
 2558 1041 23       		.uleb128 0x23
 2559 1042 50050000 		.4byte	.LASF166
 2560 1046 02       		.byte	0x2
 2561 1047 7B       		.byte	0x7b
 2562 1048 340C0000 		.4byte	0xc34
 2563 104c 23030000 		.4byte	.LLST24
 2564 1050 20       		.uleb128 0x20
 2565 1051 08000000 		.4byte	.LVL32
 2566 1055 6D0C0000 		.4byte	0xc6d
 2567 1059 21       		.uleb128 0x21
 2568 105a 01       		.uleb128 0x1
 2569 105b 51       		.byte	0x51
 2570 105c 05       		.uleb128 0x5
 2571 105d 03       		.byte	0x3
 2572 105e 3C000000 		.4byte	.LC10
 2573 1062 21       		.uleb128 0x21
 2574 1063 01       		.uleb128 0x1
 2575 1064 50       		.byte	0x50
 2576 1065 03       		.uleb128 0x3
 2577 1066 F3       		.byte	0xf3
 2578 1067 01       		.uleb128 0x1
 2579 1068 50       		.byte	0x50
 2580 1069 00       		.byte	0
 2581 106a 00       		.byte	0
 2582 106b 22       		.uleb128 0x22
 2583 106c 59040000 		.4byte	.LASF178
 2584 1070 02       		.byte	0x2
 2585 1071 89       		.byte	0x89
 2586 1072 00000000 		.4byte	.LFB49
 2587 1076 10000000 		.4byte	.LFE49-.LFB49
 2588 107a 01       		.uleb128 0x1
 2589 107b 9C       		.byte	0x9c
 2590 107c C8100000 		.4byte	0x10c8
 2591 1080 1C       		.uleb128 0x1c
 2592 1081 63687000 		.ascii	"chp\000"
 2593 1085 02       		.byte	0x2
 2594 1086 89       		.byte	0x89
 2595 1087 2E0C0000 		.4byte	0xc2e
 2596 108b 44030000 		.4byte	.LLST25
 2597 108f 23       		.uleb128 0x23
 2598 1090 2C030000 		.4byte	.LASF165
 2599 1094 02       		.byte	0x2
 2600 1095 89       		.byte	0x89
 2601 1096 2C000000 		.4byte	0x2c
 2602 109a 65030000 		.4byte	.LLST26
 2603 109e 23       		.uleb128 0x23
 2604 109f 50050000 		.4byte	.LASF166
 2605 10a3 02       		.byte	0x2
ARM GAS  /var/folders/qh/xwg3v3kj02qbxczjpdb8lzfr0000gn/T//ccxFafFa.s 			page 47


 2606 10a4 89       		.byte	0x89
 2607 10a5 340C0000 		.4byte	0xc34
 2608 10a9 86030000 		.4byte	.LLST27
 2609 10ad 20       		.uleb128 0x20
 2610 10ae 08000000 		.4byte	.LVL35
 2611 10b2 6D0C0000 		.4byte	0xc6d
 2612 10b6 21       		.uleb128 0x21
 2613 10b7 01       		.uleb128 0x1
 2614 10b8 51       		.byte	0x51
 2615 10b9 05       		.uleb128 0x5
 2616 10ba 03       		.byte	0x3
 2617 10bb 3C000000 		.4byte	.LC10
 2618 10bf 21       		.uleb128 0x21
 2619 10c0 01       		.uleb128 0x1
 2620 10c1 50       		.byte	0x50
 2621 10c2 03       		.uleb128 0x3
 2622 10c3 F3       		.byte	0xf3
 2623 10c4 01       		.uleb128 0x1
 2624 10c5 50       		.byte	0x50
 2625 10c6 00       		.byte	0
 2626 10c7 00       		.byte	0
 2627 10c8 22       		.uleb128 0x22
 2628 10c9 D0010000 		.4byte	.LASF179
 2629 10cd 02       		.byte	0x2
 2630 10ce 90       		.byte	0x90
 2631 10cf 00000000 		.4byte	.LFB50
 2632 10d3 10000000 		.4byte	.LFE50-.LFB50
 2633 10d7 01       		.uleb128 0x1
 2634 10d8 9C       		.byte	0x9c
 2635 10d9 25110000 		.4byte	0x1125
 2636 10dd 1C       		.uleb128 0x1c
 2637 10de 63687000 		.ascii	"chp\000"
 2638 10e2 02       		.byte	0x2
 2639 10e3 90       		.byte	0x90
 2640 10e4 2E0C0000 		.4byte	0xc2e
 2641 10e8 A7030000 		.4byte	.LLST28
 2642 10ec 23       		.uleb128 0x23
 2643 10ed 2C030000 		.4byte	.LASF165
 2644 10f1 02       		.byte	0x2
 2645 10f2 90       		.byte	0x90
 2646 10f3 2C000000 		.4byte	0x2c
 2647 10f7 C8030000 		.4byte	.LLST29
 2648 10fb 23       		.uleb128 0x23
 2649 10fc 50050000 		.4byte	.LASF166
 2650 1100 02       		.byte	0x2
 2651 1101 90       		.byte	0x90
 2652 1102 340C0000 		.4byte	0xc34
 2653 1106 E9030000 		.4byte	.LLST30
 2654 110a 20       		.uleb128 0x20
 2655 110b 08000000 		.4byte	.LVL38
 2656 110f 6D0C0000 		.4byte	0xc6d
 2657 1113 21       		.uleb128 0x21
 2658 1114 01       		.uleb128 0x1
 2659 1115 51       		.byte	0x51
 2660 1116 05       		.uleb128 0x5
 2661 1117 03       		.byte	0x3
 2662 1118 3C000000 		.4byte	.LC10
ARM GAS  /var/folders/qh/xwg3v3kj02qbxczjpdb8lzfr0000gn/T//ccxFafFa.s 			page 48


 2663 111c 21       		.uleb128 0x21
 2664 111d 01       		.uleb128 0x1
 2665 111e 50       		.byte	0x50
 2666 111f 03       		.uleb128 0x3
 2667 1120 F3       		.byte	0xf3
 2668 1121 01       		.uleb128 0x1
 2669 1122 50       		.byte	0x50
 2670 1123 00       		.byte	0
 2671 1124 00       		.byte	0
 2672 1125 22       		.uleb128 0x22
 2673 1126 89020000 		.4byte	.LASF180
 2674 112a 02       		.byte	0x2
 2675 112b 96       		.byte	0x96
 2676 112c 00000000 		.4byte	.LFB51
 2677 1130 10000000 		.4byte	.LFE51-.LFB51
 2678 1134 01       		.uleb128 0x1
 2679 1135 9C       		.byte	0x9c
 2680 1136 82110000 		.4byte	0x1182
 2681 113a 1C       		.uleb128 0x1c
 2682 113b 63687000 		.ascii	"chp\000"
 2683 113f 02       		.byte	0x2
 2684 1140 96       		.byte	0x96
 2685 1141 2E0C0000 		.4byte	0xc2e
 2686 1145 0A040000 		.4byte	.LLST31
 2687 1149 23       		.uleb128 0x23
 2688 114a 2C030000 		.4byte	.LASF165
 2689 114e 02       		.byte	0x2
 2690 114f 96       		.byte	0x96
 2691 1150 2C000000 		.4byte	0x2c
 2692 1154 2B040000 		.4byte	.LLST32
 2693 1158 23       		.uleb128 0x23
 2694 1159 50050000 		.4byte	.LASF166
 2695 115d 02       		.byte	0x2
 2696 115e 96       		.byte	0x96
 2697 115f 340C0000 		.4byte	0xc34
 2698 1163 4C040000 		.4byte	.LLST33
 2699 1167 20       		.uleb128 0x20
 2700 1168 08000000 		.4byte	.LVL41
 2701 116c 6D0C0000 		.4byte	0xc6d
 2702 1170 21       		.uleb128 0x21
 2703 1171 01       		.uleb128 0x1
 2704 1172 51       		.byte	0x51
 2705 1173 05       		.uleb128 0x5
 2706 1174 03       		.byte	0x3
 2707 1175 3C000000 		.4byte	.LC10
 2708 1179 21       		.uleb128 0x21
 2709 117a 01       		.uleb128 0x1
 2710 117b 50       		.byte	0x50
 2711 117c 03       		.uleb128 0x3
 2712 117d F3       		.byte	0xf3
 2713 117e 01       		.uleb128 0x1
 2714 117f 50       		.byte	0x50
 2715 1180 00       		.byte	0
 2716 1181 00       		.byte	0
 2717 1182 25       		.uleb128 0x25
 2718 1183 3C040000 		.4byte	.LASF182
 2719 1187 14       		.byte	0x14
ARM GAS  /var/folders/qh/xwg3v3kj02qbxczjpdb8lzfr0000gn/T//ccxFafFa.s 			page 49


 2720 1188 15       		.byte	0x15
 2721 1189 E20A0000 		.4byte	0xae2
 2722 118d 28       		.uleb128 0x28
 2723 118e 53443100 		.ascii	"SD1\000"
 2724 1192 15       		.byte	0x15
 2725 1193 1101     		.2byte	0x111
 2726 1195 1E0B0000 		.4byte	0xb1e
 2727 1199 29       		.uleb128 0x29
 2728 119a DF040000 		.4byte	.LASF183
 2729 119e 02       		.byte	0x2
 2730 119f 07       		.byte	0x7
 2731 11a0 2C000000 		.4byte	0x2c
 2732 11a4 29       		.uleb128 0x29
 2733 11a5 A0020000 		.4byte	.LASF184
 2734 11a9 02       		.byte	0x2
 2735 11aa 08       		.byte	0x8
 2736 11ab D90D0000 		.4byte	0xdd9
 2737 11af 2A       		.uleb128 0x2a
 2738 11b0 1D020000 		.4byte	.LASF185
 2739 11b4 02       		.byte	0x2
 2740 11b5 09       		.byte	0x9
 2741 11b6 D90D0000 		.4byte	0xdd9
 2742 11ba 05       		.uleb128 0x5
 2743 11bb 03       		.byte	0x3
 2744 11bc 00000000 		.4byte	valu
 2745 11c0 2B       		.uleb128 0x2b
 2746 11c1 2A000000 		.4byte	.LASF186
 2747 11c5 01       		.byte	0x1
 2748 11c6 28       		.byte	0x28
 2749 11c7 DB110000 		.4byte	0x11db
 2750 11cb 10       		.uleb128 0x10
 2751 11cc 2E0C0000 		.4byte	0xc2e
 2752 11d0 10       		.uleb128 0x10
 2753 11d1 26040000 		.4byte	0x426
 2754 11d5 10       		.uleb128 0x10
 2755 11d6 620C0000 		.4byte	0xc62
 2756 11da 00       		.byte	0
 2757 11db 2C       		.uleb128 0x2c
 2758 11dc 1C050000 		.4byte	.LASF187
 2759 11e0 07       		.byte	0x7
 2760 11e1 6901     		.2byte	0x169
 2761 11e3 52020000 		.4byte	0x252
 2762 11e7 10       		.uleb128 0x10
 2763 11e8 8E020000 		.4byte	0x28e
 2764 11ec 10       		.uleb128 0x10
 2765 11ed 33000000 		.4byte	0x33
 2766 11f1 10       		.uleb128 0x10
 2767 11f2 F2000000 		.4byte	0xf2
 2768 11f6 10       		.uleb128 0x10
 2769 11f7 3E040000 		.4byte	0x43e
 2770 11fb 10       		.uleb128 0x10
 2771 11fc 8E020000 		.4byte	0x28e
 2772 1200 00       		.byte	0
 2773 1201 00       		.byte	0
 2774              		.section	.debug_abbrev,"",%progbits
 2775              	.Ldebug_abbrev0:
 2776 0000 01       		.uleb128 0x1
ARM GAS  /var/folders/qh/xwg3v3kj02qbxczjpdb8lzfr0000gn/T//ccxFafFa.s 			page 50


 2777 0001 11       		.uleb128 0x11
 2778 0002 01       		.byte	0x1
 2779 0003 25       		.uleb128 0x25
 2780 0004 0E       		.uleb128 0xe
 2781 0005 13       		.uleb128 0x13
 2782 0006 0B       		.uleb128 0xb
 2783 0007 03       		.uleb128 0x3
 2784 0008 0E       		.uleb128 0xe
 2785 0009 1B       		.uleb128 0x1b
 2786 000a 0E       		.uleb128 0xe
 2787 000b 55       		.uleb128 0x55
 2788 000c 17       		.uleb128 0x17
 2789 000d 11       		.uleb128 0x11
 2790 000e 01       		.uleb128 0x1
 2791 000f 10       		.uleb128 0x10
 2792 0010 17       		.uleb128 0x17
 2793 0011 00       		.byte	0
 2794 0012 00       		.byte	0
 2795 0013 02       		.uleb128 0x2
 2796 0014 24       		.uleb128 0x24
 2797 0015 00       		.byte	0
 2798 0016 0B       		.uleb128 0xb
 2799 0017 0B       		.uleb128 0xb
 2800 0018 3E       		.uleb128 0x3e
 2801 0019 0B       		.uleb128 0xb
 2802 001a 03       		.uleb128 0x3
 2803 001b 0E       		.uleb128 0xe
 2804 001c 00       		.byte	0
 2805 001d 00       		.byte	0
 2806 001e 03       		.uleb128 0x3
 2807 001f 24       		.uleb128 0x24
 2808 0020 00       		.byte	0
 2809 0021 0B       		.uleb128 0xb
 2810 0022 0B       		.uleb128 0xb
 2811 0023 3E       		.uleb128 0x3e
 2812 0024 0B       		.uleb128 0xb
 2813 0025 03       		.uleb128 0x3
 2814 0026 08       		.uleb128 0x8
 2815 0027 00       		.byte	0
 2816 0028 00       		.byte	0
 2817 0029 04       		.uleb128 0x4
 2818 002a 16       		.uleb128 0x16
 2819 002b 00       		.byte	0
 2820 002c 03       		.uleb128 0x3
 2821 002d 0E       		.uleb128 0xe
 2822 002e 3A       		.uleb128 0x3a
 2823 002f 0B       		.uleb128 0xb
 2824 0030 3B       		.uleb128 0x3b
 2825 0031 0B       		.uleb128 0xb
 2826 0032 49       		.uleb128 0x49
 2827 0033 13       		.uleb128 0x13
 2828 0034 00       		.byte	0
 2829 0035 00       		.byte	0
 2830 0036 05       		.uleb128 0x5
 2831 0037 13       		.uleb128 0x13
 2832 0038 01       		.byte	0x1
 2833 0039 03       		.uleb128 0x3
ARM GAS  /var/folders/qh/xwg3v3kj02qbxczjpdb8lzfr0000gn/T//ccxFafFa.s 			page 51


 2834 003a 0E       		.uleb128 0xe
 2835 003b 0B       		.uleb128 0xb
 2836 003c 0B       		.uleb128 0xb
 2837 003d 3A       		.uleb128 0x3a
 2838 003e 0B       		.uleb128 0xb
 2839 003f 3B       		.uleb128 0x3b
 2840 0040 0B       		.uleb128 0xb
 2841 0041 01       		.uleb128 0x1
 2842 0042 13       		.uleb128 0x13
 2843 0043 00       		.byte	0
 2844 0044 00       		.byte	0
 2845 0045 06       		.uleb128 0x6
 2846 0046 0D       		.uleb128 0xd
 2847 0047 00       		.byte	0
 2848 0048 03       		.uleb128 0x3
 2849 0049 0E       		.uleb128 0xe
 2850 004a 3A       		.uleb128 0x3a
 2851 004b 0B       		.uleb128 0xb
 2852 004c 3B       		.uleb128 0x3b
 2853 004d 0B       		.uleb128 0xb
 2854 004e 49       		.uleb128 0x49
 2855 004f 13       		.uleb128 0x13
 2856 0050 38       		.uleb128 0x38
 2857 0051 0B       		.uleb128 0xb
 2858 0052 00       		.byte	0
 2859 0053 00       		.byte	0
 2860 0054 07       		.uleb128 0x7
 2861 0055 0D       		.uleb128 0xd
 2862 0056 00       		.byte	0
 2863 0057 03       		.uleb128 0x3
 2864 0058 08       		.uleb128 0x8
 2865 0059 3A       		.uleb128 0x3a
 2866 005a 0B       		.uleb128 0xb
 2867 005b 3B       		.uleb128 0x3b
 2868 005c 0B       		.uleb128 0xb
 2869 005d 49       		.uleb128 0x49
 2870 005e 13       		.uleb128 0x13
 2871 005f 38       		.uleb128 0x38
 2872 0060 0B       		.uleb128 0xb
 2873 0061 00       		.byte	0
 2874 0062 00       		.byte	0
 2875 0063 08       		.uleb128 0x8
 2876 0064 13       		.uleb128 0x13
 2877 0065 01       		.byte	0x1
 2878 0066 0B       		.uleb128 0xb
 2879 0067 0B       		.uleb128 0xb
 2880 0068 3A       		.uleb128 0x3a
 2881 0069 0B       		.uleb128 0xb
 2882 006a 3B       		.uleb128 0x3b
 2883 006b 0B       		.uleb128 0xb
 2884 006c 01       		.uleb128 0x1
 2885 006d 13       		.uleb128 0x13
 2886 006e 00       		.byte	0
 2887 006f 00       		.byte	0
 2888 0070 09       		.uleb128 0x9
 2889 0071 0F       		.uleb128 0xf
 2890 0072 00       		.byte	0
ARM GAS  /var/folders/qh/xwg3v3kj02qbxczjpdb8lzfr0000gn/T//ccxFafFa.s 			page 52


 2891 0073 0B       		.uleb128 0xb
 2892 0074 0B       		.uleb128 0xb
 2893 0075 49       		.uleb128 0x49
 2894 0076 13       		.uleb128 0x13
 2895 0077 00       		.byte	0
 2896 0078 00       		.byte	0
 2897 0079 0A       		.uleb128 0xa
 2898 007a 0F       		.uleb128 0xf
 2899 007b 00       		.byte	0
 2900 007c 0B       		.uleb128 0xb
 2901 007d 0B       		.uleb128 0xb
 2902 007e 00       		.byte	0
 2903 007f 00       		.byte	0
 2904 0080 0B       		.uleb128 0xb
 2905 0081 35       		.uleb128 0x35
 2906 0082 00       		.byte	0
 2907 0083 49       		.uleb128 0x49
 2908 0084 13       		.uleb128 0x13
 2909 0085 00       		.byte	0
 2910 0086 00       		.byte	0
 2911 0087 0C       		.uleb128 0xc
 2912 0088 17       		.uleb128 0x17
 2913 0089 01       		.byte	0x1
 2914 008a 0B       		.uleb128 0xb
 2915 008b 0B       		.uleb128 0xb
 2916 008c 3A       		.uleb128 0x3a
 2917 008d 0B       		.uleb128 0xb
 2918 008e 3B       		.uleb128 0x3b
 2919 008f 0B       		.uleb128 0xb
 2920 0090 01       		.uleb128 0x1
 2921 0091 13       		.uleb128 0x13
 2922 0092 00       		.byte	0
 2923 0093 00       		.byte	0
 2924 0094 0D       		.uleb128 0xd
 2925 0095 0D       		.uleb128 0xd
 2926 0096 00       		.byte	0
 2927 0097 03       		.uleb128 0x3
 2928 0098 0E       		.uleb128 0xe
 2929 0099 3A       		.uleb128 0x3a
 2930 009a 0B       		.uleb128 0xb
 2931 009b 3B       		.uleb128 0x3b
 2932 009c 0B       		.uleb128 0xb
 2933 009d 49       		.uleb128 0x49
 2934 009e 13       		.uleb128 0x13
 2935 009f 00       		.byte	0
 2936 00a0 00       		.byte	0
 2937 00a1 0E       		.uleb128 0xe
 2938 00a2 26       		.uleb128 0x26
 2939 00a3 00       		.byte	0
 2940 00a4 49       		.uleb128 0x49
 2941 00a5 13       		.uleb128 0x13
 2942 00a6 00       		.byte	0
 2943 00a7 00       		.byte	0
 2944 00a8 0F       		.uleb128 0xf
 2945 00a9 15       		.uleb128 0x15
 2946 00aa 01       		.byte	0x1
 2947 00ab 27       		.uleb128 0x27
ARM GAS  /var/folders/qh/xwg3v3kj02qbxczjpdb8lzfr0000gn/T//ccxFafFa.s 			page 53


 2948 00ac 19       		.uleb128 0x19
 2949 00ad 49       		.uleb128 0x49
 2950 00ae 13       		.uleb128 0x13
 2951 00af 01       		.uleb128 0x1
 2952 00b0 13       		.uleb128 0x13
 2953 00b1 00       		.byte	0
 2954 00b2 00       		.byte	0
 2955 00b3 10       		.uleb128 0x10
 2956 00b4 05       		.uleb128 0x5
 2957 00b5 00       		.byte	0
 2958 00b6 49       		.uleb128 0x49
 2959 00b7 13       		.uleb128 0x13
 2960 00b8 00       		.byte	0
 2961 00b9 00       		.byte	0
 2962 00ba 11       		.uleb128 0x11
 2963 00bb 15       		.uleb128 0x15
 2964 00bc 01       		.byte	0x1
 2965 00bd 27       		.uleb128 0x27
 2966 00be 19       		.uleb128 0x19
 2967 00bf 01       		.uleb128 0x1
 2968 00c0 13       		.uleb128 0x13
 2969 00c1 00       		.byte	0
 2970 00c2 00       		.byte	0
 2971 00c3 12       		.uleb128 0x12
 2972 00c4 13       		.uleb128 0x13
 2973 00c5 01       		.byte	0x1
 2974 00c6 0B       		.uleb128 0xb
 2975 00c7 0B       		.uleb128 0xb
 2976 00c8 3A       		.uleb128 0x3a
 2977 00c9 0B       		.uleb128 0xb
 2978 00ca 3B       		.uleb128 0x3b
 2979 00cb 05       		.uleb128 0x5
 2980 00cc 01       		.uleb128 0x1
 2981 00cd 13       		.uleb128 0x13
 2982 00ce 00       		.byte	0
 2983 00cf 00       		.byte	0
 2984 00d0 13       		.uleb128 0x13
 2985 00d1 0D       		.uleb128 0xd
 2986 00d2 00       		.byte	0
 2987 00d3 03       		.uleb128 0x3
 2988 00d4 08       		.uleb128 0x8
 2989 00d5 3A       		.uleb128 0x3a
 2990 00d6 0B       		.uleb128 0xb
 2991 00d7 3B       		.uleb128 0x3b
 2992 00d8 05       		.uleb128 0x5
 2993 00d9 49       		.uleb128 0x49
 2994 00da 13       		.uleb128 0x13
 2995 00db 38       		.uleb128 0x38
 2996 00dc 0B       		.uleb128 0xb
 2997 00dd 00       		.byte	0
 2998 00de 00       		.byte	0
 2999 00df 14       		.uleb128 0x14
 3000 00e0 0D       		.uleb128 0xd
 3001 00e1 00       		.byte	0
 3002 00e2 03       		.uleb128 0x3
 3003 00e3 0E       		.uleb128 0xe
 3004 00e4 3A       		.uleb128 0x3a
ARM GAS  /var/folders/qh/xwg3v3kj02qbxczjpdb8lzfr0000gn/T//ccxFafFa.s 			page 54


 3005 00e5 0B       		.uleb128 0xb
 3006 00e6 3B       		.uleb128 0x3b
 3007 00e7 05       		.uleb128 0x5
 3008 00e8 49       		.uleb128 0x49
 3009 00e9 13       		.uleb128 0x13
 3010 00ea 38       		.uleb128 0x38
 3011 00eb 0B       		.uleb128 0xb
 3012 00ec 00       		.byte	0
 3013 00ed 00       		.byte	0
 3014 00ee 15       		.uleb128 0x15
 3015 00ef 01       		.uleb128 0x1
 3016 00f0 01       		.byte	0x1
 3017 00f1 49       		.uleb128 0x49
 3018 00f2 13       		.uleb128 0x13
 3019 00f3 01       		.uleb128 0x1
 3020 00f4 13       		.uleb128 0x13
 3021 00f5 00       		.byte	0
 3022 00f6 00       		.byte	0
 3023 00f7 16       		.uleb128 0x16
 3024 00f8 21       		.uleb128 0x21
 3025 00f9 00       		.byte	0
 3026 00fa 49       		.uleb128 0x49
 3027 00fb 13       		.uleb128 0x13
 3028 00fc 2F       		.uleb128 0x2f
 3029 00fd 0B       		.uleb128 0xb
 3030 00fe 00       		.byte	0
 3031 00ff 00       		.byte	0
 3032 0100 17       		.uleb128 0x17
 3033 0101 16       		.uleb128 0x16
 3034 0102 00       		.byte	0
 3035 0103 03       		.uleb128 0x3
 3036 0104 0E       		.uleb128 0xe
 3037 0105 3A       		.uleb128 0x3a
 3038 0106 0B       		.uleb128 0xb
 3039 0107 3B       		.uleb128 0x3b
 3040 0108 05       		.uleb128 0x5
 3041 0109 49       		.uleb128 0x49
 3042 010a 13       		.uleb128 0x13
 3043 010b 00       		.byte	0
 3044 010c 00       		.byte	0
 3045 010d 18       		.uleb128 0x18
 3046 010e 04       		.uleb128 0x4
 3047 010f 01       		.byte	0x1
 3048 0110 0B       		.uleb128 0xb
 3049 0111 0B       		.uleb128 0xb
 3050 0112 3A       		.uleb128 0x3a
 3051 0113 0B       		.uleb128 0xb
 3052 0114 3B       		.uleb128 0x3b
 3053 0115 0B       		.uleb128 0xb
 3054 0116 01       		.uleb128 0x1
 3055 0117 13       		.uleb128 0x13
 3056 0118 00       		.byte	0
 3057 0119 00       		.byte	0
 3058 011a 19       		.uleb128 0x19
 3059 011b 28       		.uleb128 0x28
 3060 011c 00       		.byte	0
 3061 011d 03       		.uleb128 0x3
ARM GAS  /var/folders/qh/xwg3v3kj02qbxczjpdb8lzfr0000gn/T//ccxFafFa.s 			page 55


 3062 011e 0E       		.uleb128 0xe
 3063 011f 1C       		.uleb128 0x1c
 3064 0120 0D       		.uleb128 0xd
 3065 0121 00       		.byte	0
 3066 0122 00       		.byte	0
 3067 0123 1A       		.uleb128 0x1a
 3068 0124 0D       		.uleb128 0xd
 3069 0125 00       		.byte	0
 3070 0126 03       		.uleb128 0x3
 3071 0127 0E       		.uleb128 0xe
 3072 0128 49       		.uleb128 0x49
 3073 0129 13       		.uleb128 0x13
 3074 012a 38       		.uleb128 0x38
 3075 012b 0B       		.uleb128 0xb
 3076 012c 34       		.uleb128 0x34
 3077 012d 19       		.uleb128 0x19
 3078 012e 00       		.byte	0
 3079 012f 00       		.byte	0
 3080 0130 1B       		.uleb128 0x1b
 3081 0131 2E       		.uleb128 0x2e
 3082 0132 01       		.byte	0x1
 3083 0133 03       		.uleb128 0x3
 3084 0134 0E       		.uleb128 0xe
 3085 0135 3A       		.uleb128 0x3a
 3086 0136 0B       		.uleb128 0xb
 3087 0137 3B       		.uleb128 0x3b
 3088 0138 0B       		.uleb128 0xb
 3089 0139 27       		.uleb128 0x27
 3090 013a 19       		.uleb128 0x19
 3091 013b 11       		.uleb128 0x11
 3092 013c 01       		.uleb128 0x1
 3093 013d 12       		.uleb128 0x12
 3094 013e 06       		.uleb128 0x6
 3095 013f 40       		.uleb128 0x40
 3096 0140 18       		.uleb128 0x18
 3097 0141 9742     		.uleb128 0x2117
 3098 0143 19       		.uleb128 0x19
 3099 0144 01       		.uleb128 0x1
 3100 0145 13       		.uleb128 0x13
 3101 0146 00       		.byte	0
 3102 0147 00       		.byte	0
 3103 0148 1C       		.uleb128 0x1c
 3104 0149 05       		.uleb128 0x5
 3105 014a 00       		.byte	0
 3106 014b 03       		.uleb128 0x3
 3107 014c 08       		.uleb128 0x8
 3108 014d 3A       		.uleb128 0x3a
 3109 014e 0B       		.uleb128 0xb
 3110 014f 3B       		.uleb128 0x3b
 3111 0150 0B       		.uleb128 0xb
 3112 0151 49       		.uleb128 0x49
 3113 0152 13       		.uleb128 0x13
 3114 0153 02       		.uleb128 0x2
 3115 0154 17       		.uleb128 0x17
 3116 0155 00       		.byte	0
 3117 0156 00       		.byte	0
 3118 0157 1D       		.uleb128 0x1d
ARM GAS  /var/folders/qh/xwg3v3kj02qbxczjpdb8lzfr0000gn/T//ccxFafFa.s 			page 56


 3119 0158 05       		.uleb128 0x5
 3120 0159 00       		.byte	0
 3121 015a 03       		.uleb128 0x3
 3122 015b 08       		.uleb128 0x8
 3123 015c 3A       		.uleb128 0x3a
 3124 015d 0B       		.uleb128 0xb
 3125 015e 3B       		.uleb128 0x3b
 3126 015f 0B       		.uleb128 0xb
 3127 0160 49       		.uleb128 0x49
 3128 0161 13       		.uleb128 0x13
 3129 0162 02       		.uleb128 0x2
 3130 0163 18       		.uleb128 0x18
 3131 0164 00       		.byte	0
 3132 0165 00       		.byte	0
 3133 0166 1E       		.uleb128 0x1e
 3134 0167 18       		.uleb128 0x18
 3135 0168 00       		.byte	0
 3136 0169 00       		.byte	0
 3137 016a 00       		.byte	0
 3138 016b 1F       		.uleb128 0x1f
 3139 016c 34       		.uleb128 0x34
 3140 016d 00       		.byte	0
 3141 016e 03       		.uleb128 0x3
 3142 016f 08       		.uleb128 0x8
 3143 0170 3A       		.uleb128 0x3a
 3144 0171 0B       		.uleb128 0xb
 3145 0172 3B       		.uleb128 0x3b
 3146 0173 0B       		.uleb128 0xb
 3147 0174 49       		.uleb128 0x49
 3148 0175 13       		.uleb128 0x13
 3149 0176 02       		.uleb128 0x2
 3150 0177 18       		.uleb128 0x18
 3151 0178 00       		.byte	0
 3152 0179 00       		.byte	0
 3153 017a 20       		.uleb128 0x20
 3154 017b 898201   		.uleb128 0x4109
 3155 017e 01       		.byte	0x1
 3156 017f 11       		.uleb128 0x11
 3157 0180 01       		.uleb128 0x1
 3158 0181 31       		.uleb128 0x31
 3159 0182 13       		.uleb128 0x13
 3160 0183 00       		.byte	0
 3161 0184 00       		.byte	0
 3162 0185 21       		.uleb128 0x21
 3163 0186 8A8201   		.uleb128 0x410a
 3164 0189 00       		.byte	0
 3165 018a 02       		.uleb128 0x2
 3166 018b 18       		.uleb128 0x18
 3167 018c 9142     		.uleb128 0x2111
 3168 018e 18       		.uleb128 0x18
 3169 018f 00       		.byte	0
 3170 0190 00       		.byte	0
 3171 0191 22       		.uleb128 0x22
 3172 0192 2E       		.uleb128 0x2e
 3173 0193 01       		.byte	0x1
 3174 0194 3F       		.uleb128 0x3f
 3175 0195 19       		.uleb128 0x19
ARM GAS  /var/folders/qh/xwg3v3kj02qbxczjpdb8lzfr0000gn/T//ccxFafFa.s 			page 57


 3176 0196 03       		.uleb128 0x3
 3177 0197 0E       		.uleb128 0xe
 3178 0198 3A       		.uleb128 0x3a
 3179 0199 0B       		.uleb128 0xb
 3180 019a 3B       		.uleb128 0x3b
 3181 019b 0B       		.uleb128 0xb
 3182 019c 27       		.uleb128 0x27
 3183 019d 19       		.uleb128 0x19
 3184 019e 11       		.uleb128 0x11
 3185 019f 01       		.uleb128 0x1
 3186 01a0 12       		.uleb128 0x12
 3187 01a1 06       		.uleb128 0x6
 3188 01a2 40       		.uleb128 0x40
 3189 01a3 18       		.uleb128 0x18
 3190 01a4 9742     		.uleb128 0x2117
 3191 01a6 19       		.uleb128 0x19
 3192 01a7 01       		.uleb128 0x1
 3193 01a8 13       		.uleb128 0x13
 3194 01a9 00       		.byte	0
 3195 01aa 00       		.byte	0
 3196 01ab 23       		.uleb128 0x23
 3197 01ac 05       		.uleb128 0x5
 3198 01ad 00       		.byte	0
 3199 01ae 03       		.uleb128 0x3
 3200 01af 0E       		.uleb128 0xe
 3201 01b0 3A       		.uleb128 0x3a
 3202 01b1 0B       		.uleb128 0xb
 3203 01b2 3B       		.uleb128 0x3b
 3204 01b3 0B       		.uleb128 0xb
 3205 01b4 49       		.uleb128 0x49
 3206 01b5 13       		.uleb128 0x13
 3207 01b6 02       		.uleb128 0x2
 3208 01b7 17       		.uleb128 0x17
 3209 01b8 00       		.byte	0
 3210 01b9 00       		.byte	0
 3211 01ba 24       		.uleb128 0x24
 3212 01bb 34       		.uleb128 0x34
 3213 01bc 00       		.byte	0
 3214 01bd 03       		.uleb128 0x3
 3215 01be 0E       		.uleb128 0xe
 3216 01bf 3A       		.uleb128 0x3a
 3217 01c0 0B       		.uleb128 0xb
 3218 01c1 3B       		.uleb128 0x3b
 3219 01c2 0B       		.uleb128 0xb
 3220 01c3 49       		.uleb128 0x49
 3221 01c4 13       		.uleb128 0x13
 3222 01c5 02       		.uleb128 0x2
 3223 01c6 18       		.uleb128 0x18
 3224 01c7 00       		.byte	0
 3225 01c8 00       		.byte	0
 3226 01c9 25       		.uleb128 0x25
 3227 01ca 34       		.uleb128 0x34
 3228 01cb 00       		.byte	0
 3229 01cc 03       		.uleb128 0x3
 3230 01cd 0E       		.uleb128 0xe
 3231 01ce 3A       		.uleb128 0x3a
 3232 01cf 0B       		.uleb128 0xb
ARM GAS  /var/folders/qh/xwg3v3kj02qbxczjpdb8lzfr0000gn/T//ccxFafFa.s 			page 58


 3233 01d0 3B       		.uleb128 0x3b
 3234 01d1 0B       		.uleb128 0xb
 3235 01d2 49       		.uleb128 0x49
 3236 01d3 13       		.uleb128 0x13
 3237 01d4 00       		.byte	0
 3238 01d5 00       		.byte	0
 3239 01d6 26       		.uleb128 0x26
 3240 01d7 34       		.uleb128 0x34
 3241 01d8 00       		.byte	0
 3242 01d9 03       		.uleb128 0x3
 3243 01da 0E       		.uleb128 0xe
 3244 01db 3A       		.uleb128 0x3a
 3245 01dc 0B       		.uleb128 0xb
 3246 01dd 3B       		.uleb128 0x3b
 3247 01de 0B       		.uleb128 0xb
 3248 01df 49       		.uleb128 0x49
 3249 01e0 13       		.uleb128 0x13
 3250 01e1 1C       		.uleb128 0x1c
 3251 01e2 0A       		.uleb128 0xa
 3252 01e3 00       		.byte	0
 3253 01e4 00       		.byte	0
 3254 01e5 27       		.uleb128 0x27
 3255 01e6 898201   		.uleb128 0x4109
 3256 01e9 01       		.byte	0x1
 3257 01ea 11       		.uleb128 0x11
 3258 01eb 01       		.uleb128 0x1
 3259 01ec 31       		.uleb128 0x31
 3260 01ed 13       		.uleb128 0x13
 3261 01ee 01       		.uleb128 0x1
 3262 01ef 13       		.uleb128 0x13
 3263 01f0 00       		.byte	0
 3264 01f1 00       		.byte	0
 3265 01f2 28       		.uleb128 0x28
 3266 01f3 34       		.uleb128 0x34
 3267 01f4 00       		.byte	0
 3268 01f5 03       		.uleb128 0x3
 3269 01f6 08       		.uleb128 0x8
 3270 01f7 3A       		.uleb128 0x3a
 3271 01f8 0B       		.uleb128 0xb
 3272 01f9 3B       		.uleb128 0x3b
 3273 01fa 05       		.uleb128 0x5
 3274 01fb 49       		.uleb128 0x49
 3275 01fc 13       		.uleb128 0x13
 3276 01fd 3F       		.uleb128 0x3f
 3277 01fe 19       		.uleb128 0x19
 3278 01ff 3C       		.uleb128 0x3c
 3279 0200 19       		.uleb128 0x19
 3280 0201 00       		.byte	0
 3281 0202 00       		.byte	0
 3282 0203 29       		.uleb128 0x29
 3283 0204 34       		.uleb128 0x34
 3284 0205 00       		.byte	0
 3285 0206 03       		.uleb128 0x3
 3286 0207 0E       		.uleb128 0xe
 3287 0208 3A       		.uleb128 0x3a
 3288 0209 0B       		.uleb128 0xb
 3289 020a 3B       		.uleb128 0x3b
ARM GAS  /var/folders/qh/xwg3v3kj02qbxczjpdb8lzfr0000gn/T//ccxFafFa.s 			page 59


 3290 020b 0B       		.uleb128 0xb
 3291 020c 49       		.uleb128 0x49
 3292 020d 13       		.uleb128 0x13
 3293 020e 3F       		.uleb128 0x3f
 3294 020f 19       		.uleb128 0x19
 3295 0210 3C       		.uleb128 0x3c
 3296 0211 19       		.uleb128 0x19
 3297 0212 00       		.byte	0
 3298 0213 00       		.byte	0
 3299 0214 2A       		.uleb128 0x2a
 3300 0215 34       		.uleb128 0x34
 3301 0216 00       		.byte	0
 3302 0217 03       		.uleb128 0x3
 3303 0218 0E       		.uleb128 0xe
 3304 0219 3A       		.uleb128 0x3a
 3305 021a 0B       		.uleb128 0xb
 3306 021b 3B       		.uleb128 0x3b
 3307 021c 0B       		.uleb128 0xb
 3308 021d 49       		.uleb128 0x49
 3309 021e 13       		.uleb128 0x13
 3310 021f 3F       		.uleb128 0x3f
 3311 0220 19       		.uleb128 0x19
 3312 0221 02       		.uleb128 0x2
 3313 0222 18       		.uleb128 0x18
 3314 0223 00       		.byte	0
 3315 0224 00       		.byte	0
 3316 0225 2B       		.uleb128 0x2b
 3317 0226 2E       		.uleb128 0x2e
 3318 0227 01       		.byte	0x1
 3319 0228 3F       		.uleb128 0x3f
 3320 0229 19       		.uleb128 0x19
 3321 022a 03       		.uleb128 0x3
 3322 022b 0E       		.uleb128 0xe
 3323 022c 3A       		.uleb128 0x3a
 3324 022d 0B       		.uleb128 0xb
 3325 022e 3B       		.uleb128 0x3b
 3326 022f 0B       		.uleb128 0xb
 3327 0230 27       		.uleb128 0x27
 3328 0231 19       		.uleb128 0x19
 3329 0232 3C       		.uleb128 0x3c
 3330 0233 19       		.uleb128 0x19
 3331 0234 01       		.uleb128 0x1
 3332 0235 13       		.uleb128 0x13
 3333 0236 00       		.byte	0
 3334 0237 00       		.byte	0
 3335 0238 2C       		.uleb128 0x2c
 3336 0239 2E       		.uleb128 0x2e
 3337 023a 01       		.byte	0x1
 3338 023b 3F       		.uleb128 0x3f
 3339 023c 19       		.uleb128 0x19
 3340 023d 03       		.uleb128 0x3
 3341 023e 0E       		.uleb128 0xe
 3342 023f 3A       		.uleb128 0x3a
 3343 0240 0B       		.uleb128 0xb
 3344 0241 3B       		.uleb128 0x3b
 3345 0242 05       		.uleb128 0x5
 3346 0243 27       		.uleb128 0x27
ARM GAS  /var/folders/qh/xwg3v3kj02qbxczjpdb8lzfr0000gn/T//ccxFafFa.s 			page 60


 3347 0244 19       		.uleb128 0x19
 3348 0245 49       		.uleb128 0x49
 3349 0246 13       		.uleb128 0x13
 3350 0247 3C       		.uleb128 0x3c
 3351 0248 19       		.uleb128 0x19
 3352 0249 00       		.byte	0
 3353 024a 00       		.byte	0
 3354 024b 00       		.byte	0
 3355              		.section	.debug_loc,"",%progbits
 3356              	.Ldebug_loc0:
 3357              	.LLST0:
 3358 0000 00000000 		.4byte	.LVL0
 3359 0004 11000000 		.4byte	.LVL1-1
 3360 0008 0100     		.2byte	0x1
 3361 000a 50       		.byte	0x50
 3362 000b 11000000 		.4byte	.LVL1-1
 3363 000f 1A000000 		.4byte	.LFE40
 3364 0013 0400     		.2byte	0x4
 3365 0015 F3       		.byte	0xf3
 3366 0016 01       		.uleb128 0x1
 3367 0017 50       		.byte	0x50
 3368 0018 9F       		.byte	0x9f
 3369 0019 00000000 		.4byte	0
 3370 001d 00000000 		.4byte	0
 3371              	.LLST1:
 3372 0021 00000000 		.4byte	.LVL2
 3373 0025 14000000 		.4byte	.LVL5
 3374 0029 0100     		.2byte	0x1
 3375 002b 50       		.byte	0x50
 3376 002c 14000000 		.4byte	.LVL5
 3377 0030 50000000 		.4byte	.LVL11
 3378 0034 0100     		.2byte	0x1
 3379 0036 57       		.byte	0x57
 3380 0037 50000000 		.4byte	.LVL11
 3381 003b 80000000 		.4byte	.LFE41
 3382 003f 0400     		.2byte	0x4
 3383 0041 F3       		.byte	0xf3
 3384 0042 01       		.uleb128 0x1
 3385 0043 50       		.byte	0x50
 3386 0044 9F       		.byte	0x9f
 3387 0045 00000000 		.4byte	0
 3388 0049 00000000 		.4byte	0
 3389              	.LLST2:
 3390 004d 00000000 		.4byte	.LVL2
 3391 0051 10000000 		.4byte	.LVL4
 3392 0055 0100     		.2byte	0x1
 3393 0057 51       		.byte	0x51
 3394 0058 10000000 		.4byte	.LVL4
 3395 005c 80000000 		.4byte	.LFE41
 3396 0060 0400     		.2byte	0x4
 3397 0062 F3       		.byte	0xf3
 3398 0063 01       		.uleb128 0x1
 3399 0064 51       		.byte	0x51
 3400 0065 9F       		.byte	0x9f
 3401 0066 00000000 		.4byte	0
 3402 006a 00000000 		.4byte	0
 3403              	.LLST3:
ARM GAS  /var/folders/qh/xwg3v3kj02qbxczjpdb8lzfr0000gn/T//ccxFafFa.s 			page 61


 3404 006e 00000000 		.4byte	.LVL2
 3405 0072 08000000 		.4byte	.LVL3
 3406 0076 0100     		.2byte	0x1
 3407 0078 52       		.byte	0x52
 3408 0079 08000000 		.4byte	.LVL3
 3409 007d 80000000 		.4byte	.LFE41
 3410 0081 0400     		.2byte	0x4
 3411 0083 F3       		.byte	0xf3
 3412 0084 01       		.uleb128 0x1
 3413 0085 52       		.byte	0x52
 3414 0086 9F       		.byte	0x9f
 3415 0087 00000000 		.4byte	0
 3416 008b 00000000 		.4byte	0
 3417              	.LLST4:
 3418 008f 00000000 		.4byte	.LVL12
 3419 0093 07000000 		.4byte	.LVL14-1
 3420 0097 0100     		.2byte	0x1
 3421 0099 50       		.byte	0x50
 3422 009a 07000000 		.4byte	.LVL14-1
 3423 009e 10000000 		.4byte	.LFE42
 3424 00a2 0400     		.2byte	0x4
 3425 00a4 F3       		.byte	0xf3
 3426 00a5 01       		.uleb128 0x1
 3427 00a6 50       		.byte	0x50
 3428 00a7 9F       		.byte	0x9f
 3429 00a8 00000000 		.4byte	0
 3430 00ac 00000000 		.4byte	0
 3431              	.LLST5:
 3432 00b0 00000000 		.4byte	.LVL12
 3433 00b4 04000000 		.4byte	.LVL13
 3434 00b8 0100     		.2byte	0x1
 3435 00ba 51       		.byte	0x51
 3436 00bb 04000000 		.4byte	.LVL13
 3437 00bf 10000000 		.4byte	.LFE42
 3438 00c3 0400     		.2byte	0x4
 3439 00c5 F3       		.byte	0xf3
 3440 00c6 01       		.uleb128 0x1
 3441 00c7 51       		.byte	0x51
 3442 00c8 9F       		.byte	0x9f
 3443 00c9 00000000 		.4byte	0
 3444 00cd 00000000 		.4byte	0
 3445              	.LLST6:
 3446 00d1 00000000 		.4byte	.LVL12
 3447 00d5 07000000 		.4byte	.LVL14-1
 3448 00d9 0100     		.2byte	0x1
 3449 00db 52       		.byte	0x52
 3450 00dc 07000000 		.4byte	.LVL14-1
 3451 00e0 10000000 		.4byte	.LFE42
 3452 00e4 0400     		.2byte	0x4
 3453 00e6 F3       		.byte	0xf3
 3454 00e7 01       		.uleb128 0x1
 3455 00e8 52       		.byte	0x52
 3456 00e9 9F       		.byte	0x9f
 3457 00ea 00000000 		.4byte	0
 3458 00ee 00000000 		.4byte	0
 3459              	.LLST7:
 3460 00f2 00000000 		.4byte	.LVL15
ARM GAS  /var/folders/qh/xwg3v3kj02qbxczjpdb8lzfr0000gn/T//ccxFafFa.s 			page 62


 3461 00f6 07000000 		.4byte	.LVL17-1
 3462 00fa 0100     		.2byte	0x1
 3463 00fc 50       		.byte	0x50
 3464 00fd 07000000 		.4byte	.LVL17-1
 3465 0101 10000000 		.4byte	.LFE43
 3466 0105 0400     		.2byte	0x4
 3467 0107 F3       		.byte	0xf3
 3468 0108 01       		.uleb128 0x1
 3469 0109 50       		.byte	0x50
 3470 010a 9F       		.byte	0x9f
 3471 010b 00000000 		.4byte	0
 3472 010f 00000000 		.4byte	0
 3473              	.LLST8:
 3474 0113 00000000 		.4byte	.LVL15
 3475 0117 04000000 		.4byte	.LVL16
 3476 011b 0100     		.2byte	0x1
 3477 011d 51       		.byte	0x51
 3478 011e 04000000 		.4byte	.LVL16
 3479 0122 10000000 		.4byte	.LFE43
 3480 0126 0400     		.2byte	0x4
 3481 0128 F3       		.byte	0xf3
 3482 0129 01       		.uleb128 0x1
 3483 012a 51       		.byte	0x51
 3484 012b 9F       		.byte	0x9f
 3485 012c 00000000 		.4byte	0
 3486 0130 00000000 		.4byte	0
 3487              	.LLST9:
 3488 0134 00000000 		.4byte	.LVL15
 3489 0138 07000000 		.4byte	.LVL17-1
 3490 013c 0100     		.2byte	0x1
 3491 013e 52       		.byte	0x52
 3492 013f 07000000 		.4byte	.LVL17-1
 3493 0143 10000000 		.4byte	.LFE43
 3494 0147 0400     		.2byte	0x4
 3495 0149 F3       		.byte	0xf3
 3496 014a 01       		.uleb128 0x1
 3497 014b 52       		.byte	0x52
 3498 014c 9F       		.byte	0x9f
 3499 014d 00000000 		.4byte	0
 3500 0151 00000000 		.4byte	0
 3501              	.LLST10:
 3502 0155 00000000 		.4byte	.LVL18
 3503 0159 07000000 		.4byte	.LVL20-1
 3504 015d 0100     		.2byte	0x1
 3505 015f 50       		.byte	0x50
 3506 0160 07000000 		.4byte	.LVL20-1
 3507 0164 10000000 		.4byte	.LFE44
 3508 0168 0400     		.2byte	0x4
 3509 016a F3       		.byte	0xf3
 3510 016b 01       		.uleb128 0x1
 3511 016c 50       		.byte	0x50
 3512 016d 9F       		.byte	0x9f
 3513 016e 00000000 		.4byte	0
 3514 0172 00000000 		.4byte	0
 3515              	.LLST11:
 3516 0176 00000000 		.4byte	.LVL18
 3517 017a 04000000 		.4byte	.LVL19
ARM GAS  /var/folders/qh/xwg3v3kj02qbxczjpdb8lzfr0000gn/T//ccxFafFa.s 			page 63


 3518 017e 0100     		.2byte	0x1
 3519 0180 51       		.byte	0x51
 3520 0181 04000000 		.4byte	.LVL19
 3521 0185 10000000 		.4byte	.LFE44
 3522 0189 0400     		.2byte	0x4
 3523 018b F3       		.byte	0xf3
 3524 018c 01       		.uleb128 0x1
 3525 018d 51       		.byte	0x51
 3526 018e 9F       		.byte	0x9f
 3527 018f 00000000 		.4byte	0
 3528 0193 00000000 		.4byte	0
 3529              	.LLST12:
 3530 0197 00000000 		.4byte	.LVL18
 3531 019b 07000000 		.4byte	.LVL20-1
 3532 019f 0100     		.2byte	0x1
 3533 01a1 52       		.byte	0x52
 3534 01a2 07000000 		.4byte	.LVL20-1
 3535 01a6 10000000 		.4byte	.LFE44
 3536 01aa 0400     		.2byte	0x4
 3537 01ac F3       		.byte	0xf3
 3538 01ad 01       		.uleb128 0x1
 3539 01ae 52       		.byte	0x52
 3540 01af 9F       		.byte	0x9f
 3541 01b0 00000000 		.4byte	0
 3542 01b4 00000000 		.4byte	0
 3543              	.LLST13:
 3544 01b8 00000000 		.4byte	.LVL21
 3545 01bc 07000000 		.4byte	.LVL23-1
 3546 01c0 0100     		.2byte	0x1
 3547 01c2 50       		.byte	0x50
 3548 01c3 07000000 		.4byte	.LVL23-1
 3549 01c7 10000000 		.4byte	.LFE45
 3550 01cb 0400     		.2byte	0x4
 3551 01cd F3       		.byte	0xf3
 3552 01ce 01       		.uleb128 0x1
 3553 01cf 50       		.byte	0x50
 3554 01d0 9F       		.byte	0x9f
 3555 01d1 00000000 		.4byte	0
 3556 01d5 00000000 		.4byte	0
 3557              	.LLST14:
 3558 01d9 00000000 		.4byte	.LVL21
 3559 01dd 04000000 		.4byte	.LVL22
 3560 01e1 0100     		.2byte	0x1
 3561 01e3 51       		.byte	0x51
 3562 01e4 04000000 		.4byte	.LVL22
 3563 01e8 10000000 		.4byte	.LFE45
 3564 01ec 0400     		.2byte	0x4
 3565 01ee F3       		.byte	0xf3
 3566 01ef 01       		.uleb128 0x1
 3567 01f0 51       		.byte	0x51
 3568 01f1 9F       		.byte	0x9f
 3569 01f2 00000000 		.4byte	0
 3570 01f6 00000000 		.4byte	0
 3571              	.LLST15:
 3572 01fa 00000000 		.4byte	.LVL21
 3573 01fe 07000000 		.4byte	.LVL23-1
 3574 0202 0100     		.2byte	0x1
ARM GAS  /var/folders/qh/xwg3v3kj02qbxczjpdb8lzfr0000gn/T//ccxFafFa.s 			page 64


 3575 0204 52       		.byte	0x52
 3576 0205 07000000 		.4byte	.LVL23-1
 3577 0209 10000000 		.4byte	.LFE45
 3578 020d 0400     		.2byte	0x4
 3579 020f F3       		.byte	0xf3
 3580 0210 01       		.uleb128 0x1
 3581 0211 52       		.byte	0x52
 3582 0212 9F       		.byte	0x9f
 3583 0213 00000000 		.4byte	0
 3584 0217 00000000 		.4byte	0
 3585              	.LLST16:
 3586 021b 00000000 		.4byte	.LVL24
 3587 021f 07000000 		.4byte	.LVL26-1
 3588 0223 0100     		.2byte	0x1
 3589 0225 50       		.byte	0x50
 3590 0226 07000000 		.4byte	.LVL26-1
 3591 022a 10000000 		.4byte	.LFE46
 3592 022e 0400     		.2byte	0x4
 3593 0230 F3       		.byte	0xf3
 3594 0231 01       		.uleb128 0x1
 3595 0232 50       		.byte	0x50
 3596 0233 9F       		.byte	0x9f
 3597 0234 00000000 		.4byte	0
 3598 0238 00000000 		.4byte	0
 3599              	.LLST17:
 3600 023c 00000000 		.4byte	.LVL24
 3601 0240 04000000 		.4byte	.LVL25
 3602 0244 0100     		.2byte	0x1
 3603 0246 51       		.byte	0x51
 3604 0247 04000000 		.4byte	.LVL25
 3605 024b 10000000 		.4byte	.LFE46
 3606 024f 0400     		.2byte	0x4
 3607 0251 F3       		.byte	0xf3
 3608 0252 01       		.uleb128 0x1
 3609 0253 51       		.byte	0x51
 3610 0254 9F       		.byte	0x9f
 3611 0255 00000000 		.4byte	0
 3612 0259 00000000 		.4byte	0
 3613              	.LLST18:
 3614 025d 00000000 		.4byte	.LVL24
 3615 0261 07000000 		.4byte	.LVL26-1
 3616 0265 0100     		.2byte	0x1
 3617 0267 52       		.byte	0x52
 3618 0268 07000000 		.4byte	.LVL26-1
 3619 026c 10000000 		.4byte	.LFE46
 3620 0270 0400     		.2byte	0x4
 3621 0272 F3       		.byte	0xf3
 3622 0273 01       		.uleb128 0x1
 3623 0274 52       		.byte	0x52
 3624 0275 9F       		.byte	0x9f
 3625 0276 00000000 		.4byte	0
 3626 027a 00000000 		.4byte	0
 3627              	.LLST19:
 3628 027e 00000000 		.4byte	.LVL27
 3629 0282 07000000 		.4byte	.LVL29-1
 3630 0286 0100     		.2byte	0x1
 3631 0288 50       		.byte	0x50
ARM GAS  /var/folders/qh/xwg3v3kj02qbxczjpdb8lzfr0000gn/T//ccxFafFa.s 			page 65


 3632 0289 07000000 		.4byte	.LVL29-1
 3633 028d 10000000 		.4byte	.LFE47
 3634 0291 0400     		.2byte	0x4
 3635 0293 F3       		.byte	0xf3
 3636 0294 01       		.uleb128 0x1
 3637 0295 50       		.byte	0x50
 3638 0296 9F       		.byte	0x9f
 3639 0297 00000000 		.4byte	0
 3640 029b 00000000 		.4byte	0
 3641              	.LLST20:
 3642 029f 00000000 		.4byte	.LVL27
 3643 02a3 04000000 		.4byte	.LVL28
 3644 02a7 0100     		.2byte	0x1
 3645 02a9 51       		.byte	0x51
 3646 02aa 04000000 		.4byte	.LVL28
 3647 02ae 10000000 		.4byte	.LFE47
 3648 02b2 0400     		.2byte	0x4
 3649 02b4 F3       		.byte	0xf3
 3650 02b5 01       		.uleb128 0x1
 3651 02b6 51       		.byte	0x51
 3652 02b7 9F       		.byte	0x9f
 3653 02b8 00000000 		.4byte	0
 3654 02bc 00000000 		.4byte	0
 3655              	.LLST21:
 3656 02c0 00000000 		.4byte	.LVL27
 3657 02c4 07000000 		.4byte	.LVL29-1
 3658 02c8 0100     		.2byte	0x1
 3659 02ca 52       		.byte	0x52
 3660 02cb 07000000 		.4byte	.LVL29-1
 3661 02cf 10000000 		.4byte	.LFE47
 3662 02d3 0400     		.2byte	0x4
 3663 02d5 F3       		.byte	0xf3
 3664 02d6 01       		.uleb128 0x1
 3665 02d7 52       		.byte	0x52
 3666 02d8 9F       		.byte	0x9f
 3667 02d9 00000000 		.4byte	0
 3668 02dd 00000000 		.4byte	0
 3669              	.LLST22:
 3670 02e1 00000000 		.4byte	.LVL30
 3671 02e5 07000000 		.4byte	.LVL32-1
 3672 02e9 0100     		.2byte	0x1
 3673 02eb 50       		.byte	0x50
 3674 02ec 07000000 		.4byte	.LVL32-1
 3675 02f0 10000000 		.4byte	.LFE48
 3676 02f4 0400     		.2byte	0x4
 3677 02f6 F3       		.byte	0xf3
 3678 02f7 01       		.uleb128 0x1
 3679 02f8 50       		.byte	0x50
 3680 02f9 9F       		.byte	0x9f
 3681 02fa 00000000 		.4byte	0
 3682 02fe 00000000 		.4byte	0
 3683              	.LLST23:
 3684 0302 00000000 		.4byte	.LVL30
 3685 0306 04000000 		.4byte	.LVL31
 3686 030a 0100     		.2byte	0x1
 3687 030c 51       		.byte	0x51
 3688 030d 04000000 		.4byte	.LVL31
ARM GAS  /var/folders/qh/xwg3v3kj02qbxczjpdb8lzfr0000gn/T//ccxFafFa.s 			page 66


 3689 0311 10000000 		.4byte	.LFE48
 3690 0315 0400     		.2byte	0x4
 3691 0317 F3       		.byte	0xf3
 3692 0318 01       		.uleb128 0x1
 3693 0319 51       		.byte	0x51
 3694 031a 9F       		.byte	0x9f
 3695 031b 00000000 		.4byte	0
 3696 031f 00000000 		.4byte	0
 3697              	.LLST24:
 3698 0323 00000000 		.4byte	.LVL30
 3699 0327 07000000 		.4byte	.LVL32-1
 3700 032b 0100     		.2byte	0x1
 3701 032d 52       		.byte	0x52
 3702 032e 07000000 		.4byte	.LVL32-1
 3703 0332 10000000 		.4byte	.LFE48
 3704 0336 0400     		.2byte	0x4
 3705 0338 F3       		.byte	0xf3
 3706 0339 01       		.uleb128 0x1
 3707 033a 52       		.byte	0x52
 3708 033b 9F       		.byte	0x9f
 3709 033c 00000000 		.4byte	0
 3710 0340 00000000 		.4byte	0
 3711              	.LLST25:
 3712 0344 00000000 		.4byte	.LVL33
 3713 0348 07000000 		.4byte	.LVL35-1
 3714 034c 0100     		.2byte	0x1
 3715 034e 50       		.byte	0x50
 3716 034f 07000000 		.4byte	.LVL35-1
 3717 0353 10000000 		.4byte	.LFE49
 3718 0357 0400     		.2byte	0x4
 3719 0359 F3       		.byte	0xf3
 3720 035a 01       		.uleb128 0x1
 3721 035b 50       		.byte	0x50
 3722 035c 9F       		.byte	0x9f
 3723 035d 00000000 		.4byte	0
 3724 0361 00000000 		.4byte	0
 3725              	.LLST26:
 3726 0365 00000000 		.4byte	.LVL33
 3727 0369 04000000 		.4byte	.LVL34
 3728 036d 0100     		.2byte	0x1
 3729 036f 51       		.byte	0x51
 3730 0370 04000000 		.4byte	.LVL34
 3731 0374 10000000 		.4byte	.LFE49
 3732 0378 0400     		.2byte	0x4
 3733 037a F3       		.byte	0xf3
 3734 037b 01       		.uleb128 0x1
 3735 037c 51       		.byte	0x51
 3736 037d 9F       		.byte	0x9f
 3737 037e 00000000 		.4byte	0
 3738 0382 00000000 		.4byte	0
 3739              	.LLST27:
 3740 0386 00000000 		.4byte	.LVL33
 3741 038a 07000000 		.4byte	.LVL35-1
 3742 038e 0100     		.2byte	0x1
 3743 0390 52       		.byte	0x52
 3744 0391 07000000 		.4byte	.LVL35-1
 3745 0395 10000000 		.4byte	.LFE49
ARM GAS  /var/folders/qh/xwg3v3kj02qbxczjpdb8lzfr0000gn/T//ccxFafFa.s 			page 67


 3746 0399 0400     		.2byte	0x4
 3747 039b F3       		.byte	0xf3
 3748 039c 01       		.uleb128 0x1
 3749 039d 52       		.byte	0x52
 3750 039e 9F       		.byte	0x9f
 3751 039f 00000000 		.4byte	0
 3752 03a3 00000000 		.4byte	0
 3753              	.LLST28:
 3754 03a7 00000000 		.4byte	.LVL36
 3755 03ab 07000000 		.4byte	.LVL38-1
 3756 03af 0100     		.2byte	0x1
 3757 03b1 50       		.byte	0x50
 3758 03b2 07000000 		.4byte	.LVL38-1
 3759 03b6 10000000 		.4byte	.LFE50
 3760 03ba 0400     		.2byte	0x4
 3761 03bc F3       		.byte	0xf3
 3762 03bd 01       		.uleb128 0x1
 3763 03be 50       		.byte	0x50
 3764 03bf 9F       		.byte	0x9f
 3765 03c0 00000000 		.4byte	0
 3766 03c4 00000000 		.4byte	0
 3767              	.LLST29:
 3768 03c8 00000000 		.4byte	.LVL36
 3769 03cc 04000000 		.4byte	.LVL37
 3770 03d0 0100     		.2byte	0x1
 3771 03d2 51       		.byte	0x51
 3772 03d3 04000000 		.4byte	.LVL37
 3773 03d7 10000000 		.4byte	.LFE50
 3774 03db 0400     		.2byte	0x4
 3775 03dd F3       		.byte	0xf3
 3776 03de 01       		.uleb128 0x1
 3777 03df 51       		.byte	0x51
 3778 03e0 9F       		.byte	0x9f
 3779 03e1 00000000 		.4byte	0
 3780 03e5 00000000 		.4byte	0
 3781              	.LLST30:
 3782 03e9 00000000 		.4byte	.LVL36
 3783 03ed 07000000 		.4byte	.LVL38-1
 3784 03f1 0100     		.2byte	0x1
 3785 03f3 52       		.byte	0x52
 3786 03f4 07000000 		.4byte	.LVL38-1
 3787 03f8 10000000 		.4byte	.LFE50
 3788 03fc 0400     		.2byte	0x4
 3789 03fe F3       		.byte	0xf3
 3790 03ff 01       		.uleb128 0x1
 3791 0400 52       		.byte	0x52
 3792 0401 9F       		.byte	0x9f
 3793 0402 00000000 		.4byte	0
 3794 0406 00000000 		.4byte	0
 3795              	.LLST31:
 3796 040a 00000000 		.4byte	.LVL39
 3797 040e 07000000 		.4byte	.LVL41-1
 3798 0412 0100     		.2byte	0x1
 3799 0414 50       		.byte	0x50
 3800 0415 07000000 		.4byte	.LVL41-1
 3801 0419 10000000 		.4byte	.LFE51
 3802 041d 0400     		.2byte	0x4
ARM GAS  /var/folders/qh/xwg3v3kj02qbxczjpdb8lzfr0000gn/T//ccxFafFa.s 			page 68


 3803 041f F3       		.byte	0xf3
 3804 0420 01       		.uleb128 0x1
 3805 0421 50       		.byte	0x50
 3806 0422 9F       		.byte	0x9f
 3807 0423 00000000 		.4byte	0
 3808 0427 00000000 		.4byte	0
 3809              	.LLST32:
 3810 042b 00000000 		.4byte	.LVL39
 3811 042f 04000000 		.4byte	.LVL40
 3812 0433 0100     		.2byte	0x1
 3813 0435 51       		.byte	0x51
 3814 0436 04000000 		.4byte	.LVL40
 3815 043a 10000000 		.4byte	.LFE51
 3816 043e 0400     		.2byte	0x4
 3817 0440 F3       		.byte	0xf3
 3818 0441 01       		.uleb128 0x1
 3819 0442 51       		.byte	0x51
 3820 0443 9F       		.byte	0x9f
 3821 0444 00000000 		.4byte	0
 3822 0448 00000000 		.4byte	0
 3823              	.LLST33:
 3824 044c 00000000 		.4byte	.LVL39
 3825 0450 07000000 		.4byte	.LVL41-1
 3826 0454 0100     		.2byte	0x1
 3827 0456 52       		.byte	0x52
 3828 0457 07000000 		.4byte	.LVL41-1
 3829 045b 10000000 		.4byte	.LFE51
 3830 045f 0400     		.2byte	0x4
 3831 0461 F3       		.byte	0xf3
 3832 0462 01       		.uleb128 0x1
 3833 0463 52       		.byte	0x52
 3834 0464 9F       		.byte	0x9f
 3835 0465 00000000 		.4byte	0
 3836 0469 00000000 		.4byte	0
 3837              		.section	.debug_aranges,"",%progbits
 3838 0000 74000000 		.4byte	0x74
 3839 0004 0200     		.2byte	0x2
 3840 0006 00000000 		.4byte	.Ldebug_info0
 3841 000a 04       		.byte	0x4
 3842 000b 00       		.byte	0
 3843 000c 0000     		.2byte	0
 3844 000e 0000     		.2byte	0
 3845 0010 00000000 		.4byte	.LFB40
 3846 0014 1A000000 		.4byte	.LFE40-.LFB40
 3847 0018 00000000 		.4byte	.LFB41
 3848 001c 80000000 		.4byte	.LFE41-.LFB41
 3849 0020 00000000 		.4byte	.LFB42
 3850 0024 10000000 		.4byte	.LFE42-.LFB42
 3851 0028 00000000 		.4byte	.LFB43
 3852 002c 10000000 		.4byte	.LFE43-.LFB43
 3853 0030 00000000 		.4byte	.LFB44
 3854 0034 10000000 		.4byte	.LFE44-.LFB44
 3855 0038 00000000 		.4byte	.LFB45
 3856 003c 10000000 		.4byte	.LFE45-.LFB45
 3857 0040 00000000 		.4byte	.LFB46
 3858 0044 10000000 		.4byte	.LFE46-.LFB46
 3859 0048 00000000 		.4byte	.LFB47
ARM GAS  /var/folders/qh/xwg3v3kj02qbxczjpdb8lzfr0000gn/T//ccxFafFa.s 			page 69


 3860 004c 10000000 		.4byte	.LFE47-.LFB47
 3861 0050 00000000 		.4byte	.LFB48
 3862 0054 10000000 		.4byte	.LFE48-.LFB48
 3863 0058 00000000 		.4byte	.LFB49
 3864 005c 10000000 		.4byte	.LFE49-.LFB49
 3865 0060 00000000 		.4byte	.LFB50
 3866 0064 10000000 		.4byte	.LFE50-.LFB50
 3867 0068 00000000 		.4byte	.LFB51
 3868 006c 10000000 		.4byte	.LFE51-.LFB51
 3869 0070 00000000 		.4byte	0
 3870 0074 00000000 		.4byte	0
 3871              		.section	.debug_ranges,"",%progbits
 3872              	.Ldebug_ranges0:
 3873 0000 00000000 		.4byte	.LFB40
 3874 0004 1A000000 		.4byte	.LFE40
 3875 0008 00000000 		.4byte	.LFB41
 3876 000c 80000000 		.4byte	.LFE41
 3877 0010 00000000 		.4byte	.LFB42
 3878 0014 10000000 		.4byte	.LFE42
 3879 0018 00000000 		.4byte	.LFB43
 3880 001c 10000000 		.4byte	.LFE43
 3881 0020 00000000 		.4byte	.LFB44
 3882 0024 10000000 		.4byte	.LFE44
 3883 0028 00000000 		.4byte	.LFB45
 3884 002c 10000000 		.4byte	.LFE45
 3885 0030 00000000 		.4byte	.LFB46
 3886 0034 10000000 		.4byte	.LFE46
 3887 0038 00000000 		.4byte	.LFB47
 3888 003c 10000000 		.4byte	.LFE47
 3889 0040 00000000 		.4byte	.LFB48
 3890 0044 10000000 		.4byte	.LFE48
 3891 0048 00000000 		.4byte	.LFB49
 3892 004c 10000000 		.4byte	.LFE49
 3893 0050 00000000 		.4byte	.LFB50
 3894 0054 10000000 		.4byte	.LFE50
 3895 0058 00000000 		.4byte	.LFB51
 3896 005c 10000000 		.4byte	.LFE51
 3897 0060 00000000 		.4byte	0
 3898 0064 00000000 		.4byte	0
 3899              		.section	.debug_line,"",%progbits
 3900              	.Ldebug_line0:
 3901 0000 67030000 		.section	.debug_str,"MS",%progbits,1
 3901      02005F02 
 3901      00000201 
 3901      FB0E0D00 
 3901      01010101 
 3902              	.LASF48:
 3903 0000 54687265 		.ascii	"ThreadsList\000"
 3903      6164734C 
 3903      69737400 
 3904              	.LASF40:
 3905 000c 705F7761 		.ascii	"p_waiting\000"
 3905      6974696E 
 3905      6700
 3906              	.LASF150:
 3907 0016 53657269 		.ascii	"SerialDriver\000"
 3907      616C4472 
ARM GAS  /var/folders/qh/xwg3v3kj02qbxczjpdb8lzfr0000gn/T//ccxFafFa.s 			page 70


 3907      69766572 
 3907      00
 3908              	.LASF39:
 3909 0023 705F7469 		.ascii	"p_time\000"
 3909      6D6500
 3910              	.LASF186:
 3911 002a 63687670 		.ascii	"chvprintf\000"
 3911      72696E74 
 3911      6600
 3912              	.LASF49:
 3913 0034 72656761 		.ascii	"regarm_t\000"
 3913      726D5F74 
 3913      00
 3914              	.LASF30:
 3915 003d 705F7072 		.ascii	"p_prio\000"
 3915      696F00
 3916              	.LASF133:
 3917 0044 646D616D 		.ascii	"dmamode\000"
 3917      6F646500 
 3918              	.LASF26:
 3919 004c 73797374 		.ascii	"systime_t\000"
 3919      696D655F 
 3919      7400
 3920              	.LASF56:
 3921 0056 6D5F6F77 		.ascii	"m_owner\000"
 3921      6E657200 
 3922              	.LASF41:
 3923 005e 705F6D73 		.ascii	"p_msgqueue\000"
 3923      67717565 
 3923      756500
 3924              	.LASF123:
 3925 0069 61646365 		.ascii	"adcerror_t\000"
 3925      72726F72 
 3925      5F7400
 3926              	.LASF1:
 3927 0074 756E7369 		.ascii	"unsigned int\000"
 3927      676E6564 
 3927      20696E74 
 3927      00
 3928              	.LASF77:
 3929 0081 715F7264 		.ascii	"q_rdptr\000"
 3929      70747200 
 3930              	.LASF80:
 3931 0089 716E6F74 		.ascii	"qnotify_t\000"
 3931      6966795F 
 3931      7400
 3932              	.LASF61:
 3933 0093 656C5F6D 		.ascii	"el_mask\000"
 3933      61736B00 
 3934              	.LASF83:
 3935 009b 42617365 		.ascii	"BaseSequentialStreamVMT\000"
 3935      53657175 
 3935      656E7469 
 3935      616C5374 
 3935      7265616D 
 3936              	.LASF144:
 3937 00b3 64756D6D 		.ascii	"dummy\000"
ARM GAS  /var/folders/qh/xwg3v3kj02qbxczjpdb8lzfr0000gn/T//ccxFafFa.s 			page 71


 3937      7900
 3938              	.LASF99:
 3939 00b9 434D4152 		.ascii	"CMAR\000"
 3939      00
 3940              	.LASF189:
 3941 00be 636D642E 		.ascii	"cmd.c\000"
 3941      6300
 3942              	.LASF139:
 3943 00c4 6572726F 		.ascii	"error_cb\000"
 3943      725F6362 
 3943      00
 3944              	.LASF67:
 3945 00cd 77746F62 		.ascii	"wtobjp\000"
 3945      6A7000
 3946              	.LASF79:
 3947 00d4 715F6C69 		.ascii	"q_link\000"
 3947      6E6B00
 3948              	.LASF100:
 3949 00db 444D415F 		.ascii	"DMA_Channel_TypeDef\000"
 3949      4368616E 
 3949      6E656C5F 
 3949      54797065 
 3949      44656600 
 3950              	.LASF188:
 3951 00ef 474E5520 		.ascii	"GNU C 4.8.3 20131129 (release) [ARM/embedded-4_8-br"
 3951      4320342E 
 3951      382E3320 
 3951      32303133 
 3951      31313239 
 3952 0122 616E6368 		.ascii	"anch revision 205641] -mcpu=cortex-m0 -mno-thumb-in"
 3952      20726576 
 3952      6973696F 
 3952      6E203230 
 3952      35363431 
 3953 0155 74657277 		.ascii	"terwork -mthumb -ggdb -O2 -fomit-frame-pointer -fal"
 3953      6F726B20 
 3953      2D6D7468 
 3953      756D6220 
 3953      2D676764 
 3954 0188 69676E2D 		.ascii	"ign-functions=16 -ffunction-sections -fdata-section"
 3954      66756E63 
 3954      74696F6E 
 3954      733D3136 
 3954      202D6666 
 3955 01bb 73202D66 		.ascii	"s -fno-common\000"
 3955      6E6F2D63 
 3955      6F6D6D6F 
 3955      6E00
 3956              	.LASF68:
 3957 01c9 65776D61 		.ascii	"ewmask\000"
 3957      736B00
 3958              	.LASF179:
 3959 01d0 636D6450 		.ascii	"cmdPwm\000"
 3959      776D00
 3960              	.LASF159:
 3961 01d7 77726974 		.ascii	"writet\000"
 3961      657400
ARM GAS  /var/folders/qh/xwg3v3kj02qbxczjpdb8lzfr0000gn/T//ccxFafFa.s 			page 72


 3962              	.LASF97:
 3963 01de 434E4454 		.ascii	"CNDTR\000"
 3963      5200
 3964              	.LASF101:
 3965 01e4 47545052 		.ascii	"GTPR\000"
 3965      00
 3966              	.LASF152:
 3967 01e9 69717565 		.ascii	"iqueue\000"
 3967      756500
 3968              	.LASF11:
 3969 01f0 75696E74 		.ascii	"uint32_t\000"
 3969      33325F74 
 3969      00
 3970              	.LASF135:
 3971 01f9 61646365 		.ascii	"adcerrorcallback_t\000"
 3971      72726F72 
 3971      63616C6C 
 3971      6261636B 
 3971      5F7400
 3972              	.LASF24:
 3973 020c 6576656E 		.ascii	"eventmask_t\000"
 3973      746D6173 
 3973      6B5F7400 
 3974              	.LASF106:
 3975 0218 69666372 		.ascii	"ifcr\000"
 3975      00
 3976              	.LASF185:
 3977 021d 76616C75 		.ascii	"valu\000"
 3977      00
 3978              	.LASF169:
 3979 0222 666C6F61 		.ascii	"float\000"
 3979      7400
 3980              	.LASF131:
 3981 0228 6D757465 		.ascii	"mutex\000"
 3981      7800
 3982              	.LASF149:
 3983 022e 73647374 		.ascii	"sdstate_t\000"
 3983      6174655F 
 3983      7400
 3984              	.LASF151:
 3985 0238 6576656E 		.ascii	"event\000"
 3985      7400
 3986              	.LASF22:
 3987 023e 74707269 		.ascii	"tprio_t\000"
 3987      6F5F7400 
 3988              	.LASF138:
 3989 0246 656E645F 		.ascii	"end_cb\000"
 3989      636200
 3990              	.LASF70:
 3991 024d 7466756E 		.ascii	"tfunc_t\000"
 3991      635F7400 
 3992              	.LASF136:
 3993 0255 63697263 		.ascii	"circular\000"
 3993      756C6172 
 3993      00
 3994              	.LASF15:
 3995 025e 6C6F6E67 		.ascii	"long long unsigned int\000"
ARM GAS  /var/folders/qh/xwg3v3kj02qbxczjpdb8lzfr0000gn/T//ccxFafFa.s 			page 73


 3995      206C6F6E 
 3995      6720756E 
 3995      7369676E 
 3995      65642069 
 3996              	.LASF109:
 3997 0275 76656374 		.ascii	"vector\000"
 3997      6F7200
 3998              	.LASF177:
 3999 027c 636D6442 		.ascii	"cmdBluetooth\000"
 3999      6C756574 
 3999      6F6F7468 
 3999      00
 4000              	.LASF180:
 4001 0289 636D6444 		.ascii	"cmdDate\000"
 4001      61746500 
 4002              	.LASF93:
 4003 0291 43485345 		.ascii	"CHSELR\000"
 4003      4C5200
 4004              	.LASF32:
 4005 0298 705F6E65 		.ascii	"p_newer\000"
 4005      77657200 
 4006              	.LASF184:
 4007 02a0 76616C75 		.ascii	"value\000"
 4007      6500
 4008              	.LASF72:
 4009 02a6 715F7761 		.ascii	"q_waiting\000"
 4009      6974696E 
 4009      6700
 4010              	.LASF98:
 4011 02b0 43504152 		.ascii	"CPAR\000"
 4011      00
 4012              	.LASF161:
 4013 02b5 5F5F676E 		.ascii	"__gnuc_va_list\000"
 4013      75635F76 
 4013      615F6C69 
 4013      737400
 4014              	.LASF157:
 4015 02c4 70757474 		.ascii	"putt\000"
 4015      00
 4016              	.LASF190:
 4017 02c9 2F557365 		.ascii	"/Users/John/Development/embedded/ChibiOS-RT/BluC/ST"
 4017      72732F4A 
 4017      6F686E2F 
 4017      44657665 
 4017      6C6F706D 
 4018 02fc 4D333246 		.ascii	"M32F051\000"
 4018      30353100 
 4019              	.LASF3:
 4020 0304 73697A65 		.ascii	"size_t\000"
 4020      5F7400
 4021              	.LASF65:
 4022 030b 7264796D 		.ascii	"rdymsg\000"
 4022      736700
 4023              	.LASF89:
 4024 0312 534D5052 		.ascii	"SMPR\000"
 4024      00
 4025              	.LASF16:
ARM GAS  /var/folders/qh/xwg3v3kj02qbxczjpdb8lzfr0000gn/T//ccxFafFa.s 			page 74


 4026 0317 626F6F6C 		.ascii	"bool_t\000"
 4026      5F7400
 4027              	.LASF17:
 4028 031e 5F426F6F 		.ascii	"_Bool\000"
 4028      6C00
 4029              	.LASF147:
 4030 0324 53445F53 		.ascii	"SD_STOP\000"
 4030      544F5000 
 4031              	.LASF165:
 4032 032c 61726763 		.ascii	"argc\000"
 4032      00
 4033              	.LASF122:
 4034 0331 4144435F 		.ascii	"ADC_ERR_AWD\000"
 4034      4552525F 
 4034      41574400 
 4035              	.LASF104:
 4036 033d 55534152 		.ascii	"USART_TypeDef\000"
 4036      545F5479 
 4036      70654465 
 4036      6600
 4037              	.LASF54:
 4038 034b 4D757465 		.ascii	"Mutex\000"
 4038      7800
 4039              	.LASF82:
 4040 0351 4F757470 		.ascii	"OutputQueue\000"
 4040      75745175 
 4040      65756500 
 4041              	.LASF170:
 4042 035d 636D6447 		.ascii	"cmdGetTemp\000"
 4042      65745465 
 4042      6D7000
 4043              	.LASF78:
 4044 0368 715F6E6F 		.ascii	"q_notify\000"
 4044      74696679 
 4044      00
 4045              	.LASF132:
 4046 0371 646D6173 		.ascii	"dmastp\000"
 4046      747000
 4047              	.LASF191:
 4048 0378 63687072 		.ascii	"chprintf\000"
 4048      696E7466 
 4048      00
 4049              	.LASF115:
 4050 0381 4144435F 		.ascii	"ADC_COMPLETE\000"
 4050      434F4D50 
 4050      4C455445 
 4050      00
 4051              	.LASF155:
 4052 038e 636C6F63 		.ascii	"clock\000"
 4052      6B00
 4053              	.LASF116:
 4054 0394 4144435F 		.ascii	"ADC_ERROR\000"
 4054      4552524F 
 4054      5200
 4055              	.LASF124:
 4056 039e 41444344 		.ascii	"ADCDriver\000"
 4056      72697665 
ARM GAS  /var/folders/qh/xwg3v3kj02qbxczjpdb8lzfr0000gn/T//ccxFafFa.s 			page 75


 4056      7200
 4057              	.LASF34:
 4058 03a8 705F6E61 		.ascii	"p_name\000"
 4058      6D6500
 4059              	.LASF86:
 4060 03af 42617365 		.ascii	"BaseSequentialStream\000"
 4060      53657175 
 4060      656E7469 
 4060      616C5374 
 4060      7265616D 
 4061              	.LASF81:
 4062 03c4 496E7075 		.ascii	"InputQueue\000"
 4062      74517565 
 4062      756500
 4063              	.LASF47:
 4064 03cf 54687265 		.ascii	"ThreadsQueue\000"
 4064      61647351 
 4064      75657565 
 4064      00
 4065              	.LASF69:
 4066 03dc 63686172 		.ascii	"char\000"
 4066      00
 4067              	.LASF76:
 4068 03e1 715F7772 		.ascii	"q_wrptr\000"
 4068      70747200 
 4069              	.LASF107:
 4070 03e9 69736869 		.ascii	"ishift\000"
 4070      667400
 4071              	.LASF27:
 4072 03f0 54687265 		.ascii	"Thread\000"
 4072      616400
 4073              	.LASF19:
 4074 03f7 74737461 		.ascii	"tstate_t\000"
 4074      74655F74 
 4074      00
 4075              	.LASF110:
 4076 0400 73746D33 		.ascii	"stm32_dma_stream_t\000"
 4076      325F646D 
 4076      615F7374 
 4076      7265616D 
 4076      5F7400
 4077              	.LASF33:
 4078 0413 705F6F6C 		.ascii	"p_older\000"
 4078      64657200 
 4079              	.LASF35:
 4080 041b 705F7374 		.ascii	"p_state\000"
 4080      61746500 
 4081              	.LASF4:
 4082 0423 75696E74 		.ascii	"uint8_t\000"
 4082      385F7400 
 4083              	.LASF25:
 4084 042b 666C6167 		.ascii	"flagsmask_t\000"
 4084      736D6173 
 4084      6B5F7400 
 4085              	.LASF102:
 4086 0437 52544F52 		.ascii	"RTOR\000"
 4086      00
ARM GAS  /var/folders/qh/xwg3v3kj02qbxczjpdb8lzfr0000gn/T//ccxFafFa.s 			page 76


 4087              	.LASF182:
 4088 043c 61646367 		.ascii	"adcgrpcfg1\000"
 4088      72706366 
 4088      673100
 4089              	.LASF46:
 4090 0447 705F6D70 		.ascii	"p_mpool\000"
 4090      6F6F6C00 
 4091              	.LASF44:
 4092 044f 705F6D74 		.ascii	"p_mtxlist\000"
 4092      786C6973 
 4092      7400
 4093              	.LASF178:
 4094 0459 636D6449 		.ascii	"cmdI2c\000"
 4094      326300
 4095              	.LASF154:
 4096 0460 75736172 		.ascii	"usart\000"
 4096      7400
 4097              	.LASF164:
 4098 0466 76615F6C 		.ascii	"va_list\000"
 4098      69737400 
 4099              	.LASF127:
 4100 046e 73616D70 		.ascii	"samples\000"
 4100      6C657300 
 4101              	.LASF13:
 4102 0476 6C6F6E67 		.ascii	"long long int\000"
 4102      206C6F6E 
 4102      6720696E 
 4102      7400
 4103              	.LASF84:
 4104 0484 77726974 		.ascii	"write\000"
 4104      6500
 4105              	.LASF74:
 4106 048a 715F6275 		.ascii	"q_buffer\000"
 4106      66666572 
 4106      00
 4107              	.LASF141:
 4108 0493 736D7072 		.ascii	"smpr\000"
 4108      00
 4109              	.LASF128:
 4110 0498 64657074 		.ascii	"depth\000"
 4110      6800
 4111              	.LASF23:
 4112 049e 6D73675F 		.ascii	"msg_t\000"
 4112      7400
 4113              	.LASF176:
 4114 04a4 636D6453 		.ascii	"cmdSpi\000"
 4114      706900
 4115              	.LASF52:
 4116 04ab 636F6E74 		.ascii	"context\000"
 4116      65787400 
 4117              	.LASF181:
 4118 04b3 76616C75 		.ascii	"value1\000"
 4118      653100
 4119              	.LASF145:
 4120 04ba 41444343 		.ascii	"ADCConfig\000"
 4120      6F6E6669 
 4120      6700
ARM GAS  /var/folders/qh/xwg3v3kj02qbxczjpdb8lzfr0000gn/T//ccxFafFa.s 			page 77


 4121              	.LASF134:
 4122 04c4 61646363 		.ascii	"adccallback_t\000"
 4122      616C6C62 
 4122      61636B5F 
 4122      7400
 4123              	.LASF36:
 4124 04d2 705F666C 		.ascii	"p_flags\000"
 4124      61677300 
 4125              	.LASF163:
 4126 04da 5F5F6170 		.ascii	"__ap\000"
 4126      00
 4127              	.LASF183:
 4128 04df 61646344 		.ascii	"adcDataReady\000"
 4128      61746152 
 4128      65616479 
 4128      00
 4129              	.LASF174:
 4130 04ec 636D6444 		.ascii	"cmdDac\000"
 4130      616300
 4131              	.LASF21:
 4132 04f3 74736C69 		.ascii	"tslices_t\000"
 4132      6365735F 
 4132      7400
 4133              	.LASF173:
 4134 04fd 636D6441 		.ascii	"cmdAdc\000"
 4134      646300
 4135              	.LASF87:
 4136 0504 43464752 		.ascii	"CFGR1\000"
 4136      3100
 4137              	.LASF88:
 4138 050a 43464752 		.ascii	"CFGR2\000"
 4138      3200
 4139              	.LASF63:
 4140 0510 4576656E 		.ascii	"EventSource\000"
 4140      74536F75 
 4140      72636500 
 4141              	.LASF187:
 4142 051c 63685468 		.ascii	"chThdCreateStatic\000"
 4142      64437265 
 4142      61746553 
 4142      74617469 
 4142      6300
 4143              	.LASF59:
 4144 052e 656C5F6E 		.ascii	"el_next\000"
 4144      65787400 
 4145              	.LASF42:
 4146 0536 705F6D73 		.ascii	"p_msg\000"
 4146      6700
 4147              	.LASF18:
 4148 053c 746D6F64 		.ascii	"tmode_t\000"
 4148      655F7400 
 4149              	.LASF118:
 4150 0544 61646373 		.ascii	"adcsample_t\000"
 4150      616D706C 
 4150      655F7400 
 4151              	.LASF166:
 4152 0550 61726776 		.ascii	"argv\000"
ARM GAS  /var/folders/qh/xwg3v3kj02qbxczjpdb8lzfr0000gn/T//ccxFafFa.s 			page 78


 4152      00
 4153              	.LASF71:
 4154 0555 47656E65 		.ascii	"GenericQueue\000"
 4154      72696351 
 4154      75657565 
 4154      00
 4155              	.LASF153:
 4156 0562 6F717565 		.ascii	"oqueue\000"
 4156      756500
 4157              	.LASF7:
 4158 0569 75696E74 		.ascii	"uint16_t\000"
 4158      31365F74 
 4158      00
 4159              	.LASF51:
 4160 0572 696E7463 		.ascii	"intctx\000"
 4160      747800
 4161              	.LASF121:
 4162 0579 4144435F 		.ascii	"ADC_ERR_OVERFLOW\000"
 4162      4552525F 
 4162      4F564552 
 4162      464C4F57 
 4162      00
 4163              	.LASF105:
 4164 058a 6368616E 		.ascii	"channel\000"
 4164      6E656C00 
 4165              	.LASF114:
 4166 0592 4144435F 		.ascii	"ADC_ACTIVE\000"
 4166      41435449 
 4166      564500
 4167              	.LASF148:
 4168 059d 53445F52 		.ascii	"SD_READY\000"
 4168      45414459 
 4168      00
 4169              	.LASF156:
 4170 05a6 53657269 		.ascii	"SerialDriverVMT\000"
 4170      616C4472 
 4170      69766572 
 4170      564D5400 
 4171              	.LASF126:
 4172 05b6 636F6E66 		.ascii	"config\000"
 4172      696700
 4173              	.LASF45:
 4174 05bd 705F7265 		.ascii	"p_realprio\000"
 4174      616C7072 
 4174      696F00
 4175              	.LASF90:
 4176 05c8 52455345 		.ascii	"RESERVED1\000"
 4176      52564544 
 4176      3100
 4177              	.LASF91:
 4178 05d2 52455345 		.ascii	"RESERVED2\000"
 4178      52564544 
 4178      3200
 4179              	.LASF92:
 4180 05dc 52455345 		.ascii	"RESERVED3\000"
 4180      52564544 
 4180      3300
ARM GAS  /var/folders/qh/xwg3v3kj02qbxczjpdb8lzfr0000gn/T//ccxFafFa.s 			page 79


 4181              	.LASF94:
 4182 05e6 52455345 		.ascii	"RESERVED4\000"
 4182      52564544 
 4182      3400
 4183              	.LASF103:
 4184 05f0 52455345 		.ascii	"RESERVED5\000"
 4184      52564544 
 4184      3500
 4185              	.LASF6:
 4186 05fa 73686F72 		.ascii	"short int\000"
 4186      7420696E 
 4186      7400
 4187              	.LASF96:
 4188 0604 4144435F 		.ascii	"ADC_Common_TypeDef\000"
 4188      436F6D6D 
 4188      6F6E5F54 
 4188      79706544 
 4188      656600
 4189              	.LASF119:
 4190 0617 6164635F 		.ascii	"adc_channels_num_t\000"
 4190      6368616E 
 4190      6E656C73 
 4190      5F6E756D 
 4190      5F7400
 4191              	.LASF140:
 4192 062a 63666772 		.ascii	"cfgr1\000"
 4192      3100
 4193              	.LASF43:
 4194 0630 705F6570 		.ascii	"p_epending\000"
 4194      656E6469 
 4194      6E6700
 4195              	.LASF55:
 4196 063b 6D5F7175 		.ascii	"m_queue\000"
 4196      65756500 
 4197              	.LASF10:
 4198 0643 6C6F6E67 		.ascii	"long int\000"
 4198      20696E74 
 4198      00
 4199              	.LASF143:
 4200 064c 41444343 		.ascii	"ADCConversionGroup\000"
 4200      6F6E7665 
 4200      7273696F 
 4200      6E47726F 
 4200      757000
 4201              	.LASF137:
 4202 065f 6E756D5F 		.ascii	"num_channels\000"
 4202      6368616E 
 4202      6E656C73 
 4202      00
 4203              	.LASF28:
 4204 066c 705F6E65 		.ascii	"p_next\000"
 4204      787400
 4205              	.LASF14:
 4206 0673 75696E74 		.ascii	"uint64_t\000"
 4206      36345F74 
 4206      00
 4207              	.LASF31:
ARM GAS  /var/folders/qh/xwg3v3kj02qbxczjpdb8lzfr0000gn/T//ccxFafFa.s 			page 80


 4208 067c 705F6374 		.ascii	"p_ctx\000"
 4208      7800
 4209              	.LASF111:
 4210 0682 4144435F 		.ascii	"ADC_UNINIT\000"
 4210      554E494E 
 4210      495400
 4211              	.LASF85:
 4212 068d 72656164 		.ascii	"read\000"
 4212      00
 4213              	.LASF60:
 4214 0692 656C5F6C 		.ascii	"el_listener\000"
 4214      69737465 
 4214      6E657200 
 4215              	.LASF146:
 4216 069e 53445F55 		.ascii	"SD_UNINIT\000"
 4216      4E494E49 
 4216      5400
 4217              	.LASF120:
 4218 06a8 4144435F 		.ascii	"ADC_ERR_DMAFAILURE\000"
 4218      4552525F 
 4218      444D4146 
 4218      41494C55 
 4218      524500
 4219              	.LASF73:
 4220 06bb 715F636F 		.ascii	"q_counter\000"
 4220      756E7465 
 4220      7200
 4221              	.LASF158:
 4222 06c5 67657474 		.ascii	"gett\000"
 4222      00
 4223              	.LASF75:
 4224 06ca 715F746F 		.ascii	"q_top\000"
 4224      7000
 4225              	.LASF29:
 4226 06d0 705F7072 		.ascii	"p_prev\000"
 4226      657600
 4227              	.LASF53:
 4228 06d7 73697A65 		.ascii	"sizetype\000"
 4228      74797065 
 4228      00
 4229              	.LASF20:
 4230 06e0 74726566 		.ascii	"trefs_t\000"
 4230      735F7400 
 4231              	.LASF58:
 4232 06e8 4576656E 		.ascii	"EventListener\000"
 4232      744C6973 
 4232      74656E65 
 4232      7200
 4233              	.LASF12:
 4234 06f6 6C6F6E67 		.ascii	"long unsigned int\000"
 4234      20756E73 
 4234      69676E65 
 4234      6420696E 
 4234      7400
 4235              	.LASF113:
 4236 0708 4144435F 		.ascii	"ADC_READY\000"
 4236      52454144 
ARM GAS  /var/folders/qh/xwg3v3kj02qbxczjpdb8lzfr0000gn/T//ccxFafFa.s 			page 81


 4236      5900
 4237              	.LASF142:
 4238 0712 63687365 		.ascii	"chselr\000"
 4238      6C7200
 4239              	.LASF117:
 4240 0719 61646373 		.ascii	"adcstate_t\000"
 4240      74617465 
 4240      5F7400
 4241              	.LASF9:
 4242 0724 696E7433 		.ascii	"int32_t\000"
 4242      325F7400 
 4243              	.LASF167:
 4244 072c 61646354 		.ascii	"adcTempArea\000"
 4244      656D7041 
 4244      72656100 
 4245              	.LASF130:
 4246 0738 74687265 		.ascii	"thread\000"
 4246      616400
 4247              	.LASF5:
 4248 073f 756E7369 		.ascii	"unsigned char\000"
 4248      676E6564 
 4248      20636861 
 4248      7200
 4249              	.LASF37:
 4250 074d 705F7265 		.ascii	"p_refs\000"
 4250      667300
 4251              	.LASF38:
 4252 0754 705F7072 		.ascii	"p_preempt\000"
 4252      65656D70 
 4252      7400
 4253              	.LASF64:
 4254 075e 65735F6E 		.ascii	"es_next\000"
 4254      65787400 
 4255              	.LASF125:
 4256 0766 73746174 		.ascii	"state\000"
 4256      6500
 4257              	.LASF95:
 4258 076c 4144435F 		.ascii	"ADC_TypeDef\000"
 4258      54797065 
 4258      44656600 
 4259              	.LASF172:
 4260 0778 636D6447 		.ascii	"cmdGetBattery\000"
 4260      65744261 
 4260      74746572 
 4260      7900
 4261              	.LASF168:
 4262 0786 76616C75 		.ascii	"valu2\000"
 4262      3200
 4263              	.LASF162:
 4264 078c 5F5F7661 		.ascii	"__va_list\000"
 4264      5F6C6973 
 4264      7400
 4265              	.LASF57:
 4266 0796 6D5F6E65 		.ascii	"m_next\000"
 4266      787400
 4267              	.LASF2:
 4268 079d 7369676E 		.ascii	"signed char\000"
ARM GAS  /var/folders/qh/xwg3v3kj02qbxczjpdb8lzfr0000gn/T//ccxFafFa.s 			page 82


 4268      65642063 
 4268      68617200 
 4269              	.LASF160:
 4270 07a9 72656164 		.ascii	"readt\000"
 4270      7400
 4271              	.LASF8:
 4272 07af 73686F72 		.ascii	"short unsigned int\000"
 4272      7420756E 
 4272      7369676E 
 4272      65642069 
 4272      6E7400
 4273              	.LASF50:
 4274 07c2 73746B61 		.ascii	"stkalign_t\000"
 4274      6C69676E 
 4274      5F7400
 4275              	.LASF171:
 4276 07cd 636D6447 		.ascii	"cmdGetVoltage\000"
 4276      6574566F 
 4276      6C746167 
 4276      6500
 4277              	.LASF0:
 4278 07db 646F7562 		.ascii	"double\000"
 4278      6C6500
 4279              	.LASF129:
 4280 07e2 67727070 		.ascii	"grpp\000"
 4280      00
 4281              	.LASF175:
 4282 07e7 636D6455 		.ascii	"cmdUart\000"
 4282      61727400 
 4283              	.LASF112:
 4284 07ef 4144435F 		.ascii	"ADC_STOP\000"
 4284      53544F50 
 4284      00
 4285              	.LASF62:
 4286 07f8 656C5F66 		.ascii	"el_flags\000"
 4286      6C616773 
 4286      00
 4287              	.LASF66:
 4288 0801 65786974 		.ascii	"exitcode\000"
 4288      636F6465 
 4288      00
 4289              	.LASF108:
 4290 080a 73656C66 		.ascii	"selfindex\000"
 4290      696E6465 
 4290      7800
 4291              		.ident	"GCC: (GNU Tools for ARM Embedded Processors) 4.8.3 20131129 (release) [ARM/embedded-4_8-br
ARM GAS  /var/folders/qh/xwg3v3kj02qbxczjpdb8lzfr0000gn/T//ccxFafFa.s 			page 83


DEFINED SYMBOLS
                            *ABS*:0000000000000000 cmd.c
/var/folders/qh/xwg3v3kj02qbxczjpdb8lzfr0000gn/T//ccxFafFa.s:18     .text.chprintf:0000000000000000 $t
/var/folders/qh/xwg3v3kj02qbxczjpdb8lzfr0000gn/T//ccxFafFa.s:23     .text.chprintf:0000000000000000 chprintf
/var/folders/qh/xwg3v3kj02qbxczjpdb8lzfr0000gn/T//ccxFafFa.s:56     .text.cmdGetTemp:0000000000000000 $t
/var/folders/qh/xwg3v3kj02qbxczjpdb8lzfr0000gn/T//ccxFafFa.s:62     .text.cmdGetTemp:0000000000000000 cmdGetTemp
/var/folders/qh/xwg3v3kj02qbxczjpdb8lzfr0000gn/T//ccxFafFa.s:141    .text.cmdGetTemp:0000000000000058 $d
/var/folders/qh/xwg3v3kj02qbxczjpdb8lzfr0000gn/T//ccxFafFa.s:155    .text.cmdGetVoltage:0000000000000000 $t
/var/folders/qh/xwg3v3kj02qbxczjpdb8lzfr0000gn/T//ccxFafFa.s:161    .text.cmdGetVoltage:0000000000000000 cmdGetVoltage
/var/folders/qh/xwg3v3kj02qbxczjpdb8lzfr0000gn/T//ccxFafFa.s:181    .text.cmdGetVoltage:000000000000000c $d
/var/folders/qh/xwg3v3kj02qbxczjpdb8lzfr0000gn/T//ccxFafFa.s:186    .text.cmdGetBattery:0000000000000000 $t
/var/folders/qh/xwg3v3kj02qbxczjpdb8lzfr0000gn/T//ccxFafFa.s:192    .text.cmdGetBattery:0000000000000000 cmdGetBattery
/var/folders/qh/xwg3v3kj02qbxczjpdb8lzfr0000gn/T//ccxFafFa.s:212    .text.cmdGetBattery:000000000000000c $d
/var/folders/qh/xwg3v3kj02qbxczjpdb8lzfr0000gn/T//ccxFafFa.s:217    .text.cmdAdc:0000000000000000 $t
/var/folders/qh/xwg3v3kj02qbxczjpdb8lzfr0000gn/T//ccxFafFa.s:223    .text.cmdAdc:0000000000000000 cmdAdc
/var/folders/qh/xwg3v3kj02qbxczjpdb8lzfr0000gn/T//ccxFafFa.s:243    .text.cmdAdc:000000000000000c $d
/var/folders/qh/xwg3v3kj02qbxczjpdb8lzfr0000gn/T//ccxFafFa.s:248    .text.cmdDac:0000000000000000 $t
/var/folders/qh/xwg3v3kj02qbxczjpdb8lzfr0000gn/T//ccxFafFa.s:254    .text.cmdDac:0000000000000000 cmdDac
/var/folders/qh/xwg3v3kj02qbxczjpdb8lzfr0000gn/T//ccxFafFa.s:274    .text.cmdDac:000000000000000c $d
/var/folders/qh/xwg3v3kj02qbxczjpdb8lzfr0000gn/T//ccxFafFa.s:279    .text.cmdUart:0000000000000000 $t
/var/folders/qh/xwg3v3kj02qbxczjpdb8lzfr0000gn/T//ccxFafFa.s:285    .text.cmdUart:0000000000000000 cmdUart
/var/folders/qh/xwg3v3kj02qbxczjpdb8lzfr0000gn/T//ccxFafFa.s:305    .text.cmdUart:000000000000000c $d
/var/folders/qh/xwg3v3kj02qbxczjpdb8lzfr0000gn/T//ccxFafFa.s:310    .text.cmdSpi:0000000000000000 $t
/var/folders/qh/xwg3v3kj02qbxczjpdb8lzfr0000gn/T//ccxFafFa.s:316    .text.cmdSpi:0000000000000000 cmdSpi
/var/folders/qh/xwg3v3kj02qbxczjpdb8lzfr0000gn/T//ccxFafFa.s:336    .text.cmdSpi:000000000000000c $d
/var/folders/qh/xwg3v3kj02qbxczjpdb8lzfr0000gn/T//ccxFafFa.s:341    .text.cmdBluetooth:0000000000000000 $t
/var/folders/qh/xwg3v3kj02qbxczjpdb8lzfr0000gn/T//ccxFafFa.s:347    .text.cmdBluetooth:0000000000000000 cmdBluetooth
/var/folders/qh/xwg3v3kj02qbxczjpdb8lzfr0000gn/T//ccxFafFa.s:367    .text.cmdBluetooth:000000000000000c $d
/var/folders/qh/xwg3v3kj02qbxczjpdb8lzfr0000gn/T//ccxFafFa.s:372    .text.cmdI2c:0000000000000000 $t
/var/folders/qh/xwg3v3kj02qbxczjpdb8lzfr0000gn/T//ccxFafFa.s:378    .text.cmdI2c:0000000000000000 cmdI2c
/var/folders/qh/xwg3v3kj02qbxczjpdb8lzfr0000gn/T//ccxFafFa.s:398    .text.cmdI2c:000000000000000c $d
/var/folders/qh/xwg3v3kj02qbxczjpdb8lzfr0000gn/T//ccxFafFa.s:403    .text.cmdPwm:0000000000000000 $t
/var/folders/qh/xwg3v3kj02qbxczjpdb8lzfr0000gn/T//ccxFafFa.s:409    .text.cmdPwm:0000000000000000 cmdPwm
/var/folders/qh/xwg3v3kj02qbxczjpdb8lzfr0000gn/T//ccxFafFa.s:429    .text.cmdPwm:000000000000000c $d
/var/folders/qh/xwg3v3kj02qbxczjpdb8lzfr0000gn/T//ccxFafFa.s:434    .text.cmdDate:0000000000000000 $t
/var/folders/qh/xwg3v3kj02qbxczjpdb8lzfr0000gn/T//ccxFafFa.s:440    .text.cmdDate:0000000000000000 cmdDate
/var/folders/qh/xwg3v3kj02qbxczjpdb8lzfr0000gn/T//ccxFafFa.s:460    .text.cmdDate:000000000000000c $d
/var/folders/qh/xwg3v3kj02qbxczjpdb8lzfr0000gn/T//ccxFafFa.s:476    .data.valu:0000000000000000 valu
/var/folders/qh/xwg3v3kj02qbxczjpdb8lzfr0000gn/T//ccxFafFa.s:466    .bss.adcTempArea.6161:0000000000000000 $d
/var/folders/qh/xwg3v3kj02qbxczjpdb8lzfr0000gn/T//ccxFafFa.s:470    .bss.adcTempArea.6161:0000000000000000 adcTempArea.6161
/var/folders/qh/xwg3v3kj02qbxczjpdb8lzfr0000gn/T//ccxFafFa.s:473    .data.valu:0000000000000000 $d
/var/folders/qh/xwg3v3kj02qbxczjpdb8lzfr0000gn/T//ccxFafFa.s:479    .rodata.str1.4:0000000000000000 $d
                     .debug_frame:0000000000000010 $d

UNDEFINED SYMBOLS
chvprintf
chThdCreateStatic
SD1
adcConversionThread
adcDataReady
