ARM GAS  /var/folders/qh/xwg3v3kj02qbxczjpdb8lzfr0000gn/T//ccyF18J6.s 			page 1


   1              		.cpu cortex-m0
   2              		.fpu softvfp
   3              		.eabi_attribute 20, 1
   4              		.eabi_attribute 21, 1
   5              		.eabi_attribute 23, 3
   6              		.eabi_attribute 24, 1
   7              		.eabi_attribute 25, 1
   8              		.eabi_attribute 26, 1
   9              		.eabi_attribute 30, 2
  10              		.eabi_attribute 34, 0
  11              		.eabi_attribute 18, 4
  12              		.code	16
  13              		.file	"cmdadc.c"
  14              		.text
  15              	.Ltext0:
  16              		.cfi_sections	.debug_frame
  17              		.section	.text.adcErrorCallBack,"ax",%progbits
  18              		.align	2
  19              		.p2align 4,,15
  20              		.global	adcErrorCallBack
  21              		.code	16
  22              		.thumb_func
  23              		.type	adcErrorCallBack, %function
  24              	adcErrorCallBack:
  25              	.LFB43:
  26              		.file 1 "cmdadc.c"
  27              		.loc 1 69 0
  28              		.cfi_startproc
  29              	.LVL0:
  30              		.loc 1 72 0
  31              		@ sp needed
  32 0000 7047     		bx	lr
  33              		.cfi_endproc
  34              	.LFE43:
  35              		.size	adcErrorCallBack, .-adcErrorCallBack
  36 0002 C046C046 		.section	.text.adcCallBack,"ax",%progbits
  36      C046C046 
  36      C046C046 
  36      C046
  37              		.align	2
  38              		.p2align 4,,15
  39              		.global	adcCallBack
  40              		.code	16
  41              		.thumb_func
  42              		.type	adcCallBack, %function
  43              	adcCallBack:
  44              	.LFB42:
  45              		.loc 1 45 0
  46              		.cfi_startproc
  47              	.LVL1:
  48 0000 10B5     		push	{r4, lr}
  49              		.cfi_def_cfa_offset 8
  50              		.cfi_offset 4, -8
  51              		.cfi_offset 14, -4
  52              		.loc 1 45 0
  53 0002 141C     		mov	r4, r2
  54              		.loc 1 55 0
ARM GAS  /var/folders/qh/xwg3v3kj02qbxczjpdb8lzfr0000gn/T//ccyF18J6.s 			page 2


  55              	@ 55 "cmdadc.c" 1
  56 0004 72B6     		cpsid   i
  57              	@ 0 "" 2
  58              		.code	16
  59 0006 FFF7FEFF 		bl	dbg_check_lock_from_isr
  60              	.LVL2:
  61              		.loc 1 56 0
  62 000a 0948     		ldr	r0, .L6
  63 000c 8368     		ldr	r3, [r0, #8]
  64 000e 002B     		cmp	r3, #0
  65 0010 03DD     		ble	.L5
  66              	.L3:
  67              		.loc 1 63 0
  68 0012 FFF7FEFF 		bl	dbg_check_unlock_from_isr
  69              	.LVL3:
  70              	@ 63 "cmdadc.c" 1
  71 0016 62B6     		cpsie   i
  72              	@ 0 "" 2
  73              		.loc 1 64 0
  74              		.code	16
  75              		@ sp needed
  76              	.LVL4:
  77 0018 10BD     		pop	{r4, pc}
  78              	.LVL5:
  79              	.L5:
  80              		.loc 1 58 0
  81 001a 064B     		ldr	r3, .L6+4
  82 001c 0422     		mov	r2, #4
  83 001e DA60     		str	r2, [r3, #12]
  84              		.loc 1 59 0
  85 0020 054A     		ldr	r2, .L6+8
  86              		.loc 1 61 0
  87 0022 0121     		mov	r1, #1
  88              		.loc 1 59 0
  89 0024 5A60     		str	r2, [r3, #4]
  90              		.loc 1 60 0
  91 0026 9C60     		str	r4, [r3, #8]
  92              		.loc 1 61 0
  93 0028 FFF7FEFF 		bl	chSemResetI
  94              	.LVL6:
  95 002c F1E7     		b	.L3
  96              	.L7:
  97 002e C046     		.align	2
  98              	.L6:
  99 0030 00000000 		.word	outputResponseDataReady
 100 0034 00000000 		.word	outputResponseData
 101 0038 00000000 		.word	.LANCHOR0
 102              		.cfi_endproc
 103              	.LFE42:
 104              		.size	adcCallBack, .-adcCallBack
 105 003c C046C046 		.section	.text.chprintf.constprop.0,"ax",%progbits
 106              		.align	2
 107              		.p2align 4,,15
 108              		.code	16
 109              		.thumb_func
 110              		.type	chprintf.constprop.0, %function
 111              	chprintf.constprop.0:
ARM GAS  /var/folders/qh/xwg3v3kj02qbxczjpdb8lzfr0000gn/T//ccyF18J6.s 			page 3


 112              	.LFB45:
 113              		.file 2 "../../os/various/chprintf.h"
 114              		.loc 2 69 0
 115              		.cfi_startproc
 116              	.LVL7:
 117 0000 0EB4     		push	{r1, r2, r3}
 118              		.cfi_def_cfa_offset 12
 119 0002 00B5     		push	{lr}
 120              		.cfi_def_cfa_offset 16
 121              		.cfi_offset 14, -16
 122 0004 82B0     		sub	sp, sp, #8
 123              		.cfi_def_cfa_offset 24
 124              		.loc 2 72 0
 125 0006 04AA     		add	r2, sp, #16
 126              		.loc 2 73 0
 127 0008 0448     		ldr	r0, .L9
 128              	.LVL8:
 129 000a 0549     		ldr	r1, .L9+4
 130              		.loc 2 72 0
 131 000c 0192     		str	r2, [sp, #4]
 132              		.loc 2 73 0
 133 000e FFF7FEFF 		bl	chvprintf
 134              	.LVL9:
 135              		.loc 2 75 0
 136 0012 02B0     		add	sp, sp, #8
 137              		@ sp needed
 138 0014 08BC     		pop	{r3}
 139 0016 03B0     		add	sp, sp, #12
 140 0018 1847     		bx	r3
 141              	.L10:
 142 001a C046     		.align	2
 143              	.L9:
 144 001c 00000000 		.word	SD1
 145 0020 00000000 		.word	.LC4
 146              		.cfi_endproc
 147              	.LFE45:
 148              		.size	chprintf.constprop.0, .-chprintf.constprop.0
 149 0024 C046C046 		.section	.text.hello,"ax",%progbits
 149      C046C046 
 149      C046C046 
 150              		.align	2
 151              		.p2align 4,,15
 152              		.global	hello
 153              		.code	16
 154              		.thumb_func
 155              		.type	hello, %function
 156              	hello:
 157              	.LFB41:
 158              		.loc 1 40 0
 159              		.cfi_startproc
 160 0000 08B5     		push	{r3, lr}
 161              		.cfi_def_cfa_offset 8
 162              		.cfi_offset 3, -8
 163              		.cfi_offset 14, -4
 164              		.loc 1 41 0
 165 0002 0248     		ldr	r0, .L12
 166 0004 0249     		ldr	r1, .L12+4
ARM GAS  /var/folders/qh/xwg3v3kj02qbxczjpdb8lzfr0000gn/T//ccyF18J6.s 			page 4


 167 0006 FFF7FEFF 		bl	chprintf.constprop.0
 168              	.LVL10:
 169              		.loc 1 42 0
 170              		@ sp needed
 171 000a 08BD     		pop	{r3, pc}
 172              	.L13:
 173              		.align	2
 174              	.L12:
 175 000c 00000000 		.word	SD1
 176 0010 00000000 		.word	.LC4
 177              		.cfi_endproc
 178              	.LFE41:
 179              		.size	hello, .-hello
 180 0014 C046C046 		.section	.text.adcConversionThread,"ax",%progbits
 180      C046C046 
 180      C046C046 
 181              		.align	2
 182              		.p2align 4,,15
 183              		.global	adcConversionThread
 184              		.code	16
 185              		.thumb_func
 186              		.type	adcConversionThread, %function
 187              	adcConversionThread:
 188              	.LFB44:
 189              		.loc 1 77 0
 190              		.cfi_startproc
 191 0000 10B5     		push	{r4, lr}
 192              		.cfi_def_cfa_offset 8
 193              		.cfi_offset 4, -8
 194              		.cfi_offset 14, -4
 195              		.loc 1 78 0
 196 0002 064C     		ldr	r4, .L15
 197 0004 0021     		mov	r1, #0
 198 0006 201C     		mov	r0, r4
 199 0008 FFF7FEFF 		bl	adcStart
 200              	.LVL11:
 201              		.loc 1 79 0
 202 000c 201C     		mov	r0, r4
 203 000e 0449     		ldr	r1, .L15+4
 204 0010 044A     		ldr	r2, .L15+8
 205 0012 0823     		mov	r3, #8
 206 0014 FFF7FEFF 		bl	adcStartConversion
 207              	.LVL12:
 208              		.loc 1 81 0
 209              		@ sp needed
 210 0018 0020     		mov	r0, #0
 211 001a 10BD     		pop	{r4, pc}
 212              	.L16:
 213              		.align	2
 214              	.L15:
 215 001c 00000000 		.word	ADCD1
 216 0020 00000000 		.word	.LANCHOR1
 217 0024 00000000 		.word	.LANCHOR0
 218              		.cfi_endproc
 219              	.LFE44:
 220              		.size	adcConversionThread, .-adcConversionThread
 221              		.global	adcSettings
ARM GAS  /var/folders/qh/xwg3v3kj02qbxczjpdb8lzfr0000gn/T//ccyF18J6.s 			page 5


 222              		.global	samples
 223              		.global	value
 224 0028 C046C046 		.section	.bss.value,"aw",%nobits
 224      C046C046 
 225              		.align	2
 226              		.type	value, %object
 227              		.size	value, 4
 228              	value:
 229 0000 00000000 		.space	4
 230              		.section	.rodata.str1.4,"aMS",%progbits,1
 231              		.align	2
 232              	.LC4:
 233 0000 48656C6C 		.ascii	"HelloWorld\000"
 233      6F576F72 
 233      6C6400
 234 000b 00       		.section	.bss.samples,"aw",%nobits
 235              		.align	2
 236              		.set	.LANCHOR0,. + 0
 237              		.type	samples, %object
 238              		.size	samples, 128
 239              	samples:
 240 0000 00000000 		.space	128
 240      00000000 
 240      00000000 
 240      00000000 
 240      00000000 
 241              		.section	.data.adcSettings,"aw",%progbits
 242              		.align	2
 243              		.set	.LANCHOR1,. + 0
 244              		.type	adcSettings, %object
 245              		.size	adcSettings, 28
 246              	adcSettings:
 247 0000 01       		.byte	1
 248 0001 00       		.space	1
 249 0002 0100     		.short	1
 250 0004 00000000 		.word	adcCallBack
 251 0008 00000000 		.word	adcErrorCallBack
 252 000c 00000000 		.word	0
 253 0010 00000000 		.word	0
 254 0014 03000000 		.word	3
 255 0018 00000000 		.word	0
 256              		.text
 257              	.Letext0:
 258              		.file 3 "/usr/local/Cellar/gcc-arm-none-eabi-48/20131218/lib/gcc/arm-none-eabi/4.8.3/include/stdde
 259              		.file 4 "/usr/local/Cellar/gcc-arm-none-eabi-48/20131218/arm-none-eabi/include/stdint.h"
 260              		.file 5 "../../os/ports/GCC/ARMCMx/chtypes.h"
 261              		.file 6 "../../os/kernel/include/chlists.h"
 262              		.file 7 "../../os/kernel/include/chthreads.h"
 263              		.file 8 "../../os/ports/GCC/ARMCMx/chcore_v6m.h"
 264              		.file 9 "../../os/kernel/include/chsem.h"
 265              		.file 10 "../../os/kernel/include/chbsem.h"
 266              		.file 11 "../../os/kernel/include/chmtx.h"
 267              		.file 12 "../../os/kernel/include/chevents.h"
 268              		.file 13 "../../os/kernel/include/chqueues.h"
 269              		.file 14 "../../os/kernel/include/chstreams.h"
 270              		.file 15 "../../os/hal/platforms/STM32F0xx/stm32f0xx.h"
 271              		.file 16 "../../os/hal/platforms/STM32F0xx/stm32_dma.h"
ARM GAS  /var/folders/qh/xwg3v3kj02qbxczjpdb8lzfr0000gn/T//ccyF18J6.s 			page 6


 272              		.file 17 "../../os/hal/include/adc.h"
 273              		.file 18 "../../os/hal/platforms/STM32F0xx/adc_lld.h"
 274              		.file 19 "../../os/hal/include/serial.h"
 275              		.file 20 "/usr/local/Cellar/gcc-arm-none-eabi-48/20131218/lib/gcc/arm-none-eabi/4.8.3/include/stda
 276              		.file 21 "<built-in>"
 277              		.file 22 "../../os/various/shell.h"
 278              		.file 23 "cmd.h"
 279              		.file 24 "../../os/kernel/include/chdebug.h"
 280              		.file 25 "../../os/hal/platforms/STM32/USARTv2/serial_lld.h"
 281              		.section	.debug_info,"",%progbits
 282              	.Ldebug_info0:
 283 0000 0A100000 		.4byte	0x100a
 284 0004 0400     		.2byte	0x4
 285 0006 00000000 		.4byte	.Ldebug_abbrev0
 286 000a 04       		.byte	0x4
 287 000b 01       		.uleb128 0x1
 288 000c 07010000 		.4byte	.LASF196
 289 0010 01       		.byte	0x1
 290 0011 4C000000 		.4byte	.LASF197
 291 0015 15030000 		.4byte	.LASF198
 292 0019 00000000 		.4byte	.Ldebug_ranges0+0
 293 001d 00000000 		.4byte	0
 294 0021 00000000 		.4byte	.Ldebug_line0
 295 0025 02       		.uleb128 0x2
 296 0026 04       		.byte	0x4
 297 0027 05       		.byte	0x5
 298 0028 696E7400 		.ascii	"int\000"
 299 002c 03       		.uleb128 0x3
 300 002d 50030000 		.4byte	.LASF2
 301 0031 03       		.byte	0x3
 302 0032 D4       		.byte	0xd4
 303 0033 37000000 		.4byte	0x37
 304 0037 04       		.uleb128 0x4
 305 0038 04       		.byte	0x4
 306 0039 07       		.byte	0x7
 307 003a 8C000000 		.4byte	.LASF0
 308 003e 04       		.uleb128 0x4
 309 003f 01       		.byte	0x1
 310 0040 06       		.byte	0x6
 311 0041 69080000 		.4byte	.LASF1
 312 0045 03       		.uleb128 0x3
 313 0046 95040000 		.4byte	.LASF3
 314 004a 04       		.byte	0x4
 315 004b 2A       		.byte	0x2a
 316 004c 50000000 		.4byte	0x50
 317 0050 04       		.uleb128 0x4
 318 0051 01       		.byte	0x1
 319 0052 08       		.byte	0x8
 320 0053 F0070000 		.4byte	.LASF4
 321 0057 04       		.uleb128 0x4
 322 0058 02       		.byte	0x2
 323 0059 05       		.byte	0x5
 324 005a 89060000 		.4byte	.LASF5
 325 005e 03       		.uleb128 0x3
 326 005f D8050000 		.4byte	.LASF6
 327 0063 04       		.byte	0x4
 328 0064 36       		.byte	0x36
ARM GAS  /var/folders/qh/xwg3v3kj02qbxczjpdb8lzfr0000gn/T//ccyF18J6.s 			page 7


 329 0065 69000000 		.4byte	0x69
 330 0069 04       		.uleb128 0x4
 331 006a 02       		.byte	0x2
 332 006b 07       		.byte	0x7
 333 006c 7B080000 		.4byte	.LASF7
 334 0070 03       		.uleb128 0x3
 335 0071 E1070000 		.4byte	.LASF8
 336 0075 04       		.byte	0x4
 337 0076 4F       		.byte	0x4f
 338 0077 7B000000 		.4byte	0x7b
 339 007b 04       		.uleb128 0x4
 340 007c 04       		.byte	0x4
 341 007d 05       		.byte	0x5
 342 007e BF060000 		.4byte	.LASF9
 343 0082 03       		.uleb128 0x3
 344 0083 20020000 		.4byte	.LASF10
 345 0087 04       		.byte	0x4
 346 0088 50       		.byte	0x50
 347 0089 8D000000 		.4byte	0x8d
 348 008d 04       		.uleb128 0x4
 349 008e 04       		.byte	0x4
 350 008f 07       		.byte	0x7
 351 0090 96070000 		.4byte	.LASF11
 352 0094 04       		.uleb128 0x4
 353 0095 08       		.byte	0x8
 354 0096 05       		.byte	0x5
 355 0097 E5040000 		.4byte	.LASF12
 356 009b 04       		.uleb128 0x4
 357 009c 08       		.byte	0x8
 358 009d 07       		.byte	0x7
 359 009e 83020000 		.4byte	.LASF13
 360 00a2 03       		.uleb128 0x3
 361 00a3 63030000 		.4byte	.LASF14
 362 00a7 05       		.byte	0x5
 363 00a8 24       		.byte	0x24
 364 00a9 AD000000 		.4byte	0xad
 365 00ad 04       		.uleb128 0x4
 366 00ae 01       		.byte	0x1
 367 00af 02       		.byte	0x2
 368 00b0 6A030000 		.4byte	.LASF15
 369 00b4 03       		.uleb128 0x3
 370 00b5 97050000 		.4byte	.LASF16
 371 00b9 05       		.byte	0x5
 372 00ba 25       		.byte	0x25
 373 00bb 45000000 		.4byte	0x45
 374 00bf 03       		.uleb128 0x3
 375 00c0 4B040000 		.4byte	.LASF17
 376 00c4 05       		.byte	0x5
 377 00c5 26       		.byte	0x26
 378 00c6 45000000 		.4byte	0x45
 379 00ca 03       		.uleb128 0x3
 380 00cb 80070000 		.4byte	.LASF18
 381 00cf 05       		.byte	0x5
 382 00d0 27       		.byte	0x27
 383 00d1 45000000 		.4byte	0x45
 384 00d5 03       		.uleb128 0x3
 385 00d6 53050000 		.4byte	.LASF19
ARM GAS  /var/folders/qh/xwg3v3kj02qbxczjpdb8lzfr0000gn/T//ccyF18J6.s 			page 8


 386 00da 05       		.byte	0x5
 387 00db 28       		.byte	0x28
 388 00dc 45000000 		.4byte	0x45
 389 00e0 03       		.uleb128 0x3
 390 00e1 63020000 		.4byte	.LASF20
 391 00e5 05       		.byte	0x5
 392 00e6 29       		.byte	0x29
 393 00e7 82000000 		.4byte	0x82
 394 00eb 03       		.uleb128 0x3
 395 00ec 0D050000 		.4byte	.LASF21
 396 00f0 05       		.byte	0x5
 397 00f1 2A       		.byte	0x2a
 398 00f2 70000000 		.4byte	0x70
 399 00f6 03       		.uleb128 0x3
 400 00f7 3C020000 		.4byte	.LASF22
 401 00fb 05       		.byte	0x5
 402 00fc 2C       		.byte	0x2c
 403 00fd 82000000 		.4byte	0x82
 404 0101 03       		.uleb128 0x3
 405 0102 9D040000 		.4byte	.LASF23
 406 0106 05       		.byte	0x5
 407 0107 2D       		.byte	0x2d
 408 0108 82000000 		.4byte	0x82
 409 010c 03       		.uleb128 0x3
 410 010d 55000000 		.4byte	.LASF24
 411 0111 05       		.byte	0x5
 412 0112 2E       		.byte	0x2e
 413 0113 82000000 		.4byte	0x82
 414 0117 03       		.uleb128 0x3
 415 0118 BB020000 		.4byte	.LASF25
 416 011c 05       		.byte	0x5
 417 011d 2F       		.byte	0x2f
 418 011e 70000000 		.4byte	0x70
 419 0122 03       		.uleb128 0x3
 420 0123 44040000 		.4byte	.LASF26
 421 0127 06       		.byte	0x6
 422 0128 23       		.byte	0x23
 423 0129 2D010000 		.4byte	0x12d
 424 012d 05       		.uleb128 0x5
 425 012e 44040000 		.4byte	.LASF26
 426 0132 48       		.byte	0x48
 427 0133 07       		.byte	0x7
 428 0134 57       		.byte	0x57
 429 0135 2A020000 		.4byte	0x22a
 430 0139 06       		.uleb128 0x6
 431 013a F9060000 		.4byte	.LASF27
 432 013e 07       		.byte	0x7
 433 013f 58       		.byte	0x58
 434 0140 4B020000 		.4byte	0x24b
 435 0144 00       		.byte	0
 436 0145 06       		.uleb128 0x6
 437 0146 6A070000 		.4byte	.LASF28
 438 014a 07       		.byte	0x7
 439 014b 5A       		.byte	0x5a
 440 014c 4B020000 		.4byte	0x24b
 441 0150 04       		.byte	0x4
 442 0151 06       		.uleb128 0x6
ARM GAS  /var/folders/qh/xwg3v3kj02qbxczjpdb8lzfr0000gn/T//ccyF18J6.s 			page 9


 443 0152 3D000000 		.4byte	.LASF29
 444 0156 07       		.byte	0x7
 445 0157 5C       		.byte	0x5c
 446 0158 E0000000 		.4byte	0xe0
 447 015c 08       		.byte	0x8
 448 015d 06       		.uleb128 0x6
 449 015e 00070000 		.4byte	.LASF30
 450 0162 07       		.byte	0x7
 451 0163 5D       		.byte	0x5d
 452 0164 FB020000 		.4byte	0x2fb
 453 0168 0C       		.byte	0xc
 454 0169 06       		.uleb128 0x6
 455 016a D4020000 		.4byte	.LASF31
 456 016e 07       		.byte	0x7
 457 016f 5F       		.byte	0x5f
 458 0170 4B020000 		.4byte	0x24b
 459 0174 10       		.byte	0x10
 460 0175 06       		.uleb128 0x6
 461 0176 85040000 		.4byte	.LASF32
 462 017a 07       		.byte	0x7
 463 017b 60       		.byte	0x60
 464 017c 4B020000 		.4byte	0x24b
 465 0180 14       		.byte	0x14
 466 0181 06       		.uleb128 0x6
 467 0182 E4030000 		.4byte	.LASF33
 468 0186 07       		.byte	0x7
 469 0187 67       		.byte	0x67
 470 0188 64040000 		.4byte	0x464
 471 018c 18       		.byte	0x18
 472 018d 06       		.uleb128 0x6
 473 018e 8D040000 		.4byte	.LASF34
 474 0192 07       		.byte	0x7
 475 0193 72       		.byte	0x72
 476 0194 BF000000 		.4byte	0xbf
 477 0198 1C       		.byte	0x1c
 478 0199 06       		.uleb128 0x6
 479 019a 46050000 		.4byte	.LASF35
 480 019e 07       		.byte	0x7
 481 019f 76       		.byte	0x76
 482 01a0 B4000000 		.4byte	0xb4
 483 01a4 1D       		.byte	0x1d
 484 01a5 06       		.uleb128 0x6
 485 01a6 FE070000 		.4byte	.LASF36
 486 01aa 07       		.byte	0x7
 487 01ab 7B       		.byte	0x7b
 488 01ac CA000000 		.4byte	0xca
 489 01b0 1E       		.byte	0x1e
 490 01b1 06       		.uleb128 0x6
 491 01b2 0E080000 		.4byte	.LASF37
 492 01b6 07       		.byte	0x7
 493 01b7 81       		.byte	0x81
 494 01b8 D5000000 		.4byte	0xd5
 495 01bc 1F       		.byte	0x1f
 496 01bd 06       		.uleb128 0x6
 497 01be 23000000 		.4byte	.LASF38
 498 01c2 07       		.byte	0x7
 499 01c3 88       		.byte	0x88
ARM GAS  /var/folders/qh/xwg3v3kj02qbxczjpdb8lzfr0000gn/T//ccyF18J6.s 			page 10


 500 01c4 26030000 		.4byte	0x326
 501 01c8 20       		.byte	0x20
 502 01c9 07       		.uleb128 0x7
 503 01ca 705F7500 		.ascii	"p_u\000"
 504 01ce 07       		.byte	0x7
 505 01cf AD       		.byte	0xad
 506 01d0 2F040000 		.4byte	0x42f
 507 01d4 24       		.byte	0x24
 508 01d5 06       		.uleb128 0x6
 509 01d6 0C000000 		.4byte	.LASF39
 510 01da 07       		.byte	0x7
 511 01db B2       		.byte	0xb2
 512 01dc 71020000 		.4byte	0x271
 513 01e0 28       		.byte	0x28
 514 01e1 06       		.uleb128 0x6
 515 01e2 76000000 		.4byte	.LASF40
 516 01e6 07       		.byte	0x7
 517 01e7 B8       		.byte	0xb8
 518 01e8 51020000 		.4byte	0x251
 519 01ec 2C       		.byte	0x2c
 520 01ed 06       		.uleb128 0x6
 521 01ee 91050000 		.4byte	.LASF41
 522 01f2 07       		.byte	0x7
 523 01f3 BC       		.byte	0xbc
 524 01f4 EB000000 		.4byte	0xeb
 525 01f8 34       		.byte	0x34
 526 01f9 06       		.uleb128 0x6
 527 01fa AC060000 		.4byte	.LASF42
 528 01fe 07       		.byte	0x7
 529 01ff C2       		.byte	0xc2
 530 0200 F6000000 		.4byte	0xf6
 531 0204 38       		.byte	0x38
 532 0205 06       		.uleb128 0x6
 533 0206 B6040000 		.4byte	.LASF43
 534 020a 07       		.byte	0x7
 535 020b C9       		.byte	0xc9
 536 020c 76040000 		.4byte	0x476
 537 0210 3C       		.byte	0x3c
 538 0211 06       		.uleb128 0x6
 539 0212 4C060000 		.4byte	.LASF44
 540 0216 07       		.byte	0x7
 541 0217 CD       		.byte	0xcd
 542 0218 E0000000 		.4byte	0xe0
 543 021c 40       		.byte	0x40
 544 021d 06       		.uleb128 0x6
 545 021e AE040000 		.4byte	.LASF45
 546 0222 07       		.byte	0x7
 547 0223 D3       		.byte	0xd3
 548 0224 87020000 		.4byte	0x287
 549 0228 44       		.byte	0x44
 550 0229 00       		.byte	0
 551 022a 08       		.uleb128 0x8
 552 022b 08       		.byte	0x8
 553 022c 06       		.byte	0x6
 554 022d 5A       		.byte	0x5a
 555 022e 4B020000 		.4byte	0x24b
 556 0232 06       		.uleb128 0x6
ARM GAS  /var/folders/qh/xwg3v3kj02qbxczjpdb8lzfr0000gn/T//ccyF18J6.s 			page 11


 557 0233 F9060000 		.4byte	.LASF27
 558 0237 06       		.byte	0x6
 559 0238 5B       		.byte	0x5b
 560 0239 4B020000 		.4byte	0x24b
 561 023d 00       		.byte	0
 562 023e 06       		.uleb128 0x6
 563 023f 6A070000 		.4byte	.LASF28
 564 0243 06       		.byte	0x6
 565 0244 5D       		.byte	0x5d
 566 0245 4B020000 		.4byte	0x24b
 567 0249 04       		.byte	0x4
 568 024a 00       		.byte	0
 569 024b 09       		.uleb128 0x9
 570 024c 04       		.byte	0x4
 571 024d 22010000 		.4byte	0x122
 572 0251 03       		.uleb128 0x3
 573 0252 23040000 		.4byte	.LASF46
 574 0256 06       		.byte	0x6
 575 0257 5F       		.byte	0x5f
 576 0258 2A020000 		.4byte	0x22a
 577 025c 08       		.uleb128 0x8
 578 025d 04       		.byte	0x4
 579 025e 06       		.byte	0x6
 580 025f 64       		.byte	0x64
 581 0260 71020000 		.4byte	0x271
 582 0264 06       		.uleb128 0x6
 583 0265 F9060000 		.4byte	.LASF27
 584 0269 06       		.byte	0x6
 585 026a 66       		.byte	0x66
 586 026b 4B020000 		.4byte	0x24b
 587 026f 00       		.byte	0
 588 0270 00       		.byte	0
 589 0271 03       		.uleb128 0x3
 590 0272 00000000 		.4byte	.LASF47
 591 0276 06       		.byte	0x6
 592 0277 69       		.byte	0x69
 593 0278 5C020000 		.4byte	0x25c
 594 027c 03       		.uleb128 0x3
 595 027d 34000000 		.4byte	.LASF48
 596 0281 08       		.byte	0x8
 597 0282 A0       		.byte	0xa0
 598 0283 87020000 		.4byte	0x287
 599 0287 0A       		.uleb128 0xa
 600 0288 04       		.byte	0x4
 601 0289 05       		.uleb128 0x5
 602 028a E1050000 		.4byte	.LASF49
 603 028e 24       		.byte	0x24
 604 028f 08       		.byte	0x8
 605 0290 B3       		.byte	0xb3
 606 0291 FB020000 		.4byte	0x2fb
 607 0295 07       		.uleb128 0x7
 608 0296 723800   		.ascii	"r8\000"
 609 0299 08       		.byte	0x8
 610 029a B4       		.byte	0xb4
 611 029b 7C020000 		.4byte	0x27c
 612 029f 00       		.byte	0
 613 02a0 07       		.uleb128 0x7
ARM GAS  /var/folders/qh/xwg3v3kj02qbxczjpdb8lzfr0000gn/T//ccyF18J6.s 			page 12


 614 02a1 723900   		.ascii	"r9\000"
 615 02a4 08       		.byte	0x8
 616 02a5 B5       		.byte	0xb5
 617 02a6 7C020000 		.4byte	0x27c
 618 02aa 04       		.byte	0x4
 619 02ab 07       		.uleb128 0x7
 620 02ac 72313000 		.ascii	"r10\000"
 621 02b0 08       		.byte	0x8
 622 02b1 B6       		.byte	0xb6
 623 02b2 7C020000 		.4byte	0x27c
 624 02b6 08       		.byte	0x8
 625 02b7 07       		.uleb128 0x7
 626 02b8 72313100 		.ascii	"r11\000"
 627 02bc 08       		.byte	0x8
 628 02bd B7       		.byte	0xb7
 629 02be 7C020000 		.4byte	0x27c
 630 02c2 0C       		.byte	0xc
 631 02c3 07       		.uleb128 0x7
 632 02c4 723400   		.ascii	"r4\000"
 633 02c7 08       		.byte	0x8
 634 02c8 B8       		.byte	0xb8
 635 02c9 7C020000 		.4byte	0x27c
 636 02cd 10       		.byte	0x10
 637 02ce 07       		.uleb128 0x7
 638 02cf 723500   		.ascii	"r5\000"
 639 02d2 08       		.byte	0x8
 640 02d3 B9       		.byte	0xb9
 641 02d4 7C020000 		.4byte	0x27c
 642 02d8 14       		.byte	0x14
 643 02d9 07       		.uleb128 0x7
 644 02da 723600   		.ascii	"r6\000"
 645 02dd 08       		.byte	0x8
 646 02de BA       		.byte	0xba
 647 02df 7C020000 		.4byte	0x27c
 648 02e3 18       		.byte	0x18
 649 02e4 07       		.uleb128 0x7
 650 02e5 723700   		.ascii	"r7\000"
 651 02e8 08       		.byte	0x8
 652 02e9 BB       		.byte	0xbb
 653 02ea 7C020000 		.4byte	0x27c
 654 02ee 1C       		.byte	0x1c
 655 02ef 07       		.uleb128 0x7
 656 02f0 6C7200   		.ascii	"lr\000"
 657 02f3 08       		.byte	0x8
 658 02f4 BC       		.byte	0xbc
 659 02f5 7C020000 		.4byte	0x27c
 660 02f9 20       		.byte	0x20
 661 02fa 00       		.byte	0
 662 02fb 05       		.uleb128 0x5
 663 02fc 1A050000 		.4byte	.LASF50
 664 0300 04       		.byte	0x4
 665 0301 08       		.byte	0x8
 666 0302 C6       		.byte	0xc6
 667 0303 14030000 		.4byte	0x314
 668 0307 07       		.uleb128 0x7
 669 0308 72313300 		.ascii	"r13\000"
 670 030c 08       		.byte	0x8
ARM GAS  /var/folders/qh/xwg3v3kj02qbxczjpdb8lzfr0000gn/T//ccyF18J6.s 			page 13


 671 030d C7       		.byte	0xc7
 672 030e 14030000 		.4byte	0x314
 673 0312 00       		.byte	0
 674 0313 00       		.byte	0
 675 0314 09       		.uleb128 0x9
 676 0315 04       		.byte	0x4
 677 0316 89020000 		.4byte	0x289
 678 031a 0B       		.uleb128 0xb
 679 031b 82000000 		.4byte	0x82
 680 031f 04       		.uleb128 0x4
 681 0320 04       		.byte	0x4
 682 0321 07       		.byte	0x7
 683 0322 77070000 		.4byte	.LASF51
 684 0326 0B       		.uleb128 0xb
 685 0327 0C010000 		.4byte	0x10c
 686 032b 05       		.uleb128 0x5
 687 032c 11070000 		.4byte	.LASF52
 688 0330 0C       		.byte	0xc
 689 0331 09       		.byte	0x9
 690 0332 25       		.byte	0x25
 691 0333 50030000 		.4byte	0x350
 692 0337 06       		.uleb128 0x6
 693 0338 6E000000 		.4byte	.LASF53
 694 033c 09       		.byte	0x9
 695 033d 26       		.byte	0x26
 696 033e 51020000 		.4byte	0x251
 697 0342 00       		.byte	0
 698 0343 06       		.uleb128 0x6
 699 0344 02020000 		.4byte	.LASF54
 700 0348 09       		.byte	0x9
 701 0349 28       		.byte	0x28
 702 034a 17010000 		.4byte	0x117
 703 034e 08       		.byte	0x8
 704 034f 00       		.byte	0
 705 0350 03       		.uleb128 0x3
 706 0351 11070000 		.4byte	.LASF52
 707 0355 09       		.byte	0x9
 708 0356 29       		.byte	0x29
 709 0357 2B030000 		.4byte	0x32b
 710 035b 08       		.uleb128 0x8
 711 035c 0C       		.byte	0xc
 712 035d 0A       		.byte	0xa
 713 035e 3D       		.byte	0x3d
 714 035f 70030000 		.4byte	0x370
 715 0363 06       		.uleb128 0x6
 716 0364 20080000 		.4byte	.LASF55
 717 0368 0A       		.byte	0xa
 718 0369 3E       		.byte	0x3e
 719 036a 50030000 		.4byte	0x350
 720 036e 00       		.byte	0
 721 036f 00       		.byte	0
 722 0370 03       		.uleb128 0x3
 723 0371 AE080000 		.4byte	.LASF56
 724 0375 0A       		.byte	0xa
 725 0376 3F       		.byte	0x3f
 726 0377 5B030000 		.4byte	0x35b
 727 037b 05       		.uleb128 0x5
ARM GAS  /var/folders/qh/xwg3v3kj02qbxczjpdb8lzfr0000gn/T//ccyF18J6.s 			page 14


 728 037c 92030000 		.4byte	.LASF57
 729 0380 10       		.byte	0x10
 730 0381 0B       		.byte	0xb
 731 0382 25       		.byte	0x25
 732 0383 AC030000 		.4byte	0x3ac
 733 0387 06       		.uleb128 0x6
 734 0388 B7060000 		.4byte	.LASF58
 735 038c 0B       		.byte	0xb
 736 038d 26       		.byte	0x26
 737 038e 51020000 		.4byte	0x251
 738 0392 00       		.byte	0
 739 0393 06       		.uleb128 0x6
 740 0394 66000000 		.4byte	.LASF59
 741 0398 0B       		.byte	0xb
 742 0399 28       		.byte	0x28
 743 039a 4B020000 		.4byte	0x24b
 744 039e 08       		.byte	0x8
 745 039f 06       		.uleb128 0x6
 746 03a0 62080000 		.4byte	.LASF60
 747 03a4 0B       		.byte	0xb
 748 03a5 2A       		.byte	0x2a
 749 03a6 AC030000 		.4byte	0x3ac
 750 03aa 0C       		.byte	0xc
 751 03ab 00       		.byte	0
 752 03ac 09       		.uleb128 0x9
 753 03ad 04       		.byte	0x4
 754 03ae 7B030000 		.4byte	0x37b
 755 03b2 03       		.uleb128 0x3
 756 03b3 92030000 		.4byte	.LASF57
 757 03b7 0B       		.byte	0xb
 758 03b8 2C       		.byte	0x2c
 759 03b9 7B030000 		.4byte	0x37b
 760 03bd 03       		.uleb128 0x3
 761 03be 88070000 		.4byte	.LASF61
 762 03c2 0C       		.byte	0xc
 763 03c3 25       		.byte	0x25
 764 03c4 C8030000 		.4byte	0x3c8
 765 03c8 05       		.uleb128 0x5
 766 03c9 88070000 		.4byte	.LASF61
 767 03cd 10       		.byte	0x10
 768 03ce 0C       		.byte	0xc
 769 03cf 2A       		.byte	0x2a
 770 03d0 05040000 		.4byte	0x405
 771 03d4 06       		.uleb128 0x6
 772 03d5 89050000 		.4byte	.LASF62
 773 03d9 0C       		.byte	0xc
 774 03da 2B       		.byte	0x2b
 775 03db 05040000 		.4byte	0x405
 776 03df 00       		.byte	0
 777 03e0 06       		.uleb128 0x6
 778 03e1 20070000 		.4byte	.LASF63
 779 03e5 0C       		.byte	0xc
 780 03e6 2E       		.byte	0x2e
 781 03e7 4B020000 		.4byte	0x24b
 782 03eb 04       		.byte	0x4
 783 03ec 06       		.uleb128 0x6
 784 03ed AB000000 		.4byte	.LASF64
ARM GAS  /var/folders/qh/xwg3v3kj02qbxczjpdb8lzfr0000gn/T//ccyF18J6.s 			page 15


 785 03f1 0C       		.byte	0xc
 786 03f2 30       		.byte	0x30
 787 03f3 F6000000 		.4byte	0xf6
 788 03f7 08       		.byte	0x8
 789 03f8 06       		.uleb128 0x6
 790 03f9 9C080000 		.4byte	.LASF65
 791 03fd 0C       		.byte	0xc
 792 03fe 33       		.byte	0x33
 793 03ff 01010000 		.4byte	0x101
 794 0403 0C       		.byte	0xc
 795 0404 00       		.byte	0
 796 0405 09       		.uleb128 0x9
 797 0406 04       		.byte	0x4
 798 0407 BD030000 		.4byte	0x3bd
 799 040b 05       		.uleb128 0x5
 800 040c 7D050000 		.4byte	.LASF66
 801 0410 04       		.byte	0x4
 802 0411 0C       		.byte	0xc
 803 0412 3A       		.byte	0x3a
 804 0413 24040000 		.4byte	0x424
 805 0417 06       		.uleb128 0x6
 806 0418 18080000 		.4byte	.LASF67
 807 041c 0C       		.byte	0xc
 808 041d 3B       		.byte	0x3b
 809 041e 05040000 		.4byte	0x405
 810 0422 00       		.byte	0
 811 0423 00       		.byte	0
 812 0424 03       		.uleb128 0x3
 813 0425 7D050000 		.4byte	.LASF66
 814 0429 0C       		.byte	0xc
 815 042a 3E       		.byte	0x3e
 816 042b 0B040000 		.4byte	0x40b
 817 042f 0C       		.uleb128 0xc
 818 0430 04       		.byte	0x4
 819 0431 07       		.byte	0x7
 820 0432 8F       		.byte	0x8f
 821 0433 64040000 		.4byte	0x464
 822 0437 0D       		.uleb128 0xd
 823 0438 57030000 		.4byte	.LASF68
 824 043c 07       		.byte	0x7
 825 043d 96       		.byte	0x96
 826 043e EB000000 		.4byte	0xeb
 827 0442 0D       		.uleb128 0xd
 828 0443 A5080000 		.4byte	.LASF69
 829 0447 07       		.byte	0x7
 830 0448 9D       		.byte	0x9d
 831 0449 EB000000 		.4byte	0xeb
 832 044d 0D       		.uleb128 0xd
 833 044e DF000000 		.4byte	.LASF70
 834 0452 07       		.byte	0x7
 835 0453 A4       		.byte	0xa4
 836 0454 87020000 		.4byte	0x287
 837 0458 0D       		.uleb128 0xd
 838 0459 E1010000 		.4byte	.LASF71
 839 045d 07       		.byte	0x7
 840 045e AB       		.byte	0xab
 841 045f F6000000 		.4byte	0xf6
ARM GAS  /var/folders/qh/xwg3v3kj02qbxczjpdb8lzfr0000gn/T//ccyF18J6.s 			page 16


 842 0463 00       		.byte	0
 843 0464 09       		.uleb128 0x9
 844 0465 04       		.byte	0x4
 845 0466 6A040000 		.4byte	0x46a
 846 046a 0E       		.uleb128 0xe
 847 046b 6F040000 		.4byte	0x46f
 848 046f 04       		.uleb128 0x4
 849 0470 01       		.byte	0x1
 850 0471 08       		.byte	0x8
 851 0472 30040000 		.4byte	.LASF72
 852 0476 09       		.uleb128 0x9
 853 0477 04       		.byte	0x4
 854 0478 B2030000 		.4byte	0x3b2
 855 047c 03       		.uleb128 0x3
 856 047d 72020000 		.4byte	.LASF73
 857 0481 07       		.byte	0x7
 858 0482 DE       		.byte	0xde
 859 0483 87040000 		.4byte	0x487
 860 0487 09       		.uleb128 0x9
 861 0488 04       		.byte	0x4
 862 0489 8D040000 		.4byte	0x48d
 863 048d 0F       		.uleb128 0xf
 864 048e EB000000 		.4byte	0xeb
 865 0492 9C040000 		.4byte	0x49c
 866 0496 10       		.uleb128 0x10
 867 0497 87020000 		.4byte	0x287
 868 049b 00       		.byte	0
 869 049c 03       		.uleb128 0x3
 870 049d C4050000 		.4byte	.LASF74
 871 04a1 0D       		.byte	0xd
 872 04a2 30       		.byte	0x30
 873 04a3 A7040000 		.4byte	0x4a7
 874 04a7 05       		.uleb128 0x5
 875 04a8 C4050000 		.4byte	.LASF74
 876 04ac 24       		.byte	0x24
 877 04ad 0D       		.byte	0xd
 878 04ae 3E       		.byte	0x3e
 879 04af 14050000 		.4byte	0x514
 880 04b3 06       		.uleb128 0x6
 881 04b4 E2020000 		.4byte	.LASF75
 882 04b8 0D       		.byte	0xd
 883 04b9 3F       		.byte	0x3f
 884 04ba 51020000 		.4byte	0x251
 885 04be 00       		.byte	0
 886 04bf 06       		.uleb128 0x6
 887 04c0 55070000 		.4byte	.LASF76
 888 04c4 0D       		.byte	0xd
 889 04c5 40       		.byte	0x40
 890 04c6 2C000000 		.4byte	0x2c
 891 04ca 08       		.byte	0x8
 892 04cb 06       		.uleb128 0x6
 893 04cc F9040000 		.4byte	.LASF77
 894 04d0 0D       		.byte	0xd
 895 04d1 41       		.byte	0x41
 896 04d2 36050000 		.4byte	0x536
 897 04d6 0C       		.byte	0xc
 898 04d7 06       		.uleb128 0x6
ARM GAS  /var/folders/qh/xwg3v3kj02qbxczjpdb8lzfr0000gn/T//ccyF18J6.s 			page 17


 899 04d8 64070000 		.4byte	.LASF78
 900 04dc 0D       		.byte	0xd
 901 04dd 42       		.byte	0x42
 902 04de 36050000 		.4byte	0x536
 903 04e2 10       		.byte	0x10
 904 04e3 06       		.uleb128 0x6
 905 04e4 35040000 		.4byte	.LASF79
 906 04e8 0D       		.byte	0xd
 907 04e9 44       		.byte	0x44
 908 04ea 36050000 		.4byte	0x536
 909 04ee 14       		.byte	0x14
 910 04ef 06       		.uleb128 0x6
 911 04f0 99000000 		.4byte	.LASF80
 912 04f4 0D       		.byte	0xd
 913 04f5 45       		.byte	0x45
 914 04f6 36050000 		.4byte	0x536
 915 04fa 18       		.byte	0x18
 916 04fb 06       		.uleb128 0x6
 917 04fc A4030000 		.4byte	.LASF81
 918 0500 0D       		.byte	0xd
 919 0501 46       		.byte	0x46
 920 0502 14050000 		.4byte	0x514
 921 0506 1C       		.byte	0x1c
 922 0507 06       		.uleb128 0x6
 923 0508 E6000000 		.4byte	.LASF82
 924 050c 0D       		.byte	0xd
 925 050d 47       		.byte	0x47
 926 050e 87020000 		.4byte	0x287
 927 0512 20       		.byte	0x20
 928 0513 00       		.byte	0
 929 0514 03       		.uleb128 0x3
 930 0515 A1000000 		.4byte	.LASF83
 931 0519 0D       		.byte	0xd
 932 051a 33       		.byte	0x33
 933 051b 1F050000 		.4byte	0x51f
 934 051f 09       		.uleb128 0x9
 935 0520 04       		.byte	0x4
 936 0521 25050000 		.4byte	0x525
 937 0525 11       		.uleb128 0x11
 938 0526 30050000 		.4byte	0x530
 939 052a 10       		.uleb128 0x10
 940 052b 30050000 		.4byte	0x530
 941 052f 00       		.byte	0
 942 0530 09       		.uleb128 0x9
 943 0531 04       		.byte	0x4
 944 0532 9C040000 		.4byte	0x49c
 945 0536 09       		.uleb128 0x9
 946 0537 04       		.byte	0x4
 947 0538 45000000 		.4byte	0x45
 948 053c 03       		.uleb128 0x3
 949 053d 18040000 		.4byte	.LASF84
 950 0541 0D       		.byte	0xd
 951 0542 7B       		.byte	0x7b
 952 0543 9C040000 		.4byte	0x49c
 953 0547 03       		.uleb128 0x3
 954 0548 98030000 		.4byte	.LASF85
 955 054c 0D       		.byte	0xd
ARM GAS  /var/folders/qh/xwg3v3kj02qbxczjpdb8lzfr0000gn/T//ccyF18J6.s 			page 18


 956 054d EE       		.byte	0xee
 957 054e 9C040000 		.4byte	0x49c
 958 0552 05       		.uleb128 0x5
 959 0553 B3000000 		.4byte	.LASF86
 960 0557 10       		.byte	0x10
 961 0558 0E       		.byte	0xe
 962 0559 41       		.byte	0x41
 963 055a 8F050000 		.4byte	0x58f
 964 055e 06       		.uleb128 0x6
 965 055f F3040000 		.4byte	.LASF87
 966 0563 0E       		.byte	0xe
 967 0564 42       		.byte	0x42
 968 0565 B3050000 		.4byte	0x5b3
 969 0569 00       		.byte	0
 970 056a 06       		.uleb128 0x6
 971 056b 1B070000 		.4byte	.LASF88
 972 056f 0E       		.byte	0xe
 973 0570 42       		.byte	0x42
 974 0571 D2050000 		.4byte	0x5d2
 975 0575 04       		.byte	0x4
 976 0576 07       		.uleb128 0x7
 977 0577 70757400 		.ascii	"put\000"
 978 057b 0E       		.byte	0xe
 979 057c 42       		.byte	0x42
 980 057d EC050000 		.4byte	0x5ec
 981 0581 08       		.byte	0x8
 982 0582 07       		.uleb128 0x7
 983 0583 67657400 		.ascii	"get\000"
 984 0587 0E       		.byte	0xe
 985 0588 42       		.byte	0x42
 986 0589 87040000 		.4byte	0x487
 987 058d 0C       		.byte	0xc
 988 058e 00       		.byte	0
 989 058f 0F       		.uleb128 0xf
 990 0590 2C000000 		.4byte	0x2c
 991 0594 A8050000 		.4byte	0x5a8
 992 0598 10       		.uleb128 0x10
 993 0599 87020000 		.4byte	0x287
 994 059d 10       		.uleb128 0x10
 995 059e A8050000 		.4byte	0x5a8
 996 05a2 10       		.uleb128 0x10
 997 05a3 2C000000 		.4byte	0x2c
 998 05a7 00       		.byte	0
 999 05a8 09       		.uleb128 0x9
 1000 05a9 04       		.byte	0x4
 1001 05aa AE050000 		.4byte	0x5ae
 1002 05ae 0E       		.uleb128 0xe
 1003 05af 45000000 		.4byte	0x45
 1004 05b3 09       		.uleb128 0x9
 1005 05b4 04       		.byte	0x4
 1006 05b5 8F050000 		.4byte	0x58f
 1007 05b9 0F       		.uleb128 0xf
 1008 05ba 2C000000 		.4byte	0x2c
 1009 05be D2050000 		.4byte	0x5d2
 1010 05c2 10       		.uleb128 0x10
 1011 05c3 87020000 		.4byte	0x287
 1012 05c7 10       		.uleb128 0x10
ARM GAS  /var/folders/qh/xwg3v3kj02qbxczjpdb8lzfr0000gn/T//ccyF18J6.s 			page 19


 1013 05c8 36050000 		.4byte	0x536
 1014 05cc 10       		.uleb128 0x10
 1015 05cd 2C000000 		.4byte	0x2c
 1016 05d1 00       		.byte	0
 1017 05d2 09       		.uleb128 0x9
 1018 05d3 04       		.byte	0x4
 1019 05d4 B9050000 		.4byte	0x5b9
 1020 05d8 0F       		.uleb128 0xf
 1021 05d9 EB000000 		.4byte	0xeb
 1022 05dd EC050000 		.4byte	0x5ec
 1023 05e1 10       		.uleb128 0x10
 1024 05e2 87020000 		.4byte	0x287
 1025 05e6 10       		.uleb128 0x10
 1026 05e7 45000000 		.4byte	0x45
 1027 05eb 00       		.byte	0
 1028 05ec 09       		.uleb128 0x9
 1029 05ed 04       		.byte	0x4
 1030 05ee D8050000 		.4byte	0x5d8
 1031 05f2 08       		.uleb128 0x8
 1032 05f3 04       		.byte	0x4
 1033 05f4 0E       		.byte	0xe
 1034 05f5 4A       		.byte	0x4a
 1035 05f6 07060000 		.4byte	0x607
 1036 05fa 07       		.uleb128 0x7
 1037 05fb 766D7400 		.ascii	"vmt\000"
 1038 05ff 0E       		.byte	0xe
 1039 0600 4C       		.byte	0x4c
 1040 0601 07060000 		.4byte	0x607
 1041 0605 00       		.byte	0
 1042 0606 00       		.byte	0
 1043 0607 09       		.uleb128 0x9
 1044 0608 04       		.byte	0x4
 1045 0609 0D060000 		.4byte	0x60d
 1046 060d 0E       		.uleb128 0xe
 1047 060e 52050000 		.4byte	0x552
 1048 0612 03       		.uleb128 0x3
 1049 0613 EB030000 		.4byte	.LASF89
 1050 0617 0E       		.byte	0xe
 1051 0618 4E       		.byte	0x4e
 1052 0619 F2050000 		.4byte	0x5f2
 1053 061d 12       		.uleb128 0x12
 1054 061e 44       		.byte	0x44
 1055 061f 0F       		.byte	0xf
 1056 0620 2B01     		.2byte	0x12b
 1057 0622 CD060000 		.4byte	0x6cd
 1058 0626 13       		.uleb128 0x13
 1059 0627 49535200 		.ascii	"ISR\000"
 1060 062b 0F       		.byte	0xf
 1061 062c 2D01     		.2byte	0x12d
 1062 062e 1A030000 		.4byte	0x31a
 1063 0632 00       		.byte	0
 1064 0633 13       		.uleb128 0x13
 1065 0634 49455200 		.ascii	"IER\000"
 1066 0638 0F       		.byte	0xf
 1067 0639 2E01     		.2byte	0x12e
 1068 063b 1A030000 		.4byte	0x31a
 1069 063f 04       		.byte	0x4
ARM GAS  /var/folders/qh/xwg3v3kj02qbxczjpdb8lzfr0000gn/T//ccyF18J6.s 			page 20


 1070 0640 13       		.uleb128 0x13
 1071 0641 435200   		.ascii	"CR\000"
 1072 0644 0F       		.byte	0xf
 1073 0645 2F01     		.2byte	0x12f
 1074 0647 1A030000 		.4byte	0x31a
 1075 064b 08       		.byte	0x8
 1076 064c 14       		.uleb128 0x14
 1077 064d 71050000 		.4byte	.LASF90
 1078 0651 0F       		.byte	0xf
 1079 0652 3001     		.2byte	0x130
 1080 0654 1A030000 		.4byte	0x31a
 1081 0658 0C       		.byte	0xc
 1082 0659 14       		.uleb128 0x14
 1083 065a 77050000 		.4byte	.LASF91
 1084 065e 0F       		.byte	0xf
 1085 065f 3101     		.2byte	0x131
 1086 0661 1A030000 		.4byte	0x31a
 1087 0665 10       		.byte	0x10
 1088 0666 14       		.uleb128 0x14
 1089 0667 5E030000 		.4byte	.LASF92
 1090 066b 0F       		.byte	0xf
 1091 066c 3201     		.2byte	0x132
 1092 066e 1A030000 		.4byte	0x31a
 1093 0672 14       		.byte	0x14
 1094 0673 14       		.uleb128 0x14
 1095 0674 57060000 		.4byte	.LASF93
 1096 0678 0F       		.byte	0xf
 1097 0679 3301     		.2byte	0x133
 1098 067b 82000000 		.4byte	0x82
 1099 067f 18       		.byte	0x18
 1100 0680 14       		.uleb128 0x14
 1101 0681 61060000 		.4byte	.LASF94
 1102 0685 0F       		.byte	0xf
 1103 0686 3401     		.2byte	0x134
 1104 0688 82000000 		.4byte	0x82
 1105 068c 1C       		.byte	0x1c
 1106 068d 13       		.uleb128 0x13
 1107 068e 545200   		.ascii	"TR\000"
 1108 0691 0F       		.byte	0xf
 1109 0692 3501     		.2byte	0x135
 1110 0694 1A030000 		.4byte	0x31a
 1111 0698 20       		.byte	0x20
 1112 0699 14       		.uleb128 0x14
 1113 069a 6B060000 		.4byte	.LASF95
 1114 069e 0F       		.byte	0xf
 1115 069f 3601     		.2byte	0x136
 1116 06a1 82000000 		.4byte	0x82
 1117 06a5 24       		.byte	0x24
 1118 06a6 14       		.uleb128 0x14
 1119 06a7 CD020000 		.4byte	.LASF96
 1120 06ab 0F       		.byte	0xf
 1121 06ac 3701     		.2byte	0x137
 1122 06ae 1A030000 		.4byte	0x31a
 1123 06b2 28       		.byte	0x28
 1124 06b3 14       		.uleb128 0x14
 1125 06b4 75060000 		.4byte	.LASF97
 1126 06b8 0F       		.byte	0xf
ARM GAS  /var/folders/qh/xwg3v3kj02qbxczjpdb8lzfr0000gn/T//ccyF18J6.s 			page 21


 1127 06b9 3801     		.2byte	0x138
 1128 06bb CD060000 		.4byte	0x6cd
 1129 06bf 2C       		.byte	0x2c
 1130 06c0 13       		.uleb128 0x13
 1131 06c1 445200   		.ascii	"DR\000"
 1132 06c4 0F       		.byte	0xf
 1133 06c5 3901     		.2byte	0x139
 1134 06c7 1A030000 		.4byte	0x31a
 1135 06cb 40       		.byte	0x40
 1136 06cc 00       		.byte	0
 1137 06cd 15       		.uleb128 0x15
 1138 06ce 82000000 		.4byte	0x82
 1139 06d2 DD060000 		.4byte	0x6dd
 1140 06d6 16       		.uleb128 0x16
 1141 06d7 1F030000 		.4byte	0x31f
 1142 06db 04       		.byte	0x4
 1143 06dc 00       		.byte	0
 1144 06dd 17       		.uleb128 0x17
 1145 06de 2D080000 		.4byte	.LASF98
 1146 06e2 0F       		.byte	0xf
 1147 06e3 3A01     		.2byte	0x13a
 1148 06e5 1D060000 		.4byte	0x61d
 1149 06e9 12       		.uleb128 0x12
 1150 06ea 10       		.byte	0x10
 1151 06eb 0F       		.byte	0xf
 1152 06ec 8A01     		.2byte	0x18a
 1153 06ee 27070000 		.4byte	0x727
 1154 06f2 13       		.uleb128 0x13
 1155 06f3 43435200 		.ascii	"CCR\000"
 1156 06f7 0F       		.byte	0xf
 1157 06f8 8C01     		.2byte	0x18c
 1158 06fa 1A030000 		.4byte	0x31a
 1159 06fe 00       		.byte	0
 1160 06ff 14       		.uleb128 0x14
 1161 0700 FC010000 		.4byte	.LASF99
 1162 0704 0F       		.byte	0xf
 1163 0705 8D01     		.2byte	0x18d
 1164 0707 1A030000 		.4byte	0x31a
 1165 070b 04       		.byte	0x4
 1166 070c 14       		.uleb128 0x14
 1167 070d EC020000 		.4byte	.LASF100
 1168 0711 0F       		.byte	0xf
 1169 0712 8E01     		.2byte	0x18e
 1170 0714 1A030000 		.4byte	0x31a
 1171 0718 08       		.byte	0x8
 1172 0719 14       		.uleb128 0x14
 1173 071a D1000000 		.4byte	.LASF101
 1174 071e 0F       		.byte	0xf
 1175 071f 8F01     		.2byte	0x18f
 1176 0721 1A030000 		.4byte	0x31a
 1177 0725 0C       		.byte	0xc
 1178 0726 00       		.byte	0
 1179 0727 17       		.uleb128 0x17
 1180 0728 ED000000 		.4byte	.LASF102
 1181 072c 0F       		.byte	0xf
 1182 072d 9001     		.2byte	0x190
 1183 072f E9060000 		.4byte	0x6e9
ARM GAS  /var/folders/qh/xwg3v3kj02qbxczjpdb8lzfr0000gn/T//ccyF18J6.s 			page 22


 1184 0733 0B       		.uleb128 0xb
 1185 0734 5E000000 		.4byte	0x5e
 1186 0738 12       		.uleb128 0x12
 1187 0739 2C       		.byte	0x2c
 1188 073a 0F       		.byte	0xf
 1189 073b AA02     		.2byte	0x2aa
 1190 073d 12080000 		.4byte	0x812
 1191 0741 13       		.uleb128 0x13
 1192 0742 43523100 		.ascii	"CR1\000"
 1193 0746 0F       		.byte	0xf
 1194 0747 AC02     		.2byte	0x2ac
 1195 0749 1A030000 		.4byte	0x31a
 1196 074d 00       		.byte	0
 1197 074e 13       		.uleb128 0x13
 1198 074f 43523200 		.ascii	"CR2\000"
 1199 0753 0F       		.byte	0xf
 1200 0754 AD02     		.2byte	0x2ad
 1201 0756 1A030000 		.4byte	0x31a
 1202 075a 04       		.byte	0x4
 1203 075b 13       		.uleb128 0x13
 1204 075c 43523300 		.ascii	"CR3\000"
 1205 0760 0F       		.byte	0xf
 1206 0761 AE02     		.2byte	0x2ae
 1207 0763 1A030000 		.4byte	0x31a
 1208 0767 08       		.byte	0x8
 1209 0768 13       		.uleb128 0x13
 1210 0769 42525200 		.ascii	"BRR\000"
 1211 076d 0F       		.byte	0xf
 1212 076e AF02     		.2byte	0x2af
 1213 0770 33070000 		.4byte	0x733
 1214 0774 0C       		.byte	0xc
 1215 0775 14       		.uleb128 0x14
 1216 0776 57060000 		.4byte	.LASF93
 1217 077a 0F       		.byte	0xf
 1218 077b B002     		.2byte	0x2b0
 1219 077d 5E000000 		.4byte	0x5e
 1220 0781 0E       		.byte	0xe
 1221 0782 14       		.uleb128 0x14
 1222 0783 08020000 		.4byte	.LASF103
 1223 0787 0F       		.byte	0xf
 1224 0788 B102     		.2byte	0x2b1
 1225 078a 33070000 		.4byte	0x733
 1226 078e 10       		.byte	0x10
 1227 078f 14       		.uleb128 0x14
 1228 0790 61060000 		.4byte	.LASF94
 1229 0794 0F       		.byte	0xf
 1230 0795 B202     		.2byte	0x2b2
 1231 0797 5E000000 		.4byte	0x5e
 1232 079b 12       		.byte	0x12
 1233 079c 14       		.uleb128 0x14
 1234 079d A9040000 		.4byte	.LASF104
 1235 07a1 0F       		.byte	0xf
 1236 07a2 B302     		.2byte	0x2b3
 1237 07a4 1A030000 		.4byte	0x31a
 1238 07a8 14       		.byte	0x14
 1239 07a9 13       		.uleb128 0x13
 1240 07aa 52515200 		.ascii	"RQR\000"
ARM GAS  /var/folders/qh/xwg3v3kj02qbxczjpdb8lzfr0000gn/T//ccyF18J6.s 			page 23


 1241 07ae 0F       		.byte	0xf
 1242 07af B402     		.2byte	0x2b4
 1243 07b1 33070000 		.4byte	0x733
 1244 07b5 18       		.byte	0x18
 1245 07b6 14       		.uleb128 0x14
 1246 07b7 6B060000 		.4byte	.LASF95
 1247 07bb 0F       		.byte	0xf
 1248 07bc B502     		.2byte	0x2b5
 1249 07be 5E000000 		.4byte	0x5e
 1250 07c2 1A       		.byte	0x1a
 1251 07c3 13       		.uleb128 0x13
 1252 07c4 49535200 		.ascii	"ISR\000"
 1253 07c8 0F       		.byte	0xf
 1254 07c9 B602     		.2byte	0x2b6
 1255 07cb 1A030000 		.4byte	0x31a
 1256 07cf 1C       		.byte	0x1c
 1257 07d0 13       		.uleb128 0x13
 1258 07d1 49435200 		.ascii	"ICR\000"
 1259 07d5 0F       		.byte	0xf
 1260 07d6 B702     		.2byte	0x2b7
 1261 07d8 1A030000 		.4byte	0x31a
 1262 07dc 20       		.byte	0x20
 1263 07dd 13       		.uleb128 0x13
 1264 07de 52445200 		.ascii	"RDR\000"
 1265 07e2 0F       		.byte	0xf
 1266 07e3 B802     		.2byte	0x2b8
 1267 07e5 33070000 		.4byte	0x733
 1268 07e9 24       		.byte	0x24
 1269 07ea 14       		.uleb128 0x14
 1270 07eb 75060000 		.4byte	.LASF97
 1271 07ef 0F       		.byte	0xf
 1272 07f0 B902     		.2byte	0x2b9
 1273 07f2 5E000000 		.4byte	0x5e
 1274 07f6 26       		.byte	0x26
 1275 07f7 13       		.uleb128 0x13
 1276 07f8 54445200 		.ascii	"TDR\000"
 1277 07fc 0F       		.byte	0xf
 1278 07fd BA02     		.2byte	0x2ba
 1279 07ff 33070000 		.4byte	0x733
 1280 0803 28       		.byte	0x28
 1281 0804 14       		.uleb128 0x14
 1282 0805 7F060000 		.4byte	.LASF105
 1283 0809 0F       		.byte	0xf
 1284 080a BB02     		.2byte	0x2bb
 1285 080c 5E000000 		.4byte	0x5e
 1286 0810 2A       		.byte	0x2a
 1287 0811 00       		.byte	0
 1288 0812 17       		.uleb128 0x17
 1289 0813 84030000 		.4byte	.LASF106
 1290 0817 0F       		.byte	0xf
 1291 0818 BC02     		.2byte	0x2bc
 1292 081a 38070000 		.4byte	0x738
 1293 081e 08       		.uleb128 0x8
 1294 081f 0C       		.byte	0xc
 1295 0820 10       		.byte	0x10
 1296 0821 B6       		.byte	0xb6
 1297 0822 63080000 		.4byte	0x863
ARM GAS  /var/folders/qh/xwg3v3kj02qbxczjpdb8lzfr0000gn/T//ccyF18J6.s 			page 24


 1298 0826 06       		.uleb128 0x6
 1299 0827 01060000 		.4byte	.LASF107
 1300 082b 10       		.byte	0x10
 1301 082c B7       		.byte	0xb7
 1302 082d 63080000 		.4byte	0x863
 1303 0831 00       		.byte	0
 1304 0832 06       		.uleb128 0x6
 1305 0833 48020000 		.4byte	.LASF108
 1306 0837 10       		.byte	0x10
 1307 0838 B8       		.byte	0xb8
 1308 0839 69080000 		.4byte	0x869
 1309 083d 04       		.byte	0x4
 1310 083e 06       		.uleb128 0x6
 1311 083f 3D040000 		.4byte	.LASF109
 1312 0843 10       		.byte	0x10
 1313 0844 B9       		.byte	0xb9
 1314 0845 45000000 		.4byte	0x45
 1315 0849 08       		.byte	0x8
 1316 084a 06       		.uleb128 0x6
 1317 084b 39080000 		.4byte	.LASF110
 1318 084f 10       		.byte	0x10
 1319 0850 BB       		.byte	0xbb
 1320 0851 45000000 		.4byte	0x45
 1321 0855 09       		.byte	0x9
 1322 0856 06       		.uleb128 0x6
 1323 0857 B4020000 		.4byte	.LASF111
 1324 085b 10       		.byte	0x10
 1325 085c BC       		.byte	0xbc
 1326 085d 45000000 		.4byte	0x45
 1327 0861 0A       		.byte	0xa
 1328 0862 00       		.byte	0
 1329 0863 09       		.uleb128 0x9
 1330 0864 04       		.byte	0x4
 1331 0865 27070000 		.4byte	0x727
 1332 0869 09       		.uleb128 0x9
 1333 086a 04       		.byte	0x4
 1334 086b 1A030000 		.4byte	0x31a
 1335 086f 03       		.uleb128 0x3
 1336 0870 72040000 		.4byte	.LASF112
 1337 0874 10       		.byte	0x10
 1338 0875 BD       		.byte	0xbd
 1339 0876 1E080000 		.4byte	0x81e
 1340 087a 0F       		.uleb128 0xf
 1341 087b EB000000 		.4byte	0xeb
 1342 087f 93080000 		.4byte	0x893
 1343 0883 10       		.uleb128 0x10
 1344 0884 87020000 		.4byte	0x287
 1345 0888 10       		.uleb128 0x10
 1346 0889 45000000 		.4byte	0x45
 1347 088d 10       		.uleb128 0x10
 1348 088e 0C010000 		.4byte	0x10c
 1349 0892 00       		.byte	0
 1350 0893 09       		.uleb128 0x9
 1351 0894 04       		.byte	0x4
 1352 0895 7A080000 		.4byte	0x87a
 1353 0899 0F       		.uleb128 0xf
 1354 089a EB000000 		.4byte	0xeb
ARM GAS  /var/folders/qh/xwg3v3kj02qbxczjpdb8lzfr0000gn/T//ccyF18J6.s 			page 25


 1355 089e AD080000 		.4byte	0x8ad
 1356 08a2 10       		.uleb128 0x10
 1357 08a3 87020000 		.4byte	0x287
 1358 08a7 10       		.uleb128 0x10
 1359 08a8 0C010000 		.4byte	0x10c
 1360 08ac 00       		.byte	0
 1361 08ad 09       		.uleb128 0x9
 1362 08ae 04       		.byte	0x4
 1363 08af 99080000 		.4byte	0x899
 1364 08b3 0F       		.uleb128 0xf
 1365 08b4 2C000000 		.4byte	0x2c
 1366 08b8 D1080000 		.4byte	0x8d1
 1367 08bc 10       		.uleb128 0x10
 1368 08bd 87020000 		.4byte	0x287
 1369 08c1 10       		.uleb128 0x10
 1370 08c2 A8050000 		.4byte	0x5a8
 1371 08c6 10       		.uleb128 0x10
 1372 08c7 2C000000 		.4byte	0x2c
 1373 08cb 10       		.uleb128 0x10
 1374 08cc 0C010000 		.4byte	0x10c
 1375 08d0 00       		.byte	0
 1376 08d1 09       		.uleb128 0x9
 1377 08d2 04       		.byte	0x4
 1378 08d3 B3080000 		.4byte	0x8b3
 1379 08d7 0F       		.uleb128 0xf
 1380 08d8 2C000000 		.4byte	0x2c
 1381 08dc F5080000 		.4byte	0x8f5
 1382 08e0 10       		.uleb128 0x10
 1383 08e1 87020000 		.4byte	0x287
 1384 08e5 10       		.uleb128 0x10
 1385 08e6 36050000 		.4byte	0x536
 1386 08ea 10       		.uleb128 0x10
 1387 08eb 2C000000 		.4byte	0x2c
 1388 08ef 10       		.uleb128 0x10
 1389 08f0 0C010000 		.4byte	0x10c
 1390 08f4 00       		.byte	0
 1391 08f5 09       		.uleb128 0x9
 1392 08f6 04       		.byte	0x4
 1393 08f7 D7080000 		.4byte	0x8d7
 1394 08fb 18       		.uleb128 0x18
 1395 08fc 01       		.byte	0x1
 1396 08fd 11       		.byte	0x11
 1397 08fe 4E       		.byte	0x4e
 1398 08ff 28090000 		.4byte	0x928
 1399 0903 19       		.uleb128 0x19
 1400 0904 06070000 		.4byte	.LASF113
 1401 0908 00       		.sleb128 0
 1402 0909 19       		.uleb128 0x19
 1403 090a 93080000 		.4byte	.LASF114
 1404 090e 01       		.sleb128 1
 1405 090f 19       		.uleb128 0x19
 1406 0910 A8070000 		.4byte	.LASF115
 1407 0914 02       		.sleb128 2
 1408 0915 19       		.uleb128 0x19
 1409 0916 14060000 		.4byte	.LASF116
 1410 091a 03       		.sleb128 3
 1411 091b 19       		.uleb128 0x19
ARM GAS  /var/folders/qh/xwg3v3kj02qbxczjpdb8lzfr0000gn/T//ccyF18J6.s 			page 26


 1412 091c BD030000 		.4byte	.LASF117
 1413 0920 04       		.sleb128 4
 1414 0921 19       		.uleb128 0x19
 1415 0922 D0030000 		.4byte	.LASF118
 1416 0926 05       		.sleb128 5
 1417 0927 00       		.byte	0
 1418 0928 03       		.uleb128 0x3
 1419 0929 D1070000 		.4byte	.LASF119
 1420 092d 11       		.byte	0x11
 1421 092e 55       		.byte	0x55
 1422 092f FB080000 		.4byte	0x8fb
 1423 0933 03       		.uleb128 0x3
 1424 0934 B2050000 		.4byte	.LASF120
 1425 0938 12       		.byte	0x12
 1426 0939 8F       		.byte	0x8f
 1427 093a 5E000000 		.4byte	0x5e
 1428 093e 03       		.uleb128 0x3
 1429 093f 93060000 		.4byte	.LASF121
 1430 0943 12       		.byte	0x12
 1431 0944 94       		.byte	0x94
 1432 0945 5E000000 		.4byte	0x5e
 1433 0949 18       		.uleb128 0x18
 1434 094a 01       		.byte	0x1
 1435 094b 12       		.byte	0x12
 1436 094c 9B       		.byte	0x9b
 1437 094d 64090000 		.4byte	0x964
 1438 0951 19       		.uleb128 0x19
 1439 0952 36070000 		.4byte	.LASF122
 1440 0956 00       		.sleb128 0
 1441 0957 19       		.uleb128 0x19
 1442 0958 E8050000 		.4byte	.LASF123
 1443 095c 01       		.sleb128 1
 1444 095d 19       		.uleb128 0x19
 1445 095e 78030000 		.4byte	.LASF124
 1446 0962 02       		.sleb128 2
 1447 0963 00       		.byte	0
 1448 0964 03       		.uleb128 0x3
 1449 0965 81000000 		.4byte	.LASF125
 1450 0969 12       		.byte	0x12
 1451 096a 9F       		.byte	0x9f
 1452 096b 49090000 		.4byte	0x949
 1453 096f 03       		.uleb128 0x3
 1454 0970 DA030000 		.4byte	.LASF126
 1455 0974 12       		.byte	0x12
 1456 0975 A4       		.byte	0xa4
 1457 0976 7A090000 		.4byte	0x97a
 1458 097a 05       		.uleb128 0x5
 1459 097b DA030000 		.4byte	.LASF126
 1460 097f 34       		.byte	0x34
 1461 0980 12       		.byte	0x12
 1462 0981 F2       		.byte	0xf2
 1463 0982 060A0000 		.4byte	0xa06
 1464 0986 06       		.uleb128 0x6
 1465 0987 27080000 		.4byte	.LASF127
 1466 098b 12       		.byte	0x12
 1467 098c F6       		.byte	0xf6
 1468 098d 28090000 		.4byte	0x928
ARM GAS  /var/folders/qh/xwg3v3kj02qbxczjpdb8lzfr0000gn/T//ccyF18J6.s 			page 27


 1469 0991 00       		.byte	0
 1470 0992 06       		.uleb128 0x6
 1471 0993 38060000 		.4byte	.LASF128
 1472 0997 12       		.byte	0x12
 1473 0998 FA       		.byte	0xfa
 1474 0999 EC0A0000 		.4byte	0xaec
 1475 099d 04       		.byte	0x4
 1476 099e 06       		.uleb128 0x6
 1477 099f DD040000 		.4byte	.LASF129
 1478 09a3 12       		.byte	0x12
 1479 09a4 FE       		.byte	0xfe
 1480 09a5 320A0000 		.4byte	0xa32
 1481 09a9 08       		.byte	0x8
 1482 09aa 14       		.uleb128 0x14
 1483 09ab 07050000 		.4byte	.LASF130
 1484 09af 12       		.byte	0x12
 1485 09b0 0201     		.2byte	0x102
 1486 09b2 2C000000 		.4byte	0x2c
 1487 09b6 0C       		.byte	0xc
 1488 09b7 14       		.uleb128 0x14
 1489 09b8 8E080000 		.4byte	.LASF131
 1490 09bc 12       		.byte	0x12
 1491 09bd 0601     		.2byte	0x106
 1492 09bf F70A0000 		.4byte	0xaf7
 1493 09c3 10       		.byte	0x10
 1494 09c4 14       		.uleb128 0x14
 1495 09c5 E9070000 		.4byte	.LASF132
 1496 09c9 12       		.byte	0x12
 1497 09ca 0B01     		.2byte	0x10b
 1498 09cc 4B020000 		.4byte	0x24b
 1499 09d0 14       		.byte	0x14
 1500 09d1 14       		.uleb128 0x14
 1501 09d2 4D020000 		.4byte	.LASF133
 1502 09d6 12       		.byte	0x12
 1503 09d7 1201     		.2byte	0x112
 1504 09d9 B2030000 		.4byte	0x3b2
 1505 09dd 18       		.byte	0x18
 1506 09de 13       		.uleb128 0x13
 1507 09df 61646300 		.ascii	"adc\000"
 1508 09e3 12       		.byte	0x12
 1509 09e4 1E01     		.2byte	0x11e
 1510 09e6 020B0000 		.4byte	0xb02
 1511 09ea 28       		.byte	0x28
 1512 09eb 14       		.uleb128 0x14
 1513 09ec AD030000 		.4byte	.LASF134
 1514 09f0 12       		.byte	0x12
 1515 09f1 2201     		.2byte	0x122
 1516 09f3 080B0000 		.4byte	0xb08
 1517 09f7 2C       		.byte	0x2c
 1518 09f8 14       		.uleb128 0x14
 1519 09f9 44000000 		.4byte	.LASF135
 1520 09fd 12       		.byte	0x12
 1521 09fe 2601     		.2byte	0x126
 1522 0a00 82000000 		.4byte	0x82
 1523 0a04 30       		.byte	0x30
 1524 0a05 00       		.byte	0
 1525 0a06 03       		.uleb128 0x3
ARM GAS  /var/folders/qh/xwg3v3kj02qbxczjpdb8lzfr0000gn/T//ccyF18J6.s 			page 28


 1526 0a07 38050000 		.4byte	.LASF136
 1527 0a0b 12       		.byte	0x12
 1528 0a0c AE       		.byte	0xae
 1529 0a0d 110A0000 		.4byte	0xa11
 1530 0a11 09       		.uleb128 0x9
 1531 0a12 04       		.byte	0x4
 1532 0a13 170A0000 		.4byte	0xa17
 1533 0a17 11       		.uleb128 0x11
 1534 0a18 2C0A0000 		.4byte	0xa2c
 1535 0a1c 10       		.uleb128 0x10
 1536 0a1d 2C0A0000 		.4byte	0xa2c
 1537 0a21 10       		.uleb128 0x10
 1538 0a22 320A0000 		.4byte	0xa32
 1539 0a26 10       		.uleb128 0x10
 1540 0a27 2C000000 		.4byte	0x2c
 1541 0a2b 00       		.byte	0
 1542 0a2c 09       		.uleb128 0x9
 1543 0a2d 04       		.byte	0x4
 1544 0a2e 6F090000 		.4byte	0x96f
 1545 0a32 09       		.uleb128 0x9
 1546 0a33 04       		.byte	0x4
 1547 0a34 33090000 		.4byte	0x933
 1548 0a38 03       		.uleb128 0x3
 1549 0a39 29020000 		.4byte	.LASF137
 1550 0a3d 12       		.byte	0x12
 1551 0a3e B7       		.byte	0xb7
 1552 0a3f 430A0000 		.4byte	0xa43
 1553 0a43 09       		.uleb128 0x9
 1554 0a44 04       		.byte	0x4
 1555 0a45 490A0000 		.4byte	0xa49
 1556 0a49 11       		.uleb128 0x11
 1557 0a4a 590A0000 		.4byte	0xa59
 1558 0a4e 10       		.uleb128 0x10
 1559 0a4f 2C0A0000 		.4byte	0xa2c
 1560 0a53 10       		.uleb128 0x10
 1561 0a54 64090000 		.4byte	0x964
 1562 0a58 00       		.byte	0
 1563 0a59 08       		.uleb128 0x8
 1564 0a5a 1C       		.byte	0x1c
 1565 0a5b 12       		.byte	0x12
 1566 0a5c C1       		.byte	0xc1
 1567 0a5d C10A0000 		.4byte	0xac1
 1568 0a61 06       		.uleb128 0x6
 1569 0a62 7A020000 		.4byte	.LASF138
 1570 0a66 12       		.byte	0x12
 1571 0a67 C5       		.byte	0xc5
 1572 0a68 A2000000 		.4byte	0xa2
 1573 0a6c 00       		.byte	0
 1574 0a6d 06       		.uleb128 0x6
 1575 0a6e DB060000 		.4byte	.LASF139
 1576 0a72 12       		.byte	0x12
 1577 0a73 C9       		.byte	0xc9
 1578 0a74 3E090000 		.4byte	0x93e
 1579 0a78 02       		.byte	0x2
 1580 0a79 06       		.uleb128 0x6
 1581 0a7a 6B020000 		.4byte	.LASF140
 1582 0a7e 12       		.byte	0x12
ARM GAS  /var/folders/qh/xwg3v3kj02qbxczjpdb8lzfr0000gn/T//ccyF18J6.s 			page 29


 1583 0a7f CD       		.byte	0xcd
 1584 0a80 060A0000 		.4byte	0xa06
 1585 0a84 04       		.byte	0x4
 1586 0a85 06       		.uleb128 0x6
 1587 0a86 D6000000 		.4byte	.LASF141
 1588 0a8a 12       		.byte	0x12
 1589 0a8b D1       		.byte	0xd1
 1590 0a8c 380A0000 		.4byte	0xa38
 1591 0a90 08       		.byte	0x8
 1592 0a91 06       		.uleb128 0x6
 1593 0a92 A6060000 		.4byte	.LASF142
 1594 0a96 12       		.byte	0x12
 1595 0a97 D6       		.byte	0xd6
 1596 0a98 82000000 		.4byte	0x82
 1597 0a9c 0C       		.byte	0xc
 1598 0a9d 07       		.uleb128 0x7
 1599 0a9e 747200   		.ascii	"tr\000"
 1600 0aa1 12       		.byte	0x12
 1601 0aa2 DA       		.byte	0xda
 1602 0aa3 82000000 		.4byte	0x82
 1603 0aa7 10       		.byte	0x10
 1604 0aa8 06       		.uleb128 0x6
 1605 0aa9 02050000 		.4byte	.LASF143
 1606 0aad 12       		.byte	0x12
 1607 0aae DE       		.byte	0xde
 1608 0aaf 82000000 		.4byte	0x82
 1609 0ab3 14       		.byte	0x14
 1610 0ab4 06       		.uleb128 0x6
 1611 0ab5 CA070000 		.4byte	.LASF144
 1612 0ab9 12       		.byte	0x12
 1613 0aba E4       		.byte	0xe4
 1614 0abb 82000000 		.4byte	0x82
 1615 0abf 18       		.byte	0x18
 1616 0ac0 00       		.byte	0
 1617 0ac1 03       		.uleb128 0x3
 1618 0ac2 C8060000 		.4byte	.LASF145
 1619 0ac6 12       		.byte	0x12
 1620 0ac7 E5       		.byte	0xe5
 1621 0ac8 590A0000 		.4byte	0xa59
 1622 0acc 08       		.uleb128 0x8
 1623 0acd 04       		.byte	0x4
 1624 0ace 12       		.byte	0x12
 1625 0acf EB       		.byte	0xeb
 1626 0ad0 E10A0000 		.4byte	0xae1
 1627 0ad4 06       		.uleb128 0x6
 1628 0ad5 CB000000 		.4byte	.LASF146
 1629 0ad9 12       		.byte	0x12
 1630 0ada EC       		.byte	0xec
 1631 0adb 82000000 		.4byte	0x82
 1632 0adf 00       		.byte	0
 1633 0ae0 00       		.byte	0
 1634 0ae1 03       		.uleb128 0x3
 1635 0ae2 2E050000 		.4byte	.LASF147
 1636 0ae6 12       		.byte	0x12
 1637 0ae7 ED       		.byte	0xed
 1638 0ae8 CC0A0000 		.4byte	0xacc
 1639 0aec 09       		.uleb128 0x9
ARM GAS  /var/folders/qh/xwg3v3kj02qbxczjpdb8lzfr0000gn/T//ccyF18J6.s 			page 30


 1640 0aed 04       		.byte	0x4
 1641 0aee F20A0000 		.4byte	0xaf2
 1642 0af2 0E       		.uleb128 0xe
 1643 0af3 E10A0000 		.4byte	0xae1
 1644 0af7 09       		.uleb128 0x9
 1645 0af8 04       		.byte	0x4
 1646 0af9 FD0A0000 		.4byte	0xafd
 1647 0afd 0E       		.uleb128 0xe
 1648 0afe C10A0000 		.4byte	0xac1
 1649 0b02 09       		.uleb128 0x9
 1650 0b03 04       		.byte	0x4
 1651 0b04 DD060000 		.4byte	0x6dd
 1652 0b08 09       		.uleb128 0x9
 1653 0b09 04       		.byte	0x4
 1654 0b0a 0E0B0000 		.4byte	0xb0e
 1655 0b0e 0E       		.uleb128 0xe
 1656 0b0f 6F080000 		.4byte	0x86f
 1657 0b13 18       		.uleb128 0x18
 1658 0b14 01       		.byte	0x1
 1659 0b15 13       		.byte	0x13
 1660 0b16 5D       		.byte	0x5d
 1661 0b17 2E0B0000 		.4byte	0xb2e
 1662 0b1b 19       		.uleb128 0x19
 1663 0b1c 2C070000 		.4byte	.LASF148
 1664 0b20 00       		.sleb128 0
 1665 0b21 19       		.uleb128 0x19
 1666 0b22 70030000 		.4byte	.LASF149
 1667 0b26 01       		.sleb128 1
 1668 0b27 19       		.uleb128 0x19
 1669 0b28 1F060000 		.4byte	.LASF150
 1670 0b2c 02       		.sleb128 2
 1671 0b2d 00       		.byte	0
 1672 0b2e 03       		.uleb128 0x3
 1673 0b2f 53020000 		.4byte	.LASF151
 1674 0b33 13       		.byte	0x13
 1675 0b34 61       		.byte	0x61
 1676 0b35 130B0000 		.4byte	0xb13
 1677 0b39 03       		.uleb128 0x3
 1678 0b3a 16000000 		.4byte	.LASF152
 1679 0b3e 13       		.byte	0x13
 1680 0b3f 66       		.byte	0x66
 1681 0b40 440B0000 		.4byte	0xb44
 1682 0b44 1A       		.uleb128 0x1a
 1683 0b45 16000000 		.4byte	.LASF152
 1684 0b49 5C01     		.2byte	0x15c
 1685 0b4b 13       		.byte	0x13
 1686 0b4c 80       		.byte	0x80
 1687 0b4d BE0B0000 		.4byte	0xbbe
 1688 0b51 07       		.uleb128 0x7
 1689 0b52 766D7400 		.ascii	"vmt\000"
 1690 0b56 13       		.byte	0x13
 1691 0b57 82       		.byte	0x82
 1692 0b58 2B0C0000 		.4byte	0xc2b
 1693 0b5c 00       		.byte	0
 1694 0b5d 06       		.uleb128 0x6
 1695 0b5e 5D020000 		.4byte	.LASF153
 1696 0b62 13       		.byte	0x13
ARM GAS  /var/folders/qh/xwg3v3kj02qbxczjpdb8lzfr0000gn/T//ccyF18J6.s 			page 31


 1697 0b63 83       		.byte	0x83
 1698 0b64 24040000 		.4byte	0x424
 1699 0b68 04       		.byte	0x4
 1700 0b69 06       		.uleb128 0x6
 1701 0b6a 27080000 		.4byte	.LASF127
 1702 0b6e 13       		.byte	0x13
 1703 0b6f 83       		.byte	0x83
 1704 0b70 2E0B0000 		.4byte	0xb2e
 1705 0b74 08       		.byte	0x8
 1706 0b75 06       		.uleb128 0x6
 1707 0b76 0D020000 		.4byte	.LASF154
 1708 0b7a 13       		.byte	0x13
 1709 0b7b 83       		.byte	0x83
 1710 0b7c 3C050000 		.4byte	0x53c
 1711 0b80 0C       		.byte	0xc
 1712 0b81 06       		.uleb128 0x6
 1713 0b82 D1050000 		.4byte	.LASF155
 1714 0b86 13       		.byte	0x13
 1715 0b87 83       		.byte	0x83
 1716 0b88 47050000 		.4byte	0x547
 1717 0b8c 30       		.byte	0x30
 1718 0b8d 07       		.uleb128 0x7
 1719 0b8e 696200   		.ascii	"ib\000"
 1720 0b91 13       		.byte	0x13
 1721 0b92 83       		.byte	0x83
 1722 0b93 360C0000 		.4byte	0xc36
 1723 0b97 54       		.byte	0x54
 1724 0b98 07       		.uleb128 0x7
 1725 0b99 6F6200   		.ascii	"ob\000"
 1726 0b9c 13       		.byte	0x13
 1727 0b9d 83       		.byte	0x83
 1728 0b9e 360C0000 		.4byte	0xc36
 1729 0ba2 D4       		.byte	0xd4
 1730 0ba3 1B       		.uleb128 0x1b
 1731 0ba4 CF040000 		.4byte	.LASF156
 1732 0ba8 13       		.byte	0x13
 1733 0ba9 83       		.byte	0x83
 1734 0baa 460C0000 		.4byte	0xc46
 1735 0bae 5401     		.2byte	0x154
 1736 0bb0 1B       		.uleb128 0x1b
 1737 0bb1 CA030000 		.4byte	.LASF157
 1738 0bb5 13       		.byte	0x13
 1739 0bb6 83       		.byte	0x83
 1740 0bb7 82000000 		.4byte	0x82
 1741 0bbb 5801     		.2byte	0x158
 1742 0bbd 00       		.byte	0
 1743 0bbe 05       		.uleb128 0x5
 1744 0bbf 28060000 		.4byte	.LASF158
 1745 0bc3 20       		.byte	0x20
 1746 0bc4 13       		.byte	0x13
 1747 0bc5 75       		.byte	0x75
 1748 0bc6 2B0C0000 		.4byte	0xc2b
 1749 0bca 06       		.uleb128 0x6
 1750 0bcb F3040000 		.4byte	.LASF87
 1751 0bcf 13       		.byte	0x13
 1752 0bd0 76       		.byte	0x76
 1753 0bd1 B3050000 		.4byte	0x5b3
ARM GAS  /var/folders/qh/xwg3v3kj02qbxczjpdb8lzfr0000gn/T//ccyF18J6.s 			page 32


 1754 0bd5 00       		.byte	0
 1755 0bd6 06       		.uleb128 0x6
 1756 0bd7 1B070000 		.4byte	.LASF88
 1757 0bdb 13       		.byte	0x13
 1758 0bdc 76       		.byte	0x76
 1759 0bdd D2050000 		.4byte	0x5d2
 1760 0be1 04       		.byte	0x4
 1761 0be2 07       		.uleb128 0x7
 1762 0be3 70757400 		.ascii	"put\000"
 1763 0be7 13       		.byte	0x13
 1764 0be8 76       		.byte	0x76
 1765 0be9 EC050000 		.4byte	0x5ec
 1766 0bed 08       		.byte	0x8
 1767 0bee 07       		.uleb128 0x7
 1768 0bef 67657400 		.ascii	"get\000"
 1769 0bf3 13       		.byte	0x13
 1770 0bf4 76       		.byte	0x76
 1771 0bf5 87040000 		.4byte	0x487
 1772 0bf9 0C       		.byte	0xc
 1773 0bfa 06       		.uleb128 0x6
 1774 0bfb 10030000 		.4byte	.LASF159
 1775 0bff 13       		.byte	0x13
 1776 0c00 76       		.byte	0x76
 1777 0c01 93080000 		.4byte	0x893
 1778 0c05 10       		.byte	0x10
 1779 0c06 06       		.uleb128 0x6
 1780 0c07 5F070000 		.4byte	.LASF160
 1781 0c0b 13       		.byte	0x13
 1782 0c0c 76       		.byte	0x76
 1783 0c0d AD080000 		.4byte	0x8ad
 1784 0c11 14       		.byte	0x14
 1785 0c12 06       		.uleb128 0x6
 1786 0c13 F5010000 		.4byte	.LASF161
 1787 0c17 13       		.byte	0x13
 1788 0c18 76       		.byte	0x76
 1789 0c19 D1080000 		.4byte	0x8d1
 1790 0c1d 18       		.byte	0x18
 1791 0c1e 06       		.uleb128 0x6
 1792 0c1f 75080000 		.4byte	.LASF162
 1793 0c23 13       		.byte	0x13
 1794 0c24 76       		.byte	0x76
 1795 0c25 F5080000 		.4byte	0x8f5
 1796 0c29 1C       		.byte	0x1c
 1797 0c2a 00       		.byte	0
 1798 0c2b 09       		.uleb128 0x9
 1799 0c2c 04       		.byte	0x4
 1800 0c2d 310C0000 		.4byte	0xc31
 1801 0c31 0E       		.uleb128 0xe
 1802 0c32 BE0B0000 		.4byte	0xbbe
 1803 0c36 15       		.uleb128 0x15
 1804 0c37 45000000 		.4byte	0x45
 1805 0c3b 460C0000 		.4byte	0xc46
 1806 0c3f 16       		.uleb128 0x16
 1807 0c40 1F030000 		.4byte	0x31f
 1808 0c44 7F       		.byte	0x7f
 1809 0c45 00       		.byte	0
 1810 0c46 09       		.uleb128 0x9
ARM GAS  /var/folders/qh/xwg3v3kj02qbxczjpdb8lzfr0000gn/T//ccyF18J6.s 			page 33


 1811 0c47 04       		.byte	0x4
 1812 0c48 12080000 		.4byte	0x812
 1813 0c4c 03       		.uleb128 0x3
 1814 0c4d 01030000 		.4byte	.LASF163
 1815 0c51 14       		.byte	0x14
 1816 0c52 28       		.byte	0x28
 1817 0c53 570C0000 		.4byte	0xc57
 1818 0c57 05       		.uleb128 0x5
 1819 0c58 58080000 		.4byte	.LASF164
 1820 0c5c 04       		.byte	0x4
 1821 0c5d 15       		.byte	0x15
 1822 0c5e 00       		.byte	0
 1823 0c5f 6E0C0000 		.4byte	0xc6e
 1824 0c63 1C       		.uleb128 0x1c
 1825 0c64 4E050000 		.4byte	.LASF165
 1826 0c68 87020000 		.4byte	0x287
 1827 0c6c 00       		.byte	0
 1828 0c6d 00       		.byte	0
 1829 0c6e 03       		.uleb128 0x3
 1830 0c6f D5040000 		.4byte	.LASF166
 1831 0c73 14       		.byte	0x14
 1832 0c74 62       		.byte	0x62
 1833 0c75 4C0C0000 		.4byte	0xc4c
 1834 0c79 03       		.uleb128 0x3
 1835 0c7a 60040000 		.4byte	.LASF167
 1836 0c7e 16       		.byte	0x16
 1837 0c7f 2D       		.byte	0x2d
 1838 0c80 840C0000 		.4byte	0xc84
 1839 0c84 09       		.uleb128 0x9
 1840 0c85 04       		.byte	0x4
 1841 0c86 8A0C0000 		.4byte	0xc8a
 1842 0c8a 11       		.uleb128 0x11
 1843 0c8b 9F0C0000 		.4byte	0xc9f
 1844 0c8f 10       		.uleb128 0x10
 1845 0c90 9F0C0000 		.4byte	0xc9f
 1846 0c94 10       		.uleb128 0x10
 1847 0c95 25000000 		.4byte	0x25
 1848 0c99 10       		.uleb128 0x10
 1849 0c9a A50C0000 		.4byte	0xca5
 1850 0c9e 00       		.byte	0
 1851 0c9f 09       		.uleb128 0x9
 1852 0ca0 04       		.byte	0x4
 1853 0ca1 12060000 		.4byte	0x612
 1854 0ca5 09       		.uleb128 0x9
 1855 0ca6 04       		.byte	0x4
 1856 0ca7 AB0C0000 		.4byte	0xcab
 1857 0cab 09       		.uleb128 0x9
 1858 0cac 04       		.byte	0x4
 1859 0cad 6F040000 		.4byte	0x46f
 1860 0cb1 08       		.uleb128 0x8
 1861 0cb2 08       		.byte	0x8
 1862 0cb3 16       		.byte	0x16
 1863 0cb4 32       		.byte	0x32
 1864 0cb5 D20C0000 		.4byte	0xcd2
 1865 0cb9 06       		.uleb128 0x6
 1866 0cba F9050000 		.4byte	.LASF168
 1867 0cbe 16       		.byte	0x16
ARM GAS  /var/folders/qh/xwg3v3kj02qbxczjpdb8lzfr0000gn/T//ccyF18J6.s 			page 34


 1868 0cbf 33       		.byte	0x33
 1869 0cc0 64040000 		.4byte	0x464
 1870 0cc4 00       		.byte	0
 1871 0cc5 06       		.uleb128 0x6
 1872 0cc6 D1080000 		.4byte	.LASF169
 1873 0cca 16       		.byte	0x16
 1874 0ccb 34       		.byte	0x34
 1875 0ccc 790C0000 		.4byte	0xc79
 1876 0cd0 04       		.byte	0x4
 1877 0cd1 00       		.byte	0
 1878 0cd2 03       		.uleb128 0x3
 1879 0cd3 3F060000 		.4byte	.LASF170
 1880 0cd7 16       		.byte	0x16
 1881 0cd8 35       		.byte	0x35
 1882 0cd9 B10C0000 		.4byte	0xcb1
 1883 0cdd 08       		.uleb128 0x8
 1884 0cde 08       		.byte	0x8
 1885 0cdf 16       		.byte	0x16
 1886 0ce0 3A       		.byte	0x3a
 1887 0ce1 FE0C0000 		.4byte	0xcfe
 1888 0ce5 06       		.uleb128 0x6
 1889 0ce6 09060000 		.4byte	.LASF171
 1890 0cea 16       		.byte	0x16
 1891 0ceb 3B       		.byte	0x3b
 1892 0cec 9F0C0000 		.4byte	0xc9f
 1893 0cf0 00       		.byte	0
 1894 0cf1 06       		.uleb128 0x6
 1895 0cf2 49070000 		.4byte	.LASF172
 1896 0cf6 16       		.byte	0x16
 1897 0cf7 3D       		.byte	0x3d
 1898 0cf8 FE0C0000 		.4byte	0xcfe
 1899 0cfc 04       		.byte	0x4
 1900 0cfd 00       		.byte	0
 1901 0cfe 09       		.uleb128 0x9
 1902 0cff 04       		.byte	0x4
 1903 0d00 040D0000 		.4byte	0xd04
 1904 0d04 0E       		.uleb128 0xe
 1905 0d05 D20C0000 		.4byte	0xcd2
 1906 0d09 03       		.uleb128 0x3
 1907 0d0a C1020000 		.4byte	.LASF173
 1908 0d0e 16       		.byte	0x16
 1909 0d0f 3F       		.byte	0x3f
 1910 0d10 DD0C0000 		.4byte	0xcdd
 1911 0d14 08       		.uleb128 0x8
 1912 0d15 10       		.byte	0x10
 1913 0d16 17       		.byte	0x17
 1914 0d17 4F       		.byte	0x4f
 1915 0d18 4D0D0000 		.4byte	0xd4d
 1916 0d1c 06       		.uleb128 0x6
 1917 0d1d E8010000 		.4byte	.LASF174
 1918 0d21 17       		.byte	0x17
 1919 0d22 50       		.byte	0x50
 1920 0d23 AB0C0000 		.4byte	0xcab
 1921 0d27 00       		.byte	0
 1922 0d28 06       		.uleb128 0x6
 1923 0d29 F1020000 		.4byte	.LASF175
 1924 0d2d 17       		.byte	0x17
ARM GAS  /var/folders/qh/xwg3v3kj02qbxczjpdb8lzfr0000gn/T//ccyF18J6.s 			page 35


 1925 0d2e 51       		.byte	0x51
 1926 0d2f 320A0000 		.4byte	0xa32
 1927 0d33 04       		.byte	0x4
 1928 0d34 06       		.uleb128 0x6
 1929 0d35 C0040000 		.4byte	.LASF176
 1930 0d39 17       		.byte	0x17
 1931 0d3a 52       		.byte	0x52
 1932 0d3b 25000000 		.4byte	0x25
 1933 0d3f 08       		.byte	0x8
 1934 0d40 06       		.uleb128 0x6
 1935 0d41 13050000 		.4byte	.LASF177
 1936 0d45 17       		.byte	0x17
 1937 0d46 53       		.byte	0x53
 1938 0d47 25000000 		.4byte	0x25
 1939 0d4b 0C       		.byte	0xc
 1940 0d4c 00       		.byte	0
 1941 0d4d 03       		.uleb128 0x3
 1942 0d4e 43080000 		.4byte	.LASF178
 1943 0d52 17       		.byte	0x17
 1944 0d53 55       		.byte	0x55
 1945 0d54 140D0000 		.4byte	0xd14
 1946 0d58 1D       		.uleb128 0x1d
 1947 0d59 B4030000 		.4byte	.LASF199
 1948 0d5d 02       		.byte	0x2
 1949 0d5e 45       		.byte	0x45
 1950 0d5f 03       		.byte	0x3
 1951 0d60 860D0000 		.4byte	0xd86
 1952 0d64 1E       		.uleb128 0x1e
 1953 0d65 63687000 		.ascii	"chp\000"
 1954 0d69 02       		.byte	0x2
 1955 0d6a 45       		.byte	0x45
 1956 0d6b 9F0C0000 		.4byte	0xc9f
 1957 0d6f 1E       		.uleb128 0x1e
 1958 0d70 666D7400 		.ascii	"fmt\000"
 1959 0d74 02       		.byte	0x2
 1960 0d75 45       		.byte	0x45
 1961 0d76 64040000 		.4byte	0x464
 1962 0d7a 1F       		.uleb128 0x1f
 1963 0d7b 20       		.uleb128 0x20
 1964 0d7c 617000   		.ascii	"ap\000"
 1965 0d7f 02       		.byte	0x2
 1966 0d80 46       		.byte	0x46
 1967 0d81 6E0C0000 		.4byte	0xc6e
 1968 0d85 00       		.byte	0
 1969 0d86 21       		.uleb128 0x21
 1970 0d87 E8060000 		.4byte	.LASF180
 1971 0d8b 01       		.byte	0x1
 1972 0d8c 44       		.byte	0x44
 1973 0d8d 00000000 		.4byte	.LFB43
 1974 0d91 02000000 		.4byte	.LFE43-.LFB43
 1975 0d95 01       		.uleb128 0x1
 1976 0d96 9C       		.byte	0x9c
 1977 0d97 B60D0000 		.4byte	0xdb6
 1978 0d9b 22       		.uleb128 0x22
 1979 0d9c DC070000 		.4byte	.LASF179
 1980 0da0 01       		.byte	0x1
 1981 0da1 44       		.byte	0x44
ARM GAS  /var/folders/qh/xwg3v3kj02qbxczjpdb8lzfr0000gn/T//ccyF18J6.s 			page 36


 1982 0da2 2C0A0000 		.4byte	0xa2c
 1983 0da6 01       		.uleb128 0x1
 1984 0da7 50       		.byte	0x50
 1985 0da8 23       		.uleb128 0x23
 1986 0da9 65727200 		.ascii	"err\000"
 1987 0dad 01       		.byte	0x1
 1988 0dae 44       		.byte	0x44
 1989 0daf 64090000 		.4byte	0x964
 1990 0db3 01       		.uleb128 0x1
 1991 0db4 51       		.byte	0x51
 1992 0db5 00       		.byte	0
 1993 0db6 21       		.uleb128 0x21
 1994 0db7 54040000 		.4byte	.LASF181
 1995 0dbb 01       		.byte	0x1
 1996 0dbc 2C       		.byte	0x2c
 1997 0dbd 00000000 		.4byte	.LFB42
 1998 0dc1 3C000000 		.4byte	.LFE42-.LFB42
 1999 0dc5 01       		.uleb128 0x1
 2000 0dc6 9C       		.byte	0x9c
 2001 0dc7 180E0000 		.4byte	0xe18
 2002 0dcb 24       		.uleb128 0x24
 2003 0dcc DC070000 		.4byte	.LASF179
 2004 0dd0 01       		.byte	0x1
 2005 0dd1 2C       		.byte	0x2c
 2006 0dd2 2C0A0000 		.4byte	0xa2c
 2007 0dd6 00000000 		.4byte	.LLST0
 2008 0dda 24       		.uleb128 0x24
 2009 0ddb 5F000000 		.4byte	.LASF182
 2010 0ddf 01       		.byte	0x1
 2011 0de0 2C       		.byte	0x2c
 2012 0de1 320A0000 		.4byte	0xa32
 2013 0de5 21000000 		.4byte	.LLST1
 2014 0de9 25       		.uleb128 0x25
 2015 0dea 6E00     		.ascii	"n\000"
 2016 0dec 01       		.byte	0x1
 2017 0ded 2C       		.byte	0x2c
 2018 0dee 2C000000 		.4byte	0x2c
 2019 0df2 42000000 		.4byte	.LLST2
 2020 0df6 26       		.uleb128 0x26
 2021 0df7 0A000000 		.4byte	.LVL2
 2022 0dfb 940F0000 		.4byte	0xf94
 2023 0dff 26       		.uleb128 0x26
 2024 0e00 16000000 		.4byte	.LVL3
 2025 0e04 9B0F0000 		.4byte	0xf9b
 2026 0e08 27       		.uleb128 0x27
 2027 0e09 2C000000 		.4byte	.LVL6
 2028 0e0d A20F0000 		.4byte	0xfa2
 2029 0e11 28       		.uleb128 0x28
 2030 0e12 01       		.uleb128 0x1
 2031 0e13 51       		.byte	0x51
 2032 0e14 01       		.uleb128 0x1
 2033 0e15 31       		.byte	0x31
 2034 0e16 00       		.byte	0
 2035 0e17 00       		.byte	0
 2036 0e18 29       		.uleb128 0x29
 2037 0e19 580D0000 		.4byte	0xd58
 2038 0e1d 00000000 		.4byte	.LFB45
ARM GAS  /var/folders/qh/xwg3v3kj02qbxczjpdb8lzfr0000gn/T//ccyF18J6.s 			page 37


 2039 0e21 24000000 		.4byte	.LFE45-.LFB45
 2040 0e25 01       		.uleb128 0x1
 2041 0e26 9C       		.byte	0x9c
 2042 0e27 700E0000 		.4byte	0xe70
 2043 0e2b 2A       		.uleb128 0x2a
 2044 0e2c 640D0000 		.4byte	0xd64
 2045 0e30 79000000 		.4byte	.LLST3
 2046 0e34 2B       		.uleb128 0x2b
 2047 0e35 6F0D0000 		.4byte	0xd6f
 2048 0e39 02       		.uleb128 0x2
 2049 0e3a 91       		.byte	0x91
 2050 0e3b 74       		.sleb128 -12
 2051 0e3c 1F       		.uleb128 0x1f
 2052 0e3d 2C       		.uleb128 0x2c
 2053 0e3e 7B0D0000 		.4byte	0xd7b
 2054 0e42 02       		.uleb128 0x2
 2055 0e43 91       		.byte	0x91
 2056 0e44 6C       		.sleb128 -20
 2057 0e45 2B       		.uleb128 0x2b
 2058 0e46 6F0D0000 		.4byte	0xd6f
 2059 0e4a 06       		.uleb128 0x6
 2060 0e4b 03       		.byte	0x3
 2061 0e4c 00000000 		.4byte	.LC4
 2062 0e50 9F       		.byte	0x9f
 2063 0e51 2D       		.uleb128 0x2d
 2064 0e52 640D0000 		.4byte	0xd64
 2065 0e56 27       		.uleb128 0x27
 2066 0e57 12000000 		.4byte	.LVL9
 2067 0e5b BE0F0000 		.4byte	0xfbe
 2068 0e5f 28       		.uleb128 0x28
 2069 0e60 01       		.uleb128 0x1
 2070 0e61 52       		.byte	0x52
 2071 0e62 02       		.uleb128 0x2
 2072 0e63 91       		.byte	0x91
 2073 0e64 60       		.sleb128 -32
 2074 0e65 28       		.uleb128 0x28
 2075 0e66 01       		.uleb128 0x1
 2076 0e67 51       		.byte	0x51
 2077 0e68 05       		.uleb128 0x5
 2078 0e69 03       		.byte	0x3
 2079 0e6a 00000000 		.4byte	.LC4
 2080 0e6e 00       		.byte	0
 2081 0e6f 00       		.byte	0
 2082 0e70 21       		.uleb128 0x21
 2083 0e71 71070000 		.4byte	.LASF183
 2084 0e75 01       		.byte	0x1
 2085 0e76 27       		.byte	0x27
 2086 0e77 00000000 		.4byte	.LFB41
 2087 0e7b 14000000 		.4byte	.LFE41-.LFB41
 2088 0e7f 01       		.uleb128 0x1
 2089 0e80 9C       		.byte	0x9c
 2090 0e81 990E0000 		.4byte	0xe99
 2091 0e85 27       		.uleb128 0x27
 2092 0e86 0A000000 		.4byte	.LVL10
 2093 0e8a 180E0000 		.4byte	0xe18
 2094 0e8e 28       		.uleb128 0x28
 2095 0e8f 01       		.uleb128 0x1
ARM GAS  /var/folders/qh/xwg3v3kj02qbxczjpdb8lzfr0000gn/T//ccyF18J6.s 			page 38


 2096 0e90 51       		.byte	0x51
 2097 0e91 05       		.uleb128 0x5
 2098 0e92 03       		.byte	0x3
 2099 0e93 00000000 		.4byte	.LC4
 2100 0e97 00       		.byte	0
 2101 0e98 00       		.byte	0
 2102 0e99 2E       		.uleb128 0x2e
 2103 0e9a 5D050000 		.4byte	.LASF200
 2104 0e9e 01       		.byte	0x1
 2105 0e9f 4C       		.byte	0x4c
 2106 0ea0 7C040000 		.4byte	0x47c
 2107 0ea4 00000000 		.4byte	.LFB44
 2108 0ea8 28000000 		.4byte	.LFE44-.LFB44
 2109 0eac 01       		.uleb128 0x1
 2110 0ead 9C       		.byte	0x9c
 2111 0eae F30E0000 		.4byte	0xef3
 2112 0eb2 2F       		.uleb128 0x2f
 2113 0eb3 0C000000 		.4byte	.LVL11
 2114 0eb7 D90F0000 		.4byte	0xfd9
 2115 0ebb CB0E0000 		.4byte	0xecb
 2116 0ebf 28       		.uleb128 0x28
 2117 0ec0 01       		.uleb128 0x1
 2118 0ec1 51       		.byte	0x51
 2119 0ec2 01       		.uleb128 0x1
 2120 0ec3 30       		.byte	0x30
 2121 0ec4 28       		.uleb128 0x28
 2122 0ec5 01       		.uleb128 0x1
 2123 0ec6 50       		.byte	0x50
 2124 0ec7 02       		.uleb128 0x2
 2125 0ec8 74       		.byte	0x74
 2126 0ec9 00       		.sleb128 0
 2127 0eca 00       		.byte	0
 2128 0ecb 27       		.uleb128 0x27
 2129 0ecc 18000000 		.4byte	.LVL12
 2130 0ed0 F00F0000 		.4byte	0xff0
 2131 0ed4 28       		.uleb128 0x28
 2132 0ed5 01       		.uleb128 0x1
 2133 0ed6 53       		.byte	0x53
 2134 0ed7 01       		.uleb128 0x1
 2135 0ed8 38       		.byte	0x38
 2136 0ed9 28       		.uleb128 0x28
 2137 0eda 01       		.uleb128 0x1
 2138 0edb 52       		.byte	0x52
 2139 0edc 05       		.uleb128 0x5
 2140 0edd 03       		.byte	0x3
 2141 0ede 00000000 		.4byte	.LANCHOR0
 2142 0ee2 28       		.uleb128 0x28
 2143 0ee3 01       		.uleb128 0x1
 2144 0ee4 51       		.byte	0x51
 2145 0ee5 05       		.uleb128 0x5
 2146 0ee6 03       		.byte	0x3
 2147 0ee7 00000000 		.4byte	.LANCHOR1
 2148 0eeb 28       		.uleb128 0x28
 2149 0eec 01       		.uleb128 0x1
 2150 0eed 50       		.byte	0x50
 2151 0eee 02       		.uleb128 0x2
 2152 0eef 74       		.byte	0x74
ARM GAS  /var/folders/qh/xwg3v3kj02qbxczjpdb8lzfr0000gn/T//ccyF18J6.s 			page 39


 2153 0ef0 00       		.sleb128 0
 2154 0ef1 00       		.byte	0
 2155 0ef2 00       		.byte	0
 2156 0ef3 15       		.uleb128 0x15
 2157 0ef4 D20C0000 		.4byte	0xcd2
 2158 0ef8 030F0000 		.4byte	0xf03
 2159 0efc 16       		.uleb128 0x16
 2160 0efd 1F030000 		.4byte	0x31f
 2161 0f01 0B       		.byte	0xb
 2162 0f02 00       		.byte	0
 2163 0f03 30       		.uleb128 0x30
 2164 0f04 6B040000 		.4byte	.LASF184
 2165 0f08 17       		.byte	0x17
 2166 0f09 3C       		.byte	0x3c
 2167 0f0a 0E0F0000 		.4byte	0xf0e
 2168 0f0e 0E       		.uleb128 0xe
 2169 0f0f F30E0000 		.4byte	0xef3
 2170 0f13 30       		.uleb128 0x30
 2171 0f14 01010000 		.4byte	.LASF185
 2172 0f18 17       		.byte	0x17
 2173 0f19 4B       		.byte	0x4b
 2174 0f1a 1E0F0000 		.4byte	0xf1e
 2175 0f1e 0E       		.uleb128 0xe
 2176 0f1f 090D0000 		.4byte	0xd09
 2177 0f23 31       		.uleb128 0x31
 2178 0f24 BE050000 		.4byte	.LASF186
 2179 0f28 12       		.byte	0x12
 2180 0f29 3A01     		.2byte	0x13a
 2181 0f2b 6F090000 		.4byte	0x96f
 2182 0f2f 32       		.uleb128 0x32
 2183 0f30 53443100 		.ascii	"SD1\000"
 2184 0f34 19       		.byte	0x19
 2185 0f35 1101     		.2byte	0x111
 2186 0f37 390B0000 		.4byte	0xb39
 2187 0f3b 33       		.uleb128 0x33
 2188 0f3c DC020000 		.4byte	.LASF187
 2189 0f40 01       		.byte	0x1
 2190 0f41 0B       		.byte	0xb
 2191 0f42 25000000 		.4byte	0x25
 2192 0f46 05       		.uleb128 0x5
 2193 0f47 03       		.byte	0x3
 2194 0f48 00000000 		.4byte	value
 2195 0f4c 15       		.uleb128 0x15
 2196 0f4d 33090000 		.4byte	0x933
 2197 0f51 5C0F0000 		.4byte	0xf5c
 2198 0f55 16       		.uleb128 0x16
 2199 0f56 1F030000 		.4byte	0x31f
 2200 0f5a 3F       		.byte	0x3f
 2201 0f5b 00       		.byte	0
 2202 0f5c 33       		.uleb128 0x33
 2203 0f5d DD040000 		.4byte	.LASF129
 2204 0f61 01       		.byte	0x1
 2205 0f62 0C       		.byte	0xc
 2206 0f63 4C0F0000 		.4byte	0xf4c
 2207 0f67 05       		.uleb128 0x5
 2208 0f68 03       		.byte	0x3
 2209 0f69 00000000 		.4byte	samples
ARM GAS  /var/folders/qh/xwg3v3kj02qbxczjpdb8lzfr0000gn/T//ccyF18J6.s 			page 40


 2210 0f6d 34       		.uleb128 0x34
 2211 0f6e 00040000 		.4byte	.LASF188
 2212 0f72 01       		.byte	0x1
 2213 0f73 0E       		.byte	0xe
 2214 0f74 70030000 		.4byte	0x370
 2215 0f78 34       		.uleb128 0x34
 2216 0f79 BE080000 		.4byte	.LASF189
 2217 0f7d 01       		.byte	0x1
 2218 0f7e 0F       		.byte	0xf
 2219 0f7f 4D0D0000 		.4byte	0xd4d
 2220 0f83 33       		.uleb128 0x33
 2221 0f84 22050000 		.4byte	.LASF190
 2222 0f88 01       		.byte	0x1
 2223 0f89 1A       		.byte	0x1a
 2224 0f8a C10A0000 		.4byte	0xac1
 2225 0f8e 05       		.uleb128 0x5
 2226 0f8f 03       		.byte	0x3
 2227 0f90 00000000 		.4byte	adcSettings
 2228 0f94 35       		.uleb128 0x35
 2229 0f95 B2070000 		.4byte	.LASF191
 2230 0f99 18       		.byte	0x18
 2231 0f9a E2       		.byte	0xe2
 2232 0f9b 35       		.uleb128 0x35
 2233 0f9c 9A020000 		.4byte	.LASF192
 2234 0fa0 18       		.byte	0x18
 2235 0fa1 E3       		.byte	0xe3
 2236 0fa2 36       		.uleb128 0x36
 2237 0fa3 14020000 		.4byte	.LASF193
 2238 0fa7 09       		.byte	0x9
 2239 0fa8 30       		.byte	0x30
 2240 0fa9 B80F0000 		.4byte	0xfb8
 2241 0fad 10       		.uleb128 0x10
 2242 0fae B80F0000 		.4byte	0xfb8
 2243 0fb2 10       		.uleb128 0x10
 2244 0fb3 17010000 		.4byte	0x117
 2245 0fb7 00       		.byte	0
 2246 0fb8 09       		.uleb128 0x9
 2247 0fb9 04       		.byte	0x4
 2248 0fba 50030000 		.4byte	0x350
 2249 0fbe 36       		.uleb128 0x36
 2250 0fbf 2A000000 		.4byte	.LASF194
 2251 0fc3 02       		.byte	0x2
 2252 0fc4 28       		.byte	0x28
 2253 0fc5 D90F0000 		.4byte	0xfd9
 2254 0fc9 10       		.uleb128 0x10
 2255 0fca 9F0C0000 		.4byte	0xc9f
 2256 0fce 10       		.uleb128 0x10
 2257 0fcf 64040000 		.4byte	0x464
 2258 0fd3 10       		.uleb128 0x10
 2259 0fd4 6E0C0000 		.4byte	0xc6e
 2260 0fd8 00       		.byte	0
 2261 0fd9 37       		.uleb128 0x37
 2262 0fda 05080000 		.4byte	.LASF195
 2263 0fde 11       		.byte	0x11
 2264 0fdf 1701     		.2byte	0x117
 2265 0fe1 F00F0000 		.4byte	0xff0
 2266 0fe5 10       		.uleb128 0x10
ARM GAS  /var/folders/qh/xwg3v3kj02qbxczjpdb8lzfr0000gn/T//ccyF18J6.s 			page 41


 2267 0fe6 2C0A0000 		.4byte	0xa2c
 2268 0fea 10       		.uleb128 0x10
 2269 0feb EC0A0000 		.4byte	0xaec
 2270 0fef 00       		.byte	0
 2271 0ff0 38       		.uleb128 0x38
 2272 0ff1 9F050000 		.4byte	.LASF201
 2273 0ff5 11       		.byte	0x11
 2274 0ff6 1901     		.2byte	0x119
 2275 0ff8 10       		.uleb128 0x10
 2276 0ff9 2C0A0000 		.4byte	0xa2c
 2277 0ffd 10       		.uleb128 0x10
 2278 0ffe F70A0000 		.4byte	0xaf7
 2279 1002 10       		.uleb128 0x10
 2280 1003 320A0000 		.4byte	0xa32
 2281 1007 10       		.uleb128 0x10
 2282 1008 2C000000 		.4byte	0x2c
 2283 100c 00       		.byte	0
 2284 100d 00       		.byte	0
 2285              		.section	.debug_abbrev,"",%progbits
 2286              	.Ldebug_abbrev0:
 2287 0000 01       		.uleb128 0x1
 2288 0001 11       		.uleb128 0x11
 2289 0002 01       		.byte	0x1
 2290 0003 25       		.uleb128 0x25
 2291 0004 0E       		.uleb128 0xe
 2292 0005 13       		.uleb128 0x13
 2293 0006 0B       		.uleb128 0xb
 2294 0007 03       		.uleb128 0x3
 2295 0008 0E       		.uleb128 0xe
 2296 0009 1B       		.uleb128 0x1b
 2297 000a 0E       		.uleb128 0xe
 2298 000b 55       		.uleb128 0x55
 2299 000c 17       		.uleb128 0x17
 2300 000d 11       		.uleb128 0x11
 2301 000e 01       		.uleb128 0x1
 2302 000f 10       		.uleb128 0x10
 2303 0010 17       		.uleb128 0x17
 2304 0011 00       		.byte	0
 2305 0012 00       		.byte	0
 2306 0013 02       		.uleb128 0x2
 2307 0014 24       		.uleb128 0x24
 2308 0015 00       		.byte	0
 2309 0016 0B       		.uleb128 0xb
 2310 0017 0B       		.uleb128 0xb
 2311 0018 3E       		.uleb128 0x3e
 2312 0019 0B       		.uleb128 0xb
 2313 001a 03       		.uleb128 0x3
 2314 001b 08       		.uleb128 0x8
 2315 001c 00       		.byte	0
 2316 001d 00       		.byte	0
 2317 001e 03       		.uleb128 0x3
 2318 001f 16       		.uleb128 0x16
 2319 0020 00       		.byte	0
 2320 0021 03       		.uleb128 0x3
 2321 0022 0E       		.uleb128 0xe
 2322 0023 3A       		.uleb128 0x3a
 2323 0024 0B       		.uleb128 0xb
ARM GAS  /var/folders/qh/xwg3v3kj02qbxczjpdb8lzfr0000gn/T//ccyF18J6.s 			page 42


 2324 0025 3B       		.uleb128 0x3b
 2325 0026 0B       		.uleb128 0xb
 2326 0027 49       		.uleb128 0x49
 2327 0028 13       		.uleb128 0x13
 2328 0029 00       		.byte	0
 2329 002a 00       		.byte	0
 2330 002b 04       		.uleb128 0x4
 2331 002c 24       		.uleb128 0x24
 2332 002d 00       		.byte	0
 2333 002e 0B       		.uleb128 0xb
 2334 002f 0B       		.uleb128 0xb
 2335 0030 3E       		.uleb128 0x3e
 2336 0031 0B       		.uleb128 0xb
 2337 0032 03       		.uleb128 0x3
 2338 0033 0E       		.uleb128 0xe
 2339 0034 00       		.byte	0
 2340 0035 00       		.byte	0
 2341 0036 05       		.uleb128 0x5
 2342 0037 13       		.uleb128 0x13
 2343 0038 01       		.byte	0x1
 2344 0039 03       		.uleb128 0x3
 2345 003a 0E       		.uleb128 0xe
 2346 003b 0B       		.uleb128 0xb
 2347 003c 0B       		.uleb128 0xb
 2348 003d 3A       		.uleb128 0x3a
 2349 003e 0B       		.uleb128 0xb
 2350 003f 3B       		.uleb128 0x3b
 2351 0040 0B       		.uleb128 0xb
 2352 0041 01       		.uleb128 0x1
 2353 0042 13       		.uleb128 0x13
 2354 0043 00       		.byte	0
 2355 0044 00       		.byte	0
 2356 0045 06       		.uleb128 0x6
 2357 0046 0D       		.uleb128 0xd
 2358 0047 00       		.byte	0
 2359 0048 03       		.uleb128 0x3
 2360 0049 0E       		.uleb128 0xe
 2361 004a 3A       		.uleb128 0x3a
 2362 004b 0B       		.uleb128 0xb
 2363 004c 3B       		.uleb128 0x3b
 2364 004d 0B       		.uleb128 0xb
 2365 004e 49       		.uleb128 0x49
 2366 004f 13       		.uleb128 0x13
 2367 0050 38       		.uleb128 0x38
 2368 0051 0B       		.uleb128 0xb
 2369 0052 00       		.byte	0
 2370 0053 00       		.byte	0
 2371 0054 07       		.uleb128 0x7
 2372 0055 0D       		.uleb128 0xd
 2373 0056 00       		.byte	0
 2374 0057 03       		.uleb128 0x3
 2375 0058 08       		.uleb128 0x8
 2376 0059 3A       		.uleb128 0x3a
 2377 005a 0B       		.uleb128 0xb
 2378 005b 3B       		.uleb128 0x3b
 2379 005c 0B       		.uleb128 0xb
 2380 005d 49       		.uleb128 0x49
ARM GAS  /var/folders/qh/xwg3v3kj02qbxczjpdb8lzfr0000gn/T//ccyF18J6.s 			page 43


 2381 005e 13       		.uleb128 0x13
 2382 005f 38       		.uleb128 0x38
 2383 0060 0B       		.uleb128 0xb
 2384 0061 00       		.byte	0
 2385 0062 00       		.byte	0
 2386 0063 08       		.uleb128 0x8
 2387 0064 13       		.uleb128 0x13
 2388 0065 01       		.byte	0x1
 2389 0066 0B       		.uleb128 0xb
 2390 0067 0B       		.uleb128 0xb
 2391 0068 3A       		.uleb128 0x3a
 2392 0069 0B       		.uleb128 0xb
 2393 006a 3B       		.uleb128 0x3b
 2394 006b 0B       		.uleb128 0xb
 2395 006c 01       		.uleb128 0x1
 2396 006d 13       		.uleb128 0x13
 2397 006e 00       		.byte	0
 2398 006f 00       		.byte	0
 2399 0070 09       		.uleb128 0x9
 2400 0071 0F       		.uleb128 0xf
 2401 0072 00       		.byte	0
 2402 0073 0B       		.uleb128 0xb
 2403 0074 0B       		.uleb128 0xb
 2404 0075 49       		.uleb128 0x49
 2405 0076 13       		.uleb128 0x13
 2406 0077 00       		.byte	0
 2407 0078 00       		.byte	0
 2408 0079 0A       		.uleb128 0xa
 2409 007a 0F       		.uleb128 0xf
 2410 007b 00       		.byte	0
 2411 007c 0B       		.uleb128 0xb
 2412 007d 0B       		.uleb128 0xb
 2413 007e 00       		.byte	0
 2414 007f 00       		.byte	0
 2415 0080 0B       		.uleb128 0xb
 2416 0081 35       		.uleb128 0x35
 2417 0082 00       		.byte	0
 2418 0083 49       		.uleb128 0x49
 2419 0084 13       		.uleb128 0x13
 2420 0085 00       		.byte	0
 2421 0086 00       		.byte	0
 2422 0087 0C       		.uleb128 0xc
 2423 0088 17       		.uleb128 0x17
 2424 0089 01       		.byte	0x1
 2425 008a 0B       		.uleb128 0xb
 2426 008b 0B       		.uleb128 0xb
 2427 008c 3A       		.uleb128 0x3a
 2428 008d 0B       		.uleb128 0xb
 2429 008e 3B       		.uleb128 0x3b
 2430 008f 0B       		.uleb128 0xb
 2431 0090 01       		.uleb128 0x1
 2432 0091 13       		.uleb128 0x13
 2433 0092 00       		.byte	0
 2434 0093 00       		.byte	0
 2435 0094 0D       		.uleb128 0xd
 2436 0095 0D       		.uleb128 0xd
 2437 0096 00       		.byte	0
ARM GAS  /var/folders/qh/xwg3v3kj02qbxczjpdb8lzfr0000gn/T//ccyF18J6.s 			page 44


 2438 0097 03       		.uleb128 0x3
 2439 0098 0E       		.uleb128 0xe
 2440 0099 3A       		.uleb128 0x3a
 2441 009a 0B       		.uleb128 0xb
 2442 009b 3B       		.uleb128 0x3b
 2443 009c 0B       		.uleb128 0xb
 2444 009d 49       		.uleb128 0x49
 2445 009e 13       		.uleb128 0x13
 2446 009f 00       		.byte	0
 2447 00a0 00       		.byte	0
 2448 00a1 0E       		.uleb128 0xe
 2449 00a2 26       		.uleb128 0x26
 2450 00a3 00       		.byte	0
 2451 00a4 49       		.uleb128 0x49
 2452 00a5 13       		.uleb128 0x13
 2453 00a6 00       		.byte	0
 2454 00a7 00       		.byte	0
 2455 00a8 0F       		.uleb128 0xf
 2456 00a9 15       		.uleb128 0x15
 2457 00aa 01       		.byte	0x1
 2458 00ab 27       		.uleb128 0x27
 2459 00ac 19       		.uleb128 0x19
 2460 00ad 49       		.uleb128 0x49
 2461 00ae 13       		.uleb128 0x13
 2462 00af 01       		.uleb128 0x1
 2463 00b0 13       		.uleb128 0x13
 2464 00b1 00       		.byte	0
 2465 00b2 00       		.byte	0
 2466 00b3 10       		.uleb128 0x10
 2467 00b4 05       		.uleb128 0x5
 2468 00b5 00       		.byte	0
 2469 00b6 49       		.uleb128 0x49
 2470 00b7 13       		.uleb128 0x13
 2471 00b8 00       		.byte	0
 2472 00b9 00       		.byte	0
 2473 00ba 11       		.uleb128 0x11
 2474 00bb 15       		.uleb128 0x15
 2475 00bc 01       		.byte	0x1
 2476 00bd 27       		.uleb128 0x27
 2477 00be 19       		.uleb128 0x19
 2478 00bf 01       		.uleb128 0x1
 2479 00c0 13       		.uleb128 0x13
 2480 00c1 00       		.byte	0
 2481 00c2 00       		.byte	0
 2482 00c3 12       		.uleb128 0x12
 2483 00c4 13       		.uleb128 0x13
 2484 00c5 01       		.byte	0x1
 2485 00c6 0B       		.uleb128 0xb
 2486 00c7 0B       		.uleb128 0xb
 2487 00c8 3A       		.uleb128 0x3a
 2488 00c9 0B       		.uleb128 0xb
 2489 00ca 3B       		.uleb128 0x3b
 2490 00cb 05       		.uleb128 0x5
 2491 00cc 01       		.uleb128 0x1
 2492 00cd 13       		.uleb128 0x13
 2493 00ce 00       		.byte	0
 2494 00cf 00       		.byte	0
ARM GAS  /var/folders/qh/xwg3v3kj02qbxczjpdb8lzfr0000gn/T//ccyF18J6.s 			page 45


 2495 00d0 13       		.uleb128 0x13
 2496 00d1 0D       		.uleb128 0xd
 2497 00d2 00       		.byte	0
 2498 00d3 03       		.uleb128 0x3
 2499 00d4 08       		.uleb128 0x8
 2500 00d5 3A       		.uleb128 0x3a
 2501 00d6 0B       		.uleb128 0xb
 2502 00d7 3B       		.uleb128 0x3b
 2503 00d8 05       		.uleb128 0x5
 2504 00d9 49       		.uleb128 0x49
 2505 00da 13       		.uleb128 0x13
 2506 00db 38       		.uleb128 0x38
 2507 00dc 0B       		.uleb128 0xb
 2508 00dd 00       		.byte	0
 2509 00de 00       		.byte	0
 2510 00df 14       		.uleb128 0x14
 2511 00e0 0D       		.uleb128 0xd
 2512 00e1 00       		.byte	0
 2513 00e2 03       		.uleb128 0x3
 2514 00e3 0E       		.uleb128 0xe
 2515 00e4 3A       		.uleb128 0x3a
 2516 00e5 0B       		.uleb128 0xb
 2517 00e6 3B       		.uleb128 0x3b
 2518 00e7 05       		.uleb128 0x5
 2519 00e8 49       		.uleb128 0x49
 2520 00e9 13       		.uleb128 0x13
 2521 00ea 38       		.uleb128 0x38
 2522 00eb 0B       		.uleb128 0xb
 2523 00ec 00       		.byte	0
 2524 00ed 00       		.byte	0
 2525 00ee 15       		.uleb128 0x15
 2526 00ef 01       		.uleb128 0x1
 2527 00f0 01       		.byte	0x1
 2528 00f1 49       		.uleb128 0x49
 2529 00f2 13       		.uleb128 0x13
 2530 00f3 01       		.uleb128 0x1
 2531 00f4 13       		.uleb128 0x13
 2532 00f5 00       		.byte	0
 2533 00f6 00       		.byte	0
 2534 00f7 16       		.uleb128 0x16
 2535 00f8 21       		.uleb128 0x21
 2536 00f9 00       		.byte	0
 2537 00fa 49       		.uleb128 0x49
 2538 00fb 13       		.uleb128 0x13
 2539 00fc 2F       		.uleb128 0x2f
 2540 00fd 0B       		.uleb128 0xb
 2541 00fe 00       		.byte	0
 2542 00ff 00       		.byte	0
 2543 0100 17       		.uleb128 0x17
 2544 0101 16       		.uleb128 0x16
 2545 0102 00       		.byte	0
 2546 0103 03       		.uleb128 0x3
 2547 0104 0E       		.uleb128 0xe
 2548 0105 3A       		.uleb128 0x3a
 2549 0106 0B       		.uleb128 0xb
 2550 0107 3B       		.uleb128 0x3b
 2551 0108 05       		.uleb128 0x5
ARM GAS  /var/folders/qh/xwg3v3kj02qbxczjpdb8lzfr0000gn/T//ccyF18J6.s 			page 46


 2552 0109 49       		.uleb128 0x49
 2553 010a 13       		.uleb128 0x13
 2554 010b 00       		.byte	0
 2555 010c 00       		.byte	0
 2556 010d 18       		.uleb128 0x18
 2557 010e 04       		.uleb128 0x4
 2558 010f 01       		.byte	0x1
 2559 0110 0B       		.uleb128 0xb
 2560 0111 0B       		.uleb128 0xb
 2561 0112 3A       		.uleb128 0x3a
 2562 0113 0B       		.uleb128 0xb
 2563 0114 3B       		.uleb128 0x3b
 2564 0115 0B       		.uleb128 0xb
 2565 0116 01       		.uleb128 0x1
 2566 0117 13       		.uleb128 0x13
 2567 0118 00       		.byte	0
 2568 0119 00       		.byte	0
 2569 011a 19       		.uleb128 0x19
 2570 011b 28       		.uleb128 0x28
 2571 011c 00       		.byte	0
 2572 011d 03       		.uleb128 0x3
 2573 011e 0E       		.uleb128 0xe
 2574 011f 1C       		.uleb128 0x1c
 2575 0120 0D       		.uleb128 0xd
 2576 0121 00       		.byte	0
 2577 0122 00       		.byte	0
 2578 0123 1A       		.uleb128 0x1a
 2579 0124 13       		.uleb128 0x13
 2580 0125 01       		.byte	0x1
 2581 0126 03       		.uleb128 0x3
 2582 0127 0E       		.uleb128 0xe
 2583 0128 0B       		.uleb128 0xb
 2584 0129 05       		.uleb128 0x5
 2585 012a 3A       		.uleb128 0x3a
 2586 012b 0B       		.uleb128 0xb
 2587 012c 3B       		.uleb128 0x3b
 2588 012d 0B       		.uleb128 0xb
 2589 012e 01       		.uleb128 0x1
 2590 012f 13       		.uleb128 0x13
 2591 0130 00       		.byte	0
 2592 0131 00       		.byte	0
 2593 0132 1B       		.uleb128 0x1b
 2594 0133 0D       		.uleb128 0xd
 2595 0134 00       		.byte	0
 2596 0135 03       		.uleb128 0x3
 2597 0136 0E       		.uleb128 0xe
 2598 0137 3A       		.uleb128 0x3a
 2599 0138 0B       		.uleb128 0xb
 2600 0139 3B       		.uleb128 0x3b
 2601 013a 0B       		.uleb128 0xb
 2602 013b 49       		.uleb128 0x49
 2603 013c 13       		.uleb128 0x13
 2604 013d 38       		.uleb128 0x38
 2605 013e 05       		.uleb128 0x5
 2606 013f 00       		.byte	0
 2607 0140 00       		.byte	0
 2608 0141 1C       		.uleb128 0x1c
ARM GAS  /var/folders/qh/xwg3v3kj02qbxczjpdb8lzfr0000gn/T//ccyF18J6.s 			page 47


 2609 0142 0D       		.uleb128 0xd
 2610 0143 00       		.byte	0
 2611 0144 03       		.uleb128 0x3
 2612 0145 0E       		.uleb128 0xe
 2613 0146 49       		.uleb128 0x49
 2614 0147 13       		.uleb128 0x13
 2615 0148 38       		.uleb128 0x38
 2616 0149 0B       		.uleb128 0xb
 2617 014a 34       		.uleb128 0x34
 2618 014b 19       		.uleb128 0x19
 2619 014c 00       		.byte	0
 2620 014d 00       		.byte	0
 2621 014e 1D       		.uleb128 0x1d
 2622 014f 2E       		.uleb128 0x2e
 2623 0150 01       		.byte	0x1
 2624 0151 03       		.uleb128 0x3
 2625 0152 0E       		.uleb128 0xe
 2626 0153 3A       		.uleb128 0x3a
 2627 0154 0B       		.uleb128 0xb
 2628 0155 3B       		.uleb128 0x3b
 2629 0156 0B       		.uleb128 0xb
 2630 0157 27       		.uleb128 0x27
 2631 0158 19       		.uleb128 0x19
 2632 0159 20       		.uleb128 0x20
 2633 015a 0B       		.uleb128 0xb
 2634 015b 01       		.uleb128 0x1
 2635 015c 13       		.uleb128 0x13
 2636 015d 00       		.byte	0
 2637 015e 00       		.byte	0
 2638 015f 1E       		.uleb128 0x1e
 2639 0160 05       		.uleb128 0x5
 2640 0161 00       		.byte	0
 2641 0162 03       		.uleb128 0x3
 2642 0163 08       		.uleb128 0x8
 2643 0164 3A       		.uleb128 0x3a
 2644 0165 0B       		.uleb128 0xb
 2645 0166 3B       		.uleb128 0x3b
 2646 0167 0B       		.uleb128 0xb
 2647 0168 49       		.uleb128 0x49
 2648 0169 13       		.uleb128 0x13
 2649 016a 00       		.byte	0
 2650 016b 00       		.byte	0
 2651 016c 1F       		.uleb128 0x1f
 2652 016d 18       		.uleb128 0x18
 2653 016e 00       		.byte	0
 2654 016f 00       		.byte	0
 2655 0170 00       		.byte	0
 2656 0171 20       		.uleb128 0x20
 2657 0172 34       		.uleb128 0x34
 2658 0173 00       		.byte	0
 2659 0174 03       		.uleb128 0x3
 2660 0175 08       		.uleb128 0x8
 2661 0176 3A       		.uleb128 0x3a
 2662 0177 0B       		.uleb128 0xb
 2663 0178 3B       		.uleb128 0x3b
 2664 0179 0B       		.uleb128 0xb
 2665 017a 49       		.uleb128 0x49
ARM GAS  /var/folders/qh/xwg3v3kj02qbxczjpdb8lzfr0000gn/T//ccyF18J6.s 			page 48


 2666 017b 13       		.uleb128 0x13
 2667 017c 00       		.byte	0
 2668 017d 00       		.byte	0
 2669 017e 21       		.uleb128 0x21
 2670 017f 2E       		.uleb128 0x2e
 2671 0180 01       		.byte	0x1
 2672 0181 3F       		.uleb128 0x3f
 2673 0182 19       		.uleb128 0x19
 2674 0183 03       		.uleb128 0x3
 2675 0184 0E       		.uleb128 0xe
 2676 0185 3A       		.uleb128 0x3a
 2677 0186 0B       		.uleb128 0xb
 2678 0187 3B       		.uleb128 0x3b
 2679 0188 0B       		.uleb128 0xb
 2680 0189 27       		.uleb128 0x27
 2681 018a 19       		.uleb128 0x19
 2682 018b 11       		.uleb128 0x11
 2683 018c 01       		.uleb128 0x1
 2684 018d 12       		.uleb128 0x12
 2685 018e 06       		.uleb128 0x6
 2686 018f 40       		.uleb128 0x40
 2687 0190 18       		.uleb128 0x18
 2688 0191 9742     		.uleb128 0x2117
 2689 0193 19       		.uleb128 0x19
 2690 0194 01       		.uleb128 0x1
 2691 0195 13       		.uleb128 0x13
 2692 0196 00       		.byte	0
 2693 0197 00       		.byte	0
 2694 0198 22       		.uleb128 0x22
 2695 0199 05       		.uleb128 0x5
 2696 019a 00       		.byte	0
 2697 019b 03       		.uleb128 0x3
 2698 019c 0E       		.uleb128 0xe
 2699 019d 3A       		.uleb128 0x3a
 2700 019e 0B       		.uleb128 0xb
 2701 019f 3B       		.uleb128 0x3b
 2702 01a0 0B       		.uleb128 0xb
 2703 01a1 49       		.uleb128 0x49
 2704 01a2 13       		.uleb128 0x13
 2705 01a3 02       		.uleb128 0x2
 2706 01a4 18       		.uleb128 0x18
 2707 01a5 00       		.byte	0
 2708 01a6 00       		.byte	0
 2709 01a7 23       		.uleb128 0x23
 2710 01a8 05       		.uleb128 0x5
 2711 01a9 00       		.byte	0
 2712 01aa 03       		.uleb128 0x3
 2713 01ab 08       		.uleb128 0x8
 2714 01ac 3A       		.uleb128 0x3a
 2715 01ad 0B       		.uleb128 0xb
 2716 01ae 3B       		.uleb128 0x3b
 2717 01af 0B       		.uleb128 0xb
 2718 01b0 49       		.uleb128 0x49
 2719 01b1 13       		.uleb128 0x13
 2720 01b2 02       		.uleb128 0x2
 2721 01b3 18       		.uleb128 0x18
 2722 01b4 00       		.byte	0
ARM GAS  /var/folders/qh/xwg3v3kj02qbxczjpdb8lzfr0000gn/T//ccyF18J6.s 			page 49


 2723 01b5 00       		.byte	0
 2724 01b6 24       		.uleb128 0x24
 2725 01b7 05       		.uleb128 0x5
 2726 01b8 00       		.byte	0
 2727 01b9 03       		.uleb128 0x3
 2728 01ba 0E       		.uleb128 0xe
 2729 01bb 3A       		.uleb128 0x3a
 2730 01bc 0B       		.uleb128 0xb
 2731 01bd 3B       		.uleb128 0x3b
 2732 01be 0B       		.uleb128 0xb
 2733 01bf 49       		.uleb128 0x49
 2734 01c0 13       		.uleb128 0x13
 2735 01c1 02       		.uleb128 0x2
 2736 01c2 17       		.uleb128 0x17
 2737 01c3 00       		.byte	0
 2738 01c4 00       		.byte	0
 2739 01c5 25       		.uleb128 0x25
 2740 01c6 05       		.uleb128 0x5
 2741 01c7 00       		.byte	0
 2742 01c8 03       		.uleb128 0x3
 2743 01c9 08       		.uleb128 0x8
 2744 01ca 3A       		.uleb128 0x3a
 2745 01cb 0B       		.uleb128 0xb
 2746 01cc 3B       		.uleb128 0x3b
 2747 01cd 0B       		.uleb128 0xb
 2748 01ce 49       		.uleb128 0x49
 2749 01cf 13       		.uleb128 0x13
 2750 01d0 02       		.uleb128 0x2
 2751 01d1 17       		.uleb128 0x17
 2752 01d2 00       		.byte	0
 2753 01d3 00       		.byte	0
 2754 01d4 26       		.uleb128 0x26
 2755 01d5 898201   		.uleb128 0x4109
 2756 01d8 00       		.byte	0
 2757 01d9 11       		.uleb128 0x11
 2758 01da 01       		.uleb128 0x1
 2759 01db 31       		.uleb128 0x31
 2760 01dc 13       		.uleb128 0x13
 2761 01dd 00       		.byte	0
 2762 01de 00       		.byte	0
 2763 01df 27       		.uleb128 0x27
 2764 01e0 898201   		.uleb128 0x4109
 2765 01e3 01       		.byte	0x1
 2766 01e4 11       		.uleb128 0x11
 2767 01e5 01       		.uleb128 0x1
 2768 01e6 31       		.uleb128 0x31
 2769 01e7 13       		.uleb128 0x13
 2770 01e8 00       		.byte	0
 2771 01e9 00       		.byte	0
 2772 01ea 28       		.uleb128 0x28
 2773 01eb 8A8201   		.uleb128 0x410a
 2774 01ee 00       		.byte	0
 2775 01ef 02       		.uleb128 0x2
 2776 01f0 18       		.uleb128 0x18
 2777 01f1 9142     		.uleb128 0x2111
 2778 01f3 18       		.uleb128 0x18
 2779 01f4 00       		.byte	0
ARM GAS  /var/folders/qh/xwg3v3kj02qbxczjpdb8lzfr0000gn/T//ccyF18J6.s 			page 50


 2780 01f5 00       		.byte	0
 2781 01f6 29       		.uleb128 0x29
 2782 01f7 2E       		.uleb128 0x2e
 2783 01f8 01       		.byte	0x1
 2784 01f9 31       		.uleb128 0x31
 2785 01fa 13       		.uleb128 0x13
 2786 01fb 11       		.uleb128 0x11
 2787 01fc 01       		.uleb128 0x1
 2788 01fd 12       		.uleb128 0x12
 2789 01fe 06       		.uleb128 0x6
 2790 01ff 40       		.uleb128 0x40
 2791 0200 18       		.uleb128 0x18
 2792 0201 9742     		.uleb128 0x2117
 2793 0203 19       		.uleb128 0x19
 2794 0204 01       		.uleb128 0x1
 2795 0205 13       		.uleb128 0x13
 2796 0206 00       		.byte	0
 2797 0207 00       		.byte	0
 2798 0208 2A       		.uleb128 0x2a
 2799 0209 05       		.uleb128 0x5
 2800 020a 00       		.byte	0
 2801 020b 31       		.uleb128 0x31
 2802 020c 13       		.uleb128 0x13
 2803 020d 02       		.uleb128 0x2
 2804 020e 17       		.uleb128 0x17
 2805 020f 00       		.byte	0
 2806 0210 00       		.byte	0
 2807 0211 2B       		.uleb128 0x2b
 2808 0212 05       		.uleb128 0x5
 2809 0213 00       		.byte	0
 2810 0214 31       		.uleb128 0x31
 2811 0215 13       		.uleb128 0x13
 2812 0216 02       		.uleb128 0x2
 2813 0217 18       		.uleb128 0x18
 2814 0218 00       		.byte	0
 2815 0219 00       		.byte	0
 2816 021a 2C       		.uleb128 0x2c
 2817 021b 34       		.uleb128 0x34
 2818 021c 00       		.byte	0
 2819 021d 31       		.uleb128 0x31
 2820 021e 13       		.uleb128 0x13
 2821 021f 02       		.uleb128 0x2
 2822 0220 18       		.uleb128 0x18
 2823 0221 00       		.byte	0
 2824 0222 00       		.byte	0
 2825 0223 2D       		.uleb128 0x2d
 2826 0224 05       		.uleb128 0x5
 2827 0225 00       		.byte	0
 2828 0226 31       		.uleb128 0x31
 2829 0227 13       		.uleb128 0x13
 2830 0228 00       		.byte	0
 2831 0229 00       		.byte	0
 2832 022a 2E       		.uleb128 0x2e
 2833 022b 2E       		.uleb128 0x2e
 2834 022c 01       		.byte	0x1
 2835 022d 3F       		.uleb128 0x3f
 2836 022e 19       		.uleb128 0x19
ARM GAS  /var/folders/qh/xwg3v3kj02qbxczjpdb8lzfr0000gn/T//ccyF18J6.s 			page 51


 2837 022f 03       		.uleb128 0x3
 2838 0230 0E       		.uleb128 0xe
 2839 0231 3A       		.uleb128 0x3a
 2840 0232 0B       		.uleb128 0xb
 2841 0233 3B       		.uleb128 0x3b
 2842 0234 0B       		.uleb128 0xb
 2843 0235 27       		.uleb128 0x27
 2844 0236 19       		.uleb128 0x19
 2845 0237 49       		.uleb128 0x49
 2846 0238 13       		.uleb128 0x13
 2847 0239 11       		.uleb128 0x11
 2848 023a 01       		.uleb128 0x1
 2849 023b 12       		.uleb128 0x12
 2850 023c 06       		.uleb128 0x6
 2851 023d 40       		.uleb128 0x40
 2852 023e 18       		.uleb128 0x18
 2853 023f 9742     		.uleb128 0x2117
 2854 0241 19       		.uleb128 0x19
 2855 0242 01       		.uleb128 0x1
 2856 0243 13       		.uleb128 0x13
 2857 0244 00       		.byte	0
 2858 0245 00       		.byte	0
 2859 0246 2F       		.uleb128 0x2f
 2860 0247 898201   		.uleb128 0x4109
 2861 024a 01       		.byte	0x1
 2862 024b 11       		.uleb128 0x11
 2863 024c 01       		.uleb128 0x1
 2864 024d 31       		.uleb128 0x31
 2865 024e 13       		.uleb128 0x13
 2866 024f 01       		.uleb128 0x1
 2867 0250 13       		.uleb128 0x13
 2868 0251 00       		.byte	0
 2869 0252 00       		.byte	0
 2870 0253 30       		.uleb128 0x30
 2871 0254 34       		.uleb128 0x34
 2872 0255 00       		.byte	0
 2873 0256 03       		.uleb128 0x3
 2874 0257 0E       		.uleb128 0xe
 2875 0258 3A       		.uleb128 0x3a
 2876 0259 0B       		.uleb128 0xb
 2877 025a 3B       		.uleb128 0x3b
 2878 025b 0B       		.uleb128 0xb
 2879 025c 49       		.uleb128 0x49
 2880 025d 13       		.uleb128 0x13
 2881 025e 00       		.byte	0
 2882 025f 00       		.byte	0
 2883 0260 31       		.uleb128 0x31
 2884 0261 34       		.uleb128 0x34
 2885 0262 00       		.byte	0
 2886 0263 03       		.uleb128 0x3
 2887 0264 0E       		.uleb128 0xe
 2888 0265 3A       		.uleb128 0x3a
 2889 0266 0B       		.uleb128 0xb
 2890 0267 3B       		.uleb128 0x3b
 2891 0268 05       		.uleb128 0x5
 2892 0269 49       		.uleb128 0x49
 2893 026a 13       		.uleb128 0x13
ARM GAS  /var/folders/qh/xwg3v3kj02qbxczjpdb8lzfr0000gn/T//ccyF18J6.s 			page 52


 2894 026b 3F       		.uleb128 0x3f
 2895 026c 19       		.uleb128 0x19
 2896 026d 3C       		.uleb128 0x3c
 2897 026e 19       		.uleb128 0x19
 2898 026f 00       		.byte	0
 2899 0270 00       		.byte	0
 2900 0271 32       		.uleb128 0x32
 2901 0272 34       		.uleb128 0x34
 2902 0273 00       		.byte	0
 2903 0274 03       		.uleb128 0x3
 2904 0275 08       		.uleb128 0x8
 2905 0276 3A       		.uleb128 0x3a
 2906 0277 0B       		.uleb128 0xb
 2907 0278 3B       		.uleb128 0x3b
 2908 0279 05       		.uleb128 0x5
 2909 027a 49       		.uleb128 0x49
 2910 027b 13       		.uleb128 0x13
 2911 027c 3F       		.uleb128 0x3f
 2912 027d 19       		.uleb128 0x19
 2913 027e 3C       		.uleb128 0x3c
 2914 027f 19       		.uleb128 0x19
 2915 0280 00       		.byte	0
 2916 0281 00       		.byte	0
 2917 0282 33       		.uleb128 0x33
 2918 0283 34       		.uleb128 0x34
 2919 0284 00       		.byte	0
 2920 0285 03       		.uleb128 0x3
 2921 0286 0E       		.uleb128 0xe
 2922 0287 3A       		.uleb128 0x3a
 2923 0288 0B       		.uleb128 0xb
 2924 0289 3B       		.uleb128 0x3b
 2925 028a 0B       		.uleb128 0xb
 2926 028b 49       		.uleb128 0x49
 2927 028c 13       		.uleb128 0x13
 2928 028d 3F       		.uleb128 0x3f
 2929 028e 19       		.uleb128 0x19
 2930 028f 02       		.uleb128 0x2
 2931 0290 18       		.uleb128 0x18
 2932 0291 00       		.byte	0
 2933 0292 00       		.byte	0
 2934 0293 34       		.uleb128 0x34
 2935 0294 34       		.uleb128 0x34
 2936 0295 00       		.byte	0
 2937 0296 03       		.uleb128 0x3
 2938 0297 0E       		.uleb128 0xe
 2939 0298 3A       		.uleb128 0x3a
 2940 0299 0B       		.uleb128 0xb
 2941 029a 3B       		.uleb128 0x3b
 2942 029b 0B       		.uleb128 0xb
 2943 029c 49       		.uleb128 0x49
 2944 029d 13       		.uleb128 0x13
 2945 029e 3F       		.uleb128 0x3f
 2946 029f 19       		.uleb128 0x19
 2947 02a0 3C       		.uleb128 0x3c
 2948 02a1 19       		.uleb128 0x19
 2949 02a2 00       		.byte	0
 2950 02a3 00       		.byte	0
ARM GAS  /var/folders/qh/xwg3v3kj02qbxczjpdb8lzfr0000gn/T//ccyF18J6.s 			page 53


 2951 02a4 35       		.uleb128 0x35
 2952 02a5 2E       		.uleb128 0x2e
 2953 02a6 00       		.byte	0
 2954 02a7 3F       		.uleb128 0x3f
 2955 02a8 19       		.uleb128 0x19
 2956 02a9 03       		.uleb128 0x3
 2957 02aa 0E       		.uleb128 0xe
 2958 02ab 3A       		.uleb128 0x3a
 2959 02ac 0B       		.uleb128 0xb
 2960 02ad 3B       		.uleb128 0x3b
 2961 02ae 0B       		.uleb128 0xb
 2962 02af 27       		.uleb128 0x27
 2963 02b0 19       		.uleb128 0x19
 2964 02b1 3C       		.uleb128 0x3c
 2965 02b2 19       		.uleb128 0x19
 2966 02b3 00       		.byte	0
 2967 02b4 00       		.byte	0
 2968 02b5 36       		.uleb128 0x36
 2969 02b6 2E       		.uleb128 0x2e
 2970 02b7 01       		.byte	0x1
 2971 02b8 3F       		.uleb128 0x3f
 2972 02b9 19       		.uleb128 0x19
 2973 02ba 03       		.uleb128 0x3
 2974 02bb 0E       		.uleb128 0xe
 2975 02bc 3A       		.uleb128 0x3a
 2976 02bd 0B       		.uleb128 0xb
 2977 02be 3B       		.uleb128 0x3b
 2978 02bf 0B       		.uleb128 0xb
 2979 02c0 27       		.uleb128 0x27
 2980 02c1 19       		.uleb128 0x19
 2981 02c2 3C       		.uleb128 0x3c
 2982 02c3 19       		.uleb128 0x19
 2983 02c4 01       		.uleb128 0x1
 2984 02c5 13       		.uleb128 0x13
 2985 02c6 00       		.byte	0
 2986 02c7 00       		.byte	0
 2987 02c8 37       		.uleb128 0x37
 2988 02c9 2E       		.uleb128 0x2e
 2989 02ca 01       		.byte	0x1
 2990 02cb 3F       		.uleb128 0x3f
 2991 02cc 19       		.uleb128 0x19
 2992 02cd 03       		.uleb128 0x3
 2993 02ce 0E       		.uleb128 0xe
 2994 02cf 3A       		.uleb128 0x3a
 2995 02d0 0B       		.uleb128 0xb
 2996 02d1 3B       		.uleb128 0x3b
 2997 02d2 05       		.uleb128 0x5
 2998 02d3 27       		.uleb128 0x27
 2999 02d4 19       		.uleb128 0x19
 3000 02d5 3C       		.uleb128 0x3c
 3001 02d6 19       		.uleb128 0x19
 3002 02d7 01       		.uleb128 0x1
 3003 02d8 13       		.uleb128 0x13
 3004 02d9 00       		.byte	0
 3005 02da 00       		.byte	0
 3006 02db 38       		.uleb128 0x38
 3007 02dc 2E       		.uleb128 0x2e
ARM GAS  /var/folders/qh/xwg3v3kj02qbxczjpdb8lzfr0000gn/T//ccyF18J6.s 			page 54


 3008 02dd 01       		.byte	0x1
 3009 02de 3F       		.uleb128 0x3f
 3010 02df 19       		.uleb128 0x19
 3011 02e0 03       		.uleb128 0x3
 3012 02e1 0E       		.uleb128 0xe
 3013 02e2 3A       		.uleb128 0x3a
 3014 02e3 0B       		.uleb128 0xb
 3015 02e4 3B       		.uleb128 0x3b
 3016 02e5 05       		.uleb128 0x5
 3017 02e6 27       		.uleb128 0x27
 3018 02e7 19       		.uleb128 0x19
 3019 02e8 3C       		.uleb128 0x3c
 3020 02e9 19       		.uleb128 0x19
 3021 02ea 00       		.byte	0
 3022 02eb 00       		.byte	0
 3023 02ec 00       		.byte	0
 3024              		.section	.debug_loc,"",%progbits
 3025              	.Ldebug_loc0:
 3026              	.LLST0:
 3027 0000 00000000 		.4byte	.LVL1
 3028 0004 09000000 		.4byte	.LVL2-1
 3029 0008 0100     		.2byte	0x1
 3030 000a 50       		.byte	0x50
 3031 000b 09000000 		.4byte	.LVL2-1
 3032 000f 3C000000 		.4byte	.LFE42
 3033 0013 0400     		.2byte	0x4
 3034 0015 F3       		.byte	0xf3
 3035 0016 01       		.uleb128 0x1
 3036 0017 50       		.byte	0x50
 3037 0018 9F       		.byte	0x9f
 3038 0019 00000000 		.4byte	0
 3039 001d 00000000 		.4byte	0
 3040              	.LLST1:
 3041 0021 00000000 		.4byte	.LVL1
 3042 0025 09000000 		.4byte	.LVL2-1
 3043 0029 0100     		.2byte	0x1
 3044 002b 51       		.byte	0x51
 3045 002c 09000000 		.4byte	.LVL2-1
 3046 0030 3C000000 		.4byte	.LFE42
 3047 0034 0400     		.2byte	0x4
 3048 0036 F3       		.byte	0xf3
 3049 0037 01       		.uleb128 0x1
 3050 0038 51       		.byte	0x51
 3051 0039 9F       		.byte	0x9f
 3052 003a 00000000 		.4byte	0
 3053 003e 00000000 		.4byte	0
 3054              	.LLST2:
 3055 0042 00000000 		.4byte	.LVL1
 3056 0046 09000000 		.4byte	.LVL2-1
 3057 004a 0100     		.2byte	0x1
 3058 004c 52       		.byte	0x52
 3059 004d 09000000 		.4byte	.LVL2-1
 3060 0051 18000000 		.4byte	.LVL4
 3061 0055 0100     		.2byte	0x1
 3062 0057 54       		.byte	0x54
 3063 0058 18000000 		.4byte	.LVL4
 3064 005c 1A000000 		.4byte	.LVL5
ARM GAS  /var/folders/qh/xwg3v3kj02qbxczjpdb8lzfr0000gn/T//ccyF18J6.s 			page 55


 3065 0060 0400     		.2byte	0x4
 3066 0062 F3       		.byte	0xf3
 3067 0063 01       		.uleb128 0x1
 3068 0064 52       		.byte	0x52
 3069 0065 9F       		.byte	0x9f
 3070 0066 1A000000 		.4byte	.LVL5
 3071 006a 3C000000 		.4byte	.LFE42
 3072 006e 0100     		.2byte	0x1
 3073 0070 54       		.byte	0x54
 3074 0071 00000000 		.4byte	0
 3075 0075 00000000 		.4byte	0
 3076              	.LLST3:
 3077 0079 00000000 		.4byte	.LVL7
 3078 007d 0A000000 		.4byte	.LVL8
 3079 0081 0100     		.2byte	0x1
 3080 0083 50       		.byte	0x50
 3081 0084 0A000000 		.4byte	.LVL8
 3082 0088 24000000 		.4byte	.LFE45
 3083 008c 0400     		.2byte	0x4
 3084 008e F3       		.byte	0xf3
 3085 008f 01       		.uleb128 0x1
 3086 0090 50       		.byte	0x50
 3087 0091 9F       		.byte	0x9f
 3088 0092 00000000 		.4byte	0
 3089 0096 00000000 		.4byte	0
 3090              		.section	.debug_aranges,"",%progbits
 3091 0000 3C000000 		.4byte	0x3c
 3092 0004 0200     		.2byte	0x2
 3093 0006 00000000 		.4byte	.Ldebug_info0
 3094 000a 04       		.byte	0x4
 3095 000b 00       		.byte	0
 3096 000c 0000     		.2byte	0
 3097 000e 0000     		.2byte	0
 3098 0010 00000000 		.4byte	.LFB43
 3099 0014 02000000 		.4byte	.LFE43-.LFB43
 3100 0018 00000000 		.4byte	.LFB42
 3101 001c 3C000000 		.4byte	.LFE42-.LFB42
 3102 0020 00000000 		.4byte	.LFB45
 3103 0024 24000000 		.4byte	.LFE45-.LFB45
 3104 0028 00000000 		.4byte	.LFB41
 3105 002c 14000000 		.4byte	.LFE41-.LFB41
 3106 0030 00000000 		.4byte	.LFB44
 3107 0034 28000000 		.4byte	.LFE44-.LFB44
 3108 0038 00000000 		.4byte	0
 3109 003c 00000000 		.4byte	0
 3110              		.section	.debug_ranges,"",%progbits
 3111              	.Ldebug_ranges0:
 3112 0000 00000000 		.4byte	.LFB43
 3113 0004 02000000 		.4byte	.LFE43
 3114 0008 00000000 		.4byte	.LFB42
 3115 000c 3C000000 		.4byte	.LFE42
 3116 0010 00000000 		.4byte	.LFB45
 3117 0014 24000000 		.4byte	.LFE45
 3118 0018 00000000 		.4byte	.LFB41
 3119 001c 14000000 		.4byte	.LFE41
 3120 0020 00000000 		.4byte	.LFB44
 3121 0024 28000000 		.4byte	.LFE44
ARM GAS  /var/folders/qh/xwg3v3kj02qbxczjpdb8lzfr0000gn/T//ccyF18J6.s 			page 56


 3122 0028 00000000 		.4byte	0
 3123 002c 00000000 		.4byte	0
 3124              		.section	.debug_line,"",%progbits
 3125              	.Ldebug_line0:
 3126 0000 FE020000 		.section	.debug_str,"MS",%progbits,1
 3126      02008E02 
 3126      00000201 
 3126      FB0E0D00 
 3126      01010101 
 3127              	.LASF47:
 3128 0000 54687265 		.ascii	"ThreadsList\000"
 3128      6164734C 
 3128      69737400 
 3129              	.LASF39:
 3130 000c 705F7761 		.ascii	"p_waiting\000"
 3130      6974696E 
 3130      6700
 3131              	.LASF152:
 3132 0016 53657269 		.ascii	"SerialDriver\000"
 3132      616C4472 
 3132      69766572 
 3132      00
 3133              	.LASF38:
 3134 0023 705F7469 		.ascii	"p_time\000"
 3134      6D6500
 3135              	.LASF194:
 3136 002a 63687670 		.ascii	"chvprintf\000"
 3136      72696E74 
 3136      6600
 3137              	.LASF48:
 3138 0034 72656761 		.ascii	"regarm_t\000"
 3138      726D5F74 
 3138      00
 3139              	.LASF29:
 3140 003d 705F7072 		.ascii	"p_prio\000"
 3140      696F00
 3141              	.LASF135:
 3142 0044 646D616D 		.ascii	"dmamode\000"
 3142      6F646500 
 3143              	.LASF197:
 3144 004c 636D6461 		.ascii	"cmdadc.c\000"
 3144      64632E63 
 3144      00
 3145              	.LASF24:
 3146 0055 73797374 		.ascii	"systime_t\000"
 3146      696D655F 
 3146      7400
 3147              	.LASF182:
 3148 005f 62756666 		.ascii	"buffer\000"
 3148      657200
 3149              	.LASF59:
 3150 0066 6D5F6F77 		.ascii	"m_owner\000"
 3150      6E657200 
 3151              	.LASF53:
 3152 006e 735F7175 		.ascii	"s_queue\000"
 3152      65756500 
 3153              	.LASF40:
ARM GAS  /var/folders/qh/xwg3v3kj02qbxczjpdb8lzfr0000gn/T//ccyF18J6.s 			page 57


 3154 0076 705F6D73 		.ascii	"p_msgqueue\000"
 3154      67717565 
 3154      756500
 3155              	.LASF125:
 3156 0081 61646365 		.ascii	"adcerror_t\000"
 3156      72726F72 
 3156      5F7400
 3157              	.LASF0:
 3158 008c 756E7369 		.ascii	"unsigned int\000"
 3158      676E6564 
 3158      20696E74 
 3158      00
 3159              	.LASF80:
 3160 0099 715F7264 		.ascii	"q_rdptr\000"
 3160      70747200 
 3161              	.LASF83:
 3162 00a1 716E6F74 		.ascii	"qnotify_t\000"
 3162      6966795F 
 3162      7400
 3163              	.LASF64:
 3164 00ab 656C5F6D 		.ascii	"el_mask\000"
 3164      61736B00 
 3165              	.LASF86:
 3166 00b3 42617365 		.ascii	"BaseSequentialStreamVMT\000"
 3166      53657175 
 3166      656E7469 
 3166      616C5374 
 3166      7265616D 
 3167              	.LASF146:
 3168 00cb 64756D6D 		.ascii	"dummy\000"
 3168      7900
 3169              	.LASF101:
 3170 00d1 434D4152 		.ascii	"CMAR\000"
 3170      00
 3171              	.LASF141:
 3172 00d6 6572726F 		.ascii	"error_cb\000"
 3172      725F6362 
 3172      00
 3173              	.LASF70:
 3174 00df 77746F62 		.ascii	"wtobjp\000"
 3174      6A7000
 3175              	.LASF82:
 3176 00e6 715F6C69 		.ascii	"q_link\000"
 3176      6E6B00
 3177              	.LASF102:
 3178 00ed 444D415F 		.ascii	"DMA_Channel_TypeDef\000"
 3178      4368616E 
 3178      6E656C5F 
 3178      54797065 
 3178      44656600 
 3179              	.LASF185:
 3180 0101 73684366 		.ascii	"shCfg\000"
 3180      6700
 3181              	.LASF196:
 3182 0107 474E5520 		.ascii	"GNU C 4.8.3 20131129 (release) [ARM/embedded-4_8-br"
 3182      4320342E 
 3182      382E3320 
ARM GAS  /var/folders/qh/xwg3v3kj02qbxczjpdb8lzfr0000gn/T//ccyF18J6.s 			page 58


 3182      32303133 
 3182      31313239 
 3183 013a 616E6368 		.ascii	"anch revision 205641] -mcpu=cortex-m0 -mno-thumb-in"
 3183      20726576 
 3183      6973696F 
 3183      6E203230 
 3183      35363431 
 3184 016d 74657277 		.ascii	"terwork -mthumb -ggdb -O2 -fomit-frame-pointer -fal"
 3184      6F726B20 
 3184      2D6D7468 
 3184      756D6220 
 3184      2D676764 
 3185 01a0 69676E2D 		.ascii	"ign-functions=16 -ffunction-sections -fdata-section"
 3185      66756E63 
 3185      74696F6E 
 3185      733D3136 
 3185      202D6666 
 3186 01d3 73202D66 		.ascii	"s -fno-common\000"
 3186      6E6F2D63 
 3186      6F6D6D6F 
 3186      6E00
 3187              	.LASF71:
 3188 01e1 65776D61 		.ascii	"ewmask\000"
 3188      736B00
 3189              	.LASF174:
 3190 01e8 73657269 		.ascii	"serialString\000"
 3190      616C5374 
 3190      72696E67 
 3190      00
 3191              	.LASF161:
 3192 01f5 77726974 		.ascii	"writet\000"
 3192      657400
 3193              	.LASF99:
 3194 01fc 434E4454 		.ascii	"CNDTR\000"
 3194      5200
 3195              	.LASF54:
 3196 0202 735F636E 		.ascii	"s_cnt\000"
 3196      7400
 3197              	.LASF103:
 3198 0208 47545052 		.ascii	"GTPR\000"
 3198      00
 3199              	.LASF154:
 3200 020d 69717565 		.ascii	"iqueue\000"
 3200      756500
 3201              	.LASF193:
 3202 0214 63685365 		.ascii	"chSemResetI\000"
 3202      6D526573 
 3202      65744900 
 3203              	.LASF10:
 3204 0220 75696E74 		.ascii	"uint32_t\000"
 3204      33325F74 
 3204      00
 3205              	.LASF137:
 3206 0229 61646365 		.ascii	"adcerrorcallback_t\000"
 3206      72726F72 
 3206      63616C6C 
 3206      6261636B 
ARM GAS  /var/folders/qh/xwg3v3kj02qbxczjpdb8lzfr0000gn/T//ccyF18J6.s 			page 59


 3206      5F7400
 3207              	.LASF22:
 3208 023c 6576656E 		.ascii	"eventmask_t\000"
 3208      746D6173 
 3208      6B5F7400 
 3209              	.LASF108:
 3210 0248 69666372 		.ascii	"ifcr\000"
 3210      00
 3211              	.LASF133:
 3212 024d 6D757465 		.ascii	"mutex\000"
 3212      7800
 3213              	.LASF151:
 3214 0253 73647374 		.ascii	"sdstate_t\000"
 3214      6174655F 
 3214      7400
 3215              	.LASF153:
 3216 025d 6576656E 		.ascii	"event\000"
 3216      7400
 3217              	.LASF20:
 3218 0263 74707269 		.ascii	"tprio_t\000"
 3218      6F5F7400 
 3219              	.LASF140:
 3220 026b 656E645F 		.ascii	"end_cb\000"
 3220      636200
 3221              	.LASF73:
 3222 0272 7466756E 		.ascii	"tfunc_t\000"
 3222      635F7400 
 3223              	.LASF138:
 3224 027a 63697263 		.ascii	"circular\000"
 3224      756C6172 
 3224      00
 3225              	.LASF13:
 3226 0283 6C6F6E67 		.ascii	"long long unsigned int\000"
 3226      206C6F6E 
 3226      6720756E 
 3226      7369676E 
 3226      65642069 
 3227              	.LASF192:
 3228 029a 6462675F 		.ascii	"dbg_check_unlock_from_isr\000"
 3228      63686563 
 3228      6B5F756E 
 3228      6C6F636B 
 3228      5F66726F 
 3229              	.LASF111:
 3230 02b4 76656374 		.ascii	"vector\000"
 3230      6F7200
 3231              	.LASF25:
 3232 02bb 636E745F 		.ascii	"cnt_t\000"
 3232      7400
 3233              	.LASF173:
 3234 02c1 5368656C 		.ascii	"ShellConfig\000"
 3234      6C436F6E 
 3234      66696700 
 3235              	.LASF96:
 3236 02cd 43485345 		.ascii	"CHSELR\000"
 3236      4C5200
 3237              	.LASF31:
ARM GAS  /var/folders/qh/xwg3v3kj02qbxczjpdb8lzfr0000gn/T//ccyF18J6.s 			page 60


 3238 02d4 705F6E65 		.ascii	"p_newer\000"
 3238      77657200 
 3239              	.LASF187:
 3240 02dc 76616C75 		.ascii	"value\000"
 3240      6500
 3241              	.LASF75:
 3242 02e2 715F7761 		.ascii	"q_waiting\000"
 3242      6974696E 
 3242      6700
 3243              	.LASF100:
 3244 02ec 43504152 		.ascii	"CPAR\000"
 3244      00
 3245              	.LASF175:
 3246 02f1 6164634F 		.ascii	"adcOutputValues\000"
 3246      75747075 
 3246      7456616C 
 3246      75657300 
 3247              	.LASF163:
 3248 0301 5F5F676E 		.ascii	"__gnuc_va_list\000"
 3248      75635F76 
 3248      615F6C69 
 3248      737400
 3249              	.LASF159:
 3250 0310 70757474 		.ascii	"putt\000"
 3250      00
 3251              	.LASF198:
 3252 0315 2F557365 		.ascii	"/Users/John/Development/embedded/ChibiOS-RT/BluC/ST"
 3252      72732F4A 
 3252      6F686E2F 
 3252      44657665 
 3252      6C6F706D 
 3253 0348 4D333246 		.ascii	"M32F051\000"
 3253      30353100 
 3254              	.LASF2:
 3255 0350 73697A65 		.ascii	"size_t\000"
 3255      5F7400
 3256              	.LASF68:
 3257 0357 7264796D 		.ascii	"rdymsg\000"
 3257      736700
 3258              	.LASF92:
 3259 035e 534D5052 		.ascii	"SMPR\000"
 3259      00
 3260              	.LASF14:
 3261 0363 626F6F6C 		.ascii	"bool_t\000"
 3261      5F7400
 3262              	.LASF15:
 3263 036a 5F426F6F 		.ascii	"_Bool\000"
 3263      6C00
 3264              	.LASF149:
 3265 0370 53445F53 		.ascii	"SD_STOP\000"
 3265      544F5000 
 3266              	.LASF124:
 3267 0378 4144435F 		.ascii	"ADC_ERR_AWD\000"
 3267      4552525F 
 3267      41574400 
 3268              	.LASF106:
 3269 0384 55534152 		.ascii	"USART_TypeDef\000"
ARM GAS  /var/folders/qh/xwg3v3kj02qbxczjpdb8lzfr0000gn/T//ccyF18J6.s 			page 61


 3269      545F5479 
 3269      70654465 
 3269      6600
 3270              	.LASF57:
 3271 0392 4D757465 		.ascii	"Mutex\000"
 3271      7800
 3272              	.LASF85:
 3273 0398 4F757470 		.ascii	"OutputQueue\000"
 3273      75745175 
 3273      65756500 
 3274              	.LASF81:
 3275 03a4 715F6E6F 		.ascii	"q_notify\000"
 3275      74696679 
 3275      00
 3276              	.LASF134:
 3277 03ad 646D6173 		.ascii	"dmastp\000"
 3277      747000
 3278              	.LASF199:
 3279 03b4 63687072 		.ascii	"chprintf\000"
 3279      696E7466 
 3279      00
 3280              	.LASF117:
 3281 03bd 4144435F 		.ascii	"ADC_COMPLETE\000"
 3281      434F4D50 
 3281      4C455445 
 3281      00
 3282              	.LASF157:
 3283 03ca 636C6F63 		.ascii	"clock\000"
 3283      6B00
 3284              	.LASF118:
 3285 03d0 4144435F 		.ascii	"ADC_ERROR\000"
 3285      4552524F 
 3285      5200
 3286              	.LASF126:
 3287 03da 41444344 		.ascii	"ADCDriver\000"
 3287      72697665 
 3287      7200
 3288              	.LASF33:
 3289 03e4 705F6E61 		.ascii	"p_name\000"
 3289      6D6500
 3290              	.LASF89:
 3291 03eb 42617365 		.ascii	"BaseSequentialStream\000"
 3291      53657175 
 3291      656E7469 
 3291      616C5374 
 3291      7265616D 
 3292              	.LASF188:
 3293 0400 6F757470 		.ascii	"outputResponseDataReady\000"
 3293      75745265 
 3293      73706F6E 
 3293      73654461 
 3293      74615265 
 3294              	.LASF84:
 3295 0418 496E7075 		.ascii	"InputQueue\000"
 3295      74517565 
 3295      756500
 3296              	.LASF46:
ARM GAS  /var/folders/qh/xwg3v3kj02qbxczjpdb8lzfr0000gn/T//ccyF18J6.s 			page 62


 3297 0423 54687265 		.ascii	"ThreadsQueue\000"
 3297      61647351 
 3297      75657565 
 3297      00
 3298              	.LASF72:
 3299 0430 63686172 		.ascii	"char\000"
 3299      00
 3300              	.LASF79:
 3301 0435 715F7772 		.ascii	"q_wrptr\000"
 3301      70747200 
 3302              	.LASF109:
 3303 043d 69736869 		.ascii	"ishift\000"
 3303      667400
 3304              	.LASF26:
 3305 0444 54687265 		.ascii	"Thread\000"
 3305      616400
 3306              	.LASF17:
 3307 044b 74737461 		.ascii	"tstate_t\000"
 3307      74655F74 
 3307      00
 3308              	.LASF181:
 3309 0454 61646343 		.ascii	"adcCallBack\000"
 3309      616C6C42 
 3309      61636B00 
 3310              	.LASF167:
 3311 0460 7368656C 		.ascii	"shellcmd_t\000"
 3311      6C636D64 
 3311      5F7400
 3312              	.LASF184:
 3313 046b 7368436D 		.ascii	"shCmds\000"
 3313      647300
 3314              	.LASF112:
 3315 0472 73746D33 		.ascii	"stm32_dma_stream_t\000"
 3315      325F646D 
 3315      615F7374 
 3315      7265616D 
 3315      5F7400
 3316              	.LASF32:
 3317 0485 705F6F6C 		.ascii	"p_older\000"
 3317      64657200 
 3318              	.LASF34:
 3319 048d 705F7374 		.ascii	"p_state\000"
 3319      61746500 
 3320              	.LASF3:
 3321 0495 75696E74 		.ascii	"uint8_t\000"
 3321      385F7400 
 3322              	.LASF23:
 3323 049d 666C6167 		.ascii	"flagsmask_t\000"
 3323      736D6173 
 3323      6B5F7400 
 3324              	.LASF104:
 3325 04a9 52544F52 		.ascii	"RTOR\000"
 3325      00
 3326              	.LASF45:
 3327 04ae 705F6D70 		.ascii	"p_mpool\000"
 3327      6F6F6C00 
 3328              	.LASF43:
ARM GAS  /var/folders/qh/xwg3v3kj02qbxczjpdb8lzfr0000gn/T//ccyF18J6.s 			page 63


 3329 04b6 705F6D74 		.ascii	"p_mtxlist\000"
 3329      786C6973 
 3329      7400
 3330              	.LASF176:
 3331 04c0 6E756D62 		.ascii	"numberOfValues\000"
 3331      65724F66 
 3331      56616C75 
 3331      657300
 3332              	.LASF156:
 3333 04cf 75736172 		.ascii	"usart\000"
 3333      7400
 3334              	.LASF166:
 3335 04d5 76615F6C 		.ascii	"va_list\000"
 3335      69737400 
 3336              	.LASF129:
 3337 04dd 73616D70 		.ascii	"samples\000"
 3337      6C657300 
 3338              	.LASF12:
 3339 04e5 6C6F6E67 		.ascii	"long long int\000"
 3339      206C6F6E 
 3339      6720696E 
 3339      7400
 3340              	.LASF87:
 3341 04f3 77726974 		.ascii	"write\000"
 3341      6500
 3342              	.LASF77:
 3343 04f9 715F6275 		.ascii	"q_buffer\000"
 3343      66666572 
 3343      00
 3344              	.LASF143:
 3345 0502 736D7072 		.ascii	"smpr\000"
 3345      00
 3346              	.LASF130:
 3347 0507 64657074 		.ascii	"depth\000"
 3347      6800
 3348              	.LASF21:
 3349 050d 6D73675F 		.ascii	"msg_t\000"
 3349      7400
 3350              	.LASF177:
 3351 0513 63616C6C 		.ascii	"caller\000"
 3351      657200
 3352              	.LASF50:
 3353 051a 636F6E74 		.ascii	"context\000"
 3353      65787400 
 3354              	.LASF190:
 3355 0522 61646353 		.ascii	"adcSettings\000"
 3355      65747469 
 3355      6E677300 
 3356              	.LASF147:
 3357 052e 41444343 		.ascii	"ADCConfig\000"
 3357      6F6E6669 
 3357      6700
 3358              	.LASF136:
 3359 0538 61646363 		.ascii	"adccallback_t\000"
 3359      616C6C62 
 3359      61636B5F 
 3359      7400
ARM GAS  /var/folders/qh/xwg3v3kj02qbxczjpdb8lzfr0000gn/T//ccyF18J6.s 			page 64


 3360              	.LASF35:
 3361 0546 705F666C 		.ascii	"p_flags\000"
 3361      61677300 
 3362              	.LASF165:
 3363 054e 5F5F6170 		.ascii	"__ap\000"
 3363      00
 3364              	.LASF19:
 3365 0553 74736C69 		.ascii	"tslices_t\000"
 3365      6365735F 
 3365      7400
 3366              	.LASF200:
 3367 055d 61646343 		.ascii	"adcConversionThread\000"
 3367      6F6E7665 
 3367      7273696F 
 3367      6E546872 
 3367      65616400 
 3368              	.LASF90:
 3369 0571 43464752 		.ascii	"CFGR1\000"
 3369      3100
 3370              	.LASF91:
 3371 0577 43464752 		.ascii	"CFGR2\000"
 3371      3200
 3372              	.LASF66:
 3373 057d 4576656E 		.ascii	"EventSource\000"
 3373      74536F75 
 3373      72636500 
 3374              	.LASF62:
 3375 0589 656C5F6E 		.ascii	"el_next\000"
 3375      65787400 
 3376              	.LASF41:
 3377 0591 705F6D73 		.ascii	"p_msg\000"
 3377      6700
 3378              	.LASF16:
 3379 0597 746D6F64 		.ascii	"tmode_t\000"
 3379      655F7400 
 3380              	.LASF201:
 3381 059f 61646353 		.ascii	"adcStartConversion\000"
 3381      74617274 
 3381      436F6E76 
 3381      65727369 
 3381      6F6E00
 3382              	.LASF120:
 3383 05b2 61646373 		.ascii	"adcsample_t\000"
 3383      616D706C 
 3383      655F7400 
 3384              	.LASF186:
 3385 05be 41444344 		.ascii	"ADCD1\000"
 3385      3100
 3386              	.LASF74:
 3387 05c4 47656E65 		.ascii	"GenericQueue\000"
 3387      72696351 
 3387      75657565 
 3387      00
 3388              	.LASF155:
 3389 05d1 6F717565 		.ascii	"oqueue\000"
 3389      756500
 3390              	.LASF6:
ARM GAS  /var/folders/qh/xwg3v3kj02qbxczjpdb8lzfr0000gn/T//ccyF18J6.s 			page 65


 3391 05d8 75696E74 		.ascii	"uint16_t\000"
 3391      31365F74 
 3391      00
 3392              	.LASF49:
 3393 05e1 696E7463 		.ascii	"intctx\000"
 3393      747800
 3394              	.LASF123:
 3395 05e8 4144435F 		.ascii	"ADC_ERR_OVERFLOW\000"
 3395      4552525F 
 3395      4F564552 
 3395      464C4F57 
 3395      00
 3396              	.LASF168:
 3397 05f9 73635F6E 		.ascii	"sc_name\000"
 3397      616D6500 
 3398              	.LASF107:
 3399 0601 6368616E 		.ascii	"channel\000"
 3399      6E656C00 
 3400              	.LASF171:
 3401 0609 73635F63 		.ascii	"sc_channel\000"
 3401      68616E6E 
 3401      656C00
 3402              	.LASF116:
 3403 0614 4144435F 		.ascii	"ADC_ACTIVE\000"
 3403      41435449 
 3403      564500
 3404              	.LASF150:
 3405 061f 53445F52 		.ascii	"SD_READY\000"
 3405      45414459 
 3405      00
 3406              	.LASF158:
 3407 0628 53657269 		.ascii	"SerialDriverVMT\000"
 3407      616C4472 
 3407      69766572 
 3407      564D5400 
 3408              	.LASF128:
 3409 0638 636F6E66 		.ascii	"config\000"
 3409      696700
 3410              	.LASF170:
 3411 063f 5368656C 		.ascii	"ShellCommand\000"
 3411      6C436F6D 
 3411      6D616E64 
 3411      00
 3412              	.LASF44:
 3413 064c 705F7265 		.ascii	"p_realprio\000"
 3413      616C7072 
 3413      696F00
 3414              	.LASF93:
 3415 0657 52455345 		.ascii	"RESERVED1\000"
 3415      52564544 
 3415      3100
 3416              	.LASF94:
 3417 0661 52455345 		.ascii	"RESERVED2\000"
 3417      52564544 
 3417      3200
 3418              	.LASF95:
 3419 066b 52455345 		.ascii	"RESERVED3\000"
ARM GAS  /var/folders/qh/xwg3v3kj02qbxczjpdb8lzfr0000gn/T//ccyF18J6.s 			page 66


 3419      52564544 
 3419      3300
 3420              	.LASF97:
 3421 0675 52455345 		.ascii	"RESERVED4\000"
 3421      52564544 
 3421      3400
 3422              	.LASF105:
 3423 067f 52455345 		.ascii	"RESERVED5\000"
 3423      52564544 
 3423      3500
 3424              	.LASF5:
 3425 0689 73686F72 		.ascii	"short int\000"
 3425      7420696E 
 3425      7400
 3426              	.LASF121:
 3427 0693 6164635F 		.ascii	"adc_channels_num_t\000"
 3427      6368616E 
 3427      6E656C73 
 3427      5F6E756D 
 3427      5F7400
 3428              	.LASF142:
 3429 06a6 63666772 		.ascii	"cfgr1\000"
 3429      3100
 3430              	.LASF42:
 3431 06ac 705F6570 		.ascii	"p_epending\000"
 3431      656E6469 
 3431      6E6700
 3432              	.LASF58:
 3433 06b7 6D5F7175 		.ascii	"m_queue\000"
 3433      65756500 
 3434              	.LASF9:
 3435 06bf 6C6F6E67 		.ascii	"long int\000"
 3435      20696E74 
 3435      00
 3436              	.LASF145:
 3437 06c8 41444343 		.ascii	"ADCConversionGroup\000"
 3437      6F6E7665 
 3437      7273696F 
 3437      6E47726F 
 3437      757000
 3438              	.LASF139:
 3439 06db 6E756D5F 		.ascii	"num_channels\000"
 3439      6368616E 
 3439      6E656C73 
 3439      00
 3440              	.LASF180:
 3441 06e8 61646345 		.ascii	"adcErrorCallBack\000"
 3441      72726F72 
 3441      43616C6C 
 3441      4261636B 
 3441      00
 3442              	.LASF27:
 3443 06f9 705F6E65 		.ascii	"p_next\000"
 3443      787400
 3444              	.LASF30:
 3445 0700 705F6374 		.ascii	"p_ctx\000"
 3445      7800
ARM GAS  /var/folders/qh/xwg3v3kj02qbxczjpdb8lzfr0000gn/T//ccyF18J6.s 			page 67


 3446              	.LASF113:
 3447 0706 4144435F 		.ascii	"ADC_UNINIT\000"
 3447      554E494E 
 3447      495400
 3448              	.LASF52:
 3449 0711 53656D61 		.ascii	"Semaphore\000"
 3449      70686F72 
 3449      6500
 3450              	.LASF88:
 3451 071b 72656164 		.ascii	"read\000"
 3451      00
 3452              	.LASF63:
 3453 0720 656C5F6C 		.ascii	"el_listener\000"
 3453      69737465 
 3453      6E657200 
 3454              	.LASF148:
 3455 072c 53445F55 		.ascii	"SD_UNINIT\000"
 3455      4E494E49 
 3455      5400
 3456              	.LASF122:
 3457 0736 4144435F 		.ascii	"ADC_ERR_DMAFAILURE\000"
 3457      4552525F 
 3457      444D4146 
 3457      41494C55 
 3457      524500
 3458              	.LASF172:
 3459 0749 73635F63 		.ascii	"sc_commands\000"
 3459      6F6D6D61 
 3459      6E647300 
 3460              	.LASF76:
 3461 0755 715F636F 		.ascii	"q_counter\000"
 3461      756E7465 
 3461      7200
 3462              	.LASF160:
 3463 075f 67657474 		.ascii	"gett\000"
 3463      00
 3464              	.LASF78:
 3465 0764 715F746F 		.ascii	"q_top\000"
 3465      7000
 3466              	.LASF28:
 3467 076a 705F7072 		.ascii	"p_prev\000"
 3467      657600
 3468              	.LASF183:
 3469 0771 68656C6C 		.ascii	"hello\000"
 3469      6F00
 3470              	.LASF51:
 3471 0777 73697A65 		.ascii	"sizetype\000"
 3471      74797065 
 3471      00
 3472              	.LASF18:
 3473 0780 74726566 		.ascii	"trefs_t\000"
 3473      735F7400 
 3474              	.LASF61:
 3475 0788 4576656E 		.ascii	"EventListener\000"
 3475      744C6973 
 3475      74656E65 
 3475      7200
ARM GAS  /var/folders/qh/xwg3v3kj02qbxczjpdb8lzfr0000gn/T//ccyF18J6.s 			page 68


 3476              	.LASF11:
 3477 0796 6C6F6E67 		.ascii	"long unsigned int\000"
 3477      20756E73 
 3477      69676E65 
 3477      6420696E 
 3477      7400
 3478              	.LASF115:
 3479 07a8 4144435F 		.ascii	"ADC_READY\000"
 3479      52454144 
 3479      5900
 3480              	.LASF191:
 3481 07b2 6462675F 		.ascii	"dbg_check_lock_from_isr\000"
 3481      63686563 
 3481      6B5F6C6F 
 3481      636B5F66 
 3481      726F6D5F 
 3482              	.LASF144:
 3483 07ca 63687365 		.ascii	"chselr\000"
 3483      6C7200
 3484              	.LASF119:
 3485 07d1 61646373 		.ascii	"adcstate_t\000"
 3485      74617465 
 3485      5F7400
 3486              	.LASF179:
 3487 07dc 61646370 		.ascii	"adcp\000"
 3487      00
 3488              	.LASF8:
 3489 07e1 696E7433 		.ascii	"int32_t\000"
 3489      325F7400 
 3490              	.LASF132:
 3491 07e9 74687265 		.ascii	"thread\000"
 3491      616400
 3492              	.LASF4:
 3493 07f0 756E7369 		.ascii	"unsigned char\000"
 3493      676E6564 
 3493      20636861 
 3493      7200
 3494              	.LASF36:
 3495 07fe 705F7265 		.ascii	"p_refs\000"
 3495      667300
 3496              	.LASF195:
 3497 0805 61646353 		.ascii	"adcStart\000"
 3497      74617274 
 3497      00
 3498              	.LASF37:
 3499 080e 705F7072 		.ascii	"p_preempt\000"
 3499      65656D70 
 3499      7400
 3500              	.LASF67:
 3501 0818 65735F6E 		.ascii	"es_next\000"
 3501      65787400 
 3502              	.LASF55:
 3503 0820 62735F73 		.ascii	"bs_sem\000"
 3503      656D00
 3504              	.LASF127:
 3505 0827 73746174 		.ascii	"state\000"
 3505      6500
ARM GAS  /var/folders/qh/xwg3v3kj02qbxczjpdb8lzfr0000gn/T//ccyF18J6.s 			page 69


 3506              	.LASF98:
 3507 082d 4144435F 		.ascii	"ADC_TypeDef\000"
 3507      54797065 
 3507      44656600 
 3508              	.LASF110:
 3509 0839 73656C66 		.ascii	"selfindex\000"
 3509      696E6465 
 3509      7800
 3510              	.LASF178:
 3511 0843 6F757470 		.ascii	"outputResponseStruct\000"
 3511      75745265 
 3511      73706F6E 
 3511      73655374 
 3511      72756374 
 3512              	.LASF164:
 3513 0858 5F5F7661 		.ascii	"__va_list\000"
 3513      5F6C6973 
 3513      7400
 3514              	.LASF60:
 3515 0862 6D5F6E65 		.ascii	"m_next\000"
 3515      787400
 3516              	.LASF1:
 3517 0869 7369676E 		.ascii	"signed char\000"
 3517      65642063 
 3517      68617200 
 3518              	.LASF162:
 3519 0875 72656164 		.ascii	"readt\000"
 3519      7400
 3520              	.LASF7:
 3521 087b 73686F72 		.ascii	"short unsigned int\000"
 3521      7420756E 
 3521      7369676E 
 3521      65642069 
 3521      6E7400
 3522              	.LASF131:
 3523 088e 67727070 		.ascii	"grpp\000"
 3523      00
 3524              	.LASF114:
 3525 0893 4144435F 		.ascii	"ADC_STOP\000"
 3525      53544F50 
 3525      00
 3526              	.LASF65:
 3527 089c 656C5F66 		.ascii	"el_flags\000"
 3527      6C616773 
 3527      00
 3528              	.LASF69:
 3529 08a5 65786974 		.ascii	"exitcode\000"
 3529      636F6465 
 3529      00
 3530              	.LASF56:
 3531 08ae 42696E61 		.ascii	"BinarySemaphore\000"
 3531      72795365 
 3531      6D617068 
 3531      6F726500 
 3532              	.LASF189:
 3533 08be 6F757470 		.ascii	"outputResponseData\000"
 3533      75745265 
ARM GAS  /var/folders/qh/xwg3v3kj02qbxczjpdb8lzfr0000gn/T//ccyF18J6.s 			page 70


 3533      73706F6E 
 3533      73654461 
 3533      746100
 3534              	.LASF169:
 3535 08d1 73635F66 		.ascii	"sc_function\000"
 3535      756E6374 
 3535      696F6E00 
 3536              		.ident	"GCC: (GNU Tools for ARM Embedded Processors) 4.8.3 20131129 (release) [ARM/embedded-4_8-br
ARM GAS  /var/folders/qh/xwg3v3kj02qbxczjpdb8lzfr0000gn/T//ccyF18J6.s 			page 71


DEFINED SYMBOLS
                            *ABS*:0000000000000000 cmdadc.c
/var/folders/qh/xwg3v3kj02qbxczjpdb8lzfr0000gn/T//ccyF18J6.s:18     .text.adcErrorCallBack:0000000000000000 $t
/var/folders/qh/xwg3v3kj02qbxczjpdb8lzfr0000gn/T//ccyF18J6.s:24     .text.adcErrorCallBack:0000000000000000 adcErrorCallBack
/var/folders/qh/xwg3v3kj02qbxczjpdb8lzfr0000gn/T//ccyF18J6.s:37     .text.adcCallBack:0000000000000000 $t
/var/folders/qh/xwg3v3kj02qbxczjpdb8lzfr0000gn/T//ccyF18J6.s:43     .text.adcCallBack:0000000000000000 adcCallBack
/var/folders/qh/xwg3v3kj02qbxczjpdb8lzfr0000gn/T//ccyF18J6.s:99     .text.adcCallBack:0000000000000030 $d
/var/folders/qh/xwg3v3kj02qbxczjpdb8lzfr0000gn/T//ccyF18J6.s:106    .text.chprintf.constprop.0:0000000000000000 $t
/var/folders/qh/xwg3v3kj02qbxczjpdb8lzfr0000gn/T//ccyF18J6.s:111    .text.chprintf.constprop.0:0000000000000000 chprintf.constprop.0
/var/folders/qh/xwg3v3kj02qbxczjpdb8lzfr0000gn/T//ccyF18J6.s:144    .text.chprintf.constprop.0:000000000000001c $d
/var/folders/qh/xwg3v3kj02qbxczjpdb8lzfr0000gn/T//ccyF18J6.s:150    .text.hello:0000000000000000 $t
/var/folders/qh/xwg3v3kj02qbxczjpdb8lzfr0000gn/T//ccyF18J6.s:156    .text.hello:0000000000000000 hello
/var/folders/qh/xwg3v3kj02qbxczjpdb8lzfr0000gn/T//ccyF18J6.s:175    .text.hello:000000000000000c $d
/var/folders/qh/xwg3v3kj02qbxczjpdb8lzfr0000gn/T//ccyF18J6.s:181    .text.adcConversionThread:0000000000000000 $t
/var/folders/qh/xwg3v3kj02qbxczjpdb8lzfr0000gn/T//ccyF18J6.s:187    .text.adcConversionThread:0000000000000000 adcConversionThread
/var/folders/qh/xwg3v3kj02qbxczjpdb8lzfr0000gn/T//ccyF18J6.s:215    .text.adcConversionThread:000000000000001c $d
/var/folders/qh/xwg3v3kj02qbxczjpdb8lzfr0000gn/T//ccyF18J6.s:246    .data.adcSettings:0000000000000000 adcSettings
/var/folders/qh/xwg3v3kj02qbxczjpdb8lzfr0000gn/T//ccyF18J6.s:239    .bss.samples:0000000000000000 samples
/var/folders/qh/xwg3v3kj02qbxczjpdb8lzfr0000gn/T//ccyF18J6.s:228    .bss.value:0000000000000000 value
/var/folders/qh/xwg3v3kj02qbxczjpdb8lzfr0000gn/T//ccyF18J6.s:225    .bss.value:0000000000000000 $d
/var/folders/qh/xwg3v3kj02qbxczjpdb8lzfr0000gn/T//ccyF18J6.s:231    .rodata.str1.4:0000000000000000 $d
/var/folders/qh/xwg3v3kj02qbxczjpdb8lzfr0000gn/T//ccyF18J6.s:235    .bss.samples:0000000000000000 $d
/var/folders/qh/xwg3v3kj02qbxczjpdb8lzfr0000gn/T//ccyF18J6.s:242    .data.adcSettings:0000000000000000 $d
                     .debug_frame:0000000000000010 $d
/var/folders/qh/xwg3v3kj02qbxczjpdb8lzfr0000gn/T//ccyF18J6.s:105    .text.adcCallBack:000000000000003c $t
/var/folders/qh/xwg3v3kj02qbxczjpdb8lzfr0000gn/T//ccyF18J6.s:149    .text.chprintf.constprop.0:0000000000000024 $t
/var/folders/qh/xwg3v3kj02qbxczjpdb8lzfr0000gn/T//ccyF18J6.s:180    .text.hello:0000000000000014 $t
/var/folders/qh/xwg3v3kj02qbxczjpdb8lzfr0000gn/T//ccyF18J6.s:224    .text.adcConversionThread:0000000000000028 $t

UNDEFINED SYMBOLS
dbg_check_lock_from_isr
dbg_check_unlock_from_isr
chSemResetI
outputResponseDataReady
outputResponseData
chvprintf
SD1
adcStart
adcStartConversion
ADCD1
