ARM GAS  /var/folders/qh/xwg3v3kj02qbxczjpdb8lzfr0000gn/T//ccm4bCOm.s 			page 1


   1              		.cpu cortex-m0
   2              		.fpu softvfp
   3              		.eabi_attribute 20, 1
   4              		.eabi_attribute 21, 1
   5              		.eabi_attribute 23, 3
   6              		.eabi_attribute 24, 1
   7              		.eabi_attribute 25, 1
   8              		.eabi_attribute 26, 1
   9              		.eabi_attribute 30, 2
  10              		.eabi_attribute 34, 0
  11              		.eabi_attribute 18, 4
  12              		.code	16
  13              		.file	"cmdadc.c"
  14              		.text
  15              	.Ltext0:
  16              		.cfi_sections	.debug_frame
  17              		.section	.text.adcErrorCallBack,"ax",%progbits
  18              		.align	2
  19              		.p2align 4,,15
  20              		.global	adcErrorCallBack
  21              		.code	16
  22              		.thumb_func
  23              		.type	adcErrorCallBack, %function
  24              	adcErrorCallBack:
  25              	.LFB43:
  26              		.file 1 "cmdadc.c"
  27              		.loc 1 61 0
  28              		.cfi_startproc
  29              	.LVL0:
  30              		.loc 1 64 0
  31              		@ sp needed
  32 0000 7047     		bx	lr
  33              		.cfi_endproc
  34              	.LFE43:
  35              		.size	adcErrorCallBack, .-adcErrorCallBack
  36 0002 C046C046 		.section	.text.adcCallBack,"ax",%progbits
  36      C046C046 
  36      C046C046 
  36      C046
  37              		.align	2
  38              		.p2align 4,,15
  39              		.global	adcCallBack
  40              		.code	16
  41              		.thumb_func
  42              		.type	adcCallBack, %function
  43              	adcCallBack:
  44              	.LFB42:
  45              		.loc 1 39 0
  46              		.cfi_startproc
  47              	.LVL1:
  48 0000 08B5     		push	{r3, lr}
  49              		.cfi_def_cfa_offset 8
  50              		.cfi_offset 3, -8
  51              		.cfi_offset 14, -4
  52              		.loc 1 41 0
  53 0002 0D4B     		ldr	r3, .L9
  54 0004 9942     		cmp	r1, r3
ARM GAS  /var/folders/qh/xwg3v3kj02qbxczjpdb8lzfr0000gn/T//ccm4bCOm.s 			page 2


  55 0006 12D0     		beq	.L7
  56              		.loc 1 47 0
  57 0008 0C4B     		ldr	r3, .L9+4
  58 000a 1968     		ldr	r1, [r3]
  59              	.LVL2:
  60 000c 5218     		add	r2, r2, r1
  61              	.LVL3:
  62 000e 1A60     		str	r2, [r3]
  63              	.L4:
  64              		.loc 1 50 0
  65              	@ 50 "cmdadc.c" 1
  66 0010 72B6     		cpsid   i
  67              	@ 0 "" 2
  68              		.code	16
  69 0012 FFF7FEFF 		bl	dbg_check_lock_from_isr
  70              	.LVL4:
  71              		.loc 1 51 0
  72 0016 0A48     		ldr	r0, .L9+8
  73 0018 8368     		ldr	r3, [r0, #8]
  74 001a 002B     		cmp	r3, #0
  75 001c 03DD     		ble	.L8
  76              	.L5:
  77              		.loc 1 55 0
  78 001e FFF7FEFF 		bl	dbg_check_unlock_from_isr
  79              	.LVL5:
  80              	@ 55 "cmdadc.c" 1
  81 0022 62B6     		cpsie   i
  82              	@ 0 "" 2
  83              		.loc 1 57 0
  84              		.code	16
  85              		@ sp needed
  86 0024 08BD     		pop	{r3, pc}
  87              	.L8:
  88              		.loc 1 53 0
  89 0026 0121     		mov	r1, #1
  90 0028 FFF7FEFF 		bl	chSemResetI
  91              	.LVL6:
  92 002c F7E7     		b	.L5
  93              	.LVL7:
  94              	.L7:
  95              		.loc 1 43 0
  96 002e 054B     		ldr	r3, .L9+12
  97 0030 1968     		ldr	r1, [r3]
  98              	.LVL8:
  99 0032 5218     		add	r2, r2, r1
 100              	.LVL9:
 101 0034 1A60     		str	r2, [r3]
 102 0036 EBE7     		b	.L4
 103              	.L10:
 104              		.align	2
 105              	.L9:
 106 0038 00000000 		.word	.LANCHOR0
 107 003c 00000000 		.word	.LANCHOR2
 108 0040 00000000 		.word	.LANCHOR3
 109 0044 00000000 		.word	.LANCHOR1
 110              		.cfi_endproc
 111              	.LFE42:
ARM GAS  /var/folders/qh/xwg3v3kj02qbxczjpdb8lzfr0000gn/T//ccm4bCOm.s 			page 3


 112              		.size	adcCallBack, .-adcCallBack
 113 0048 C046C046 		.section	.text.chprintf.constprop.0,"ax",%progbits
 113      C046C046 
 114              		.align	2
 115              		.p2align 4,,15
 116              		.code	16
 117              		.thumb_func
 118              		.type	chprintf.constprop.0, %function
 119              	chprintf.constprop.0:
 120              	.LFB45:
 121              		.file 2 "../../os/various/chprintf.h"
 122              		.loc 2 69 0
 123              		.cfi_startproc
 124              	.LVL10:
 125 0000 0EB4     		push	{r1, r2, r3}
 126              		.cfi_def_cfa_offset 12
 127 0002 00B5     		push	{lr}
 128              		.cfi_def_cfa_offset 16
 129              		.cfi_offset 14, -16
 130 0004 82B0     		sub	sp, sp, #8
 131              		.cfi_def_cfa_offset 24
 132              		.loc 2 72 0
 133 0006 04AA     		add	r2, sp, #16
 134              		.loc 2 73 0
 135 0008 0448     		ldr	r0, .L12
 136              	.LVL11:
 137 000a 0549     		ldr	r1, .L12+4
 138              		.loc 2 72 0
 139 000c 0192     		str	r2, [sp, #4]
 140              		.loc 2 73 0
 141 000e FFF7FEFF 		bl	chvprintf
 142              	.LVL12:
 143              		.loc 2 75 0
 144 0012 02B0     		add	sp, sp, #8
 145              		@ sp needed
 146 0014 08BC     		pop	{r3}
 147 0016 03B0     		add	sp, sp, #12
 148 0018 1847     		bx	r3
 149              	.L13:
 150 001a C046     		.align	2
 151              	.L12:
 152 001c 00000000 		.word	SD1
 153 0020 00000000 		.word	.LC5
 154              		.cfi_endproc
 155              	.LFE45:
 156              		.size	chprintf.constprop.0, .-chprintf.constprop.0
 157 0024 C046C046 		.section	.text.hello,"ax",%progbits
 157      C046C046 
 157      C046C046 
 158              		.align	2
 159              		.p2align 4,,15
 160              		.global	hello
 161              		.code	16
 162              		.thumb_func
 163              		.type	hello, %function
 164              	hello:
 165              	.LFB41:
ARM GAS  /var/folders/qh/xwg3v3kj02qbxczjpdb8lzfr0000gn/T//ccm4bCOm.s 			page 4


 166              		.loc 1 34 0
 167              		.cfi_startproc
 168 0000 08B5     		push	{r3, lr}
 169              		.cfi_def_cfa_offset 8
 170              		.cfi_offset 3, -8
 171              		.cfi_offset 14, -4
 172              		.loc 1 35 0
 173 0002 0248     		ldr	r0, .L15
 174 0004 0249     		ldr	r1, .L15+4
 175 0006 FFF7FEFF 		bl	chprintf.constprop.0
 176              	.LVL13:
 177              		.loc 1 36 0
 178              		@ sp needed
 179 000a 08BD     		pop	{r3, pc}
 180              	.L16:
 181              		.align	2
 182              	.L15:
 183 000c 00000000 		.word	SD1
 184 0010 00000000 		.word	.LC5
 185              		.cfi_endproc
 186              	.LFE41:
 187              		.size	hello, .-hello
 188 0014 C046C046 		.section	.text.adcConversionThread,"ax",%progbits
 188      C046C046 
 188      C046C046 
 189              		.align	2
 190              		.p2align 4,,15
 191              		.global	adcConversionThread
 192              		.code	16
 193              		.thumb_func
 194              		.type	adcConversionThread, %function
 195              	adcConversionThread:
 196              	.LFB44:
 197              		.loc 1 69 0
 198              		.cfi_startproc
 199 0000 10B5     		push	{r4, lr}
 200              		.cfi_def_cfa_offset 8
 201              		.cfi_offset 4, -8
 202              		.cfi_offset 14, -4
 203              		.loc 1 70 0
 204 0002 064C     		ldr	r4, .L18
 205 0004 0021     		mov	r1, #0
 206 0006 201C     		mov	r0, r4
 207 0008 FFF7FEFF 		bl	adcStart
 208              	.LVL14:
 209              		.loc 1 71 0
 210 000c 201C     		mov	r0, r4
 211 000e 0449     		ldr	r1, .L18+4
 212 0010 044A     		ldr	r2, .L18+8
 213 0012 0823     		mov	r3, #8
 214 0014 FFF7FEFF 		bl	adcStartConversion
 215              	.LVL15:
 216              		.loc 1 74 0
 217              		@ sp needed
 218 0018 10BD     		pop	{r4, pc}
 219              	.L19:
 220 001a C046     		.align	2
ARM GAS  /var/folders/qh/xwg3v3kj02qbxczjpdb8lzfr0000gn/T//ccm4bCOm.s 			page 5


 221              	.L18:
 222 001c 00000000 		.word	ADCD1
 223 0020 00000000 		.word	.LANCHOR4
 224 0024 00000000 		.word	.LANCHOR0
 225              		.cfi_endproc
 226              	.LFE44:
 227              		.size	adcConversionThread, .-adcConversionThread
 228              		.global	adcSettings
 229              		.global	adcSemDataReady
 230              		.global	ny
 231              		.global	nx
 232              		.global	samples
 233              		.global	value
 234 0028 C046C046 		.section	.bss.value,"aw",%nobits
 234      C046C046 
 235              		.align	2
 236              		.type	value, %object
 237              		.size	value, 4
 238              	value:
 239 0000 00000000 		.space	4
 240              		.section	.data.adcSettings,"aw",%progbits
 241              		.align	2
 242              		.set	.LANCHOR4,. + 0
 243              		.type	adcSettings, %object
 244              		.size	adcSettings, 28
 245              	adcSettings:
 246 0000 01       		.byte	1
 247 0001 00       		.space	1
 248 0002 0100     		.short	1
 249 0004 00000000 		.word	adcCallBack
 250 0008 00000000 		.word	adcErrorCallBack
 251 000c 00000000 		.word	0
 252 0010 00000000 		.word	0
 253 0014 03000000 		.word	3
 254 0018 02000000 		.word	2
 255              		.section	.bss.nx,"aw",%nobits
 256              		.align	2
 257              		.set	.LANCHOR1,. + 0
 258              		.type	nx, %object
 259              		.size	nx, 4
 260              	nx:
 261 0000 00000000 		.space	4
 262              		.section	.bss.ny,"aw",%nobits
 263              		.align	2
 264              		.set	.LANCHOR2,. + 0
 265              		.type	ny, %object
 266              		.size	ny, 4
 267              	ny:
 268 0000 00000000 		.space	4
 269              		.section	.data.adcSemDataReady,"aw",%progbits
 270              		.align	2
 271              		.set	.LANCHOR3,. + 0
 272              		.type	adcSemDataReady, %object
 273              		.size	adcSemDataReady, 12
 274              	adcSemDataReady:
 275 0000 00000000 		.word	adcSemDataReady
 276 0004 00000000 		.word	adcSemDataReady
ARM GAS  /var/folders/qh/xwg3v3kj02qbxczjpdb8lzfr0000gn/T//ccm4bCOm.s 			page 6


 277 0008 01000000 		.word	1
 278              		.section	.bss.samples,"aw",%nobits
 279              		.align	2
 280              		.set	.LANCHOR0,. + 0
 281              		.type	samples, %object
 282              		.size	samples, 16
 283              	samples:
 284 0000 00000000 		.space	16
 284      00000000 
 284      00000000 
 284      00000000 
 285              		.section	.rodata.str1.4,"aMS",%progbits,1
 286              		.align	2
 287              	.LC5:
 288 0000 48656C6C 		.ascii	"HelloWorld\000"
 288      6F576F72 
 288      6C6400
 289 000b 00       		.text
 290              	.Letext0:
 291              		.file 3 "/usr/local/Cellar/gcc-arm-none-eabi-48/20131218/lib/gcc/arm-none-eabi/4.8.3/include/stdde
 292              		.file 4 "/usr/local/Cellar/gcc-arm-none-eabi-48/20131218/arm-none-eabi/include/stdint.h"
 293              		.file 5 "../../os/ports/GCC/ARMCMx/chtypes.h"
 294              		.file 6 "../../os/kernel/include/chlists.h"
 295              		.file 7 "../../os/kernel/include/chthreads.h"
 296              		.file 8 "../../os/ports/GCC/ARMCMx/chcore_v6m.h"
 297              		.file 9 "../../os/kernel/include/chsem.h"
 298              		.file 10 "../../os/kernel/include/chbsem.h"
 299              		.file 11 "../../os/kernel/include/chmtx.h"
 300              		.file 12 "../../os/kernel/include/chevents.h"
 301              		.file 13 "../../os/kernel/include/chqueues.h"
 302              		.file 14 "../../os/kernel/include/chstreams.h"
 303              		.file 15 "../../os/hal/platforms/STM32F0xx/stm32f0xx.h"
 304              		.file 16 "../../os/hal/platforms/STM32F0xx/stm32_dma.h"
 305              		.file 17 "../../os/hal/include/adc.h"
 306              		.file 18 "../../os/hal/platforms/STM32F0xx/adc_lld.h"
 307              		.file 19 "../../os/hal/include/serial.h"
 308              		.file 20 "/usr/local/Cellar/gcc-arm-none-eabi-48/20131218/lib/gcc/arm-none-eabi/4.8.3/include/stda
 309              		.file 21 "<built-in>"
 310              		.file 22 "../../os/hal/platforms/STM32/USARTv2/serial_lld.h"
 311              		.file 23 "../../os/kernel/include/chdebug.h"