ARM GAS  /var/folders/qh/xwg3v3kj02qbxczjpdb8lzfr0000gn/T//ccm4bCOm.s 			page 1


   1              		.cpu cortex-m0
   2              		.fpu softvfp
   3              		.eabi_attribute 20, 1
   4              		.eabi_attribute 21, 1
   5              		.eabi_attribute 23, 3
   6              		.eabi_attribute 24, 1
   7              		.eabi_attribute 25, 1
   8              		.eabi_attribute 26, 1
   9              		.eabi_attribute 30, 2
  10              		.eabi_attribute 34, 0
  11              		.eabi_attribute 18, 4
  12              		.code	16
  13              		.file	"cmdadc.c"
  14              		.text
  15              	.Ltext0:
  16              		.cfi_sections	.debug_frame
  17              		.section	.text.adcErrorCallBack,"ax",%progbits
  18              		.align	2
  19              		.p2align 4,,15
  20              		.global	adcErrorCallBack
  21              		.code	16
  22              		.thumb_func
  23              		.type	adcErrorCallBack, %function
  24              	adcErrorCallBack:
  25              	.LFB43:
  26              		.file 1 "cmdadc.c"
  27              		.loc 1 61 0
  28              		.cfi_startproc
  29              	.LVL0:
  30              		.loc 1 64 0
  31              		@ sp needed
  32 0000 7047     		bx	lr
  33              		.cfi_endproc
  34              	.LFE43:
  35              		.size	adcErrorCallBack, .-adcErrorCallBack
  36 0002 C046C046 		.section	.text.adcCallBack,"ax",%progbits
  36      C046C046 
  36      C046C046 
  36      C046
  37              		.align	2
  38              		.p2align 4,,15
  39              		.global	adcCallBack
  40              		.code	16
  41              		.thumb_func
  42              		.type	adcCallBack, %function
  43              	adcCallBack:
  44              	.LFB42:
  45              		.loc 1 39 0
  46              		.cfi_startproc
  47              	.LVL1:
  48 0000 08B5     		push	{r3, lr}
  49              		.cfi_def_cfa_offset 8
  50              		.cfi_offset 3, -8
  51              		.cfi_offset 14, -4
  52              		.loc 1 41 0
  53 0002 0D4B     		ldr	r3, .L9
  54 0004 9942     		cmp	r1, r3
ARM GAS  /var/folders/qh/xwg3v3kj02qbxczjpdb8lzfr0000gn/T//ccm4bCOm.s 			page 2


  55 0006 12D0     		beq	.L7
  56              		.loc 1 47 0
  57 0008 0C4B     		ldr	r3, .L9+4
  58 000a 1968     		ldr	r1, [r3]
  59              	.LVL2:
  60 000c 5218     		add	r2, r2, r1
  61              	.LVL3:
  62 000e 1A60     		str	r2, [r3]
  63              	.L4:
  64              		.loc 1 50 0
  65              	@ 50 "cmdadc.c" 1
  66 0010 72B6     		cpsid   i
  67              	@ 0 "" 2
  68              		.code	16
  69 0012 FFF7FEFF 		bl	dbg_check_lock_from_isr
  70              	.LVL4:
  71              		.loc 1 51 0
  72 0016 0A48     		ldr	r0, .L9+8
  73 0018 8368     		ldr	r3, [r0, #8]
  74 001a 002B     		cmp	r3, #0
  75 001c 03DD     		ble	.L8
  76              	.L5:
  77              		.loc 1 55 0
  78 001e FFF7FEFF 		bl	dbg_check_unlock_from_isr
  79              	.LVL5:
  80              	@ 55 "cmdadc.c" 1
  81 0022 62B6     		cpsie   i
  82              	@ 0 "" 2
  83              		.loc 1 57 0
  84              		.code	16
  85              		@ sp needed
  86 0024 08BD     		pop	{r3, pc}
  87              	.L8:
  88              		.loc 1 53 0
  89 0026 0121     		mov	r1, #1
  90 0028 FFF7FEFF 		bl	chSemResetI
  91              	.LVL6:
  92 002c F7E7     		b	.L5
  93              	.LVL7:
  94              	.L7:
  95              		.loc 1 43 0
  96 002e 054B     		ldr	r3, .L9+12
  97 0030 1968     		ldr	r1, [r3]
  98              	.LVL8:
  99 0032 5218     		add	r2, r2, r1
 100              	.LVL9:
 101 0034 1A60     		str	r2, [r3]
 102 0036 EBE7     		b	.L4
 103              	.L10:
 104              		.align	2
 105              	.L9:
 106 0038 00000000 		.word	.LANCHOR0
 107 003c 00000000 		.word	.LANCHOR2
 108 0040 00000000 		.word	.LANCHOR3
 109 0044 00000000 		.word	.LANCHOR1
 110              		.cfi_endproc
 111              	.LFE42:
ARM GAS  /var/folders/qh/xwg3v3kj02qbxczjpdb8lzfr0000gn/T//ccm4bCOm.s 			page 3


 112              		.size	adcCallBack, .-adcCallBack
 113 0048 C046C046 		.section	.text.chprintf.constprop.0,"ax",%progbits
 113      C046C046 
 114              		.align	2
 115              		.p2align 4,,15
 116              		.code	16
 117              		.thumb_func
 118              		.type	chprintf.constprop.0, %function
 119              	chprintf.constprop.0:
 120              	.LFB45:
 121              		.file 2 "../../os/various/chprintf.h"
 122              		.loc 2 69 0
 123              		.cfi_startproc
 124              	.LVL10:
 125 0000 0EB4     		push	{r1, r2, r3}
 126              		.cfi_def_cfa_offset 12
 127 0002 00B5     		push	{lr}
 128              		.cfi_def_cfa_offset 16
 129              		.cfi_offset 14, -16
 130 0004 82B0     		sub	sp, sp, #8
 131              		.cfi_def_cfa_offset 24
 132              		.loc 2 72 0
 133 0006 04AA     		add	r2, sp, #16
 134              		.loc 2 73 0
 135 0008 0448     		ldr	r0, .L12
 136              	.LVL11:
 137 000a 0549     		ldr	r1, .L12+4
 138              		.loc 2 72 0
 139 000c 0192     		str	r2, [sp, #4]
 140              		.loc 2 73 0
 141 000e FFF7FEFF 		bl	chvprintf
 142              	.LVL12:
 143              		.loc 2 75 0
 144 0012 02B0     		add	sp, sp, #8
 145              		@ sp needed
 146 0014 08BC     		pop	{r3}
 147 0016 03B0     		add	sp, sp, #12
 148 0018 1847     		bx	r3
 149              	.L13:
 150 001a C046     		.align	2
 151              	.L12:
 152 001c 00000000 		.word	SD1
 153 0020 00000000 		.word	.LC5
 154              		.cfi_endproc
 155              	.LFE45:
 156              		.size	chprintf.constprop.0, .-chprintf.constprop.0
 157 0024 C046C046 		.section	.text.hello,"ax",%progbits
 157      C046C046 
 157      C046C046 
 158              		.align	2
 159              		.p2align 4,,15
 160              		.global	hello
 161              		.code	16
 162              		.thumb_func
 163              		.type	hello, %function
 164              	hello:
 165              	.LFB41:
ARM GAS  /var/folders/qh/xwg3v3kj02qbxczjpdb8lzfr0000gn/T//ccm4bCOm.s 			page 4


 166              		.loc 1 34 0
 167              		.cfi_startproc
 168 0000 08B5     		push	{r3, lr}
 169              		.cfi_def_cfa_offset 8
 170              		.cfi_offset 3, -8
 171              		.cfi_offset 14, -4
 172              		.loc 1 35 0
 173 0002 0248     		ldr	r0, .L15
 174 0004 0249     		ldr	r1, .L15+4
 175 0006 FFF7FEFF 		bl	chprintf.constprop.0
 176              	.LVL13:
 177              		.loc 1 36 0
 178              		@ sp needed
 179 000a 08BD     		pop	{r3, pc}
 180              	.L16:
 181              		.align	2
 182              	.L15:
 183 000c 00000000 		.word	SD1
 184 0010 00000000 		.word	.LC5
 185              		.cfi_endproc
 186              	.LFE41:
 187              		.size	hello, .-hello
 188 0014 C046C046 		.section	.text.adcConversionThread,"ax",%progbits
 188      C046C046 
 188      C046C046 
 189              		.align	2
 190              		.p2align 4,,15
 191              		.global	adcConversionThread
 192              		.code	16
 193              		.thumb_func
 194              		.type	adcConversionThread, %function
 195              	adcConversionThread:
 196              	.LFB44:
 197              		.loc 1 69 0
 198              		.cfi_startproc
 199 0000 10B5     		push	{r4, lr}
 200              		.cfi_def_cfa_offset 8
 201              		.cfi_offset 4, -8
 202              		.cfi_offset 14, -4
 203              		.loc 1 70 0
 204 0002 064C     		ldr	r4, .L18
 205 0004 0021     		mov	r1, #0
 206 0006 201C     		mov	r0, r4
 207 0008 FFF7FEFF 		bl	adcStart
 208              	.LVL14:
 209              		.loc 1 71 0
 210 000c 201C     		mov	r0, r4
 211 000e 0449     		ldr	r1, .L18+4
 212 0010 044A     		ldr	r2, .L18+8
 213 0012 0823     		mov	r3, #8
 214 0014 FFF7FEFF 		bl	adcStartConversion
 215              	.LVL15:
 216              		.loc 1 74 0
 217              		@ sp needed
 218 0018 10BD     		pop	{r4, pc}
 219              	.L19:
 220 001a C046     		.align	2
ARM GAS  /var/folders/qh/xwg3v3kj02qbxczjpdb8lzfr0000gn/T//ccm4bCOm.s 			page 5


 221              	.L18:
 222 001c 00000000 		.word	ADCD1
 223 0020 00000000 		.word	.LANCHOR4
 224 0024 00000000 		.word	.LANCHOR0
 225              		.cfi_endproc
 226              	.LFE44:
 227              		.size	adcConversionThread, .-adcConversionThread
 228              		.global	adcSettings
 229              		.global	adcSemDataReady
 230              		.global	ny
 231              		.global	nx
 232              		.global	samples
 233              		.global	value
 234 0028 C046C046 		.section	.bss.value,"aw",%nobits
 234      C046C046 
 235              		.align	2
 236              		.type	value, %object
 237              		.size	value, 4
 238              	value:
 239 0000 00000000 		.space	4
 240              		.section	.data.adcSettings,"aw",%progbits
 241              		.align	2
 242              		.set	.LANCHOR4,. + 0
 243              		.type	adcSettings, %object
 244              		.size	adcSettings, 28
 245              	adcSettings:
 246 0000 01       		.byte	1
 247 0001 00       		.space	1
 248 0002 0100     		.short	1
 249 0004 00000000 		.word	adcCallBack
 250 0008 00000000 		.word	adcErrorCallBack
 251 000c 00000000 		.word	0
 252 0010 00000000 		.word	0
 253 0014 03000000 		.word	3
 254 0018 02000000 		.word	2
 255              		.section	.bss.nx,"aw",%nobits
 256              		.align	2
 257              		.set	.LANCHOR1,. + 0
 258              		.type	nx, %object
 259              		.size	nx, 4
 260              	nx:
 261 0000 00000000 		.space	4
 262              		.section	.bss.ny,"aw",%nobits
 263              		.align	2
 264              		.set	.LANCHOR2,. + 0
 265              		.type	ny, %object
 266              		.size	ny, 4
 267              	ny:
 268 0000 00000000 		.space	4
 269              		.section	.data.adcSemDataReady,"aw",%progbits
 270              		.align	2
 271              		.set	.LANCHOR3,. + 0
 272              		.type	adcSemDataReady, %object
 273              		.size	adcSemDataReady, 12
 274              	adcSemDataReady:
 275 0000 00000000 		.word	adcSemDataReady
 276 0004 00000000 		.word	adcSemDataReady
ARM GAS  /var/folders/qh/xwg3v3kj02qbxczjpdb8lzfr0000gn/T//ccm4bCOm.s 			page 6


 277 0008 01000000 		.word	1
 278              		.section	.bss.samples,"aw",%nobits
 279              		.align	2
 280              		.set	.LANCHOR0,. + 0
 281              		.type	samples, %object
 282              		.size	samples, 16
 283              	samples:
 284 0000 00000000 		.space	16
 284      00000000 
 284      00000000 
 284      00000000 
 285              		.section	.rodata.str1.4,"aMS",%progbits,1
 286              		.align	2
 287              	.LC5:
 288 0000 48656C6C 		.ascii	"HelloWorld\000"
 288      6F576F72 
 288      6C6400
 289 000b 00       		.text
 290              	.Letext0:
 291              		.file 3 "/usr/local/Cellar/gcc-arm-none-eabi-48/20131218/lib/gcc/arm-none-eabi/4.8.3/include/stdde
 292              		.file 4 "/usr/local/Cellar/gcc-arm-none-eabi-48/20131218/arm-none-eabi/include/stdint.h"
 293              		.file 5 "../../os/ports/GCC/ARMCMx/chtypes.h"
 294              		.file 6 "../../os/kernel/include/chlists.h"
 295              		.file 7 "../../os/kernel/include/chthreads.h"
 296              		.file 8 "../../os/ports/GCC/ARMCMx/chcore_v6m.h"
 297              		.file 9 "../../os/kernel/include/chsem.h"
 298              		.file 10 "../../os/kernel/include/chbsem.h"
 299              		.file 11 "../../os/kernel/include/chmtx.h"
 300              		.file 12 "../../os/kernel/include/chevents.h"
 301              		.file 13 "../../os/kernel/include/chqueues.h"
 302              		.file 14 "../../os/kernel/include/chstreams.h"
 303              		.file 15 "../../os/hal/platforms/STM32F0xx/stm32f0xx.h"
 304              		.file 16 "../../os/hal/platforms/STM32F0xx/stm32_dma.h"
 305              		.file 17 "../../os/hal/include/adc.h"
 306              		.file 18 "../../os/hal/platforms/STM32F0xx/adc_lld.h"
 307              		.file 19 "../../os/hal/include/serial.h"
 308              		.file 20 "/usr/local/Cellar/gcc-arm-none-eabi-48/20131218/lib/gcc/arm-none-eabi/4.8.3/include/stda
 309              		.file 21 "<built-in>"
 310              		.file 22 "../../os/hal/platforms/STM32/USARTv2/serial_lld.h"
 311              		.file 23 "../../os/kernel/include/chdebug.h"
 312              		.section	.debug_info,"",%progbits
 313              	.Ldebug_info0:
 314 0000 0E0F0000 		.4byte	0xf0e
 315 0004 0400     		.2byte	0x4
 316 0006 00000000 		.4byte	.Ldebug_abbrev0
 317 000a 04       		.byte	0x4
 318 000b 01       		.uleb128 0x1
 319 000c 01010000 		.4byte	.LASF180
 320 0010 01       		.byte	0x1
 321 0011 4C000000 		.4byte	.LASF181
 322 0015 DE020000 		.4byte	.LASF182
 323 0019 00000000 		.4byte	.Ldebug_ranges0+0
 324 001d 00000000 		.4byte	0
 325 0021 00000000 		.4byte	.Ldebug_line0
 326 0025 02       		.uleb128 0x2
 327 0026 04       		.byte	0x4
 328 0027 05       		.byte	0x5
ARM GAS  /var/folders/qh/xwg3v3kj02qbxczjpdb8lzfr0000gn/T//ccm4bCOm.s 			page 7


 329 0028 696E7400 		.ascii	"int\000"
 330 002c 03       		.uleb128 0x3
 331 002d 19030000 		.4byte	.LASF2
 332 0031 03       		.byte	0x3
 333 0032 D4       		.byte	0xd4
 334 0033 37000000 		.4byte	0x37
 335 0037 04       		.uleb128 0x4
 336 0038 04       		.byte	0x4
 337 0039 07       		.byte	0x7
 338 003a 8C000000 		.4byte	.LASF0
 339 003e 04       		.uleb128 0x4
 340 003f 01       		.byte	0x1
 341 0040 06       		.byte	0x6
 342 0041 B1070000 		.4byte	.LASF1
 343 0045 03       		.uleb128 0x3
 344 0046 34040000 		.4byte	.LASF3
 345 004a 04       		.byte	0x4
 346 004b 2A       		.byte	0x2a
 347 004c 50000000 		.4byte	0x50
 348 0050 04       		.uleb128 0x4
 349 0051 01       		.byte	0x1
 350 0052 08       		.byte	0x8
 351 0053 4D070000 		.4byte	.LASF4
 352 0057 04       		.uleb128 0x4
 353 0058 02       		.byte	0x2
 354 0059 05       		.byte	0x5
 355 005a F2050000 		.4byte	.LASF5
 356 005e 03       		.uleb128 0x3
 357 005f 61050000 		.4byte	.LASF6
 358 0063 04       		.byte	0x4
 359 0064 36       		.byte	0x36
 360 0065 69000000 		.4byte	0x69
 361 0069 04       		.uleb128 0x4
 362 006a 02       		.byte	0x2
 363 006b 07       		.byte	0x7
 364 006c D3070000 		.4byte	.LASF7
 365 0070 03       		.uleb128 0x3
 366 0071 3E070000 		.4byte	.LASF8
 367 0075 04       		.byte	0x4
 368 0076 4F       		.byte	0x4f
 369 0077 7B000000 		.4byte	0x7b
 370 007b 04       		.uleb128 0x4
 371 007c 04       		.byte	0x4
 372 007d 05       		.byte	0x5
 373 007e 28060000 		.4byte	.LASF9
 374 0082 03       		.uleb128 0x3
 375 0083 0D020000 		.4byte	.LASF10
 376 0087 04       		.byte	0x4
 377 0088 50       		.byte	0x50
 378 0089 8D000000 		.4byte	0x8d
 379 008d 04       		.uleb128 0x4
 380 008e 04       		.byte	0x4
 381 008f 07       		.byte	0x7
 382 0090 F3060000 		.4byte	.LASF11
 383 0094 04       		.uleb128 0x4
 384 0095 08       		.byte	0x8
 385 0096 05       		.byte	0x5
ARM GAS  /var/folders/qh/xwg3v3kj02qbxczjpdb8lzfr0000gn/T//ccm4bCOm.s 			page 8


 386 0097 75040000 		.4byte	.LASF12
 387 009b 04       		.uleb128 0x4
 388 009c 08       		.byte	0x8
 389 009d 07       		.byte	0x7
 390 009e 68020000 		.4byte	.LASF13
 391 00a2 03       		.uleb128 0x3
 392 00a3 2C030000 		.4byte	.LASF14
 393 00a7 05       		.byte	0x5
 394 00a8 24       		.byte	0x24
 395 00a9 AD000000 		.4byte	0xad
 396 00ad 04       		.uleb128 0x4
 397 00ae 01       		.byte	0x1
 398 00af 02       		.byte	0x2
 399 00b0 33030000 		.4byte	.LASF15
 400 00b4 03       		.uleb128 0x3
 401 00b5 20050000 		.4byte	.LASF16
 402 00b9 05       		.byte	0x5
 403 00ba 25       		.byte	0x25
 404 00bb 45000000 		.4byte	0x45
 405 00bf 03       		.uleb128 0x3
 406 00c0 FC030000 		.4byte	.LASF17
 407 00c4 05       		.byte	0x5
 408 00c5 26       		.byte	0x26
 409 00c6 45000000 		.4byte	0x45
 410 00ca 03       		.uleb128 0x3
 411 00cb DD060000 		.4byte	.LASF18
 412 00cf 05       		.byte	0x5
 413 00d0 27       		.byte	0x27
 414 00d1 45000000 		.4byte	0x45
 415 00d5 03       		.uleb128 0x3
 416 00d6 DC040000 		.4byte	.LASF19
 417 00da 05       		.byte	0x5
 418 00db 28       		.byte	0x28
 419 00dc 45000000 		.4byte	0x45
 420 00e0 03       		.uleb128 0x3
 421 00e1 50020000 		.4byte	.LASF20
 422 00e5 05       		.byte	0x5
 423 00e6 29       		.byte	0x29
 424 00e7 82000000 		.4byte	0x82
 425 00eb 03       		.uleb128 0x3
 426 00ec 9D040000 		.4byte	.LASF21
 427 00f0 05       		.byte	0x5
 428 00f1 2A       		.byte	0x2a
 429 00f2 70000000 		.4byte	0x70
 430 00f6 03       		.uleb128 0x3
 431 00f7 29020000 		.4byte	.LASF22
 432 00fb 05       		.byte	0x5
 433 00fc 2C       		.byte	0x2c
 434 00fd 82000000 		.4byte	0x82
 435 0101 03       		.uleb128 0x3
 436 0102 3C040000 		.4byte	.LASF23
 437 0106 05       		.byte	0x5
 438 0107 2D       		.byte	0x2d
 439 0108 82000000 		.4byte	0x82
 440 010c 03       		.uleb128 0x3
 441 010d 55000000 		.4byte	.LASF24
 442 0111 05       		.byte	0x5
ARM GAS  /var/folders/qh/xwg3v3kj02qbxczjpdb8lzfr0000gn/T//ccm4bCOm.s 			page 9


 443 0112 2E       		.byte	0x2e
 444 0113 82000000 		.4byte	0x82
 445 0117 03       		.uleb128 0x3
 446 0118 A0020000 		.4byte	.LASF25
 447 011c 05       		.byte	0x5
 448 011d 2F       		.byte	0x2f
 449 011e 70000000 		.4byte	0x70
 450 0122 03       		.uleb128 0x3
 451 0123 F5030000 		.4byte	.LASF26
 452 0127 06       		.byte	0x6
 453 0128 23       		.byte	0x23
 454 0129 2D010000 		.4byte	0x12d
 455 012d 05       		.uleb128 0x5
 456 012e F5030000 		.4byte	.LASF26
 457 0132 48       		.byte	0x48
 458 0133 07       		.byte	0x7
 459 0134 57       		.byte	0x57
 460 0135 2A020000 		.4byte	0x22a
 461 0139 06       		.uleb128 0x6
 462 013a 62060000 		.4byte	.LASF27
 463 013e 07       		.byte	0x7
 464 013f 58       		.byte	0x58
 465 0140 4B020000 		.4byte	0x24b
 466 0144 00       		.byte	0
 467 0145 06       		.uleb128 0x6
 468 0146 C7060000 		.4byte	.LASF28
 469 014a 07       		.byte	0x7
 470 014b 5A       		.byte	0x5a
 471 014c 4B020000 		.4byte	0x24b
 472 0150 04       		.byte	0x4
 473 0151 06       		.uleb128 0x6
 474 0152 3D000000 		.4byte	.LASF29
 475 0156 07       		.byte	0x7
 476 0157 5C       		.byte	0x5c
 477 0158 E0000000 		.4byte	0xe0
 478 015c 08       		.byte	0x8
 479 015d 06       		.uleb128 0x6
 480 015e 69060000 		.4byte	.LASF30
 481 0162 07       		.byte	0x7
 482 0163 5D       		.byte	0x5d
 483 0164 FB020000 		.4byte	0x2fb
 484 0168 0C       		.byte	0xc
 485 0169 06       		.uleb128 0x6
 486 016a AD020000 		.4byte	.LASF31
 487 016e 07       		.byte	0x7
 488 016f 5F       		.byte	0x5f
 489 0170 4B020000 		.4byte	0x24b
 490 0174 10       		.byte	0x10
 491 0175 06       		.uleb128 0x6
 492 0176 24040000 		.4byte	.LASF32
 493 017a 07       		.byte	0x7
 494 017b 60       		.byte	0x60
 495 017c 4B020000 		.4byte	0x24b
 496 0180 14       		.byte	0x14
 497 0181 06       		.uleb128 0x6
 498 0182 AD030000 		.4byte	.LASF33
 499 0186 07       		.byte	0x7
ARM GAS  /var/folders/qh/xwg3v3kj02qbxczjpdb8lzfr0000gn/T//ccm4bCOm.s 			page 10


 500 0187 67       		.byte	0x67
 501 0188 64040000 		.4byte	0x464
 502 018c 18       		.byte	0x18
 503 018d 06       		.uleb128 0x6
 504 018e 2C040000 		.4byte	.LASF34
 505 0192 07       		.byte	0x7
 506 0193 72       		.byte	0x72
 507 0194 BF000000 		.4byte	0xbf
 508 0198 1C       		.byte	0x1c
 509 0199 06       		.uleb128 0x6
 510 019a CF040000 		.4byte	.LASF35
 511 019e 07       		.byte	0x7
 512 019f 76       		.byte	0x76
 513 01a0 B4000000 		.4byte	0xb4
 514 01a4 1D       		.byte	0x1d
 515 01a5 06       		.uleb128 0x6
 516 01a6 5B070000 		.4byte	.LASF36
 517 01aa 07       		.byte	0x7
 518 01ab 7B       		.byte	0x7b
 519 01ac CA000000 		.4byte	0xca
 520 01b0 1E       		.byte	0x1e
 521 01b1 06       		.uleb128 0x6
 522 01b2 6B070000 		.4byte	.LASF37
 523 01b6 07       		.byte	0x7
 524 01b7 81       		.byte	0x81
 525 01b8 D5000000 		.4byte	0xd5
 526 01bc 1F       		.byte	0x1f
 527 01bd 06       		.uleb128 0x6
 528 01be 23000000 		.4byte	.LASF38
 529 01c2 07       		.byte	0x7
 530 01c3 88       		.byte	0x88
 531 01c4 26030000 		.4byte	0x326
 532 01c8 20       		.byte	0x20
 533 01c9 07       		.uleb128 0x7
 534 01ca 705F7500 		.ascii	"p_u\000"
 535 01ce 07       		.byte	0x7
 536 01cf AD       		.byte	0xad
 537 01d0 2F040000 		.4byte	0x42f
 538 01d4 24       		.byte	0x24
 539 01d5 06       		.uleb128 0x6
 540 01d6 0C000000 		.4byte	.LASF39
 541 01da 07       		.byte	0x7
 542 01db B2       		.byte	0xb2
 543 01dc 71020000 		.4byte	0x271
 544 01e0 28       		.byte	0x28
 545 01e1 06       		.uleb128 0x6
 546 01e2 76000000 		.4byte	.LASF40
 547 01e6 07       		.byte	0x7
 548 01e7 B8       		.byte	0xb8
 549 01e8 51020000 		.4byte	0x251
 550 01ec 2C       		.byte	0x2c
 551 01ed 06       		.uleb128 0x6
 552 01ee 1A050000 		.4byte	.LASF41
 553 01f2 07       		.byte	0x7
 554 01f3 BC       		.byte	0xbc
 555 01f4 EB000000 		.4byte	0xeb
 556 01f8 34       		.byte	0x34
ARM GAS  /var/folders/qh/xwg3v3kj02qbxczjpdb8lzfr0000gn/T//ccm4bCOm.s 			page 11


 557 01f9 06       		.uleb128 0x6
 558 01fa 15060000 		.4byte	.LASF42
 559 01fe 07       		.byte	0x7
 560 01ff C2       		.byte	0xc2
 561 0200 F6000000 		.4byte	0xf6
 562 0204 38       		.byte	0x38
 563 0205 06       		.uleb128 0x6
 564 0206 55040000 		.4byte	.LASF43
 565 020a 07       		.byte	0x7
 566 020b C9       		.byte	0xc9
 567 020c 76040000 		.4byte	0x476
 568 0210 3C       		.byte	0x3c
 569 0211 06       		.uleb128 0x6
 570 0212 B5050000 		.4byte	.LASF44
 571 0216 07       		.byte	0x7
 572 0217 CD       		.byte	0xcd
 573 0218 E0000000 		.4byte	0xe0
 574 021c 40       		.byte	0x40
 575 021d 06       		.uleb128 0x6
 576 021e 4D040000 		.4byte	.LASF45
 577 0222 07       		.byte	0x7
 578 0223 D3       		.byte	0xd3
 579 0224 87020000 		.4byte	0x287
 580 0228 44       		.byte	0x44
 581 0229 00       		.byte	0
 582 022a 08       		.uleb128 0x8
 583 022b 08       		.byte	0x8
 584 022c 06       		.byte	0x6
 585 022d 5A       		.byte	0x5a
 586 022e 4B020000 		.4byte	0x24b
 587 0232 06       		.uleb128 0x6
 588 0233 62060000 		.4byte	.LASF27
 589 0237 06       		.byte	0x6
 590 0238 5B       		.byte	0x5b
 591 0239 4B020000 		.4byte	0x24b
 592 023d 00       		.byte	0
 593 023e 06       		.uleb128 0x6
 594 023f C7060000 		.4byte	.LASF28
 595 0243 06       		.byte	0x6
 596 0244 5D       		.byte	0x5d
 597 0245 4B020000 		.4byte	0x24b
 598 0249 04       		.byte	0x4
 599 024a 00       		.byte	0
 600 024b 09       		.uleb128 0x9
 601 024c 04       		.byte	0x4
 602 024d 22010000 		.4byte	0x122
 603 0251 03       		.uleb128 0x3
 604 0252 D4030000 		.4byte	.LASF46
 605 0256 06       		.byte	0x6
 606 0257 5F       		.byte	0x5f
 607 0258 2A020000 		.4byte	0x22a
 608 025c 08       		.uleb128 0x8
 609 025d 04       		.byte	0x4
 610 025e 06       		.byte	0x6
 611 025f 64       		.byte	0x64
 612 0260 71020000 		.4byte	0x271
 613 0264 06       		.uleb128 0x6
ARM GAS  /var/folders/qh/xwg3v3kj02qbxczjpdb8lzfr0000gn/T//ccm4bCOm.s 			page 12


 614 0265 62060000 		.4byte	.LASF27
 615 0269 06       		.byte	0x6
 616 026a 66       		.byte	0x66
 617 026b 4B020000 		.4byte	0x24b
 618 026f 00       		.byte	0
 619 0270 00       		.byte	0
 620 0271 03       		.uleb128 0x3
 621 0272 00000000 		.4byte	.LASF47
 622 0276 06       		.byte	0x6
 623 0277 69       		.byte	0x69
 624 0278 5C020000 		.4byte	0x25c
 625 027c 03       		.uleb128 0x3
 626 027d 34000000 		.4byte	.LASF48
 627 0281 08       		.byte	0x8
 628 0282 A0       		.byte	0xa0
 629 0283 87020000 		.4byte	0x287
 630 0287 0A       		.uleb128 0xa
 631 0288 04       		.byte	0x4
 632 0289 05       		.uleb128 0x5
 633 028a 6A050000 		.4byte	.LASF49
 634 028e 24       		.byte	0x24
 635 028f 08       		.byte	0x8
 636 0290 B3       		.byte	0xb3
 637 0291 FB020000 		.4byte	0x2fb
 638 0295 07       		.uleb128 0x7
 639 0296 723800   		.ascii	"r8\000"
 640 0299 08       		.byte	0x8
 641 029a B4       		.byte	0xb4
 642 029b 7C020000 		.4byte	0x27c
 643 029f 00       		.byte	0
 644 02a0 07       		.uleb128 0x7
 645 02a1 723900   		.ascii	"r9\000"
 646 02a4 08       		.byte	0x8
 647 02a5 B5       		.byte	0xb5
 648 02a6 7C020000 		.4byte	0x27c
 649 02aa 04       		.byte	0x4
 650 02ab 07       		.uleb128 0x7
 651 02ac 72313000 		.ascii	"r10\000"
 652 02b0 08       		.byte	0x8
 653 02b1 B6       		.byte	0xb6
 654 02b2 7C020000 		.4byte	0x27c
 655 02b6 08       		.byte	0x8
 656 02b7 07       		.uleb128 0x7
 657 02b8 72313100 		.ascii	"r11\000"
 658 02bc 08       		.byte	0x8
 659 02bd B7       		.byte	0xb7
 660 02be 7C020000 		.4byte	0x27c
 661 02c2 0C       		.byte	0xc
 662 02c3 07       		.uleb128 0x7
 663 02c4 723400   		.ascii	"r4\000"
 664 02c7 08       		.byte	0x8
 665 02c8 B8       		.byte	0xb8
 666 02c9 7C020000 		.4byte	0x27c
 667 02cd 10       		.byte	0x10
 668 02ce 07       		.uleb128 0x7
 669 02cf 723500   		.ascii	"r5\000"
 670 02d2 08       		.byte	0x8
ARM GAS  /var/folders/qh/xwg3v3kj02qbxczjpdb8lzfr0000gn/T//ccm4bCOm.s 			page 13


 671 02d3 B9       		.byte	0xb9
 672 02d4 7C020000 		.4byte	0x27c
 673 02d8 14       		.byte	0x14
 674 02d9 07       		.uleb128 0x7
 675 02da 723600   		.ascii	"r6\000"
 676 02dd 08       		.byte	0x8
 677 02de BA       		.byte	0xba
 678 02df 7C020000 		.4byte	0x27c
 679 02e3 18       		.byte	0x18
 680 02e4 07       		.uleb128 0x7
 681 02e5 723700   		.ascii	"r7\000"
 682 02e8 08       		.byte	0x8
 683 02e9 BB       		.byte	0xbb
 684 02ea 7C020000 		.4byte	0x27c
 685 02ee 1C       		.byte	0x1c
 686 02ef 07       		.uleb128 0x7
 687 02f0 6C7200   		.ascii	"lr\000"
 688 02f3 08       		.byte	0x8
 689 02f4 BC       		.byte	0xbc
 690 02f5 7C020000 		.4byte	0x27c
 691 02f9 20       		.byte	0x20
 692 02fa 00       		.byte	0
 693 02fb 05       		.uleb128 0x5
 694 02fc A3040000 		.4byte	.LASF50
 695 0300 04       		.byte	0x4
 696 0301 08       		.byte	0x8
 697 0302 C6       		.byte	0xc6
 698 0303 14030000 		.4byte	0x314
 699 0307 07       		.uleb128 0x7
 700 0308 72313300 		.ascii	"r13\000"
 701 030c 08       		.byte	0x8
 702 030d C7       		.byte	0xc7
 703 030e 14030000 		.4byte	0x314
 704 0312 00       		.byte	0
 705 0313 00       		.byte	0
 706 0314 09       		.uleb128 0x9
 707 0315 04       		.byte	0x4
 708 0316 89020000 		.4byte	0x289
 709 031a 0B       		.uleb128 0xb
 710 031b 82000000 		.4byte	0x82
 711 031f 04       		.uleb128 0x4
 712 0320 04       		.byte	0x4
 713 0321 07       		.byte	0x7
 714 0322 D4060000 		.4byte	.LASF51
 715 0326 0B       		.uleb128 0xb
 716 0327 0C010000 		.4byte	0x10c
 717 032b 05       		.uleb128 0x5
 718 032c 7A060000 		.4byte	.LASF52
 719 0330 0C       		.byte	0xc
 720 0331 09       		.byte	0x9
 721 0332 25       		.byte	0x25
 722 0333 50030000 		.4byte	0x350
 723 0337 06       		.uleb128 0x6
 724 0338 6E000000 		.4byte	.LASF53
 725 033c 09       		.byte	0x9
 726 033d 26       		.byte	0x26
 727 033e 51020000 		.4byte	0x251
ARM GAS  /var/folders/qh/xwg3v3kj02qbxczjpdb8lzfr0000gn/T//ccm4bCOm.s 			page 14


 728 0342 00       		.byte	0
 729 0343 06       		.uleb128 0x6
 730 0344 EF010000 		.4byte	.LASF54
 731 0348 09       		.byte	0x9
 732 0349 28       		.byte	0x28
 733 034a 17010000 		.4byte	0x117
 734 034e 08       		.byte	0x8
 735 034f 00       		.byte	0
 736 0350 03       		.uleb128 0x3
 737 0351 7A060000 		.4byte	.LASF52
 738 0355 09       		.byte	0x9
 739 0356 29       		.byte	0x29
 740 0357 2B030000 		.4byte	0x32b
 741 035b 08       		.uleb128 0x8
 742 035c 0C       		.byte	0xc
 743 035d 0A       		.byte	0xa
 744 035e 3D       		.byte	0x3d
 745 035f 70030000 		.4byte	0x370
 746 0363 06       		.uleb128 0x6
 747 0364 7D070000 		.4byte	.LASF55
 748 0368 0A       		.byte	0xa
 749 0369 3E       		.byte	0x3e
 750 036a 50030000 		.4byte	0x350
 751 036e 00       		.byte	0
 752 036f 00       		.byte	0
 753 0370 03       		.uleb128 0x3
 754 0371 06080000 		.4byte	.LASF56
 755 0375 0A       		.byte	0xa
 756 0376 3F       		.byte	0x3f
 757 0377 5B030000 		.4byte	0x35b
 758 037b 05       		.uleb128 0x5
 759 037c 5B030000 		.4byte	.LASF57
 760 0380 10       		.byte	0x10
 761 0381 0B       		.byte	0xb
 762 0382 25       		.byte	0x25
 763 0383 AC030000 		.4byte	0x3ac
 764 0387 06       		.uleb128 0x6
 765 0388 20060000 		.4byte	.LASF58
 766 038c 0B       		.byte	0xb
 767 038d 26       		.byte	0x26
 768 038e 51020000 		.4byte	0x251
 769 0392 00       		.byte	0
 770 0393 06       		.uleb128 0x6
 771 0394 66000000 		.4byte	.LASF59
 772 0398 0B       		.byte	0xb
 773 0399 28       		.byte	0x28
 774 039a 4B020000 		.4byte	0x24b
 775 039e 08       		.byte	0x8
 776 039f 06       		.uleb128 0x6
 777 03a0 AA070000 		.4byte	.LASF60
 778 03a4 0B       		.byte	0xb
 779 03a5 2A       		.byte	0x2a
 780 03a6 AC030000 		.4byte	0x3ac
 781 03aa 0C       		.byte	0xc
 782 03ab 00       		.byte	0
 783 03ac 09       		.uleb128 0x9
 784 03ad 04       		.byte	0x4
ARM GAS  /var/folders/qh/xwg3v3kj02qbxczjpdb8lzfr0000gn/T//ccm4bCOm.s 			page 15


 785 03ae 7B030000 		.4byte	0x37b
 786 03b2 03       		.uleb128 0x3
 787 03b3 5B030000 		.4byte	.LASF57
 788 03b7 0B       		.byte	0xb
 789 03b8 2C       		.byte	0x2c
 790 03b9 7B030000 		.4byte	0x37b
 791 03bd 03       		.uleb128 0x3
 792 03be E5060000 		.4byte	.LASF61
 793 03c2 0C       		.byte	0xc
 794 03c3 25       		.byte	0x25
 795 03c4 C8030000 		.4byte	0x3c8
 796 03c8 05       		.uleb128 0x5
 797 03c9 E5060000 		.4byte	.LASF61
 798 03cd 10       		.byte	0x10
 799 03ce 0C       		.byte	0xc
 800 03cf 2A       		.byte	0x2a
 801 03d0 05040000 		.4byte	0x405
 802 03d4 06       		.uleb128 0x6
 803 03d5 12050000 		.4byte	.LASF62
 804 03d9 0C       		.byte	0xc
 805 03da 2B       		.byte	0x2b
 806 03db 05040000 		.4byte	0x405
 807 03df 00       		.byte	0
 808 03e0 06       		.uleb128 0x6
 809 03e1 89060000 		.4byte	.LASF63
 810 03e5 0C       		.byte	0xc
 811 03e6 2E       		.byte	0x2e
 812 03e7 4B020000 		.4byte	0x24b
 813 03eb 04       		.byte	0x4
 814 03ec 06       		.uleb128 0x6
 815 03ed AB000000 		.4byte	.LASF64
 816 03f1 0C       		.byte	0xc
 817 03f2 30       		.byte	0x30
 818 03f3 F6000000 		.4byte	0xf6
 819 03f7 08       		.byte	0x8
 820 03f8 06       		.uleb128 0x6
 821 03f9 F4070000 		.4byte	.LASF65
 822 03fd 0C       		.byte	0xc
 823 03fe 33       		.byte	0x33
 824 03ff 01010000 		.4byte	0x101
 825 0403 0C       		.byte	0xc
 826 0404 00       		.byte	0
 827 0405 09       		.uleb128 0x9
 828 0406 04       		.byte	0x4
 829 0407 BD030000 		.4byte	0x3bd
 830 040b 05       		.uleb128 0x5
 831 040c 06050000 		.4byte	.LASF66
 832 0410 04       		.byte	0x4
 833 0411 0C       		.byte	0xc
 834 0412 3A       		.byte	0x3a
 835 0413 24040000 		.4byte	0x424
 836 0417 06       		.uleb128 0x6
 837 0418 75070000 		.4byte	.LASF67
 838 041c 0C       		.byte	0xc
 839 041d 3B       		.byte	0x3b
 840 041e 05040000 		.4byte	0x405
 841 0422 00       		.byte	0
ARM GAS  /var/folders/qh/xwg3v3kj02qbxczjpdb8lzfr0000gn/T//ccm4bCOm.s 			page 16


 842 0423 00       		.byte	0
 843 0424 03       		.uleb128 0x3
 844 0425 06050000 		.4byte	.LASF66
 845 0429 0C       		.byte	0xc
 846 042a 3E       		.byte	0x3e
 847 042b 0B040000 		.4byte	0x40b
 848 042f 0C       		.uleb128 0xc
 849 0430 04       		.byte	0x4
 850 0431 07       		.byte	0x7
 851 0432 8F       		.byte	0x8f
 852 0433 64040000 		.4byte	0x464
 853 0437 0D       		.uleb128 0xd
 854 0438 20030000 		.4byte	.LASF68
 855 043c 07       		.byte	0x7
 856 043d 96       		.byte	0x96
 857 043e EB000000 		.4byte	0xeb
 858 0442 0D       		.uleb128 0xd
 859 0443 FD070000 		.4byte	.LASF69
 860 0447 07       		.byte	0x7
 861 0448 9D       		.byte	0x9d
 862 0449 EB000000 		.4byte	0xeb
 863 044d 0D       		.uleb128 0xd
 864 044e DF000000 		.4byte	.LASF70
 865 0452 07       		.byte	0x7
 866 0453 A4       		.byte	0xa4
 867 0454 87020000 		.4byte	0x287
 868 0458 0D       		.uleb128 0xd
 869 0459 DB010000 		.4byte	.LASF71
 870 045d 07       		.byte	0x7
 871 045e AB       		.byte	0xab
 872 045f F6000000 		.4byte	0xf6
 873 0463 00       		.byte	0
 874 0464 09       		.uleb128 0x9
 875 0465 04       		.byte	0x4
 876 0466 6A040000 		.4byte	0x46a
 877 046a 0E       		.uleb128 0xe
 878 046b 6F040000 		.4byte	0x46f
 879 046f 04       		.uleb128 0x4
 880 0470 01       		.byte	0x1
 881 0471 08       		.byte	0x8
 882 0472 E1030000 		.4byte	.LASF72
 883 0476 09       		.uleb128 0x9
 884 0477 04       		.byte	0x4
 885 0478 B2030000 		.4byte	0x3b2
 886 047c 09       		.uleb128 0x9
 887 047d 04       		.byte	0x4
 888 047e 82040000 		.4byte	0x482
 889 0482 0F       		.uleb128 0xf
 890 0483 EB000000 		.4byte	0xeb
 891 0487 91040000 		.4byte	0x491
 892 048b 10       		.uleb128 0x10
 893 048c 87020000 		.4byte	0x287
 894 0490 00       		.byte	0
 895 0491 03       		.uleb128 0x3
 896 0492 4D050000 		.4byte	.LASF73
 897 0496 0D       		.byte	0xd
 898 0497 30       		.byte	0x30
ARM GAS  /var/folders/qh/xwg3v3kj02qbxczjpdb8lzfr0000gn/T//ccm4bCOm.s 			page 17


 899 0498 9C040000 		.4byte	0x49c
 900 049c 05       		.uleb128 0x5
 901 049d 4D050000 		.4byte	.LASF73
 902 04a1 24       		.byte	0x24
 903 04a2 0D       		.byte	0xd
 904 04a3 3E       		.byte	0x3e
 905 04a4 09050000 		.4byte	0x509
 906 04a8 06       		.uleb128 0x6
 907 04a9 BB020000 		.4byte	.LASF74
 908 04ad 0D       		.byte	0xd
 909 04ae 3F       		.byte	0x3f
 910 04af 51020000 		.4byte	0x251
 911 04b3 00       		.byte	0
 912 04b4 06       		.uleb128 0x6
 913 04b5 B2060000 		.4byte	.LASF75
 914 04b9 0D       		.byte	0xd
 915 04ba 40       		.byte	0x40
 916 04bb 2C000000 		.4byte	0x2c
 917 04bf 08       		.byte	0x8
 918 04c0 06       		.uleb128 0x6
 919 04c1 89040000 		.4byte	.LASF76
 920 04c5 0D       		.byte	0xd
 921 04c6 41       		.byte	0x41
 922 04c7 2B050000 		.4byte	0x52b
 923 04cb 0C       		.byte	0xc
 924 04cc 06       		.uleb128 0x6
 925 04cd C1060000 		.4byte	.LASF77
 926 04d1 0D       		.byte	0xd
 927 04d2 42       		.byte	0x42
 928 04d3 2B050000 		.4byte	0x52b
 929 04d7 10       		.byte	0x10
 930 04d8 06       		.uleb128 0x6
 931 04d9 E6030000 		.4byte	.LASF78
 932 04dd 0D       		.byte	0xd
 933 04de 44       		.byte	0x44
 934 04df 2B050000 		.4byte	0x52b
 935 04e3 14       		.byte	0x14
 936 04e4 06       		.uleb128 0x6
 937 04e5 99000000 		.4byte	.LASF79
 938 04e9 0D       		.byte	0xd
 939 04ea 45       		.byte	0x45
 940 04eb 2B050000 		.4byte	0x52b
 941 04ef 18       		.byte	0x18
 942 04f0 06       		.uleb128 0x6
 943 04f1 6D030000 		.4byte	.LASF80
 944 04f5 0D       		.byte	0xd
 945 04f6 46       		.byte	0x46
 946 04f7 09050000 		.4byte	0x509
 947 04fb 1C       		.byte	0x1c
 948 04fc 06       		.uleb128 0x6
 949 04fd E6000000 		.4byte	.LASF81
 950 0501 0D       		.byte	0xd
 951 0502 47       		.byte	0x47
 952 0503 87020000 		.4byte	0x287
 953 0507 20       		.byte	0x20
 954 0508 00       		.byte	0
 955 0509 03       		.uleb128 0x3
ARM GAS  /var/folders/qh/xwg3v3kj02qbxczjpdb8lzfr0000gn/T//ccm4bCOm.s 			page 18


 956 050a A1000000 		.4byte	.LASF82
 957 050e 0D       		.byte	0xd
 958 050f 33       		.byte	0x33
 959 0510 14050000 		.4byte	0x514
 960 0514 09       		.uleb128 0x9
 961 0515 04       		.byte	0x4
 962 0516 1A050000 		.4byte	0x51a
 963 051a 11       		.uleb128 0x11
 964 051b 25050000 		.4byte	0x525
 965 051f 10       		.uleb128 0x10
 966 0520 25050000 		.4byte	0x525
 967 0524 00       		.byte	0
 968 0525 09       		.uleb128 0x9
 969 0526 04       		.byte	0x4
 970 0527 91040000 		.4byte	0x491
 971 052b 09       		.uleb128 0x9
 972 052c 04       		.byte	0x4
 973 052d 45000000 		.4byte	0x45
 974 0531 03       		.uleb128 0x3
 975 0532 C9030000 		.4byte	.LASF83
 976 0536 0D       		.byte	0xd
 977 0537 7B       		.byte	0x7b
 978 0538 91040000 		.4byte	0x491
 979 053c 03       		.uleb128 0x3
 980 053d 61030000 		.4byte	.LASF84
 981 0541 0D       		.byte	0xd
 982 0542 EE       		.byte	0xee
 983 0543 91040000 		.4byte	0x491
 984 0547 05       		.uleb128 0x5
 985 0548 B3000000 		.4byte	.LASF85
 986 054c 10       		.byte	0x10
 987 054d 0E       		.byte	0xe
 988 054e 41       		.byte	0x41
 989 054f 84050000 		.4byte	0x584
 990 0553 06       		.uleb128 0x6
 991 0554 83040000 		.4byte	.LASF86
 992 0558 0E       		.byte	0xe
 993 0559 42       		.byte	0x42
 994 055a A8050000 		.4byte	0x5a8
 995 055e 00       		.byte	0
 996 055f 06       		.uleb128 0x6
 997 0560 84060000 		.4byte	.LASF87
 998 0564 0E       		.byte	0xe
 999 0565 42       		.byte	0x42
 1000 0566 C7050000 		.4byte	0x5c7
 1001 056a 04       		.byte	0x4
 1002 056b 07       		.uleb128 0x7
 1003 056c 70757400 		.ascii	"put\000"
 1004 0570 0E       		.byte	0xe
 1005 0571 42       		.byte	0x42
 1006 0572 E1050000 		.4byte	0x5e1
 1007 0576 08       		.byte	0x8
 1008 0577 07       		.uleb128 0x7
 1009 0578 67657400 		.ascii	"get\000"
 1010 057c 0E       		.byte	0xe
 1011 057d 42       		.byte	0x42
 1012 057e 7C040000 		.4byte	0x47c
ARM GAS  /var/folders/qh/xwg3v3kj02qbxczjpdb8lzfr0000gn/T//ccm4bCOm.s 			page 19


 1013 0582 0C       		.byte	0xc
 1014 0583 00       		.byte	0
 1015 0584 0F       		.uleb128 0xf
 1016 0585 2C000000 		.4byte	0x2c
 1017 0589 9D050000 		.4byte	0x59d
 1018 058d 10       		.uleb128 0x10
 1019 058e 87020000 		.4byte	0x287
 1020 0592 10       		.uleb128 0x10
 1021 0593 9D050000 		.4byte	0x59d
 1022 0597 10       		.uleb128 0x10
 1023 0598 2C000000 		.4byte	0x2c
 1024 059c 00       		.byte	0
 1025 059d 09       		.uleb128 0x9
 1026 059e 04       		.byte	0x4
 1027 059f A3050000 		.4byte	0x5a3
 1028 05a3 0E       		.uleb128 0xe
 1029 05a4 45000000 		.4byte	0x45
 1030 05a8 09       		.uleb128 0x9
 1031 05a9 04       		.byte	0x4
 1032 05aa 84050000 		.4byte	0x584
 1033 05ae 0F       		.uleb128 0xf
 1034 05af 2C000000 		.4byte	0x2c
 1035 05b3 C7050000 		.4byte	0x5c7
 1036 05b7 10       		.uleb128 0x10
 1037 05b8 87020000 		.4byte	0x287
 1038 05bc 10       		.uleb128 0x10
 1039 05bd 2B050000 		.4byte	0x52b
 1040 05c1 10       		.uleb128 0x10
 1041 05c2 2C000000 		.4byte	0x2c
 1042 05c6 00       		.byte	0
 1043 05c7 09       		.uleb128 0x9
 1044 05c8 04       		.byte	0x4
 1045 05c9 AE050000 		.4byte	0x5ae
 1046 05cd 0F       		.uleb128 0xf
 1047 05ce EB000000 		.4byte	0xeb
 1048 05d2 E1050000 		.4byte	0x5e1
 1049 05d6 10       		.uleb128 0x10
 1050 05d7 87020000 		.4byte	0x287
 1051 05db 10       		.uleb128 0x10
 1052 05dc 45000000 		.4byte	0x45
 1053 05e0 00       		.byte	0
 1054 05e1 09       		.uleb128 0x9
 1055 05e2 04       		.byte	0x4
 1056 05e3 CD050000 		.4byte	0x5cd
 1057 05e7 08       		.uleb128 0x8
 1058 05e8 04       		.byte	0x4
 1059 05e9 0E       		.byte	0xe
 1060 05ea 4A       		.byte	0x4a
 1061 05eb FC050000 		.4byte	0x5fc
 1062 05ef 07       		.uleb128 0x7
 1063 05f0 766D7400 		.ascii	"vmt\000"
 1064 05f4 0E       		.byte	0xe
 1065 05f5 4C       		.byte	0x4c
 1066 05f6 FC050000 		.4byte	0x5fc
 1067 05fa 00       		.byte	0
 1068 05fb 00       		.byte	0
 1069 05fc 09       		.uleb128 0x9
ARM GAS  /var/folders/qh/xwg3v3kj02qbxczjpdb8lzfr0000gn/T//ccm4bCOm.s 			page 20


 1070 05fd 04       		.byte	0x4
 1071 05fe 02060000 		.4byte	0x602
 1072 0602 0E       		.uleb128 0xe
 1073 0603 47050000 		.4byte	0x547
 1074 0607 03       		.uleb128 0x3
 1075 0608 B4030000 		.4byte	.LASF88
 1076 060c 0E       		.byte	0xe
 1077 060d 4E       		.byte	0x4e
 1078 060e E7050000 		.4byte	0x5e7
 1079 0612 12       		.uleb128 0x12
 1080 0613 44       		.byte	0x44
 1081 0614 0F       		.byte	0xf
 1082 0615 2B01     		.2byte	0x12b
 1083 0617 C2060000 		.4byte	0x6c2
 1084 061b 13       		.uleb128 0x13
 1085 061c 49535200 		.ascii	"ISR\000"
 1086 0620 0F       		.byte	0xf
 1087 0621 2D01     		.2byte	0x12d
 1088 0623 1A030000 		.4byte	0x31a
 1089 0627 00       		.byte	0
 1090 0628 13       		.uleb128 0x13
 1091 0629 49455200 		.ascii	"IER\000"
 1092 062d 0F       		.byte	0xf
 1093 062e 2E01     		.2byte	0x12e
 1094 0630 1A030000 		.4byte	0x31a
 1095 0634 04       		.byte	0x4
 1096 0635 13       		.uleb128 0x13
 1097 0636 435200   		.ascii	"CR\000"
 1098 0639 0F       		.byte	0xf
 1099 063a 2F01     		.2byte	0x12f
 1100 063c 1A030000 		.4byte	0x31a
 1101 0640 08       		.byte	0x8
 1102 0641 14       		.uleb128 0x14
 1103 0642 FA040000 		.4byte	.LASF89
 1104 0646 0F       		.byte	0xf
 1105 0647 3001     		.2byte	0x130
 1106 0649 1A030000 		.4byte	0x31a
 1107 064d 0C       		.byte	0xc
 1108 064e 14       		.uleb128 0x14
 1109 064f 00050000 		.4byte	.LASF90
 1110 0653 0F       		.byte	0xf
 1111 0654 3101     		.2byte	0x131
 1112 0656 1A030000 		.4byte	0x31a
 1113 065a 10       		.byte	0x10
 1114 065b 14       		.uleb128 0x14
 1115 065c 27030000 		.4byte	.LASF91
 1116 0660 0F       		.byte	0xf
 1117 0661 3201     		.2byte	0x132
 1118 0663 1A030000 		.4byte	0x31a
 1119 0667 14       		.byte	0x14
 1120 0668 14       		.uleb128 0x14
 1121 0669 C0050000 		.4byte	.LASF92
 1122 066d 0F       		.byte	0xf
 1123 066e 3301     		.2byte	0x133
 1124 0670 82000000 		.4byte	0x82
 1125 0674 18       		.byte	0x18
 1126 0675 14       		.uleb128 0x14
ARM GAS  /var/folders/qh/xwg3v3kj02qbxczjpdb8lzfr0000gn/T//ccm4bCOm.s 			page 21


 1127 0676 CA050000 		.4byte	.LASF93
 1128 067a 0F       		.byte	0xf
 1129 067b 3401     		.2byte	0x134
 1130 067d 82000000 		.4byte	0x82
 1131 0681 1C       		.byte	0x1c
 1132 0682 13       		.uleb128 0x13
 1133 0683 545200   		.ascii	"TR\000"
 1134 0686 0F       		.byte	0xf
 1135 0687 3501     		.2byte	0x135
 1136 0689 1A030000 		.4byte	0x31a
 1137 068d 20       		.byte	0x20
 1138 068e 14       		.uleb128 0x14
 1139 068f D4050000 		.4byte	.LASF94
 1140 0693 0F       		.byte	0xf
 1141 0694 3601     		.2byte	0x136
 1142 0696 82000000 		.4byte	0x82
 1143 069a 24       		.byte	0x24
 1144 069b 14       		.uleb128 0x14
 1145 069c A6020000 		.4byte	.LASF95
 1146 06a0 0F       		.byte	0xf
 1147 06a1 3701     		.2byte	0x137
 1148 06a3 1A030000 		.4byte	0x31a
 1149 06a7 28       		.byte	0x28
 1150 06a8 14       		.uleb128 0x14
 1151 06a9 DE050000 		.4byte	.LASF96
 1152 06ad 0F       		.byte	0xf
 1153 06ae 3801     		.2byte	0x138
 1154 06b0 C2060000 		.4byte	0x6c2
 1155 06b4 2C       		.byte	0x2c
 1156 06b5 13       		.uleb128 0x13
 1157 06b6 445200   		.ascii	"DR\000"
 1158 06b9 0F       		.byte	0xf
 1159 06ba 3901     		.2byte	0x139
 1160 06bc 1A030000 		.4byte	0x31a
 1161 06c0 40       		.byte	0x40
 1162 06c1 00       		.byte	0
 1163 06c2 15       		.uleb128 0x15
 1164 06c3 82000000 		.4byte	0x82
 1165 06c7 D2060000 		.4byte	0x6d2
 1166 06cb 16       		.uleb128 0x16
 1167 06cc 1F030000 		.4byte	0x31f
 1168 06d0 04       		.byte	0x4
 1169 06d1 00       		.byte	0
 1170 06d2 17       		.uleb128 0x17
 1171 06d3 8A070000 		.4byte	.LASF97
 1172 06d7 0F       		.byte	0xf
 1173 06d8 3A01     		.2byte	0x13a
 1174 06da 12060000 		.4byte	0x612
 1175 06de 12       		.uleb128 0x12
 1176 06df 10       		.byte	0x10
 1177 06e0 0F       		.byte	0xf
 1178 06e1 8A01     		.2byte	0x18a
 1179 06e3 1C070000 		.4byte	0x71c
 1180 06e7 13       		.uleb128 0x13
 1181 06e8 43435200 		.ascii	"CCR\000"
 1182 06ec 0F       		.byte	0xf
 1183 06ed 8C01     		.2byte	0x18c
ARM GAS  /var/folders/qh/xwg3v3kj02qbxczjpdb8lzfr0000gn/T//ccm4bCOm.s 			page 22


 1184 06ef 1A030000 		.4byte	0x31a
 1185 06f3 00       		.byte	0
 1186 06f4 14       		.uleb128 0x14
 1187 06f5 E9010000 		.4byte	.LASF98
 1188 06f9 0F       		.byte	0xf
 1189 06fa 8D01     		.2byte	0x18d
 1190 06fc 1A030000 		.4byte	0x31a
 1191 0700 04       		.byte	0x4
 1192 0701 14       		.uleb128 0x14
 1193 0702 C5020000 		.4byte	.LASF99
 1194 0706 0F       		.byte	0xf
 1195 0707 8E01     		.2byte	0x18e
 1196 0709 1A030000 		.4byte	0x31a
 1197 070d 08       		.byte	0x8
 1198 070e 14       		.uleb128 0x14
 1199 070f D1000000 		.4byte	.LASF100
 1200 0713 0F       		.byte	0xf
 1201 0714 8F01     		.2byte	0x18f
 1202 0716 1A030000 		.4byte	0x31a
 1203 071a 0C       		.byte	0xc
 1204 071b 00       		.byte	0
 1205 071c 17       		.uleb128 0x17
 1206 071d ED000000 		.4byte	.LASF101
 1207 0721 0F       		.byte	0xf
 1208 0722 9001     		.2byte	0x190
 1209 0724 DE060000 		.4byte	0x6de
 1210 0728 0B       		.uleb128 0xb
 1211 0729 5E000000 		.4byte	0x5e
 1212 072d 12       		.uleb128 0x12
 1213 072e 2C       		.byte	0x2c
 1214 072f 0F       		.byte	0xf
 1215 0730 AA02     		.2byte	0x2aa
 1216 0732 07080000 		.4byte	0x807
 1217 0736 13       		.uleb128 0x13
 1218 0737 43523100 		.ascii	"CR1\000"
 1219 073b 0F       		.byte	0xf
 1220 073c AC02     		.2byte	0x2ac
 1221 073e 1A030000 		.4byte	0x31a
 1222 0742 00       		.byte	0
 1223 0743 13       		.uleb128 0x13
 1224 0744 43523200 		.ascii	"CR2\000"
 1225 0748 0F       		.byte	0xf
 1226 0749 AD02     		.2byte	0x2ad
 1227 074b 1A030000 		.4byte	0x31a
 1228 074f 04       		.byte	0x4
 1229 0750 13       		.uleb128 0x13
 1230 0751 43523300 		.ascii	"CR3\000"
 1231 0755 0F       		.byte	0xf
 1232 0756 AE02     		.2byte	0x2ae
 1233 0758 1A030000 		.4byte	0x31a
 1234 075c 08       		.byte	0x8
 1235 075d 13       		.uleb128 0x13
 1236 075e 42525200 		.ascii	"BRR\000"
 1237 0762 0F       		.byte	0xf
 1238 0763 AF02     		.2byte	0x2af
 1239 0765 28070000 		.4byte	0x728
 1240 0769 0C       		.byte	0xc
ARM GAS  /var/folders/qh/xwg3v3kj02qbxczjpdb8lzfr0000gn/T//ccm4bCOm.s 			page 23


 1241 076a 14       		.uleb128 0x14
 1242 076b C0050000 		.4byte	.LASF92
 1243 076f 0F       		.byte	0xf
 1244 0770 B002     		.2byte	0x2b0
 1245 0772 5E000000 		.4byte	0x5e
 1246 0776 0E       		.byte	0xe
 1247 0777 14       		.uleb128 0x14
 1248 0778 F5010000 		.4byte	.LASF102
 1249 077c 0F       		.byte	0xf
 1250 077d B102     		.2byte	0x2b1
 1251 077f 28070000 		.4byte	0x728
 1252 0783 10       		.byte	0x10
 1253 0784 14       		.uleb128 0x14
 1254 0785 CA050000 		.4byte	.LASF93
 1255 0789 0F       		.byte	0xf
 1256 078a B202     		.2byte	0x2b2
 1257 078c 5E000000 		.4byte	0x5e
 1258 0790 12       		.byte	0x12
 1259 0791 14       		.uleb128 0x14
 1260 0792 48040000 		.4byte	.LASF103
 1261 0796 0F       		.byte	0xf
 1262 0797 B302     		.2byte	0x2b3
 1263 0799 1A030000 		.4byte	0x31a
 1264 079d 14       		.byte	0x14
 1265 079e 13       		.uleb128 0x13
 1266 079f 52515200 		.ascii	"RQR\000"
 1267 07a3 0F       		.byte	0xf
 1268 07a4 B402     		.2byte	0x2b4
 1269 07a6 28070000 		.4byte	0x728
 1270 07aa 18       		.byte	0x18
 1271 07ab 14       		.uleb128 0x14
 1272 07ac D4050000 		.4byte	.LASF94
 1273 07b0 0F       		.byte	0xf
 1274 07b1 B502     		.2byte	0x2b5
 1275 07b3 5E000000 		.4byte	0x5e
 1276 07b7 1A       		.byte	0x1a
 1277 07b8 13       		.uleb128 0x13
 1278 07b9 49535200 		.ascii	"ISR\000"
 1279 07bd 0F       		.byte	0xf
 1280 07be B602     		.2byte	0x2b6
 1281 07c0 1A030000 		.4byte	0x31a
 1282 07c4 1C       		.byte	0x1c
 1283 07c5 13       		.uleb128 0x13
 1284 07c6 49435200 		.ascii	"ICR\000"
 1285 07ca 0F       		.byte	0xf
 1286 07cb B702     		.2byte	0x2b7
 1287 07cd 1A030000 		.4byte	0x31a
 1288 07d1 20       		.byte	0x20
 1289 07d2 13       		.uleb128 0x13
 1290 07d3 52445200 		.ascii	"RDR\000"
 1291 07d7 0F       		.byte	0xf
 1292 07d8 B802     		.2byte	0x2b8
 1293 07da 28070000 		.4byte	0x728
 1294 07de 24       		.byte	0x24
 1295 07df 14       		.uleb128 0x14
 1296 07e0 DE050000 		.4byte	.LASF96
 1297 07e4 0F       		.byte	0xf
ARM GAS  /var/folders/qh/xwg3v3kj02qbxczjpdb8lzfr0000gn/T//ccm4bCOm.s 			page 24


 1298 07e5 B902     		.2byte	0x2b9
 1299 07e7 5E000000 		.4byte	0x5e
 1300 07eb 26       		.byte	0x26
 1301 07ec 13       		.uleb128 0x13
 1302 07ed 54445200 		.ascii	"TDR\000"
 1303 07f1 0F       		.byte	0xf
 1304 07f2 BA02     		.2byte	0x2ba
 1305 07f4 28070000 		.4byte	0x728
 1306 07f8 28       		.byte	0x28
 1307 07f9 14       		.uleb128 0x14
 1308 07fa E8050000 		.4byte	.LASF104
 1309 07fe 0F       		.byte	0xf
 1310 07ff BB02     		.2byte	0x2bb
 1311 0801 5E000000 		.4byte	0x5e
 1312 0805 2A       		.byte	0x2a
 1313 0806 00       		.byte	0
 1314 0807 17       		.uleb128 0x17
 1315 0808 4D030000 		.4byte	.LASF105
 1316 080c 0F       		.byte	0xf
 1317 080d BC02     		.2byte	0x2bc
 1318 080f 2D070000 		.4byte	0x72d
 1319 0813 08       		.uleb128 0x8
 1320 0814 0C       		.byte	0xc
 1321 0815 10       		.byte	0x10
 1322 0816 B6       		.byte	0xb6
 1323 0817 58080000 		.4byte	0x858
 1324 081b 06       		.uleb128 0x6
 1325 081c 82050000 		.4byte	.LASF106
 1326 0820 10       		.byte	0x10
 1327 0821 B7       		.byte	0xb7
 1328 0822 58080000 		.4byte	0x858
 1329 0826 00       		.byte	0
 1330 0827 06       		.uleb128 0x6
 1331 0828 35020000 		.4byte	.LASF107
 1332 082c 10       		.byte	0x10
 1333 082d B8       		.byte	0xb8
 1334 082e 5E080000 		.4byte	0x85e
 1335 0832 04       		.byte	0x4
 1336 0833 06       		.uleb128 0x6
 1337 0834 EE030000 		.4byte	.LASF108
 1338 0838 10       		.byte	0x10
 1339 0839 B9       		.byte	0xb9
 1340 083a 45000000 		.4byte	0x45
 1341 083e 08       		.byte	0x8
 1342 083f 06       		.uleb128 0x6
 1343 0840 96070000 		.4byte	.LASF109
 1344 0844 10       		.byte	0x10
 1345 0845 BB       		.byte	0xbb
 1346 0846 45000000 		.4byte	0x45
 1347 084a 09       		.byte	0x9
 1348 084b 06       		.uleb128 0x6
 1349 084c 99020000 		.4byte	.LASF110
 1350 0850 10       		.byte	0x10
 1351 0851 BC       		.byte	0xbc
 1352 0852 45000000 		.4byte	0x45
 1353 0856 0A       		.byte	0xa
 1354 0857 00       		.byte	0
ARM GAS  /var/folders/qh/xwg3v3kj02qbxczjpdb8lzfr0000gn/T//ccm4bCOm.s 			page 25


 1355 0858 09       		.uleb128 0x9
 1356 0859 04       		.byte	0x4
 1357 085a 1C070000 		.4byte	0x71c
 1358 085e 09       		.uleb128 0x9
 1359 085f 04       		.byte	0x4
 1360 0860 1A030000 		.4byte	0x31a
 1361 0864 03       		.uleb128 0x3
 1362 0865 11040000 		.4byte	.LASF111
 1363 0869 10       		.byte	0x10
 1364 086a BD       		.byte	0xbd
 1365 086b 13080000 		.4byte	0x813
 1366 086f 0F       		.uleb128 0xf
 1367 0870 EB000000 		.4byte	0xeb
 1368 0874 88080000 		.4byte	0x888
 1369 0878 10       		.uleb128 0x10
 1370 0879 87020000 		.4byte	0x287
 1371 087d 10       		.uleb128 0x10
 1372 087e 45000000 		.4byte	0x45
 1373 0882 10       		.uleb128 0x10
 1374 0883 0C010000 		.4byte	0x10c
 1375 0887 00       		.byte	0
 1376 0888 09       		.uleb128 0x9
 1377 0889 04       		.byte	0x4
 1378 088a 6F080000 		.4byte	0x86f
 1379 088e 0F       		.uleb128 0xf
 1380 088f EB000000 		.4byte	0xeb
 1381 0893 A2080000 		.4byte	0x8a2
 1382 0897 10       		.uleb128 0x10
 1383 0898 87020000 		.4byte	0x287
 1384 089c 10       		.uleb128 0x10
 1385 089d 0C010000 		.4byte	0x10c
 1386 08a1 00       		.byte	0
 1387 08a2 09       		.uleb128 0x9
 1388 08a3 04       		.byte	0x4
 1389 08a4 8E080000 		.4byte	0x88e
 1390 08a8 0F       		.uleb128 0xf
 1391 08a9 2C000000 		.4byte	0x2c
 1392 08ad C6080000 		.4byte	0x8c6
 1393 08b1 10       		.uleb128 0x10
 1394 08b2 87020000 		.4byte	0x287
 1395 08b6 10       		.uleb128 0x10
 1396 08b7 9D050000 		.4byte	0x59d
 1397 08bb 10       		.uleb128 0x10
 1398 08bc 2C000000 		.4byte	0x2c
 1399 08c0 10       		.uleb128 0x10
 1400 08c1 0C010000 		.4byte	0x10c
 1401 08c5 00       		.byte	0
 1402 08c6 09       		.uleb128 0x9
 1403 08c7 04       		.byte	0x4
 1404 08c8 A8080000 		.4byte	0x8a8
 1405 08cc 0F       		.uleb128 0xf
 1406 08cd 2C000000 		.4byte	0x2c
 1407 08d1 EA080000 		.4byte	0x8ea
 1408 08d5 10       		.uleb128 0x10
 1409 08d6 87020000 		.4byte	0x287
 1410 08da 10       		.uleb128 0x10
 1411 08db 2B050000 		.4byte	0x52b
ARM GAS  /var/folders/qh/xwg3v3kj02qbxczjpdb8lzfr0000gn/T//ccm4bCOm.s 			page 26


 1412 08df 10       		.uleb128 0x10
 1413 08e0 2C000000 		.4byte	0x2c
 1414 08e4 10       		.uleb128 0x10
 1415 08e5 0C010000 		.4byte	0x10c
 1416 08e9 00       		.byte	0
 1417 08ea 09       		.uleb128 0x9
 1418 08eb 04       		.byte	0x4
 1419 08ec CC080000 		.4byte	0x8cc
 1420 08f0 18       		.uleb128 0x18
 1421 08f1 01       		.byte	0x1
 1422 08f2 11       		.byte	0x11
 1423 08f3 4E       		.byte	0x4e
 1424 08f4 1D090000 		.4byte	0x91d
 1425 08f8 19       		.uleb128 0x19
 1426 08f9 6F060000 		.4byte	.LASF112
 1427 08fd 00       		.sleb128 0
 1428 08fe 19       		.uleb128 0x19
 1429 08ff EB070000 		.4byte	.LASF113
 1430 0903 01       		.sleb128 1
 1431 0904 19       		.uleb128 0x19
 1432 0905 05070000 		.4byte	.LASF114
 1433 0909 02       		.sleb128 2
 1434 090a 19       		.uleb128 0x19
 1435 090b 8A050000 		.4byte	.LASF115
 1436 090f 03       		.sleb128 3
 1437 0910 19       		.uleb128 0x19
 1438 0911 86030000 		.4byte	.LASF116
 1439 0915 04       		.sleb128 4
 1440 0916 19       		.uleb128 0x19
 1441 0917 99030000 		.4byte	.LASF117
 1442 091b 05       		.sleb128 5
 1443 091c 00       		.byte	0
 1444 091d 03       		.uleb128 0x3
 1445 091e 2E070000 		.4byte	.LASF118
 1446 0922 11       		.byte	0x11
 1447 0923 55       		.byte	0x55
 1448 0924 F0080000 		.4byte	0x8f0
 1449 0928 03       		.uleb128 0x3
 1450 0929 3B050000 		.4byte	.LASF119
 1451 092d 12       		.byte	0x12
 1452 092e 8F       		.byte	0x8f
 1453 092f 5E000000 		.4byte	0x5e
 1454 0933 03       		.uleb128 0x3
 1455 0934 FC050000 		.4byte	.LASF120
 1456 0938 12       		.byte	0x12
 1457 0939 94       		.byte	0x94
 1458 093a 5E000000 		.4byte	0x5e
 1459 093e 18       		.uleb128 0x18
 1460 093f 01       		.byte	0x1
 1461 0940 12       		.byte	0x12
 1462 0941 9B       		.byte	0x9b
 1463 0942 59090000 		.4byte	0x959
 1464 0946 19       		.uleb128 0x19
 1465 0947 9F060000 		.4byte	.LASF121
 1466 094b 00       		.sleb128 0
 1467 094c 19       		.uleb128 0x19
 1468 094d 71050000 		.4byte	.LASF122
ARM GAS  /var/folders/qh/xwg3v3kj02qbxczjpdb8lzfr0000gn/T//ccm4bCOm.s 			page 27


 1469 0951 01       		.sleb128 1
 1470 0952 19       		.uleb128 0x19
 1471 0953 41030000 		.4byte	.LASF123
 1472 0957 02       		.sleb128 2
 1473 0958 00       		.byte	0
 1474 0959 03       		.uleb128 0x3
 1475 095a 81000000 		.4byte	.LASF124
 1476 095e 12       		.byte	0x12
 1477 095f 9F       		.byte	0x9f
 1478 0960 3E090000 		.4byte	0x93e
 1479 0964 03       		.uleb128 0x3
 1480 0965 A3030000 		.4byte	.LASF125
 1481 0969 12       		.byte	0x12
 1482 096a A4       		.byte	0xa4
 1483 096b 6F090000 		.4byte	0x96f
 1484 096f 05       		.uleb128 0x5
 1485 0970 A3030000 		.4byte	.LASF125
 1486 0974 34       		.byte	0x34
 1487 0975 12       		.byte	0x12
 1488 0976 F2       		.byte	0xf2
 1489 0977 FB090000 		.4byte	0x9fb
 1490 097b 06       		.uleb128 0x6
 1491 097c 84070000 		.4byte	.LASF126
 1492 0980 12       		.byte	0x12
 1493 0981 F6       		.byte	0xf6
 1494 0982 1D090000 		.4byte	0x91d
 1495 0986 00       		.byte	0
 1496 0987 06       		.uleb128 0x6
 1497 0988 AE050000 		.4byte	.LASF127
 1498 098c 12       		.byte	0x12
 1499 098d FA       		.byte	0xfa
 1500 098e E10A0000 		.4byte	0xae1
 1501 0992 04       		.byte	0x4
 1502 0993 06       		.uleb128 0x6
 1503 0994 6D040000 		.4byte	.LASF128
 1504 0998 12       		.byte	0x12
 1505 0999 FE       		.byte	0xfe
 1506 099a 270A0000 		.4byte	0xa27
 1507 099e 08       		.byte	0x8
 1508 099f 14       		.uleb128 0x14
 1509 09a0 97040000 		.4byte	.LASF129
 1510 09a4 12       		.byte	0x12
 1511 09a5 0201     		.2byte	0x102
 1512 09a7 2C000000 		.4byte	0x2c
 1513 09ab 0C       		.byte	0xc
 1514 09ac 14       		.uleb128 0x14
 1515 09ad E6070000 		.4byte	.LASF130
 1516 09b1 12       		.byte	0x12
 1517 09b2 0601     		.2byte	0x106
 1518 09b4 EC0A0000 		.4byte	0xaec
 1519 09b8 10       		.byte	0x10
 1520 09b9 14       		.uleb128 0x14
 1521 09ba 46070000 		.4byte	.LASF131
 1522 09be 12       		.byte	0x12
 1523 09bf 0B01     		.2byte	0x10b
 1524 09c1 4B020000 		.4byte	0x24b
 1525 09c5 14       		.byte	0x14
ARM GAS  /var/folders/qh/xwg3v3kj02qbxczjpdb8lzfr0000gn/T//ccm4bCOm.s 			page 28


 1526 09c6 14       		.uleb128 0x14
 1527 09c7 3A020000 		.4byte	.LASF132
 1528 09cb 12       		.byte	0x12
 1529 09cc 1201     		.2byte	0x112
 1530 09ce B2030000 		.4byte	0x3b2
 1531 09d2 18       		.byte	0x18
 1532 09d3 13       		.uleb128 0x13
 1533 09d4 61646300 		.ascii	"adc\000"
 1534 09d8 12       		.byte	0x12
 1535 09d9 1E01     		.2byte	0x11e
 1536 09db F70A0000 		.4byte	0xaf7
 1537 09df 28       		.byte	0x28
 1538 09e0 14       		.uleb128 0x14
 1539 09e1 76030000 		.4byte	.LASF133
 1540 09e5 12       		.byte	0x12
 1541 09e6 2201     		.2byte	0x122
 1542 09e8 FD0A0000 		.4byte	0xafd
 1543 09ec 2C       		.byte	0x2c
 1544 09ed 14       		.uleb128 0x14
 1545 09ee 44000000 		.4byte	.LASF134
 1546 09f2 12       		.byte	0x12
 1547 09f3 2601     		.2byte	0x126
 1548 09f5 82000000 		.4byte	0x82
 1549 09f9 30       		.byte	0x30
 1550 09fa 00       		.byte	0
 1551 09fb 03       		.uleb128 0x3
 1552 09fc C1040000 		.4byte	.LASF135
 1553 0a00 12       		.byte	0x12
 1554 0a01 AE       		.byte	0xae
 1555 0a02 060A0000 		.4byte	0xa06
 1556 0a06 09       		.uleb128 0x9
 1557 0a07 04       		.byte	0x4
 1558 0a08 0C0A0000 		.4byte	0xa0c
 1559 0a0c 11       		.uleb128 0x11
 1560 0a0d 210A0000 		.4byte	0xa21
 1561 0a11 10       		.uleb128 0x10
 1562 0a12 210A0000 		.4byte	0xa21
 1563 0a16 10       		.uleb128 0x10
 1564 0a17 270A0000 		.4byte	0xa27
 1565 0a1b 10       		.uleb128 0x10
 1566 0a1c 2C000000 		.4byte	0x2c
 1567 0a20 00       		.byte	0
 1568 0a21 09       		.uleb128 0x9
 1569 0a22 04       		.byte	0x4
 1570 0a23 64090000 		.4byte	0x964
 1571 0a27 09       		.uleb128 0x9
 1572 0a28 04       		.byte	0x4
 1573 0a29 28090000 		.4byte	0x928
 1574 0a2d 03       		.uleb128 0x3
 1575 0a2e 16020000 		.4byte	.LASF136
 1576 0a32 12       		.byte	0x12
 1577 0a33 B7       		.byte	0xb7
 1578 0a34 380A0000 		.4byte	0xa38
 1579 0a38 09       		.uleb128 0x9
 1580 0a39 04       		.byte	0x4
 1581 0a3a 3E0A0000 		.4byte	0xa3e
 1582 0a3e 11       		.uleb128 0x11
ARM GAS  /var/folders/qh/xwg3v3kj02qbxczjpdb8lzfr0000gn/T//ccm4bCOm.s 			page 29


 1583 0a3f 4E0A0000 		.4byte	0xa4e
 1584 0a43 10       		.uleb128 0x10
 1585 0a44 210A0000 		.4byte	0xa21
 1586 0a48 10       		.uleb128 0x10
 1587 0a49 59090000 		.4byte	0x959
 1588 0a4d 00       		.byte	0
 1589 0a4e 08       		.uleb128 0x8
 1590 0a4f 1C       		.byte	0x1c
 1591 0a50 12       		.byte	0x12
 1592 0a51 C1       		.byte	0xc1
 1593 0a52 B60A0000 		.4byte	0xab6
 1594 0a56 06       		.uleb128 0x6
 1595 0a57 5F020000 		.4byte	.LASF137
 1596 0a5b 12       		.byte	0x12
 1597 0a5c C5       		.byte	0xc5
 1598 0a5d A2000000 		.4byte	0xa2
 1599 0a61 00       		.byte	0
 1600 0a62 06       		.uleb128 0x6
 1601 0a63 44060000 		.4byte	.LASF138
 1602 0a67 12       		.byte	0x12
 1603 0a68 C9       		.byte	0xc9
 1604 0a69 33090000 		.4byte	0x933
 1605 0a6d 02       		.byte	0x2
 1606 0a6e 06       		.uleb128 0x6
 1607 0a6f 58020000 		.4byte	.LASF139
 1608 0a73 12       		.byte	0x12
 1609 0a74 CD       		.byte	0xcd
 1610 0a75 FB090000 		.4byte	0x9fb
 1611 0a79 04       		.byte	0x4
 1612 0a7a 06       		.uleb128 0x6
 1613 0a7b D6000000 		.4byte	.LASF140
 1614 0a7f 12       		.byte	0x12
 1615 0a80 D1       		.byte	0xd1
 1616 0a81 2D0A0000 		.4byte	0xa2d
 1617 0a85 08       		.byte	0x8
 1618 0a86 06       		.uleb128 0x6
 1619 0a87 0F060000 		.4byte	.LASF141
 1620 0a8b 12       		.byte	0x12
 1621 0a8c D6       		.byte	0xd6
 1622 0a8d 82000000 		.4byte	0x82
 1623 0a91 0C       		.byte	0xc
 1624 0a92 07       		.uleb128 0x7
 1625 0a93 747200   		.ascii	"tr\000"
 1626 0a96 12       		.byte	0x12
 1627 0a97 DA       		.byte	0xda
 1628 0a98 82000000 		.4byte	0x82
 1629 0a9c 10       		.byte	0x10
 1630 0a9d 06       		.uleb128 0x6
 1631 0a9e 92040000 		.4byte	.LASF142
 1632 0aa2 12       		.byte	0x12
 1633 0aa3 DE       		.byte	0xde
 1634 0aa4 82000000 		.4byte	0x82
 1635 0aa8 14       		.byte	0x14
 1636 0aa9 06       		.uleb128 0x6
 1637 0aaa 27070000 		.4byte	.LASF143
 1638 0aae 12       		.byte	0x12
 1639 0aaf E4       		.byte	0xe4
ARM GAS  /var/folders/qh/xwg3v3kj02qbxczjpdb8lzfr0000gn/T//ccm4bCOm.s 			page 30


 1640 0ab0 82000000 		.4byte	0x82
 1641 0ab4 18       		.byte	0x18
 1642 0ab5 00       		.byte	0
 1643 0ab6 03       		.uleb128 0x3
 1644 0ab7 31060000 		.4byte	.LASF144
 1645 0abb 12       		.byte	0x12
 1646 0abc E5       		.byte	0xe5
 1647 0abd 4E0A0000 		.4byte	0xa4e
 1648 0ac1 08       		.uleb128 0x8
 1649 0ac2 04       		.byte	0x4
 1650 0ac3 12       		.byte	0x12
 1651 0ac4 EB       		.byte	0xeb
 1652 0ac5 D60A0000 		.4byte	0xad6
 1653 0ac9 06       		.uleb128 0x6
 1654 0aca CB000000 		.4byte	.LASF145
 1655 0ace 12       		.byte	0x12
 1656 0acf EC       		.byte	0xec
 1657 0ad0 82000000 		.4byte	0x82
 1658 0ad4 00       		.byte	0
 1659 0ad5 00       		.byte	0
 1660 0ad6 03       		.uleb128 0x3
 1661 0ad7 B7040000 		.4byte	.LASF146
 1662 0adb 12       		.byte	0x12
 1663 0adc ED       		.byte	0xed
 1664 0add C10A0000 		.4byte	0xac1
 1665 0ae1 09       		.uleb128 0x9
 1666 0ae2 04       		.byte	0x4
 1667 0ae3 E70A0000 		.4byte	0xae7
 1668 0ae7 0E       		.uleb128 0xe
 1669 0ae8 D60A0000 		.4byte	0xad6
 1670 0aec 09       		.uleb128 0x9
 1671 0aed 04       		.byte	0x4
 1672 0aee F20A0000 		.4byte	0xaf2
 1673 0af2 0E       		.uleb128 0xe
 1674 0af3 B60A0000 		.4byte	0xab6
 1675 0af7 09       		.uleb128 0x9
 1676 0af8 04       		.byte	0x4
 1677 0af9 D2060000 		.4byte	0x6d2
 1678 0afd 09       		.uleb128 0x9
 1679 0afe 04       		.byte	0x4
 1680 0aff 030B0000 		.4byte	0xb03
 1681 0b03 0E       		.uleb128 0xe
 1682 0b04 64080000 		.4byte	0x864
 1683 0b08 18       		.uleb128 0x18
 1684 0b09 01       		.byte	0x1
 1685 0b0a 13       		.byte	0x13
 1686 0b0b 5D       		.byte	0x5d
 1687 0b0c 230B0000 		.4byte	0xb23
 1688 0b10 19       		.uleb128 0x19
 1689 0b11 95060000 		.4byte	.LASF147
 1690 0b15 00       		.sleb128 0
 1691 0b16 19       		.uleb128 0x19
 1692 0b17 39030000 		.4byte	.LASF148
 1693 0b1b 01       		.sleb128 1
 1694 0b1c 19       		.uleb128 0x19
 1695 0b1d 95050000 		.4byte	.LASF149
 1696 0b21 02       		.sleb128 2
ARM GAS  /var/folders/qh/xwg3v3kj02qbxczjpdb8lzfr0000gn/T//ccm4bCOm.s 			page 31


 1697 0b22 00       		.byte	0
 1698 0b23 03       		.uleb128 0x3
 1699 0b24 40020000 		.4byte	.LASF150
 1700 0b28 13       		.byte	0x13
 1701 0b29 61       		.byte	0x61
 1702 0b2a 080B0000 		.4byte	0xb08
 1703 0b2e 03       		.uleb128 0x3
 1704 0b2f 16000000 		.4byte	.LASF151
 1705 0b33 13       		.byte	0x13
 1706 0b34 66       		.byte	0x66
 1707 0b35 390B0000 		.4byte	0xb39
 1708 0b39 05       		.uleb128 0x5
 1709 0b3a 16000000 		.4byte	.LASF151
 1710 0b3e 7C       		.byte	0x7c
 1711 0b3f 13       		.byte	0x13
 1712 0b40 80       		.byte	0x80
 1713 0b41 B00B0000 		.4byte	0xbb0
 1714 0b45 07       		.uleb128 0x7
 1715 0b46 766D7400 		.ascii	"vmt\000"
 1716 0b4a 13       		.byte	0x13
 1717 0b4b 82       		.byte	0x82
 1718 0b4c 1D0C0000 		.4byte	0xc1d
 1719 0b50 00       		.byte	0
 1720 0b51 06       		.uleb128 0x6
 1721 0b52 4A020000 		.4byte	.LASF152
 1722 0b56 13       		.byte	0x13
 1723 0b57 83       		.byte	0x83
 1724 0b58 24040000 		.4byte	0x424
 1725 0b5c 04       		.byte	0x4
 1726 0b5d 06       		.uleb128 0x6
 1727 0b5e 84070000 		.4byte	.LASF126
 1728 0b62 13       		.byte	0x13
 1729 0b63 83       		.byte	0x83
 1730 0b64 230B0000 		.4byte	0xb23
 1731 0b68 08       		.byte	0x8
 1732 0b69 06       		.uleb128 0x6
 1733 0b6a FA010000 		.4byte	.LASF153
 1734 0b6e 13       		.byte	0x13
 1735 0b6f 83       		.byte	0x83
 1736 0b70 31050000 		.4byte	0x531
 1737 0b74 0C       		.byte	0xc
 1738 0b75 06       		.uleb128 0x6
 1739 0b76 5A050000 		.4byte	.LASF154
 1740 0b7a 13       		.byte	0x13
 1741 0b7b 83       		.byte	0x83
 1742 0b7c 3C050000 		.4byte	0x53c
 1743 0b80 30       		.byte	0x30
 1744 0b81 07       		.uleb128 0x7
 1745 0b82 696200   		.ascii	"ib\000"
 1746 0b85 13       		.byte	0x13
 1747 0b86 83       		.byte	0x83
 1748 0b87 280C0000 		.4byte	0xc28
 1749 0b8b 54       		.byte	0x54
 1750 0b8c 07       		.uleb128 0x7
 1751 0b8d 6F6200   		.ascii	"ob\000"
 1752 0b90 13       		.byte	0x13
 1753 0b91 83       		.byte	0x83
ARM GAS  /var/folders/qh/xwg3v3kj02qbxczjpdb8lzfr0000gn/T//ccm4bCOm.s 			page 32


 1754 0b92 280C0000 		.4byte	0xc28
 1755 0b96 64       		.byte	0x64
 1756 0b97 06       		.uleb128 0x6
 1757 0b98 5F040000 		.4byte	.LASF155
 1758 0b9c 13       		.byte	0x13
 1759 0b9d 83       		.byte	0x83
 1760 0b9e 380C0000 		.4byte	0xc38
 1761 0ba2 74       		.byte	0x74
 1762 0ba3 06       		.uleb128 0x6
 1763 0ba4 93030000 		.4byte	.LASF156
 1764 0ba8 13       		.byte	0x13
 1765 0ba9 83       		.byte	0x83
 1766 0baa 82000000 		.4byte	0x82
 1767 0bae 78       		.byte	0x78
 1768 0baf 00       		.byte	0
 1769 0bb0 05       		.uleb128 0x5
 1770 0bb1 9E050000 		.4byte	.LASF157
 1771 0bb5 20       		.byte	0x20
 1772 0bb6 13       		.byte	0x13
 1773 0bb7 75       		.byte	0x75
 1774 0bb8 1D0C0000 		.4byte	0xc1d
 1775 0bbc 06       		.uleb128 0x6
 1776 0bbd 83040000 		.4byte	.LASF86
 1777 0bc1 13       		.byte	0x13
 1778 0bc2 76       		.byte	0x76
 1779 0bc3 A8050000 		.4byte	0x5a8
 1780 0bc7 00       		.byte	0
 1781 0bc8 06       		.uleb128 0x6
 1782 0bc9 84060000 		.4byte	.LASF87
 1783 0bcd 13       		.byte	0x13
 1784 0bce 76       		.byte	0x76
 1785 0bcf C7050000 		.4byte	0x5c7
 1786 0bd3 04       		.byte	0x4
 1787 0bd4 07       		.uleb128 0x7
 1788 0bd5 70757400 		.ascii	"put\000"
 1789 0bd9 13       		.byte	0x13
 1790 0bda 76       		.byte	0x76
 1791 0bdb E1050000 		.4byte	0x5e1
 1792 0bdf 08       		.byte	0x8
 1793 0be0 07       		.uleb128 0x7
 1794 0be1 67657400 		.ascii	"get\000"
 1795 0be5 13       		.byte	0x13
 1796 0be6 76       		.byte	0x76
 1797 0be7 7C040000 		.4byte	0x47c
 1798 0beb 0C       		.byte	0xc
 1799 0bec 06       		.uleb128 0x6
 1800 0bed D9020000 		.4byte	.LASF158
 1801 0bf1 13       		.byte	0x13
 1802 0bf2 76       		.byte	0x76
 1803 0bf3 88080000 		.4byte	0x888
 1804 0bf7 10       		.byte	0x10
 1805 0bf8 06       		.uleb128 0x6
 1806 0bf9 BC060000 		.4byte	.LASF159
 1807 0bfd 13       		.byte	0x13
 1808 0bfe 76       		.byte	0x76
 1809 0bff A2080000 		.4byte	0x8a2
 1810 0c03 14       		.byte	0x14
ARM GAS  /var/folders/qh/xwg3v3kj02qbxczjpdb8lzfr0000gn/T//ccm4bCOm.s 			page 33


 1811 0c04 06       		.uleb128 0x6
 1812 0c05 E2010000 		.4byte	.LASF160
 1813 0c09 13       		.byte	0x13
 1814 0c0a 76       		.byte	0x76
 1815 0c0b C6080000 		.4byte	0x8c6
 1816 0c0f 18       		.byte	0x18
 1817 0c10 06       		.uleb128 0x6
 1818 0c11 CD070000 		.4byte	.LASF161
 1819 0c15 13       		.byte	0x13
 1820 0c16 76       		.byte	0x76
 1821 0c17 EA080000 		.4byte	0x8ea
 1822 0c1b 1C       		.byte	0x1c
 1823 0c1c 00       		.byte	0
 1824 0c1d 09       		.uleb128 0x9
 1825 0c1e 04       		.byte	0x4
 1826 0c1f 230C0000 		.4byte	0xc23
 1827 0c23 0E       		.uleb128 0xe
 1828 0c24 B00B0000 		.4byte	0xbb0
 1829 0c28 15       		.uleb128 0x15
 1830 0c29 45000000 		.4byte	0x45
 1831 0c2d 380C0000 		.4byte	0xc38
 1832 0c31 16       		.uleb128 0x16
 1833 0c32 1F030000 		.4byte	0x31f
 1834 0c36 0F       		.byte	0xf
 1835 0c37 00       		.byte	0
 1836 0c38 09       		.uleb128 0x9
 1837 0c39 04       		.byte	0x4
 1838 0c3a 07080000 		.4byte	0x807
 1839 0c3e 03       		.uleb128 0x3
 1840 0c3f CA020000 		.4byte	.LASF162
 1841 0c43 14       		.byte	0x14
 1842 0c44 28       		.byte	0x28
 1843 0c45 490C0000 		.4byte	0xc49
 1844 0c49 05       		.uleb128 0x5
 1845 0c4a A0070000 		.4byte	.LASF163
 1846 0c4e 04       		.byte	0x4
 1847 0c4f 15       		.byte	0x15
 1848 0c50 00       		.byte	0
 1849 0c51 600C0000 		.4byte	0xc60
 1850 0c55 1A       		.uleb128 0x1a
 1851 0c56 D7040000 		.4byte	.LASF164
 1852 0c5a 87020000 		.4byte	0x287
 1853 0c5e 00       		.byte	0
 1854 0c5f 00       		.byte	0
 1855 0c60 03       		.uleb128 0x3
 1856 0c61 65040000 		.4byte	.LASF165
 1857 0c65 14       		.byte	0x14
 1858 0c66 62       		.byte	0x62
 1859 0c67 3E0C0000 		.4byte	0xc3e
 1860 0c6b 09       		.uleb128 0x9
 1861 0c6c 04       		.byte	0x4
 1862 0c6d 07060000 		.4byte	0x607
 1863 0c71 1B       		.uleb128 0x1b
 1864 0c72 7D030000 		.4byte	.LASF183
 1865 0c76 02       		.byte	0x2
 1866 0c77 45       		.byte	0x45
 1867 0c78 03       		.byte	0x3
ARM GAS  /var/folders/qh/xwg3v3kj02qbxczjpdb8lzfr0000gn/T//ccm4bCOm.s 			page 34


 1868 0c79 9F0C0000 		.4byte	0xc9f
 1869 0c7d 1C       		.uleb128 0x1c
 1870 0c7e 63687000 		.ascii	"chp\000"
 1871 0c82 02       		.byte	0x2
 1872 0c83 45       		.byte	0x45
 1873 0c84 6B0C0000 		.4byte	0xc6b
 1874 0c88 1C       		.uleb128 0x1c
 1875 0c89 666D7400 		.ascii	"fmt\000"
 1876 0c8d 02       		.byte	0x2
 1877 0c8e 45       		.byte	0x45
 1878 0c8f 64040000 		.4byte	0x464
 1879 0c93 1D       		.uleb128 0x1d
 1880 0c94 1E       		.uleb128 0x1e
 1881 0c95 617000   		.ascii	"ap\000"
 1882 0c98 02       		.byte	0x2
 1883 0c99 46       		.byte	0x46
 1884 0c9a 600C0000 		.4byte	0xc60
 1885 0c9e 00       		.byte	0
 1886 0c9f 1F       		.uleb128 0x1f
 1887 0ca0 51060000 		.4byte	.LASF167
 1888 0ca4 01       		.byte	0x1
 1889 0ca5 3C       		.byte	0x3c
 1890 0ca6 00000000 		.4byte	.LFB43
 1891 0caa 02000000 		.4byte	.LFE43-.LFB43
 1892 0cae 01       		.uleb128 0x1
 1893 0caf 9C       		.byte	0x9c
 1894 0cb0 CF0C0000 		.4byte	0xccf
 1895 0cb4 20       		.uleb128 0x20
 1896 0cb5 39070000 		.4byte	.LASF166
 1897 0cb9 01       		.byte	0x1
 1898 0cba 3C       		.byte	0x3c
 1899 0cbb 210A0000 		.4byte	0xa21
 1900 0cbf 01       		.uleb128 0x1
 1901 0cc0 50       		.byte	0x50
 1902 0cc1 21       		.uleb128 0x21
 1903 0cc2 65727200 		.ascii	"err\000"
 1904 0cc6 01       		.byte	0x1
 1905 0cc7 3C       		.byte	0x3c
 1906 0cc8 59090000 		.4byte	0x959
 1907 0ccc 01       		.uleb128 0x1
 1908 0ccd 51       		.byte	0x51
 1909 0cce 00       		.byte	0
 1910 0ccf 1F       		.uleb128 0x1f
 1911 0cd0 05040000 		.4byte	.LASF168
 1912 0cd4 01       		.byte	0x1
 1913 0cd5 26       		.byte	0x26
 1914 0cd6 00000000 		.4byte	.LFB42
 1915 0cda 48000000 		.4byte	.LFE42-.LFB42
 1916 0cde 01       		.uleb128 0x1
 1917 0cdf 9C       		.byte	0x9c
 1918 0ce0 310D0000 		.4byte	0xd31
 1919 0ce4 22       		.uleb128 0x22
 1920 0ce5 39070000 		.4byte	.LASF166
 1921 0ce9 01       		.byte	0x1
 1922 0cea 26       		.byte	0x26
 1923 0ceb 210A0000 		.4byte	0xa21
 1924 0cef 00000000 		.4byte	.LLST0
ARM GAS  /var/folders/qh/xwg3v3kj02qbxczjpdb8lzfr0000gn/T//ccm4bCOm.s 			page 35


 1925 0cf3 22       		.uleb128 0x22
 1926 0cf4 5F000000 		.4byte	.LASF169
 1927 0cf8 01       		.byte	0x1
 1928 0cf9 26       		.byte	0x26
 1929 0cfa 270A0000 		.4byte	0xa27
 1930 0cfe 2C000000 		.4byte	.LLST1
 1931 0d02 23       		.uleb128 0x23
 1932 0d03 6E00     		.ascii	"n\000"
 1933 0d05 01       		.byte	0x1
 1934 0d06 26       		.byte	0x26
 1935 0d07 2C000000 		.4byte	0x2c
 1936 0d0b 66000000 		.4byte	.LLST2
 1937 0d0f 24       		.uleb128 0x24
 1938 0d10 16000000 		.4byte	.LVL4
 1939 0d14 980E0000 		.4byte	0xe98
 1940 0d18 24       		.uleb128 0x24
 1941 0d19 22000000 		.4byte	.LVL5
 1942 0d1d 9F0E0000 		.4byte	0xe9f
 1943 0d21 25       		.uleb128 0x25
 1944 0d22 2C000000 		.4byte	.LVL6
 1945 0d26 A60E0000 		.4byte	0xea6
 1946 0d2a 26       		.uleb128 0x26
 1947 0d2b 01       		.uleb128 0x1
 1948 0d2c 51       		.byte	0x51
 1949 0d2d 01       		.uleb128 0x1
 1950 0d2e 31       		.byte	0x31
 1951 0d2f 00       		.byte	0
 1952 0d30 00       		.byte	0
 1953 0d31 27       		.uleb128 0x27
 1954 0d32 710C0000 		.4byte	0xc71
 1955 0d36 00000000 		.4byte	.LFB45
 1956 0d3a 24000000 		.4byte	.LFE45-.LFB45
 1957 0d3e 01       		.uleb128 0x1
 1958 0d3f 9C       		.byte	0x9c
 1959 0d40 890D0000 		.4byte	0xd89
 1960 0d44 28       		.uleb128 0x28
 1961 0d45 7D0C0000 		.4byte	0xc7d
 1962 0d49 A0000000 		.4byte	.LLST3
 1963 0d4d 29       		.uleb128 0x29
 1964 0d4e 880C0000 		.4byte	0xc88
 1965 0d52 02       		.uleb128 0x2
 1966 0d53 91       		.byte	0x91
 1967 0d54 74       		.sleb128 -12
 1968 0d55 1D       		.uleb128 0x1d
 1969 0d56 2A       		.uleb128 0x2a
 1970 0d57 940C0000 		.4byte	0xc94
 1971 0d5b 02       		.uleb128 0x2
 1972 0d5c 91       		.byte	0x91
 1973 0d5d 6C       		.sleb128 -20
 1974 0d5e 29       		.uleb128 0x29
 1975 0d5f 880C0000 		.4byte	0xc88
 1976 0d63 06       		.uleb128 0x6
 1977 0d64 03       		.byte	0x3
 1978 0d65 00000000 		.4byte	.LC5
 1979 0d69 9F       		.byte	0x9f
 1980 0d6a 2B       		.uleb128 0x2b
 1981 0d6b 7D0C0000 		.4byte	0xc7d
ARM GAS  /var/folders/qh/xwg3v3kj02qbxczjpdb8lzfr0000gn/T//ccm4bCOm.s 			page 36


 1982 0d6f 25       		.uleb128 0x25
 1983 0d70 12000000 		.4byte	.LVL12
 1984 0d74 C20E0000 		.4byte	0xec2
 1985 0d78 26       		.uleb128 0x26
 1986 0d79 01       		.uleb128 0x1
 1987 0d7a 52       		.byte	0x52
 1988 0d7b 02       		.uleb128 0x2
 1989 0d7c 91       		.byte	0x91
 1990 0d7d 60       		.sleb128 -32
 1991 0d7e 26       		.uleb128 0x26
 1992 0d7f 01       		.uleb128 0x1
 1993 0d80 51       		.byte	0x51
 1994 0d81 05       		.uleb128 0x5
 1995 0d82 03       		.byte	0x3
 1996 0d83 00000000 		.4byte	.LC5
 1997 0d87 00       		.byte	0
 1998 0d88 00       		.byte	0
 1999 0d89 1F       		.uleb128 0x1f
 2000 0d8a CE060000 		.4byte	.LASF170
 2001 0d8e 01       		.byte	0x1
 2002 0d8f 21       		.byte	0x21
 2003 0d90 00000000 		.4byte	.LFB41
 2004 0d94 14000000 		.4byte	.LFE41-.LFB41
 2005 0d98 01       		.uleb128 0x1
 2006 0d99 9C       		.byte	0x9c
 2007 0d9a B20D0000 		.4byte	0xdb2
 2008 0d9e 25       		.uleb128 0x25
 2009 0d9f 0A000000 		.4byte	.LVL13
 2010 0da3 310D0000 		.4byte	0xd31
 2011 0da7 26       		.uleb128 0x26
 2012 0da8 01       		.uleb128 0x1
 2013 0da9 51       		.byte	0x51
 2014 0daa 05       		.uleb128 0x5
 2015 0dab 03       		.byte	0x3
 2016 0dac 00000000 		.4byte	.LC5
 2017 0db0 00       		.byte	0
 2018 0db1 00       		.byte	0
 2019 0db2 2C       		.uleb128 0x2c
 2020 0db3 E6040000 		.4byte	.LASF184
 2021 0db7 01       		.byte	0x1
 2022 0db8 44       		.byte	0x44
 2023 0db9 EB000000 		.4byte	0xeb
 2024 0dbd 00000000 		.4byte	.LFB44
 2025 0dc1 28000000 		.4byte	.LFE44-.LFB44
 2026 0dc5 01       		.uleb128 0x1
 2027 0dc6 9C       		.byte	0x9c
 2028 0dc7 0C0E0000 		.4byte	0xe0c
 2029 0dcb 2D       		.uleb128 0x2d
 2030 0dcc 0C000000 		.4byte	.LVL14
 2031 0dd0 DD0E0000 		.4byte	0xedd
 2032 0dd4 E40D0000 		.4byte	0xde4
 2033 0dd8 26       		.uleb128 0x26
 2034 0dd9 01       		.uleb128 0x1
 2035 0dda 51       		.byte	0x51
 2036 0ddb 01       		.uleb128 0x1
 2037 0ddc 30       		.byte	0x30
 2038 0ddd 26       		.uleb128 0x26
ARM GAS  /var/folders/qh/xwg3v3kj02qbxczjpdb8lzfr0000gn/T//ccm4bCOm.s 			page 37


 2039 0dde 01       		.uleb128 0x1
 2040 0ddf 50       		.byte	0x50
 2041 0de0 02       		.uleb128 0x2
 2042 0de1 74       		.byte	0x74
 2043 0de2 00       		.sleb128 0
 2044 0de3 00       		.byte	0
 2045 0de4 25       		.uleb128 0x25
 2046 0de5 18000000 		.4byte	.LVL15
 2047 0de9 F40E0000 		.4byte	0xef4
 2048 0ded 26       		.uleb128 0x26
 2049 0dee 01       		.uleb128 0x1
 2050 0def 53       		.byte	0x53
 2051 0df0 01       		.uleb128 0x1
 2052 0df1 38       		.byte	0x38
 2053 0df2 26       		.uleb128 0x26
 2054 0df3 01       		.uleb128 0x1
 2055 0df4 52       		.byte	0x52
 2056 0df5 05       		.uleb128 0x5
 2057 0df6 03       		.byte	0x3
 2058 0df7 00000000 		.4byte	.LANCHOR0
 2059 0dfb 26       		.uleb128 0x26
 2060 0dfc 01       		.uleb128 0x1
 2061 0dfd 51       		.byte	0x51
 2062 0dfe 05       		.uleb128 0x5
 2063 0dff 03       		.byte	0x3
 2064 0e00 00000000 		.4byte	.LANCHOR4
 2065 0e04 26       		.uleb128 0x26
 2066 0e05 01       		.uleb128 0x1
 2067 0e06 50       		.byte	0x50
 2068 0e07 02       		.uleb128 0x2
 2069 0e08 74       		.byte	0x74
 2070 0e09 00       		.sleb128 0
 2071 0e0a 00       		.byte	0
 2072 0e0b 00       		.byte	0
 2073 0e0c 2E       		.uleb128 0x2e
 2074 0e0d 47050000 		.4byte	.LASF171
 2075 0e11 12       		.byte	0x12
 2076 0e12 3A01     		.2byte	0x13a
 2077 0e14 64090000 		.4byte	0x964
 2078 0e18 2F       		.uleb128 0x2f
 2079 0e19 53443100 		.ascii	"SD1\000"
 2080 0e1d 16       		.byte	0x16
 2081 0e1e 1101     		.2byte	0x111
 2082 0e20 2E0B0000 		.4byte	0xb2e
 2083 0e24 30       		.uleb128 0x30
 2084 0e25 B5020000 		.4byte	.LASF172
 2085 0e29 01       		.byte	0x1
 2086 0e2a 08       		.byte	0x8
 2087 0e2b 25000000 		.4byte	0x25
 2088 0e2f 05       		.uleb128 0x5
 2089 0e30 03       		.byte	0x3
 2090 0e31 00000000 		.4byte	value
 2091 0e35 15       		.uleb128 0x15
 2092 0e36 28090000 		.4byte	0x928
 2093 0e3a 450E0000 		.4byte	0xe45
 2094 0e3e 16       		.uleb128 0x16
 2095 0e3f 1F030000 		.4byte	0x31f
ARM GAS  /var/folders/qh/xwg3v3kj02qbxczjpdb8lzfr0000gn/T//ccm4bCOm.s 			page 38


 2096 0e43 07       		.byte	0x7
 2097 0e44 00       		.byte	0
 2098 0e45 30       		.uleb128 0x30
 2099 0e46 6D040000 		.4byte	.LASF128
 2100 0e4a 01       		.byte	0x1
 2101 0e4b 09       		.byte	0x9
 2102 0e4c 350E0000 		.4byte	0xe35
 2103 0e50 05       		.uleb128 0x5
 2104 0e51 03       		.byte	0x3
 2105 0e52 00000000 		.4byte	samples
 2106 0e56 31       		.uleb128 0x31
 2107 0e57 6E7800   		.ascii	"nx\000"
 2108 0e5a 01       		.byte	0x1
 2109 0e5b 0A       		.byte	0xa
 2110 0e5c 2C000000 		.4byte	0x2c
 2111 0e60 05       		.uleb128 0x5
 2112 0e61 03       		.byte	0x3
 2113 0e62 00000000 		.4byte	nx
 2114 0e66 31       		.uleb128 0x31
 2115 0e67 6E7900   		.ascii	"ny\000"
 2116 0e6a 01       		.byte	0x1
 2117 0e6b 0A       		.byte	0xa
 2118 0e6c 2C000000 		.4byte	0x2c
 2119 0e70 05       		.uleb128 0x5
 2120 0e71 03       		.byte	0x3
 2121 0e72 00000000 		.4byte	ny
 2122 0e76 30       		.uleb128 0x30
 2123 0e77 BD070000 		.4byte	.LASF173
 2124 0e7b 01       		.byte	0x1
 2125 0e7c 0B       		.byte	0xb
 2126 0e7d 70030000 		.4byte	0x370
 2127 0e81 05       		.uleb128 0x5
 2128 0e82 03       		.byte	0x3
 2129 0e83 00000000 		.4byte	adcSemDataReady
 2130 0e87 30       		.uleb128 0x30
 2131 0e88 AB040000 		.4byte	.LASF174
 2132 0e8c 01       		.byte	0x1
 2133 0e8d 14       		.byte	0x14
 2134 0e8e B60A0000 		.4byte	0xab6
 2135 0e92 05       		.uleb128 0x5
 2136 0e93 03       		.byte	0x3
 2137 0e94 00000000 		.4byte	adcSettings
 2138 0e98 32       		.uleb128 0x32
 2139 0e99 0F070000 		.4byte	.LASF175
 2140 0e9d 17       		.byte	0x17
 2141 0e9e E2       		.byte	0xe2
 2142 0e9f 32       		.uleb128 0x32
 2143 0ea0 7F020000 		.4byte	.LASF176
 2144 0ea4 17       		.byte	0x17
 2145 0ea5 E3       		.byte	0xe3
 2146 0ea6 33       		.uleb128 0x33
 2147 0ea7 01020000 		.4byte	.LASF177
 2148 0eab 09       		.byte	0x9
 2149 0eac 30       		.byte	0x30
 2150 0ead BC0E0000 		.4byte	0xebc
 2151 0eb1 10       		.uleb128 0x10
 2152 0eb2 BC0E0000 		.4byte	0xebc
ARM GAS  /var/folders/qh/xwg3v3kj02qbxczjpdb8lzfr0000gn/T//ccm4bCOm.s 			page 39


 2153 0eb6 10       		.uleb128 0x10
 2154 0eb7 17010000 		.4byte	0x117
 2155 0ebb 00       		.byte	0
 2156 0ebc 09       		.uleb128 0x9
 2157 0ebd 04       		.byte	0x4
 2158 0ebe 50030000 		.4byte	0x350
 2159 0ec2 33       		.uleb128 0x33
 2160 0ec3 2A000000 		.4byte	.LASF178
 2161 0ec7 02       		.byte	0x2
 2162 0ec8 28       		.byte	0x28
 2163 0ec9 DD0E0000 		.4byte	0xedd
 2164 0ecd 10       		.uleb128 0x10
 2165 0ece 6B0C0000 		.4byte	0xc6b
 2166 0ed2 10       		.uleb128 0x10
 2167 0ed3 64040000 		.4byte	0x464
 2168 0ed7 10       		.uleb128 0x10
 2169 0ed8 600C0000 		.4byte	0xc60
 2170 0edc 00       		.byte	0
 2171 0edd 34       		.uleb128 0x34
 2172 0ede 62070000 		.4byte	.LASF179
 2173 0ee2 11       		.byte	0x11
 2174 0ee3 1701     		.2byte	0x117
 2175 0ee5 F40E0000 		.4byte	0xef4
 2176 0ee9 10       		.uleb128 0x10
 2177 0eea 210A0000 		.4byte	0xa21
 2178 0eee 10       		.uleb128 0x10
 2179 0eef E10A0000 		.4byte	0xae1
 2180 0ef3 00       		.byte	0
 2181 0ef4 35       		.uleb128 0x35
 2182 0ef5 28050000 		.4byte	.LASF185
 2183 0ef9 11       		.byte	0x11
 2184 0efa 1901     		.2byte	0x119
 2185 0efc 10       		.uleb128 0x10
 2186 0efd 210A0000 		.4byte	0xa21
 2187 0f01 10       		.uleb128 0x10
 2188 0f02 EC0A0000 		.4byte	0xaec
 2189 0f06 10       		.uleb128 0x10
 2190 0f07 270A0000 		.4byte	0xa27
 2191 0f0b 10       		.uleb128 0x10
 2192 0f0c 2C000000 		.4byte	0x2c
 2193 0f10 00       		.byte	0
 2194 0f11 00       		.byte	0
 2195              		.section	.debug_abbrev,"",%progbits
 2196              	.Ldebug_abbrev0:
 2197 0000 01       		.uleb128 0x1
 2198 0001 11       		.uleb128 0x11
 2199 0002 01       		.byte	0x1
 2200 0003 25       		.uleb128 0x25
 2201 0004 0E       		.uleb128 0xe
 2202 0005 13       		.uleb128 0x13
 2203 0006 0B       		.uleb128 0xb
 2204 0007 03       		.uleb128 0x3
 2205 0008 0E       		.uleb128 0xe
 2206 0009 1B       		.uleb128 0x1b
 2207 000a 0E       		.uleb128 0xe
 2208 000b 55       		.uleb128 0x55
 2209 000c 17       		.uleb128 0x17
ARM GAS  /var/folders/qh/xwg3v3kj02qbxczjpdb8lzfr0000gn/T//ccm4bCOm.s 			page 40


 2210 000d 11       		.uleb128 0x11
 2211 000e 01       		.uleb128 0x1
 2212 000f 10       		.uleb128 0x10
 2213 0010 17       		.uleb128 0x17
 2214 0011 00       		.byte	0
 2215 0012 00       		.byte	0
 2216 0013 02       		.uleb128 0x2
 2217 0014 24       		.uleb128 0x24
 2218 0015 00       		.byte	0
 2219 0016 0B       		.uleb128 0xb
 2220 0017 0B       		.uleb128 0xb
 2221 0018 3E       		.uleb128 0x3e
 2222 0019 0B       		.uleb128 0xb
 2223 001a 03       		.uleb128 0x3
 2224 001b 08       		.uleb128 0x8
 2225 001c 00       		.byte	0
 2226 001d 00       		.byte	0
 2227 001e 03       		.uleb128 0x3
 2228 001f 16       		.uleb128 0x16
 2229 0020 00       		.byte	0
 2230 0021 03       		.uleb128 0x3
 2231 0022 0E       		.uleb128 0xe
 2232 0023 3A       		.uleb128 0x3a
 2233 0024 0B       		.uleb128 0xb
 2234 0025 3B       		.uleb128 0x3b
 2235 0026 0B       		.uleb128 0xb
 2236 0027 49       		.uleb128 0x49
 2237 0028 13       		.uleb128 0x13
 2238 0029 00       		.byte	0
 2239 002a 00       		.byte	0
 2240 002b 04       		.uleb128 0x4
 2241 002c 24       		.uleb128 0x24
 2242 002d 00       		.byte	0
 2243 002e 0B       		.uleb128 0xb
 2244 002f 0B       		.uleb128 0xb
 2245 0030 3E       		.uleb128 0x3e
 2246 0031 0B       		.uleb128 0xb
 2247 0032 03       		.uleb128 0x3
 2248 0033 0E       		.uleb128 0xe
 2249 0034 00       		.byte	0
 2250 0035 00       		.byte	0
 2251 0036 05       		.uleb128 0x5
 2252 0037 13       		.uleb128 0x13
 2253 0038 01       		.byte	0x1
 2254 0039 03       		.uleb128 0x3
 2255 003a 0E       		.uleb128 0xe
 2256 003b 0B       		.uleb128 0xb
 2257 003c 0B       		.uleb128 0xb
 2258 003d 3A       		.uleb128 0x3a
 2259 003e 0B       		.uleb128 0xb
 2260 003f 3B       		.uleb128 0x3b
 2261 0040 0B       		.uleb128 0xb
 2262 0041 01       		.uleb128 0x1
 2263 0042 13       		.uleb128 0x13
 2264 0043 00       		.byte	0
 2265 0044 00       		.byte	0
 2266 0045 06       		.uleb128 0x6
ARM GAS  /var/folders/qh/xwg3v3kj02qbxczjpdb8lzfr0000gn/T//ccm4bCOm.s 			page 41


 2267 0046 0D       		.uleb128 0xd
 2268 0047 00       		.byte	0
 2269 0048 03       		.uleb128 0x3
 2270 0049 0E       		.uleb128 0xe
 2271 004a 3A       		.uleb128 0x3a
 2272 004b 0B       		.uleb128 0xb
 2273 004c 3B       		.uleb128 0x3b
 2274 004d 0B       		.uleb128 0xb
 2275 004e 49       		.uleb128 0x49
 2276 004f 13       		.uleb128 0x13
 2277 0050 38       		.uleb128 0x38
 2278 0051 0B       		.uleb128 0xb
 2279 0052 00       		.byte	0
 2280 0053 00       		.byte	0
 2281 0054 07       		.uleb128 0x7
 2282 0055 0D       		.uleb128 0xd
 2283 0056 00       		.byte	0
 2284 0057 03       		.uleb128 0x3
 2285 0058 08       		.uleb128 0x8
 2286 0059 3A       		.uleb128 0x3a
 2287 005a 0B       		.uleb128 0xb
 2288 005b 3B       		.uleb128 0x3b
 2289 005c 0B       		.uleb128 0xb
 2290 005d 49       		.uleb128 0x49
 2291 005e 13       		.uleb128 0x13
 2292 005f 38       		.uleb128 0x38
 2293 0060 0B       		.uleb128 0xb
 2294 0061 00       		.byte	0
 2295 0062 00       		.byte	0
 2296 0063 08       		.uleb128 0x8
 2297 0064 13       		.uleb128 0x13
 2298 0065 01       		.byte	0x1
 2299 0066 0B       		.uleb128 0xb
 2300 0067 0B       		.uleb128 0xb
 2301 0068 3A       		.uleb128 0x3a
 2302 0069 0B       		.uleb128 0xb
 2303 006a 3B       		.uleb128 0x3b
 2304 006b 0B       		.uleb128 0xb
 2305 006c 01       		.uleb128 0x1
 2306 006d 13       		.uleb128 0x13
 2307 006e 00       		.byte	0
 2308 006f 00       		.byte	0
 2309 0070 09       		.uleb128 0x9
 2310 0071 0F       		.uleb128 0xf
 2311 0072 00       		.byte	0
 2312 0073 0B       		.uleb128 0xb
 2313 0074 0B       		.uleb128 0xb
 2314 0075 49       		.uleb128 0x49
 2315 0076 13       		.uleb128 0x13
 2316 0077 00       		.byte	0
 2317 0078 00       		.byte	0
 2318 0079 0A       		.uleb128 0xa
 2319 007a 0F       		.uleb128 0xf
 2320 007b 00       		.byte	0
 2321 007c 0B       		.uleb128 0xb
 2322 007d 0B       		.uleb128 0xb
 2323 007e 00       		.byte	0
ARM GAS  /var/folders/qh/xwg3v3kj02qbxczjpdb8lzfr0000gn/T//ccm4bCOm.s 			page 42


 2324 007f 00       		.byte	0
 2325 0080 0B       		.uleb128 0xb
 2326 0081 35       		.uleb128 0x35
 2327 0082 00       		.byte	0
 2328 0083 49       		.uleb128 0x49
 2329 0084 13       		.uleb128 0x13
 2330 0085 00       		.byte	0
 2331 0086 00       		.byte	0
 2332 0087 0C       		.uleb128 0xc
 2333 0088 17       		.uleb128 0x17
 2334 0089 01       		.byte	0x1
 2335 008a 0B       		.uleb128 0xb
 2336 008b 0B       		.uleb128 0xb
 2337 008c 3A       		.uleb128 0x3a
 2338 008d 0B       		.uleb128 0xb
 2339 008e 3B       		.uleb128 0x3b
 2340 008f 0B       		.uleb128 0xb
 2341 0090 01       		.uleb128 0x1
 2342 0091 13       		.uleb128 0x13
 2343 0092 00       		.byte	0
 2344 0093 00       		.byte	0
 2345 0094 0D       		.uleb128 0xd
 2346 0095 0D       		.uleb128 0xd
 2347 0096 00       		.byte	0
 2348 0097 03       		.uleb128 0x3
 2349 0098 0E       		.uleb128 0xe
 2350 0099 3A       		.uleb128 0x3a
 2351 009a 0B       		.uleb128 0xb
 2352 009b 3B       		.uleb128 0x3b
 2353 009c 0B       		.uleb128 0xb
 2354 009d 49       		.uleb128 0x49
 2355 009e 13       		.uleb128 0x13
 2356 009f 00       		.byte	0
 2357 00a0 00       		.byte	0
 2358 00a1 0E       		.uleb128 0xe
 2359 00a2 26       		.uleb128 0x26
 2360 00a3 00       		.byte	0
 2361 00a4 49       		.uleb128 0x49
 2362 00a5 13       		.uleb128 0x13
 2363 00a6 00       		.byte	0
 2364 00a7 00       		.byte	0
 2365 00a8 0F       		.uleb128 0xf
 2366 00a9 15       		.uleb128 0x15
 2367 00aa 01       		.byte	0x1
 2368 00ab 27       		.uleb128 0x27
 2369 00ac 19       		.uleb128 0x19
 2370 00ad 49       		.uleb128 0x49
 2371 00ae 13       		.uleb128 0x13
 2372 00af 01       		.uleb128 0x1
 2373 00b0 13       		.uleb128 0x13
 2374 00b1 00       		.byte	0
 2375 00b2 00       		.byte	0
 2376 00b3 10       		.uleb128 0x10
 2377 00b4 05       		.uleb128 0x5
 2378 00b5 00       		.byte	0
 2379 00b6 49       		.uleb128 0x49
 2380 00b7 13       		.uleb128 0x13
ARM GAS  /var/folders/qh/xwg3v3kj02qbxczjpdb8lzfr0000gn/T//ccm4bCOm.s 			page 43


 2381 00b8 00       		.byte	0
 2382 00b9 00       		.byte	0
 2383 00ba 11       		.uleb128 0x11
 2384 00bb 15       		.uleb128 0x15
 2385 00bc 01       		.byte	0x1
 2386 00bd 27       		.uleb128 0x27
 2387 00be 19       		.uleb128 0x19
 2388 00bf 01       		.uleb128 0x1
 2389 00c0 13       		.uleb128 0x13
 2390 00c1 00       		.byte	0
 2391 00c2 00       		.byte	0
 2392 00c3 12       		.uleb128 0x12
 2393 00c4 13       		.uleb128 0x13
 2394 00c5 01       		.byte	0x1
 2395 00c6 0B       		.uleb128 0xb
 2396 00c7 0B       		.uleb128 0xb
 2397 00c8 3A       		.uleb128 0x3a
 2398 00c9 0B       		.uleb128 0xb
 2399 00ca 3B       		.uleb128 0x3b
 2400 00cb 05       		.uleb128 0x5
 2401 00cc 01       		.uleb128 0x1
 2402 00cd 13       		.uleb128 0x13
 2403 00ce 00       		.byte	0
 2404 00cf 00       		.byte	0
 2405 00d0 13       		.uleb128 0x13
 2406 00d1 0D       		.uleb128 0xd
 2407 00d2 00       		.byte	0
 2408 00d3 03       		.uleb128 0x3
 2409 00d4 08       		.uleb128 0x8
 2410 00d5 3A       		.uleb128 0x3a
 2411 00d6 0B       		.uleb128 0xb
 2412 00d7 3B       		.uleb128 0x3b
 2413 00d8 05       		.uleb128 0x5
 2414 00d9 49       		.uleb128 0x49
 2415 00da 13       		.uleb128 0x13
 2416 00db 38       		.uleb128 0x38
 2417 00dc 0B       		.uleb128 0xb
 2418 00dd 00       		.byte	0
 2419 00de 00       		.byte	0
 2420 00df 14       		.uleb128 0x14
 2421 00e0 0D       		.uleb128 0xd
 2422 00e1 00       		.byte	0
 2423 00e2 03       		.uleb128 0x3
 2424 00e3 0E       		.uleb128 0xe
 2425 00e4 3A       		.uleb128 0x3a
 2426 00e5 0B       		.uleb128 0xb
 2427 00e6 3B       		.uleb128 0x3b
 2428 00e7 05       		.uleb128 0x5
 2429 00e8 49       		.uleb128 0x49
 2430 00e9 13       		.uleb128 0x13
 2431 00ea 38       		.uleb128 0x38
 2432 00eb 0B       		.uleb128 0xb
 2433 00ec 00       		.byte	0
 2434 00ed 00       		.byte	0
 2435 00ee 15       		.uleb128 0x15
 2436 00ef 01       		.uleb128 0x1
 2437 00f0 01       		.byte	0x1
ARM GAS  /var/folders/qh/xwg3v3kj02qbxczjpdb8lzfr0000gn/T//ccm4bCOm.s 			page 44


 2438 00f1 49       		.uleb128 0x49
 2439 00f2 13       		.uleb128 0x13
 2440 00f3 01       		.uleb128 0x1
 2441 00f4 13       		.uleb128 0x13
 2442 00f5 00       		.byte	0
 2443 00f6 00       		.byte	0
 2444 00f7 16       		.uleb128 0x16
 2445 00f8 21       		.uleb128 0x21
 2446 00f9 00       		.byte	0
 2447 00fa 49       		.uleb128 0x49
 2448 00fb 13       		.uleb128 0x13
 2449 00fc 2F       		.uleb128 0x2f
 2450 00fd 0B       		.uleb128 0xb
 2451 00fe 00       		.byte	0
 2452 00ff 00       		.byte	0
 2453 0100 17       		.uleb128 0x17
 2454 0101 16       		.uleb128 0x16
 2455 0102 00       		.byte	0
 2456 0103 03       		.uleb128 0x3
 2457 0104 0E       		.uleb128 0xe
 2458 0105 3A       		.uleb128 0x3a
 2459 0106 0B       		.uleb128 0xb
 2460 0107 3B       		.uleb128 0x3b
 2461 0108 05       		.uleb128 0x5
 2462 0109 49       		.uleb128 0x49
 2463 010a 13       		.uleb128 0x13
 2464 010b 00       		.byte	0
 2465 010c 00       		.byte	0
 2466 010d 18       		.uleb128 0x18
 2467 010e 04       		.uleb128 0x4
 2468 010f 01       		.byte	0x1
 2469 0110 0B       		.uleb128 0xb
 2470 0111 0B       		.uleb128 0xb
 2471 0112 3A       		.uleb128 0x3a
 2472 0113 0B       		.uleb128 0xb
 2473 0114 3B       		.uleb128 0x3b
 2474 0115 0B       		.uleb128 0xb
 2475 0116 01       		.uleb128 0x1
 2476 0117 13       		.uleb128 0x13
 2477 0118 00       		.byte	0
 2478 0119 00       		.byte	0
 2479 011a 19       		.uleb128 0x19
 2480 011b 28       		.uleb128 0x28
 2481 011c 00       		.byte	0
 2482 011d 03       		.uleb128 0x3
 2483 011e 0E       		.uleb128 0xe
 2484 011f 1C       		.uleb128 0x1c
 2485 0120 0D       		.uleb128 0xd
 2486 0121 00       		.byte	0
 2487 0122 00       		.byte	0
 2488 0123 1A       		.uleb128 0x1a
 2489 0124 0D       		.uleb128 0xd
 2490 0125 00       		.byte	0
 2491 0126 03       		.uleb128 0x3
 2492 0127 0E       		.uleb128 0xe
 2493 0128 49       		.uleb128 0x49
 2494 0129 13       		.uleb128 0x13
ARM GAS  /var/folders/qh/xwg3v3kj02qbxczjpdb8lzfr0000gn/T//ccm4bCOm.s 			page 45


 2495 012a 38       		.uleb128 0x38
 2496 012b 0B       		.uleb128 0xb
 2497 012c 34       		.uleb128 0x34
 2498 012d 19       		.uleb128 0x19
 2499 012e 00       		.byte	0
 2500 012f 00       		.byte	0
 2501 0130 1B       		.uleb128 0x1b
 2502 0131 2E       		.uleb128 0x2e
 2503 0132 01       		.byte	0x1
 2504 0133 03       		.uleb128 0x3
 2505 0134 0E       		.uleb128 0xe
 2506 0135 3A       		.uleb128 0x3a
 2507 0136 0B       		.uleb128 0xb
 2508 0137 3B       		.uleb128 0x3b
 2509 0138 0B       		.uleb128 0xb
 2510 0139 27       		.uleb128 0x27
 2511 013a 19       		.uleb128 0x19
 2512 013b 20       		.uleb128 0x20
 2513 013c 0B       		.uleb128 0xb
 2514 013d 01       		.uleb128 0x1
 2515 013e 13       		.uleb128 0x13
 2516 013f 00       		.byte	0
 2517 0140 00       		.byte	0
 2518 0141 1C       		.uleb128 0x1c
 2519 0142 05       		.uleb128 0x5
 2520 0143 00       		.byte	0
 2521 0144 03       		.uleb128 0x3
 2522 0145 08       		.uleb128 0x8
 2523 0146 3A       		.uleb128 0x3a
 2524 0147 0B       		.uleb128 0xb
 2525 0148 3B       		.uleb128 0x3b
 2526 0149 0B       		.uleb128 0xb
 2527 014a 49       		.uleb128 0x49
 2528 014b 13       		.uleb128 0x13
 2529 014c 00       		.byte	0
 2530 014d 00       		.byte	0
 2531 014e 1D       		.uleb128 0x1d
 2532 014f 18       		.uleb128 0x18
 2533 0150 00       		.byte	0
 2534 0151 00       		.byte	0
 2535 0152 00       		.byte	0
 2536 0153 1E       		.uleb128 0x1e
 2537 0154 34       		.uleb128 0x34
 2538 0155 00       		.byte	0
 2539 0156 03       		.uleb128 0x3
 2540 0157 08       		.uleb128 0x8
 2541 0158 3A       		.uleb128 0x3a
 2542 0159 0B       		.uleb128 0xb
 2543 015a 3B       		.uleb128 0x3b
 2544 015b 0B       		.uleb128 0xb
 2545 015c 49       		.uleb128 0x49
 2546 015d 13       		.uleb128 0x13
 2547 015e 00       		.byte	0
 2548 015f 00       		.byte	0
 2549 0160 1F       		.uleb128 0x1f
 2550 0161 2E       		.uleb128 0x2e
 2551 0162 01       		.byte	0x1
ARM GAS  /var/folders/qh/xwg3v3kj02qbxczjpdb8lzfr0000gn/T//ccm4bCOm.s 			page 46


 2552 0163 3F       		.uleb128 0x3f
 2553 0164 19       		.uleb128 0x19
 2554 0165 03       		.uleb128 0x3
 2555 0166 0E       		.uleb128 0xe
 2556 0167 3A       		.uleb128 0x3a
 2557 0168 0B       		.uleb128 0xb
 2558 0169 3B       		.uleb128 0x3b
 2559 016a 0B       		.uleb128 0xb
 2560 016b 27       		.uleb128 0x27
 2561 016c 19       		.uleb128 0x19
 2562 016d 11       		.uleb128 0x11
 2563 016e 01       		.uleb128 0x1
 2564 016f 12       		.uleb128 0x12
 2565 0170 06       		.uleb128 0x6
 2566 0171 40       		.uleb128 0x40
 2567 0172 18       		.uleb128 0x18
 2568 0173 9742     		.uleb128 0x2117
 2569 0175 19       		.uleb128 0x19
 2570 0176 01       		.uleb128 0x1
 2571 0177 13       		.uleb128 0x13
 2572 0178 00       		.byte	0
 2573 0179 00       		.byte	0
 2574 017a 20       		.uleb128 0x20
 2575 017b 05       		.uleb128 0x5
 2576 017c 00       		.byte	0
 2577 017d 03       		.uleb128 0x3
 2578 017e 0E       		.uleb128 0xe
 2579 017f 3A       		.uleb128 0x3a
 2580 0180 0B       		.uleb128 0xb
 2581 0181 3B       		.uleb128 0x3b
 2582 0182 0B       		.uleb128 0xb
 2583 0183 49       		.uleb128 0x49
 2584 0184 13       		.uleb128 0x13
 2585 0185 02       		.uleb128 0x2
 2586 0186 18       		.uleb128 0x18
 2587 0187 00       		.byte	0
 2588 0188 00       		.byte	0
 2589 0189 21       		.uleb128 0x21
 2590 018a 05       		.uleb128 0x5
 2591 018b 00       		.byte	0
 2592 018c 03       		.uleb128 0x3
 2593 018d 08       		.uleb128 0x8
 2594 018e 3A       		.uleb128 0x3a
 2595 018f 0B       		.uleb128 0xb
 2596 0190 3B       		.uleb128 0x3b
 2597 0191 0B       		.uleb128 0xb
 2598 0192 49       		.uleb128 0x49
 2599 0193 13       		.uleb128 0x13
 2600 0194 02       		.uleb128 0x2
 2601 0195 18       		.uleb128 0x18
 2602 0196 00       		.byte	0
 2603 0197 00       		.byte	0
 2604 0198 22       		.uleb128 0x22
 2605 0199 05       		.uleb128 0x5
 2606 019a 00       		.byte	0
 2607 019b 03       		.uleb128 0x3
 2608 019c 0E       		.uleb128 0xe
ARM GAS  /var/folders/qh/xwg3v3kj02qbxczjpdb8lzfr0000gn/T//ccm4bCOm.s 			page 47


 2609 019d 3A       		.uleb128 0x3a
 2610 019e 0B       		.uleb128 0xb
 2611 019f 3B       		.uleb128 0x3b
 2612 01a0 0B       		.uleb128 0xb
 2613 01a1 49       		.uleb128 0x49
 2614 01a2 13       		.uleb128 0x13
 2615 01a3 02       		.uleb128 0x2
 2616 01a4 17       		.uleb128 0x17
 2617 01a5 00       		.byte	0
 2618 01a6 00       		.byte	0
 2619 01a7 23       		.uleb128 0x23
 2620 01a8 05       		.uleb128 0x5
 2621 01a9 00       		.byte	0
 2622 01aa 03       		.uleb128 0x3
 2623 01ab 08       		.uleb128 0x8
 2624 01ac 3A       		.uleb128 0x3a
 2625 01ad 0B       		.uleb128 0xb
 2626 01ae 3B       		.uleb128 0x3b
 2627 01af 0B       		.uleb128 0xb
 2628 01b0 49       		.uleb128 0x49
 2629 01b1 13       		.uleb128 0x13
 2630 01b2 02       		.uleb128 0x2
 2631 01b3 17       		.uleb128 0x17
 2632 01b4 00       		.byte	0
 2633 01b5 00       		.byte	0
 2634 01b6 24       		.uleb128 0x24
 2635 01b7 898201   		.uleb128 0x4109
 2636 01ba 00       		.byte	0
 2637 01bb 11       		.uleb128 0x11
 2638 01bc 01       		.uleb128 0x1
 2639 01bd 31       		.uleb128 0x31
 2640 01be 13       		.uleb128 0x13
 2641 01bf 00       		.byte	0
 2642 01c0 00       		.byte	0
 2643 01c1 25       		.uleb128 0x25
 2644 01c2 898201   		.uleb128 0x4109
 2645 01c5 01       		.byte	0x1
 2646 01c6 11       		.uleb128 0x11
 2647 01c7 01       		.uleb128 0x1
 2648 01c8 31       		.uleb128 0x31
 2649 01c9 13       		.uleb128 0x13
 2650 01ca 00       		.byte	0
 2651 01cb 00       		.byte	0
 2652 01cc 26       		.uleb128 0x26
 2653 01cd 8A8201   		.uleb128 0x410a
 2654 01d0 00       		.byte	0
 2655 01d1 02       		.uleb128 0x2
 2656 01d2 18       		.uleb128 0x18
 2657 01d3 9142     		.uleb128 0x2111
 2658 01d5 18       		.uleb128 0x18
 2659 01d6 00       		.byte	0
 2660 01d7 00       		.byte	0
 2661 01d8 27       		.uleb128 0x27
 2662 01d9 2E       		.uleb128 0x2e
 2663 01da 01       		.byte	0x1
 2664 01db 31       		.uleb128 0x31
 2665 01dc 13       		.uleb128 0x13
ARM GAS  /var/folders/qh/xwg3v3kj02qbxczjpdb8lzfr0000gn/T//ccm4bCOm.s 			page 48


 2666 01dd 11       		.uleb128 0x11
 2667 01de 01       		.uleb128 0x1
 2668 01df 12       		.uleb128 0x12
 2669 01e0 06       		.uleb128 0x6
 2670 01e1 40       		.uleb128 0x40
 2671 01e2 18       		.uleb128 0x18
 2672 01e3 9742     		.uleb128 0x2117
 2673 01e5 19       		.uleb128 0x19
 2674 01e6 01       		.uleb128 0x1
 2675 01e7 13       		.uleb128 0x13
 2676 01e8 00       		.byte	0
 2677 01e9 00       		.byte	0
 2678 01ea 28       		.uleb128 0x28
 2679 01eb 05       		.uleb128 0x5
 2680 01ec 00       		.byte	0
 2681 01ed 31       		.uleb128 0x31
 2682 01ee 13       		.uleb128 0x13
 2683 01ef 02       		.uleb128 0x2
 2684 01f0 17       		.uleb128 0x17
 2685 01f1 00       		.byte	0
 2686 01f2 00       		.byte	0
 2687 01f3 29       		.uleb128 0x29
 2688 01f4 05       		.uleb128 0x5
 2689 01f5 00       		.byte	0
 2690 01f6 31       		.uleb128 0x31
 2691 01f7 13       		.uleb128 0x13
 2692 01f8 02       		.uleb128 0x2
 2693 01f9 18       		.uleb128 0x18
 2694 01fa 00       		.byte	0
 2695 01fb 00       		.byte	0
 2696 01fc 2A       		.uleb128 0x2a
 2697 01fd 34       		.uleb128 0x34
 2698 01fe 00       		.byte	0
 2699 01ff 31       		.uleb128 0x31
 2700 0200 13       		.uleb128 0x13
 2701 0201 02       		.uleb128 0x2
 2702 0202 18       		.uleb128 0x18
 2703 0203 00       		.byte	0
 2704 0204 00       		.byte	0
 2705 0205 2B       		.uleb128 0x2b
 2706 0206 05       		.uleb128 0x5
 2707 0207 00       		.byte	0
 2708 0208 31       		.uleb128 0x31
 2709 0209 13       		.uleb128 0x13
 2710 020a 00       		.byte	0
 2711 020b 00       		.byte	0
 2712 020c 2C       		.uleb128 0x2c
 2713 020d 2E       		.uleb128 0x2e
 2714 020e 01       		.byte	0x1
 2715 020f 3F       		.uleb128 0x3f
 2716 0210 19       		.uleb128 0x19
 2717 0211 03       		.uleb128 0x3
 2718 0212 0E       		.uleb128 0xe
 2719 0213 3A       		.uleb128 0x3a
 2720 0214 0B       		.uleb128 0xb
 2721 0215 3B       		.uleb128 0x3b
 2722 0216 0B       		.uleb128 0xb
ARM GAS  /var/folders/qh/xwg3v3kj02qbxczjpdb8lzfr0000gn/T//ccm4bCOm.s 			page 49


 2723 0217 27       		.uleb128 0x27
 2724 0218 19       		.uleb128 0x19
 2725 0219 49       		.uleb128 0x49
 2726 021a 13       		.uleb128 0x13
 2727 021b 11       		.uleb128 0x11
 2728 021c 01       		.uleb128 0x1
 2729 021d 12       		.uleb128 0x12
 2730 021e 06       		.uleb128 0x6
 2731 021f 40       		.uleb128 0x40
 2732 0220 18       		.uleb128 0x18
 2733 0221 9742     		.uleb128 0x2117
 2734 0223 19       		.uleb128 0x19
 2735 0224 01       		.uleb128 0x1
 2736 0225 13       		.uleb128 0x13
 2737 0226 00       		.byte	0
 2738 0227 00       		.byte	0
 2739 0228 2D       		.uleb128 0x2d
 2740 0229 898201   		.uleb128 0x4109
 2741 022c 01       		.byte	0x1
 2742 022d 11       		.uleb128 0x11
 2743 022e 01       		.uleb128 0x1
 2744 022f 31       		.uleb128 0x31
 2745 0230 13       		.uleb128 0x13
 2746 0231 01       		.uleb128 0x1
 2747 0232 13       		.uleb128 0x13
 2748 0233 00       		.byte	0
 2749 0234 00       		.byte	0
 2750 0235 2E       		.uleb128 0x2e
 2751 0236 34       		.uleb128 0x34
 2752 0237 00       		.byte	0
 2753 0238 03       		.uleb128 0x3
 2754 0239 0E       		.uleb128 0xe
 2755 023a 3A       		.uleb128 0x3a
 2756 023b 0B       		.uleb128 0xb
 2757 023c 3B       		.uleb128 0x3b
 2758 023d 05       		.uleb128 0x5
 2759 023e 49       		.uleb128 0x49
 2760 023f 13       		.uleb128 0x13
 2761 0240 3F       		.uleb128 0x3f
 2762 0241 19       		.uleb128 0x19
 2763 0242 3C       		.uleb128 0x3c
 2764 0243 19       		.uleb128 0x19
 2765 0244 00       		.byte	0
 2766 0245 00       		.byte	0
 2767 0246 2F       		.uleb128 0x2f
 2768 0247 34       		.uleb128 0x34
 2769 0248 00       		.byte	0
 2770 0249 03       		.uleb128 0x3
 2771 024a 08       		.uleb128 0x8
 2772 024b 3A       		.uleb128 0x3a
 2773 024c 0B       		.uleb128 0xb
 2774 024d 3B       		.uleb128 0x3b
 2775 024e 05       		.uleb128 0x5
 2776 024f 49       		.uleb128 0x49
 2777 0250 13       		.uleb128 0x13
 2778 0251 3F       		.uleb128 0x3f
 2779 0252 19       		.uleb128 0x19
ARM GAS  /var/folders/qh/xwg3v3kj02qbxczjpdb8lzfr0000gn/T//ccm4bCOm.s 			page 50


 2780 0253 3C       		.uleb128 0x3c
 2781 0254 19       		.uleb128 0x19
 2782 0255 00       		.byte	0
 2783 0256 00       		.byte	0
 2784 0257 30       		.uleb128 0x30
 2785 0258 34       		.uleb128 0x34
 2786 0259 00       		.byte	0
 2787 025a 03       		.uleb128 0x3
 2788 025b 0E       		.uleb128 0xe
 2789 025c 3A       		.uleb128 0x3a
 2790 025d 0B       		.uleb128 0xb
 2791 025e 3B       		.uleb128 0x3b
 2792 025f 0B       		.uleb128 0xb
 2793 0260 49       		.uleb128 0x49
 2794 0261 13       		.uleb128 0x13
 2795 0262 3F       		.uleb128 0x3f
 2796 0263 19       		.uleb128 0x19
 2797 0264 02       		.uleb128 0x2
 2798 0265 18       		.uleb128 0x18
 2799 0266 00       		.byte	0
 2800 0267 00       		.byte	0
 2801 0268 31       		.uleb128 0x31
 2802 0269 34       		.uleb128 0x34
 2803 026a 00       		.byte	0
 2804 026b 03       		.uleb128 0x3
 2805 026c 08       		.uleb128 0x8
 2806 026d 3A       		.uleb128 0x3a
 2807 026e 0B       		.uleb128 0xb
 2808 026f 3B       		.uleb128 0x3b
 2809 0270 0B       		.uleb128 0xb
 2810 0271 49       		.uleb128 0x49
 2811 0272 13       		.uleb128 0x13
 2812 0273 3F       		.uleb128 0x3f
 2813 0274 19       		.uleb128 0x19
 2814 0275 02       		.uleb128 0x2
 2815 0276 18       		.uleb128 0x18
 2816 0277 00       		.byte	0
 2817 0278 00       		.byte	0
 2818 0279 32       		.uleb128 0x32
 2819 027a 2E       		.uleb128 0x2e
 2820 027b 00       		.byte	0
 2821 027c 3F       		.uleb128 0x3f
 2822 027d 19       		.uleb128 0x19
 2823 027e 03       		.uleb128 0x3
 2824 027f 0E       		.uleb128 0xe
 2825 0280 3A       		.uleb128 0x3a
 2826 0281 0B       		.uleb128 0xb
 2827 0282 3B       		.uleb128 0x3b
 2828 0283 0B       		.uleb128 0xb
 2829 0284 27       		.uleb128 0x27
 2830 0285 19       		.uleb128 0x19
 2831 0286 3C       		.uleb128 0x3c
 2832 0287 19       		.uleb128 0x19
 2833 0288 00       		.byte	0
 2834 0289 00       		.byte	0
 2835 028a 33       		.uleb128 0x33
 2836 028b 2E       		.uleb128 0x2e
ARM GAS  /var/folders/qh/xwg3v3kj02qbxczjpdb8lzfr0000gn/T//ccm4bCOm.s 			page 51


 2837 028c 01       		.byte	0x1
 2838 028d 3F       		.uleb128 0x3f
 2839 028e 19       		.uleb128 0x19
 2840 028f 03       		.uleb128 0x3
 2841 0290 0E       		.uleb128 0xe
 2842 0291 3A       		.uleb128 0x3a
 2843 0292 0B       		.uleb128 0xb
 2844 0293 3B       		.uleb128 0x3b
 2845 0294 0B       		.uleb128 0xb
 2846 0295 27       		.uleb128 0x27
 2847 0296 19       		.uleb128 0x19
 2848 0297 3C       		.uleb128 0x3c
 2849 0298 19       		.uleb128 0x19
 2850 0299 01       		.uleb128 0x1
 2851 029a 13       		.uleb128 0x13
 2852 029b 00       		.byte	0
 2853 029c 00       		.byte	0
 2854 029d 34       		.uleb128 0x34
 2855 029e 2E       		.uleb128 0x2e
 2856 029f 01       		.byte	0x1
 2857 02a0 3F       		.uleb128 0x3f
 2858 02a1 19       		.uleb128 0x19
 2859 02a2 03       		.uleb128 0x3
 2860 02a3 0E       		.uleb128 0xe
 2861 02a4 3A       		.uleb128 0x3a
 2862 02a5 0B       		.uleb128 0xb
 2863 02a6 3B       		.uleb128 0x3b
 2864 02a7 05       		.uleb128 0x5
 2865 02a8 27       		.uleb128 0x27
 2866 02a9 19       		.uleb128 0x19
 2867 02aa 3C       		.uleb128 0x3c
 2868 02ab 19       		.uleb128 0x19
 2869 02ac 01       		.uleb128 0x1
 2870 02ad 13       		.uleb128 0x13
 2871 02ae 00       		.byte	0
 2872 02af 00       		.byte	0
 2873 02b0 35       		.uleb128 0x35
 2874 02b1 2E       		.uleb128 0x2e
 2875 02b2 01       		.byte	0x1
 2876 02b3 3F       		.uleb128 0x3f
 2877 02b4 19       		.uleb128 0x19
 2878 02b5 03       		.uleb128 0x3
 2879 02b6 0E       		.uleb128 0xe
 2880 02b7 3A       		.uleb128 0x3a
 2881 02b8 0B       		.uleb128 0xb
 2882 02b9 3B       		.uleb128 0x3b
 2883 02ba 05       		.uleb128 0x5
 2884 02bb 27       		.uleb128 0x27
 2885 02bc 19       		.uleb128 0x19
 2886 02bd 3C       		.uleb128 0x3c
 2887 02be 19       		.uleb128 0x19
 2888 02bf 00       		.byte	0
 2889 02c0 00       		.byte	0
 2890 02c1 00       		.byte	0
 2891              		.section	.debug_loc,"",%progbits
 2892              	.Ldebug_loc0:
 2893              	.LLST0:
ARM GAS  /var/folders/qh/xwg3v3kj02qbxczjpdb8lzfr0000gn/T//ccm4bCOm.s 			page 52


 2894 0000 00000000 		.4byte	.LVL1
 2895 0004 15000000 		.4byte	.LVL4-1
 2896 0008 0100     		.2byte	0x1
 2897 000a 50       		.byte	0x50
 2898 000b 15000000 		.4byte	.LVL4-1
 2899 000f 2E000000 		.4byte	.LVL7
 2900 0013 0400     		.2byte	0x4
 2901 0015 F3       		.byte	0xf3
 2902 0016 01       		.uleb128 0x1
 2903 0017 50       		.byte	0x50
 2904 0018 9F       		.byte	0x9f
 2905 0019 2E000000 		.4byte	.LVL7
 2906 001d 48000000 		.4byte	.LFE42
 2907 0021 0100     		.2byte	0x1
 2908 0023 50       		.byte	0x50
 2909 0024 00000000 		.4byte	0
 2910 0028 00000000 		.4byte	0
 2911              	.LLST1:
 2912 002c 00000000 		.4byte	.LVL1
 2913 0030 0C000000 		.4byte	.LVL2
 2914 0034 0100     		.2byte	0x1
 2915 0036 51       		.byte	0x51
 2916 0037 0C000000 		.4byte	.LVL2
 2917 003b 2E000000 		.4byte	.LVL7
 2918 003f 0400     		.2byte	0x4
 2919 0041 F3       		.byte	0xf3
 2920 0042 01       		.uleb128 0x1
 2921 0043 51       		.byte	0x51
 2922 0044 9F       		.byte	0x9f
 2923 0045 2E000000 		.4byte	.LVL7
 2924 0049 32000000 		.4byte	.LVL8
 2925 004d 0100     		.2byte	0x1
 2926 004f 51       		.byte	0x51
 2927 0050 32000000 		.4byte	.LVL8
 2928 0054 48000000 		.4byte	.LFE42
 2929 0058 0400     		.2byte	0x4
 2930 005a F3       		.byte	0xf3
 2931 005b 01       		.uleb128 0x1
 2932 005c 51       		.byte	0x51
 2933 005d 9F       		.byte	0x9f
 2934 005e 00000000 		.4byte	0
 2935 0062 00000000 		.4byte	0
 2936              	.LLST2:
 2937 0066 00000000 		.4byte	.LVL1
 2938 006a 0E000000 		.4byte	.LVL3
 2939 006e 0100     		.2byte	0x1
 2940 0070 52       		.byte	0x52
 2941 0071 0E000000 		.4byte	.LVL3
 2942 0075 2E000000 		.4byte	.LVL7
 2943 0079 0400     		.2byte	0x4
 2944 007b F3       		.byte	0xf3
 2945 007c 01       		.uleb128 0x1
 2946 007d 52       		.byte	0x52
 2947 007e 9F       		.byte	0x9f
 2948 007f 2E000000 		.4byte	.LVL7
 2949 0083 34000000 		.4byte	.LVL9
 2950 0087 0100     		.2byte	0x1
ARM GAS  /var/folders/qh/xwg3v3kj02qbxczjpdb8lzfr0000gn/T//ccm4bCOm.s 			page 53


 2951 0089 52       		.byte	0x52
 2952 008a 34000000 		.4byte	.LVL9
 2953 008e 48000000 		.4byte	.LFE42
 2954 0092 0400     		.2byte	0x4
 2955 0094 F3       		.byte	0xf3
 2956 0095 01       		.uleb128 0x1
 2957 0096 52       		.byte	0x52
 2958 0097 9F       		.byte	0x9f
 2959 0098 00000000 		.4byte	0
 2960 009c 00000000 		.4byte	0
 2961              	.LLST3:
 2962 00a0 00000000 		.4byte	.LVL10
 2963 00a4 0A000000 		.4byte	.LVL11
 2964 00a8 0100     		.2byte	0x1
 2965 00aa 50       		.byte	0x50
 2966 00ab 0A000000 		.4byte	.LVL11
 2967 00af 24000000 		.4byte	.LFE45
 2968 00b3 0400     		.2byte	0x4
 2969 00b5 F3       		.byte	0xf3
 2970 00b6 01       		.uleb128 0x1
 2971 00b7 50       		.byte	0x50
 2972 00b8 9F       		.byte	0x9f
 2973 00b9 00000000 		.4byte	0
 2974 00bd 00000000 		.4byte	0
 2975              		.section	.debug_aranges,"",%progbits
 2976 0000 3C000000 		.4byte	0x3c
 2977 0004 0200     		.2byte	0x2
 2978 0006 00000000 		.4byte	.Ldebug_info0
 2979 000a 04       		.byte	0x4
 2980 000b 00       		.byte	0
 2981 000c 0000     		.2byte	0
 2982 000e 0000     		.2byte	0
 2983 0010 00000000 		.4byte	.LFB43
 2984 0014 02000000 		.4byte	.LFE43-.LFB43
 2985 0018 00000000 		.4byte	.LFB42
 2986 001c 48000000 		.4byte	.LFE42-.LFB42
 2987 0020 00000000 		.4byte	.LFB45
 2988 0024 24000000 		.4byte	.LFE45-.LFB45
 2989 0028 00000000 		.4byte	.LFB41
 2990 002c 14000000 		.4byte	.LFE41-.LFB41
 2991 0030 00000000 		.4byte	.LFB44
 2992 0034 28000000 		.4byte	.LFE44-.LFB44
 2993 0038 00000000 		.4byte	0
 2994 003c 00000000 		.4byte	0
 2995              		.section	.debug_ranges,"",%progbits
 2996              	.Ldebug_ranges0:
 2997 0000 00000000 		.4byte	.LFB43
 2998 0004 02000000 		.4byte	.LFE43
 2999 0008 00000000 		.4byte	.LFB42
 3000 000c 48000000 		.4byte	.LFE42
 3001 0010 00000000 		.4byte	.LFB45
 3002 0014 24000000 		.4byte	.LFE45
 3003 0018 00000000 		.4byte	.LFB41
 3004 001c 14000000 		.4byte	.LFE41
 3005 0020 00000000 		.4byte	.LFB44
 3006 0024 28000000 		.4byte	.LFE44
 3007 0028 00000000 		.4byte	0
ARM GAS  /var/folders/qh/xwg3v3kj02qbxczjpdb8lzfr0000gn/T//ccm4bCOm.s 			page 54


 3008 002c 00000000 		.4byte	0
 3009              		.section	.debug_line,"",%progbits
 3010              	.Ldebug_line0:
 3011 0000 E4020000 		.section	.debug_str,"MS",%progbits,1
 3011      02007A02 
 3011      00000201 
 3011      FB0E0D00 
 3011      01010101 
 3012              	.LASF47:
 3013 0000 54687265 		.ascii	"ThreadsList\000"
 3013      6164734C 
 3013      69737400 
 3014              	.LASF39:
 3015 000c 705F7761 		.ascii	"p_waiting\000"
 3015      6974696E 
 3015      6700
 3016              	.LASF151:
 3017 0016 53657269 		.ascii	"SerialDriver\000"
 3017      616C4472 
 3017      69766572 
 3017      00
 3018              	.LASF38:
 3019 0023 705F7469 		.ascii	"p_time\000"
 3019      6D6500
 3020              	.LASF178:
 3021 002a 63687670 		.ascii	"chvprintf\000"
 3021      72696E74 
 3021      6600
 3022              	.LASF48:
 3023 0034 72656761 		.ascii	"regarm_t\000"
 3023      726D5F74 
 3023      00
 3024              	.LASF29:
 3025 003d 705F7072 		.ascii	"p_prio\000"
 3025      696F00
 3026              	.LASF134:
 3027 0044 646D616D 		.ascii	"dmamode\000"
 3027      6F646500 
 3028              	.LASF181:
 3029 004c 636D6461 		.ascii	"cmdadc.c\000"
 3029      64632E63 
 3029      00
 3030              	.LASF24:
 3031 0055 73797374 		.ascii	"systime_t\000"
 3031      696D655F 
 3031      7400
 3032              	.LASF169:
 3033 005f 62756666 		.ascii	"buffer\000"
 3033      657200
 3034              	.LASF59:
 3035 0066 6D5F6F77 		.ascii	"m_owner\000"
 3035      6E657200 
 3036              	.LASF53:
 3037 006e 735F7175 		.ascii	"s_queue\000"
 3037      65756500 
 3038              	.LASF40:
 3039 0076 705F6D73 		.ascii	"p_msgqueue\000"
ARM GAS  /var/folders/qh/xwg3v3kj02qbxczjpdb8lzfr0000gn/T//ccm4bCOm.s 			page 55


 3039      67717565 
 3039      756500
 3040              	.LASF124:
 3041 0081 61646365 		.ascii	"adcerror_t\000"
 3041      72726F72 
 3041      5F7400
 3042              	.LASF0:
 3043 008c 756E7369 		.ascii	"unsigned int\000"
 3043      676E6564 
 3043      20696E74 
 3043      00
 3044              	.LASF79:
 3045 0099 715F7264 		.ascii	"q_rdptr\000"
 3045      70747200 
 3046              	.LASF82:
 3047 00a1 716E6F74 		.ascii	"qnotify_t\000"
 3047      6966795F 
 3047      7400
 3048              	.LASF64:
 3049 00ab 656C5F6D 		.ascii	"el_mask\000"
 3049      61736B00 
 3050              	.LASF85:
 3051 00b3 42617365 		.ascii	"BaseSequentialStreamVMT\000"
 3051      53657175 
 3051      656E7469 
 3051      616C5374 
 3051      7265616D 
 3052              	.LASF145:
 3053 00cb 64756D6D 		.ascii	"dummy\000"
 3053      7900
 3054              	.LASF100:
 3055 00d1 434D4152 		.ascii	"CMAR\000"
 3055      00
 3056              	.LASF140:
 3057 00d6 6572726F 		.ascii	"error_cb\000"
 3057      725F6362 
 3057      00
 3058              	.LASF70:
 3059 00df 77746F62 		.ascii	"wtobjp\000"
 3059      6A7000
 3060              	.LASF81:
 3061 00e6 715F6C69 		.ascii	"q_link\000"
 3061      6E6B00
 3062              	.LASF101:
 3063 00ed 444D415F 		.ascii	"DMA_Channel_TypeDef\000"
 3063      4368616E 
 3063      6E656C5F 
 3063      54797065 
 3063      44656600 
 3064              	.LASF180:
 3065 0101 474E5520 		.ascii	"GNU C 4.8.3 20131129 (release) [ARM/embedded-4_8-br"
 3065      4320342E 
 3065      382E3320 
 3065      32303133 
 3065      31313239 
 3066 0134 616E6368 		.ascii	"anch revision 205641] -mcpu=cortex-m0 -mno-thumb-in"
 3066      20726576 
ARM GAS  /var/folders/qh/xwg3v3kj02qbxczjpdb8lzfr0000gn/T//ccm4bCOm.s 			page 56


 3066      6973696F 
 3066      6E203230 
 3066      35363431 
 3067 0167 74657277 		.ascii	"terwork -mthumb -ggdb -O2 -fomit-frame-pointer -fal"
 3067      6F726B20 
 3067      2D6D7468 
 3067      756D6220 
 3067      2D676764 
 3068 019a 69676E2D 		.ascii	"ign-functions=16 -ffunction-sections -fdata-section"
 3068      66756E63 
 3068      74696F6E 
 3068      733D3136 
 3068      202D6666 
 3069 01cd 73202D66 		.ascii	"s -fno-common\000"
 3069      6E6F2D63 
 3069      6F6D6D6F 
 3069      6E00
 3070              	.LASF71:
 3071 01db 65776D61 		.ascii	"ewmask\000"
 3071      736B00
 3072              	.LASF160:
 3073 01e2 77726974 		.ascii	"writet\000"
 3073      657400
 3074              	.LASF98:
 3075 01e9 434E4454 		.ascii	"CNDTR\000"
 3075      5200
 3076              	.LASF54:
 3077 01ef 735F636E 		.ascii	"s_cnt\000"
 3077      7400
 3078              	.LASF102:
 3079 01f5 47545052 		.ascii	"GTPR\000"
 3079      00
 3080              	.LASF153:
 3081 01fa 69717565 		.ascii	"iqueue\000"
 3081      756500
 3082              	.LASF177:
 3083 0201 63685365 		.ascii	"chSemResetI\000"
 3083      6D526573 
 3083      65744900 
 3084              	.LASF10:
 3085 020d 75696E74 		.ascii	"uint32_t\000"
 3085      33325F74 
 3085      00
 3086              	.LASF136:
 3087 0216 61646365 		.ascii	"adcerrorcallback_t\000"
 3087      72726F72 
 3087      63616C6C 
 3087      6261636B 
 3087      5F7400
 3088              	.LASF22:
 3089 0229 6576656E 		.ascii	"eventmask_t\000"
 3089      746D6173 
 3089      6B5F7400 
 3090              	.LASF107:
 3091 0235 69666372 		.ascii	"ifcr\000"
 3091      00
 3092              	.LASF132:
ARM GAS  /var/folders/qh/xwg3v3kj02qbxczjpdb8lzfr0000gn/T//ccm4bCOm.s 			page 57


 3093 023a 6D757465 		.ascii	"mutex\000"
 3093      7800
 3094              	.LASF150:
 3095 0240 73647374 		.ascii	"sdstate_t\000"
 3095      6174655F 
 3095      7400
 3096              	.LASF152:
 3097 024a 6576656E 		.ascii	"event\000"
 3097      7400
 3098              	.LASF20:
 3099 0250 74707269 		.ascii	"tprio_t\000"
 3099      6F5F7400 
 3100              	.LASF139:
 3101 0258 656E645F 		.ascii	"end_cb\000"
 3101      636200
 3102              	.LASF137:
 3103 025f 63697263 		.ascii	"circular\000"
 3103      756C6172 
 3103      00
 3104              	.LASF13:
 3105 0268 6C6F6E67 		.ascii	"long long unsigned int\000"
 3105      206C6F6E 
 3105      6720756E 
 3105      7369676E 
 3105      65642069 
 3106              	.LASF176:
 3107 027f 6462675F 		.ascii	"dbg_check_unlock_from_isr\000"
 3107      63686563 
 3107      6B5F756E 
 3107      6C6F636B 
 3107      5F66726F 
 3108              	.LASF110:
 3109 0299 76656374 		.ascii	"vector\000"
 3109      6F7200
 3110              	.LASF25:
 3111 02a0 636E745F 		.ascii	"cnt_t\000"
 3111      7400
 3112              	.LASF95:
 3113 02a6 43485345 		.ascii	"CHSELR\000"
 3113      4C5200
 3114              	.LASF31:
 3115 02ad 705F6E65 		.ascii	"p_newer\000"
 3115      77657200 
 3116              	.LASF172:
 3117 02b5 76616C75 		.ascii	"value\000"
 3117      6500
 3118              	.LASF74:
 3119 02bb 715F7761 		.ascii	"q_waiting\000"
 3119      6974696E 
 3119      6700
 3120              	.LASF99:
 3121 02c5 43504152 		.ascii	"CPAR\000"
 3121      00
 3122              	.LASF162:
 3123 02ca 5F5F676E 		.ascii	"__gnuc_va_list\000"
 3123      75635F76 
 3123      615F6C69 
ARM GAS  /var/folders/qh/xwg3v3kj02qbxczjpdb8lzfr0000gn/T//ccm4bCOm.s 			page 58


 3123      737400
 3124              	.LASF158:
 3125 02d9 70757474 		.ascii	"putt\000"
 3125      00
 3126              	.LASF182:
 3127 02de 2F557365 		.ascii	"/Users/John/Development/embedded/ChibiOS-RT/BluC/ST"
 3127      72732F4A 
 3127      6F686E2F 
 3127      44657665 
 3127      6C6F706D 
 3128 0311 4D333246 		.ascii	"M32F051\000"
 3128      30353100 
 3129              	.LASF2:
 3130 0319 73697A65 		.ascii	"size_t\000"
 3130      5F7400
 3131              	.LASF68:
 3132 0320 7264796D 		.ascii	"rdymsg\000"
 3132      736700
 3133              	.LASF91:
 3134 0327 534D5052 		.ascii	"SMPR\000"
 3134      00
 3135              	.LASF14:
 3136 032c 626F6F6C 		.ascii	"bool_t\000"
 3136      5F7400
 3137              	.LASF15:
 3138 0333 5F426F6F 		.ascii	"_Bool\000"
 3138      6C00
 3139              	.LASF148:
 3140 0339 53445F53 		.ascii	"SD_STOP\000"
 3140      544F5000 
 3141              	.LASF123:
 3142 0341 4144435F 		.ascii	"ADC_ERR_AWD\000"
 3142      4552525F 
 3142      41574400 
 3143              	.LASF105:
 3144 034d 55534152 		.ascii	"USART_TypeDef\000"
 3144      545F5479 
 3144      70654465 
 3144      6600
 3145              	.LASF57:
 3146 035b 4D757465 		.ascii	"Mutex\000"
 3146      7800
 3147              	.LASF84:
 3148 0361 4F757470 		.ascii	"OutputQueue\000"
 3148      75745175 
 3148      65756500 
 3149              	.LASF80:
 3150 036d 715F6E6F 		.ascii	"q_notify\000"
 3150      74696679 
 3150      00
 3151              	.LASF133:
 3152 0376 646D6173 		.ascii	"dmastp\000"
 3152      747000
 3153              	.LASF183:
 3154 037d 63687072 		.ascii	"chprintf\000"
 3154      696E7466 
 3154      00
ARM GAS  /var/folders/qh/xwg3v3kj02qbxczjpdb8lzfr0000gn/T//ccm4bCOm.s 			page 59


 3155              	.LASF116:
 3156 0386 4144435F 		.ascii	"ADC_COMPLETE\000"
 3156      434F4D50 
 3156      4C455445 
 3156      00
 3157              	.LASF156:
 3158 0393 636C6F63 		.ascii	"clock\000"
 3158      6B00
 3159              	.LASF117:
 3160 0399 4144435F 		.ascii	"ADC_ERROR\000"
 3160      4552524F 
 3160      5200
 3161              	.LASF125:
 3162 03a3 41444344 		.ascii	"ADCDriver\000"
 3162      72697665 
 3162      7200
 3163              	.LASF33:
 3164 03ad 705F6E61 		.ascii	"p_name\000"
 3164      6D6500
 3165              	.LASF88:
 3166 03b4 42617365 		.ascii	"BaseSequentialStream\000"
 3166      53657175 
 3166      656E7469 
 3166      616C5374 
 3166      7265616D 
 3167              	.LASF83:
 3168 03c9 496E7075 		.ascii	"InputQueue\000"
 3168      74517565 
 3168      756500
 3169              	.LASF46:
 3170 03d4 54687265 		.ascii	"ThreadsQueue\000"
 3170      61647351 
 3170      75657565 
 3170      00
 3171              	.LASF72:
 3172 03e1 63686172 		.ascii	"char\000"
 3172      00
 3173              	.LASF78:
 3174 03e6 715F7772 		.ascii	"q_wrptr\000"
 3174      70747200 
 3175              	.LASF108:
 3176 03ee 69736869 		.ascii	"ishift\000"
 3176      667400
 3177              	.LASF26:
 3178 03f5 54687265 		.ascii	"Thread\000"
 3178      616400
 3179              	.LASF17:
 3180 03fc 74737461 		.ascii	"tstate_t\000"
 3180      74655F74 
 3180      00
 3181              	.LASF168:
 3182 0405 61646343 		.ascii	"adcCallBack\000"
 3182      616C6C42 
 3182      61636B00 
 3183              	.LASF111:
 3184 0411 73746D33 		.ascii	"stm32_dma_stream_t\000"
 3184      325F646D 
ARM GAS  /var/folders/qh/xwg3v3kj02qbxczjpdb8lzfr0000gn/T//ccm4bCOm.s 			page 60


 3184      615F7374 
 3184      7265616D 
 3184      5F7400
 3185              	.LASF32:
 3186 0424 705F6F6C 		.ascii	"p_older\000"
 3186      64657200 
 3187              	.LASF34:
 3188 042c 705F7374 		.ascii	"p_state\000"
 3188      61746500 
 3189              	.LASF3:
 3190 0434 75696E74 		.ascii	"uint8_t\000"
 3190      385F7400 
 3191              	.LASF23:
 3192 043c 666C6167 		.ascii	"flagsmask_t\000"
 3192      736D6173 
 3192      6B5F7400 
 3193              	.LASF103:
 3194 0448 52544F52 		.ascii	"RTOR\000"
 3194      00
 3195              	.LASF45:
 3196 044d 705F6D70 		.ascii	"p_mpool\000"
 3196      6F6F6C00 
 3197              	.LASF43:
 3198 0455 705F6D74 		.ascii	"p_mtxlist\000"
 3198      786C6973 
 3198      7400
 3199              	.LASF155:
 3200 045f 75736172 		.ascii	"usart\000"
 3200      7400
 3201              	.LASF165:
 3202 0465 76615F6C 		.ascii	"va_list\000"
 3202      69737400 
 3203              	.LASF128:
 3204 046d 73616D70 		.ascii	"samples\000"
 3204      6C657300 
 3205              	.LASF12:
 3206 0475 6C6F6E67 		.ascii	"long long int\000"
 3206      206C6F6E 
 3206      6720696E 
 3206      7400
 3207              	.LASF86:
 3208 0483 77726974 		.ascii	"write\000"
 3208      6500
 3209              	.LASF76:
 3210 0489 715F6275 		.ascii	"q_buffer\000"
 3210      66666572 
 3210      00
 3211              	.LASF142:
 3212 0492 736D7072 		.ascii	"smpr\000"
 3212      00
 3213              	.LASF129:
 3214 0497 64657074 		.ascii	"depth\000"
 3214      6800
 3215              	.LASF21:
 3216 049d 6D73675F 		.ascii	"msg_t\000"
 3216      7400
 3217              	.LASF50:
ARM GAS  /var/folders/qh/xwg3v3kj02qbxczjpdb8lzfr0000gn/T//ccm4bCOm.s 			page 61


 3218 04a3 636F6E74 		.ascii	"context\000"
 3218      65787400 
 3219              	.LASF174:
 3220 04ab 61646353 		.ascii	"adcSettings\000"
 3220      65747469 
 3220      6E677300 
 3221              	.LASF146:
 3222 04b7 41444343 		.ascii	"ADCConfig\000"
 3222      6F6E6669 
 3222      6700
 3223              	.LASF135:
 3224 04c1 61646363 		.ascii	"adccallback_t\000"
 3224      616C6C62 
 3224      61636B5F 
 3224      7400
 3225              	.LASF35:
 3226 04cf 705F666C 		.ascii	"p_flags\000"
 3226      61677300 
 3227              	.LASF164:
 3228 04d7 5F5F6170 		.ascii	"__ap\000"
 3228      00
 3229              	.LASF19:
 3230 04dc 74736C69 		.ascii	"tslices_t\000"
 3230      6365735F 
 3230      7400
 3231              	.LASF184:
 3232 04e6 61646343 		.ascii	"adcConversionThread\000"
 3232      6F6E7665 
 3232      7273696F 
 3232      6E546872 
 3232      65616400 
 3233              	.LASF89:
 3234 04fa 43464752 		.ascii	"CFGR1\000"
 3234      3100
 3235              	.LASF90:
 3236 0500 43464752 		.ascii	"CFGR2\000"
 3236      3200
 3237              	.LASF66:
 3238 0506 4576656E 		.ascii	"EventSource\000"
 3238      74536F75 
 3238      72636500 
 3239              	.LASF62:
 3240 0512 656C5F6E 		.ascii	"el_next\000"
 3240      65787400 
 3241              	.LASF41:
 3242 051a 705F6D73 		.ascii	"p_msg\000"
 3242      6700
 3243              	.LASF16:
 3244 0520 746D6F64 		.ascii	"tmode_t\000"
 3244      655F7400 
 3245              	.LASF185:
 3246 0528 61646353 		.ascii	"adcStartConversion\000"
 3246      74617274 
 3246      436F6E76 
 3246      65727369 
 3246      6F6E00
 3247              	.LASF119:
ARM GAS  /var/folders/qh/xwg3v3kj02qbxczjpdb8lzfr0000gn/T//ccm4bCOm.s 			page 62


 3248 053b 61646373 		.ascii	"adcsample_t\000"
 3248      616D706C 
 3248      655F7400 
 3249              	.LASF171:
 3250 0547 41444344 		.ascii	"ADCD1\000"
 3250      3100
 3251              	.LASF73:
 3252 054d 47656E65 		.ascii	"GenericQueue\000"
 3252      72696351 
 3252      75657565 
 3252      00
 3253              	.LASF154:
 3254 055a 6F717565 		.ascii	"oqueue\000"
 3254      756500
 3255              	.LASF6:
 3256 0561 75696E74 		.ascii	"uint16_t\000"
 3256      31365F74 
 3256      00
 3257              	.LASF49:
 3258 056a 696E7463 		.ascii	"intctx\000"
 3258      747800
 3259              	.LASF122:
 3260 0571 4144435F 		.ascii	"ADC_ERR_OVERFLOW\000"
 3260      4552525F 
 3260      4F564552 
 3260      464C4F57 
 3260      00
 3261              	.LASF106:
 3262 0582 6368616E 		.ascii	"channel\000"
 3262      6E656C00 
 3263              	.LASF115:
 3264 058a 4144435F 		.ascii	"ADC_ACTIVE\000"
 3264      41435449 
 3264      564500
 3265              	.LASF149:
 3266 0595 53445F52 		.ascii	"SD_READY\000"
 3266      45414459 
 3266      00
 3267              	.LASF157:
 3268 059e 53657269 		.ascii	"SerialDriverVMT\000"
 3268      616C4472 
 3268      69766572 
 3268      564D5400 
 3269              	.LASF127:
 3270 05ae 636F6E66 		.ascii	"config\000"
 3270      696700
 3271              	.LASF44:
 3272 05b5 705F7265 		.ascii	"p_realprio\000"
 3272      616C7072 
 3272      696F00
 3273              	.LASF92:
 3274 05c0 52455345 		.ascii	"RESERVED1\000"
 3274      52564544 
 3274      3100
 3275              	.LASF93:
 3276 05ca 52455345 		.ascii	"RESERVED2\000"
 3276      52564544 
ARM GAS  /var/folders/qh/xwg3v3kj02qbxczjpdb8lzfr0000gn/T//ccm4bCOm.s 			page 63


 3276      3200
 3277              	.LASF94:
 3278 05d4 52455345 		.ascii	"RESERVED3\000"
 3278      52564544 
 3278      3300
 3279              	.LASF96:
 3280 05de 52455345 		.ascii	"RESERVED4\000"
 3280      52564544 
 3280      3400
 3281              	.LASF104:
 3282 05e8 52455345 		.ascii	"RESERVED5\000"
 3282      52564544 
 3282      3500
 3283              	.LASF5:
 3284 05f2 73686F72 		.ascii	"short int\000"
 3284      7420696E 
 3284      7400
 3285              	.LASF120:
 3286 05fc 6164635F 		.ascii	"adc_channels_num_t\000"
 3286      6368616E 
 3286      6E656C73 
 3286      5F6E756D 
 3286      5F7400
 3287              	.LASF141:
 3288 060f 63666772 		.ascii	"cfgr1\000"
 3288      3100
 3289              	.LASF42:
 3290 0615 705F6570 		.ascii	"p_epending\000"
 3290      656E6469 
 3290      6E6700
 3291              	.LASF58:
 3292 0620 6D5F7175 		.ascii	"m_queue\000"
 3292      65756500 
 3293              	.LASF9:
 3294 0628 6C6F6E67 		.ascii	"long int\000"
 3294      20696E74 
 3294      00
 3295              	.LASF144:
 3296 0631 41444343 		.ascii	"ADCConversionGroup\000"
 3296      6F6E7665 
 3296      7273696F 
 3296      6E47726F 
 3296      757000
 3297              	.LASF138:
 3298 0644 6E756D5F 		.ascii	"num_channels\000"
 3298      6368616E 
 3298      6E656C73 
 3298      00
 3299              	.LASF167:
 3300 0651 61646345 		.ascii	"adcErrorCallBack\000"
 3300      72726F72 
 3300      43616C6C 
 3300      4261636B 
 3300      00
 3301              	.LASF27:
 3302 0662 705F6E65 		.ascii	"p_next\000"
 3302      787400
ARM GAS  /var/folders/qh/xwg3v3kj02qbxczjpdb8lzfr0000gn/T//ccm4bCOm.s 			page 64


 3303              	.LASF30:
 3304 0669 705F6374 		.ascii	"p_ctx\000"
 3304      7800
 3305              	.LASF112:
 3306 066f 4144435F 		.ascii	"ADC_UNINIT\000"
 3306      554E494E 
 3306      495400
 3307              	.LASF52:
 3308 067a 53656D61 		.ascii	"Semaphore\000"
 3308      70686F72 
 3308      6500
 3309              	.LASF87:
 3310 0684 72656164 		.ascii	"read\000"
 3310      00
 3311              	.LASF63:
 3312 0689 656C5F6C 		.ascii	"el_listener\000"
 3312      69737465 
 3312      6E657200 
 3313              	.LASF147:
 3314 0695 53445F55 		.ascii	"SD_UNINIT\000"
 3314      4E494E49 
 3314      5400
 3315              	.LASF121:
 3316 069f 4144435F 		.ascii	"ADC_ERR_DMAFAILURE\000"
 3316      4552525F 
 3316      444D4146 
 3316      41494C55 
 3316      524500
 3317              	.LASF75:
 3318 06b2 715F636F 		.ascii	"q_counter\000"
 3318      756E7465 
 3318      7200
 3319              	.LASF159:
 3320 06bc 67657474 		.ascii	"gett\000"
 3320      00
 3321              	.LASF77:
 3322 06c1 715F746F 		.ascii	"q_top\000"
 3322      7000
 3323              	.LASF28:
 3324 06c7 705F7072 		.ascii	"p_prev\000"
 3324      657600
 3325              	.LASF170:
 3326 06ce 68656C6C 		.ascii	"hello\000"
 3326      6F00
 3327              	.LASF51:
 3328 06d4 73697A65 		.ascii	"sizetype\000"
 3328      74797065 
 3328      00
 3329              	.LASF18:
 3330 06dd 74726566 		.ascii	"trefs_t\000"
 3330      735F7400 
 3331              	.LASF61:
 3332 06e5 4576656E 		.ascii	"EventListener\000"
 3332      744C6973 
 3332      74656E65 
 3332      7200
 3333              	.LASF11:
ARM GAS  /var/folders/qh/xwg3v3kj02qbxczjpdb8lzfr0000gn/T//ccm4bCOm.s 			page 65


 3334 06f3 6C6F6E67 		.ascii	"long unsigned int\000"
 3334      20756E73 
 3334      69676E65 
 3334      6420696E 
 3334      7400
 3335              	.LASF114:
 3336 0705 4144435F 		.ascii	"ADC_READY\000"
 3336      52454144 
 3336      5900
 3337              	.LASF175:
 3338 070f 6462675F 		.ascii	"dbg_check_lock_from_isr\000"
 3338      63686563 
 3338      6B5F6C6F 
 3338      636B5F66 
 3338      726F6D5F 
 3339              	.LASF143:
 3340 0727 63687365 		.ascii	"chselr\000"
 3340      6C7200
 3341              	.LASF118:
 3342 072e 61646373 		.ascii	"adcstate_t\000"
 3342      74617465 
 3342      5F7400
 3343              	.LASF166:
 3344 0739 61646370 		.ascii	"adcp\000"
 3344      00
 3345              	.LASF8:
 3346 073e 696E7433 		.ascii	"int32_t\000"
 3346      325F7400 
 3347              	.LASF131:
 3348 0746 74687265 		.ascii	"thread\000"
 3348      616400
 3349              	.LASF4:
 3350 074d 756E7369 		.ascii	"unsigned char\000"
 3350      676E6564 
 3350      20636861 
 3350      7200
 3351              	.LASF36:
 3352 075b 705F7265 		.ascii	"p_refs\000"
 3352      667300
 3353              	.LASF179:
 3354 0762 61646353 		.ascii	"adcStart\000"
 3354      74617274 
 3354      00
 3355              	.LASF37:
 3356 076b 705F7072 		.ascii	"p_preempt\000"
 3356      65656D70 
 3356      7400
 3357              	.LASF67:
 3358 0775 65735F6E 		.ascii	"es_next\000"
 3358      65787400 
 3359              	.LASF55:
 3360 077d 62735F73 		.ascii	"bs_sem\000"
 3360      656D00
 3361              	.LASF126:
 3362 0784 73746174 		.ascii	"state\000"
 3362      6500
 3363              	.LASF97:
ARM GAS  /var/folders/qh/xwg3v3kj02qbxczjpdb8lzfr0000gn/T//ccm4bCOm.s 			page 66


 3364 078a 4144435F 		.ascii	"ADC_TypeDef\000"
 3364      54797065 
 3364      44656600 
 3365              	.LASF109:
 3366 0796 73656C66 		.ascii	"selfindex\000"
 3366      696E6465 
 3366      7800
 3367              	.LASF163:
 3368 07a0 5F5F7661 		.ascii	"__va_list\000"
 3368      5F6C6973 
 3368      7400
 3369              	.LASF60:
 3370 07aa 6D5F6E65 		.ascii	"m_next\000"
 3370      787400
 3371              	.LASF1:
 3372 07b1 7369676E 		.ascii	"signed char\000"
 3372      65642063 
 3372      68617200 
 3373              	.LASF173:
 3374 07bd 61646353 		.ascii	"adcSemDataReady\000"
 3374      656D4461 
 3374      74615265 
 3374      61647900 
 3375              	.LASF161:
 3376 07cd 72656164 		.ascii	"readt\000"
 3376      7400
 3377              	.LASF7:
 3378 07d3 73686F72 		.ascii	"short unsigned int\000"
 3378      7420756E 
 3378      7369676E 
 3378      65642069 
 3378      6E7400
 3379              	.LASF130:
 3380 07e6 67727070 		.ascii	"grpp\000"
 3380      00
 3381              	.LASF113:
 3382 07eb 4144435F 		.ascii	"ADC_STOP\000"
 3382      53544F50 
 3382      00
 3383              	.LASF65:
 3384 07f4 656C5F66 		.ascii	"el_flags\000"
 3384      6C616773 
 3384      00
 3385              	.LASF69:
 3386 07fd 65786974 		.ascii	"exitcode\000"
 3386      636F6465 
 3386      00
 3387              	.LASF56:
 3388 0806 42696E61 		.ascii	"BinarySemaphore\000"
 3388      72795365 
 3388      6D617068 
 3388      6F726500 
 3389              		.ident	"GCC: (GNU Tools for ARM Embedded Processors) 4.8.3 20131129 (release) [ARM/embedded-4_8-br
ARM GAS  /var/folders/qh/xwg3v3kj02qbxczjpdb8lzfr0000gn/T//ccm4bCOm.s 			page 67


DEFINED SYMBOLS
                            *ABS*:0000000000000000 cmdadc.c
/var/folders/qh/xwg3v3kj02qbxczjpdb8lzfr0000gn/T//ccm4bCOm.s:18     .text.adcErrorCallBack:0000000000000000 $t
/var/folders/qh/xwg3v3kj02qbxczjpdb8lzfr0000gn/T//ccm4bCOm.s:24     .text.adcErrorCallBack:0000000000000000 adcErrorCallBack
/var/folders/qh/xwg3v3kj02qbxczjpdb8lzfr0000gn/T//ccm4bCOm.s:37     .text.adcCallBack:0000000000000000 $t
/var/folders/qh/xwg3v3kj02qbxczjpdb8lzfr0000gn/T//ccm4bCOm.s:43     .text.adcCallBack:0000000000000000 adcCallBack
/var/folders/qh/xwg3v3kj02qbxczjpdb8lzfr0000gn/T//ccm4bCOm.s:106    .text.adcCallBack:0000000000000038 $d
/var/folders/qh/xwg3v3kj02qbxczjpdb8lzfr0000gn/T//ccm4bCOm.s:114    .text.chprintf.constprop.0:0000000000000000 $t
/var/folders/qh/xwg3v3kj02qbxczjpdb8lzfr0000gn/T//ccm4bCOm.s:119    .text.chprintf.constprop.0:0000000000000000 chprintf.constprop.0
/var/folders/qh/xwg3v3kj02qbxczjpdb8lzfr0000gn/T//ccm4bCOm.s:152    .text.chprintf.constprop.0:000000000000001c $d
/var/folders/qh/xwg3v3kj02qbxczjpdb8lzfr0000gn/T//ccm4bCOm.s:158    .text.hello:0000000000000000 $t
/var/folders/qh/xwg3v3kj02qbxczjpdb8lzfr0000gn/T//ccm4bCOm.s:164    .text.hello:0000000000000000 hello
/var/folders/qh/xwg3v3kj02qbxczjpdb8lzfr0000gn/T//ccm4bCOm.s:183    .text.hello:000000000000000c $d
/var/folders/qh/xwg3v3kj02qbxczjpdb8lzfr0000gn/T//ccm4bCOm.s:189    .text.adcConversionThread:0000000000000000 $t
/var/folders/qh/xwg3v3kj02qbxczjpdb8lzfr0000gn/T//ccm4bCOm.s:195    .text.adcConversionThread:0000000000000000 adcConversionThread
/var/folders/qh/xwg3v3kj02qbxczjpdb8lzfr0000gn/T//ccm4bCOm.s:222    .text.adcConversionThread:000000000000001c $d
/var/folders/qh/xwg3v3kj02qbxczjpdb8lzfr0000gn/T//ccm4bCOm.s:245    .data.adcSettings:0000000000000000 adcSettings
/var/folders/qh/xwg3v3kj02qbxczjpdb8lzfr0000gn/T//ccm4bCOm.s:274    .data.adcSemDataReady:0000000000000000 adcSemDataReady
/var/folders/qh/xwg3v3kj02qbxczjpdb8lzfr0000gn/T//ccm4bCOm.s:267    .bss.ny:0000000000000000 ny
/var/folders/qh/xwg3v3kj02qbxczjpdb8lzfr0000gn/T//ccm4bCOm.s:260    .bss.nx:0000000000000000 nx
/var/folders/qh/xwg3v3kj02qbxczjpdb8lzfr0000gn/T//ccm4bCOm.s:283    .bss.samples:0000000000000000 samples
/var/folders/qh/xwg3v3kj02qbxczjpdb8lzfr0000gn/T//ccm4bCOm.s:238    .bss.value:0000000000000000 value
/var/folders/qh/xwg3v3kj02qbxczjpdb8lzfr0000gn/T//ccm4bCOm.s:235    .bss.value:0000000000000000 $d
/var/folders/qh/xwg3v3kj02qbxczjpdb8lzfr0000gn/T//ccm4bCOm.s:241    .data.adcSettings:0000000000000000 $d
/var/folders/qh/xwg3v3kj02qbxczjpdb8lzfr0000gn/T//ccm4bCOm.s:256    .bss.nx:0000000000000000 $d
/var/folders/qh/xwg3v3kj02qbxczjpdb8lzfr0000gn/T//ccm4bCOm.s:263    .bss.ny:0000000000000000 $d
/var/folders/qh/xwg3v3kj02qbxczjpdb8lzfr0000gn/T//ccm4bCOm.s:270    .data.adcSemDataReady:0000000000000000 $d
/var/folders/qh/xwg3v3kj02qbxczjpdb8lzfr0000gn/T//ccm4bCOm.s:279    .bss.samples:0000000000000000 $d
/var/folders/qh/xwg3v3kj02qbxczjpdb8lzfr0000gn/T//ccm4bCOm.s:286    .rodata.str1.4:0000000000000000 $d
                     .debug_frame:0000000000000010 $d
/var/folders/qh/xwg3v3kj02qbxczjpdb8lzfr0000gn/T//ccm4bCOm.s:113    .text.adcCallBack:0000000000000048 $t
/var/folders/qh/xwg3v3kj02qbxczjpdb8lzfr0000gn/T//ccm4bCOm.s:157    .text.chprintf.constprop.0:0000000000000024 $t
/var/folders/qh/xwg3v3kj02qbxczjpdb8lzfr0000gn/T//ccm4bCOm.s:188    .text.hello:0000000000000014 $t
/var/folders/qh/xwg3v3kj02qbxczjpdb8lzfr0000gn/T//ccm4bCOm.s:234    .text.adcConversionThread:0000000000000028 $t

UNDEFINED SYMBOLS
dbg_check_lock_from_isr
dbg_check_unlock_from_isr
chSemResetI
chvprintf
SD1
adcStart
adcStartConversion
ADCD1
