ARM GAS  /var/folders/qh/xwg3v3kj02qbxczjpdb8lzfr0000gn/T//ccSGpg0K.s 			page 1


   1              		.cpu cortex-m0
   2              		.fpu softvfp
   3              		.eabi_attribute 20, 1
   4              		.eabi_attribute 21, 1
   5              		.eabi_attribute 23, 3
   6              		.eabi_attribute 24, 1
   7              		.eabi_attribute 25, 1
   8              		.eabi_attribute 26, 1
   9              		.eabi_attribute 30, 2
  10              		.eabi_attribute 34, 0
  11              		.eabi_attribute 18, 4
  12              		.code	16
  13              		.file	"hardware.c"
  14              		.text
  15              	.Ltext0:
  16              		.cfi_sections	.debug_frame
  17              		.section	.text.hardwareInitialise,"ax",%progbits
  18              		.align	2
  19              		.p2align 4,,15
  20              		.global	hardwareInitialise
  21              		.code	16
  22              		.thumb_func
  23              		.type	hardwareInitialise, %function
  24              	hardwareInitialise:
  25              	.LFB40:
  26              		.file 1 "hardware.c"
  27              		.loc 1 10 0
  28              		.cfi_startproc
  29              		.loc 1 11 0
  30 0000 284B     		ldr	r3, .L2
  31              		.loc 1 10 0
  32 0002 70B5     		push	{r4, r5, r6, lr}
  33              		.cfi_def_cfa_offset 16
  34              		.cfi_offset 4, -16
  35              		.cfi_offset 5, -12
  36              		.cfi_offset 6, -8
  37              		.cfi_offset 14, -4
  38              		.loc 1 14 0
  39 0004 0124     		mov	r4, #1
  40 0006 DC60     		str	r4, [r3, #12]
  41              		.loc 1 19 0
  42 0008 DC61     		str	r4, [r3, #28]
  43              		.loc 1 21 0
  44 000a 0224     		mov	r4, #2
  45 000c 5C62     		str	r4, [r3, #36]
  46              		.loc 1 26 0
  47 000e 5C63     		str	r4, [r3, #52]
  48              		.loc 1 33 0
  49 0010 0325     		mov	r5, #3
  50              		.loc 1 28 0
  51 0012 0424     		mov	r4, #4
  52 0014 DC63     		str	r4, [r3, #60]
  53              		.loc 1 33 0
  54 0016 DD64     		str	r5, [r3, #76]
  55              		.loc 1 40 0
  56 0018 5C66     		str	r4, [r3, #100]
  57              		.loc 1 35 0
ARM GAS  /var/folders/qh/xwg3v3kj02qbxczjpdb8lzfr0000gn/T//ccSGpg0K.s 			page 2


  58 001a 0825     		mov	r5, #8
  59              		.loc 1 42 0
  60 001c 1024     		mov	r4, #16
  61              		.loc 1 11 0
  62 001e 9020     		mov	r0, #144
  63              		.loc 1 12 0
  64 0020 0022     		mov	r2, #0
  65              		.loc 1 11 0
  66 0022 C005     		lsl	r0, r0, #23
  67              		.loc 1 13 0
  68 0024 1721     		mov	r1, #23
  69              		.loc 1 35 0
  70 0026 5D65     		str	r5, [r3, #84]
  71              		.loc 1 42 0
  72 0028 DC66     		str	r4, [r3, #108]
  73              		.loc 1 49 0
  74 002a 2026     		mov	r6, #32
  75              		.loc 1 47 0
  76 002c 0524     		mov	r4, #5
  77              		.loc 1 49 0
  78 002e 8425     		mov	r5, #132
  79              		.loc 1 11 0
  80 0030 1860     		str	r0, [r3]
  81              		.loc 1 13 0
  82 0032 9960     		str	r1, [r3, #8]
  83              		.loc 1 18 0
  84 0034 9861     		str	r0, [r3, #24]
  85              		.loc 1 20 0
  86 0036 1962     		str	r1, [r3, #32]
  87              		.loc 1 25 0
  88 0038 1863     		str	r0, [r3, #48]
  89              		.loc 1 27 0
  90 003a 9963     		str	r1, [r3, #56]
  91              		.loc 1 32 0
  92 003c 9864     		str	r0, [r3, #72]
  93              		.loc 1 34 0
  94 003e 1965     		str	r1, [r3, #80]
  95              		.loc 1 39 0
  96 0040 1866     		str	r0, [r3, #96]
  97              		.loc 1 41 0
  98 0042 9966     		str	r1, [r3, #104]
  99              		.loc 1 46 0
 100 0044 9867     		str	r0, [r3, #120]
 101              		.loc 1 12 0
 102 0046 5A60     		str	r2, [r3, #4]
 103              		.loc 1 15 0
 104 0048 1A61     		str	r2, [r3, #16]
 105              		.loc 1 16 0
 106 004a 5A61     		str	r2, [r3, #20]
 107              		.loc 1 22 0
 108 004c 9A62     		str	r2, [r3, #40]
 109              		.loc 1 23 0
 110 004e DA62     		str	r2, [r3, #44]
 111              		.loc 1 29 0
 112 0050 1A64     		str	r2, [r3, #64]
 113              		.loc 1 30 0
 114 0052 5A64     		str	r2, [r3, #68]
ARM GAS  /var/folders/qh/xwg3v3kj02qbxczjpdb8lzfr0000gn/T//ccSGpg0K.s 			page 3


 115              		.loc 1 36 0
 116 0054 9A65     		str	r2, [r3, #88]
 117              		.loc 1 37 0
 118 0056 DA65     		str	r2, [r3, #92]
 119              		.loc 1 43 0
 120 0058 1A67     		str	r2, [r3, #112]
 121              		.loc 1 44 0
 122 005a 5A67     		str	r2, [r3, #116]
 123              		.loc 1 47 0
 124 005c DC67     		str	r4, [r3, #124]
 125              		.loc 1 49 0
 126 005e 5E51     		str	r6, [r3, r5]
 127              		.loc 1 50 0
 128 0060 8825     		mov	r5, #136
 129 0062 5A51     		str	r2, [r3, r5]
 130              		.loc 1 51 0
 131 0064 8C25     		mov	r5, #140
 132 0066 5A51     		str	r2, [r3, r5]
 133              		.loc 1 53 0
 134 0068 9025     		mov	r5, #144
 135 006a 5851     		str	r0, [r3, r5]
 136              		.loc 1 54 0
 137 006c 0626     		mov	r6, #6
 138 006e 9425     		mov	r5, #148
 139 0070 5E51     		str	r6, [r3, r5]
 140              		.loc 1 55 0
 141 0072 9825     		mov	r5, #152
 142 0074 5951     		str	r1, [r3, r5]
 143              		.loc 1 56 0
 144 0076 4026     		mov	r6, #64
 145 0078 9C25     		mov	r5, #156
 146 007a 5E51     		str	r6, [r3, r5]
 147              		.loc 1 57 0
 148 007c A025     		mov	r5, #160
 149 007e 5A51     		str	r2, [r3, r5]
 150              		.loc 1 58 0
 151 0080 A425     		mov	r5, #164
 152 0082 5A51     		str	r2, [r3, r5]
 153              		.loc 1 60 0
 154 0084 A825     		mov	r5, #168
 155 0086 5851     		str	r0, [r3, r5]
 156              		.loc 1 61 0
 157 0088 0725     		mov	r5, #7
 158 008a AC20     		mov	r0, #172
 159 008c 1D50     		str	r5, [r3, r0]
 160              		.loc 1 48 0
 161 008e 8024     		mov	r4, #128
 162              		.loc 1 62 0
 163 0090 B020     		mov	r0, #176
 164              		.loc 1 48 0
 165 0092 1951     		str	r1, [r3, r4]
 166              		.loc 1 62 0
 167 0094 1950     		str	r1, [r3, r0]
 168              		.loc 1 63 0
 169 0096 B421     		mov	r1, #180
 170 0098 5C50     		str	r4, [r3, r1]
 171              		.loc 1 64 0
ARM GAS  /var/folders/qh/xwg3v3kj02qbxczjpdb8lzfr0000gn/T//ccSGpg0K.s 			page 4


 172 009a B821     		mov	r1, #184
 173 009c 5A50     		str	r2, [r3, r1]
 174              		.loc 1 65 0
 175 009e BC21     		mov	r1, #188
 176 00a0 5A50     		str	r2, [r3, r1]
 177              		.loc 1 67 0
 178              		@ sp needed
 179 00a2 70BD     		pop	{r4, r5, r6, pc}
 180              	.L3:
 181              		.align	2
 182              	.L2:
 183 00a4 00000000 		.word	.LANCHOR0
 184              		.cfi_endproc
 185              	.LFE40:
 186              		.size	hardwareInitialise, .-hardwareInitialise
 187 00a8 C046C046 		.section	.text.hardwareSetupPin,"ax",%progbits
 187      C046C046 
 188              		.align	2
 189              		.p2align 4,,15
 190              		.global	hardwareSetupPin
 191              		.code	16
 192              		.thumb_func
 193              		.type	hardwareSetupPin, %function
 194              	hardwareSetupPin:
 195              	.LFB41:
 196              		.loc 1 72 0
 197              		.cfi_startproc
 198              	.LVL0:
 199 0000 F8B5     		push	{r3, r4, r5, r6, r7, lr}
 200              		.cfi_def_cfa_offset 24
 201              		.cfi_offset 3, -24
 202              		.cfi_offset 4, -20
 203              		.cfi_offset 5, -16
 204              		.cfi_offset 6, -12
 205              		.cfi_offset 7, -8
 206              		.cfi_offset 14, -4
 207 0002 0378     		ldrb	r3, [r0]
 208              		.loc 1 72 0
 209 0004 0C1C     		mov	r4, r1
 210 0006 303B     		sub	r3, r3, #48
 211 0008 DBB2     		uxtb	r3, r3
 212 000a 072B     		cmp	r3, #7
 213 000c 36D8     		bhi	.L5
 214 000e 2C4A     		ldr	r2, .L28
 215 0010 9B00     		lsl	r3, r3, #2
 216 0012 9D58     		ldr	r5, [r3, r2]
 217              		.loc 1 74 0
 218 0014 FF2D     		cmp	r5, #255
 219 0016 31D0     		beq	.L5
 220              		.loc 1 76 0
 221 0018 1029     		cmp	r1, #16
 222 001a 1DD0     		beq	.L17
 223 001c 15DD     		ble	.L25
 224 001e 4029     		cmp	r1, #64
 225 0020 1AD0     		beq	.L17
 226 0022 2CDD     		ble	.L26
 227 0024 8029     		cmp	r1, #128
ARM GAS  /var/folders/qh/xwg3v3kj02qbxczjpdb8lzfr0000gn/T//ccSGpg0K.s 			page 5


 228 0026 17D0     		beq	.L17
 229 0028 8023     		mov	r3, #128
 230 002a 5B01     		lsl	r3, r3, #5
 231 002c 9942     		cmp	r1, r3
 232 002e 28D1     		bne	.L20
 233              		.loc 1 85 0
 234 0030 6F00     		lsl	r7, r5, #1
 235 0032 244E     		ldr	r6, .L28+4
 236 0034 7B19     		add	r3, r7, r5
 237 0036 DB00     		lsl	r3, r3, #3
 238 0038 F058     		ldr	r0, [r6, r3]
 239              	.LVL1:
 240 003a F318     		add	r3, r6, r3
 241 003c 5B68     		ldr	r3, [r3, #4]
 242 003e 0121     		mov	r1, #1
 243              	.LVL2:
 244 0040 9940     		lsl	r1, r1, r3
 245 0042 0122     		mov	r2, #1
 246 0044 FFF7FEFF 		bl	_pal_lld_setgroupmode
 247              	.LVL3:
 248              		.loc 1 86 0
 249 0048 12E0     		b	.L19
 250              	.LVL4:
 251              	.L25:
 252              		.loc 1 76 0
 253 004a 0129     		cmp	r1, #1
 254 004c 2AD0     		beq	.L9
 255 004e 1ADD     		ble	.L27
 256 0050 0429     		cmp	r1, #4
 257 0052 01D0     		beq	.L17
 258 0054 0829     		cmp	r1, #8
 259 0056 14D1     		bne	.L20
 260              	.L17:
 261              		.loc 1 103 0
 262 0058 6F00     		lsl	r7, r5, #1
 263 005a 1A4E     		ldr	r6, .L28+4
 264 005c 7B19     		add	r3, r7, r5
 265 005e DB00     		lsl	r3, r3, #3
 266 0060 F058     		ldr	r0, [r6, r3]
 267              	.LVL5:
 268 0062 F318     		add	r3, r6, r3
 269 0064 5B68     		ldr	r3, [r3, #4]
 270 0066 0121     		mov	r1, #1
 271              	.LVL6:
 272 0068 9940     		lsl	r1, r1, r3
 273 006a 0322     		mov	r2, #3
 274 006c FFF7FEFF 		bl	_pal_lld_setgroupmode
 275              	.LVL7:
 276              	.L19:
 277              		.loc 1 110 0
 278 0070 7D19     		add	r5, r7, r5
 279 0072 ED00     		lsl	r5, r5, #3
 280 0074 7619     		add	r6, r6, r5
 281 0076 7461     		str	r4, [r6, #20]
 282              		.loc 1 111 0
 283 0078 0120     		mov	r0, #1
 284              	.L4:
ARM GAS  /var/folders/qh/xwg3v3kj02qbxczjpdb8lzfr0000gn/T//ccSGpg0K.s 			page 6


 285              		.loc 1 114 0
 286              		@ sp needed
 287              	.LVL8:
 288 007a F8BD     		pop	{r3, r4, r5, r6, r7, pc}
 289              	.LVL9:
 290              	.L5:
 291              	.LVL10:
 292 007c FDE7     		b	.L4
 293              	.LVL11:
 294              	.L26:
 295              		.loc 1 76 0
 296 007e 2029     		cmp	r1, #32
 297 0080 EAD0     		beq	.L17
 298              	.L20:
 299              		.loc 1 106 0
 300 0082 0020     		mov	r0, #0
 301              	.LVL12:
 302 0084 F9E7     		b	.L4
 303              	.LVL13:
 304              	.L27:
 305              		.loc 1 76 0
 306 0086 0029     		cmp	r1, #0
 307 0088 FBD1     		bne	.L20
 308              		.loc 1 79 0
 309 008a 6F00     		lsl	r7, r5, #1
 310 008c 0D4E     		ldr	r6, .L28+4
 311 008e 7B19     		add	r3, r7, r5
 312 0090 DB00     		lsl	r3, r3, #3
 313 0092 F058     		ldr	r0, [r6, r3]
 314              	.LVL14:
 315 0094 F318     		add	r3, r6, r3
 316 0096 5B68     		ldr	r3, [r3, #4]
 317 0098 0121     		mov	r1, #1
 318              	.LVL15:
 319 009a 9940     		lsl	r1, r1, r3
 320 009c 2022     		mov	r2, #32
 321 009e FFF7FEFF 		bl	_pal_lld_setgroupmode
 322              	.LVL16:
 323              		.loc 1 80 0
 324 00a2 E5E7     		b	.L19
 325              	.LVL17:
 326              	.L9:
 327              		.loc 1 82 0
 328 00a4 6F00     		lsl	r7, r5, #1
 329 00a6 074E     		ldr	r6, .L28+4
 330 00a8 7B19     		add	r3, r7, r5
 331 00aa DB00     		lsl	r3, r3, #3
 332 00ac F058     		ldr	r0, [r6, r3]
 333              	.LVL18:
 334 00ae F318     		add	r3, r6, r3
 335 00b0 5968     		ldr	r1, [r3, #4]
 336              	.LVL19:
 337 00b2 231C     		mov	r3, r4
 338 00b4 8B40     		lsl	r3, r3, r1
 339 00b6 191C     		mov	r1, r3
 340 00b8 0022     		mov	r2, #0
 341 00ba FFF7FEFF 		bl	_pal_lld_setgroupmode
ARM GAS  /var/folders/qh/xwg3v3kj02qbxczjpdb8lzfr0000gn/T//ccSGpg0K.s 			page 7


 342              	.LVL20:
 343              		.loc 1 83 0
 344 00be D7E7     		b	.L19
 345              	.L29:
 346              		.align	2
 347              	.L28:
 348 00c0 00000000 		.word	.LANCHOR1
 349 00c4 00000000 		.word	.LANCHOR0
 350              		.cfi_endproc
 351              	.LFE41:
 352              		.size	hardwareSetupPin, .-hardwareSetupPin
 353 00c8 C046C046 		.section	.text.hardwareCheckPins,"ax",%progbits
 353      C046C046 
 354              		.align	2
 355              		.p2align 4,,15
 356              		.global	hardwareCheckPins
 357              		.code	16
 358              		.thumb_func
 359              		.type	hardwareCheckPins, %function
 360              	hardwareCheckPins:
 361              	.LFB43:
 362              		.loc 1 147 0
 363              		.cfi_startproc
 364              	.LVL21:
 365 0000 10B5     		push	{r4, lr}
 366              		.cfi_def_cfa_offset 8
 367              		.cfi_offset 4, -8
 368              		.cfi_offset 14, -4
 369              		.loc 1 149 0
 370 0002 4378     		ldrb	r3, [r0, #1]
 371 0004 002B     		cmp	r3, #0
 372 0006 1CD0     		beq	.L34
 373              	.LVL22:
 374 0008 0378     		ldrb	r3, [r0]
 375              	.LBB39:
 376              		.loc 1 157 0
 377 000a 0024     		mov	r4, #0
 378 000c 303B     		sub	r3, r3, #48
 379 000e DBB2     		uxtb	r3, r3
 380 0010 072B     		cmp	r3, #7
 381 0012 17D8     		bhi	.L31
 382 0014 0D4A     		ldr	r2, .L40
 383 0016 9B00     		lsl	r3, r3, #2
 384 0018 9B58     		ldr	r3, [r3, r2]
 385              	.LVL23:
 386              		.loc 1 154 0
 387 001a FF2B     		cmp	r3, #255
 388 001c 12D0     		beq	.L31
 389              		.loc 1 160 0
 390 001e 5A00     		lsl	r2, r3, #1
 391 0020 D318     		add	r3, r2, r3
 392 0022 0B4A     		ldr	r2, .L40+4
 393 0024 DB00     		lsl	r3, r3, #3
 394 0026 D318     		add	r3, r2, r3
 395 0028 9A68     		ldr	r2, [r3, #8]
 396 002a 0A40     		and	r2, r1
 397 002c 8A42     		cmp	r2, r1
ARM GAS  /var/folders/qh/xwg3v3kj02qbxczjpdb8lzfr0000gn/T//ccSGpg0K.s 			page 8


 398 002e 09D1     		bne	.L31
 399 0030 0230     		add	r0, r0, #2
 400              	.LVL24:
 401 0032 111C     		mov	r1, r2
 402              	.LVL25:
 403 0034 02E0     		b	.L32
 404              	.LVL26:
 405              	.L33:
 406 0036 0130     		add	r0, r0, #1
 407              	.LVL27:
 408 0038 9142     		cmp	r1, r2
 409 003a 05D1     		bne	.L38
 410              	.LVL28:
 411              	.L32:
 412              	.LBE39:
 413              		.loc 1 149 0
 414 003c 0378     		ldrb	r3, [r0]
 415 003e 002B     		cmp	r3, #0
 416 0040 F9D1     		bne	.L33
 417              	.LVL29:
 418              	.L34:
 419              		.loc 1 168 0
 420 0042 0124     		mov	r4, #1
 421              	.L31:
 422              		.loc 1 170 0
 423 0044 201C     		mov	r0, r4
 424              		@ sp needed
 425 0046 10BD     		pop	{r4, pc}
 426              	.LVL30:
 427              	.L38:
 428              	.LBB40:
 429              		.loc 1 157 0
 430 0048 0024     		mov	r4, #0
 431 004a FBE7     		b	.L31
 432              	.L41:
 433              		.align	2
 434              	.L40:
 435 004c 00000000 		.word	.LANCHOR1
 436 0050 00000000 		.word	.LANCHOR0
 437              	.LBE40:
 438              		.cfi_endproc
 439              	.LFE43:
 440              		.size	hardwareCheckPins, .-hardwareCheckPins
 441 0054 C046C046 		.section	.text.hardwareSetupPins,"ax",%progbits
 441      C046C046 
 441      C046C046 
 442              		.align	2
 443              		.p2align 4,,15
 444              		.global	hardwareSetupPins
 445              		.code	16
 446              		.thumb_func
 447              		.type	hardwareSetupPins, %function
 448              	hardwareSetupPins:
 449              	.LFB42:
 450              		.loc 1 121 0
 451              		.cfi_startproc
 452              	.LVL31:
ARM GAS  /var/folders/qh/xwg3v3kj02qbxczjpdb8lzfr0000gn/T//ccSGpg0K.s 			page 9


 453 0000 70B5     		push	{r4, r5, r6, lr}
 454              		.cfi_def_cfa_offset 16
 455              		.cfi_offset 4, -16
 456              		.cfi_offset 5, -12
 457              		.cfi_offset 6, -8
 458              		.cfi_offset 14, -4
 459              		.loc 1 121 0
 460 0002 041C     		mov	r4, r0
 461 0004 0D1C     		mov	r5, r1
 462              		.loc 1 122 0
 463 0006 FFF7FEFF 		bl	hardwareCheckPins
 464              	.LVL32:
 465 000a 0028     		cmp	r0, #0
 466 000c 0CD0     		beq	.L43
 467              		.loc 1 131 0
 468 000e 661C     		add	r6, r4, #1
 469 0010 05E0     		b	.L46
 470              	.L44:
 471 0012 301C     		mov	r0, r6
 472 0014 291C     		mov	r1, r5
 473 0016 FFF7FEFF 		bl	hardwareSetupPin
 474              	.LVL33:
 475              		.loc 1 132 0
 476 001a 0028     		cmp	r0, #0
 477 001c 04D0     		beq	.L43
 478              	.LVL34:
 479              	.L46:
 480              		.loc 1 129 0
 481 001e 6378     		ldrb	r3, [r4, #1]
 482 0020 002B     		cmp	r3, #0
 483 0022 F6D1     		bne	.L44
 484              		.loc 1 142 0
 485 0024 0120     		mov	r0, #1
 486 0026 00E0     		b	.L45
 487              	.L43:
 488              		.loc 1 124 0
 489 0028 0020     		mov	r0, #0
 490              	.L45:
 491              		.loc 1 143 0
 492              		@ sp needed
 493              	.LVL35:
 494              	.LVL36:
 495 002a 70BD     		pop	{r4, r5, r6, pc}
 496              		.cfi_endproc
 497              	.LFE42:
 498              		.size	hardwareSetupPins, .-hardwareSetupPins
 499 002c C046C046 		.section	.text.hardwareCheckCurrentMode,"ax",%progbits
 500              		.align	2
 501              		.p2align 4,,15
 502              		.global	hardwareCheckCurrentMode
 503              		.code	16
 504              		.thumb_func
 505              		.type	hardwareCheckCurrentMode, %function
 506              	hardwareCheckCurrentMode:
 507              	.LFB44:
 508              		.loc 1 172 0
 509              		.cfi_startproc
ARM GAS  /var/folders/qh/xwg3v3kj02qbxczjpdb8lzfr0000gn/T//ccSGpg0K.s 			page 10


 510              	.LVL37:
 511 0000 0378     		ldrb	r3, [r0]
 512              		.loc 1 177 0
 513 0002 0020     		mov	r0, #0
 514              	.LVL38:
 515 0004 303B     		sub	r3, r3, #48
 516 0006 DBB2     		uxtb	r3, r3
 517 0008 072B     		cmp	r3, #7
 518 000a 0AD8     		bhi	.L54
 519 000c 054A     		ldr	r2, .L58
 520 000e 9B00     		lsl	r3, r3, #2
 521 0010 9B58     		ldr	r3, [r3, r2]
 522              	.LVL39:
 523              		.loc 1 175 0
 524 0012 FF2B     		cmp	r3, #255
 525 0014 05D0     		beq	.L54
 526              		.loc 1 180 0
 527 0016 5A00     		lsl	r2, r3, #1
 528 0018 D318     		add	r3, r2, r3
 529 001a 034A     		ldr	r2, .L58+4
 530 001c DB00     		lsl	r3, r3, #3
 531 001e D318     		add	r3, r2, r3
 532 0020 5869     		ldr	r0, [r3, #20]
 533              	.L54:
 534              		.loc 1 181 0
 535              		@ sp needed
 536 0022 7047     		bx	lr
 537              	.L59:
 538              		.align	2
 539              	.L58:
 540 0024 00000000 		.word	.LANCHOR1
 541 0028 00000000 		.word	.LANCHOR0
 542              		.cfi_endproc
 543              	.LFE44:
 544              		.size	hardwareCheckCurrentMode, .-hardwareCheckCurrentMode
 545 002c C046C046 		.section	.text.hardwarePinParse,"ax",%progbits
 546              		.align	2
 547              		.p2align 4,,15
 548              		.global	hardwarePinParse
 549              		.code	16
 550              		.thumb_func
 551              		.type	hardwarePinParse, %function
 552              	hardwarePinParse:
 553              	.LFB45:
 554              		.loc 1 185 0
 555              		.cfi_startproc
 556              	.LVL40:
 557 0000 0378     		ldrb	r3, [r0]
 558              	.LBB41:
 559              	.LBB42:
 560              		.loc 1 239 0
 561 0002 FF20     		mov	r0, #255
 562              	.LVL41:
 563 0004 303B     		sub	r3, r3, #48
 564 0006 DBB2     		uxtb	r3, r3
 565 0008 072B     		cmp	r3, #7
 566 000a 00D9     		bls	.L63
ARM GAS  /var/folders/qh/xwg3v3kj02qbxczjpdb8lzfr0000gn/T//ccSGpg0K.s 			page 11


 567              	.L61:
 568              	.LBE42:
 569              	.LBE41:
 570              		.loc 1 187 0
 571              		@ sp needed
 572 000c 7047     		bx	lr
 573              	.L63:
 574 000e 024A     		ldr	r2, .L64
 575 0010 9B00     		lsl	r3, r3, #2
 576 0012 9858     		ldr	r0, [r3, r2]
 577 0014 FAE7     		b	.L61
 578              	.L65:
 579 0016 C046     		.align	2
 580              	.L64:
 581 0018 00000000 		.word	.LANCHOR1
 582              		.cfi_endproc
 583              	.LFE45:
 584              		.size	hardwarePinParse, .-hardwarePinParse
 585 001c C046C046 		.section	.text.hardwareGetAdcLocation,"ax",%progbits
 586              		.align	2
 587              		.p2align 4,,15
 588              		.global	hardwareGetAdcLocation
 589              		.code	16
 590              		.thumb_func
 591              		.type	hardwareGetAdcLocation, %function
 592              	hardwareGetAdcLocation:
 593              	.LFB46:
 594              		.loc 1 190 0
 595              		.cfi_startproc
 596              	.LVL42:
 597 0000 0278     		ldrb	r2, [r0]
 598              	.LBB43:
 599              	.LBB44:
 600              	.LBB45:
 601              		.loc 1 239 0
 602 0002 FF23     		mov	r3, #255
 603 0004 303A     		sub	r2, r2, #48
 604 0006 D2B2     		uxtb	r2, r2
 605 0008 072A     		cmp	r2, #7
 606 000a 02D8     		bhi	.L67
 607 000c 044B     		ldr	r3, .L69
 608 000e 9200     		lsl	r2, r2, #2
 609 0010 D358     		ldr	r3, [r2, r3]
 610              	.L67:
 611              	.LBE45:
 612              	.LBE44:
 613              	.LBE43:
 614              		.loc 1 192 0
 615 0012 5A00     		lsl	r2, r3, #1
 616 0014 D318     		add	r3, r2, r3
 617 0016 034A     		ldr	r2, .L69+4
 618 0018 DB00     		lsl	r3, r3, #3
 619 001a D318     		add	r3, r2, r3
 620 001c D868     		ldr	r0, [r3, #12]
 621              	.LVL43:
 622              		.loc 1 194 0
 623              		@ sp needed
ARM GAS  /var/folders/qh/xwg3v3kj02qbxczjpdb8lzfr0000gn/T//ccSGpg0K.s 			page 12


 624 001e 7047     		bx	lr
 625              	.L70:
 626              		.align	2
 627              	.L69:
 628 0020 00000000 		.word	.LANCHOR1
 629 0024 00000000 		.word	.LANCHOR0
 630              		.cfi_endproc
 631              	.LFE46:
 632              		.size	hardwareGetAdcLocation, .-hardwareGetAdcLocation
 633 0028 C046C046 		.section	.text.hardwareSetAdcChannels,"ax",%progbits
 633      C046C046 
 634              		.align	2
 635              		.p2align 4,,15
 636              		.global	hardwareSetAdcChannels
 637              		.code	16
 638              		.thumb_func
 639              		.type	hardwareSetAdcChannels, %function
 640              	hardwareSetAdcChannels:
 641              	.LFB47:
 642              		.loc 1 198 0
 643              		.cfi_startproc
 644              	.LVL44:
 645              		.loc 1 201 0
 646 0000 0D4B     		ldr	r3, .L80
 647 0002 0022     		mov	r2, #0
 648              		.loc 1 198 0
 649 0004 70B5     		push	{r4, r5, r6, lr}
 650              		.cfi_def_cfa_offset 16
 651              		.cfi_offset 4, -16
 652              		.cfi_offset 5, -12
 653              		.cfi_offset 6, -8
 654              		.cfi_offset 14, -4
 655              		.loc 1 201 0
 656 0006 9A61     		str	r2, [r3, #24]
 657              		.loc 1 202 0
 658 0008 5A80     		strh	r2, [r3, #2]
 659              	.LVL45:
 660              		.loc 1 204 0
 661 000a 0028     		cmp	r0, #0
 662 000c 12D0     		beq	.L75
 663 000e 4378     		ldrb	r3, [r0, #1]
 664 0010 0A4C     		ldr	r4, .L80+4
 665 0012 1978     		ldrb	r1, [r3]
 666 0014 0A4E     		ldr	r6, .L80+8
 667 0016 3039     		sub	r1, r1, #48
 668 0018 C9B2     		uxtb	r1, r1
 669 001a 8D00     		lsl	r5, r1, #2
 670              	.LVL46:
 671              	.L74:
 672              		.loc 1 198 0
 673 001c FF23     		mov	r3, #255
 674 001e 0729     		cmp	r1, #7
 675 0020 00D8     		bhi	.L73
 676 0022 AB59     		ldr	r3, [r5, r6]
 677              	.L73:
 678              	.LBB46:
 679              	.LBB47:
ARM GAS  /var/folders/qh/xwg3v3kj02qbxczjpdb8lzfr0000gn/T//ccSGpg0K.s 			page 13


 680              	.LBB48:
 681              		.loc 1 192 0
 682 0024 5A00     		lsl	r2, r3, #1
 683 0026 D318     		add	r3, r2, r3
 684 0028 DB00     		lsl	r3, r3, #3
 685 002a E318     		add	r3, r4, r3
 686 002c D868     		ldr	r0, [r3, #12]
 687              	.LBE48:
 688              	.LBE47:
 689              		.loc 1 208 0
 690 002e 0028     		cmp	r0, #0
 691 0030 F4D1     		bne	.L74
 692              	.LVL47:
 693              	.L72:
 694              	.LBE46:
 695              		.loc 1 223 0
 696              		@ sp needed
 697 0032 70BD     		pop	{r4, r5, r6, pc}
 698              	.LVL48:
 699              	.L75:
 700              		.loc 1 222 0
 701 0034 0120     		mov	r0, #1
 702              	.LVL49:
 703 0036 FCE7     		b	.L72
 704              	.L81:
 705              		.align	2
 706              	.L80:
 707 0038 00000000 		.word	adcSettings
 708 003c 00000000 		.word	.LANCHOR0
 709 0040 00000000 		.word	.LANCHOR1
 710              		.cfi_endproc
 711              	.LFE47:
 712              		.size	hardwareSetAdcChannels, .-hardwareSetAdcChannels
 713 0044 C046C046 		.section	.text.hardwareGetIoPort,"ax",%progbits
 713      C046C046 
 713      C046C046 
 714              		.align	2
 715              		.p2align 4,,15
 716              		.global	hardwareGetIoPort
 717              		.code	16
 718              		.thumb_func
 719              		.type	hardwareGetIoPort, %function
 720              	hardwareGetIoPort:
 721              	.LFB48:
 722              		.loc 1 226 0
 723              		.cfi_startproc
 724              	.LVL50:
 725 0000 0278     		ldrb	r2, [r0]
 726              	.LBB49:
 727              	.LBB50:
 728              	.LBB51:
 729              		.loc 1 239 0
 730 0002 FF23     		mov	r3, #255
 731 0004 303A     		sub	r2, r2, #48
 732 0006 D2B2     		uxtb	r2, r2
 733 0008 072A     		cmp	r2, #7
 734 000a 02D8     		bhi	.L83
ARM GAS  /var/folders/qh/xwg3v3kj02qbxczjpdb8lzfr0000gn/T//ccSGpg0K.s 			page 14


 735 000c 044B     		ldr	r3, .L85
 736 000e 9200     		lsl	r2, r2, #2
 737 0010 D358     		ldr	r3, [r2, r3]
 738              	.L83:
 739              	.LBE51:
 740              	.LBE50:
 741              	.LBE49:
 742              		.loc 1 228 0
 743 0012 5A00     		lsl	r2, r3, #1
 744 0014 D318     		add	r3, r2, r3
 745 0016 034A     		ldr	r2, .L85+4
 746 0018 DB00     		lsl	r3, r3, #3
 747 001a 9858     		ldr	r0, [r3, r2]
 748              	.LVL51:
 749              		.loc 1 229 0
 750              		@ sp needed
 751 001c 7047     		bx	lr
 752              	.L86:
 753 001e C046     		.align	2
 754              	.L85:
 755 0020 00000000 		.word	.LANCHOR1
 756 0024 00000000 		.word	.LANCHOR0
 757              		.cfi_endproc
 758              	.LFE48:
 759              		.size	hardwareGetIoPort, .-hardwareGetIoPort
 760 0028 C046C046 		.section	.text.hardwareGetIoPin,"ax",%progbits
 760      C046C046 
 761              		.align	2
 762              		.p2align 4,,15
 763              		.global	hardwareGetIoPin
 764              		.code	16
 765              		.thumb_func
 766              		.type	hardwareGetIoPin, %function
 767              	hardwareGetIoPin:
 768              	.LFB49:
 769              		.loc 1 231 0
 770              		.cfi_startproc
 771              	.LVL52:
 772 0000 0278     		ldrb	r2, [r0]
 773              	.LBB52:
 774              	.LBB53:
 775              	.LBB54:
 776              		.loc 1 239 0
 777 0002 FF23     		mov	r3, #255
 778 0004 303A     		sub	r2, r2, #48
 779 0006 D2B2     		uxtb	r2, r2
 780 0008 072A     		cmp	r2, #7
 781 000a 02D8     		bhi	.L88
 782 000c 044B     		ldr	r3, .L90
 783 000e 9200     		lsl	r2, r2, #2
 784 0010 D358     		ldr	r3, [r2, r3]
 785              	.L88:
 786              	.LBE54:
 787              	.LBE53:
 788              	.LBE52:
 789              		.loc 1 233 0
 790 0012 5A00     		lsl	r2, r3, #1
ARM GAS  /var/folders/qh/xwg3v3kj02qbxczjpdb8lzfr0000gn/T//ccSGpg0K.s 			page 15


 791 0014 D318     		add	r3, r2, r3
 792 0016 034A     		ldr	r2, .L90+4
 793 0018 DB00     		lsl	r3, r3, #3
 794 001a D318     		add	r3, r2, r3
 795 001c 5868     		ldr	r0, [r3, #4]
 796              	.LVL53:
 797              		.loc 1 235 0
 798              		@ sp needed
 799 001e 7047     		bx	lr
 800              	.L91:
 801              		.align	2
 802              	.L90:
 803 0020 00000000 		.word	.LANCHOR1
 804 0024 00000000 		.word	.LANCHOR0
 805              		.cfi_endproc
 806              	.LFE49:
 807              		.size	hardwareGetIoPin, .-hardwareGetIoPin
 808 0028 C046C046 		.section	.text.hardwareParseDecimal,"ax",%progbits
 808      C046C046 
 809              		.align	2
 810              		.p2align 4,,15
 811              		.global	hardwareParseDecimal
 812              		.code	16
 813              		.thumb_func
 814              		.type	hardwareParseDecimal, %function
 815              	hardwareParseDecimal:
 816              	.LFB50:
 817              		.loc 1 238 0
 818              		.cfi_startproc
 819              	.LVL54:
 820 0000 0378     		ldrb	r3, [r0]
 821              		.loc 1 239 0
 822 0002 FF20     		mov	r0, #255
 823              	.LVL55:
 824 0004 303B     		sub	r3, r3, #48
 825 0006 DBB2     		uxtb	r3, r3
 826 0008 072B     		cmp	r3, #7
 827 000a 02D8     		bhi	.L93
 828 000c 014A     		ldr	r2, .L95
 829 000e 9B00     		lsl	r3, r3, #2
 830 0010 9858     		ldr	r0, [r3, r2]
 831              	.L93:
 832              		.loc 1 263 0
 833              		@ sp needed
 834 0012 7047     		bx	lr
 835              	.L96:
 836              		.align	2
 837              	.L95:
 838 0014 00000000 		.word	.LANCHOR1
 839              		.cfi_endproc
 840              	.LFE50:
 841              		.size	hardwareParseDecimal, .-hardwareParseDecimal
 842 0018 C046C046 		.section	.text.hardwareReadPins,"ax",%progbits
 842      C046C046 
 843              		.align	2
 844              		.p2align 4,,15
 845              		.global	hardwareReadPins
ARM GAS  /var/folders/qh/xwg3v3kj02qbxczjpdb8lzfr0000gn/T//ccSGpg0K.s 			page 16


 846              		.code	16
 847              		.thumb_func
 848              		.type	hardwareReadPins, %function
 849              	hardwareReadPins:
 850              	.LFB51:
 851              		.loc 1 265 0
 852              		.cfi_startproc
 853              	.LVL56:
 854              	.LVL57:
 855              		.loc 1 268 0
 856              		@ sp needed
 857 0000 7047     		bx	lr
 858              		.cfi_endproc
 859              	.LFE51:
 860              		.size	hardwareReadPins, .-hardwareReadPins
 861              		.global	hwPin
 862 0002 C046C046 		.section	.rodata.CSWTCH.6,"a",%progbits
 862      C046C046 
 862      C046C046 
 862      C046
 863              		.align	2
 864              		.set	.LANCHOR1,. + 0
 865              		.type	CSWTCH.6, %object
 866              		.size	CSWTCH.6, 32
 867              	CSWTCH.6:
 868 0000 00000000 		.word	0
 869 0004 01000000 		.word	1
 870 0008 02000000 		.word	2
 871 000c 03000000 		.word	3
 872 0010 04000000 		.word	4
 873 0014 05000000 		.word	5
 874 0018 06000000 		.word	6
 875 001c 07000000 		.word	7
 876              		.section	.bss.hwPin,"aw",%nobits
 877              		.align	2
 878              		.set	.LANCHOR0,. + 0
 879              		.type	hwPin, %object
 880              		.size	hwPin, 192
 881              	hwPin:
 882 0000 00000000 		.space	192
 882      00000000 
 882      00000000 
 882      00000000 
 882      00000000 
 883              		.text
 884              	.Letext0:
 885              		.file 2 "/usr/local/Cellar/gcc-arm-none-eabi-48/20131218/lib/gcc/arm-none-eabi/4.8.3/include/stdde
 886              		.file 3 "/usr/local/Cellar/gcc-arm-none-eabi-48/20131218/arm-none-eabi/include/stdint.h"
 887              		.file 4 "../../os/ports/GCC/ARMCMx/chtypes.h"
 888              		.file 5 "../../os/kernel/include/chlists.h"
 889              		.file 6 "../../os/kernel/include/chthreads.h"
 890              		.file 7 "../../os/ports/GCC/ARMCMx/chcore_v6m.h"
 891              		.file 8 "../../os/kernel/include/chmtx.h"
 892              		.file 9 "../../os/hal/platforms/STM32F0xx/stm32f0xx.h"
 893              		.file 10 "../../os/hal/platforms/STM32F0xx/stm32_dma.h"
 894              		.file 11 "../../os/hal/platforms/STM32/GPIOv2/pal_lld.h"
 895              		.file 12 "../../os/hal/include/adc.h"
ARM GAS  /var/folders/qh/xwg3v3kj02qbxczjpdb8lzfr0000gn/T//ccSGpg0K.s 			page 17


 896              		.file 13 "../../os/hal/platforms/STM32F0xx/adc_lld.h"
 897              		.file 14 "hardware.h"