ARM GAS  /var/folders/qh/xwg3v3kj02qbxczjpdb8lzfr0000gn/T//ccSGpg0K.s 			page 1


   1              		.cpu cortex-m0
   2              		.fpu softvfp
   3              		.eabi_attribute 20, 1
   4              		.eabi_attribute 21, 1
   5              		.eabi_attribute 23, 3
   6              		.eabi_attribute 24, 1
   7              		.eabi_attribute 25, 1
   8              		.eabi_attribute 26, 1
   9              		.eabi_attribute 30, 2
  10              		.eabi_attribute 34, 0
  11              		.eabi_attribute 18, 4
  12              		.code	16
  13              		.file	"hardware.c"
  14              		.text
  15              	.Ltext0:
  16              		.cfi_sections	.debug_frame
  17              		.section	.text.hardwareInitialise,"ax",%progbits
  18              		.align	2
  19              		.p2align 4,,15
  20              		.global	hardwareInitialise
  21              		.code	16
  22              		.thumb_func
  23              		.type	hardwareInitialise, %function
  24              	hardwareInitialise:
  25              	.LFB40:
  26              		.file 1 "hardware.c"
  27              		.loc 1 10 0
  28              		.cfi_startproc
  29              		.loc 1 11 0
  30 0000 284B     		ldr	r3, .L2
  31              		.loc 1 10 0
  32 0002 70B5     		push	{r4, r5, r6, lr}
  33              		.cfi_def_cfa_offset 16
  34              		.cfi_offset 4, -16
  35              		.cfi_offset 5, -12
  36              		.cfi_offset 6, -8
  37              		.cfi_offset 14, -4
  38              		.loc 1 14 0
  39 0004 0124     		mov	r4, #1
  40 0006 DC60     		str	r4, [r3, #12]
  41              		.loc 1 19 0
  42 0008 DC61     		str	r4, [r3, #28]
  43              		.loc 1 21 0
  44 000a 0224     		mov	r4, #2
  45 000c 5C62     		str	r4, [r3, #36]
  46              		.loc 1 26 0
  47 000e 5C63     		str	r4, [r3, #52]
  48              		.loc 1 33 0
  49 0010 0325     		mov	r5, #3
  50              		.loc 1 28 0
  51 0012 0424     		mov	r4, #4
  52 0014 DC63     		str	r4, [r3, #60]
  53              		.loc 1 33 0
  54 0016 DD64     		str	r5, [r3, #76]
  55              		.loc 1 40 0
  56 0018 5C66     		str	r4, [r3, #100]
  57              		.loc 1 35 0
ARM GAS  /var/folders/qh/xwg3v3kj02qbxczjpdb8lzfr0000gn/T//ccSGpg0K.s 			page 2


  58 001a 0825     		mov	r5, #8
  59              		.loc 1 42 0
  60 001c 1024     		mov	r4, #16
  61              		.loc 1 11 0
  62 001e 9020     		mov	r0, #144
  63              		.loc 1 12 0
  64 0020 0022     		mov	r2, #0
  65              		.loc 1 11 0
  66 0022 C005     		lsl	r0, r0, #23
  67              		.loc 1 13 0
  68 0024 1721     		mov	r1, #23
  69              		.loc 1 35 0
  70 0026 5D65     		str	r5, [r3, #84]
  71              		.loc 1 42 0
  72 0028 DC66     		str	r4, [r3, #108]
  73              		.loc 1 49 0
  74 002a 2026     		mov	r6, #32
  75              		.loc 1 47 0
  76 002c 0524     		mov	r4, #5
  77              		.loc 1 49 0
  78 002e 8425     		mov	r5, #132
  79              		.loc 1 11 0
  80 0030 1860     		str	r0, [r3]
  81              		.loc 1 13 0
  82 0032 9960     		str	r1, [r3, #8]
  83              		.loc 1 18 0
  84 0034 9861     		str	r0, [r3, #24]
  85              		.loc 1 20 0
  86 0036 1962     		str	r1, [r3, #32]
  87              		.loc 1 25 0
  88 0038 1863     		str	r0, [r3, #48]
  89              		.loc 1 27 0
  90 003a 9963     		str	r1, [r3, #56]
  91              		.loc 1 32 0
  92 003c 9864     		str	r0, [r3, #72]
  93              		.loc 1 34 0
  94 003e 1965     		str	r1, [r3, #80]
  95              		.loc 1 39 0
  96 0040 1866     		str	r0, [r3, #96]
  97              		.loc 1 41 0
  98 0042 9966     		str	r1, [r3, #104]
  99              		.loc 1 46 0
 100 0044 9867     		str	r0, [r3, #120]
 101              		.loc 1 12 0
 102 0046 5A60     		str	r2, [r3, #4]
 103              		.loc 1 15 0
 104 0048 1A61     		str	r2, [r3, #16]
 105              		.loc 1 16 0
 106 004a 5A61     		str	r2, [r3, #20]
 107              		.loc 1 22 0
 108 004c 9A62     		str	r2, [r3, #40]
 109              		.loc 1 23 0
 110 004e DA62     		str	r2, [r3, #44]
 111              		.loc 1 29 0
 112 0050 1A64     		str	r2, [r3, #64]
 113              		.loc 1 30 0
 114 0052 5A64     		str	r2, [r3, #68]
ARM GAS  /var/folders/qh/xwg3v3kj02qbxczjpdb8lzfr0000gn/T//ccSGpg0K.s 			page 3


 115              		.loc 1 36 0
 116 0054 9A65     		str	r2, [r3, #88]
 117              		.loc 1 37 0
 118 0056 DA65     		str	r2, [r3, #92]
 119              		.loc 1 43 0
 120 0058 1A67     		str	r2, [r3, #112]
 121              		.loc 1 44 0
 122 005a 5A67     		str	r2, [r3, #116]
 123              		.loc 1 47 0
 124 005c DC67     		str	r4, [r3, #124]
 125              		.loc 1 49 0
 126 005e 5E51     		str	r6, [r3, r5]
 127              		.loc 1 50 0
 128 0060 8825     		mov	r5, #136
 129 0062 5A51     		str	r2, [r3, r5]
 130              		.loc 1 51 0
 131 0064 8C25     		mov	r5, #140
 132 0066 5A51     		str	r2, [r3, r5]
 133              		.loc 1 53 0
 134 0068 9025     		mov	r5, #144
 135 006a 5851     		str	r0, [r3, r5]
 136              		.loc 1 54 0
 137 006c 0626     		mov	r6, #6
 138 006e 9425     		mov	r5, #148
 139 0070 5E51     		str	r6, [r3, r5]
 140              		.loc 1 55 0
 141 0072 9825     		mov	r5, #152
 142 0074 5951     		str	r1, [r3, r5]
 143              		.loc 1 56 0
 144 0076 4026     		mov	r6, #64
 145 0078 9C25     		mov	r5, #156
 146 007a 5E51     		str	r6, [r3, r5]
 147              		.loc 1 57 0
 148 007c A025     		mov	r5, #160
 149 007e 5A51     		str	r2, [r3, r5]
 150              		.loc 1 58 0
 151 0080 A425     		mov	r5, #164
 152 0082 5A51     		str	r2, [r3, r5]
 153              		.loc 1 60 0
 154 0084 A825     		mov	r5, #168
 155 0086 5851     		str	r0, [r3, r5]
 156              		.loc 1 61 0
 157 0088 0725     		mov	r5, #7
 158 008a AC20     		mov	r0, #172
 159 008c 1D50     		str	r5, [r3, r0]
 160              		.loc 1 48 0
 161 008e 8024     		mov	r4, #128
 162              		.loc 1 62 0
 163 0090 B020     		mov	r0, #176
 164              		.loc 1 48 0
 165 0092 1951     		str	r1, [r3, r4]
 166              		.loc 1 62 0
 167 0094 1950     		str	r1, [r3, r0]
 168              		.loc 1 63 0
 169 0096 B421     		mov	r1, #180
 170 0098 5C50     		str	r4, [r3, r1]
 171              		.loc 1 64 0
ARM GAS  /var/folders/qh/xwg3v3kj02qbxczjpdb8lzfr0000gn/T//ccSGpg0K.s 			page 4


 172 009a B821     		mov	r1, #184
 173 009c 5A50     		str	r2, [r3, r1]
 174              		.loc 1 65 0
 175 009e BC21     		mov	r1, #188
 176 00a0 5A50     		str	r2, [r3, r1]
 177              		.loc 1 67 0
 178              		@ sp needed
 179 00a2 70BD     		pop	{r4, r5, r6, pc}
 180              	.L3:
 181              		.align	2
 182              	.L2:
 183 00a4 00000000 		.word	.LANCHOR0
 184              		.cfi_endproc
 185              	.LFE40:
 186              		.size	hardwareInitialise, .-hardwareInitialise
 187 00a8 C046C046 		.section	.text.hardwareSetupPin,"ax",%progbits
 187      C046C046 
 188              		.align	2
 189              		.p2align 4,,15
 190              		.global	hardwareSetupPin
 191              		.code	16
 192              		.thumb_func
 193              		.type	hardwareSetupPin, %function
 194              	hardwareSetupPin:
 195              	.LFB41:
 196              		.loc 1 72 0
 197              		.cfi_startproc
 198              	.LVL0:
 199 0000 F8B5     		push	{r3, r4, r5, r6, r7, lr}
 200              		.cfi_def_cfa_offset 24
 201              		.cfi_offset 3, -24
 202              		.cfi_offset 4, -20
 203              		.cfi_offset 5, -16
 204              		.cfi_offset 6, -12
 205              		.cfi_offset 7, -8
 206              		.cfi_offset 14, -4
 207 0002 0378     		ldrb	r3, [r0]
 208              		.loc 1 72 0
 209 0004 0C1C     		mov	r4, r1
 210 0006 303B     		sub	r3, r3, #48
 211 0008 DBB2     		uxtb	r3, r3
 212 000a 072B     		cmp	r3, #7
 213 000c 36D8     		bhi	.L5
 214 000e 2C4A     		ldr	r2, .L28
 215 0010 9B00     		lsl	r3, r3, #2
 216 0012 9D58     		ldr	r5, [r3, r2]
 217              		.loc 1 74 0
 218 0014 FF2D     		cmp	r5, #255
 219 0016 31D0     		beq	.L5
 220              		.loc 1 76 0
 221 0018 1029     		cmp	r1, #16
 222 001a 1DD0     		beq	.L17
 223 001c 15DD     		ble	.L25
 224 001e 4029     		cmp	r1, #64
 225 0020 1AD0     		beq	.L17
 226 0022 2CDD     		ble	.L26
 227 0024 8029     		cmp	r1, #128
ARM GAS  /var/folders/qh/xwg3v3kj02qbxczjpdb8lzfr0000gn/T//ccSGpg0K.s 			page 5


 228 0026 17D0     		beq	.L17
 229 0028 8023     		mov	r3, #128
 230 002a 5B01     		lsl	r3, r3, #5
 231 002c 9942     		cmp	r1, r3
 232 002e 28D1     		bne	.L20
 233              		.loc 1 85 0
 234 0030 6F00     		lsl	r7, r5, #1
 235 0032 244E     		ldr	r6, .L28+4
 236 0034 7B19     		add	r3, r7, r5
 237 0036 DB00     		lsl	r3, r3, #3
 238 0038 F058     		ldr	r0, [r6, r3]
 239              	.LVL1:
 240 003a F318     		add	r3, r6, r3
 241 003c 5B68     		ldr	r3, [r3, #4]
 242 003e 0121     		mov	r1, #1
 243              	.LVL2:
 244 0040 9940     		lsl	r1, r1, r3
 245 0042 0122     		mov	r2, #1
 246 0044 FFF7FEFF 		bl	_pal_lld_setgroupmode
 247              	.LVL3:
 248              		.loc 1 86 0
 249 0048 12E0     		b	.L19
 250              	.LVL4:
 251              	.L25:
 252              		.loc 1 76 0
 253 004a 0129     		cmp	r1, #1
 254 004c 2AD0     		beq	.L9
 255 004e 1ADD     		ble	.L27
 256 0050 0429     		cmp	r1, #4
 257 0052 01D0     		beq	.L17
 258 0054 0829     		cmp	r1, #8
 259 0056 14D1     		bne	.L20
 260              	.L17:
 261              		.loc 1 103 0
 262 0058 6F00     		lsl	r7, r5, #1
 263 005a 1A4E     		ldr	r6, .L28+4
 264 005c 7B19     		add	r3, r7, r5
 265 005e DB00     		lsl	r3, r3, #3
 266 0060 F058     		ldr	r0, [r6, r3]
 267              	.LVL5:
 268 0062 F318     		add	r3, r6, r3
 269 0064 5B68     		ldr	r3, [r3, #4]
 270 0066 0121     		mov	r1, #1
 271              	.LVL6:
 272 0068 9940     		lsl	r1, r1, r3
 273 006a 0322     		mov	r2, #3
 274 006c FFF7FEFF 		bl	_pal_lld_setgroupmode
 275              	.LVL7:
 276              	.L19:
 277              		.loc 1 110 0
 278 0070 7D19     		add	r5, r7, r5
 279 0072 ED00     		lsl	r5, r5, #3
 280 0074 7619     		add	r6, r6, r5
 281 0076 7461     		str	r4, [r6, #20]
 282              		.loc 1 111 0
 283 0078 0120     		mov	r0, #1
 284              	.L4:
ARM GAS  /var/folders/qh/xwg3v3kj02qbxczjpdb8lzfr0000gn/T//ccSGpg0K.s 			page 6


 285              		.loc 1 114 0
 286              		@ sp needed
 287              	.LVL8:
 288 007a F8BD     		pop	{r3, r4, r5, r6, r7, pc}
 289              	.LVL9:
 290              	.L5:
 291              	.LVL10:
 292 007c FDE7     		b	.L4
 293              	.LVL11:
 294              	.L26:
 295              		.loc 1 76 0
 296 007e 2029     		cmp	r1, #32
 297 0080 EAD0     		beq	.L17
 298              	.L20:
 299              		.loc 1 106 0
 300 0082 0020     		mov	r0, #0
 301              	.LVL12:
 302 0084 F9E7     		b	.L4
 303              	.LVL13:
 304              	.L27:
 305              		.loc 1 76 0
 306 0086 0029     		cmp	r1, #0
 307 0088 FBD1     		bne	.L20
 308              		.loc 1 79 0
 309 008a 6F00     		lsl	r7, r5, #1
 310 008c 0D4E     		ldr	r6, .L28+4
 311 008e 7B19     		add	r3, r7, r5
 312 0090 DB00     		lsl	r3, r3, #3
 313 0092 F058     		ldr	r0, [r6, r3]
 314              	.LVL14:
 315 0094 F318     		add	r3, r6, r3
 316 0096 5B68     		ldr	r3, [r3, #4]
 317 0098 0121     		mov	r1, #1
 318              	.LVL15:
 319 009a 9940     		lsl	r1, r1, r3
 320 009c 2022     		mov	r2, #32
 321 009e FFF7FEFF 		bl	_pal_lld_setgroupmode
 322              	.LVL16:
 323              		.loc 1 80 0
 324 00a2 E5E7     		b	.L19
 325              	.LVL17:
 326              	.L9:
 327              		.loc 1 82 0
 328 00a4 6F00     		lsl	r7, r5, #1
 329 00a6 074E     		ldr	r6, .L28+4
 330 00a8 7B19     		add	r3, r7, r5
 331 00aa DB00     		lsl	r3, r3, #3
 332 00ac F058     		ldr	r0, [r6, r3]
 333              	.LVL18:
 334 00ae F318     		add	r3, r6, r3
 335 00b0 5968     		ldr	r1, [r3, #4]
 336              	.LVL19:
 337 00b2 231C     		mov	r3, r4
 338 00b4 8B40     		lsl	r3, r3, r1
 339 00b6 191C     		mov	r1, r3
 340 00b8 0022     		mov	r2, #0
 341 00ba FFF7FEFF 		bl	_pal_lld_setgroupmode
ARM GAS  /var/folders/qh/xwg3v3kj02qbxczjpdb8lzfr0000gn/T//ccSGpg0K.s 			page 7


 342              	.LVL20:
 343              		.loc 1 83 0
 344 00be D7E7     		b	.L19
 345              	.L29:
 346              		.align	2
 347              	.L28:
 348 00c0 00000000 		.word	.LANCHOR1
 349 00c4 00000000 		.word	.LANCHOR0
 350              		.cfi_endproc
 351              	.LFE41:
 352              		.size	hardwareSetupPin, .-hardwareSetupPin
 353 00c8 C046C046 		.section	.text.hardwareCheckPins,"ax",%progbits
 353      C046C046 
 354              		.align	2
 355              		.p2align 4,,15
 356              		.global	hardwareCheckPins
 357              		.code	16
 358              		.thumb_func
 359              		.type	hardwareCheckPins, %function
 360              	hardwareCheckPins:
 361              	.LFB43:
 362              		.loc 1 147 0
 363              		.cfi_startproc
 364              	.LVL21:
 365 0000 10B5     		push	{r4, lr}
 366              		.cfi_def_cfa_offset 8
 367              		.cfi_offset 4, -8
 368              		.cfi_offset 14, -4
 369              		.loc 1 149 0
 370 0002 4378     		ldrb	r3, [r0, #1]
 371 0004 002B     		cmp	r3, #0
 372 0006 1CD0     		beq	.L34
 373              	.LVL22:
 374 0008 0378     		ldrb	r3, [r0]
 375              	.LBB39:
 376              		.loc 1 157 0
 377 000a 0024     		mov	r4, #0
 378 000c 303B     		sub	r3, r3, #48
 379 000e DBB2     		uxtb	r3, r3
 380 0010 072B     		cmp	r3, #7
 381 0012 17D8     		bhi	.L31
 382 0014 0D4A     		ldr	r2, .L40
 383 0016 9B00     		lsl	r3, r3, #2
 384 0018 9B58     		ldr	r3, [r3, r2]
 385              	.LVL23:
 386              		.loc 1 154 0
 387 001a FF2B     		cmp	r3, #255
 388 001c 12D0     		beq	.L31
 389              		.loc 1 160 0
 390 001e 5A00     		lsl	r2, r3, #1
 391 0020 D318     		add	r3, r2, r3
 392 0022 0B4A     		ldr	r2, .L40+4
 393 0024 DB00     		lsl	r3, r3, #3
 394 0026 D318     		add	r3, r2, r3
 395 0028 9A68     		ldr	r2, [r3, #8]
 396 002a 0A40     		and	r2, r1
 397 002c 8A42     		cmp	r2, r1
ARM GAS  /var/folders/qh/xwg3v3kj02qbxczjpdb8lzfr0000gn/T//ccSGpg0K.s 			page 8


 398 002e 09D1     		bne	.L31
 399 0030 0230     		add	r0, r0, #2
 400              	.LVL24:
 401 0032 111C     		mov	r1, r2
 402              	.LVL25:
 403 0034 02E0     		b	.L32
 404              	.LVL26:
 405              	.L33:
 406 0036 0130     		add	r0, r0, #1
 407              	.LVL27:
 408 0038 9142     		cmp	r1, r2
 409 003a 05D1     		bne	.L38
 410              	.LVL28:
 411              	.L32:
 412              	.LBE39:
 413              		.loc 1 149 0
 414 003c 0378     		ldrb	r3, [r0]
 415 003e 002B     		cmp	r3, #0
 416 0040 F9D1     		bne	.L33
 417              	.LVL29:
 418              	.L34:
 419              		.loc 1 168 0
 420 0042 0124     		mov	r4, #1
 421              	.L31:
 422              		.loc 1 170 0
 423 0044 201C     		mov	r0, r4
 424              		@ sp needed
 425 0046 10BD     		pop	{r4, pc}
 426              	.LVL30:
 427              	.L38:
 428              	.LBB40:
 429              		.loc 1 157 0
 430 0048 0024     		mov	r4, #0
 431 004a FBE7     		b	.L31
 432              	.L41:
 433              		.align	2
 434              	.L40:
 435 004c 00000000 		.word	.LANCHOR1
 436 0050 00000000 		.word	.LANCHOR0
 437              	.LBE40:
 438              		.cfi_endproc
 439              	.LFE43:
 440              		.size	hardwareCheckPins, .-hardwareCheckPins
 441 0054 C046C046 		.section	.text.hardwareSetupPins,"ax",%progbits
 441      C046C046 
 441      C046C046 
 442              		.align	2
 443              		.p2align 4,,15
 444              		.global	hardwareSetupPins
 445              		.code	16
 446              		.thumb_func
 447              		.type	hardwareSetupPins, %function
 448              	hardwareSetupPins:
 449              	.LFB42:
 450              		.loc 1 121 0
 451              		.cfi_startproc
 452              	.LVL31:
ARM GAS  /var/folders/qh/xwg3v3kj02qbxczjpdb8lzfr0000gn/T//ccSGpg0K.s 			page 9


 453 0000 70B5     		push	{r4, r5, r6, lr}
 454              		.cfi_def_cfa_offset 16
 455              		.cfi_offset 4, -16
 456              		.cfi_offset 5, -12
 457              		.cfi_offset 6, -8
 458              		.cfi_offset 14, -4
 459              		.loc 1 121 0
 460 0002 041C     		mov	r4, r0
 461 0004 0D1C     		mov	r5, r1
 462              		.loc 1 122 0
 463 0006 FFF7FEFF 		bl	hardwareCheckPins
 464              	.LVL32:
 465 000a 0028     		cmp	r0, #0
 466 000c 0CD0     		beq	.L43
 467              		.loc 1 131 0
 468 000e 661C     		add	r6, r4, #1
 469 0010 05E0     		b	.L46
 470              	.L44:
 471 0012 301C     		mov	r0, r6
 472 0014 291C     		mov	r1, r5
 473 0016 FFF7FEFF 		bl	hardwareSetupPin
 474              	.LVL33:
 475              		.loc 1 132 0
 476 001a 0028     		cmp	r0, #0
 477 001c 04D0     		beq	.L43
 478              	.LVL34:
 479              	.L46:
 480              		.loc 1 129 0
 481 001e 6378     		ldrb	r3, [r4, #1]
 482 0020 002B     		cmp	r3, #0
 483 0022 F6D1     		bne	.L44
 484              		.loc 1 142 0
 485 0024 0120     		mov	r0, #1
 486 0026 00E0     		b	.L45
 487              	.L43:
 488              		.loc 1 124 0
 489 0028 0020     		mov	r0, #0
 490              	.L45:
 491              		.loc 1 143 0
 492              		@ sp needed
 493              	.LVL35:
 494              	.LVL36:
 495 002a 70BD     		pop	{r4, r5, r6, pc}
 496              		.cfi_endproc
 497              	.LFE42:
 498              		.size	hardwareSetupPins, .-hardwareSetupPins
 499 002c C046C046 		.section	.text.hardwareCheckCurrentMode,"ax",%progbits
 500              		.align	2
 501              		.p2align 4,,15
 502              		.global	hardwareCheckCurrentMode
 503              		.code	16
 504              		.thumb_func
 505              		.type	hardwareCheckCurrentMode, %function
 506              	hardwareCheckCurrentMode:
 507              	.LFB44:
 508              		.loc 1 172 0
 509              		.cfi_startproc
ARM GAS  /var/folders/qh/xwg3v3kj02qbxczjpdb8lzfr0000gn/T//ccSGpg0K.s 			page 10


 510              	.LVL37:
 511 0000 0378     		ldrb	r3, [r0]
 512              		.loc 1 177 0
 513 0002 0020     		mov	r0, #0
 514              	.LVL38:
 515 0004 303B     		sub	r3, r3, #48
 516 0006 DBB2     		uxtb	r3, r3
 517 0008 072B     		cmp	r3, #7
 518 000a 0AD8     		bhi	.L54
 519 000c 054A     		ldr	r2, .L58
 520 000e 9B00     		lsl	r3, r3, #2
 521 0010 9B58     		ldr	r3, [r3, r2]
 522              	.LVL39:
 523              		.loc 1 175 0
 524 0012 FF2B     		cmp	r3, #255
 525 0014 05D0     		beq	.L54
 526              		.loc 1 180 0
 527 0016 5A00     		lsl	r2, r3, #1
 528 0018 D318     		add	r3, r2, r3
 529 001a 034A     		ldr	r2, .L58+4
 530 001c DB00     		lsl	r3, r3, #3
 531 001e D318     		add	r3, r2, r3
 532 0020 5869     		ldr	r0, [r3, #20]
 533              	.L54:
 534              		.loc 1 181 0
 535              		@ sp needed
 536 0022 7047     		bx	lr
 537              	.L59:
 538              		.align	2
 539              	.L58:
 540 0024 00000000 		.word	.LANCHOR1
 541 0028 00000000 		.word	.LANCHOR0
 542              		.cfi_endproc
 543              	.LFE44:
 544              		.size	hardwareCheckCurrentMode, .-hardwareCheckCurrentMode
 545 002c C046C046 		.section	.text.hardwarePinParse,"ax",%progbits
 546              		.align	2
 547              		.p2align 4,,15
 548              		.global	hardwarePinParse
 549              		.code	16
 550              		.thumb_func
 551              		.type	hardwarePinParse, %function
 552              	hardwarePinParse:
 553              	.LFB45:
 554              		.loc 1 185 0
 555              		.cfi_startproc
 556              	.LVL40:
 557 0000 0378     		ldrb	r3, [r0]
 558              	.LBB41:
 559              	.LBB42:
 560              		.loc 1 239 0
 561 0002 FF20     		mov	r0, #255
 562              	.LVL41:
 563 0004 303B     		sub	r3, r3, #48
 564 0006 DBB2     		uxtb	r3, r3
 565 0008 072B     		cmp	r3, #7
 566 000a 00D9     		bls	.L63
ARM GAS  /var/folders/qh/xwg3v3kj02qbxczjpdb8lzfr0000gn/T//ccSGpg0K.s 			page 11


 567              	.L61:
 568              	.LBE42:
 569              	.LBE41:
 570              		.loc 1 187 0
 571              		@ sp needed
 572 000c 7047     		bx	lr
 573              	.L63:
 574 000e 024A     		ldr	r2, .L64
 575 0010 9B00     		lsl	r3, r3, #2
 576 0012 9858     		ldr	r0, [r3, r2]
 577 0014 FAE7     		b	.L61
 578              	.L65:
 579 0016 C046     		.align	2
 580              	.L64:
 581 0018 00000000 		.word	.LANCHOR1
 582              		.cfi_endproc
 583              	.LFE45:
 584              		.size	hardwarePinParse, .-hardwarePinParse
 585 001c C046C046 		.section	.text.hardwareGetAdcLocation,"ax",%progbits
 586              		.align	2
 587              		.p2align 4,,15
 588              		.global	hardwareGetAdcLocation
 589              		.code	16
 590              		.thumb_func
 591              		.type	hardwareGetAdcLocation, %function
 592              	hardwareGetAdcLocation:
 593              	.LFB46:
 594              		.loc 1 190 0
 595              		.cfi_startproc
 596              	.LVL42:
 597 0000 0278     		ldrb	r2, [r0]
 598              	.LBB43:
 599              	.LBB44:
 600              	.LBB45:
 601              		.loc 1 239 0
 602 0002 FF23     		mov	r3, #255
 603 0004 303A     		sub	r2, r2, #48
 604 0006 D2B2     		uxtb	r2, r2
 605 0008 072A     		cmp	r2, #7
 606 000a 02D8     		bhi	.L67
 607 000c 044B     		ldr	r3, .L69
 608 000e 9200     		lsl	r2, r2, #2
 609 0010 D358     		ldr	r3, [r2, r3]
 610              	.L67:
 611              	.LBE45:
 612              	.LBE44:
 613              	.LBE43:
 614              		.loc 1 192 0
 615 0012 5A00     		lsl	r2, r3, #1
 616 0014 D318     		add	r3, r2, r3
 617 0016 034A     		ldr	r2, .L69+4
 618 0018 DB00     		lsl	r3, r3, #3
 619 001a D318     		add	r3, r2, r3
 620 001c D868     		ldr	r0, [r3, #12]
 621              	.LVL43:
 622              		.loc 1 194 0
 623              		@ sp needed
ARM GAS  /var/folders/qh/xwg3v3kj02qbxczjpdb8lzfr0000gn/T//ccSGpg0K.s 			page 12


 624 001e 7047     		bx	lr
 625              	.L70:
 626              		.align	2
 627              	.L69:
 628 0020 00000000 		.word	.LANCHOR1
 629 0024 00000000 		.word	.LANCHOR0
 630              		.cfi_endproc
 631              	.LFE46:
 632              		.size	hardwareGetAdcLocation, .-hardwareGetAdcLocation
 633 0028 C046C046 		.section	.text.hardwareSetAdcChannels,"ax",%progbits
 633      C046C046 
 634              		.align	2
 635              		.p2align 4,,15
 636              		.global	hardwareSetAdcChannels
 637              		.code	16
 638              		.thumb_func
 639              		.type	hardwareSetAdcChannels, %function
 640              	hardwareSetAdcChannels:
 641              	.LFB47:
 642              		.loc 1 198 0
 643              		.cfi_startproc
 644              	.LVL44:
 645              		.loc 1 201 0
 646 0000 0D4B     		ldr	r3, .L80
 647 0002 0022     		mov	r2, #0
 648              		.loc 1 198 0
 649 0004 70B5     		push	{r4, r5, r6, lr}
 650              		.cfi_def_cfa_offset 16
 651              		.cfi_offset 4, -16
 652              		.cfi_offset 5, -12
 653              		.cfi_offset 6, -8
 654              		.cfi_offset 14, -4
 655              		.loc 1 201 0
 656 0006 9A61     		str	r2, [r3, #24]
 657              		.loc 1 202 0
 658 0008 5A80     		strh	r2, [r3, #2]
 659              	.LVL45:
 660              		.loc 1 204 0
 661 000a 0028     		cmp	r0, #0
 662 000c 12D0     		beq	.L75
 663 000e 4378     		ldrb	r3, [r0, #1]
 664 0010 0A4C     		ldr	r4, .L80+4
 665 0012 1978     		ldrb	r1, [r3]
 666 0014 0A4E     		ldr	r6, .L80+8
 667 0016 3039     		sub	r1, r1, #48
 668 0018 C9B2     		uxtb	r1, r1
 669 001a 8D00     		lsl	r5, r1, #2
 670              	.LVL46:
 671              	.L74:
 672              		.loc 1 198 0
 673 001c FF23     		mov	r3, #255
 674 001e 0729     		cmp	r1, #7
 675 0020 00D8     		bhi	.L73
 676 0022 AB59     		ldr	r3, [r5, r6]
 677              	.L73:
 678              	.LBB46:
 679              	.LBB47:
ARM GAS  /var/folders/qh/xwg3v3kj02qbxczjpdb8lzfr0000gn/T//ccSGpg0K.s 			page 13


 680              	.LBB48:
 681              		.loc 1 192 0
 682 0024 5A00     		lsl	r2, r3, #1
 683 0026 D318     		add	r3, r2, r3
 684 0028 DB00     		lsl	r3, r3, #3
 685 002a E318     		add	r3, r4, r3
 686 002c D868     		ldr	r0, [r3, #12]
 687              	.LBE48:
 688              	.LBE47:
 689              		.loc 1 208 0
 690 002e 0028     		cmp	r0, #0
 691 0030 F4D1     		bne	.L74
 692              	.LVL47:
 693              	.L72:
 694              	.LBE46:
 695              		.loc 1 223 0
 696              		@ sp needed
 697 0032 70BD     		pop	{r4, r5, r6, pc}
 698              	.LVL48:
 699              	.L75:
 700              		.loc 1 222 0
 701 0034 0120     		mov	r0, #1
 702              	.LVL49:
 703 0036 FCE7     		b	.L72
 704              	.L81:
 705              		.align	2
 706              	.L80:
 707 0038 00000000 		.word	adcSettings
 708 003c 00000000 		.word	.LANCHOR0
 709 0040 00000000 		.word	.LANCHOR1
 710              		.cfi_endproc
 711              	.LFE47:
 712              		.size	hardwareSetAdcChannels, .-hardwareSetAdcChannels
 713 0044 C046C046 		.section	.text.hardwareGetIoPort,"ax",%progbits
 713      C046C046 
 713      C046C046 
 714              		.align	2
 715              		.p2align 4,,15
 716              		.global	hardwareGetIoPort
 717              		.code	16
 718              		.thumb_func
 719              		.type	hardwareGetIoPort, %function
 720              	hardwareGetIoPort:
 721              	.LFB48:
 722              		.loc 1 226 0
 723              		.cfi_startproc
 724              	.LVL50:
 725 0000 0278     		ldrb	r2, [r0]
 726              	.LBB49:
 727              	.LBB50:
 728              	.LBB51:
 729              		.loc 1 239 0
 730 0002 FF23     		mov	r3, #255
 731 0004 303A     		sub	r2, r2, #48
 732 0006 D2B2     		uxtb	r2, r2
 733 0008 072A     		cmp	r2, #7
 734 000a 02D8     		bhi	.L83
ARM GAS  /var/folders/qh/xwg3v3kj02qbxczjpdb8lzfr0000gn/T//ccSGpg0K.s 			page 14


 735 000c 044B     		ldr	r3, .L85
 736 000e 9200     		lsl	r2, r2, #2
 737 0010 D358     		ldr	r3, [r2, r3]
 738              	.L83:
 739              	.LBE51:
 740              	.LBE50:
 741              	.LBE49:
 742              		.loc 1 228 0
 743 0012 5A00     		lsl	r2, r3, #1
 744 0014 D318     		add	r3, r2, r3
 745 0016 034A     		ldr	r2, .L85+4
 746 0018 DB00     		lsl	r3, r3, #3
 747 001a 9858     		ldr	r0, [r3, r2]
 748              	.LVL51:
 749              		.loc 1 229 0
 750              		@ sp needed
 751 001c 7047     		bx	lr
 752              	.L86:
 753 001e C046     		.align	2
 754              	.L85:
 755 0020 00000000 		.word	.LANCHOR1
 756 0024 00000000 		.word	.LANCHOR0
 757              		.cfi_endproc
 758              	.LFE48:
 759              		.size	hardwareGetIoPort, .-hardwareGetIoPort
 760 0028 C046C046 		.section	.text.hardwareGetIoPin,"ax",%progbits
 760      C046C046 
 761              		.align	2
 762              		.p2align 4,,15
 763              		.global	hardwareGetIoPin
 764              		.code	16
 765              		.thumb_func
 766              		.type	hardwareGetIoPin, %function
 767              	hardwareGetIoPin:
 768              	.LFB49:
 769              		.loc 1 231 0
 770              		.cfi_startproc
 771              	.LVL52:
 772 0000 0278     		ldrb	r2, [r0]
 773              	.LBB52:
 774              	.LBB53:
 775              	.LBB54:
 776              		.loc 1 239 0
 777 0002 FF23     		mov	r3, #255
 778 0004 303A     		sub	r2, r2, #48
 779 0006 D2B2     		uxtb	r2, r2
 780 0008 072A     		cmp	r2, #7
 781 000a 02D8     		bhi	.L88
 782 000c 044B     		ldr	r3, .L90
 783 000e 9200     		lsl	r2, r2, #2
 784 0010 D358     		ldr	r3, [r2, r3]
 785              	.L88:
 786              	.LBE54:
 787              	.LBE53:
 788              	.LBE52:
 789              		.loc 1 233 0
 790 0012 5A00     		lsl	r2, r3, #1
ARM GAS  /var/folders/qh/xwg3v3kj02qbxczjpdb8lzfr0000gn/T//ccSGpg0K.s 			page 15


 791 0014 D318     		add	r3, r2, r3
 792 0016 034A     		ldr	r2, .L90+4
 793 0018 DB00     		lsl	r3, r3, #3
 794 001a D318     		add	r3, r2, r3
 795 001c 5868     		ldr	r0, [r3, #4]
 796              	.LVL53:
 797              		.loc 1 235 0
 798              		@ sp needed
 799 001e 7047     		bx	lr
 800              	.L91:
 801              		.align	2
 802              	.L90:
 803 0020 00000000 		.word	.LANCHOR1
 804 0024 00000000 		.word	.LANCHOR0
 805              		.cfi_endproc
 806              	.LFE49:
 807              		.size	hardwareGetIoPin, .-hardwareGetIoPin
 808 0028 C046C046 		.section	.text.hardwareParseDecimal,"ax",%progbits
 808      C046C046 
 809              		.align	2
 810              		.p2align 4,,15
 811              		.global	hardwareParseDecimal
 812              		.code	16
 813              		.thumb_func
 814              		.type	hardwareParseDecimal, %function
 815              	hardwareParseDecimal:
 816              	.LFB50:
 817              		.loc 1 238 0
 818              		.cfi_startproc
 819              	.LVL54:
 820 0000 0378     		ldrb	r3, [r0]
 821              		.loc 1 239 0
 822 0002 FF20     		mov	r0, #255
 823              	.LVL55:
 824 0004 303B     		sub	r3, r3, #48
 825 0006 DBB2     		uxtb	r3, r3
 826 0008 072B     		cmp	r3, #7
 827 000a 02D8     		bhi	.L93
 828 000c 014A     		ldr	r2, .L95
 829 000e 9B00     		lsl	r3, r3, #2
 830 0010 9858     		ldr	r0, [r3, r2]
 831              	.L93:
 832              		.loc 1 263 0
 833              		@ sp needed
 834 0012 7047     		bx	lr
 835              	.L96:
 836              		.align	2
 837              	.L95:
 838 0014 00000000 		.word	.LANCHOR1
 839              		.cfi_endproc
 840              	.LFE50:
 841              		.size	hardwareParseDecimal, .-hardwareParseDecimal
 842 0018 C046C046 		.section	.text.hardwareReadPins,"ax",%progbits
 842      C046C046 
 843              		.align	2
 844              		.p2align 4,,15
 845              		.global	hardwareReadPins
ARM GAS  /var/folders/qh/xwg3v3kj02qbxczjpdb8lzfr0000gn/T//ccSGpg0K.s 			page 16


 846              		.code	16
 847              		.thumb_func
 848              		.type	hardwareReadPins, %function
 849              	hardwareReadPins:
 850              	.LFB51:
 851              		.loc 1 265 0
 852              		.cfi_startproc
 853              	.LVL56:
 854              	.LVL57:
 855              		.loc 1 268 0
 856              		@ sp needed
 857 0000 7047     		bx	lr
 858              		.cfi_endproc
 859              	.LFE51:
 860              		.size	hardwareReadPins, .-hardwareReadPins
 861              		.global	hwPin
 862 0002 C046C046 		.section	.rodata.CSWTCH.6,"a",%progbits
 862      C046C046 
 862      C046C046 
 862      C046
 863              		.align	2
 864              		.set	.LANCHOR1,. + 0
 865              		.type	CSWTCH.6, %object
 866              		.size	CSWTCH.6, 32
 867              	CSWTCH.6:
 868 0000 00000000 		.word	0
 869 0004 01000000 		.word	1
 870 0008 02000000 		.word	2
 871 000c 03000000 		.word	3
 872 0010 04000000 		.word	4
 873 0014 05000000 		.word	5
 874 0018 06000000 		.word	6
 875 001c 07000000 		.word	7
 876              		.section	.bss.hwPin,"aw",%nobits
 877              		.align	2
 878              		.set	.LANCHOR0,. + 0
 879              		.type	hwPin, %object
 880              		.size	hwPin, 192
 881              	hwPin:
 882 0000 00000000 		.space	192
 882      00000000 
 882      00000000 
 882      00000000 
 882      00000000 
 883              		.text
 884              	.Letext0:
 885              		.file 2 "/usr/local/Cellar/gcc-arm-none-eabi-48/20131218/lib/gcc/arm-none-eabi/4.8.3/include/stdde
 886              		.file 3 "/usr/local/Cellar/gcc-arm-none-eabi-48/20131218/arm-none-eabi/include/stdint.h"
 887              		.file 4 "../../os/ports/GCC/ARMCMx/chtypes.h"
 888              		.file 5 "../../os/kernel/include/chlists.h"
 889              		.file 6 "../../os/kernel/include/chthreads.h"
 890              		.file 7 "../../os/ports/GCC/ARMCMx/chcore_v6m.h"
 891              		.file 8 "../../os/kernel/include/chmtx.h"
 892              		.file 9 "../../os/hal/platforms/STM32F0xx/stm32f0xx.h"
 893              		.file 10 "../../os/hal/platforms/STM32F0xx/stm32_dma.h"
 894              		.file 11 "../../os/hal/platforms/STM32/GPIOv2/pal_lld.h"
 895              		.file 12 "../../os/hal/include/adc.h"
ARM GAS  /var/folders/qh/xwg3v3kj02qbxczjpdb8lzfr0000gn/T//ccSGpg0K.s 			page 17


 896              		.file 13 "../../os/hal/platforms/STM32F0xx/adc_lld.h"
 897              		.file 14 "hardware.h"
 898              		.section	.debug_info,"",%progbits
 899              	.Ldebug_info0:
 900 0000 0B0D0000 		.4byte	0xd0b
 901 0004 0400     		.2byte	0x4
 902 0006 00000000 		.4byte	.Ldebug_abbrev0
 903 000a 04       		.byte	0x4
 904 000b 01       		.uleb128 0x1
 905 000c EB000000 		.4byte	.LASF154
 906 0010 01       		.byte	0x1
 907 0011 CC000000 		.4byte	.LASF155
 908 0015 C3020000 		.4byte	.LASF156
 909 0019 18000000 		.4byte	.Ldebug_ranges0+0x18
 910 001d 00000000 		.4byte	0
 911 0021 00000000 		.4byte	.Ldebug_line0
 912 0025 02       		.uleb128 0x2
 913 0026 04       		.byte	0x4
 914 0027 05       		.byte	0x5
 915 0028 696E7400 		.ascii	"int\000"
 916 002c 03       		.uleb128 0x3
 917 002d FE020000 		.4byte	.LASF2
 918 0031 02       		.byte	0x2
 919 0032 D4       		.byte	0xd4
 920 0033 37000000 		.4byte	0x37
 921 0037 04       		.uleb128 0x4
 922 0038 04       		.byte	0x4
 923 0039 07       		.byte	0x7
 924 003a 70000000 		.4byte	.LASF0
 925 003e 04       		.uleb128 0x4
 926 003f 01       		.byte	0x1
 927 0040 06       		.byte	0x6
 928 0041 02070000 		.4byte	.LASF1
 929 0045 03       		.uleb128 0x3
 930 0046 E6030000 		.4byte	.LASF3
 931 004a 03       		.byte	0x3
 932 004b 2A       		.byte	0x2a
 933 004c 50000000 		.4byte	0x50
 934 0050 04       		.uleb128 0x4
 935 0051 01       		.byte	0x1
 936 0052 08       		.byte	0x8
 937 0053 9B060000 		.4byte	.LASF4
 938 0057 04       		.uleb128 0x4
 939 0058 02       		.byte	0x2
 940 0059 05       		.byte	0x5
 941 005a 6C050000 		.4byte	.LASF5
 942 005e 03       		.uleb128 0x3
 943 005f 0F050000 		.4byte	.LASF6
 944 0063 03       		.byte	0x3
 945 0064 36       		.byte	0x36
 946 0065 69000000 		.4byte	0x69
 947 0069 04       		.uleb128 0x4
 948 006a 02       		.byte	0x2
 949 006b 07       		.byte	0x7
 950 006c 0E070000 		.4byte	.LASF7
 951 0070 03       		.uleb128 0x3
 952 0071 8C060000 		.4byte	.LASF8
ARM GAS  /var/folders/qh/xwg3v3kj02qbxczjpdb8lzfr0000gn/T//ccSGpg0K.s 			page 18


 953 0075 03       		.byte	0x3
 954 0076 4F       		.byte	0x4f
 955 0077 7B000000 		.4byte	0x7b
 956 007b 04       		.uleb128 0x4
 957 007c 04       		.byte	0x4
 958 007d 05       		.byte	0x5
 959 007e A2050000 		.4byte	.LASF9
 960 0082 03       		.uleb128 0x3
 961 0083 01020000 		.4byte	.LASF10
 962 0087 03       		.byte	0x3
 963 0088 50       		.byte	0x50
 964 0089 8D000000 		.4byte	0x8d
 965 008d 04       		.uleb128 0x4
 966 008e 04       		.byte	0x4
 967 008f 07       		.byte	0x7
 968 0090 5E060000 		.4byte	.LASF11
 969 0094 04       		.uleb128 0x4
 970 0095 08       		.byte	0x8
 971 0096 05       		.byte	0x5
 972 0097 3C040000 		.4byte	.LASF12
 973 009b 04       		.uleb128 0x4
 974 009c 08       		.byte	0x8
 975 009d 07       		.byte	0x7
 976 009e 6E020000 		.4byte	.LASF13
 977 00a2 03       		.uleb128 0x3
 978 00a3 11030000 		.4byte	.LASF14
 979 00a7 04       		.byte	0x4
 980 00a8 24       		.byte	0x24
 981 00a9 AD000000 		.4byte	0xad
 982 00ad 04       		.uleb128 0x4
 983 00ae 01       		.byte	0x1
 984 00af 02       		.byte	0x2
 985 00b0 18030000 		.4byte	.LASF15
 986 00b4 03       		.uleb128 0x3
 987 00b5 E2040000 		.4byte	.LASF16
 988 00b9 04       		.byte	0x4
 989 00ba 25       		.byte	0x25
 990 00bb 45000000 		.4byte	0x45
 991 00bf 03       		.uleb128 0x3
 992 00c0 AE030000 		.4byte	.LASF17
 993 00c4 04       		.byte	0x4
 994 00c5 26       		.byte	0x26
 995 00c6 45000000 		.4byte	0x45
 996 00ca 03       		.uleb128 0x3
 997 00cb 56060000 		.4byte	.LASF18
 998 00cf 04       		.byte	0x4
 999 00d0 27       		.byte	0x27
 1000 00d1 45000000 		.4byte	0x45
 1001 00d5 03       		.uleb128 0x3
 1002 00d6 C6040000 		.4byte	.LASF19
 1003 00da 04       		.byte	0x4
 1004 00db 28       		.byte	0x28
 1005 00dc 45000000 		.4byte	0x45
 1006 00e0 03       		.uleb128 0x3
 1007 00e1 3F020000 		.4byte	.LASF20
 1008 00e5 04       		.byte	0x4
 1009 00e6 29       		.byte	0x29
ARM GAS  /var/folders/qh/xwg3v3kj02qbxczjpdb8lzfr0000gn/T//ccSGpg0K.s 			page 19


 1010 00e7 82000000 		.4byte	0x82
 1011 00eb 03       		.uleb128 0x3
 1012 00ec 55040000 		.4byte	.LASF21
 1013 00f0 04       		.byte	0x4
 1014 00f1 2A       		.byte	0x2a
 1015 00f2 70000000 		.4byte	0x70
 1016 00f6 03       		.uleb128 0x3
 1017 00f7 28020000 		.4byte	.LASF22
 1018 00fb 04       		.byte	0x4
 1019 00fc 2C       		.byte	0x2c
 1020 00fd 82000000 		.4byte	0x82
 1021 0101 03       		.uleb128 0x3
 1022 0102 48000000 		.4byte	.LASF23
 1023 0106 04       		.byte	0x4
 1024 0107 2E       		.byte	0x2e
 1025 0108 82000000 		.4byte	0x82
 1026 010c 03       		.uleb128 0x3
 1027 010d A7030000 		.4byte	.LASF24
 1028 0111 05       		.byte	0x5
 1029 0112 23       		.byte	0x23
 1030 0113 17010000 		.4byte	0x117
 1031 0117 05       		.uleb128 0x5
 1032 0118 A7030000 		.4byte	.LASF24
 1033 011c 48       		.byte	0x48
 1034 011d 06       		.byte	0x6
 1035 011e 57       		.byte	0x57
 1036 011f 14020000 		.4byte	0x214
 1037 0123 06       		.uleb128 0x6
 1038 0124 E4050000 		.4byte	.LASF25
 1039 0128 06       		.byte	0x6
 1040 0129 58       		.byte	0x58
 1041 012a 35020000 		.4byte	0x235
 1042 012e 00       		.byte	0
 1043 012f 06       		.uleb128 0x6
 1044 0130 46060000 		.4byte	.LASF26
 1045 0134 06       		.byte	0x6
 1046 0135 5A       		.byte	0x5a
 1047 0136 35020000 		.4byte	0x235
 1048 013a 04       		.byte	0x4
 1049 013b 06       		.uleb128 0x6
 1050 013c 39000000 		.4byte	.LASF27
 1051 0140 06       		.byte	0x6
 1052 0141 5C       		.byte	0x5c
 1053 0142 E0000000 		.4byte	0xe0
 1054 0146 08       		.byte	0x8
 1055 0147 06       		.uleb128 0x6
 1056 0148 EB050000 		.4byte	.LASF28
 1057 014c 06       		.byte	0x6
 1058 014d 5D       		.byte	0x5d
 1059 014e E5020000 		.4byte	0x2e5
 1060 0152 0C       		.byte	0xc
 1061 0153 06       		.uleb128 0x6
 1062 0154 B0020000 		.4byte	.LASF29
 1063 0158 06       		.byte	0x6
 1064 0159 5F       		.byte	0x5f
 1065 015a 35020000 		.4byte	0x235
 1066 015e 10       		.byte	0x10
ARM GAS  /var/folders/qh/xwg3v3kj02qbxczjpdb8lzfr0000gn/T//ccSGpg0K.s 			page 20


 1067 015f 06       		.uleb128 0x6
 1068 0160 D6030000 		.4byte	.LASF30
 1069 0164 06       		.byte	0x6
 1070 0165 60       		.byte	0x60
 1071 0166 35020000 		.4byte	0x235
 1072 016a 14       		.byte	0x14
 1073 016b 06       		.uleb128 0x6
 1074 016c 87030000 		.4byte	.LASF31
 1075 0170 06       		.byte	0x6
 1076 0171 67       		.byte	0x67
 1077 0172 8C030000 		.4byte	0x38c
 1078 0176 18       		.byte	0x18
 1079 0177 06       		.uleb128 0x6
 1080 0178 DE030000 		.4byte	.LASF32
 1081 017c 06       		.byte	0x6
 1082 017d 72       		.byte	0x72
 1083 017e BF000000 		.4byte	0xbf
 1084 0182 1C       		.byte	0x1c
 1085 0183 06       		.uleb128 0x6
 1086 0184 8D040000 		.4byte	.LASF33
 1087 0188 06       		.byte	0x6
 1088 0189 76       		.byte	0x76
 1089 018a B4000000 		.4byte	0xb4
 1090 018e 1D       		.byte	0x1d
 1091 018f 06       		.uleb128 0x6
 1092 0190 A9060000 		.4byte	.LASF34
 1093 0194 06       		.byte	0x6
 1094 0195 7B       		.byte	0x7b
 1095 0196 CA000000 		.4byte	0xca
 1096 019a 1E       		.byte	0x1e
 1097 019b 06       		.uleb128 0x6
 1098 019c C0060000 		.4byte	.LASF35
 1099 01a0 06       		.byte	0x6
 1100 01a1 81       		.byte	0x81
 1101 01a2 D5000000 		.4byte	0xd5
 1102 01a6 1F       		.byte	0x1f
 1103 01a7 06       		.uleb128 0x6
 1104 01a8 24000000 		.4byte	.LASF36
 1105 01ac 06       		.byte	0x6
 1106 01ad 88       		.byte	0x88
 1107 01ae 10030000 		.4byte	0x310
 1108 01b2 20       		.byte	0x20
 1109 01b3 07       		.uleb128 0x7
 1110 01b4 705F7500 		.ascii	"p_u\000"
 1111 01b8 06       		.byte	0x6
 1112 01b9 AD       		.byte	0xad
 1113 01ba 57030000 		.4byte	0x357
 1114 01be 24       		.byte	0x24
 1115 01bf 06       		.uleb128 0x6
 1116 01c0 1A000000 		.4byte	.LASF37
 1117 01c4 06       		.byte	0x6
 1118 01c5 B2       		.byte	0xb2
 1119 01c6 5B020000 		.4byte	0x25b
 1120 01ca 28       		.byte	0x28
 1121 01cb 06       		.uleb128 0x6
 1122 01cc 5A000000 		.4byte	.LASF38
 1123 01d0 06       		.byte	0x6
ARM GAS  /var/folders/qh/xwg3v3kj02qbxczjpdb8lzfr0000gn/T//ccSGpg0K.s 			page 21


 1124 01d1 B8       		.byte	0xb8
 1125 01d2 3B020000 		.4byte	0x23b
 1126 01d6 2C       		.byte	0x2c
 1127 01d7 06       		.uleb128 0x6
 1128 01d8 DC040000 		.4byte	.LASF39
 1129 01dc 06       		.byte	0x6
 1130 01dd BC       		.byte	0xbc
 1131 01de EB000000 		.4byte	0xeb
 1132 01e2 34       		.byte	0x34
 1133 01e3 06       		.uleb128 0x6
 1134 01e4 8F050000 		.4byte	.LASF40
 1135 01e8 06       		.byte	0x6
 1136 01e9 C2       		.byte	0xc2
 1137 01ea F6000000 		.4byte	0xf6
 1138 01ee 38       		.byte	0x38
 1139 01ef 06       		.uleb128 0x6
 1140 01f0 00040000 		.4byte	.LASF41
 1141 01f4 06       		.byte	0x6
 1142 01f5 C9       		.byte	0xc9
 1143 01f6 9E030000 		.4byte	0x39e
 1144 01fa 3C       		.byte	0x3c
 1145 01fb 06       		.uleb128 0x6
 1146 01fc 39050000 		.4byte	.LASF42
 1147 0200 06       		.byte	0x6
 1148 0201 CD       		.byte	0xcd
 1149 0202 E0000000 		.4byte	0xe0
 1150 0206 40       		.byte	0x40
 1151 0207 06       		.uleb128 0x6
 1152 0208 F8030000 		.4byte	.LASF43
 1153 020c 06       		.byte	0x6
 1154 020d D3       		.byte	0xd3
 1155 020e 71020000 		.4byte	0x271
 1156 0212 44       		.byte	0x44
 1157 0213 00       		.byte	0
 1158 0214 08       		.uleb128 0x8
 1159 0215 08       		.byte	0x8
 1160 0216 05       		.byte	0x5
 1161 0217 5A       		.byte	0x5a
 1162 0218 35020000 		.4byte	0x235
 1163 021c 06       		.uleb128 0x6
 1164 021d E4050000 		.4byte	.LASF25
 1165 0221 05       		.byte	0x5
 1166 0222 5B       		.byte	0x5b
 1167 0223 35020000 		.4byte	0x235
 1168 0227 00       		.byte	0
 1169 0228 06       		.uleb128 0x6
 1170 0229 46060000 		.4byte	.LASF26
 1171 022d 05       		.byte	0x5
 1172 022e 5D       		.byte	0x5d
 1173 022f 35020000 		.4byte	0x235
 1174 0233 04       		.byte	0x4
 1175 0234 00       		.byte	0
 1176 0235 09       		.uleb128 0x9
 1177 0236 04       		.byte	0x4
 1178 0237 0C010000 		.4byte	0x10c
 1179 023b 03       		.uleb128 0x3
 1180 023c 8E030000 		.4byte	.LASF44
ARM GAS  /var/folders/qh/xwg3v3kj02qbxczjpdb8lzfr0000gn/T//ccSGpg0K.s 			page 22


 1181 0240 05       		.byte	0x5
 1182 0241 5F       		.byte	0x5f
 1183 0242 14020000 		.4byte	0x214
 1184 0246 08       		.uleb128 0x8
 1185 0247 04       		.byte	0x4
 1186 0248 05       		.byte	0x5
 1187 0249 64       		.byte	0x64
 1188 024a 5B020000 		.4byte	0x25b
 1189 024e 06       		.uleb128 0x6
 1190 024f E4050000 		.4byte	.LASF25
 1191 0253 05       		.byte	0x5
 1192 0254 66       		.byte	0x66
 1193 0255 35020000 		.4byte	0x235
 1194 0259 00       		.byte	0
 1195 025a 00       		.byte	0
 1196 025b 03       		.uleb128 0x3
 1197 025c 0E000000 		.4byte	.LASF45
 1198 0260 05       		.byte	0x5
 1199 0261 69       		.byte	0x69
 1200 0262 46020000 		.4byte	0x246
 1201 0266 03       		.uleb128 0x3
 1202 0267 30000000 		.4byte	.LASF46
 1203 026b 07       		.byte	0x7
 1204 026c A0       		.byte	0xa0
 1205 026d 71020000 		.4byte	0x271
 1206 0271 0A       		.uleb128 0xa
 1207 0272 04       		.byte	0x4
 1208 0273 05       		.uleb128 0x5
 1209 0274 18050000 		.4byte	.LASF47
 1210 0278 24       		.byte	0x24
 1211 0279 07       		.byte	0x7
 1212 027a B3       		.byte	0xb3
 1213 027b E5020000 		.4byte	0x2e5
 1214 027f 07       		.uleb128 0x7
 1215 0280 723800   		.ascii	"r8\000"
 1216 0283 07       		.byte	0x7
 1217 0284 B4       		.byte	0xb4
 1218 0285 66020000 		.4byte	0x266
 1219 0289 00       		.byte	0
 1220 028a 07       		.uleb128 0x7
 1221 028b 723900   		.ascii	"r9\000"
 1222 028e 07       		.byte	0x7
 1223 028f B5       		.byte	0xb5
 1224 0290 66020000 		.4byte	0x266
 1225 0294 04       		.byte	0x4
 1226 0295 07       		.uleb128 0x7
 1227 0296 72313000 		.ascii	"r10\000"
 1228 029a 07       		.byte	0x7
 1229 029b B6       		.byte	0xb6
 1230 029c 66020000 		.4byte	0x266
 1231 02a0 08       		.byte	0x8
 1232 02a1 07       		.uleb128 0x7
 1233 02a2 72313100 		.ascii	"r11\000"
 1234 02a6 07       		.byte	0x7
 1235 02a7 B7       		.byte	0xb7
 1236 02a8 66020000 		.4byte	0x266
 1237 02ac 0C       		.byte	0xc
ARM GAS  /var/folders/qh/xwg3v3kj02qbxczjpdb8lzfr0000gn/T//ccSGpg0K.s 			page 23


 1238 02ad 07       		.uleb128 0x7
 1239 02ae 723400   		.ascii	"r4\000"
 1240 02b1 07       		.byte	0x7
 1241 02b2 B8       		.byte	0xb8
 1242 02b3 66020000 		.4byte	0x266
 1243 02b7 10       		.byte	0x10
 1244 02b8 07       		.uleb128 0x7
 1245 02b9 723500   		.ascii	"r5\000"
 1246 02bc 07       		.byte	0x7
 1247 02bd B9       		.byte	0xb9
 1248 02be 66020000 		.4byte	0x266
 1249 02c2 14       		.byte	0x14
 1250 02c3 07       		.uleb128 0x7
 1251 02c4 723600   		.ascii	"r6\000"
 1252 02c7 07       		.byte	0x7
 1253 02c8 BA       		.byte	0xba
 1254 02c9 66020000 		.4byte	0x266
 1255 02cd 18       		.byte	0x18
 1256 02ce 07       		.uleb128 0x7
 1257 02cf 723700   		.ascii	"r7\000"
 1258 02d2 07       		.byte	0x7
 1259 02d3 BB       		.byte	0xbb
 1260 02d4 66020000 		.4byte	0x266
 1261 02d8 1C       		.byte	0x1c
 1262 02d9 07       		.uleb128 0x7
 1263 02da 6C7200   		.ascii	"lr\000"
 1264 02dd 07       		.byte	0x7
 1265 02de BC       		.byte	0xbc
 1266 02df 66020000 		.4byte	0x266
 1267 02e3 20       		.byte	0x20
 1268 02e4 00       		.byte	0
 1269 02e5 05       		.uleb128 0x5
 1270 02e6 5B040000 		.4byte	.LASF48
 1271 02ea 04       		.byte	0x4
 1272 02eb 07       		.byte	0x7
 1273 02ec C6       		.byte	0xc6
 1274 02ed FE020000 		.4byte	0x2fe
 1275 02f1 07       		.uleb128 0x7
 1276 02f2 72313300 		.ascii	"r13\000"
 1277 02f6 07       		.byte	0x7
 1278 02f7 C7       		.byte	0xc7
 1279 02f8 FE020000 		.4byte	0x2fe
 1280 02fc 00       		.byte	0
 1281 02fd 00       		.byte	0
 1282 02fe 09       		.uleb128 0x9
 1283 02ff 04       		.byte	0x4
 1284 0300 73020000 		.4byte	0x273
 1285 0304 0B       		.uleb128 0xb
 1286 0305 82000000 		.4byte	0x82
 1287 0309 04       		.uleb128 0x4
 1288 030a 04       		.byte	0x4
 1289 030b 07       		.byte	0x7
 1290 030c 4D060000 		.4byte	.LASF49
 1291 0310 0B       		.uleb128 0xb
 1292 0311 01010000 		.4byte	0x101
 1293 0315 05       		.uleb128 0x5
 1294 0316 4C030000 		.4byte	.LASF50
ARM GAS  /var/folders/qh/xwg3v3kj02qbxczjpdb8lzfr0000gn/T//ccSGpg0K.s 			page 24


 1295 031a 10       		.byte	0x10
 1296 031b 08       		.byte	0x8
 1297 031c 25       		.byte	0x25
 1298 031d 46030000 		.4byte	0x346
 1299 0321 06       		.uleb128 0x6
 1300 0322 9A050000 		.4byte	.LASF51
 1301 0326 08       		.byte	0x8
 1302 0327 26       		.byte	0x26
 1303 0328 3B020000 		.4byte	0x23b
 1304 032c 00       		.byte	0
 1305 032d 06       		.uleb128 0x6
 1306 032e 52000000 		.4byte	.LASF52
 1307 0332 08       		.byte	0x8
 1308 0333 28       		.byte	0x28
 1309 0334 35020000 		.4byte	0x235
 1310 0338 08       		.byte	0x8
 1311 0339 06       		.uleb128 0x6
 1312 033a FB060000 		.4byte	.LASF53
 1313 033e 08       		.byte	0x8
 1314 033f 2A       		.byte	0x2a
 1315 0340 46030000 		.4byte	0x346
 1316 0344 0C       		.byte	0xc
 1317 0345 00       		.byte	0
 1318 0346 09       		.uleb128 0x9
 1319 0347 04       		.byte	0x4
 1320 0348 15030000 		.4byte	0x315
 1321 034c 03       		.uleb128 0x3
 1322 034d 4C030000 		.4byte	.LASF50
 1323 0351 08       		.byte	0x8
 1324 0352 2C       		.byte	0x2c
 1325 0353 15030000 		.4byte	0x315
 1326 0357 0C       		.uleb128 0xc
 1327 0358 04       		.byte	0x4
 1328 0359 06       		.byte	0x6
 1329 035a 8F       		.byte	0x8f
 1330 035b 8C030000 		.4byte	0x38c
 1331 035f 0D       		.uleb128 0xd
 1332 0360 05030000 		.4byte	.LASF54
 1333 0364 06       		.byte	0x6
 1334 0365 96       		.byte	0x96
 1335 0366 EB000000 		.4byte	0xeb
 1336 036a 0D       		.uleb128 0xd
 1337 036b 4E070000 		.4byte	.LASF55
 1338 036f 06       		.byte	0x6
 1339 0370 9D       		.byte	0x9d
 1340 0371 EB000000 		.4byte	0xeb
 1341 0375 0D       		.uleb128 0xd
 1342 0376 EA010000 		.4byte	.LASF56
 1343 037a 06       		.byte	0x6
 1344 037b A4       		.byte	0xa4
 1345 037c 71020000 		.4byte	0x271
 1346 0380 0D       		.uleb128 0xd
 1347 0381 C5010000 		.4byte	.LASF57
 1348 0385 06       		.byte	0x6
 1349 0386 AB       		.byte	0xab
 1350 0387 F6000000 		.4byte	0xf6
 1351 038b 00       		.byte	0
ARM GAS  /var/folders/qh/xwg3v3kj02qbxczjpdb8lzfr0000gn/T//ccSGpg0K.s 			page 25


 1352 038c 09       		.uleb128 0x9
 1353 038d 04       		.byte	0x4
 1354 038e 92030000 		.4byte	0x392
 1355 0392 0E       		.uleb128 0xe
 1356 0393 97030000 		.4byte	0x397
 1357 0397 04       		.uleb128 0x4
 1358 0398 01       		.byte	0x1
 1359 0399 08       		.byte	0x8
 1360 039a 9B030000 		.4byte	.LASF58
 1361 039e 09       		.uleb128 0x9
 1362 039f 04       		.byte	0x4
 1363 03a0 4C030000 		.4byte	0x34c
 1364 03a4 0F       		.uleb128 0xf
 1365 03a5 44       		.byte	0x44
 1366 03a6 09       		.byte	0x9
 1367 03a7 2B01     		.2byte	0x12b
 1368 03a9 54040000 		.4byte	0x454
 1369 03ad 10       		.uleb128 0x10
 1370 03ae 49535200 		.ascii	"ISR\000"
 1371 03b2 09       		.byte	0x9
 1372 03b3 2D01     		.2byte	0x12d
 1373 03b5 04030000 		.4byte	0x304
 1374 03b9 00       		.byte	0
 1375 03ba 10       		.uleb128 0x10
 1376 03bb 49455200 		.ascii	"IER\000"
 1377 03bf 09       		.byte	0x9
 1378 03c0 2E01     		.2byte	0x12e
 1379 03c2 04030000 		.4byte	0x304
 1380 03c6 04       		.byte	0x4
 1381 03c7 10       		.uleb128 0x10
 1382 03c8 435200   		.ascii	"CR\000"
 1383 03cb 09       		.byte	0x9
 1384 03cc 2F01     		.2byte	0x12f
 1385 03ce 04030000 		.4byte	0x304
 1386 03d2 08       		.byte	0x8
 1387 03d3 11       		.uleb128 0x11
 1388 03d4 D0040000 		.4byte	.LASF59
 1389 03d8 09       		.byte	0x9
 1390 03d9 3001     		.2byte	0x130
 1391 03db 04030000 		.4byte	0x304
 1392 03df 0C       		.byte	0xc
 1393 03e0 11       		.uleb128 0x11
 1394 03e1 D6040000 		.4byte	.LASF60
 1395 03e5 09       		.byte	0x9
 1396 03e6 3101     		.2byte	0x131
 1397 03e8 04030000 		.4byte	0x304
 1398 03ec 10       		.byte	0x10
 1399 03ed 11       		.uleb128 0x11
 1400 03ee 0C030000 		.4byte	.LASF61
 1401 03f2 09       		.byte	0x9
 1402 03f3 3201     		.2byte	0x132
 1403 03f5 04030000 		.4byte	0x304
 1404 03f9 14       		.byte	0x14
 1405 03fa 11       		.uleb128 0x11
 1406 03fb 44050000 		.4byte	.LASF62
 1407 03ff 09       		.byte	0x9
 1408 0400 3301     		.2byte	0x133
ARM GAS  /var/folders/qh/xwg3v3kj02qbxczjpdb8lzfr0000gn/T//ccSGpg0K.s 			page 26


 1409 0402 82000000 		.4byte	0x82
 1410 0406 18       		.byte	0x18
 1411 0407 11       		.uleb128 0x11
 1412 0408 4E050000 		.4byte	.LASF63
 1413 040c 09       		.byte	0x9
 1414 040d 3401     		.2byte	0x134
 1415 040f 82000000 		.4byte	0x82
 1416 0413 1C       		.byte	0x1c
 1417 0414 10       		.uleb128 0x10
 1418 0415 545200   		.ascii	"TR\000"
 1419 0418 09       		.byte	0x9
 1420 0419 3501     		.2byte	0x135
 1421 041b 04030000 		.4byte	0x304
 1422 041f 20       		.byte	0x20
 1423 0420 11       		.uleb128 0x11
 1424 0421 58050000 		.4byte	.LASF64
 1425 0425 09       		.byte	0x9
 1426 0426 3601     		.2byte	0x136
 1427 0428 82000000 		.4byte	0x82
 1428 042c 24       		.byte	0x24
 1429 042d 11       		.uleb128 0x11
 1430 042e A9020000 		.4byte	.LASF65
 1431 0432 09       		.byte	0x9
 1432 0433 3701     		.2byte	0x137
 1433 0435 04030000 		.4byte	0x304
 1434 0439 28       		.byte	0x28
 1435 043a 11       		.uleb128 0x11
 1436 043b 62050000 		.4byte	.LASF66
 1437 043f 09       		.byte	0x9
 1438 0440 3801     		.2byte	0x138
 1439 0442 54040000 		.4byte	0x454
 1440 0446 2C       		.byte	0x2c
 1441 0447 10       		.uleb128 0x10
 1442 0448 445200   		.ascii	"DR\000"
 1443 044b 09       		.byte	0x9
 1444 044c 3901     		.2byte	0x139
 1445 044e 04030000 		.4byte	0x304
 1446 0452 40       		.byte	0x40
 1447 0453 00       		.byte	0
 1448 0454 12       		.uleb128 0x12
 1449 0455 82000000 		.4byte	0x82
 1450 0459 64040000 		.4byte	0x464
 1451 045d 13       		.uleb128 0x13
 1452 045e 09030000 		.4byte	0x309
 1453 0462 04       		.byte	0x4
 1454 0463 00       		.byte	0
 1455 0464 14       		.uleb128 0x14
 1456 0465 D0060000 		.4byte	.LASF67
 1457 0469 09       		.byte	0x9
 1458 046a 3A01     		.2byte	0x13a
 1459 046c A4030000 		.4byte	0x3a4
 1460 0470 0F       		.uleb128 0xf
 1461 0471 10       		.byte	0x10
 1462 0472 09       		.byte	0x9
 1463 0473 8A01     		.2byte	0x18a
 1464 0475 AE040000 		.4byte	0x4ae
 1465 0479 10       		.uleb128 0x10
ARM GAS  /var/folders/qh/xwg3v3kj02qbxczjpdb8lzfr0000gn/T//ccSGpg0K.s 			page 27


 1466 047a 43435200 		.ascii	"CCR\000"
 1467 047e 09       		.byte	0x9
 1468 047f 8C01     		.2byte	0x18c
 1469 0481 04030000 		.4byte	0x304
 1470 0485 00       		.byte	0
 1471 0486 11       		.uleb128 0x11
 1472 0487 F1010000 		.4byte	.LASF68
 1473 048b 09       		.byte	0x9
 1474 048c 8D01     		.2byte	0x18d
 1475 048e 04030000 		.4byte	0x304
 1476 0492 04       		.byte	0x4
 1477 0493 11       		.uleb128 0x11
 1478 0494 BE020000 		.4byte	.LASF69
 1479 0498 09       		.byte	0x9
 1480 0499 8E01     		.2byte	0x18e
 1481 049b 04030000 		.4byte	0x304
 1482 049f 08       		.byte	0x8
 1483 04a0 11       		.uleb128 0x11
 1484 04a1 A9000000 		.4byte	.LASF70
 1485 04a5 09       		.byte	0x9
 1486 04a6 8F01     		.2byte	0x18f
 1487 04a8 04030000 		.4byte	0x304
 1488 04ac 0C       		.byte	0xc
 1489 04ad 00       		.byte	0
 1490 04ae 14       		.uleb128 0x14
 1491 04af D7000000 		.4byte	.LASF71
 1492 04b3 09       		.byte	0x9
 1493 04b4 9001     		.2byte	0x190
 1494 04b6 70040000 		.4byte	0x470
 1495 04ba 08       		.uleb128 0x8
 1496 04bb 0C       		.byte	0xc
 1497 04bc 0A       		.byte	0xa
 1498 04bd B6       		.byte	0xb6
 1499 04be FF040000 		.4byte	0x4ff
 1500 04c2 06       		.uleb128 0x6
 1501 04c3 1F050000 		.4byte	.LASF72
 1502 04c7 0A       		.byte	0xa
 1503 04c8 B7       		.byte	0xb7
 1504 04c9 FF040000 		.4byte	0x4ff
 1505 04cd 00       		.byte	0
 1506 04ce 06       		.uleb128 0x6
 1507 04cf 34020000 		.4byte	.LASF73
 1508 04d3 0A       		.byte	0xa
 1509 04d4 B8       		.byte	0xb8
 1510 04d5 05050000 		.4byte	0x505
 1511 04d9 04       		.byte	0x4
 1512 04da 06       		.uleb128 0x6
 1513 04db A0030000 		.4byte	.LASF74
 1514 04df 0A       		.byte	0xa
 1515 04e0 B9       		.byte	0xb9
 1516 04e1 45000000 		.4byte	0x45
 1517 04e5 08       		.byte	0x8
 1518 04e6 06       		.uleb128 0x6
 1519 04e7 57070000 		.4byte	.LASF75
 1520 04eb 0A       		.byte	0xa
 1521 04ec BB       		.byte	0xbb
 1522 04ed 45000000 		.4byte	0x45
ARM GAS  /var/folders/qh/xwg3v3kj02qbxczjpdb8lzfr0000gn/T//ccSGpg0K.s 			page 28


 1523 04f1 09       		.byte	0x9
 1524 04f2 06       		.uleb128 0x6
 1525 04f3 92020000 		.4byte	.LASF76
 1526 04f7 0A       		.byte	0xa
 1527 04f8 BC       		.byte	0xbc
 1528 04f9 45000000 		.4byte	0x45
 1529 04fd 0A       		.byte	0xa
 1530 04fe 00       		.byte	0
 1531 04ff 09       		.uleb128 0x9
 1532 0500 04       		.byte	0x4
 1533 0501 AE040000 		.4byte	0x4ae
 1534 0505 09       		.uleb128 0x9
 1535 0506 04       		.byte	0x4
 1536 0507 04030000 		.4byte	0x304
 1537 050b 03       		.uleb128 0x3
 1538 050c C3030000 		.4byte	.LASF77
 1539 0510 0A       		.byte	0xa
 1540 0511 BD       		.byte	0xbd
 1541 0512 BA040000 		.4byte	0x4ba
 1542 0516 08       		.uleb128 0x8
 1543 0517 04       		.byte	0x4
 1544 0518 0B       		.byte	0xb
 1545 0519 96       		.byte	0x96
 1546 051a 37050000 		.4byte	0x537
 1547 051e 07       		.uleb128 0x7
 1548 051f 73657400 		.ascii	"set\000"
 1549 0523 0B       		.byte	0xb
 1550 0524 97       		.byte	0x97
 1551 0525 5E000000 		.4byte	0x5e
 1552 0529 00       		.byte	0
 1553 052a 06       		.uleb128 0x6
 1554 052b B8020000 		.4byte	.LASF78
 1555 052f 0B       		.byte	0xb
 1556 0530 98       		.byte	0x98
 1557 0531 5E000000 		.4byte	0x5e
 1558 0535 02       		.byte	0x2
 1559 0536 00       		.byte	0
 1560 0537 0C       		.uleb128 0xc
 1561 0538 04       		.byte	0x4
 1562 0539 0B       		.byte	0xb
 1563 053a 94       		.byte	0x94
 1564 053b 52050000 		.4byte	0x552
 1565 053f 15       		.uleb128 0x15
 1566 0540 5700     		.ascii	"W\000"
 1567 0542 0B       		.byte	0xb
 1568 0543 95       		.byte	0x95
 1569 0544 82000000 		.4byte	0x82
 1570 0548 15       		.uleb128 0x15
 1571 0549 4800     		.ascii	"H\000"
 1572 054b 0B       		.byte	0xb
 1573 054c 99       		.byte	0x99
 1574 054d 16050000 		.4byte	0x516
 1575 0551 00       		.byte	0
 1576 0552 08       		.uleb128 0x8
 1577 0553 28       		.byte	0x28
 1578 0554 0B       		.byte	0xb
 1579 0555 8C       		.byte	0x8c
ARM GAS  /var/folders/qh/xwg3v3kj02qbxczjpdb8lzfr0000gn/T//ccSGpg0K.s 			page 29


 1580 0556 D3050000 		.4byte	0x5d3
 1581 055a 06       		.uleb128 0x6
 1582 055b 99020000 		.4byte	.LASF79
 1583 055f 0B       		.byte	0xb
 1584 0560 8E       		.byte	0x8e
 1585 0561 04030000 		.4byte	0x304
 1586 0565 00       		.byte	0
 1587 0566 06       		.uleb128 0x6
 1588 0567 DD050000 		.4byte	.LASF80
 1589 056b 0B       		.byte	0xb
 1590 056c 8F       		.byte	0x8f
 1591 056d 04030000 		.4byte	0x304
 1592 0571 04       		.byte	0x4
 1593 0572 06       		.uleb128 0x6
 1594 0573 F6040000 		.4byte	.LASF81
 1595 0577 0B       		.byte	0xb
 1596 0578 90       		.byte	0x90
 1597 0579 04030000 		.4byte	0x304
 1598 057d 08       		.byte	0x8
 1599 057e 06       		.uleb128 0x6
 1600 057f 77030000 		.4byte	.LASF82
 1601 0583 0B       		.byte	0xb
 1602 0584 91       		.byte	0x91
 1603 0585 04030000 		.4byte	0x304
 1604 0589 0C       		.byte	0xc
 1605 058a 07       		.uleb128 0x7
 1606 058b 49445200 		.ascii	"IDR\000"
 1607 058f 0B       		.byte	0xb
 1608 0590 92       		.byte	0x92
 1609 0591 04030000 		.4byte	0x304
 1610 0595 10       		.byte	0x10
 1611 0596 07       		.uleb128 0x7
 1612 0597 4F445200 		.ascii	"ODR\000"
 1613 059b 0B       		.byte	0xb
 1614 059c 93       		.byte	0x93
 1615 059d 04030000 		.4byte	0x304
 1616 05a1 14       		.byte	0x14
 1617 05a2 06       		.uleb128 0x6
 1618 05a3 2B000000 		.4byte	.LASF83
 1619 05a7 0B       		.byte	0xb
 1620 05a8 9A       		.byte	0x9a
 1621 05a9 D3050000 		.4byte	0x5d3
 1622 05ad 18       		.byte	0x18
 1623 05ae 06       		.uleb128 0x6
 1624 05af 61070000 		.4byte	.LASF84
 1625 05b3 0B       		.byte	0xb
 1626 05b4 9B       		.byte	0x9b
 1627 05b5 04030000 		.4byte	0x304
 1628 05b9 1C       		.byte	0x1c
 1629 05ba 06       		.uleb128 0x6
 1630 05bb A4020000 		.4byte	.LASF85
 1631 05bf 0B       		.byte	0xb
 1632 05c0 9C       		.byte	0x9c
 1633 05c1 04030000 		.4byte	0x304
 1634 05c5 20       		.byte	0x20
 1635 05c6 06       		.uleb128 0x6
 1636 05c7 9F020000 		.4byte	.LASF86
ARM GAS  /var/folders/qh/xwg3v3kj02qbxczjpdb8lzfr0000gn/T//ccSGpg0K.s 			page 30


 1637 05cb 0B       		.byte	0xb
 1638 05cc 9D       		.byte	0x9d
 1639 05cd 04030000 		.4byte	0x304
 1640 05d1 24       		.byte	0x24
 1641 05d2 00       		.byte	0
 1642 05d3 0B       		.uleb128 0xb
 1643 05d4 37050000 		.4byte	0x537
 1644 05d8 03       		.uleb128 0x3
 1645 05d9 26060000 		.4byte	.LASF87
 1646 05dd 0B       		.byte	0xb
 1647 05de 9E       		.byte	0x9e
 1648 05df 52050000 		.4byte	0x552
 1649 05e3 03       		.uleb128 0x3
 1650 05e4 95040000 		.4byte	.LASF88
 1651 05e8 0B       		.byte	0xb
 1652 05e9 F0       		.byte	0xf0
 1653 05ea 82000000 		.4byte	0x82
 1654 05ee 03       		.uleb128 0x3
 1655 05ef F2060000 		.4byte	.LASF89
 1656 05f3 0B       		.byte	0xb
 1657 05f4 F5       		.byte	0xf5
 1658 05f5 82000000 		.4byte	0x82
 1659 05f9 03       		.uleb128 0x3
 1660 05fa 10060000 		.4byte	.LASF90
 1661 05fe 0B       		.byte	0xb
 1662 05ff FD       		.byte	0xfd
 1663 0600 04060000 		.4byte	0x604
 1664 0604 09       		.uleb128 0x9
 1665 0605 04       		.byte	0x4
 1666 0606 D8050000 		.4byte	0x5d8
 1667 060a 16       		.uleb128 0x16
 1668 060b 01       		.byte	0x1
 1669 060c 0C       		.byte	0xc
 1670 060d 4E       		.byte	0x4e
 1671 060e 37060000 		.4byte	0x637
 1672 0612 17       		.uleb128 0x17
 1673 0613 1B060000 		.4byte	.LASF91
 1674 0617 00       		.sleb128 0
 1675 0618 17       		.uleb128 0x17
 1676 0619 45070000 		.4byte	.LASF92
 1677 061d 01       		.sleb128 1
 1678 061e 17       		.uleb128 0x17
 1679 061f 70060000 		.4byte	.LASF93
 1680 0623 02       		.sleb128 2
 1681 0624 17       		.uleb128 0x17
 1682 0625 27050000 		.4byte	.LASF94
 1683 0629 03       		.sleb128 3
 1684 062a 17       		.uleb128 0x17
 1685 062b 6A030000 		.4byte	.LASF95
 1686 062f 04       		.sleb128 4
 1687 0630 17       		.uleb128 0x17
 1688 0631 EE030000 		.4byte	.LASF96
 1689 0635 05       		.sleb128 5
 1690 0636 00       		.byte	0
 1691 0637 03       		.uleb128 0x3
 1692 0638 81060000 		.4byte	.LASF97
 1693 063c 0C       		.byte	0xc
ARM GAS  /var/folders/qh/xwg3v3kj02qbxczjpdb8lzfr0000gn/T//ccSGpg0K.s 			page 31


 1694 063d 55       		.byte	0x55
 1695 063e 0A060000 		.4byte	0x60a
 1696 0642 03       		.uleb128 0x3
 1697 0643 EA040000 		.4byte	.LASF98
 1698 0647 0D       		.byte	0xd
 1699 0648 8F       		.byte	0x8f
 1700 0649 5E000000 		.4byte	0x5e
 1701 064d 03       		.uleb128 0x3
 1702 064e 76050000 		.4byte	.LASF99
 1703 0652 0D       		.byte	0xd
 1704 0653 94       		.byte	0x94
 1705 0654 5E000000 		.4byte	0x5e
 1706 0658 16       		.uleb128 0x16
 1707 0659 01       		.byte	0x1
 1708 065a 0D       		.byte	0xd
 1709 065b 9B       		.byte	0x9b
 1710 065c 73060000 		.4byte	0x673
 1711 0660 17       		.uleb128 0x17
 1712 0661 33060000 		.4byte	.LASF100
 1713 0665 00       		.sleb128 0
 1714 0666 17       		.uleb128 0x17
 1715 0667 52030000 		.4byte	.LASF101
 1716 066b 01       		.sleb128 1
 1717 066c 17       		.uleb128 0x17
 1718 066d 30030000 		.4byte	.LASF102
 1719 0671 02       		.sleb128 2
 1720 0672 00       		.byte	0
 1721 0673 03       		.uleb128 0x3
 1722 0674 65000000 		.4byte	.LASF103
 1723 0678 0D       		.byte	0xd
 1724 0679 9F       		.byte	0x9f
 1725 067a 58060000 		.4byte	0x658
 1726 067e 03       		.uleb128 0x3
 1727 067f 7D030000 		.4byte	.LASF104
 1728 0683 0D       		.byte	0xd
 1729 0684 A4       		.byte	0xa4
 1730 0685 89060000 		.4byte	0x689
 1731 0689 05       		.uleb128 0x5
 1732 068a 7D030000 		.4byte	.LASF104
 1733 068e 34       		.byte	0x34
 1734 068f 0D       		.byte	0xd
 1735 0690 F2       		.byte	0xf2
 1736 0691 15070000 		.4byte	0x715
 1737 0695 06       		.uleb128 0x6
 1738 0696 CA060000 		.4byte	.LASF105
 1739 069a 0D       		.byte	0xd
 1740 069b F6       		.byte	0xf6
 1741 069c 37060000 		.4byte	0x637
 1742 06a0 00       		.byte	0
 1743 06a1 06       		.uleb128 0x6
 1744 06a2 32050000 		.4byte	.LASF106
 1745 06a6 0D       		.byte	0xd
 1746 06a7 FA       		.byte	0xfa
 1747 06a8 FB070000 		.4byte	0x7fb
 1748 06ac 04       		.byte	0x4
 1749 06ad 06       		.uleb128 0x6
 1750 06ae 34040000 		.4byte	.LASF107
ARM GAS  /var/folders/qh/xwg3v3kj02qbxczjpdb8lzfr0000gn/T//ccSGpg0K.s 			page 32


 1751 06b2 0D       		.byte	0xd
 1752 06b3 FE       		.byte	0xfe
 1753 06b4 41070000 		.4byte	0x741
 1754 06b8 08       		.byte	0x8
 1755 06b9 11       		.uleb128 0x11
 1756 06ba 4F040000 		.4byte	.LASF108
 1757 06be 0D       		.byte	0xd
 1758 06bf 0201     		.2byte	0x102
 1759 06c1 2C000000 		.4byte	0x2c
 1760 06c5 0C       		.byte	0xc
 1761 06c6 11       		.uleb128 0x11
 1762 06c7 40070000 		.4byte	.LASF109
 1763 06cb 0D       		.byte	0xd
 1764 06cc 0601     		.2byte	0x106
 1765 06ce 06080000 		.4byte	0x806
 1766 06d2 10       		.byte	0x10
 1767 06d3 11       		.uleb128 0x11
 1768 06d4 94060000 		.4byte	.LASF110
 1769 06d8 0D       		.byte	0xd
 1770 06d9 0B01     		.2byte	0x10b
 1771 06db 35020000 		.4byte	0x235
 1772 06df 14       		.byte	0x14
 1773 06e0 11       		.uleb128 0x11
 1774 06e1 39020000 		.4byte	.LASF111
 1775 06e5 0D       		.byte	0xd
 1776 06e6 1201     		.2byte	0x112
 1777 06e8 4C030000 		.4byte	0x34c
 1778 06ec 18       		.byte	0x18
 1779 06ed 10       		.uleb128 0x10
 1780 06ee 61646300 		.ascii	"adc\000"
 1781 06f2 0D       		.byte	0xd
 1782 06f3 1E01     		.2byte	0x11e
 1783 06f5 11080000 		.4byte	0x811
 1784 06f9 28       		.byte	0x28
 1785 06fa 11       		.uleb128 0x11
 1786 06fb 63030000 		.4byte	.LASF112
 1787 06ff 0D       		.byte	0xd
 1788 0700 2201     		.2byte	0x122
 1789 0702 17080000 		.4byte	0x817
 1790 0706 2C       		.byte	0x2c
 1791 0707 11       		.uleb128 0x11
 1792 0708 40000000 		.4byte	.LASF113
 1793 070c 0D       		.byte	0xd
 1794 070d 2601     		.2byte	0x126
 1795 070f 82000000 		.4byte	0x82
 1796 0713 30       		.byte	0x30
 1797 0714 00       		.byte	0
 1798 0715 03       		.uleb128 0x3
 1799 0716 7F040000 		.4byte	.LASF114
 1800 071a 0D       		.byte	0xd
 1801 071b AE       		.byte	0xae
 1802 071c 20070000 		.4byte	0x720
 1803 0720 09       		.uleb128 0x9
 1804 0721 04       		.byte	0x4
 1805 0722 26070000 		.4byte	0x726
 1806 0726 18       		.uleb128 0x18
 1807 0727 3B070000 		.4byte	0x73b
ARM GAS  /var/folders/qh/xwg3v3kj02qbxczjpdb8lzfr0000gn/T//ccSGpg0K.s 			page 33


 1808 072b 19       		.uleb128 0x19
 1809 072c 3B070000 		.4byte	0x73b
 1810 0730 19       		.uleb128 0x19
 1811 0731 41070000 		.4byte	0x741
 1812 0735 19       		.uleb128 0x19
 1813 0736 2C000000 		.4byte	0x2c
 1814 073a 00       		.byte	0
 1815 073b 09       		.uleb128 0x9
 1816 073c 04       		.byte	0x4
 1817 073d 7E060000 		.4byte	0x67e
 1818 0741 09       		.uleb128 0x9
 1819 0742 04       		.byte	0x4
 1820 0743 42060000 		.4byte	0x642
 1821 0747 03       		.uleb128 0x3
 1822 0748 0A020000 		.4byte	.LASF115
 1823 074c 0D       		.byte	0xd
 1824 074d B7       		.byte	0xb7
 1825 074e 52070000 		.4byte	0x752
 1826 0752 09       		.uleb128 0x9
 1827 0753 04       		.byte	0x4
 1828 0754 58070000 		.4byte	0x758
 1829 0758 18       		.uleb128 0x18
 1830 0759 68070000 		.4byte	0x768
 1831 075d 19       		.uleb128 0x19
 1832 075e 3B070000 		.4byte	0x73b
 1833 0762 19       		.uleb128 0x19
 1834 0763 73060000 		.4byte	0x673
 1835 0767 00       		.byte	0
 1836 0768 08       		.uleb128 0x8
 1837 0769 1C       		.byte	0x1c
 1838 076a 0D       		.byte	0xd
 1839 076b C1       		.byte	0xc1
 1840 076c D0070000 		.4byte	0x7d0
 1841 0770 06       		.uleb128 0x6
 1842 0771 65020000 		.4byte	.LASF116
 1843 0775 0D       		.byte	0xd
 1844 0776 C5       		.byte	0xc5
 1845 0777 A2000000 		.4byte	0xa2
 1846 077b 00       		.byte	0
 1847 077c 06       		.uleb128 0x6
 1848 077d BE050000 		.4byte	.LASF117
 1849 0781 0D       		.byte	0xd
 1850 0782 C9       		.byte	0xc9
 1851 0783 4D060000 		.4byte	0x64d
 1852 0787 02       		.byte	0x2
 1853 0788 06       		.uleb128 0x6
 1854 0789 5E020000 		.4byte	.LASF118
 1855 078d 0D       		.byte	0xd
 1856 078e CD       		.byte	0xcd
 1857 078f 15070000 		.4byte	0x715
 1858 0793 04       		.byte	0x4
 1859 0794 06       		.uleb128 0x6
 1860 0795 C3000000 		.4byte	.LASF119
 1861 0799 0D       		.byte	0xd
 1862 079a D1       		.byte	0xd1
 1863 079b 47070000 		.4byte	0x747
 1864 079f 08       		.byte	0x8
ARM GAS  /var/folders/qh/xwg3v3kj02qbxczjpdb8lzfr0000gn/T//ccSGpg0K.s 			page 34


 1865 07a0 06       		.uleb128 0x6
 1866 07a1 89050000 		.4byte	.LASF120
 1867 07a5 0D       		.byte	0xd
 1868 07a6 D6       		.byte	0xd6
 1869 07a7 82000000 		.4byte	0x82
 1870 07ab 0C       		.byte	0xc
 1871 07ac 07       		.uleb128 0x7
 1872 07ad 747200   		.ascii	"tr\000"
 1873 07b0 0D       		.byte	0xd
 1874 07b1 DA       		.byte	0xda
 1875 07b2 82000000 		.4byte	0x82
 1876 07b6 10       		.byte	0x10
 1877 07b7 06       		.uleb128 0x6
 1878 07b8 4A040000 		.4byte	.LASF121
 1879 07bc 0D       		.byte	0xd
 1880 07bd DE       		.byte	0xde
 1881 07be 82000000 		.4byte	0x82
 1882 07c2 14       		.byte	0x14
 1883 07c3 06       		.uleb128 0x6
 1884 07c4 7A060000 		.4byte	.LASF122
 1885 07c8 0D       		.byte	0xd
 1886 07c9 E4       		.byte	0xe4
 1887 07ca 82000000 		.4byte	0x82
 1888 07ce 18       		.byte	0x18
 1889 07cf 00       		.byte	0
 1890 07d0 03       		.uleb128 0x3
 1891 07d1 AB050000 		.4byte	.LASF123
 1892 07d5 0D       		.byte	0xd
 1893 07d6 E5       		.byte	0xe5
 1894 07d7 68070000 		.4byte	0x768
 1895 07db 08       		.uleb128 0x8
 1896 07dc 04       		.byte	0x4
 1897 07dd 0D       		.byte	0xd
 1898 07de EB       		.byte	0xeb
 1899 07df F0070000 		.4byte	0x7f0
 1900 07e3 06       		.uleb128 0x6
 1901 07e4 A3000000 		.4byte	.LASF124
 1902 07e8 0D       		.byte	0xd
 1903 07e9 EC       		.byte	0xec
 1904 07ea 82000000 		.4byte	0x82
 1905 07ee 00       		.byte	0
 1906 07ef 00       		.byte	0
 1907 07f0 03       		.uleb128 0x3
 1908 07f1 75040000 		.4byte	.LASF125
 1909 07f5 0D       		.byte	0xd
 1910 07f6 ED       		.byte	0xed
 1911 07f7 DB070000 		.4byte	0x7db
 1912 07fb 09       		.uleb128 0x9
 1913 07fc 04       		.byte	0x4
 1914 07fd 01080000 		.4byte	0x801
 1915 0801 0E       		.uleb128 0xe
 1916 0802 F0070000 		.4byte	0x7f0
 1917 0806 09       		.uleb128 0x9
 1918 0807 04       		.byte	0x4
 1919 0808 0C080000 		.4byte	0x80c
 1920 080c 0E       		.uleb128 0xe
 1921 080d D0070000 		.4byte	0x7d0
ARM GAS  /var/folders/qh/xwg3v3kj02qbxczjpdb8lzfr0000gn/T//ccSGpg0K.s 			page 35


 1922 0811 09       		.uleb128 0x9
 1923 0812 04       		.byte	0x4
 1924 0813 64040000 		.4byte	0x464
 1925 0817 09       		.uleb128 0x9
 1926 0818 04       		.byte	0x4
 1927 0819 1D080000 		.4byte	0x81d
 1928 081d 0E       		.uleb128 0xe
 1929 081e 0B050000 		.4byte	0x50b
 1930 0822 08       		.uleb128 0x8
 1931 0823 18       		.byte	0x18
 1932 0824 0E       		.byte	0xe
 1933 0825 22       		.byte	0x22
 1934 0826 73080000 		.4byte	0x873
 1935 082a 06       		.uleb128 0x6
 1936 082b 21070000 		.4byte	.LASF126
 1937 082f 0E       		.byte	0xe
 1938 0830 23       		.byte	0x23
 1939 0831 04060000 		.4byte	0x604
 1940 0835 00       		.byte	0
 1941 0836 06       		.uleb128 0x6
 1942 0837 F7010000 		.4byte	.LASF127
 1943 083b 0E       		.byte	0xe
 1944 083c 24       		.byte	0x24
 1945 083d 25000000 		.4byte	0x25
 1946 0841 04       		.byte	0x4
 1947 0842 06       		.uleb128 0x6
 1948 0843 1D020000 		.4byte	.LASF128
 1949 0847 0E       		.byte	0xe
 1950 0848 25       		.byte	0x25
 1951 0849 25000000 		.4byte	0x25
 1952 084d 08       		.byte	0x8
 1953 084e 06       		.uleb128 0x6
 1954 084f 00000000 		.4byte	.LASF129
 1955 0853 0E       		.byte	0xe
 1956 0854 26       		.byte	0x26
 1957 0855 25000000 		.4byte	0x25
 1958 0859 0C       		.byte	0xc
 1959 085a 06       		.uleb128 0x6
 1960 085b B0060000 		.4byte	.LASF130
 1961 085f 0E       		.byte	0xe
 1962 0860 27       		.byte	0x27
 1963 0861 25000000 		.4byte	0x25
 1964 0865 10       		.byte	0x10
 1965 0866 06       		.uleb128 0x6
 1966 0867 7D000000 		.4byte	.LASF131
 1967 086b 0E       		.byte	0xe
 1968 086c 28       		.byte	0x28
 1969 086d 25000000 		.4byte	0x25
 1970 0871 14       		.byte	0x14
 1971 0872 00       		.byte	0
 1972 0873 03       		.uleb128 0x3
 1973 0874 CB050000 		.4byte	.LASF132
 1974 0878 0E       		.byte	0xe
 1975 0879 29       		.byte	0x29
 1976 087a 22080000 		.4byte	0x822
 1977 087e 1A       		.uleb128 0x1a
 1978 087f AE000000 		.4byte	.LASF133
ARM GAS  /var/folders/qh/xwg3v3kj02qbxczjpdb8lzfr0000gn/T//ccSGpg0K.s 			page 36


 1979 0883 01       		.byte	0x1
 1980 0884 ED       		.byte	0xed
 1981 0885 25000000 		.4byte	0x25
 1982 0889 01       		.byte	0x1
 1983 088a 9A080000 		.4byte	0x89a
 1984 088e 1B       		.uleb128 0x1b
 1985 088f 28040000 		.4byte	.LASF135
 1986 0893 01       		.byte	0x1
 1987 0894 ED       		.byte	0xed
 1988 0895 9A080000 		.4byte	0x89a
 1989 0899 00       		.byte	0
 1990 089a 09       		.uleb128 0x9
 1991 089b 04       		.byte	0x4
 1992 089c 97030000 		.4byte	0x397
 1993 08a0 1A       		.uleb128 0x1a
 1994 08a1 FE040000 		.4byte	.LASF134
 1995 08a5 01       		.byte	0x1
 1996 08a6 B8       		.byte	0xb8
 1997 08a7 25000000 		.4byte	0x25
 1998 08ab 01       		.byte	0x1
 1999 08ac BC080000 		.4byte	0x8bc
 2000 08b0 1B       		.uleb128 0x1b
 2001 08b1 28040000 		.4byte	.LASF135
 2002 08b5 01       		.byte	0x1
 2003 08b6 B8       		.byte	0xb8
 2004 08b7 9A080000 		.4byte	0x89a
 2005 08bb 00       		.byte	0
 2006 08bc 1A       		.uleb128 0x1a
 2007 08bd 47020000 		.4byte	.LASF136
 2008 08c1 01       		.byte	0x1
 2009 08c2 BD       		.byte	0xbd
 2010 08c3 25000000 		.4byte	0x25
 2011 08c7 01       		.byte	0x1
 2012 08c8 E3080000 		.4byte	0x8e3
 2013 08cc 1B       		.uleb128 0x1b
 2014 08cd 28040000 		.4byte	.LASF135
 2015 08d1 01       		.byte	0x1
 2016 08d2 BD       		.byte	0xbd
 2017 08d3 9A080000 		.4byte	0x89a
 2018 08d7 1C       		.uleb128 0x1c
 2019 08d8 0A040000 		.4byte	.LASF138
 2020 08dc 01       		.byte	0x1
 2021 08dd BF       		.byte	0xbf
 2022 08de 25000000 		.4byte	0x25
 2023 08e2 00       		.byte	0
 2024 08e3 1D       		.uleb128 0x1d
 2025 08e4 A2040000 		.4byte	.LASF157
 2026 08e8 01       		.byte	0x1
 2027 08e9 09       		.byte	0x9
 2028 08ea 00000000 		.4byte	.LFB40
 2029 08ee A8000000 		.4byte	.LFE40-.LFB40
 2030 08f2 01       		.uleb128 0x1
 2031 08f3 9C       		.byte	0x9c
 2032 08f4 1E       		.uleb128 0x1e
 2033 08f5 FF050000 		.4byte	.LASF139
 2034 08f9 01       		.byte	0x1
 2035 08fa 47       		.byte	0x47
ARM GAS  /var/folders/qh/xwg3v3kj02qbxczjpdb8lzfr0000gn/T//ccSGpg0K.s 			page 37


 2036 08fb 25000000 		.4byte	0x25
 2037 08ff 00000000 		.4byte	.LFB41
 2038 0903 C8000000 		.4byte	.LFE41-.LFB41
 2039 0907 01       		.uleb128 0x1
 2040 0908 9C       		.byte	0x9c
 2041 0909 80090000 		.4byte	0x980
 2042 090d 1F       		.uleb128 0x1f
 2043 090e 28040000 		.4byte	.LASF135
 2044 0912 01       		.byte	0x1
 2045 0913 47       		.byte	0x47
 2046 0914 9A080000 		.4byte	0x89a
 2047 0918 00000000 		.4byte	.LLST0
 2048 091c 1F       		.uleb128 0x1f
 2049 091d CC010000 		.4byte	.LASF137
 2050 0921 01       		.byte	0x1
 2051 0922 47       		.byte	0x47
 2052 0923 25000000 		.4byte	0x25
 2053 0927 9E000000 		.4byte	.LLST1
 2054 092b 1C       		.uleb128 0x1c
 2055 092c 0A040000 		.4byte	.LASF138
 2056 0930 01       		.byte	0x1
 2057 0931 49       		.byte	0x49
 2058 0932 25000000 		.4byte	0x25
 2059 0936 20       		.uleb128 0x20
 2060 0937 48000000 		.4byte	.LVL3
 2061 093b F60C0000 		.4byte	0xcf6
 2062 093f 49090000 		.4byte	0x949
 2063 0943 21       		.uleb128 0x21
 2064 0944 01       		.uleb128 0x1
 2065 0945 52       		.byte	0x52
 2066 0946 01       		.uleb128 0x1
 2067 0947 31       		.byte	0x31
 2068 0948 00       		.byte	0
 2069 0949 20       		.uleb128 0x20
 2070 094a 70000000 		.4byte	.LVL7
 2071 094e F60C0000 		.4byte	0xcf6
 2072 0952 5C090000 		.4byte	0x95c
 2073 0956 21       		.uleb128 0x21
 2074 0957 01       		.uleb128 0x1
 2075 0958 52       		.byte	0x52
 2076 0959 01       		.uleb128 0x1
 2077 095a 33       		.byte	0x33
 2078 095b 00       		.byte	0
 2079 095c 20       		.uleb128 0x20
 2080 095d A2000000 		.4byte	.LVL16
 2081 0961 F60C0000 		.4byte	0xcf6
 2082 0965 70090000 		.4byte	0x970
 2083 0969 21       		.uleb128 0x21
 2084 096a 01       		.uleb128 0x1
 2085 096b 52       		.byte	0x52
 2086 096c 02       		.uleb128 0x2
 2087 096d 08       		.byte	0x8
 2088 096e 20       		.byte	0x20
 2089 096f 00       		.byte	0
 2090 0970 22       		.uleb128 0x22
 2091 0971 BE000000 		.4byte	.LVL20
 2092 0975 F60C0000 		.4byte	0xcf6
ARM GAS  /var/folders/qh/xwg3v3kj02qbxczjpdb8lzfr0000gn/T//ccSGpg0K.s 			page 38


 2093 0979 21       		.uleb128 0x21
 2094 097a 01       		.uleb128 0x1
 2095 097b 52       		.byte	0x52
 2096 097c 01       		.uleb128 0x1
 2097 097d 30       		.byte	0x30
 2098 097e 00       		.byte	0
 2099 097f 00       		.byte	0
 2100 0980 1E       		.uleb128 0x1e
 2101 0981 16040000 		.4byte	.LASF140
 2102 0985 01       		.byte	0x1
 2103 0986 92       		.byte	0x92
 2104 0987 25000000 		.4byte	0x25
 2105 098b 00000000 		.4byte	.LFB43
 2106 098f 54000000 		.4byte	.LFE43-.LFB43
 2107 0993 01       		.uleb128 0x1
 2108 0994 9C       		.byte	0x9c
 2109 0995 DA090000 		.4byte	0x9da
 2110 0999 1F       		.uleb128 0x1f
 2111 099a 85020000 		.4byte	.LASF141
 2112 099e 01       		.byte	0x1
 2113 099f 92       		.byte	0x92
 2114 09a0 9A080000 		.4byte	0x89a
 2115 09a4 0C010000 		.4byte	.LLST2
 2116 09a8 1F       		.uleb128 0x1f
 2117 09a9 CC010000 		.4byte	.LASF137
 2118 09ad 01       		.byte	0x1
 2119 09ae 92       		.byte	0x92
 2120 09af 25000000 		.4byte	0x25
 2121 09b3 3A010000 		.4byte	.LLST3
 2122 09b7 23       		.uleb128 0x23
 2123 09b8 6900     		.ascii	"i\000"
 2124 09ba 01       		.byte	0x1
 2125 09bb 94       		.byte	0x94
 2126 09bc 25000000 		.4byte	0x25
 2127 09c0 5B010000 		.4byte	.LLST4
 2128 09c4 24       		.uleb128 0x24
 2129 09c5 00000000 		.4byte	.Ldebug_ranges0+0
 2130 09c9 25       		.uleb128 0x25
 2131 09ca 43030000 		.4byte	.LASF142
 2132 09ce 01       		.byte	0x1
 2133 09cf 98       		.byte	0x98
 2134 09d0 25000000 		.4byte	0x25
 2135 09d4 B5010000 		.4byte	.LLST5
 2136 09d8 00       		.byte	0
 2137 09d9 00       		.byte	0
 2138 09da 1E       		.uleb128 0x1e
 2139 09db 63040000 		.4byte	.LASF143
 2140 09df 01       		.byte	0x1
 2141 09e0 78       		.byte	0x78
 2142 09e1 25000000 		.4byte	0x25
 2143 09e5 00000000 		.4byte	.LFB42
 2144 09e9 2C000000 		.4byte	.LFE42-.LFB42
 2145 09ed 01       		.uleb128 0x1
 2146 09ee 9C       		.byte	0x9c
 2147 09ef 5A0A0000 		.4byte	0xa5a
 2148 09f3 1F       		.uleb128 0x1f
 2149 09f4 85020000 		.4byte	.LASF141
ARM GAS  /var/folders/qh/xwg3v3kj02qbxczjpdb8lzfr0000gn/T//ccSGpg0K.s 			page 39


 2150 09f8 01       		.byte	0x1
 2151 09f9 78       		.byte	0x78
 2152 09fa 9A080000 		.4byte	0x89a
 2153 09fe C9010000 		.4byte	.LLST6
 2154 0a02 1F       		.uleb128 0x1f
 2155 0a03 CC010000 		.4byte	.LASF137
 2156 0a07 01       		.byte	0x1
 2157 0a08 78       		.byte	0x78
 2158 0a09 25000000 		.4byte	0x25
 2159 0a0d F5010000 		.4byte	.LLST7
 2160 0a11 26       		.uleb128 0x26
 2161 0a12 6900     		.ascii	"i\000"
 2162 0a14 01       		.byte	0x1
 2163 0a15 7F       		.byte	0x7f
 2164 0a16 25000000 		.4byte	0x25
 2165 0a1a 25       		.uleb128 0x25
 2166 0a1b F1050000 		.4byte	.LASF144
 2167 0a1f 01       		.byte	0x1
 2168 0a20 80       		.byte	0x80
 2169 0a21 25000000 		.4byte	0x25
 2170 0a25 21020000 		.4byte	.LLST8
 2171 0a29 20       		.uleb128 0x20
 2172 0a2a 0A000000 		.4byte	.LVL32
 2173 0a2e 80090000 		.4byte	0x980
 2174 0a32 430A0000 		.4byte	0xa43
 2175 0a36 21       		.uleb128 0x21
 2176 0a37 01       		.uleb128 0x1
 2177 0a38 51       		.byte	0x51
 2178 0a39 02       		.uleb128 0x2
 2179 0a3a 75       		.byte	0x75
 2180 0a3b 00       		.sleb128 0
 2181 0a3c 21       		.uleb128 0x21
 2182 0a3d 01       		.uleb128 0x1
 2183 0a3e 50       		.byte	0x50
 2184 0a3f 02       		.uleb128 0x2
 2185 0a40 74       		.byte	0x74
 2186 0a41 00       		.sleb128 0
 2187 0a42 00       		.byte	0
 2188 0a43 22       		.uleb128 0x22
 2189 0a44 1A000000 		.4byte	.LVL33
 2190 0a48 F4080000 		.4byte	0x8f4
 2191 0a4c 21       		.uleb128 0x21
 2192 0a4d 01       		.uleb128 0x1
 2193 0a4e 51       		.byte	0x51
 2194 0a4f 02       		.uleb128 0x2
 2195 0a50 75       		.byte	0x75
 2196 0a51 00       		.sleb128 0
 2197 0a52 21       		.uleb128 0x21
 2198 0a53 01       		.uleb128 0x1
 2199 0a54 50       		.byte	0x50
 2200 0a55 02       		.uleb128 0x2
 2201 0a56 76       		.byte	0x76
 2202 0a57 00       		.sleb128 0
 2203 0a58 00       		.byte	0
 2204 0a59 00       		.byte	0
 2205 0a5a 1E       		.uleb128 0x1e
 2206 0a5b D1010000 		.4byte	.LASF145
ARM GAS  /var/folders/qh/xwg3v3kj02qbxczjpdb8lzfr0000gn/T//ccSGpg0K.s 			page 40


 2207 0a5f 01       		.byte	0x1
 2208 0a60 AB       		.byte	0xab
 2209 0a61 25000000 		.4byte	0x25
 2210 0a65 00000000 		.4byte	.LFB44
 2211 0a69 2C000000 		.4byte	.LFE44-.LFB44
 2212 0a6d 01       		.uleb128 0x1
 2213 0a6e 9C       		.byte	0x9c
 2214 0a6f 920A0000 		.4byte	0xa92
 2215 0a73 1F       		.uleb128 0x1f
 2216 0a74 28040000 		.4byte	.LASF135
 2217 0a78 01       		.byte	0x1
 2218 0a79 AB       		.byte	0xab
 2219 0a7a 9A080000 		.4byte	0x89a
 2220 0a7e 34020000 		.4byte	.LLST9
 2221 0a82 25       		.uleb128 0x25
 2222 0a83 43030000 		.4byte	.LASF142
 2223 0a87 01       		.byte	0x1
 2224 0a88 AD       		.byte	0xad
 2225 0a89 25000000 		.4byte	0x25
 2226 0a8d 55020000 		.4byte	.LLST10
 2227 0a91 00       		.byte	0
 2228 0a92 27       		.uleb128 0x27
 2229 0a93 A0080000 		.4byte	0x8a0
 2230 0a97 00000000 		.4byte	.LFB45
 2231 0a9b 1C000000 		.4byte	.LFE45-.LFB45
 2232 0a9f 01       		.uleb128 0x1
 2233 0aa0 9C       		.byte	0x9c
 2234 0aa1 C80A0000 		.4byte	0xac8
 2235 0aa5 28       		.uleb128 0x28
 2236 0aa6 B0080000 		.4byte	0x8b0
 2237 0aaa 69020000 		.4byte	.LLST11
 2238 0aae 29       		.uleb128 0x29
 2239 0aaf 7E080000 		.4byte	0x87e
 2240 0ab3 02000000 		.4byte	.LBB41
 2241 0ab7 0A000000 		.4byte	.LBE41-.LBB41
 2242 0abb 01       		.byte	0x1
 2243 0abc BA       		.byte	0xba
 2244 0abd 28       		.uleb128 0x28
 2245 0abe 8E080000 		.4byte	0x88e
 2246 0ac2 69020000 		.4byte	.LLST11
 2247 0ac6 00       		.byte	0
 2248 0ac7 00       		.byte	0
 2249 0ac8 27       		.uleb128 0x27
 2250 0ac9 BC080000 		.4byte	0x8bc
 2251 0acd 00000000 		.4byte	.LFB46
 2252 0ad1 28000000 		.4byte	.LFE46-.LFB46
 2253 0ad5 01       		.uleb128 0x1
 2254 0ad6 9C       		.byte	0x9c
 2255 0ad7 1C0B0000 		.4byte	0xb1c
 2256 0adb 28       		.uleb128 0x28
 2257 0adc CC080000 		.4byte	0x8cc
 2258 0ae0 8A020000 		.4byte	.LLST13
 2259 0ae4 2A       		.uleb128 0x2a
 2260 0ae5 D7080000 		.4byte	0x8d7
 2261 0ae9 29       		.uleb128 0x29
 2262 0aea A0080000 		.4byte	0x8a0
 2263 0aee 02000000 		.4byte	.LBB43
ARM GAS  /var/folders/qh/xwg3v3kj02qbxczjpdb8lzfr0000gn/T//ccSGpg0K.s 			page 41


 2264 0af2 10000000 		.4byte	.LBE43-.LBB43
 2265 0af6 01       		.byte	0x1
 2266 0af7 BF       		.byte	0xbf
 2267 0af8 28       		.uleb128 0x28
 2268 0af9 B0080000 		.4byte	0x8b0
 2269 0afd 8A020000 		.4byte	.LLST13
 2270 0b01 29       		.uleb128 0x29
 2271 0b02 7E080000 		.4byte	0x87e
 2272 0b06 02000000 		.4byte	.LBB44
 2273 0b0a 10000000 		.4byte	.LBE44-.LBB44
 2274 0b0e 01       		.byte	0x1
 2275 0b0f BA       		.byte	0xba
 2276 0b10 28       		.uleb128 0x28
 2277 0b11 8E080000 		.4byte	0x88e
 2278 0b15 8A020000 		.4byte	.LLST13
 2279 0b19 00       		.byte	0
 2280 0b1a 00       		.byte	0
 2281 0b1b 00       		.byte	0
 2282 0b1c 1E       		.uleb128 0x1e
 2283 0b1d 29070000 		.4byte	.LASF146
 2284 0b21 01       		.byte	0x1
 2285 0b22 C5       		.byte	0xc5
 2286 0b23 25000000 		.4byte	0x25
 2287 0b27 00000000 		.4byte	.LFB47
 2288 0b2b 44000000 		.4byte	.LFE47-.LFB47
 2289 0b2f 01       		.uleb128 0x1
 2290 0b30 9C       		.byte	0x9c
 2291 0b31 AA0B0000 		.4byte	0xbaa
 2292 0b35 1F       		.uleb128 0x1f
 2293 0b36 85020000 		.4byte	.LASF141
 2294 0b3a 01       		.byte	0x1
 2295 0b3b C5       		.byte	0xc5
 2296 0b3c 9A080000 		.4byte	0x89a
 2297 0b40 AB020000 		.4byte	.LLST16
 2298 0b44 25       		.uleb128 0x25
 2299 0b45 7A060000 		.4byte	.LASF122
 2300 0b49 01       		.byte	0x1
 2301 0b4a C7       		.byte	0xc7
 2302 0b4b 25000000 		.4byte	0x25
 2303 0b4f E5020000 		.4byte	.LLST17
 2304 0b53 25       		.uleb128 0x25
 2305 0b54 BE050000 		.4byte	.LASF117
 2306 0b58 01       		.byte	0x1
 2307 0b59 C8       		.byte	0xc8
 2308 0b5a 25000000 		.4byte	0x25
 2309 0b5e E5020000 		.4byte	.LLST17
 2310 0b62 2B       		.uleb128 0x2b
 2311 0b63 6900     		.ascii	"i\000"
 2312 0b65 01       		.byte	0x1
 2313 0b66 CB       		.byte	0xcb
 2314 0b67 25000000 		.4byte	0x25
 2315 0b6b 01       		.byte	0x1
 2316 0b6c 2C       		.uleb128 0x2c
 2317 0b6d 24000000 		.4byte	.LBB46
 2318 0b71 0E000000 		.4byte	.LBE46-.LBB46
 2319 0b75 1C       		.uleb128 0x1c
 2320 0b76 3C030000 		.4byte	.LASF147
ARM GAS  /var/folders/qh/xwg3v3kj02qbxczjpdb8lzfr0000gn/T//ccSGpg0K.s 			page 42


 2321 0b7a 01       		.byte	0x1
 2322 0b7b CF       		.byte	0xcf
 2323 0b7c 25000000 		.4byte	0x25
 2324 0b80 29       		.uleb128 0x29
 2325 0b81 BC080000 		.4byte	0x8bc
 2326 0b85 24000000 		.4byte	.LBB47
 2327 0b89 0A000000 		.4byte	.LBE47-.LBB47
 2328 0b8d 01       		.byte	0x1
 2329 0b8e CF       		.byte	0xcf
 2330 0b8f 28       		.uleb128 0x28
 2331 0b90 CC080000 		.4byte	0x8cc
 2332 0b94 05030000 		.4byte	.LLST19
 2333 0b98 2C       		.uleb128 0x2c
 2334 0b99 24000000 		.4byte	.LBB48
 2335 0b9d 0A000000 		.4byte	.LBE48-.LBB48
 2336 0ba1 2A       		.uleb128 0x2a
 2337 0ba2 D7080000 		.4byte	0x8d7
 2338 0ba6 00       		.byte	0
 2339 0ba7 00       		.byte	0
 2340 0ba8 00       		.byte	0
 2341 0ba9 00       		.byte	0
 2342 0baa 1E       		.uleb128 0x1e
 2343 0bab 1E030000 		.4byte	.LASF148
 2344 0baf 01       		.byte	0x1
 2345 0bb0 E1       		.byte	0xe1
 2346 0bb1 25000000 		.4byte	0x25
 2347 0bb5 00000000 		.4byte	.LFB48
 2348 0bb9 28000000 		.4byte	.LFE48-.LFB48
 2349 0bbd 01       		.uleb128 0x1
 2350 0bbe 9C       		.byte	0x9c
 2351 0bbf 100C0000 		.4byte	0xc10
 2352 0bc3 1F       		.uleb128 0x1f
 2353 0bc4 28040000 		.4byte	.LASF135
 2354 0bc8 01       		.byte	0x1
 2355 0bc9 E1       		.byte	0xe1
 2356 0bca 9A080000 		.4byte	0x89a
 2357 0bce 22030000 		.4byte	.LLST20
 2358 0bd2 1C       		.uleb128 0x1c
 2359 0bd3 0A040000 		.4byte	.LASF138
 2360 0bd7 01       		.byte	0x1
 2361 0bd8 E3       		.byte	0xe3
 2362 0bd9 25000000 		.4byte	0x25
 2363 0bdd 29       		.uleb128 0x29
 2364 0bde A0080000 		.4byte	0x8a0
 2365 0be2 02000000 		.4byte	.LBB49
 2366 0be6 10000000 		.4byte	.LBE49-.LBB49
 2367 0bea 01       		.byte	0x1
 2368 0beb E3       		.byte	0xe3
 2369 0bec 28       		.uleb128 0x28
 2370 0bed B0080000 		.4byte	0x8b0
 2371 0bf1 22030000 		.4byte	.LLST20
 2372 0bf5 29       		.uleb128 0x29
 2373 0bf6 7E080000 		.4byte	0x87e
 2374 0bfa 02000000 		.4byte	.LBB50
 2375 0bfe 10000000 		.4byte	.LBE50-.LBB50
 2376 0c02 01       		.byte	0x1
 2377 0c03 BA       		.byte	0xba
ARM GAS  /var/folders/qh/xwg3v3kj02qbxczjpdb8lzfr0000gn/T//ccSGpg0K.s 			page 43


 2378 0c04 28       		.uleb128 0x28
 2379 0c05 8E080000 		.4byte	0x88e
 2380 0c09 22030000 		.4byte	.LLST20
 2381 0c0d 00       		.byte	0
 2382 0c0e 00       		.byte	0
 2383 0c0f 00       		.byte	0
 2384 0c10 1E       		.uleb128 0x1e
 2385 0c11 92000000 		.4byte	.LASF149
 2386 0c15 01       		.byte	0x1
 2387 0c16 E6       		.byte	0xe6
 2388 0c17 25000000 		.4byte	0x25
 2389 0c1b 00000000 		.4byte	.LFB49
 2390 0c1f 28000000 		.4byte	.LFE49-.LFB49
 2391 0c23 01       		.uleb128 0x1
 2392 0c24 9C       		.byte	0x9c
 2393 0c25 760C0000 		.4byte	0xc76
 2394 0c29 1F       		.uleb128 0x1f
 2395 0c2a 28040000 		.4byte	.LASF135
 2396 0c2e 01       		.byte	0x1
 2397 0c2f E6       		.byte	0xe6
 2398 0c30 9A080000 		.4byte	0x89a
 2399 0c34 43030000 		.4byte	.LLST23
 2400 0c38 1C       		.uleb128 0x1c
 2401 0c39 0A040000 		.4byte	.LASF138
 2402 0c3d 01       		.byte	0x1
 2403 0c3e E8       		.byte	0xe8
 2404 0c3f 25000000 		.4byte	0x25
 2405 0c43 29       		.uleb128 0x29
 2406 0c44 A0080000 		.4byte	0x8a0
 2407 0c48 02000000 		.4byte	.LBB52
 2408 0c4c 10000000 		.4byte	.LBE52-.LBB52
 2409 0c50 01       		.byte	0x1
 2410 0c51 E8       		.byte	0xe8
 2411 0c52 28       		.uleb128 0x28
 2412 0c53 B0080000 		.4byte	0x8b0
 2413 0c57 43030000 		.4byte	.LLST23
 2414 0c5b 29       		.uleb128 0x29
 2415 0c5c 7E080000 		.4byte	0x87e
 2416 0c60 02000000 		.4byte	.LBB53
 2417 0c64 10000000 		.4byte	.LBE53-.LBB53
 2418 0c68 01       		.byte	0x1
 2419 0c69 BA       		.byte	0xba
 2420 0c6a 28       		.uleb128 0x28
 2421 0c6b 8E080000 		.4byte	0x88e
 2422 0c6f 43030000 		.4byte	.LLST23
 2423 0c73 00       		.byte	0
 2424 0c74 00       		.byte	0
 2425 0c75 00       		.byte	0
 2426 0c76 27       		.uleb128 0x27
 2427 0c77 7E080000 		.4byte	0x87e
 2428 0c7b 00000000 		.4byte	.LFB50
 2429 0c7f 18000000 		.4byte	.LFE50-.LFB50
 2430 0c83 01       		.uleb128 0x1
 2431 0c84 9C       		.byte	0x9c
 2432 0c85 930C0000 		.4byte	0xc93
 2433 0c89 28       		.uleb128 0x28
 2434 0c8a 8E080000 		.4byte	0x88e
ARM GAS  /var/folders/qh/xwg3v3kj02qbxczjpdb8lzfr0000gn/T//ccSGpg0K.s 			page 44


 2435 0c8e 64030000 		.4byte	.LLST26
 2436 0c92 00       		.byte	0
 2437 0c93 2D       		.uleb128 0x2d
 2438 0c94 B5040000 		.4byte	.LASF150
 2439 0c98 01       		.byte	0x1
 2440 0c99 0801     		.2byte	0x108
 2441 0c9b 25000000 		.4byte	0x25
 2442 0c9f 00000000 		.4byte	.LFB51
 2443 0ca3 02000000 		.4byte	.LFE51-.LFB51
 2444 0ca7 01       		.uleb128 0x1
 2445 0ca8 9C       		.byte	0x9c
 2446 0ca9 CA0C0000 		.4byte	0xcca
 2447 0cad 2E       		.uleb128 0x2e
 2448 0cae 85020000 		.4byte	.LASF141
 2449 0cb2 01       		.byte	0x1
 2450 0cb3 0801     		.2byte	0x108
 2451 0cb5 9A080000 		.4byte	0x89a
 2452 0cb9 85030000 		.4byte	.LLST27
 2453 0cbd 2F       		.uleb128 0x2f
 2454 0cbe D6050000 		.4byte	.LASF151
 2455 0cc2 01       		.byte	0x1
 2456 0cc3 0A01     		.2byte	0x10a
 2457 0cc5 25000000 		.4byte	0x25
 2458 0cc9 00       		.byte	0
 2459 0cca 12       		.uleb128 0x12
 2460 0ccb 73080000 		.4byte	0x873
 2461 0ccf DA0C0000 		.4byte	0xcda
 2462 0cd3 13       		.uleb128 0x13
 2463 0cd4 09030000 		.4byte	0x309
 2464 0cd8 07       		.byte	0x7
 2465 0cd9 00       		.byte	0
 2466 0cda 30       		.uleb128 0x30
 2467 0cdb 8C000000 		.4byte	.LASF152
 2468 0cdf 01       		.byte	0x1
 2469 0ce0 03       		.byte	0x3
 2470 0ce1 CA0C0000 		.4byte	0xcca
 2471 0ce5 05       		.uleb128 0x5
 2472 0ce6 03       		.byte	0x3
 2473 0ce7 00000000 		.4byte	hwPin
 2474 0ceb 31       		.uleb128 0x31
 2475 0cec B7030000 		.4byte	.LASF153
 2476 0cf0 01       		.byte	0x1
 2477 0cf1 04       		.byte	0x4
 2478 0cf2 D0070000 		.4byte	0x7d0
 2479 0cf6 32       		.uleb128 0x32
 2480 0cf7 DC060000 		.4byte	.LASF158
 2481 0cfb 0B       		.byte	0xb
 2482 0cfc C201     		.2byte	0x1c2
 2483 0cfe 19       		.uleb128 0x19
 2484 0cff F9050000 		.4byte	0x5f9
 2485 0d03 19       		.uleb128 0x19
 2486 0d04 E3050000 		.4byte	0x5e3
 2487 0d08 19       		.uleb128 0x19
 2488 0d09 EE050000 		.4byte	0x5ee
 2489 0d0d 00       		.byte	0
 2490 0d0e 00       		.byte	0
 2491              		.section	.debug_abbrev,"",%progbits
ARM GAS  /var/folders/qh/xwg3v3kj02qbxczjpdb8lzfr0000gn/T//ccSGpg0K.s 			page 45


 2492              	.Ldebug_abbrev0:
 2493 0000 01       		.uleb128 0x1
 2494 0001 11       		.uleb128 0x11
 2495 0002 01       		.byte	0x1
 2496 0003 25       		.uleb128 0x25
 2497 0004 0E       		.uleb128 0xe
 2498 0005 13       		.uleb128 0x13
 2499 0006 0B       		.uleb128 0xb
 2500 0007 03       		.uleb128 0x3
 2501 0008 0E       		.uleb128 0xe
 2502 0009 1B       		.uleb128 0x1b
 2503 000a 0E       		.uleb128 0xe
 2504 000b 55       		.uleb128 0x55
 2505 000c 17       		.uleb128 0x17
 2506 000d 11       		.uleb128 0x11
 2507 000e 01       		.uleb128 0x1
 2508 000f 10       		.uleb128 0x10
 2509 0010 17       		.uleb128 0x17
 2510 0011 00       		.byte	0
 2511 0012 00       		.byte	0
 2512 0013 02       		.uleb128 0x2
 2513 0014 24       		.uleb128 0x24
 2514 0015 00       		.byte	0
 2515 0016 0B       		.uleb128 0xb
 2516 0017 0B       		.uleb128 0xb
 2517 0018 3E       		.uleb128 0x3e
 2518 0019 0B       		.uleb128 0xb
 2519 001a 03       		.uleb128 0x3
 2520 001b 08       		.uleb128 0x8
 2521 001c 00       		.byte	0
 2522 001d 00       		.byte	0
 2523 001e 03       		.uleb128 0x3
 2524 001f 16       		.uleb128 0x16
 2525 0020 00       		.byte	0
 2526 0021 03       		.uleb128 0x3
 2527 0022 0E       		.uleb128 0xe
 2528 0023 3A       		.uleb128 0x3a
 2529 0024 0B       		.uleb128 0xb
 2530 0025 3B       		.uleb128 0x3b
 2531 0026 0B       		.uleb128 0xb
 2532 0027 49       		.uleb128 0x49
 2533 0028 13       		.uleb128 0x13
 2534 0029 00       		.byte	0
 2535 002a 00       		.byte	0
 2536 002b 04       		.uleb128 0x4
 2537 002c 24       		.uleb128 0x24
 2538 002d 00       		.byte	0
 2539 002e 0B       		.uleb128 0xb
 2540 002f 0B       		.uleb128 0xb
 2541 0030 3E       		.uleb128 0x3e
 2542 0031 0B       		.uleb128 0xb
 2543 0032 03       		.uleb128 0x3
 2544 0033 0E       		.uleb128 0xe
 2545 0034 00       		.byte	0
 2546 0035 00       		.byte	0
 2547 0036 05       		.uleb128 0x5
 2548 0037 13       		.uleb128 0x13
ARM GAS  /var/folders/qh/xwg3v3kj02qbxczjpdb8lzfr0000gn/T//ccSGpg0K.s 			page 46


 2549 0038 01       		.byte	0x1
 2550 0039 03       		.uleb128 0x3
 2551 003a 0E       		.uleb128 0xe
 2552 003b 0B       		.uleb128 0xb
 2553 003c 0B       		.uleb128 0xb
 2554 003d 3A       		.uleb128 0x3a
 2555 003e 0B       		.uleb128 0xb
 2556 003f 3B       		.uleb128 0x3b
 2557 0040 0B       		.uleb128 0xb
 2558 0041 01       		.uleb128 0x1
 2559 0042 13       		.uleb128 0x13
 2560 0043 00       		.byte	0
 2561 0044 00       		.byte	0
 2562 0045 06       		.uleb128 0x6
 2563 0046 0D       		.uleb128 0xd
 2564 0047 00       		.byte	0
 2565 0048 03       		.uleb128 0x3
 2566 0049 0E       		.uleb128 0xe
 2567 004a 3A       		.uleb128 0x3a
 2568 004b 0B       		.uleb128 0xb
 2569 004c 3B       		.uleb128 0x3b
 2570 004d 0B       		.uleb128 0xb
 2571 004e 49       		.uleb128 0x49
 2572 004f 13       		.uleb128 0x13
 2573 0050 38       		.uleb128 0x38
 2574 0051 0B       		.uleb128 0xb
 2575 0052 00       		.byte	0
 2576 0053 00       		.byte	0
 2577 0054 07       		.uleb128 0x7
 2578 0055 0D       		.uleb128 0xd
 2579 0056 00       		.byte	0
 2580 0057 03       		.uleb128 0x3
 2581 0058 08       		.uleb128 0x8
 2582 0059 3A       		.uleb128 0x3a
 2583 005a 0B       		.uleb128 0xb
 2584 005b 3B       		.uleb128 0x3b
 2585 005c 0B       		.uleb128 0xb
 2586 005d 49       		.uleb128 0x49
 2587 005e 13       		.uleb128 0x13
 2588 005f 38       		.uleb128 0x38
 2589 0060 0B       		.uleb128 0xb
 2590 0061 00       		.byte	0
 2591 0062 00       		.byte	0
 2592 0063 08       		.uleb128 0x8
 2593 0064 13       		.uleb128 0x13
 2594 0065 01       		.byte	0x1
 2595 0066 0B       		.uleb128 0xb
 2596 0067 0B       		.uleb128 0xb
 2597 0068 3A       		.uleb128 0x3a
 2598 0069 0B       		.uleb128 0xb
 2599 006a 3B       		.uleb128 0x3b
 2600 006b 0B       		.uleb128 0xb
 2601 006c 01       		.uleb128 0x1
 2602 006d 13       		.uleb128 0x13
 2603 006e 00       		.byte	0
 2604 006f 00       		.byte	0
 2605 0070 09       		.uleb128 0x9
ARM GAS  /var/folders/qh/xwg3v3kj02qbxczjpdb8lzfr0000gn/T//ccSGpg0K.s 			page 47


 2606 0071 0F       		.uleb128 0xf
 2607 0072 00       		.byte	0
 2608 0073 0B       		.uleb128 0xb
 2609 0074 0B       		.uleb128 0xb
 2610 0075 49       		.uleb128 0x49
 2611 0076 13       		.uleb128 0x13
 2612 0077 00       		.byte	0
 2613 0078 00       		.byte	0
 2614 0079 0A       		.uleb128 0xa
 2615 007a 0F       		.uleb128 0xf
 2616 007b 00       		.byte	0
 2617 007c 0B       		.uleb128 0xb
 2618 007d 0B       		.uleb128 0xb
 2619 007e 00       		.byte	0
 2620 007f 00       		.byte	0
 2621 0080 0B       		.uleb128 0xb
 2622 0081 35       		.uleb128 0x35
 2623 0082 00       		.byte	0
 2624 0083 49       		.uleb128 0x49
 2625 0084 13       		.uleb128 0x13
 2626 0085 00       		.byte	0
 2627 0086 00       		.byte	0
 2628 0087 0C       		.uleb128 0xc
 2629 0088 17       		.uleb128 0x17
 2630 0089 01       		.byte	0x1
 2631 008a 0B       		.uleb128 0xb
 2632 008b 0B       		.uleb128 0xb
 2633 008c 3A       		.uleb128 0x3a
 2634 008d 0B       		.uleb128 0xb
 2635 008e 3B       		.uleb128 0x3b
 2636 008f 0B       		.uleb128 0xb
 2637 0090 01       		.uleb128 0x1
 2638 0091 13       		.uleb128 0x13
 2639 0092 00       		.byte	0
 2640 0093 00       		.byte	0
 2641 0094 0D       		.uleb128 0xd
 2642 0095 0D       		.uleb128 0xd
 2643 0096 00       		.byte	0
 2644 0097 03       		.uleb128 0x3
 2645 0098 0E       		.uleb128 0xe
 2646 0099 3A       		.uleb128 0x3a
 2647 009a 0B       		.uleb128 0xb
 2648 009b 3B       		.uleb128 0x3b
 2649 009c 0B       		.uleb128 0xb
 2650 009d 49       		.uleb128 0x49
 2651 009e 13       		.uleb128 0x13
 2652 009f 00       		.byte	0
 2653 00a0 00       		.byte	0
 2654 00a1 0E       		.uleb128 0xe
 2655 00a2 26       		.uleb128 0x26
 2656 00a3 00       		.byte	0
 2657 00a4 49       		.uleb128 0x49
 2658 00a5 13       		.uleb128 0x13
 2659 00a6 00       		.byte	0
 2660 00a7 00       		.byte	0
 2661 00a8 0F       		.uleb128 0xf
 2662 00a9 13       		.uleb128 0x13
ARM GAS  /var/folders/qh/xwg3v3kj02qbxczjpdb8lzfr0000gn/T//ccSGpg0K.s 			page 48


 2663 00aa 01       		.byte	0x1
 2664 00ab 0B       		.uleb128 0xb
 2665 00ac 0B       		.uleb128 0xb
 2666 00ad 3A       		.uleb128 0x3a
 2667 00ae 0B       		.uleb128 0xb
 2668 00af 3B       		.uleb128 0x3b
 2669 00b0 05       		.uleb128 0x5
 2670 00b1 01       		.uleb128 0x1
 2671 00b2 13       		.uleb128 0x13
 2672 00b3 00       		.byte	0
 2673 00b4 00       		.byte	0
 2674 00b5 10       		.uleb128 0x10
 2675 00b6 0D       		.uleb128 0xd
 2676 00b7 00       		.byte	0
 2677 00b8 03       		.uleb128 0x3
 2678 00b9 08       		.uleb128 0x8
 2679 00ba 3A       		.uleb128 0x3a
 2680 00bb 0B       		.uleb128 0xb
 2681 00bc 3B       		.uleb128 0x3b
 2682 00bd 05       		.uleb128 0x5
 2683 00be 49       		.uleb128 0x49
 2684 00bf 13       		.uleb128 0x13
 2685 00c0 38       		.uleb128 0x38
 2686 00c1 0B       		.uleb128 0xb
 2687 00c2 00       		.byte	0
 2688 00c3 00       		.byte	0
 2689 00c4 11       		.uleb128 0x11
 2690 00c5 0D       		.uleb128 0xd
 2691 00c6 00       		.byte	0
 2692 00c7 03       		.uleb128 0x3
 2693 00c8 0E       		.uleb128 0xe
 2694 00c9 3A       		.uleb128 0x3a
 2695 00ca 0B       		.uleb128 0xb
 2696 00cb 3B       		.uleb128 0x3b
 2697 00cc 05       		.uleb128 0x5
 2698 00cd 49       		.uleb128 0x49
 2699 00ce 13       		.uleb128 0x13
 2700 00cf 38       		.uleb128 0x38
 2701 00d0 0B       		.uleb128 0xb
 2702 00d1 00       		.byte	0
 2703 00d2 00       		.byte	0
 2704 00d3 12       		.uleb128 0x12
 2705 00d4 01       		.uleb128 0x1
 2706 00d5 01       		.byte	0x1
 2707 00d6 49       		.uleb128 0x49
 2708 00d7 13       		.uleb128 0x13
 2709 00d8 01       		.uleb128 0x1
 2710 00d9 13       		.uleb128 0x13
 2711 00da 00       		.byte	0
 2712 00db 00       		.byte	0
 2713 00dc 13       		.uleb128 0x13
 2714 00dd 21       		.uleb128 0x21
 2715 00de 00       		.byte	0
 2716 00df 49       		.uleb128 0x49
 2717 00e0 13       		.uleb128 0x13
 2718 00e1 2F       		.uleb128 0x2f
 2719 00e2 0B       		.uleb128 0xb
ARM GAS  /var/folders/qh/xwg3v3kj02qbxczjpdb8lzfr0000gn/T//ccSGpg0K.s 			page 49


 2720 00e3 00       		.byte	0
 2721 00e4 00       		.byte	0
 2722 00e5 14       		.uleb128 0x14
 2723 00e6 16       		.uleb128 0x16
 2724 00e7 00       		.byte	0
 2725 00e8 03       		.uleb128 0x3
 2726 00e9 0E       		.uleb128 0xe
 2727 00ea 3A       		.uleb128 0x3a
 2728 00eb 0B       		.uleb128 0xb
 2729 00ec 3B       		.uleb128 0x3b
 2730 00ed 05       		.uleb128 0x5
 2731 00ee 49       		.uleb128 0x49
 2732 00ef 13       		.uleb128 0x13
 2733 00f0 00       		.byte	0
 2734 00f1 00       		.byte	0
 2735 00f2 15       		.uleb128 0x15
 2736 00f3 0D       		.uleb128 0xd
 2737 00f4 00       		.byte	0
 2738 00f5 03       		.uleb128 0x3
 2739 00f6 08       		.uleb128 0x8
 2740 00f7 3A       		.uleb128 0x3a
 2741 00f8 0B       		.uleb128 0xb
 2742 00f9 3B       		.uleb128 0x3b
 2743 00fa 0B       		.uleb128 0xb
 2744 00fb 49       		.uleb128 0x49
 2745 00fc 13       		.uleb128 0x13
 2746 00fd 00       		.byte	0
 2747 00fe 00       		.byte	0
 2748 00ff 16       		.uleb128 0x16
 2749 0100 04       		.uleb128 0x4
 2750 0101 01       		.byte	0x1
 2751 0102 0B       		.uleb128 0xb
 2752 0103 0B       		.uleb128 0xb
 2753 0104 3A       		.uleb128 0x3a
 2754 0105 0B       		.uleb128 0xb
 2755 0106 3B       		.uleb128 0x3b
 2756 0107 0B       		.uleb128 0xb
 2757 0108 01       		.uleb128 0x1
 2758 0109 13       		.uleb128 0x13
 2759 010a 00       		.byte	0
 2760 010b 00       		.byte	0
 2761 010c 17       		.uleb128 0x17
 2762 010d 28       		.uleb128 0x28
 2763 010e 00       		.byte	0
 2764 010f 03       		.uleb128 0x3
 2765 0110 0E       		.uleb128 0xe
 2766 0111 1C       		.uleb128 0x1c
 2767 0112 0D       		.uleb128 0xd
 2768 0113 00       		.byte	0
 2769 0114 00       		.byte	0
 2770 0115 18       		.uleb128 0x18
 2771 0116 15       		.uleb128 0x15
 2772 0117 01       		.byte	0x1
 2773 0118 27       		.uleb128 0x27
 2774 0119 19       		.uleb128 0x19
 2775 011a 01       		.uleb128 0x1
 2776 011b 13       		.uleb128 0x13
ARM GAS  /var/folders/qh/xwg3v3kj02qbxczjpdb8lzfr0000gn/T//ccSGpg0K.s 			page 50


 2777 011c 00       		.byte	0
 2778 011d 00       		.byte	0
 2779 011e 19       		.uleb128 0x19
 2780 011f 05       		.uleb128 0x5
 2781 0120 00       		.byte	0
 2782 0121 49       		.uleb128 0x49
 2783 0122 13       		.uleb128 0x13
 2784 0123 00       		.byte	0
 2785 0124 00       		.byte	0
 2786 0125 1A       		.uleb128 0x1a
 2787 0126 2E       		.uleb128 0x2e
 2788 0127 01       		.byte	0x1
 2789 0128 3F       		.uleb128 0x3f
 2790 0129 19       		.uleb128 0x19
 2791 012a 03       		.uleb128 0x3
 2792 012b 0E       		.uleb128 0xe
 2793 012c 3A       		.uleb128 0x3a
 2794 012d 0B       		.uleb128 0xb
 2795 012e 3B       		.uleb128 0x3b
 2796 012f 0B       		.uleb128 0xb
 2797 0130 27       		.uleb128 0x27
 2798 0131 19       		.uleb128 0x19
 2799 0132 49       		.uleb128 0x49
 2800 0133 13       		.uleb128 0x13
 2801 0134 20       		.uleb128 0x20
 2802 0135 0B       		.uleb128 0xb
 2803 0136 01       		.uleb128 0x1
 2804 0137 13       		.uleb128 0x13
 2805 0138 00       		.byte	0
 2806 0139 00       		.byte	0
 2807 013a 1B       		.uleb128 0x1b
 2808 013b 05       		.uleb128 0x5
 2809 013c 00       		.byte	0
 2810 013d 03       		.uleb128 0x3
 2811 013e 0E       		.uleb128 0xe
 2812 013f 3A       		.uleb128 0x3a
 2813 0140 0B       		.uleb128 0xb
 2814 0141 3B       		.uleb128 0x3b
 2815 0142 0B       		.uleb128 0xb
 2816 0143 49       		.uleb128 0x49
 2817 0144 13       		.uleb128 0x13
 2818 0145 00       		.byte	0
 2819 0146 00       		.byte	0
 2820 0147 1C       		.uleb128 0x1c
 2821 0148 34       		.uleb128 0x34
 2822 0149 00       		.byte	0
 2823 014a 03       		.uleb128 0x3
 2824 014b 0E       		.uleb128 0xe
 2825 014c 3A       		.uleb128 0x3a
 2826 014d 0B       		.uleb128 0xb
 2827 014e 3B       		.uleb128 0x3b
 2828 014f 0B       		.uleb128 0xb
 2829 0150 49       		.uleb128 0x49
 2830 0151 13       		.uleb128 0x13
 2831 0152 00       		.byte	0
 2832 0153 00       		.byte	0
 2833 0154 1D       		.uleb128 0x1d
ARM GAS  /var/folders/qh/xwg3v3kj02qbxczjpdb8lzfr0000gn/T//ccSGpg0K.s 			page 51


 2834 0155 2E       		.uleb128 0x2e
 2835 0156 00       		.byte	0
 2836 0157 3F       		.uleb128 0x3f
 2837 0158 19       		.uleb128 0x19
 2838 0159 03       		.uleb128 0x3
 2839 015a 0E       		.uleb128 0xe
 2840 015b 3A       		.uleb128 0x3a
 2841 015c 0B       		.uleb128 0xb
 2842 015d 3B       		.uleb128 0x3b
 2843 015e 0B       		.uleb128 0xb
 2844 015f 27       		.uleb128 0x27
 2845 0160 19       		.uleb128 0x19
 2846 0161 11       		.uleb128 0x11
 2847 0162 01       		.uleb128 0x1
 2848 0163 12       		.uleb128 0x12
 2849 0164 06       		.uleb128 0x6
 2850 0165 40       		.uleb128 0x40
 2851 0166 18       		.uleb128 0x18
 2852 0167 9742     		.uleb128 0x2117
 2853 0169 19       		.uleb128 0x19
 2854 016a 00       		.byte	0
 2855 016b 00       		.byte	0
 2856 016c 1E       		.uleb128 0x1e
 2857 016d 2E       		.uleb128 0x2e
 2858 016e 01       		.byte	0x1
 2859 016f 3F       		.uleb128 0x3f
 2860 0170 19       		.uleb128 0x19
 2861 0171 03       		.uleb128 0x3
 2862 0172 0E       		.uleb128 0xe
 2863 0173 3A       		.uleb128 0x3a
 2864 0174 0B       		.uleb128 0xb
 2865 0175 3B       		.uleb128 0x3b
 2866 0176 0B       		.uleb128 0xb
 2867 0177 27       		.uleb128 0x27
 2868 0178 19       		.uleb128 0x19
 2869 0179 49       		.uleb128 0x49
 2870 017a 13       		.uleb128 0x13
 2871 017b 11       		.uleb128 0x11
 2872 017c 01       		.uleb128 0x1
 2873 017d 12       		.uleb128 0x12
 2874 017e 06       		.uleb128 0x6
 2875 017f 40       		.uleb128 0x40
 2876 0180 18       		.uleb128 0x18
 2877 0181 9742     		.uleb128 0x2117
 2878 0183 19       		.uleb128 0x19
 2879 0184 01       		.uleb128 0x1
 2880 0185 13       		.uleb128 0x13
 2881 0186 00       		.byte	0
 2882 0187 00       		.byte	0
 2883 0188 1F       		.uleb128 0x1f
 2884 0189 05       		.uleb128 0x5
 2885 018a 00       		.byte	0
 2886 018b 03       		.uleb128 0x3
 2887 018c 0E       		.uleb128 0xe
 2888 018d 3A       		.uleb128 0x3a
 2889 018e 0B       		.uleb128 0xb
 2890 018f 3B       		.uleb128 0x3b
ARM GAS  /var/folders/qh/xwg3v3kj02qbxczjpdb8lzfr0000gn/T//ccSGpg0K.s 			page 52


 2891 0190 0B       		.uleb128 0xb
 2892 0191 49       		.uleb128 0x49
 2893 0192 13       		.uleb128 0x13
 2894 0193 02       		.uleb128 0x2
 2895 0194 17       		.uleb128 0x17
 2896 0195 00       		.byte	0
 2897 0196 00       		.byte	0
 2898 0197 20       		.uleb128 0x20
 2899 0198 898201   		.uleb128 0x4109
 2900 019b 01       		.byte	0x1
 2901 019c 11       		.uleb128 0x11
 2902 019d 01       		.uleb128 0x1
 2903 019e 31       		.uleb128 0x31
 2904 019f 13       		.uleb128 0x13
 2905 01a0 01       		.uleb128 0x1
 2906 01a1 13       		.uleb128 0x13
 2907 01a2 00       		.byte	0
 2908 01a3 00       		.byte	0
 2909 01a4 21       		.uleb128 0x21
 2910 01a5 8A8201   		.uleb128 0x410a
 2911 01a8 00       		.byte	0
 2912 01a9 02       		.uleb128 0x2
 2913 01aa 18       		.uleb128 0x18
 2914 01ab 9142     		.uleb128 0x2111
 2915 01ad 18       		.uleb128 0x18
 2916 01ae 00       		.byte	0
 2917 01af 00       		.byte	0
 2918 01b0 22       		.uleb128 0x22
 2919 01b1 898201   		.uleb128 0x4109
 2920 01b4 01       		.byte	0x1
 2921 01b5 11       		.uleb128 0x11
 2922 01b6 01       		.uleb128 0x1
 2923 01b7 31       		.uleb128 0x31
 2924 01b8 13       		.uleb128 0x13
 2925 01b9 00       		.byte	0
 2926 01ba 00       		.byte	0
 2927 01bb 23       		.uleb128 0x23
 2928 01bc 34       		.uleb128 0x34
 2929 01bd 00       		.byte	0
 2930 01be 03       		.uleb128 0x3
 2931 01bf 08       		.uleb128 0x8
 2932 01c0 3A       		.uleb128 0x3a
 2933 01c1 0B       		.uleb128 0xb
 2934 01c2 3B       		.uleb128 0x3b
 2935 01c3 0B       		.uleb128 0xb
 2936 01c4 49       		.uleb128 0x49
 2937 01c5 13       		.uleb128 0x13
 2938 01c6 02       		.uleb128 0x2
 2939 01c7 17       		.uleb128 0x17
 2940 01c8 00       		.byte	0
 2941 01c9 00       		.byte	0
 2942 01ca 24       		.uleb128 0x24
 2943 01cb 0B       		.uleb128 0xb
 2944 01cc 01       		.byte	0x1
 2945 01cd 55       		.uleb128 0x55
 2946 01ce 17       		.uleb128 0x17
 2947 01cf 00       		.byte	0
ARM GAS  /var/folders/qh/xwg3v3kj02qbxczjpdb8lzfr0000gn/T//ccSGpg0K.s 			page 53


 2948 01d0 00       		.byte	0
 2949 01d1 25       		.uleb128 0x25
 2950 01d2 34       		.uleb128 0x34
 2951 01d3 00       		.byte	0
 2952 01d4 03       		.uleb128 0x3
 2953 01d5 0E       		.uleb128 0xe
 2954 01d6 3A       		.uleb128 0x3a
 2955 01d7 0B       		.uleb128 0xb
 2956 01d8 3B       		.uleb128 0x3b
 2957 01d9 0B       		.uleb128 0xb
 2958 01da 49       		.uleb128 0x49
 2959 01db 13       		.uleb128 0x13
 2960 01dc 02       		.uleb128 0x2
 2961 01dd 17       		.uleb128 0x17
 2962 01de 00       		.byte	0
 2963 01df 00       		.byte	0
 2964 01e0 26       		.uleb128 0x26
 2965 01e1 34       		.uleb128 0x34
 2966 01e2 00       		.byte	0
 2967 01e3 03       		.uleb128 0x3
 2968 01e4 08       		.uleb128 0x8
 2969 01e5 3A       		.uleb128 0x3a
 2970 01e6 0B       		.uleb128 0xb
 2971 01e7 3B       		.uleb128 0x3b
 2972 01e8 0B       		.uleb128 0xb
 2973 01e9 49       		.uleb128 0x49
 2974 01ea 13       		.uleb128 0x13
 2975 01eb 00       		.byte	0
 2976 01ec 00       		.byte	0
 2977 01ed 27       		.uleb128 0x27
 2978 01ee 2E       		.uleb128 0x2e
 2979 01ef 01       		.byte	0x1
 2980 01f0 31       		.uleb128 0x31
 2981 01f1 13       		.uleb128 0x13
 2982 01f2 11       		.uleb128 0x11
 2983 01f3 01       		.uleb128 0x1
 2984 01f4 12       		.uleb128 0x12
 2985 01f5 06       		.uleb128 0x6
 2986 01f6 40       		.uleb128 0x40
 2987 01f7 18       		.uleb128 0x18
 2988 01f8 9742     		.uleb128 0x2117
 2989 01fa 19       		.uleb128 0x19
 2990 01fb 01       		.uleb128 0x1
 2991 01fc 13       		.uleb128 0x13
 2992 01fd 00       		.byte	0
 2993 01fe 00       		.byte	0
 2994 01ff 28       		.uleb128 0x28
 2995 0200 05       		.uleb128 0x5
 2996 0201 00       		.byte	0
 2997 0202 31       		.uleb128 0x31
 2998 0203 13       		.uleb128 0x13
 2999 0204 02       		.uleb128 0x2
 3000 0205 17       		.uleb128 0x17
 3001 0206 00       		.byte	0
 3002 0207 00       		.byte	0
 3003 0208 29       		.uleb128 0x29
 3004 0209 1D       		.uleb128 0x1d
ARM GAS  /var/folders/qh/xwg3v3kj02qbxczjpdb8lzfr0000gn/T//ccSGpg0K.s 			page 54


 3005 020a 01       		.byte	0x1
 3006 020b 31       		.uleb128 0x31
 3007 020c 13       		.uleb128 0x13
 3008 020d 11       		.uleb128 0x11
 3009 020e 01       		.uleb128 0x1
 3010 020f 12       		.uleb128 0x12
 3011 0210 06       		.uleb128 0x6
 3012 0211 58       		.uleb128 0x58
 3013 0212 0B       		.uleb128 0xb
 3014 0213 59       		.uleb128 0x59
 3015 0214 0B       		.uleb128 0xb
 3016 0215 00       		.byte	0
 3017 0216 00       		.byte	0
 3018 0217 2A       		.uleb128 0x2a
 3019 0218 34       		.uleb128 0x34
 3020 0219 00       		.byte	0
 3021 021a 31       		.uleb128 0x31
 3022 021b 13       		.uleb128 0x13
 3023 021c 00       		.byte	0
 3024 021d 00       		.byte	0
 3025 021e 2B       		.uleb128 0x2b
 3026 021f 34       		.uleb128 0x34
 3027 0220 00       		.byte	0
 3028 0221 03       		.uleb128 0x3
 3029 0222 08       		.uleb128 0x8
 3030 0223 3A       		.uleb128 0x3a
 3031 0224 0B       		.uleb128 0xb
 3032 0225 3B       		.uleb128 0x3b
 3033 0226 0B       		.uleb128 0xb
 3034 0227 49       		.uleb128 0x49
 3035 0228 13       		.uleb128 0x13
 3036 0229 1C       		.uleb128 0x1c
 3037 022a 0B       		.uleb128 0xb
 3038 022b 00       		.byte	0
 3039 022c 00       		.byte	0
 3040 022d 2C       		.uleb128 0x2c
 3041 022e 0B       		.uleb128 0xb
 3042 022f 01       		.byte	0x1
 3043 0230 11       		.uleb128 0x11
 3044 0231 01       		.uleb128 0x1
 3045 0232 12       		.uleb128 0x12
 3046 0233 06       		.uleb128 0x6
 3047 0234 00       		.byte	0
 3048 0235 00       		.byte	0
 3049 0236 2D       		.uleb128 0x2d
 3050 0237 2E       		.uleb128 0x2e
 3051 0238 01       		.byte	0x1
 3052 0239 3F       		.uleb128 0x3f
 3053 023a 19       		.uleb128 0x19
 3054 023b 03       		.uleb128 0x3
 3055 023c 0E       		.uleb128 0xe
 3056 023d 3A       		.uleb128 0x3a
 3057 023e 0B       		.uleb128 0xb
 3058 023f 3B       		.uleb128 0x3b
 3059 0240 05       		.uleb128 0x5
 3060 0241 27       		.uleb128 0x27
 3061 0242 19       		.uleb128 0x19
ARM GAS  /var/folders/qh/xwg3v3kj02qbxczjpdb8lzfr0000gn/T//ccSGpg0K.s 			page 55


 3062 0243 49       		.uleb128 0x49
 3063 0244 13       		.uleb128 0x13
 3064 0245 11       		.uleb128 0x11
 3065 0246 01       		.uleb128 0x1
 3066 0247 12       		.uleb128 0x12
 3067 0248 06       		.uleb128 0x6
 3068 0249 40       		.uleb128 0x40
 3069 024a 18       		.uleb128 0x18
 3070 024b 9742     		.uleb128 0x2117
 3071 024d 19       		.uleb128 0x19
 3072 024e 01       		.uleb128 0x1
 3073 024f 13       		.uleb128 0x13
 3074 0250 00       		.byte	0
 3075 0251 00       		.byte	0
 3076 0252 2E       		.uleb128 0x2e
 3077 0253 05       		.uleb128 0x5
 3078 0254 00       		.byte	0
 3079 0255 03       		.uleb128 0x3
 3080 0256 0E       		.uleb128 0xe
 3081 0257 3A       		.uleb128 0x3a
 3082 0258 0B       		.uleb128 0xb
 3083 0259 3B       		.uleb128 0x3b
 3084 025a 05       		.uleb128 0x5
 3085 025b 49       		.uleb128 0x49
 3086 025c 13       		.uleb128 0x13
 3087 025d 02       		.uleb128 0x2
 3088 025e 17       		.uleb128 0x17
 3089 025f 00       		.byte	0
 3090 0260 00       		.byte	0
 3091 0261 2F       		.uleb128 0x2f
 3092 0262 34       		.uleb128 0x34
 3093 0263 00       		.byte	0
 3094 0264 03       		.uleb128 0x3
 3095 0265 0E       		.uleb128 0xe
 3096 0266 3A       		.uleb128 0x3a
 3097 0267 0B       		.uleb128 0xb
 3098 0268 3B       		.uleb128 0x3b
 3099 0269 05       		.uleb128 0x5
 3100 026a 49       		.uleb128 0x49
 3101 026b 13       		.uleb128 0x13
 3102 026c 00       		.byte	0
 3103 026d 00       		.byte	0
 3104 026e 30       		.uleb128 0x30
 3105 026f 34       		.uleb128 0x34
 3106 0270 00       		.byte	0
 3107 0271 03       		.uleb128 0x3
 3108 0272 0E       		.uleb128 0xe
 3109 0273 3A       		.uleb128 0x3a
 3110 0274 0B       		.uleb128 0xb
 3111 0275 3B       		.uleb128 0x3b
 3112 0276 0B       		.uleb128 0xb
 3113 0277 49       		.uleb128 0x49
 3114 0278 13       		.uleb128 0x13
 3115 0279 3F       		.uleb128 0x3f
 3116 027a 19       		.uleb128 0x19
 3117 027b 02       		.uleb128 0x2
 3118 027c 18       		.uleb128 0x18
ARM GAS  /var/folders/qh/xwg3v3kj02qbxczjpdb8lzfr0000gn/T//ccSGpg0K.s 			page 56


 3119 027d 00       		.byte	0
 3120 027e 00       		.byte	0
 3121 027f 31       		.uleb128 0x31
 3122 0280 34       		.uleb128 0x34
 3123 0281 00       		.byte	0
 3124 0282 03       		.uleb128 0x3
 3125 0283 0E       		.uleb128 0xe
 3126 0284 3A       		.uleb128 0x3a
 3127 0285 0B       		.uleb128 0xb
 3128 0286 3B       		.uleb128 0x3b
 3129 0287 0B       		.uleb128 0xb
 3130 0288 49       		.uleb128 0x49
 3131 0289 13       		.uleb128 0x13
 3132 028a 3F       		.uleb128 0x3f
 3133 028b 19       		.uleb128 0x19
 3134 028c 3C       		.uleb128 0x3c
 3135 028d 19       		.uleb128 0x19
 3136 028e 00       		.byte	0
 3137 028f 00       		.byte	0
 3138 0290 32       		.uleb128 0x32
 3139 0291 2E       		.uleb128 0x2e
 3140 0292 01       		.byte	0x1
 3141 0293 3F       		.uleb128 0x3f
 3142 0294 19       		.uleb128 0x19
 3143 0295 03       		.uleb128 0x3
 3144 0296 0E       		.uleb128 0xe
 3145 0297 3A       		.uleb128 0x3a
 3146 0298 0B       		.uleb128 0xb
 3147 0299 3B       		.uleb128 0x3b
 3148 029a 05       		.uleb128 0x5
 3149 029b 27       		.uleb128 0x27
 3150 029c 19       		.uleb128 0x19
 3151 029d 3C       		.uleb128 0x3c
 3152 029e 19       		.uleb128 0x19
 3153 029f 00       		.byte	0
 3154 02a0 00       		.byte	0
 3155 02a1 00       		.byte	0
 3156              		.section	.debug_loc,"",%progbits
 3157              	.Ldebug_loc0:
 3158              	.LLST0:
 3159 0000 00000000 		.4byte	.LVL0
 3160 0004 3A000000 		.4byte	.LVL1
 3161 0008 0100     		.2byte	0x1
 3162 000a 50       		.byte	0x50
 3163 000b 3A000000 		.4byte	.LVL1
 3164 000f 4A000000 		.4byte	.LVL4
 3165 0013 0400     		.2byte	0x4
 3166 0015 F3       		.byte	0xf3
 3167 0016 01       		.uleb128 0x1
 3168 0017 50       		.byte	0x50
 3169 0018 9F       		.byte	0x9f
 3170 0019 4A000000 		.4byte	.LVL4
 3171 001d 62000000 		.4byte	.LVL5
 3172 0021 0100     		.2byte	0x1
 3173 0023 50       		.byte	0x50
 3174 0024 62000000 		.4byte	.LVL5
 3175 0028 7C000000 		.4byte	.LVL9
ARM GAS  /var/folders/qh/xwg3v3kj02qbxczjpdb8lzfr0000gn/T//ccSGpg0K.s 			page 57


 3176 002c 0400     		.2byte	0x4
 3177 002e F3       		.byte	0xf3
 3178 002f 01       		.uleb128 0x1
 3179 0030 50       		.byte	0x50
 3180 0031 9F       		.byte	0x9f
 3181 0032 7C000000 		.4byte	.LVL9
 3182 0036 7C000000 		.4byte	.LVL10
 3183 003a 0100     		.2byte	0x1
 3184 003c 50       		.byte	0x50
 3185 003d 7C000000 		.4byte	.LVL10
 3186 0041 7E000000 		.4byte	.LVL11
 3187 0045 0400     		.2byte	0x4
 3188 0047 F3       		.byte	0xf3
 3189 0048 01       		.uleb128 0x1
 3190 0049 50       		.byte	0x50
 3191 004a 9F       		.byte	0x9f
 3192 004b 7E000000 		.4byte	.LVL11
 3193 004f 84000000 		.4byte	.LVL12
 3194 0053 0100     		.2byte	0x1
 3195 0055 50       		.byte	0x50
 3196 0056 84000000 		.4byte	.LVL12
 3197 005a 86000000 		.4byte	.LVL13
 3198 005e 0400     		.2byte	0x4
 3199 0060 F3       		.byte	0xf3
 3200 0061 01       		.uleb128 0x1
 3201 0062 50       		.byte	0x50
 3202 0063 9F       		.byte	0x9f
 3203 0064 86000000 		.4byte	.LVL13
 3204 0068 94000000 		.4byte	.LVL14
 3205 006c 0100     		.2byte	0x1
 3206 006e 50       		.byte	0x50
 3207 006f 94000000 		.4byte	.LVL14
 3208 0073 A4000000 		.4byte	.LVL17
 3209 0077 0400     		.2byte	0x4
 3210 0079 F3       		.byte	0xf3
 3211 007a 01       		.uleb128 0x1
 3212 007b 50       		.byte	0x50
 3213 007c 9F       		.byte	0x9f
 3214 007d A4000000 		.4byte	.LVL17
 3215 0081 AE000000 		.4byte	.LVL18
 3216 0085 0100     		.2byte	0x1
 3217 0087 50       		.byte	0x50
 3218 0088 AE000000 		.4byte	.LVL18
 3219 008c C8000000 		.4byte	.LFE41
 3220 0090 0400     		.2byte	0x4
 3221 0092 F3       		.byte	0xf3
 3222 0093 01       		.uleb128 0x1
 3223 0094 50       		.byte	0x50
 3224 0095 9F       		.byte	0x9f
 3225 0096 00000000 		.4byte	0
 3226 009a 00000000 		.4byte	0
 3227              	.LLST1:
 3228 009e 00000000 		.4byte	.LVL0
 3229 00a2 40000000 		.4byte	.LVL2
 3230 00a6 0100     		.2byte	0x1
 3231 00a8 51       		.byte	0x51
 3232 00a9 40000000 		.4byte	.LVL2
ARM GAS  /var/folders/qh/xwg3v3kj02qbxczjpdb8lzfr0000gn/T//ccSGpg0K.s 			page 58


 3233 00ad 4A000000 		.4byte	.LVL4
 3234 00b1 0100     		.2byte	0x1
 3235 00b3 54       		.byte	0x54
 3236 00b4 4A000000 		.4byte	.LVL4
 3237 00b8 68000000 		.4byte	.LVL6
 3238 00bc 0100     		.2byte	0x1
 3239 00be 51       		.byte	0x51
 3240 00bf 68000000 		.4byte	.LVL6
 3241 00c3 7A000000 		.4byte	.LVL8
 3242 00c7 0100     		.2byte	0x1
 3243 00c9 54       		.byte	0x54
 3244 00ca 7A000000 		.4byte	.LVL8
 3245 00ce 7C000000 		.4byte	.LVL9
 3246 00d2 0400     		.2byte	0x4
 3247 00d4 F3       		.byte	0xf3
 3248 00d5 01       		.uleb128 0x1
 3249 00d6 51       		.byte	0x51
 3250 00d7 9F       		.byte	0x9f
 3251 00d8 7C000000 		.4byte	.LVL9
 3252 00dc 9A000000 		.4byte	.LVL15
 3253 00e0 0100     		.2byte	0x1
 3254 00e2 51       		.byte	0x51
 3255 00e3 9A000000 		.4byte	.LVL15
 3256 00e7 A4000000 		.4byte	.LVL17
 3257 00eb 0100     		.2byte	0x1
 3258 00ed 54       		.byte	0x54
 3259 00ee A4000000 		.4byte	.LVL17
 3260 00f2 B2000000 		.4byte	.LVL19
 3261 00f6 0100     		.2byte	0x1
 3262 00f8 51       		.byte	0x51
 3263 00f9 B2000000 		.4byte	.LVL19
 3264 00fd C8000000 		.4byte	.LFE41
 3265 0101 0100     		.2byte	0x1
 3266 0103 54       		.byte	0x54
 3267 0104 00000000 		.4byte	0
 3268 0108 00000000 		.4byte	0
 3269              	.LLST2:
 3270 010c 00000000 		.4byte	.LVL21
 3271 0110 32000000 		.4byte	.LVL24
 3272 0114 0100     		.2byte	0x1
 3273 0116 50       		.byte	0x50
 3274 0117 32000000 		.4byte	.LVL24
 3275 011b 36000000 		.4byte	.LVL26
 3276 011f 0300     		.2byte	0x3
 3277 0121 70       		.byte	0x70
 3278 0122 7E       		.sleb128 -2
 3279 0123 9F       		.byte	0x9f
 3280 0124 36000000 		.4byte	.LVL26
 3281 0128 54000000 		.4byte	.LFE43
 3282 012c 0400     		.2byte	0x4
 3283 012e F3       		.byte	0xf3
 3284 012f 01       		.uleb128 0x1
 3285 0130 50       		.byte	0x50
 3286 0131 9F       		.byte	0x9f
 3287 0132 00000000 		.4byte	0
 3288 0136 00000000 		.4byte	0
 3289              	.LLST3:
ARM GAS  /var/folders/qh/xwg3v3kj02qbxczjpdb8lzfr0000gn/T//ccSGpg0K.s 			page 59


 3290 013a 00000000 		.4byte	.LVL21
 3291 013e 34000000 		.4byte	.LVL25
 3292 0142 0100     		.2byte	0x1
 3293 0144 51       		.byte	0x51
 3294 0145 34000000 		.4byte	.LVL25
 3295 0149 54000000 		.4byte	.LFE43
 3296 014d 0400     		.2byte	0x4
 3297 014f F3       		.byte	0xf3
 3298 0150 01       		.uleb128 0x1
 3299 0151 51       		.byte	0x51
 3300 0152 9F       		.byte	0x9f
 3301 0153 00000000 		.4byte	0
 3302 0157 00000000 		.4byte	0
 3303              	.LLST4:
 3304 015b 00000000 		.4byte	.LVL21
 3305 015f 36000000 		.4byte	.LVL26
 3306 0163 0200     		.2byte	0x2
 3307 0165 31       		.byte	0x31
 3308 0166 9F       		.byte	0x9f
 3309 0167 36000000 		.4byte	.LVL26
 3310 016b 38000000 		.4byte	.LVL27
 3311 016f 0700     		.2byte	0x7
 3312 0171 70       		.byte	0x70
 3313 0172 00       		.sleb128 0
 3314 0173 F3       		.byte	0xf3
 3315 0174 01       		.uleb128 0x1
 3316 0175 50       		.byte	0x50
 3317 0176 1C       		.byte	0x1c
 3318 0177 9F       		.byte	0x9f
 3319 0178 38000000 		.4byte	.LVL27
 3320 017c 3C000000 		.4byte	.LVL28
 3321 0180 0800     		.2byte	0x8
 3322 0182 F3       		.byte	0xf3
 3323 0183 01       		.uleb128 0x1
 3324 0184 50       		.byte	0x50
 3325 0185 20       		.byte	0x20
 3326 0186 70       		.byte	0x70
 3327 0187 00       		.sleb128 0
 3328 0188 22       		.byte	0x22
 3329 0189 9F       		.byte	0x9f
 3330 018a 3C000000 		.4byte	.LVL28
 3331 018e 42000000 		.4byte	.LVL29
 3332 0192 0700     		.2byte	0x7
 3333 0194 70       		.byte	0x70
 3334 0195 00       		.sleb128 0
 3335 0196 F3       		.byte	0xf3
 3336 0197 01       		.uleb128 0x1
 3337 0198 50       		.byte	0x50
 3338 0199 1C       		.byte	0x1c
 3339 019a 9F       		.byte	0x9f
 3340 019b 48000000 		.4byte	.LVL30
 3341 019f 54000000 		.4byte	.LFE43
 3342 01a3 0800     		.2byte	0x8
 3343 01a5 F3       		.byte	0xf3
 3344 01a6 01       		.uleb128 0x1
 3345 01a7 50       		.byte	0x50
 3346 01a8 20       		.byte	0x20
ARM GAS  /var/folders/qh/xwg3v3kj02qbxczjpdb8lzfr0000gn/T//ccSGpg0K.s 			page 60


 3347 01a9 70       		.byte	0x70
 3348 01aa 00       		.sleb128 0
 3349 01ab 22       		.byte	0x22
 3350 01ac 9F       		.byte	0x9f
 3351 01ad 00000000 		.4byte	0
 3352 01b1 00000000 		.4byte	0
 3353              	.LLST5:
 3354 01b5 08000000 		.4byte	.LVL22
 3355 01b9 1A000000 		.4byte	.LVL23
 3356 01bd 0200     		.2byte	0x2
 3357 01bf 30       		.byte	0x30
 3358 01c0 9F       		.byte	0x9f
 3359 01c1 00000000 		.4byte	0
 3360 01c5 00000000 		.4byte	0
 3361              	.LLST6:
 3362 01c9 00000000 		.4byte	.LVL31
 3363 01cd 09000000 		.4byte	.LVL32-1
 3364 01d1 0100     		.2byte	0x1
 3365 01d3 50       		.byte	0x50
 3366 01d4 09000000 		.4byte	.LVL32-1
 3367 01d8 2A000000 		.4byte	.LVL35
 3368 01dc 0100     		.2byte	0x1
 3369 01de 54       		.byte	0x54
 3370 01df 2A000000 		.4byte	.LVL35
 3371 01e3 2C000000 		.4byte	.LFE42
 3372 01e7 0400     		.2byte	0x4
 3373 01e9 F3       		.byte	0xf3
 3374 01ea 01       		.uleb128 0x1
 3375 01eb 50       		.byte	0x50
 3376 01ec 9F       		.byte	0x9f
 3377 01ed 00000000 		.4byte	0
 3378 01f1 00000000 		.4byte	0
 3379              	.LLST7:
 3380 01f5 00000000 		.4byte	.LVL31
 3381 01f9 09000000 		.4byte	.LVL32-1
 3382 01fd 0100     		.2byte	0x1
 3383 01ff 51       		.byte	0x51
 3384 0200 09000000 		.4byte	.LVL32-1
 3385 0204 2A000000 		.4byte	.LVL36
 3386 0208 0100     		.2byte	0x1
 3387 020a 55       		.byte	0x55
 3388 020b 2A000000 		.4byte	.LVL36
 3389 020f 2C000000 		.4byte	.LFE42
 3390 0213 0400     		.2byte	0x4
 3391 0215 F3       		.byte	0xf3
 3392 0216 01       		.uleb128 0x1
 3393 0217 51       		.byte	0x51
 3394 0218 9F       		.byte	0x9f
 3395 0219 00000000 		.4byte	0
 3396 021d 00000000 		.4byte	0
 3397              	.LLST8:
 3398 0221 1A000000 		.4byte	.LVL33
 3399 0225 1E000000 		.4byte	.LVL34
 3400 0229 0100     		.2byte	0x1
 3401 022b 50       		.byte	0x50
 3402 022c 00000000 		.4byte	0
 3403 0230 00000000 		.4byte	0
ARM GAS  /var/folders/qh/xwg3v3kj02qbxczjpdb8lzfr0000gn/T//ccSGpg0K.s 			page 61


 3404              	.LLST9:
 3405 0234 00000000 		.4byte	.LVL37
 3406 0238 04000000 		.4byte	.LVL38
 3407 023c 0100     		.2byte	0x1
 3408 023e 50       		.byte	0x50
 3409 023f 04000000 		.4byte	.LVL38
 3410 0243 2C000000 		.4byte	.LFE44
 3411 0247 0400     		.2byte	0x4
 3412 0249 F3       		.byte	0xf3
 3413 024a 01       		.uleb128 0x1
 3414 024b 50       		.byte	0x50
 3415 024c 9F       		.byte	0x9f
 3416 024d 00000000 		.4byte	0
 3417 0251 00000000 		.4byte	0
 3418              	.LLST10:
 3419 0255 00000000 		.4byte	.LVL37
 3420 0259 12000000 		.4byte	.LVL39
 3421 025d 0200     		.2byte	0x2
 3422 025f 30       		.byte	0x30
 3423 0260 9F       		.byte	0x9f
 3424 0261 00000000 		.4byte	0
 3425 0265 00000000 		.4byte	0
 3426              	.LLST11:
 3427 0269 00000000 		.4byte	.LVL40
 3428 026d 04000000 		.4byte	.LVL41
 3429 0271 0100     		.2byte	0x1
 3430 0273 50       		.byte	0x50
 3431 0274 04000000 		.4byte	.LVL41
 3432 0278 1C000000 		.4byte	.LFE45
 3433 027c 0400     		.2byte	0x4
 3434 027e F3       		.byte	0xf3
 3435 027f 01       		.uleb128 0x1
 3436 0280 50       		.byte	0x50
 3437 0281 9F       		.byte	0x9f
 3438 0282 00000000 		.4byte	0
 3439 0286 00000000 		.4byte	0
 3440              	.LLST13:
 3441 028a 00000000 		.4byte	.LVL42
 3442 028e 1E000000 		.4byte	.LVL43
 3443 0292 0100     		.2byte	0x1
 3444 0294 50       		.byte	0x50
 3445 0295 1E000000 		.4byte	.LVL43
 3446 0299 28000000 		.4byte	.LFE46
 3447 029d 0400     		.2byte	0x4
 3448 029f F3       		.byte	0xf3
 3449 02a0 01       		.uleb128 0x1
 3450 02a1 50       		.byte	0x50
 3451 02a2 9F       		.byte	0x9f
 3452 02a3 00000000 		.4byte	0
 3453 02a7 00000000 		.4byte	0
 3454              	.LLST16:
 3455 02ab 00000000 		.4byte	.LVL44
 3456 02af 1C000000 		.4byte	.LVL46
 3457 02b3 0100     		.2byte	0x1
 3458 02b5 50       		.byte	0x50
 3459 02b6 1C000000 		.4byte	.LVL46
 3460 02ba 34000000 		.4byte	.LVL48
ARM GAS  /var/folders/qh/xwg3v3kj02qbxczjpdb8lzfr0000gn/T//ccSGpg0K.s 			page 62


 3461 02be 0400     		.2byte	0x4
 3462 02c0 F3       		.byte	0xf3
 3463 02c1 01       		.uleb128 0x1
 3464 02c2 50       		.byte	0x50
 3465 02c3 9F       		.byte	0x9f
 3466 02c4 34000000 		.4byte	.LVL48
 3467 02c8 36000000 		.4byte	.LVL49
 3468 02cc 0100     		.2byte	0x1
 3469 02ce 50       		.byte	0x50
 3470 02cf 36000000 		.4byte	.LVL49
 3471 02d3 44000000 		.4byte	.LFE47
 3472 02d7 0400     		.2byte	0x4
 3473 02d9 F3       		.byte	0xf3
 3474 02da 01       		.uleb128 0x1
 3475 02db 50       		.byte	0x50
 3476 02dc 9F       		.byte	0x9f
 3477 02dd 00000000 		.4byte	0
 3478 02e1 00000000 		.4byte	0
 3479              	.LLST17:
 3480 02e5 00000000 		.4byte	.LVL44
 3481 02e9 1C000000 		.4byte	.LVL46
 3482 02ed 0200     		.2byte	0x2
 3483 02ef 30       		.byte	0x30
 3484 02f0 9F       		.byte	0x9f
 3485 02f1 34000000 		.4byte	.LVL48
 3486 02f5 44000000 		.4byte	.LFE47
 3487 02f9 0200     		.2byte	0x2
 3488 02fb 30       		.byte	0x30
 3489 02fc 9F       		.byte	0x9f
 3490 02fd 00000000 		.4byte	0
 3491 0301 00000000 		.4byte	0
 3492              	.LLST19:
 3493 0305 1C000000 		.4byte	.LVL46
 3494 0309 32000000 		.4byte	.LVL47
 3495 030d 0B00     		.2byte	0xb
 3496 030f F3       		.byte	0xf3
 3497 0310 01       		.uleb128 0x1
 3498 0311 50       		.byte	0x50
 3499 0312 23       		.byte	0x23
 3500 0313 01       		.uleb128 0x1
 3501 0314 94       		.byte	0x94
 3502 0315 01       		.byte	0x1
 3503 0316 08       		.byte	0x8
 3504 0317 FF       		.byte	0xff
 3505 0318 1A       		.byte	0x1a
 3506 0319 9F       		.byte	0x9f
 3507 031a 00000000 		.4byte	0
 3508 031e 00000000 		.4byte	0
 3509              	.LLST20:
 3510 0322 00000000 		.4byte	.LVL50
 3511 0326 1C000000 		.4byte	.LVL51
 3512 032a 0100     		.2byte	0x1
 3513 032c 50       		.byte	0x50
 3514 032d 1C000000 		.4byte	.LVL51
 3515 0331 28000000 		.4byte	.LFE48
 3516 0335 0400     		.2byte	0x4
 3517 0337 F3       		.byte	0xf3
ARM GAS  /var/folders/qh/xwg3v3kj02qbxczjpdb8lzfr0000gn/T//ccSGpg0K.s 			page 63


 3518 0338 01       		.uleb128 0x1
 3519 0339 50       		.byte	0x50
 3520 033a 9F       		.byte	0x9f
 3521 033b 00000000 		.4byte	0
 3522 033f 00000000 		.4byte	0
 3523              	.LLST23:
 3524 0343 00000000 		.4byte	.LVL52
 3525 0347 1E000000 		.4byte	.LVL53
 3526 034b 0100     		.2byte	0x1
 3527 034d 50       		.byte	0x50
 3528 034e 1E000000 		.4byte	.LVL53
 3529 0352 28000000 		.4byte	.LFE49
 3530 0356 0400     		.2byte	0x4
 3531 0358 F3       		.byte	0xf3
 3532 0359 01       		.uleb128 0x1
 3533 035a 50       		.byte	0x50
 3534 035b 9F       		.byte	0x9f
 3535 035c 00000000 		.4byte	0
 3536 0360 00000000 		.4byte	0
 3537              	.LLST26:
 3538 0364 00000000 		.4byte	.LVL54
 3539 0368 04000000 		.4byte	.LVL55
 3540 036c 0100     		.2byte	0x1
 3541 036e 50       		.byte	0x50
 3542 036f 04000000 		.4byte	.LVL55
 3543 0373 18000000 		.4byte	.LFE50
 3544 0377 0400     		.2byte	0x4
 3545 0379 F3       		.byte	0xf3
 3546 037a 01       		.uleb128 0x1
 3547 037b 50       		.byte	0x50
 3548 037c 9F       		.byte	0x9f
 3549 037d 00000000 		.4byte	0
 3550 0381 00000000 		.4byte	0
 3551              	.LLST27:
 3552 0385 00000000 		.4byte	.LVL56
 3553 0389 00000000 		.4byte	.LVL57
 3554 038d 0100     		.2byte	0x1
 3555 038f 50       		.byte	0x50
 3556 0390 00000000 		.4byte	.LVL57
 3557 0394 02000000 		.4byte	.LFE51
 3558 0398 0400     		.2byte	0x4
 3559 039a F3       		.byte	0xf3
 3560 039b 01       		.uleb128 0x1
 3561 039c 50       		.byte	0x50
 3562 039d 9F       		.byte	0x9f
 3563 039e 00000000 		.4byte	0
 3564 03a2 00000000 		.4byte	0
 3565              		.section	.debug_aranges,"",%progbits
 3566 0000 74000000 		.4byte	0x74
 3567 0004 0200     		.2byte	0x2
 3568 0006 00000000 		.4byte	.Ldebug_info0
 3569 000a 04       		.byte	0x4
 3570 000b 00       		.byte	0
 3571 000c 0000     		.2byte	0
 3572 000e 0000     		.2byte	0
 3573 0010 00000000 		.4byte	.LFB40
 3574 0014 A8000000 		.4byte	.LFE40-.LFB40
ARM GAS  /var/folders/qh/xwg3v3kj02qbxczjpdb8lzfr0000gn/T//ccSGpg0K.s 			page 64


 3575 0018 00000000 		.4byte	.LFB41
 3576 001c C8000000 		.4byte	.LFE41-.LFB41
 3577 0020 00000000 		.4byte	.LFB43
 3578 0024 54000000 		.4byte	.LFE43-.LFB43
 3579 0028 00000000 		.4byte	.LFB42
 3580 002c 2C000000 		.4byte	.LFE42-.LFB42
 3581 0030 00000000 		.4byte	.LFB44
 3582 0034 2C000000 		.4byte	.LFE44-.LFB44
 3583 0038 00000000 		.4byte	.LFB45
 3584 003c 1C000000 		.4byte	.LFE45-.LFB45
 3585 0040 00000000 		.4byte	.LFB46
 3586 0044 28000000 		.4byte	.LFE46-.LFB46
 3587 0048 00000000 		.4byte	.LFB47
 3588 004c 44000000 		.4byte	.LFE47-.LFB47
 3589 0050 00000000 		.4byte	.LFB48
 3590 0054 28000000 		.4byte	.LFE48-.LFB48
 3591 0058 00000000 		.4byte	.LFB49
 3592 005c 28000000 		.4byte	.LFE49-.LFB49
 3593 0060 00000000 		.4byte	.LFB50
 3594 0064 18000000 		.4byte	.LFE50-.LFB50
 3595 0068 00000000 		.4byte	.LFB51
 3596 006c 02000000 		.4byte	.LFE51-.LFB51
 3597 0070 00000000 		.4byte	0
 3598 0074 00000000 		.4byte	0
 3599              		.section	.debug_ranges,"",%progbits
 3600              	.Ldebug_ranges0:
 3601 0000 0A000000 		.4byte	.LBB39
 3602 0004 3C000000 		.4byte	.LBE39
 3603 0008 48000000 		.4byte	.LBB40
 3604 000c 54000000 		.4byte	.LBE40
 3605 0010 00000000 		.4byte	0
 3606 0014 00000000 		.4byte	0
 3607 0018 00000000 		.4byte	.LFB40
 3608 001c A8000000 		.4byte	.LFE40
 3609 0020 00000000 		.4byte	.LFB41
 3610 0024 C8000000 		.4byte	.LFE41
 3611 0028 00000000 		.4byte	.LFB43
 3612 002c 54000000 		.4byte	.LFE43
 3613 0030 00000000 		.4byte	.LFB42
 3614 0034 2C000000 		.4byte	.LFE42
 3615 0038 00000000 		.4byte	.LFB44
 3616 003c 2C000000 		.4byte	.LFE44
 3617 0040 00000000 		.4byte	.LFB45
 3618 0044 1C000000 		.4byte	.LFE45
 3619 0048 00000000 		.4byte	.LFB46
 3620 004c 28000000 		.4byte	.LFE46
 3621 0050 00000000 		.4byte	.LFB47
 3622 0054 44000000 		.4byte	.LFE47
 3623 0058 00000000 		.4byte	.LFB48
 3624 005c 28000000 		.4byte	.LFE48
 3625 0060 00000000 		.4byte	.LFB49
 3626 0064 28000000 		.4byte	.LFE49
 3627 0068 00000000 		.4byte	.LFB50
 3628 006c 18000000 		.4byte	.LFE50
 3629 0070 00000000 		.4byte	.LFB51
 3630 0074 02000000 		.4byte	.LFE51
 3631 0078 00000000 		.4byte	0
ARM GAS  /var/folders/qh/xwg3v3kj02qbxczjpdb8lzfr0000gn/T//ccSGpg0K.s 			page 65


 3632 007c 00000000 		.4byte	0
 3633              		.section	.debug_line,"",%progbits
 3634              	.Ldebug_line0:
 3635 0000 75030000 		.section	.debug_str,"MS",%progbits,1
 3635      0200F201 
 3635      00000201 
 3635      FB0E0D00 
 3635      01010101 
 3636              	.LASF129:
 3637 0000 70696E41 		.ascii	"pinAdcAddress\000"
 3637      64634164 
 3637      64726573 
 3637      7300
 3638              	.LASF45:
 3639 000e 54687265 		.ascii	"ThreadsList\000"
 3639      6164734C 
 3639      69737400 
 3640              	.LASF37:
 3641 001a 705F7761 		.ascii	"p_waiting\000"
 3641      6974696E 
 3641      6700
 3642              	.LASF36:
 3643 0024 705F7469 		.ascii	"p_time\000"
 3643      6D6500
 3644              	.LASF83:
 3645 002b 42535252 		.ascii	"BSRR\000"
 3645      00
 3646              	.LASF46:
 3647 0030 72656761 		.ascii	"regarm_t\000"
 3647      726D5F74 
 3647      00
 3648              	.LASF27:
 3649 0039 705F7072 		.ascii	"p_prio\000"
 3649      696F00
 3650              	.LASF113:
 3651 0040 646D616D 		.ascii	"dmamode\000"
 3651      6F646500 
 3652              	.LASF23:
 3653 0048 73797374 		.ascii	"systime_t\000"
 3653      696D655F 
 3653      7400
 3654              	.LASF52:
 3655 0052 6D5F6F77 		.ascii	"m_owner\000"
 3655      6E657200 
 3656              	.LASF38:
 3657 005a 705F6D73 		.ascii	"p_msgqueue\000"
 3657      67717565 
 3657      756500
 3658              	.LASF103:
 3659 0065 61646365 		.ascii	"adcerror_t\000"
 3659      72726F72 
 3659      5F7400
 3660              	.LASF0:
 3661 0070 756E7369 		.ascii	"unsigned int\000"
 3661      676E6564 
 3661      20696E74 
 3661      00
ARM GAS  /var/folders/qh/xwg3v3kj02qbxczjpdb8lzfr0000gn/T//ccSGpg0K.s 			page 66


 3662              	.LASF131:
 3663 007d 63757272 		.ascii	"currentSetting\000"
 3663      656E7453 
 3663      65747469 
 3663      6E6700
 3664              	.LASF152:
 3665 008c 68775069 		.ascii	"hwPin\000"
 3665      6E00
 3666              	.LASF149:
 3667 0092 68617264 		.ascii	"hardwareGetIoPin\000"
 3667      77617265 
 3667      47657449 
 3667      6F50696E 
 3667      00
 3668              	.LASF124:
 3669 00a3 64756D6D 		.ascii	"dummy\000"
 3669      7900
 3670              	.LASF70:
 3671 00a9 434D4152 		.ascii	"CMAR\000"
 3671      00
 3672              	.LASF133:
 3673 00ae 68617264 		.ascii	"hardwareParseDecimal\000"
 3673      77617265 
 3673      50617273 
 3673      65446563 
 3673      696D616C 
 3674              	.LASF119:
 3675 00c3 6572726F 		.ascii	"error_cb\000"
 3675      725F6362 
 3675      00
 3676              	.LASF155:
 3677 00cc 68617264 		.ascii	"hardware.c\000"
 3677      77617265 
 3677      2E6300
 3678              	.LASF71:
 3679 00d7 444D415F 		.ascii	"DMA_Channel_TypeDef\000"
 3679      4368616E 
 3679      6E656C5F 
 3679      54797065 
 3679      44656600 
 3680              	.LASF154:
 3681 00eb 474E5520 		.ascii	"GNU C 4.8.3 20131129 (release) [ARM/embedded-4_8-br"
 3681      4320342E 
 3681      382E3320 
 3681      32303133 
 3681      31313239 
 3682 011e 616E6368 		.ascii	"anch revision 205641] -mcpu=cortex-m0 -mno-thumb-in"
 3682      20726576 
 3682      6973696F 
 3682      6E203230 
 3682      35363431 
 3683 0151 74657277 		.ascii	"terwork -mthumb -ggdb -O2 -fomit-frame-pointer -fal"
 3683      6F726B20 
 3683      2D6D7468 
 3683      756D6220 
 3683      2D676764 
 3684 0184 69676E2D 		.ascii	"ign-functions=16 -ffunction-sections -fdata-section"
ARM GAS  /var/folders/qh/xwg3v3kj02qbxczjpdb8lzfr0000gn/T//ccSGpg0K.s 			page 67


 3684      66756E63 
 3684      74696F6E 
 3684      733D3136 
 3684      202D6666 
 3685 01b7 73202D66 		.ascii	"s -fno-common\000"
 3685      6E6F2D63 
 3685      6F6D6D6F 
 3685      6E00
 3686              	.LASF57:
 3687 01c5 65776D61 		.ascii	"ewmask\000"
 3687      736B00
 3688              	.LASF137:
 3689 01cc 6D6F6465 		.ascii	"mode\000"
 3689      00
 3690              	.LASF145:
 3691 01d1 68617264 		.ascii	"hardwareCheckCurrentMode\000"
 3691      77617265 
 3691      43686563 
 3691      6B437572 
 3691      72656E74 
 3692              	.LASF56:
 3693 01ea 77746F62 		.ascii	"wtobjp\000"
 3693      6A7000
 3694              	.LASF68:
 3695 01f1 434E4454 		.ascii	"CNDTR\000"
 3695      5200
 3696              	.LASF127:
 3697 01f7 70696E4E 		.ascii	"pinNumber\000"
 3697      756D6265 
 3697      7200
 3698              	.LASF10:
 3699 0201 75696E74 		.ascii	"uint32_t\000"
 3699      33325F74 
 3699      00
 3700              	.LASF115:
 3701 020a 61646365 		.ascii	"adcerrorcallback_t\000"
 3701      72726F72 
 3701      63616C6C 
 3701      6261636B 
 3701      5F7400
 3702              	.LASF128:
 3703 021d 70696E4F 		.ascii	"pinOptions\000"
 3703      7074696F 
 3703      6E7300
 3704              	.LASF22:
 3705 0228 6576656E 		.ascii	"eventmask_t\000"
 3705      746D6173 
 3705      6B5F7400 
 3706              	.LASF73:
 3707 0234 69666372 		.ascii	"ifcr\000"
 3707      00
 3708              	.LASF111:
 3709 0239 6D757465 		.ascii	"mutex\000"
 3709      7800
 3710              	.LASF20:
 3711 023f 74707269 		.ascii	"tprio_t\000"
 3711      6F5F7400 
ARM GAS  /var/folders/qh/xwg3v3kj02qbxczjpdb8lzfr0000gn/T//ccSGpg0K.s 			page 68


 3712              	.LASF136:
 3713 0247 68617264 		.ascii	"hardwareGetAdcLocation\000"
 3713      77617265 
 3713      47657441 
 3713      64634C6F 
 3713      63617469 
 3714              	.LASF118:
 3715 025e 656E645F 		.ascii	"end_cb\000"
 3715      636200
 3716              	.LASF116:
 3717 0265 63697263 		.ascii	"circular\000"
 3717      756C6172 
 3717      00
 3718              	.LASF13:
 3719 026e 6C6F6E67 		.ascii	"long long unsigned int\000"
 3719      206C6F6E 
 3719      6720756E 
 3719      7369676E 
 3719      65642069 
 3720              	.LASF141:
 3721 0285 70696E73 		.ascii	"pinsToBeUsed\000"
 3721      546F4265 
 3721      55736564 
 3721      00
 3722              	.LASF76:
 3723 0292 76656374 		.ascii	"vector\000"
 3723      6F7200
 3724              	.LASF79:
 3725 0299 4D4F4445 		.ascii	"MODER\000"
 3725      5200
 3726              	.LASF86:
 3727 029f 41465248 		.ascii	"AFRH\000"
 3727      00
 3728              	.LASF85:
 3729 02a4 4146524C 		.ascii	"AFRL\000"
 3729      00
 3730              	.LASF65:
 3731 02a9 43485345 		.ascii	"CHSELR\000"
 3731      4C5200
 3732              	.LASF29:
 3733 02b0 705F6E65 		.ascii	"p_newer\000"
 3733      77657200 
 3734              	.LASF78:
 3735 02b8 636C6561 		.ascii	"clear\000"
 3735      7200
 3736              	.LASF69:
 3737 02be 43504152 		.ascii	"CPAR\000"
 3737      00
 3738              	.LASF156:
 3739 02c3 2F557365 		.ascii	"/Users/John/Development/embedded/ChibiOS-RT/BluC/ST"
 3739      72732F4A 
 3739      6F686E2F 
 3739      44657665 
 3739      6C6F706D 
 3740 02f6 4D333246 		.ascii	"M32F051\000"
 3740      30353100 
 3741              	.LASF2:
ARM GAS  /var/folders/qh/xwg3v3kj02qbxczjpdb8lzfr0000gn/T//ccSGpg0K.s 			page 69


 3742 02fe 73697A65 		.ascii	"size_t\000"
 3742      5F7400
 3743              	.LASF54:
 3744 0305 7264796D 		.ascii	"rdymsg\000"
 3744      736700
 3745              	.LASF61:
 3746 030c 534D5052 		.ascii	"SMPR\000"
 3746      00
 3747              	.LASF14:
 3748 0311 626F6F6C 		.ascii	"bool_t\000"
 3748      5F7400
 3749              	.LASF15:
 3750 0318 5F426F6F 		.ascii	"_Bool\000"
 3750      6C00
 3751              	.LASF148:
 3752 031e 68617264 		.ascii	"hardwareGetIoPort\000"
 3752      77617265 
 3752      47657449 
 3752      6F506F72 
 3752      7400
 3753              	.LASF102:
 3754 0330 4144435F 		.ascii	"ADC_ERR_AWD\000"
 3754      4552525F 
 3754      41574400 
 3755              	.LASF147:
 3756 033c 74656D70 		.ascii	"tempCh\000"
 3756      436800
 3757              	.LASF142:
 3758 0343 70696E56 		.ascii	"pinValue\000"
 3758      616C7565 
 3758      00
 3759              	.LASF50:
 3760 034c 4D757465 		.ascii	"Mutex\000"
 3760      7800
 3761              	.LASF101:
 3762 0352 4144435F 		.ascii	"ADC_ERR_OVERFLOW\000"
 3762      4552525F 
 3762      4F564552 
 3762      464C4F57 
 3762      00
 3763              	.LASF112:
 3764 0363 646D6173 		.ascii	"dmastp\000"
 3764      747000
 3765              	.LASF95:
 3766 036a 4144435F 		.ascii	"ADC_COMPLETE\000"
 3766      434F4D50 
 3766      4C455445 
 3766      00
 3767              	.LASF82:
 3768 0377 50555044 		.ascii	"PUPDR\000"
 3768      5200
 3769              	.LASF104:
 3770 037d 41444344 		.ascii	"ADCDriver\000"
 3770      72697665 
 3770      7200
 3771              	.LASF31:
 3772 0387 705F6E61 		.ascii	"p_name\000"
ARM GAS  /var/folders/qh/xwg3v3kj02qbxczjpdb8lzfr0000gn/T//ccSGpg0K.s 			page 70


 3772      6D6500
 3773              	.LASF44:
 3774 038e 54687265 		.ascii	"ThreadsQueue\000"
 3774      61647351 
 3774      75657565 
 3774      00
 3775              	.LASF58:
 3776 039b 63686172 		.ascii	"char\000"
 3776      00
 3777              	.LASF74:
 3778 03a0 69736869 		.ascii	"ishift\000"
 3778      667400
 3779              	.LASF24:
 3780 03a7 54687265 		.ascii	"Thread\000"
 3780      616400
 3781              	.LASF17:
 3782 03ae 74737461 		.ascii	"tstate_t\000"
 3782      74655F74 
 3782      00
 3783              	.LASF153:
 3784 03b7 61646353 		.ascii	"adcSettings\000"
 3784      65747469 
 3784      6E677300 
 3785              	.LASF77:
 3786 03c3 73746D33 		.ascii	"stm32_dma_stream_t\000"
 3786      325F646D 
 3786      615F7374 
 3786      7265616D 
 3786      5F7400
 3787              	.LASF30:
 3788 03d6 705F6F6C 		.ascii	"p_older\000"
 3788      64657200 
 3789              	.LASF32:
 3790 03de 705F7374 		.ascii	"p_state\000"
 3790      61746500 
 3791              	.LASF3:
 3792 03e6 75696E74 		.ascii	"uint8_t\000"
 3792      385F7400 
 3793              	.LASF96:
 3794 03ee 4144435F 		.ascii	"ADC_ERROR\000"
 3794      4552524F 
 3794      5200
 3795              	.LASF43:
 3796 03f8 705F6D70 		.ascii	"p_mpool\000"
 3796      6F6F6C00 
 3797              	.LASF41:
 3798 0400 705F6D74 		.ascii	"p_mtxlist\000"
 3798      786C6973 
 3798      7400
 3799              	.LASF138:
 3800 040a 70696E4C 		.ascii	"pinLocation\000"
 3800      6F636174 
 3800      696F6E00 
 3801              	.LASF140:
 3802 0416 68617264 		.ascii	"hardwareCheckPins\000"
 3802      77617265 
 3802      43686563 
ARM GAS  /var/folders/qh/xwg3v3kj02qbxczjpdb8lzfr0000gn/T//ccSGpg0K.s 			page 71


 3802      6B50696E 
 3802      7300
 3803              	.LASF135:
 3804 0428 70696E54 		.ascii	"pinToBeUsed\000"
 3804      6F426555 
 3804      73656400 
 3805              	.LASF107:
 3806 0434 73616D70 		.ascii	"samples\000"
 3806      6C657300 
 3807              	.LASF12:
 3808 043c 6C6F6E67 		.ascii	"long long int\000"
 3808      206C6F6E 
 3808      6720696E 
 3808      7400
 3809              	.LASF121:
 3810 044a 736D7072 		.ascii	"smpr\000"
 3810      00
 3811              	.LASF108:
 3812 044f 64657074 		.ascii	"depth\000"
 3812      6800
 3813              	.LASF21:
 3814 0455 6D73675F 		.ascii	"msg_t\000"
 3814      7400
 3815              	.LASF48:
 3816 045b 636F6E74 		.ascii	"context\000"
 3816      65787400 
 3817              	.LASF143:
 3818 0463 68617264 		.ascii	"hardwareSetupPins\000"
 3818      77617265 
 3818      53657475 
 3818      7050696E 
 3818      7300
 3819              	.LASF125:
 3820 0475 41444343 		.ascii	"ADCConfig\000"
 3820      6F6E6669 
 3820      6700
 3821              	.LASF114:
 3822 047f 61646363 		.ascii	"adccallback_t\000"
 3822      616C6C62 
 3822      61636B5F 
 3822      7400
 3823              	.LASF33:
 3824 048d 705F666C 		.ascii	"p_flags\000"
 3824      61677300 
 3825              	.LASF88:
 3826 0495 696F706F 		.ascii	"ioportmask_t\000"
 3826      72746D61 
 3826      736B5F74 
 3826      00
 3827              	.LASF157:
 3828 04a2 68617264 		.ascii	"hardwareInitialise\000"
 3828      77617265 
 3828      496E6974 
 3828      69616C69 
 3828      736500
 3829              	.LASF150:
 3830 04b5 68617264 		.ascii	"hardwareReadPins\000"
ARM GAS  /var/folders/qh/xwg3v3kj02qbxczjpdb8lzfr0000gn/T//ccSGpg0K.s 			page 72


 3830      77617265 
 3830      52656164 
 3830      50696E73 
 3830      00
 3831              	.LASF19:
 3832 04c6 74736C69 		.ascii	"tslices_t\000"
 3832      6365735F 
 3832      7400
 3833              	.LASF59:
 3834 04d0 43464752 		.ascii	"CFGR1\000"
 3834      3100
 3835              	.LASF60:
 3836 04d6 43464752 		.ascii	"CFGR2\000"
 3836      3200
 3837              	.LASF39:
 3838 04dc 705F6D73 		.ascii	"p_msg\000"
 3838      6700
 3839              	.LASF16:
 3840 04e2 746D6F64 		.ascii	"tmode_t\000"
 3840      655F7400 
 3841              	.LASF98:
 3842 04ea 61646373 		.ascii	"adcsample_t\000"
 3842      616D706C 
 3842      655F7400 
 3843              	.LASF81:
 3844 04f6 4F535045 		.ascii	"OSPEEDR\000"
 3844      45445200 
 3845              	.LASF134:
 3846 04fe 68617264 		.ascii	"hardwarePinParse\000"
 3846      77617265 
 3846      50696E50 
 3846      61727365 
 3846      00
 3847              	.LASF6:
 3848 050f 75696E74 		.ascii	"uint16_t\000"
 3848      31365F74 
 3848      00
 3849              	.LASF47:
 3850 0518 696E7463 		.ascii	"intctx\000"
 3850      747800
 3851              	.LASF72:
 3852 051f 6368616E 		.ascii	"channel\000"
 3852      6E656C00 
 3853              	.LASF94:
 3854 0527 4144435F 		.ascii	"ADC_ACTIVE\000"
 3854      41435449 
 3854      564500
 3855              	.LASF106:
 3856 0532 636F6E66 		.ascii	"config\000"
 3856      696700
 3857              	.LASF42:
 3858 0539 705F7265 		.ascii	"p_realprio\000"
 3858      616C7072 
 3858      696F00
 3859              	.LASF62:
 3860 0544 52455345 		.ascii	"RESERVED1\000"
 3860      52564544 
ARM GAS  /var/folders/qh/xwg3v3kj02qbxczjpdb8lzfr0000gn/T//ccSGpg0K.s 			page 73


 3860      3100
 3861              	.LASF63:
 3862 054e 52455345 		.ascii	"RESERVED2\000"
 3862      52564544 
 3862      3200
 3863              	.LASF64:
 3864 0558 52455345 		.ascii	"RESERVED3\000"
 3864      52564544 
 3864      3300
 3865              	.LASF66:
 3866 0562 52455345 		.ascii	"RESERVED4\000"
 3866      52564544 
 3866      3400
 3867              	.LASF5:
 3868 056c 73686F72 		.ascii	"short int\000"
 3868      7420696E 
 3868      7400
 3869              	.LASF99:
 3870 0576 6164635F 		.ascii	"adc_channels_num_t\000"
 3870      6368616E 
 3870      6E656C73 
 3870      5F6E756D 
 3870      5F7400
 3871              	.LASF120:
 3872 0589 63666772 		.ascii	"cfgr1\000"
 3872      3100
 3873              	.LASF40:
 3874 058f 705F6570 		.ascii	"p_epending\000"
 3874      656E6469 
 3874      6E6700
 3875              	.LASF51:
 3876 059a 6D5F7175 		.ascii	"m_queue\000"
 3876      65756500 
 3877              	.LASF9:
 3878 05a2 6C6F6E67 		.ascii	"long int\000"
 3878      20696E74 
 3878      00
 3879              	.LASF123:
 3880 05ab 41444343 		.ascii	"ADCConversionGroup\000"
 3880      6F6E7665 
 3880      7273696F 
 3880      6E47726F 
 3880      757000
 3881              	.LASF117:
 3882 05be 6E756D5F 		.ascii	"num_channels\000"
 3882      6368616E 
 3882      6E656C73 
 3882      00
 3883              	.LASF132:
 3884 05cb 70696E53 		.ascii	"pinSetting\000"
 3884      65747469 
 3884      6E6700
 3885              	.LASF151:
 3886 05d6 70696E4C 		.ascii	"pinLoc\000"
 3886      6F6300
 3887              	.LASF80:
 3888 05dd 4F545950 		.ascii	"OTYPER\000"
ARM GAS  /var/folders/qh/xwg3v3kj02qbxczjpdb8lzfr0000gn/T//ccSGpg0K.s 			page 74


 3888      455200
 3889              	.LASF25:
 3890 05e4 705F6E65 		.ascii	"p_next\000"
 3890      787400
 3891              	.LASF28:
 3892 05eb 705F6374 		.ascii	"p_ctx\000"
 3892      7800
 3893              	.LASF144:
 3894 05f1 70696E53 		.ascii	"pinSetSuccess\000"
 3894      65745375 
 3894      63636573 
 3894      7300
 3895              	.LASF139:
 3896 05ff 68617264 		.ascii	"hardwareSetupPin\000"
 3896      77617265 
 3896      53657475 
 3896      7050696E 
 3896      00
 3897              	.LASF90:
 3898 0610 696F706F 		.ascii	"ioportid_t\000"
 3898      72746964 
 3898      5F7400
 3899              	.LASF91:
 3900 061b 4144435F 		.ascii	"ADC_UNINIT\000"
 3900      554E494E 
 3900      495400
 3901              	.LASF87:
 3902 0626 4750494F 		.ascii	"GPIO_TypeDef\000"
 3902      5F547970 
 3902      65446566 
 3902      00
 3903              	.LASF100:
 3904 0633 4144435F 		.ascii	"ADC_ERR_DMAFAILURE\000"
 3904      4552525F 
 3904      444D4146 
 3904      41494C55 
 3904      524500
 3905              	.LASF26:
 3906 0646 705F7072 		.ascii	"p_prev\000"
 3906      657600
 3907              	.LASF49:
 3908 064d 73697A65 		.ascii	"sizetype\000"
 3908      74797065 
 3908      00
 3909              	.LASF18:
 3910 0656 74726566 		.ascii	"trefs_t\000"
 3910      735F7400 
 3911              	.LASF11:
 3912 065e 6C6F6E67 		.ascii	"long unsigned int\000"
 3912      20756E73 
 3912      69676E65 
 3912      6420696E 
 3912      7400
 3913              	.LASF93:
 3914 0670 4144435F 		.ascii	"ADC_READY\000"
 3914      52454144 
 3914      5900
ARM GAS  /var/folders/qh/xwg3v3kj02qbxczjpdb8lzfr0000gn/T//ccSGpg0K.s 			page 75


 3915              	.LASF122:
 3916 067a 63687365 		.ascii	"chselr\000"
 3916      6C7200
 3917              	.LASF97:
 3918 0681 61646373 		.ascii	"adcstate_t\000"
 3918      74617465 
 3918      5F7400
 3919              	.LASF8:
 3920 068c 696E7433 		.ascii	"int32_t\000"
 3920      325F7400 
 3921              	.LASF110:
 3922 0694 74687265 		.ascii	"thread\000"
 3922      616400
 3923              	.LASF4:
 3924 069b 756E7369 		.ascii	"unsigned char\000"
 3924      676E6564 
 3924      20636861 
 3924      7200
 3925              	.LASF34:
 3926 06a9 705F7265 		.ascii	"p_refs\000"
 3926      667300
 3927              	.LASF130:
 3928 06b0 70696E54 		.ascii	"pinTimerAddress\000"
 3928      696D6572 
 3928      41646472 
 3928      65737300 
 3929              	.LASF35:
 3930 06c0 705F7072 		.ascii	"p_preempt\000"
 3930      65656D70 
 3930      7400
 3931              	.LASF105:
 3932 06ca 73746174 		.ascii	"state\000"
 3932      6500
 3933              	.LASF67:
 3934 06d0 4144435F 		.ascii	"ADC_TypeDef\000"
 3934      54797065 
 3934      44656600 
 3935              	.LASF158:
 3936 06dc 5F70616C 		.ascii	"_pal_lld_setgroupmode\000"
 3936      5F6C6C64 
 3936      5F736574 
 3936      67726F75 
 3936      706D6F64 
 3937              	.LASF89:
 3938 06f2 696F6D6F 		.ascii	"iomode_t\000"
 3938      64655F74 
 3938      00
 3939              	.LASF53:
 3940 06fb 6D5F6E65 		.ascii	"m_next\000"
 3940      787400
 3941              	.LASF1:
 3942 0702 7369676E 		.ascii	"signed char\000"
 3942      65642063 
 3942      68617200 
 3943              	.LASF7:
 3944 070e 73686F72 		.ascii	"short unsigned int\000"
 3944      7420756E 
ARM GAS  /var/folders/qh/xwg3v3kj02qbxczjpdb8lzfr0000gn/T//ccSGpg0K.s 			page 76


 3944      7369676E 
 3944      65642069 
 3944      6E7400
 3945              	.LASF126:
 3946 0721 70696E50 		.ascii	"pinPort\000"
 3946      6F727400 
 3947              	.LASF146:
 3948 0729 68617264 		.ascii	"hardwareSetAdcChannels\000"
 3948      77617265 
 3948      53657441 
 3948      64634368 
 3948      616E6E65 
 3949              	.LASF109:
 3950 0740 67727070 		.ascii	"grpp\000"
 3950      00
 3951              	.LASF92:
 3952 0745 4144435F 		.ascii	"ADC_STOP\000"
 3952      53544F50 
 3952      00
 3953              	.LASF55:
 3954 074e 65786974 		.ascii	"exitcode\000"
 3954      636F6465 
 3954      00
 3955              	.LASF75:
 3956 0757 73656C66 		.ascii	"selfindex\000"
 3956      696E6465 
 3956      7800
 3957              	.LASF84:
 3958 0761 4C434B52 		.ascii	"LCKR\000"
 3958      00
 3959              		.ident	"GCC: (GNU Tools for ARM Embedded Processors) 4.8.3 20131129 (release) [ARM/embedded-4_8-br
ARM GAS  /var/folders/qh/xwg3v3kj02qbxczjpdb8lzfr0000gn/T//ccSGpg0K.s 			page 77


DEFINED SYMBOLS
                            *ABS*:0000000000000000 hardware.c
/var/folders/qh/xwg3v3kj02qbxczjpdb8lzfr0000gn/T//ccSGpg0K.s:18     .text.hardwareInitialise:0000000000000000 $t
/var/folders/qh/xwg3v3kj02qbxczjpdb8lzfr0000gn/T//ccSGpg0K.s:24     .text.hardwareInitialise:0000000000000000 hardwareInitialise
/var/folders/qh/xwg3v3kj02qbxczjpdb8lzfr0000gn/T//ccSGpg0K.s:183    .text.hardwareInitialise:00000000000000a4 $d
/var/folders/qh/xwg3v3kj02qbxczjpdb8lzfr0000gn/T//ccSGpg0K.s:188    .text.hardwareSetupPin:0000000000000000 $t
/var/folders/qh/xwg3v3kj02qbxczjpdb8lzfr0000gn/T//ccSGpg0K.s:194    .text.hardwareSetupPin:0000000000000000 hardwareSetupPin
/var/folders/qh/xwg3v3kj02qbxczjpdb8lzfr0000gn/T//ccSGpg0K.s:348    .text.hardwareSetupPin:00000000000000c0 $d
/var/folders/qh/xwg3v3kj02qbxczjpdb8lzfr0000gn/T//ccSGpg0K.s:354    .text.hardwareCheckPins:0000000000000000 $t
/var/folders/qh/xwg3v3kj02qbxczjpdb8lzfr0000gn/T//ccSGpg0K.s:360    .text.hardwareCheckPins:0000000000000000 hardwareCheckPins
/var/folders/qh/xwg3v3kj02qbxczjpdb8lzfr0000gn/T//ccSGpg0K.s:435    .text.hardwareCheckPins:000000000000004c $d
/var/folders/qh/xwg3v3kj02qbxczjpdb8lzfr0000gn/T//ccSGpg0K.s:442    .text.hardwareSetupPins:0000000000000000 $t
/var/folders/qh/xwg3v3kj02qbxczjpdb8lzfr0000gn/T//ccSGpg0K.s:448    .text.hardwareSetupPins:0000000000000000 hardwareSetupPins
/var/folders/qh/xwg3v3kj02qbxczjpdb8lzfr0000gn/T//ccSGpg0K.s:500    .text.hardwareCheckCurrentMode:0000000000000000 $t
/var/folders/qh/xwg3v3kj02qbxczjpdb8lzfr0000gn/T//ccSGpg0K.s:506    .text.hardwareCheckCurrentMode:0000000000000000 hardwareCheckCurrentMode
/var/folders/qh/xwg3v3kj02qbxczjpdb8lzfr0000gn/T//ccSGpg0K.s:540    .text.hardwareCheckCurrentMode:0000000000000024 $d
/var/folders/qh/xwg3v3kj02qbxczjpdb8lzfr0000gn/T//ccSGpg0K.s:546    .text.hardwarePinParse:0000000000000000 $t
/var/folders/qh/xwg3v3kj02qbxczjpdb8lzfr0000gn/T//ccSGpg0K.s:552    .text.hardwarePinParse:0000000000000000 hardwarePinParse
/var/folders/qh/xwg3v3kj02qbxczjpdb8lzfr0000gn/T//ccSGpg0K.s:581    .text.hardwarePinParse:0000000000000018 $d
/var/folders/qh/xwg3v3kj02qbxczjpdb8lzfr0000gn/T//ccSGpg0K.s:586    .text.hardwareGetAdcLocation:0000000000000000 $t
/var/folders/qh/xwg3v3kj02qbxczjpdb8lzfr0000gn/T//ccSGpg0K.s:592    .text.hardwareGetAdcLocation:0000000000000000 hardwareGetAdcLocation
/var/folders/qh/xwg3v3kj02qbxczjpdb8lzfr0000gn/T//ccSGpg0K.s:628    .text.hardwareGetAdcLocation:0000000000000020 $d
/var/folders/qh/xwg3v3kj02qbxczjpdb8lzfr0000gn/T//ccSGpg0K.s:634    .text.hardwareSetAdcChannels:0000000000000000 $t
/var/folders/qh/xwg3v3kj02qbxczjpdb8lzfr0000gn/T//ccSGpg0K.s:640    .text.hardwareSetAdcChannels:0000000000000000 hardwareSetAdcChannels
/var/folders/qh/xwg3v3kj02qbxczjpdb8lzfr0000gn/T//ccSGpg0K.s:707    .text.hardwareSetAdcChannels:0000000000000038 $d
/var/folders/qh/xwg3v3kj02qbxczjpdb8lzfr0000gn/T//ccSGpg0K.s:714    .text.hardwareGetIoPort:0000000000000000 $t
/var/folders/qh/xwg3v3kj02qbxczjpdb8lzfr0000gn/T//ccSGpg0K.s:720    .text.hardwareGetIoPort:0000000000000000 hardwareGetIoPort
/var/folders/qh/xwg3v3kj02qbxczjpdb8lzfr0000gn/T//ccSGpg0K.s:755    .text.hardwareGetIoPort:0000000000000020 $d
/var/folders/qh/xwg3v3kj02qbxczjpdb8lzfr0000gn/T//ccSGpg0K.s:761    .text.hardwareGetIoPin:0000000000000000 $t
/var/folders/qh/xwg3v3kj02qbxczjpdb8lzfr0000gn/T//ccSGpg0K.s:767    .text.hardwareGetIoPin:0000000000000000 hardwareGetIoPin
/var/folders/qh/xwg3v3kj02qbxczjpdb8lzfr0000gn/T//ccSGpg0K.s:803    .text.hardwareGetIoPin:0000000000000020 $d
/var/folders/qh/xwg3v3kj02qbxczjpdb8lzfr0000gn/T//ccSGpg0K.s:809    .text.hardwareParseDecimal:0000000000000000 $t
/var/folders/qh/xwg3v3kj02qbxczjpdb8lzfr0000gn/T//ccSGpg0K.s:815    .text.hardwareParseDecimal:0000000000000000 hardwareParseDecimal
/var/folders/qh/xwg3v3kj02qbxczjpdb8lzfr0000gn/T//ccSGpg0K.s:838    .text.hardwareParseDecimal:0000000000000014 $d
/var/folders/qh/xwg3v3kj02qbxczjpdb8lzfr0000gn/T//ccSGpg0K.s:843    .text.hardwareReadPins:0000000000000000 $t
/var/folders/qh/xwg3v3kj02qbxczjpdb8lzfr0000gn/T//ccSGpg0K.s:849    .text.hardwareReadPins:0000000000000000 hardwareReadPins
/var/folders/qh/xwg3v3kj02qbxczjpdb8lzfr0000gn/T//ccSGpg0K.s:881    .bss.hwPin:0000000000000000 hwPin
/var/folders/qh/xwg3v3kj02qbxczjpdb8lzfr0000gn/T//ccSGpg0K.s:863    .rodata.CSWTCH.6:0000000000000000 $d
/var/folders/qh/xwg3v3kj02qbxczjpdb8lzfr0000gn/T//ccSGpg0K.s:867    .rodata.CSWTCH.6:0000000000000000 CSWTCH.6
/var/folders/qh/xwg3v3kj02qbxczjpdb8lzfr0000gn/T//ccSGpg0K.s:877    .bss.hwPin:0000000000000000 $d
                     .debug_frame:0000000000000010 $d
/var/folders/qh/xwg3v3kj02qbxczjpdb8lzfr0000gn/T//ccSGpg0K.s:187    .text.hardwareInitialise:00000000000000a8 $t
/var/folders/qh/xwg3v3kj02qbxczjpdb8lzfr0000gn/T//ccSGpg0K.s:353    .text.hardwareSetupPin:00000000000000c8 $t
/var/folders/qh/xwg3v3kj02qbxczjpdb8lzfr0000gn/T//ccSGpg0K.s:441    .text.hardwareCheckPins:0000000000000054 $t
/var/folders/qh/xwg3v3kj02qbxczjpdb8lzfr0000gn/T//ccSGpg0K.s:545    .text.hardwareCheckCurrentMode:000000000000002c $t
/var/folders/qh/xwg3v3kj02qbxczjpdb8lzfr0000gn/T//ccSGpg0K.s:585    .text.hardwarePinParse:000000000000001c $t
/var/folders/qh/xwg3v3kj02qbxczjpdb8lzfr0000gn/T//ccSGpg0K.s:633    .text.hardwareGetAdcLocation:0000000000000028 $t
/var/folders/qh/xwg3v3kj02qbxczjpdb8lzfr0000gn/T//ccSGpg0K.s:713    .text.hardwareSetAdcChannels:0000000000000044 $t
/var/folders/qh/xwg3v3kj02qbxczjpdb8lzfr0000gn/T//ccSGpg0K.s:760    .text.hardwareGetIoPort:0000000000000028 $t
/var/folders/qh/xwg3v3kj02qbxczjpdb8lzfr0000gn/T//ccSGpg0K.s:808    .text.hardwareGetIoPin:0000000000000028 $t
/var/folders/qh/xwg3v3kj02qbxczjpdb8lzfr0000gn/T//ccSGpg0K.s:842    .text.hardwareParseDecimal:0000000000000018 $t

UNDEFINED SYMBOLS
_pal_lld_setgroupmode
adcSettings
