ARM GAS  /var/folders/qh/xwg3v3kj02qbxczjpdb8lzfr0000gn/T//ccSbQd4l.s 			page 1


   1              		.cpu cortex-m0
   2              		.fpu softvfp
   3              		.eabi_attribute 20, 1
   4              		.eabi_attribute 21, 1
   5              		.eabi_attribute 23, 3
   6              		.eabi_attribute 24, 1
   7              		.eabi_attribute 25, 1
   8              		.eabi_attribute 26, 1
   9              		.eabi_attribute 30, 2
  10              		.eabi_attribute 34, 0
  11              		.eabi_attribute 18, 4
  12              		.code	16
  13              		.file	"i2c.c"
  14              		.text
  15              	.Ltext0:
  16              		.cfi_sections	.debug_frame
  17              		.section	.text.i2cInit,"ax",%progbits
  18              		.align	2
  19              		.p2align 4,,15
  20              		.global	i2cInit
  21              		.code	16
  22              		.thumb_func
  23              		.type	i2cInit, %function
  24              	i2cInit:
  25              	.LFB40:
  26              		.file 1 "../../os/hal/src/i2c.c"
  27              		.loc 1 64 0
  28              		.cfi_startproc
  29 0000 08B5     		push	{r3, lr}
  30              		.cfi_def_cfa_offset 8
  31              		.cfi_offset 3, -8
  32              		.cfi_offset 14, -4
  33              		.loc 1 65 0
  34 0002 FFF7FEFF 		bl	i2c_lld_init
  35              	.LVL0:
  36              		.loc 1 66 0
  37              		@ sp needed
  38 0006 08BD     		pop	{r3, pc}
  39              		.cfi_endproc
  40              	.LFE40:
  41              		.size	i2cInit, .-i2cInit
  42 0008 C046C046 		.section	.text.i2cObjectInit,"ax",%progbits
  42      C046C046 
  43              		.align	2
  44              		.p2align 4,,15
  45              		.global	i2cObjectInit
  46              		.code	16
  47              		.thumb_func
  48              		.type	i2cObjectInit, %function
  49              	i2cObjectInit:
  50              	.LFB41:
  51              		.loc 1 75 0
  52              		.cfi_startproc
  53              	.LVL1:
  54 0000 08B5     		push	{r3, lr}
  55              		.cfi_def_cfa_offset 8
  56              		.cfi_offset 3, -8
ARM GAS  /var/folders/qh/xwg3v3kj02qbxczjpdb8lzfr0000gn/T//ccSbQd4l.s 			page 2


  57              		.cfi_offset 14, -4
  58              		.loc 1 77 0
  59 0002 0123     		mov	r3, #1
  60 0004 0370     		strb	r3, [r0]
  61              		.loc 1 78 0
  62 0006 0023     		mov	r3, #0
  63 0008 4360     		str	r3, [r0, #4]
  64              		.loc 1 82 0
  65 000a 0C30     		add	r0, r0, #12
  66              	.LVL2:
  67 000c FFF7FEFF 		bl	chMtxInit
  68              	.LVL3:
  69              		.loc 1 91 0
  70              		@ sp needed
  71 0010 08BD     		pop	{r3, pc}
  72              		.cfi_endproc
  73              	.LFE41:
  74              		.size	i2cObjectInit, .-i2cObjectInit
  75 0012 C046C046 		.section	.text.i2cStart,"ax",%progbits
  75      C046C046 
  75      C046C046 
  75      C046
  76              		.align	2
  77              		.p2align 4,,15
  78              		.global	i2cStart
  79              		.code	16
  80              		.thumb_func
  81              		.type	i2cStart, %function
  82              	i2cStart:
  83              	.LFB42:
  84              		.loc 1 101 0
  85              		.cfi_startproc
  86              	.LVL4:
  87 0000 38B5     		push	{r3, r4, r5, lr}
  88              		.cfi_def_cfa_offset 16
  89              		.cfi_offset 3, -16
  90              		.cfi_offset 4, -12
  91              		.cfi_offset 5, -8
  92              		.cfi_offset 14, -4
  93              		.loc 1 101 0
  94 0002 041C     		mov	r4, r0
  95 0004 0D1C     		mov	r5, r1
  96              		.loc 1 109 0
  97              	@ 109 "../../os/hal/src/i2c.c" 1
  98 0006 72B6     		cpsid   i
  99              	@ 0 "" 2
 100              		.code	16
 101 0008 FFF7FEFF 		bl	dbg_check_lock
 102              	.LVL5:
 103              		.loc 1 111 0
 104 000c 201C     		mov	r0, r4
 105              		.loc 1 110 0
 106 000e 6560     		str	r5, [r4, #4]
 107              		.loc 1 111 0
 108 0010 FFF7FEFF 		bl	i2c_lld_start
 109              	.LVL6:
 110              		.loc 1 112 0
ARM GAS  /var/folders/qh/xwg3v3kj02qbxczjpdb8lzfr0000gn/T//ccSbQd4l.s 			page 3


 111 0014 0223     		mov	r3, #2
 112 0016 2370     		strb	r3, [r4]
 113              		.loc 1 113 0
 114 0018 FFF7FEFF 		bl	dbg_check_unlock
 115              	.LVL7:
 116              	@ 113 "../../os/hal/src/i2c.c" 1
 117 001c 62B6     		cpsie   i
 118              	@ 0 "" 2
 119              		.loc 1 114 0
 120              		.code	16
 121              		@ sp needed
 122              	.LVL8:
 123              	.LVL9:
 124 001e 38BD     		pop	{r3, r4, r5, pc}
 125              		.cfi_endproc
 126              	.LFE42:
 127              		.size	i2cStart, .-i2cStart
 128              		.section	.text.i2cStop,"ax",%progbits
 129              		.align	2
 130              		.p2align 4,,15
 131              		.global	i2cStop
 132              		.code	16
 133              		.thumb_func
 134              		.type	i2cStop, %function
 135              	i2cStop:
 136              	.LFB43:
 137              		.loc 1 123 0
 138              		.cfi_startproc
 139              	.LVL10:
 140 0000 10B5     		push	{r4, lr}
 141              		.cfi_def_cfa_offset 8
 142              		.cfi_offset 4, -8
 143              		.cfi_offset 14, -4
 144              		.loc 1 123 0
 145 0002 041C     		mov	r4, r0
 146              		.loc 1 131 0
 147              	@ 131 "../../os/hal/src/i2c.c" 1
 148 0004 72B6     		cpsid   i
 149              	@ 0 "" 2
 150              		.code	16
 151 0006 FFF7FEFF 		bl	dbg_check_lock
 152              	.LVL11:
 153              		.loc 1 132 0
 154 000a 201C     		mov	r0, r4
 155 000c FFF7FEFF 		bl	i2c_lld_stop
 156              	.LVL12:
 157              		.loc 1 133 0
 158 0010 0123     		mov	r3, #1
 159 0012 2370     		strb	r3, [r4]
 160              		.loc 1 134 0
 161 0014 FFF7FEFF 		bl	dbg_check_unlock
 162              	.LVL13:
 163              	@ 134 "../../os/hal/src/i2c.c" 1
 164 0018 62B6     		cpsie   i
 165              	@ 0 "" 2
 166              		.loc 1 135 0
 167              		.code	16
ARM GAS  /var/folders/qh/xwg3v3kj02qbxczjpdb8lzfr0000gn/T//ccSbQd4l.s 			page 4


 168              		@ sp needed
 169              	.LVL14:
 170 001a 10BD     		pop	{r4, pc}
 171              		.cfi_endproc
 172              	.LFE43:
 173              		.size	i2cStop, .-i2cStop
 174 001c C046C046 		.section	.text.i2cGetErrors,"ax",%progbits
 175              		.align	2
 176              		.p2align 4,,15
 177              		.global	i2cGetErrors
 178              		.code	16
 179              		.thumb_func
 180              		.type	i2cGetErrors, %function
 181              	i2cGetErrors:
 182              	.LFB44:
 183              		.loc 1 145 0
 184              		.cfi_startproc
 185              	.LVL15:
 186              		.loc 1 149 0
 187 0000 8068     		ldr	r0, [r0, #8]
 188              	.LVL16:
 189              		.loc 1 150 0
 190              		@ sp needed
 191 0002 7047     		bx	lr
 192              		.cfi_endproc
 193              	.LFE44:
 194              		.size	i2cGetErrors, .-i2cGetErrors
 195 0004 C046C046 		.section	.text.i2cMasterTransmitTimeout,"ax",%progbits
 195      C046C046 
 195      C046C046 
 196              		.align	2
 197              		.p2align 4,,15
 198              		.global	i2cMasterTransmitTimeout
 199              		.code	16
 200              		.thumb_func
 201              		.type	i2cMasterTransmitTimeout, %function
 202              	i2cMasterTransmitTimeout:
 203              	.LFB45:
 204              		.loc 1 184 0
 205              		.cfi_startproc
 206              	.LVL17:
 207 0000 F0B5     		push	{r4, r5, r6, r7, lr}
 208              		.cfi_def_cfa_offset 20
 209              		.cfi_offset 4, -20
 210              		.cfi_offset 5, -16
 211              		.cfi_offset 6, -12
 212              		.cfi_offset 7, -8
 213              		.cfi_offset 14, -4
 214 0002 041C     		mov	r4, r0
 215 0004 85B0     		sub	sp, sp, #20
 216              		.cfi_def_cfa_offset 40
 217              		.loc 1 184 0
 218 0006 0F1C     		mov	r7, r1
 219 0008 161C     		mov	r6, r2
 220 000a 1D1C     		mov	r5, r3
 221              		.loc 1 196 0
 222              	@ 196 "../../os/hal/src/i2c.c" 1
ARM GAS  /var/folders/qh/xwg3v3kj02qbxczjpdb8lzfr0000gn/T//ccSbQd4l.s 			page 5


 223 000c 72B6     		cpsid   i
 224              	@ 0 "" 2
 225              		.code	16
 226 000e FFF7FEFF 		bl	dbg_check_lock
 227              	.LVL18:
 228              		.loc 1 197 0
 229 0012 0023     		mov	r3, #0
 230 0014 A360     		str	r3, [r4, #8]
 231              		.loc 1 198 0
 232 0016 0323     		mov	r3, #3
 233 0018 2370     		strb	r3, [r4]
 234              		.loc 1 199 0
 235 001a 0A9B     		ldr	r3, [sp, #40]
 236 001c 201C     		mov	r0, r4
 237 001e 0093     		str	r3, [sp]
 238 0020 0B9B     		ldr	r3, [sp, #44]
 239 0022 391C     		mov	r1, r7
 240 0024 0193     		str	r3, [sp, #4]
 241 0026 0C9B     		ldr	r3, [sp, #48]
 242 0028 321C     		mov	r2, r6
 243 002a 0293     		str	r3, [sp, #8]
 244 002c 2B1C     		mov	r3, r5
 245 002e FFF7FEFF 		bl	i2c_lld_master_transmit_timeout
 246              	.LVL19:
 247 0032 051C     		mov	r5, r0
 248              	.LVL20:
 249              		.loc 1 201 0
 250 0034 431C     		add	r3, r0, #1
 251 0036 07D0     		beq	.L10
 252              		.loc 1 204 0
 253 0038 0223     		mov	r3, #2
 254 003a 2370     		strb	r3, [r4]
 255              	.L8:
 256              		.loc 1 205 0
 257 003c FFF7FEFF 		bl	dbg_check_unlock
 258              	.LVL21:
 259              	@ 205 "../../os/hal/src/i2c.c" 1
 260 0040 62B6     		cpsie   i
 261              	@ 0 "" 2
 262              		.loc 1 207 0
 263              		.code	16
 264 0042 281C     		mov	r0, r5
 265 0044 05B0     		add	sp, sp, #20
 266              		@ sp needed
 267              	.LVL22:
 268              	.LVL23:
 269              	.LVL24:
 270 0046 F0BD     		pop	{r4, r5, r6, r7, pc}
 271              	.LVL25:
 272              	.L10:
 273              		.loc 1 202 0
 274 0048 0523     		mov	r3, #5
 275 004a 2370     		strb	r3, [r4]
 276 004c F6E7     		b	.L8
 277              		.cfi_endproc
 278              	.LFE45:
 279              		.size	i2cMasterTransmitTimeout, .-i2cMasterTransmitTimeout
ARM GAS  /var/folders/qh/xwg3v3kj02qbxczjpdb8lzfr0000gn/T//ccSbQd4l.s 			page 6


 280 004e C046     		.section	.text.i2cMasterReceiveTimeout,"ax",%progbits
 281              		.align	2
 282              		.p2align 4,,15
 283              		.global	i2cMasterReceiveTimeout
 284              		.code	16
 285              		.thumb_func
 286              		.type	i2cMasterReceiveTimeout, %function
 287              	i2cMasterReceiveTimeout:
 288              	.LFB46:
 289              		.loc 1 233 0
 290              		.cfi_startproc
 291              	.LVL26:
 292 0000 F0B5     		push	{r4, r5, r6, r7, lr}
 293              		.cfi_def_cfa_offset 20
 294              		.cfi_offset 4, -20
 295              		.cfi_offset 5, -16
 296              		.cfi_offset 6, -12
 297              		.cfi_offset 7, -8
 298              		.cfi_offset 14, -4
 299 0002 041C     		mov	r4, r0
 300 0004 83B0     		sub	sp, sp, #12
 301              		.cfi_def_cfa_offset 32
 302              		.loc 1 233 0
 303 0006 0F1C     		mov	r7, r1
 304 0008 161C     		mov	r6, r2
 305 000a 1D1C     		mov	r5, r3
 306              		.loc 1 245 0
 307              	@ 245 "../../os/hal/src/i2c.c" 1
 308 000c 72B6     		cpsid   i
 309              	@ 0 "" 2
 310              		.code	16
 311 000e FFF7FEFF 		bl	dbg_check_lock
 312              	.LVL27:
 313              		.loc 1 246 0
 314 0012 0023     		mov	r3, #0
 315 0014 A360     		str	r3, [r4, #8]
 316              		.loc 1 247 0
 317 0016 0423     		mov	r3, #4
 318 0018 2370     		strb	r3, [r4]
 319              		.loc 1 248 0
 320 001a 089B     		ldr	r3, [sp, #32]
 321 001c 201C     		mov	r0, r4
 322 001e 0093     		str	r3, [sp]
 323 0020 391C     		mov	r1, r7
 324 0022 2B1C     		mov	r3, r5
 325 0024 321C     		mov	r2, r6
 326 0026 FFF7FEFF 		bl	i2c_lld_master_receive_timeout
 327              	.LVL28:
 328 002a 051C     		mov	r5, r0
 329              	.LVL29:
 330              		.loc 1 249 0
 331 002c 431C     		add	r3, r0, #1
 332 002e 07D0     		beq	.L14
 333              		.loc 1 252 0
 334 0030 0223     		mov	r3, #2
 335 0032 2370     		strb	r3, [r4]
 336              	.L13:
ARM GAS  /var/folders/qh/xwg3v3kj02qbxczjpdb8lzfr0000gn/T//ccSbQd4l.s 			page 7


 337              		.loc 1 253 0
 338 0034 FFF7FEFF 		bl	dbg_check_unlock
 339              	.LVL30:
 340              	@ 253 "../../os/hal/src/i2c.c" 1
 341 0038 62B6     		cpsie   i
 342              	@ 0 "" 2
 343              		.loc 1 255 0
 344              		.code	16
 345 003a 281C     		mov	r0, r5
 346 003c 03B0     		add	sp, sp, #12
 347              		@ sp needed
 348              	.LVL31:
 349              	.LVL32:
 350              	.LVL33:
 351 003e F0BD     		pop	{r4, r5, r6, r7, pc}
 352              	.LVL34:
 353              	.L14:
 354              		.loc 1 250 0
 355 0040 0523     		mov	r3, #5
 356 0042 2370     		strb	r3, [r4]
 357 0044 F6E7     		b	.L13
 358              		.cfi_endproc
 359              	.LFE46:
 360              		.size	i2cMasterReceiveTimeout, .-i2cMasterReceiveTimeout
 361 0046 C046C046 		.section	.text.i2cAcquireBus,"ax",%progbits
 361      C046C046 
 361      C046
 362              		.align	2
 363              		.p2align 4,,15
 364              		.global	i2cAcquireBus
 365              		.code	16
 366              		.thumb_func
 367              		.type	i2cAcquireBus, %function
 368              	i2cAcquireBus:
 369              	.LFB47:
 370              		.loc 1 269 0
 371              		.cfi_startproc
 372              	.LVL35:
 373 0000 08B5     		push	{r3, lr}
 374              		.cfi_def_cfa_offset 8
 375              		.cfi_offset 3, -8
 376              		.cfi_offset 14, -4
 377              		.loc 1 274 0
 378 0002 0C30     		add	r0, r0, #12
 379              	.LVL36:
 380 0004 FFF7FEFF 		bl	chMtxLock
 381              	.LVL37:
 382              		.loc 1 278 0
 383              		@ sp needed
 384 0008 08BD     		pop	{r3, pc}
 385              		.cfi_endproc
 386              	.LFE47:
 387              		.size	i2cAcquireBus, .-i2cAcquireBus
 388 000a C046C046 		.section	.text.i2cReleaseBus,"ax",%progbits
 388      C046
 389              		.align	2
 390              		.p2align 4,,15
ARM GAS  /var/folders/qh/xwg3v3kj02qbxczjpdb8lzfr0000gn/T//ccSbQd4l.s 			page 8


 391              		.global	i2cReleaseBus
 392              		.code	16
 393              		.thumb_func
 394              		.type	i2cReleaseBus, %function
 395              	i2cReleaseBus:
 396              	.LFB48:
 397              		.loc 1 289 0
 398              		.cfi_startproc
 399              	.LVL38:
 400 0000 08B5     		push	{r3, lr}
 401              		.cfi_def_cfa_offset 8
 402              		.cfi_offset 3, -8
 403              		.cfi_offset 14, -4
 404              		.loc 1 294 0
 405 0002 FFF7FEFF 		bl	chMtxUnlock
 406              	.LVL39:
 407              		.loc 1 298 0
 408              		@ sp needed
 409 0006 08BD     		pop	{r3, pc}
 410              		.cfi_endproc
 411              	.LFE48:
 412              		.size	i2cReleaseBus, .-i2cReleaseBus
 413 0008 C046C046 		.text
 413      C046C046 
 414              	.Letext0:
 415              		.file 2 "/usr/local/Cellar/gcc-arm-none-eabi-48/20131218/lib/gcc/arm-none-eabi/4.8.3/include/stdde
 416              		.file 3 "/usr/local/Cellar/gcc-arm-none-eabi-48/20131218/arm-none-eabi/include/stdint.h"
 417              		.file 4 "../../os/ports/GCC/ARMCMx/chtypes.h"
 418              		.file 5 "../../os/kernel/include/chlists.h"
 419              		.file 6 "../../os/kernel/include/chthreads.h"
 420              		.file 7 "../../os/ports/GCC/ARMCMx/chcore_v6m.h"
 421              		.file 8 "../../os/kernel/include/chmtx.h"
 422              		.file 9 "../../os/hal/platforms/STM32F0xx/stm32f0xx.h"
 423              		.file 10 "../../os/hal/platforms/STM32F0xx/stm32_dma.h"
 424              		.file 11 "../../os/hal/include/i2c.h"
 425              		.file 12 "../../os/hal/platforms/STM32/I2Cv2/i2c_lld.h"
 426              		.file 13 "../../os/kernel/include/chdebug.h"