ARM GAS  /var/folders/qh/xwg3v3kj02qbxczjpdb8lzfr0000gn/T//ccSbQd4l.s 			page 1


   1              		.cpu cortex-m0
   2              		.fpu softvfp
   3              		.eabi_attribute 20, 1
   4              		.eabi_attribute 21, 1
   5              		.eabi_attribute 23, 3
   6              		.eabi_attribute 24, 1
   7              		.eabi_attribute 25, 1
   8              		.eabi_attribute 26, 1
   9              		.eabi_attribute 30, 2
  10              		.eabi_attribute 34, 0
  11              		.eabi_attribute 18, 4
  12              		.code	16
  13              		.file	"i2c.c"
  14              		.text
  15              	.Ltext0:
  16              		.cfi_sections	.debug_frame
  17              		.section	.text.i2cInit,"ax",%progbits
  18              		.align	2
  19              		.p2align 4,,15
  20              		.global	i2cInit
  21              		.code	16
  22              		.thumb_func
  23              		.type	i2cInit, %function
  24              	i2cInit:
  25              	.LFB40:
  26              		.file 1 "../../os/hal/src/i2c.c"
  27              		.loc 1 64 0
  28              		.cfi_startproc
  29 0000 08B5     		push	{r3, lr}
  30              		.cfi_def_cfa_offset 8
  31              		.cfi_offset 3, -8
  32              		.cfi_offset 14, -4
  33              		.loc 1 65 0
  34 0002 FFF7FEFF 		bl	i2c_lld_init
  35              	.LVL0:
  36              		.loc 1 66 0
  37              		@ sp needed
  38 0006 08BD     		pop	{r3, pc}
  39              		.cfi_endproc
  40              	.LFE40:
  41              		.size	i2cInit, .-i2cInit
  42 0008 C046C046 		.section	.text.i2cObjectInit,"ax",%progbits
  42      C046C046 
  43              		.align	2
  44              		.p2align 4,,15
  45              		.global	i2cObjectInit
  46              		.code	16
  47              		.thumb_func
  48              		.type	i2cObjectInit, %function
  49              	i2cObjectInit:
  50              	.LFB41:
  51              		.loc 1 75 0
  52              		.cfi_startproc
  53              	.LVL1:
  54 0000 08B5     		push	{r3, lr}
  55              		.cfi_def_cfa_offset 8
  56              		.cfi_offset 3, -8
ARM GAS  /var/folders/qh/xwg3v3kj02qbxczjpdb8lzfr0000gn/T//ccSbQd4l.s 			page 2


  57              		.cfi_offset 14, -4
  58              		.loc 1 77 0
  59 0002 0123     		mov	r3, #1
  60 0004 0370     		strb	r3, [r0]
  61              		.loc 1 78 0
  62 0006 0023     		mov	r3, #0
  63 0008 4360     		str	r3, [r0, #4]
  64              		.loc 1 82 0
  65 000a 0C30     		add	r0, r0, #12
  66              	.LVL2:
  67 000c FFF7FEFF 		bl	chMtxInit
  68              	.LVL3:
  69              		.loc 1 91 0
  70              		@ sp needed
  71 0010 08BD     		pop	{r3, pc}
  72              		.cfi_endproc
  73              	.LFE41:
  74              		.size	i2cObjectInit, .-i2cObjectInit
  75 0012 C046C046 		.section	.text.i2cStart,"ax",%progbits
  75      C046C046 
  75      C046C046 
  75      C046
  76              		.align	2
  77              		.p2align 4,,15
  78              		.global	i2cStart
  79              		.code	16
  80              		.thumb_func
  81              		.type	i2cStart, %function
  82              	i2cStart:
  83              	.LFB42:
  84              		.loc 1 101 0
  85              		.cfi_startproc
  86              	.LVL4:
  87 0000 38B5     		push	{r3, r4, r5, lr}
  88              		.cfi_def_cfa_offset 16
  89              		.cfi_offset 3, -16
  90              		.cfi_offset 4, -12
  91              		.cfi_offset 5, -8
  92              		.cfi_offset 14, -4
  93              		.loc 1 101 0
  94 0002 041C     		mov	r4, r0
  95 0004 0D1C     		mov	r5, r1
  96              		.loc 1 109 0
  97              	@ 109 "../../os/hal/src/i2c.c" 1
  98 0006 72B6     		cpsid   i
  99              	@ 0 "" 2
 100              		.code	16
 101 0008 FFF7FEFF 		bl	dbg_check_lock
 102              	.LVL5:
 103              		.loc 1 111 0
 104 000c 201C     		mov	r0, r4
 105              		.loc 1 110 0
 106 000e 6560     		str	r5, [r4, #4]
 107              		.loc 1 111 0
 108 0010 FFF7FEFF 		bl	i2c_lld_start
 109              	.LVL6:
 110              		.loc 1 112 0
ARM GAS  /var/folders/qh/xwg3v3kj02qbxczjpdb8lzfr0000gn/T//ccSbQd4l.s 			page 3


 111 0014 0223     		mov	r3, #2
 112 0016 2370     		strb	r3, [r4]
 113              		.loc 1 113 0
 114 0018 FFF7FEFF 		bl	dbg_check_unlock
 115              	.LVL7:
 116              	@ 113 "../../os/hal/src/i2c.c" 1
 117 001c 62B6     		cpsie   i
 118              	@ 0 "" 2
 119              		.loc 1 114 0
 120              		.code	16
 121              		@ sp needed
 122              	.LVL8:
 123              	.LVL9:
 124 001e 38BD     		pop	{r3, r4, r5, pc}
 125              		.cfi_endproc
 126              	.LFE42:
 127              		.size	i2cStart, .-i2cStart
 128              		.section	.text.i2cStop,"ax",%progbits
 129              		.align	2
 130              		.p2align 4,,15
 131              		.global	i2cStop
 132              		.code	16
 133              		.thumb_func
 134              		.type	i2cStop, %function
 135              	i2cStop:
 136              	.LFB43:
 137              		.loc 1 123 0
 138              		.cfi_startproc
 139              	.LVL10:
 140 0000 10B5     		push	{r4, lr}
 141              		.cfi_def_cfa_offset 8
 142              		.cfi_offset 4, -8
 143              		.cfi_offset 14, -4
 144              		.loc 1 123 0
 145 0002 041C     		mov	r4, r0
 146              		.loc 1 131 0
 147              	@ 131 "../../os/hal/src/i2c.c" 1
 148 0004 72B6     		cpsid   i
 149              	@ 0 "" 2
 150              		.code	16
 151 0006 FFF7FEFF 		bl	dbg_check_lock
 152              	.LVL11:
 153              		.loc 1 132 0
 154 000a 201C     		mov	r0, r4
 155 000c FFF7FEFF 		bl	i2c_lld_stop
 156              	.LVL12:
 157              		.loc 1 133 0
 158 0010 0123     		mov	r3, #1
 159 0012 2370     		strb	r3, [r4]
 160              		.loc 1 134 0
 161 0014 FFF7FEFF 		bl	dbg_check_unlock
 162              	.LVL13:
 163              	@ 134 "../../os/hal/src/i2c.c" 1
 164 0018 62B6     		cpsie   i
 165              	@ 0 "" 2
 166              		.loc 1 135 0
 167              		.code	16
ARM GAS  /var/folders/qh/xwg3v3kj02qbxczjpdb8lzfr0000gn/T//ccSbQd4l.s 			page 4


 168              		@ sp needed
 169              	.LVL14:
 170 001a 10BD     		pop	{r4, pc}
 171              		.cfi_endproc
 172              	.LFE43:
 173              		.size	i2cStop, .-i2cStop
 174 001c C046C046 		.section	.text.i2cGetErrors,"ax",%progbits
 175              		.align	2
 176              		.p2align 4,,15
 177              		.global	i2cGetErrors
 178              		.code	16
 179              		.thumb_func
 180              		.type	i2cGetErrors, %function
 181              	i2cGetErrors:
 182              	.LFB44:
 183              		.loc 1 145 0
 184              		.cfi_startproc
 185              	.LVL15:
 186              		.loc 1 149 0
 187 0000 8068     		ldr	r0, [r0, #8]
 188              	.LVL16:
 189              		.loc 1 150 0
 190              		@ sp needed
 191 0002 7047     		bx	lr
 192              		.cfi_endproc
 193              	.LFE44:
 194              		.size	i2cGetErrors, .-i2cGetErrors
 195 0004 C046C046 		.section	.text.i2cMasterTransmitTimeout,"ax",%progbits
 195      C046C046 
 195      C046C046 
 196              		.align	2
 197              		.p2align 4,,15
 198              		.global	i2cMasterTransmitTimeout
 199              		.code	16
 200              		.thumb_func
 201              		.type	i2cMasterTransmitTimeout, %function
 202              	i2cMasterTransmitTimeout:
 203              	.LFB45:
 204              		.loc 1 184 0
 205              		.cfi_startproc
 206              	.LVL17:
 207 0000 F0B5     		push	{r4, r5, r6, r7, lr}
 208              		.cfi_def_cfa_offset 20
 209              		.cfi_offset 4, -20
 210              		.cfi_offset 5, -16
 211              		.cfi_offset 6, -12
 212              		.cfi_offset 7, -8
 213              		.cfi_offset 14, -4
 214 0002 041C     		mov	r4, r0
 215 0004 85B0     		sub	sp, sp, #20
 216              		.cfi_def_cfa_offset 40
 217              		.loc 1 184 0
 218 0006 0F1C     		mov	r7, r1
 219 0008 161C     		mov	r6, r2
 220 000a 1D1C     		mov	r5, r3
 221              		.loc 1 196 0
 222              	@ 196 "../../os/hal/src/i2c.c" 1
ARM GAS  /var/folders/qh/xwg3v3kj02qbxczjpdb8lzfr0000gn/T//ccSbQd4l.s 			page 5


 223 000c 72B6     		cpsid   i
 224              	@ 0 "" 2
 225              		.code	16
 226 000e FFF7FEFF 		bl	dbg_check_lock
 227              	.LVL18:
 228              		.loc 1 197 0
 229 0012 0023     		mov	r3, #0
 230 0014 A360     		str	r3, [r4, #8]
 231              		.loc 1 198 0
 232 0016 0323     		mov	r3, #3
 233 0018 2370     		strb	r3, [r4]
 234              		.loc 1 199 0
 235 001a 0A9B     		ldr	r3, [sp, #40]
 236 001c 201C     		mov	r0, r4
 237 001e 0093     		str	r3, [sp]
 238 0020 0B9B     		ldr	r3, [sp, #44]
 239 0022 391C     		mov	r1, r7
 240 0024 0193     		str	r3, [sp, #4]
 241 0026 0C9B     		ldr	r3, [sp, #48]
 242 0028 321C     		mov	r2, r6
 243 002a 0293     		str	r3, [sp, #8]
 244 002c 2B1C     		mov	r3, r5
 245 002e FFF7FEFF 		bl	i2c_lld_master_transmit_timeout
 246              	.LVL19:
 247 0032 051C     		mov	r5, r0
 248              	.LVL20:
 249              		.loc 1 201 0
 250 0034 431C     		add	r3, r0, #1
 251 0036 07D0     		beq	.L10
 252              		.loc 1 204 0
 253 0038 0223     		mov	r3, #2
 254 003a 2370     		strb	r3, [r4]
 255              	.L8:
 256              		.loc 1 205 0
 257 003c FFF7FEFF 		bl	dbg_check_unlock
 258              	.LVL21:
 259              	@ 205 "../../os/hal/src/i2c.c" 1
 260 0040 62B6     		cpsie   i
 261              	@ 0 "" 2
 262              		.loc 1 207 0
 263              		.code	16
 264 0042 281C     		mov	r0, r5
 265 0044 05B0     		add	sp, sp, #20
 266              		@ sp needed
 267              	.LVL22:
 268              	.LVL23:
 269              	.LVL24:
 270 0046 F0BD     		pop	{r4, r5, r6, r7, pc}
 271              	.LVL25:
 272              	.L10:
 273              		.loc 1 202 0
 274 0048 0523     		mov	r3, #5
 275 004a 2370     		strb	r3, [r4]
 276 004c F6E7     		b	.L8
 277              		.cfi_endproc
 278              	.LFE45:
 279              		.size	i2cMasterTransmitTimeout, .-i2cMasterTransmitTimeout
ARM GAS  /var/folders/qh/xwg3v3kj02qbxczjpdb8lzfr0000gn/T//ccSbQd4l.s 			page 6


 280 004e C046     		.section	.text.i2cMasterReceiveTimeout,"ax",%progbits
 281              		.align	2
 282              		.p2align 4,,15
 283              		.global	i2cMasterReceiveTimeout
 284              		.code	16
 285              		.thumb_func
 286              		.type	i2cMasterReceiveTimeout, %function
 287              	i2cMasterReceiveTimeout:
 288              	.LFB46:
 289              		.loc 1 233 0
 290              		.cfi_startproc
 291              	.LVL26:
 292 0000 F0B5     		push	{r4, r5, r6, r7, lr}
 293              		.cfi_def_cfa_offset 20
 294              		.cfi_offset 4, -20
 295              		.cfi_offset 5, -16
 296              		.cfi_offset 6, -12
 297              		.cfi_offset 7, -8
 298              		.cfi_offset 14, -4
 299 0002 041C     		mov	r4, r0
 300 0004 83B0     		sub	sp, sp, #12
 301              		.cfi_def_cfa_offset 32
 302              		.loc 1 233 0
 303 0006 0F1C     		mov	r7, r1
 304 0008 161C     		mov	r6, r2
 305 000a 1D1C     		mov	r5, r3
 306              		.loc 1 245 0
 307              	@ 245 "../../os/hal/src/i2c.c" 1
 308 000c 72B6     		cpsid   i
 309              	@ 0 "" 2
 310              		.code	16
 311 000e FFF7FEFF 		bl	dbg_check_lock
 312              	.LVL27:
 313              		.loc 1 246 0
 314 0012 0023     		mov	r3, #0
 315 0014 A360     		str	r3, [r4, #8]
 316              		.loc 1 247 0
 317 0016 0423     		mov	r3, #4
 318 0018 2370     		strb	r3, [r4]
 319              		.loc 1 248 0
 320 001a 089B     		ldr	r3, [sp, #32]
 321 001c 201C     		mov	r0, r4
 322 001e 0093     		str	r3, [sp]
 323 0020 391C     		mov	r1, r7
 324 0022 2B1C     		mov	r3, r5
 325 0024 321C     		mov	r2, r6
 326 0026 FFF7FEFF 		bl	i2c_lld_master_receive_timeout
 327              	.LVL28:
 328 002a 051C     		mov	r5, r0
 329              	.LVL29:
 330              		.loc 1 249 0
 331 002c 431C     		add	r3, r0, #1
 332 002e 07D0     		beq	.L14
 333              		.loc 1 252 0
 334 0030 0223     		mov	r3, #2
 335 0032 2370     		strb	r3, [r4]
 336              	.L13:
ARM GAS  /var/folders/qh/xwg3v3kj02qbxczjpdb8lzfr0000gn/T//ccSbQd4l.s 			page 7


 337              		.loc 1 253 0
 338 0034 FFF7FEFF 		bl	dbg_check_unlock
 339              	.LVL30:
 340              	@ 253 "../../os/hal/src/i2c.c" 1
 341 0038 62B6     		cpsie   i
 342              	@ 0 "" 2
 343              		.loc 1 255 0
 344              		.code	16
 345 003a 281C     		mov	r0, r5
 346 003c 03B0     		add	sp, sp, #12
 347              		@ sp needed
 348              	.LVL31:
 349              	.LVL32:
 350              	.LVL33:
 351 003e F0BD     		pop	{r4, r5, r6, r7, pc}
 352              	.LVL34:
 353              	.L14:
 354              		.loc 1 250 0
 355 0040 0523     		mov	r3, #5
 356 0042 2370     		strb	r3, [r4]
 357 0044 F6E7     		b	.L13
 358              		.cfi_endproc
 359              	.LFE46:
 360              		.size	i2cMasterReceiveTimeout, .-i2cMasterReceiveTimeout
 361 0046 C046C046 		.section	.text.i2cAcquireBus,"ax",%progbits
 361      C046C046 
 361      C046
 362              		.align	2
 363              		.p2align 4,,15
 364              		.global	i2cAcquireBus
 365              		.code	16
 366              		.thumb_func
 367              		.type	i2cAcquireBus, %function
 368              	i2cAcquireBus:
 369              	.LFB47:
 370              		.loc 1 269 0
 371              		.cfi_startproc
 372              	.LVL35:
 373 0000 08B5     		push	{r3, lr}
 374              		.cfi_def_cfa_offset 8
 375              		.cfi_offset 3, -8
 376              		.cfi_offset 14, -4
 377              		.loc 1 274 0
 378 0002 0C30     		add	r0, r0, #12
 379              	.LVL36:
 380 0004 FFF7FEFF 		bl	chMtxLock
 381              	.LVL37:
 382              		.loc 1 278 0
 383              		@ sp needed
 384 0008 08BD     		pop	{r3, pc}
 385              		.cfi_endproc
 386              	.LFE47:
 387              		.size	i2cAcquireBus, .-i2cAcquireBus
 388 000a C046C046 		.section	.text.i2cReleaseBus,"ax",%progbits
 388      C046
 389              		.align	2
 390              		.p2align 4,,15
ARM GAS  /var/folders/qh/xwg3v3kj02qbxczjpdb8lzfr0000gn/T//ccSbQd4l.s 			page 8


 391              		.global	i2cReleaseBus
 392              		.code	16
 393              		.thumb_func
 394              		.type	i2cReleaseBus, %function
 395              	i2cReleaseBus:
 396              	.LFB48:
 397              		.loc 1 289 0
 398              		.cfi_startproc
 399              	.LVL38:
 400 0000 08B5     		push	{r3, lr}
 401              		.cfi_def_cfa_offset 8
 402              		.cfi_offset 3, -8
 403              		.cfi_offset 14, -4
 404              		.loc 1 294 0
 405 0002 FFF7FEFF 		bl	chMtxUnlock
 406              	.LVL39:
 407              		.loc 1 298 0
 408              		@ sp needed
 409 0006 08BD     		pop	{r3, pc}
 410              		.cfi_endproc
 411              	.LFE48:
 412              		.size	i2cReleaseBus, .-i2cReleaseBus
 413 0008 C046C046 		.text
 413      C046C046 
 414              	.Letext0:
 415              		.file 2 "/usr/local/Cellar/gcc-arm-none-eabi-48/20131218/lib/gcc/arm-none-eabi/4.8.3/include/stdde
 416              		.file 3 "/usr/local/Cellar/gcc-arm-none-eabi-48/20131218/arm-none-eabi/include/stdint.h"
 417              		.file 4 "../../os/ports/GCC/ARMCMx/chtypes.h"
 418              		.file 5 "../../os/kernel/include/chlists.h"
 419              		.file 6 "../../os/kernel/include/chthreads.h"
 420              		.file 7 "../../os/ports/GCC/ARMCMx/chcore_v6m.h"
 421              		.file 8 "../../os/kernel/include/chmtx.h"
 422              		.file 9 "../../os/hal/platforms/STM32F0xx/stm32f0xx.h"
 423              		.file 10 "../../os/hal/platforms/STM32F0xx/stm32_dma.h"
 424              		.file 11 "../../os/hal/include/i2c.h"
 425              		.file 12 "../../os/hal/platforms/STM32/I2Cv2/i2c_lld.h"
 426              		.file 13 "../../os/kernel/include/chdebug.h"
 427              		.section	.debug_info,"",%progbits
 428              	.Ldebug_info0:
 429 0000 230A0000 		.4byte	0xa23
 430 0004 0400     		.2byte	0x4
 431 0006 00000000 		.4byte	.Ldebug_abbrev0
 432 000a 04       		.byte	0x4
 433 000b 01       		.uleb128 0x1
 434 000c 91000000 		.4byte	.LASF122
 435 0010 01       		.byte	0x1
 436 0011 B1050000 		.4byte	.LASF123
 437 0015 69020000 		.4byte	.LASF124
 438 0019 00000000 		.4byte	.Ldebug_ranges0+0
 439 001d 00000000 		.4byte	0
 440 0021 00000000 		.4byte	.Ldebug_line0
 441 0025 02       		.uleb128 0x2
 442 0026 04       		.byte	0x4
 443 0027 05       		.byte	0x5
 444 0028 696E7400 		.ascii	"int\000"
 445 002c 03       		.uleb128 0x3
 446 002d A4020000 		.4byte	.LASF2
ARM GAS  /var/folders/qh/xwg3v3kj02qbxczjpdb8lzfr0000gn/T//ccSbQd4l.s 			page 9


 447 0031 02       		.byte	0x2
 448 0032 D4       		.byte	0xd4
 449 0033 37000000 		.4byte	0x37
 450 0037 04       		.uleb128 0x4
 451 0038 04       		.byte	0x4
 452 0039 07       		.byte	0x7
 453 003a 52000000 		.4byte	.LASF0
 454 003e 04       		.uleb128 0x4
 455 003f 01       		.byte	0x1
 456 0040 06       		.byte	0x6
 457 0041 92050000 		.4byte	.LASF1
 458 0045 03       		.uleb128 0x3
 459 0046 3B030000 		.4byte	.LASF3
 460 004a 03       		.byte	0x3
 461 004b 2A       		.byte	0x2a
 462 004c 50000000 		.4byte	0x50
 463 0050 04       		.uleb128 0x4
 464 0051 01       		.byte	0x1
 465 0052 08       		.byte	0x8
 466 0053 31050000 		.4byte	.LASF4
 467 0057 04       		.uleb128 0x4
 468 0058 02       		.byte	0x2
 469 0059 05       		.byte	0x5
 470 005a 82040000 		.4byte	.LASF5
 471 005e 03       		.uleb128 0x3
 472 005f 2F040000 		.4byte	.LASF6
 473 0063 03       		.byte	0x3
 474 0064 36       		.byte	0x36
 475 0065 69000000 		.4byte	0x69
 476 0069 04       		.uleb128 0x4
 477 006a 02       		.byte	0x2
 478 006b 07       		.byte	0x7
 479 006c 9E050000 		.4byte	.LASF7
 480 0070 03       		.uleb128 0x3
 481 0071 19050000 		.4byte	.LASF8
 482 0075 03       		.byte	0x3
 483 0076 4F       		.byte	0x4f
 484 0077 7B000000 		.4byte	0x7b
 485 007b 04       		.uleb128 0x4
 486 007c 04       		.byte	0x4
 487 007d 05       		.byte	0x5
 488 007e 9F040000 		.4byte	.LASF9
 489 0082 03       		.uleb128 0x3
 490 0083 BB010000 		.4byte	.LASF10
 491 0087 03       		.byte	0x3
 492 0088 50       		.byte	0x50
 493 0089 8D000000 		.4byte	0x8d
 494 008d 04       		.uleb128 0x4
 495 008e 04       		.byte	0x4
 496 008f 07       		.byte	0x7
 497 0090 07050000 		.4byte	.LASF11
 498 0094 04       		.uleb128 0x4
 499 0095 08       		.byte	0x8
 500 0096 05       		.byte	0x5
 501 0097 71030000 		.4byte	.LASF12
 502 009b 04       		.uleb128 0x4
 503 009c 08       		.byte	0x8
ARM GAS  /var/folders/qh/xwg3v3kj02qbxczjpdb8lzfr0000gn/T//ccSbQd4l.s 			page 10


 504 009d 07       		.byte	0x7
 505 009e F9010000 		.4byte	.LASF13
 506 00a2 04       		.uleb128 0x4
 507 00a3 01       		.byte	0x1
 508 00a4 02       		.byte	0x2
 509 00a5 B7020000 		.4byte	.LASF14
 510 00a9 03       		.uleb128 0x3
 511 00aa 07040000 		.4byte	.LASF15
 512 00ae 04       		.byte	0x4
 513 00af 25       		.byte	0x25
 514 00b0 45000000 		.4byte	0x45
 515 00b4 03       		.uleb128 0x3
 516 00b5 FE020000 		.4byte	.LASF16
 517 00b9 04       		.byte	0x4
 518 00ba 26       		.byte	0x26
 519 00bb 45000000 		.4byte	0x45
 520 00bf 03       		.uleb128 0x3
 521 00c0 FF040000 		.4byte	.LASF17
 522 00c4 04       		.byte	0x4
 523 00c5 27       		.byte	0x27
 524 00c6 45000000 		.4byte	0x45
 525 00ca 03       		.uleb128 0x3
 526 00cb E4030000 		.4byte	.LASF18
 527 00cf 04       		.byte	0x4
 528 00d0 28       		.byte	0x28
 529 00d1 45000000 		.4byte	0x45
 530 00d5 03       		.uleb128 0x3
 531 00d6 F1010000 		.4byte	.LASF19
 532 00da 04       		.byte	0x4
 533 00db 29       		.byte	0x29
 534 00dc 82000000 		.4byte	0x82
 535 00e0 03       		.uleb128 0x3
 536 00e1 96030000 		.4byte	.LASF20
 537 00e5 04       		.byte	0x4
 538 00e6 2A       		.byte	0x2a
 539 00e7 70000000 		.4byte	0x70
 540 00eb 03       		.uleb128 0x3
 541 00ec DA010000 		.4byte	.LASF21
 542 00f0 04       		.byte	0x4
 543 00f1 2C       		.byte	0x2c
 544 00f2 82000000 		.4byte	0x82
 545 00f6 03       		.uleb128 0x3
 546 00f7 2D000000 		.4byte	.LASF22
 547 00fb 04       		.byte	0x4
 548 00fc 2E       		.byte	0x2e
 549 00fd 82000000 		.4byte	0x82
 550 0101 03       		.uleb128 0x3
 551 0102 F7020000 		.4byte	.LASF23
 552 0106 05       		.byte	0x5
 553 0107 23       		.byte	0x23
 554 0108 0C010000 		.4byte	0x10c
 555 010c 05       		.uleb128 0x5
 556 010d F7020000 		.4byte	.LASF23
 557 0111 48       		.byte	0x48
 558 0112 06       		.byte	0x6
 559 0113 57       		.byte	0x57
 560 0114 09020000 		.4byte	0x209
ARM GAS  /var/folders/qh/xwg3v3kj02qbxczjpdb8lzfr0000gn/T//ccSbQd4l.s 			page 11


 561 0118 06       		.uleb128 0x6
 562 0119 BD040000 		.4byte	.LASF24
 563 011d 06       		.byte	0x6
 564 011e 58       		.byte	0x58
 565 011f 2A020000 		.4byte	0x22a
 566 0123 00       		.byte	0
 567 0124 06       		.uleb128 0x6
 568 0125 EF040000 		.4byte	.LASF25
 569 0129 06       		.byte	0x6
 570 012a 5A       		.byte	0x5a
 571 012b 2A020000 		.4byte	0x22a
 572 012f 04       		.byte	0x4
 573 0130 06       		.uleb128 0x6
 574 0131 26000000 		.4byte	.LASF26
 575 0135 06       		.byte	0x6
 576 0136 5C       		.byte	0x5c
 577 0137 D5000000 		.4byte	0xd5
 578 013b 08       		.byte	0x8
 579 013c 06       		.uleb128 0x6
 580 013d C4040000 		.4byte	.LASF27
 581 0141 06       		.byte	0x6
 582 0142 5D       		.byte	0x5d
 583 0143 DA020000 		.4byte	0x2da
 584 0147 0C       		.byte	0xc
 585 0148 06       		.uleb128 0x6
 586 0149 41020000 		.4byte	.LASF28
 587 014d 06       		.byte	0x6
 588 014e 5F       		.byte	0x5f
 589 014f 2A020000 		.4byte	0x22a
 590 0153 10       		.byte	0x10
 591 0154 06       		.uleb128 0x6
 592 0155 1A030000 		.4byte	.LASF29
 593 0159 06       		.byte	0x6
 594 015a 60       		.byte	0x60
 595 015b 2A020000 		.4byte	0x22a
 596 015f 14       		.byte	0x14
 597 0160 06       		.uleb128 0x6
 598 0161 CD020000 		.4byte	.LASF30
 599 0165 06       		.byte	0x6
 600 0166 67       		.byte	0x67
 601 0167 81030000 		.4byte	0x381
 602 016b 18       		.byte	0x18
 603 016c 06       		.uleb128 0x6
 604 016d 33030000 		.4byte	.LASF31
 605 0171 06       		.byte	0x6
 606 0172 72       		.byte	0x72
 607 0173 B4000000 		.4byte	0xb4
 608 0177 1C       		.byte	0x1c
 609 0178 06       		.uleb128 0x6
 610 0179 B3030000 		.4byte	.LASF32
 611 017d 06       		.byte	0x6
 612 017e 76       		.byte	0x76
 613 017f A9000000 		.4byte	0xa9
 614 0183 1D       		.byte	0x1d
 615 0184 06       		.uleb128 0x6
 616 0185 47050000 		.4byte	.LASF33
 617 0189 06       		.byte	0x6
ARM GAS  /var/folders/qh/xwg3v3kj02qbxczjpdb8lzfr0000gn/T//ccSbQd4l.s 			page 12


 618 018a 7B       		.byte	0x7b
 619 018b BF000000 		.4byte	0xbf
 620 018f 1E       		.byte	0x1e
 621 0190 06       		.uleb128 0x6
 622 0191 76050000 		.4byte	.LASF34
 623 0195 06       		.byte	0x6
 624 0196 81       		.byte	0x81
 625 0197 CA000000 		.4byte	0xca
 626 019b 1F       		.byte	0x1f
 627 019c 06       		.uleb128 0x6
 628 019d 16000000 		.4byte	.LASF35
 629 01a1 06       		.byte	0x6
 630 01a2 88       		.byte	0x88
 631 01a3 05030000 		.4byte	0x305
 632 01a7 20       		.byte	0x20
 633 01a8 07       		.uleb128 0x7
 634 01a9 705F7500 		.ascii	"p_u\000"
 635 01ad 06       		.byte	0x6
 636 01ae AD       		.byte	0xad
 637 01af 4C030000 		.4byte	0x34c
 638 01b3 24       		.byte	0x24
 639 01b4 06       		.uleb128 0x6
 640 01b5 0C000000 		.4byte	.LASF36
 641 01b9 06       		.byte	0x6
 642 01ba B2       		.byte	0xb2
 643 01bb 50020000 		.4byte	0x250
 644 01bf 28       		.byte	0x28
 645 01c0 06       		.uleb128 0x6
 646 01c1 3F000000 		.4byte	.LASF37
 647 01c5 06       		.byte	0x6
 648 01c6 B8       		.byte	0xb8
 649 01c7 30020000 		.4byte	0x230
 650 01cb 2C       		.byte	0x2c
 651 01cc 06       		.uleb128 0x6
 652 01cd 01040000 		.4byte	.LASF38
 653 01d1 06       		.byte	0x6
 654 01d2 BC       		.byte	0xbc
 655 01d3 E0000000 		.4byte	0xe0
 656 01d7 34       		.byte	0x34
 657 01d8 06       		.uleb128 0x6
 658 01d9 8C040000 		.4byte	.LASF39
 659 01dd 06       		.byte	0x6
 660 01de C2       		.byte	0xc2
 661 01df EB000000 		.4byte	0xeb
 662 01e3 38       		.byte	0x38
 663 01e4 06       		.uleb128 0x6
 664 01e5 51030000 		.4byte	.LASF40
 665 01e9 06       		.byte	0x6
 666 01ea C9       		.byte	0xc9
 667 01eb 93030000 		.4byte	0x393
 668 01ef 3C       		.byte	0x3c
 669 01f0 06       		.uleb128 0x6
 670 01f1 77040000 		.4byte	.LASF41
 671 01f5 06       		.byte	0x6
 672 01f6 CD       		.byte	0xcd
 673 01f7 D5000000 		.4byte	0xd5
 674 01fb 40       		.byte	0x40
ARM GAS  /var/folders/qh/xwg3v3kj02qbxczjpdb8lzfr0000gn/T//ccSbQd4l.s 			page 13


 675 01fc 06       		.uleb128 0x6
 676 01fd 49030000 		.4byte	.LASF42
 677 0201 06       		.byte	0x6
 678 0202 D3       		.byte	0xd3
 679 0203 66020000 		.4byte	0x266
 680 0207 44       		.byte	0x44
 681 0208 00       		.byte	0
 682 0209 08       		.uleb128 0x8
 683 020a 08       		.byte	0x8
 684 020b 05       		.byte	0x5
 685 020c 5A       		.byte	0x5a
 686 020d 2A020000 		.4byte	0x22a
 687 0211 06       		.uleb128 0x6
 688 0212 BD040000 		.4byte	.LASF24
 689 0216 05       		.byte	0x5
 690 0217 5B       		.byte	0x5b
 691 0218 2A020000 		.4byte	0x22a
 692 021c 00       		.byte	0
 693 021d 06       		.uleb128 0x6
 694 021e EF040000 		.4byte	.LASF25
 695 0222 05       		.byte	0x5
 696 0223 5D       		.byte	0x5d
 697 0224 2A020000 		.4byte	0x22a
 698 0228 04       		.byte	0x4
 699 0229 00       		.byte	0
 700 022a 09       		.uleb128 0x9
 701 022b 04       		.byte	0x4
 702 022c 01010000 		.4byte	0x101
 703 0230 03       		.uleb128 0x3
 704 0231 D4020000 		.4byte	.LASF43
 705 0235 05       		.byte	0x5
 706 0236 5F       		.byte	0x5f
 707 0237 09020000 		.4byte	0x209
 708 023b 08       		.uleb128 0x8
 709 023c 04       		.byte	0x4
 710 023d 05       		.byte	0x5
 711 023e 64       		.byte	0x64
 712 023f 50020000 		.4byte	0x250
 713 0243 06       		.uleb128 0x6
 714 0244 BD040000 		.4byte	.LASF24
 715 0248 05       		.byte	0x5
 716 0249 66       		.byte	0x66
 717 024a 2A020000 		.4byte	0x22a
 718 024e 00       		.byte	0
 719 024f 00       		.byte	0
 720 0250 03       		.uleb128 0x3
 721 0251 00000000 		.4byte	.LASF44
 722 0255 05       		.byte	0x5
 723 0256 69       		.byte	0x69
 724 0257 3B020000 		.4byte	0x23b
 725 025b 03       		.uleb128 0x3
 726 025c 1D000000 		.4byte	.LASF45
 727 0260 07       		.byte	0x7
 728 0261 A0       		.byte	0xa0
 729 0262 66020000 		.4byte	0x266
 730 0266 0A       		.uleb128 0xa
 731 0267 04       		.byte	0x4
ARM GAS  /var/folders/qh/xwg3v3kj02qbxczjpdb8lzfr0000gn/T//ccSbQd4l.s 			page 14


 732 0268 05       		.uleb128 0x5
 733 0269 38040000 		.4byte	.LASF46
 734 026d 24       		.byte	0x24
 735 026e 07       		.byte	0x7
 736 026f B3       		.byte	0xb3
 737 0270 DA020000 		.4byte	0x2da
 738 0274 07       		.uleb128 0x7
 739 0275 723800   		.ascii	"r8\000"
 740 0278 07       		.byte	0x7
 741 0279 B4       		.byte	0xb4
 742 027a 5B020000 		.4byte	0x25b
 743 027e 00       		.byte	0
 744 027f 07       		.uleb128 0x7
 745 0280 723900   		.ascii	"r9\000"
 746 0283 07       		.byte	0x7
 747 0284 B5       		.byte	0xb5
 748 0285 5B020000 		.4byte	0x25b
 749 0289 04       		.byte	0x4
 750 028a 07       		.uleb128 0x7
 751 028b 72313000 		.ascii	"r10\000"
 752 028f 07       		.byte	0x7
 753 0290 B6       		.byte	0xb6
 754 0291 5B020000 		.4byte	0x25b
 755 0295 08       		.byte	0x8
 756 0296 07       		.uleb128 0x7
 757 0297 72313100 		.ascii	"r11\000"
 758 029b 07       		.byte	0x7
 759 029c B7       		.byte	0xb7
 760 029d 5B020000 		.4byte	0x25b
 761 02a1 0C       		.byte	0xc
 762 02a2 07       		.uleb128 0x7
 763 02a3 723400   		.ascii	"r4\000"
 764 02a6 07       		.byte	0x7
 765 02a7 B8       		.byte	0xb8
 766 02a8 5B020000 		.4byte	0x25b
 767 02ac 10       		.byte	0x10
 768 02ad 07       		.uleb128 0x7
 769 02ae 723500   		.ascii	"r5\000"
 770 02b1 07       		.byte	0x7
 771 02b2 B9       		.byte	0xb9
 772 02b3 5B020000 		.4byte	0x25b
 773 02b7 14       		.byte	0x14
 774 02b8 07       		.uleb128 0x7
 775 02b9 723600   		.ascii	"r6\000"
 776 02bc 07       		.byte	0x7
 777 02bd BA       		.byte	0xba
 778 02be 5B020000 		.4byte	0x25b
 779 02c2 18       		.byte	0x18
 780 02c3 07       		.uleb128 0x7
 781 02c4 723700   		.ascii	"r7\000"
 782 02c7 07       		.byte	0x7
 783 02c8 BB       		.byte	0xbb
 784 02c9 5B020000 		.4byte	0x25b
 785 02cd 1C       		.byte	0x1c
 786 02ce 07       		.uleb128 0x7
 787 02cf 6C7200   		.ascii	"lr\000"
 788 02d2 07       		.byte	0x7
ARM GAS  /var/folders/qh/xwg3v3kj02qbxczjpdb8lzfr0000gn/T//ccSbQd4l.s 			page 15


 789 02d3 BC       		.byte	0xbc
 790 02d4 5B020000 		.4byte	0x25b
 791 02d8 20       		.byte	0x20
 792 02d9 00       		.byte	0
 793 02da 05       		.uleb128 0x5
 794 02db 9C030000 		.4byte	.LASF47
 795 02df 04       		.byte	0x4
 796 02e0 07       		.byte	0x7
 797 02e1 C6       		.byte	0xc6
 798 02e2 F3020000 		.4byte	0x2f3
 799 02e6 07       		.uleb128 0x7
 800 02e7 72313300 		.ascii	"r13\000"
 801 02eb 07       		.byte	0x7
 802 02ec C7       		.byte	0xc7
 803 02ed F3020000 		.4byte	0x2f3
 804 02f1 00       		.byte	0
 805 02f2 00       		.byte	0
 806 02f3 09       		.uleb128 0x9
 807 02f4 04       		.byte	0x4
 808 02f5 68020000 		.4byte	0x268
 809 02f9 0B       		.uleb128 0xb
 810 02fa 82000000 		.4byte	0x82
 811 02fe 04       		.uleb128 0x4
 812 02ff 04       		.byte	0x4
 813 0300 07       		.byte	0x7
 814 0301 F6040000 		.4byte	.LASF48
 815 0305 0B       		.uleb128 0xb
 816 0306 F6000000 		.4byte	0xf6
 817 030a 05       		.uleb128 0x5
 818 030b C7020000 		.4byte	.LASF49
 819 030f 10       		.byte	0x10
 820 0310 08       		.byte	0x8
 821 0311 25       		.byte	0x25
 822 0312 3B030000 		.4byte	0x33b
 823 0316 06       		.uleb128 0x6
 824 0317 97040000 		.4byte	.LASF50
 825 031b 08       		.byte	0x8
 826 031c 26       		.byte	0x26
 827 031d 30020000 		.4byte	0x230
 828 0321 00       		.byte	0
 829 0322 06       		.uleb128 0x6
 830 0323 37000000 		.4byte	.LASF51
 831 0327 08       		.byte	0x8
 832 0328 28       		.byte	0x28
 833 0329 2A020000 		.4byte	0x22a
 834 032d 08       		.byte	0x8
 835 032e 06       		.uleb128 0x6
 836 032f 8B050000 		.4byte	.LASF52
 837 0333 08       		.byte	0x8
 838 0334 2A       		.byte	0x2a
 839 0335 3B030000 		.4byte	0x33b
 840 0339 0C       		.byte	0xc
 841 033a 00       		.byte	0
 842 033b 09       		.uleb128 0x9
 843 033c 04       		.byte	0x4
 844 033d 0A030000 		.4byte	0x30a
 845 0341 03       		.uleb128 0x3
ARM GAS  /var/folders/qh/xwg3v3kj02qbxczjpdb8lzfr0000gn/T//ccSbQd4l.s 			page 16


 846 0342 C7020000 		.4byte	.LASF49
 847 0346 08       		.byte	0x8
 848 0347 2C       		.byte	0x2c
 849 0348 0A030000 		.4byte	0x30a
 850 034c 0C       		.uleb128 0xc
 851 034d 04       		.byte	0x4
 852 034e 06       		.byte	0x6
 853 034f 8F       		.byte	0x8f
 854 0350 81030000 		.4byte	0x381
 855 0354 0D       		.uleb128 0xd
 856 0355 AB020000 		.4byte	.LASF53
 857 0359 06       		.byte	0x6
 858 035a 96       		.byte	0x96
 859 035b E0000000 		.4byte	0xe0
 860 035f 0D       		.uleb128 0xd
 861 0360 C8050000 		.4byte	.LASF54
 862 0364 06       		.byte	0x6
 863 0365 9D       		.byte	0x9d
 864 0366 E0000000 		.4byte	0xe0
 865 036a 0D       		.uleb128 0xd
 866 036b 76000000 		.4byte	.LASF55
 867 036f 06       		.byte	0x6
 868 0370 A4       		.byte	0xa4
 869 0371 66020000 		.4byte	0x266
 870 0375 0D       		.uleb128 0xd
 871 0376 6B010000 		.4byte	.LASF56
 872 037a 06       		.byte	0x6
 873 037b AB       		.byte	0xab
 874 037c EB000000 		.4byte	0xeb
 875 0380 00       		.byte	0
 876 0381 09       		.uleb128 0x9
 877 0382 04       		.byte	0x4
 878 0383 87030000 		.4byte	0x387
 879 0387 0E       		.uleb128 0xe
 880 0388 8C030000 		.4byte	0x38c
 881 038c 04       		.uleb128 0x4
 882 038d 01       		.byte	0x1
 883 038e 08       		.byte	0x8
 884 038f E1020000 		.4byte	.LASF57
 885 0393 09       		.uleb128 0x9
 886 0394 04       		.byte	0x4
 887 0395 41030000 		.4byte	0x341
 888 0399 09       		.uleb128 0x9
 889 039a 04       		.byte	0x4
 890 039b 45000000 		.4byte	0x45
 891 039f 09       		.uleb128 0x9
 892 03a0 04       		.byte	0x4
 893 03a1 A5030000 		.4byte	0x3a5
 894 03a5 0E       		.uleb128 0xe
 895 03a6 45000000 		.4byte	0x45
 896 03aa 0F       		.uleb128 0xf
 897 03ab 10       		.byte	0x10
 898 03ac 09       		.byte	0x9
 899 03ad 8A01     		.2byte	0x18a
 900 03af E8030000 		.4byte	0x3e8
 901 03b3 10       		.uleb128 0x10
 902 03b4 43435200 		.ascii	"CCR\000"
ARM GAS  /var/folders/qh/xwg3v3kj02qbxczjpdb8lzfr0000gn/T//ccSbQd4l.s 			page 17


 903 03b8 09       		.byte	0x9
 904 03b9 8C01     		.2byte	0x18c
 905 03bb F9020000 		.4byte	0x2f9
 906 03bf 00       		.byte	0
 907 03c0 11       		.uleb128 0x11
 908 03c1 A2010000 		.4byte	.LASF58
 909 03c5 09       		.byte	0x9
 910 03c6 8D01     		.2byte	0x18d
 911 03c8 F9020000 		.4byte	0x2f9
 912 03cc 04       		.byte	0x4
 913 03cd 11       		.uleb128 0x11
 914 03ce 4F020000 		.4byte	.LASF59
 915 03d2 09       		.byte	0x9
 916 03d3 8E01     		.2byte	0x18e
 917 03d5 F9020000 		.4byte	0x2f9
 918 03d9 08       		.byte	0x8
 919 03da 11       		.uleb128 0x11
 920 03db 69000000 		.4byte	.LASF60
 921 03df 09       		.byte	0x9
 922 03e0 8F01     		.2byte	0x18f
 923 03e2 F9020000 		.4byte	0x2f9
 924 03e6 0C       		.byte	0xc
 925 03e7 00       		.byte	0
 926 03e8 12       		.uleb128 0x12
 927 03e9 7D000000 		.4byte	.LASF61
 928 03ed 09       		.byte	0x9
 929 03ee 9001     		.2byte	0x190
 930 03f0 AA030000 		.4byte	0x3aa
 931 03f4 0F       		.uleb128 0xf
 932 03f5 2C       		.byte	0x2c
 933 03f6 09       		.byte	0x9
 934 03f7 ED01     		.2byte	0x1ed
 935 03f9 8D040000 		.4byte	0x48d
 936 03fd 10       		.uleb128 0x10
 937 03fe 43523100 		.ascii	"CR1\000"
 938 0402 09       		.byte	0x9
 939 0403 EF01     		.2byte	0x1ef
 940 0405 F9020000 		.4byte	0x2f9
 941 0409 00       		.byte	0
 942 040a 10       		.uleb128 0x10
 943 040b 43523200 		.ascii	"CR2\000"
 944 040f 09       		.byte	0x9
 945 0410 F001     		.2byte	0x1f0
 946 0412 F9020000 		.4byte	0x2f9
 947 0416 04       		.byte	0x4
 948 0417 11       		.uleb128 0x11
 949 0418 BD020000 		.4byte	.LASF62
 950 041c 09       		.byte	0x9
 951 041d F101     		.2byte	0x1f1
 952 041f F9020000 		.4byte	0x2f9
 953 0423 08       		.byte	0x8
 954 0424 11       		.uleb128 0x11
 955 0425 C2020000 		.4byte	.LASF63
 956 0429 09       		.byte	0x9
 957 042a F201     		.2byte	0x1f2
 958 042c F9020000 		.4byte	0x2f9
 959 0430 0C       		.byte	0xc
ARM GAS  /var/folders/qh/xwg3v3kj02qbxczjpdb8lzfr0000gn/T//ccSbQd4l.s 			page 18


 960 0431 11       		.uleb128 0x11
 961 0432 69030000 		.4byte	.LASF64
 962 0436 09       		.byte	0x9
 963 0437 F301     		.2byte	0x1f3
 964 0439 F9020000 		.4byte	0x2f9
 965 043d 10       		.byte	0x10
 966 043e 11       		.uleb128 0x11
 967 043f 8B010000 		.4byte	.LASF65
 968 0443 09       		.byte	0x9
 969 0444 F401     		.2byte	0x1f4
 970 0446 F9020000 		.4byte	0x2f9
 971 044a 14       		.byte	0x14
 972 044b 10       		.uleb128 0x10
 973 044c 49535200 		.ascii	"ISR\000"
 974 0450 09       		.byte	0x9
 975 0451 F501     		.2byte	0x1f5
 976 0453 F9020000 		.4byte	0x2f9
 977 0457 18       		.byte	0x18
 978 0458 10       		.uleb128 0x10
 979 0459 49435200 		.ascii	"ICR\000"
 980 045d 09       		.byte	0x9
 981 045e F601     		.2byte	0x1f6
 982 0460 F9020000 		.4byte	0x2f9
 983 0464 1C       		.byte	0x1c
 984 0465 11       		.uleb128 0x11
 985 0466 D7030000 		.4byte	.LASF66
 986 046a 09       		.byte	0x9
 987 046b F701     		.2byte	0x1f7
 988 046d F9020000 		.4byte	0x2f9
 989 0471 20       		.byte	0x20
 990 0472 11       		.uleb128 0x11
 991 0473 B2020000 		.4byte	.LASF67
 992 0477 09       		.byte	0x9
 993 0478 F801     		.2byte	0x1f8
 994 047a F9020000 		.4byte	0x2f9
 995 047e 24       		.byte	0x24
 996 047f 11       		.uleb128 0x11
 997 0480 5B030000 		.4byte	.LASF68
 998 0484 09       		.byte	0x9
 999 0485 F901     		.2byte	0x1f9
 1000 0487 F9020000 		.4byte	0x2f9
 1001 048b 28       		.byte	0x28
 1002 048c 00       		.byte	0
 1003 048d 12       		.uleb128 0x12
 1004 048e 6A050000 		.4byte	.LASF69
 1005 0492 09       		.byte	0x9
 1006 0493 FA01     		.2byte	0x1fa
 1007 0495 F4030000 		.4byte	0x3f4
 1008 0499 08       		.uleb128 0x8
 1009 049a 0C       		.byte	0xc
 1010 049b 0A       		.byte	0xa
 1011 049c B6       		.byte	0xb6
 1012 049d DE040000 		.4byte	0x4de
 1013 04a1 06       		.uleb128 0x6
 1014 04a2 3F040000 		.4byte	.LASF70
 1015 04a6 0A       		.byte	0xa
 1016 04a7 B7       		.byte	0xb7
ARM GAS  /var/folders/qh/xwg3v3kj02qbxczjpdb8lzfr0000gn/T//ccSbQd4l.s 			page 19


 1017 04a8 DE040000 		.4byte	0x4de
 1018 04ac 00       		.byte	0
 1019 04ad 06       		.uleb128 0x6
 1020 04ae E6010000 		.4byte	.LASF71
 1021 04b2 0A       		.byte	0xa
 1022 04b3 B8       		.byte	0xb8
 1023 04b4 E4040000 		.4byte	0x4e4
 1024 04b8 04       		.byte	0x4
 1025 04b9 06       		.uleb128 0x6
 1026 04ba F0020000 		.4byte	.LASF72
 1027 04be 0A       		.byte	0xa
 1028 04bf B9       		.byte	0xb9
 1029 04c0 45000000 		.4byte	0x45
 1030 04c4 08       		.byte	0x8
 1031 04c5 06       		.uleb128 0x6
 1032 04c6 D1050000 		.4byte	.LASF73
 1033 04ca 0A       		.byte	0xa
 1034 04cb BB       		.byte	0xbb
 1035 04cc 45000000 		.4byte	0x45
 1036 04d0 09       		.byte	0x9
 1037 04d1 06       		.uleb128 0x6
 1038 04d2 10020000 		.4byte	.LASF74
 1039 04d6 0A       		.byte	0xa
 1040 04d7 BC       		.byte	0xbc
 1041 04d8 45000000 		.4byte	0x45
 1042 04dc 0A       		.byte	0xa
 1043 04dd 00       		.byte	0
 1044 04de 09       		.uleb128 0x9
 1045 04df 04       		.byte	0x4
 1046 04e0 E8030000 		.4byte	0x3e8
 1047 04e4 09       		.uleb128 0x9
 1048 04e5 04       		.byte	0x4
 1049 04e6 F9020000 		.4byte	0x2f9
 1050 04ea 03       		.uleb128 0x3
 1051 04eb 07030000 		.4byte	.LASF75
 1052 04ef 0A       		.byte	0xa
 1053 04f0 BD       		.byte	0xbd
 1054 04f1 99040000 		.4byte	0x499
 1055 04f5 09       		.uleb128 0x9
 1056 04f6 04       		.byte	0x4
 1057 04f7 FB040000 		.4byte	0x4fb
 1058 04fb 0E       		.uleb128 0xe
 1059 04fc EA040000 		.4byte	0x4ea
 1060 0500 13       		.uleb128 0x13
 1061 0501 01       		.byte	0x1
 1062 0502 0B       		.byte	0xb
 1063 0503 53       		.byte	0x53
 1064 0504 2D050000 		.4byte	0x52d
 1065 0508 14       		.uleb128 0x14
 1066 0509 8B030000 		.4byte	.LASF76
 1067 050d 00       		.sleb128 0
 1068 050e 14       		.uleb128 0x14
 1069 050f 28050000 		.4byte	.LASF77
 1070 0513 01       		.sleb128 1
 1071 0514 14       		.uleb128 0x14
 1072 0515 66040000 		.4byte	.LASF78
 1073 0519 02       		.sleb128 2
ARM GAS  /var/folders/qh/xwg3v3kj02qbxczjpdb8lzfr0000gn/T//ccSbQd4l.s 			page 20


 1074 051a 14       		.uleb128 0x14
 1075 051b CC010000 		.4byte	.LASF79
 1076 051f 03       		.sleb128 3
 1077 0520 14       		.uleb128 0x14
 1078 0521 17020000 		.4byte	.LASF80
 1079 0525 04       		.sleb128 4
 1080 0526 14       		.uleb128 0x14
 1081 0527 B2040000 		.4byte	.LASF81
 1082 052b 05       		.sleb128 5
 1083 052c 00       		.byte	0
 1084 052d 03       		.uleb128 0x3
 1085 052e 2C020000 		.4byte	.LASF82
 1086 0532 0B       		.byte	0xb
 1087 0533 5A       		.byte	0x5a
 1088 0534 00050000 		.4byte	0x500
 1089 0538 03       		.uleb128 0x3
 1090 0539 A8040000 		.4byte	.LASF83
 1091 053d 0C       		.byte	0xc
 1092 053e C3       		.byte	0xc3
 1093 053f 5E000000 		.4byte	0x5e
 1094 0543 03       		.uleb128 0x3
 1095 0544 54020000 		.4byte	.LASF84
 1096 0548 0C       		.byte	0xc
 1097 0549 C8       		.byte	0xc8
 1098 054a 82000000 		.4byte	0x82
 1099 054e 08       		.uleb128 0x8
 1100 054f 0C       		.byte	0xc
 1101 0550 0C       		.byte	0xc
 1102 0551 CD       		.byte	0xcd
 1103 0552 7B050000 		.4byte	0x57b
 1104 0556 06       		.uleb128 0x6
 1105 0557 3F050000 		.4byte	.LASF85
 1106 055b 0C       		.byte	0xc
 1107 055c D3       		.byte	0xd3
 1108 055d 82000000 		.4byte	0x82
 1109 0561 00       		.byte	0
 1110 0562 07       		.uleb128 0x7
 1111 0563 63723100 		.ascii	"cr1\000"
 1112 0567 0C       		.byte	0xc
 1113 0568 D8       		.byte	0xd8
 1114 0569 82000000 		.4byte	0x82
 1115 056d 04       		.byte	0x4
 1116 056e 07       		.uleb128 0x7
 1117 056f 63723200 		.ascii	"cr2\000"
 1118 0573 0C       		.byte	0xc
 1119 0574 DD       		.byte	0xdd
 1120 0575 82000000 		.4byte	0x82
 1121 0579 08       		.byte	0x8
 1122 057a 00       		.byte	0
 1123 057b 03       		.uleb128 0x3
 1124 057c 37020000 		.4byte	.LASF86
 1125 0580 0C       		.byte	0xc
 1126 0581 DE       		.byte	0xde
 1127 0582 4E050000 		.4byte	0x54e
 1128 0586 03       		.uleb128 0x3
 1129 0587 5F000000 		.4byte	.LASF87
 1130 058b 0C       		.byte	0xc
ARM GAS  /var/folders/qh/xwg3v3kj02qbxczjpdb8lzfr0000gn/T//ccSbQd4l.s 			page 21


 1131 058c E3       		.byte	0xe3
 1132 058d 91050000 		.4byte	0x591
 1133 0591 05       		.uleb128 0x5
 1134 0592 5F000000 		.4byte	.LASF87
 1135 0596 38       		.byte	0x38
 1136 0597 0C       		.byte	0xc
 1137 0598 E8       		.byte	0xe8
 1138 0599 29060000 		.4byte	0x629
 1139 059d 06       		.uleb128 0x6
 1140 059e 85050000 		.4byte	.LASF88
 1141 05a2 0C       		.byte	0xc
 1142 05a3 EC       		.byte	0xec
 1143 05a4 2D050000 		.4byte	0x52d
 1144 05a8 00       		.byte	0
 1145 05a9 06       		.uleb128 0x6
 1146 05aa 70040000 		.4byte	.LASF89
 1147 05ae 0C       		.byte	0xc
 1148 05af F0       		.byte	0xf0
 1149 05b0 29060000 		.4byte	0x629
 1150 05b4 04       		.byte	0x4
 1151 05b5 06       		.uleb128 0x6
 1152 05b6 25020000 		.4byte	.LASF90
 1153 05ba 0C       		.byte	0xc
 1154 05bb F4       		.byte	0xf4
 1155 05bc 43050000 		.4byte	0x543
 1156 05c0 08       		.byte	0x8
 1157 05c1 06       		.uleb128 0x6
 1158 05c2 EB010000 		.4byte	.LASF91
 1159 05c6 0C       		.byte	0xc
 1160 05c7 FA       		.byte	0xfa
 1161 05c8 41030000 		.4byte	0x341
 1162 05cc 0C       		.byte	0xc
 1163 05cd 11       		.uleb128 0x11
 1164 05ce 21050000 		.4byte	.LASF92
 1165 05d2 0C       		.byte	0xc
 1166 05d3 0601     		.2byte	0x106
 1167 05d5 2A020000 		.4byte	0x22a
 1168 05d9 1C       		.byte	0x1c
 1169 05da 11       		.uleb128 0x11
 1170 05db 80050000 		.4byte	.LASF93
 1171 05df 0C       		.byte	0xc
 1172 05e0 0A01     		.2byte	0x10a
 1173 05e2 38050000 		.4byte	0x538
 1174 05e6 20       		.byte	0x20
 1175 05e7 11       		.uleb128 0x11
 1176 05e8 60050000 		.4byte	.LASF94
 1177 05ec 0C       		.byte	0xc
 1178 05ed 0E01     		.2byte	0x10e
 1179 05ef 82000000 		.4byte	0x82
 1180 05f3 24       		.byte	0x24
 1181 05f4 11       		.uleb128 0x11
 1182 05f5 E6020000 		.4byte	.LASF95
 1183 05f9 0C       		.byte	0xc
 1184 05fa 1201     		.2byte	0x112
 1185 05fc 82000000 		.4byte	0x82
 1186 0600 28       		.byte	0x28
 1187 0601 11       		.uleb128 0x11
ARM GAS  /var/folders/qh/xwg3v3kj02qbxczjpdb8lzfr0000gn/T//ccSbQd4l.s 			page 22


 1188 0602 43030000 		.4byte	.LASF96
 1189 0606 0C       		.byte	0xc
 1190 0607 1601     		.2byte	0x116
 1191 0609 F5040000 		.4byte	0x4f5
 1192 060d 2C       		.byte	0x2c
 1193 060e 11       		.uleb128 0x11
 1194 060f B5010000 		.4byte	.LASF97
 1195 0613 0C       		.byte	0xc
 1196 0614 1A01     		.2byte	0x11a
 1197 0616 F5040000 		.4byte	0x4f5
 1198 061a 30       		.byte	0x30
 1199 061b 10       		.uleb128 0x10
 1200 061c 69326300 		.ascii	"i2c\000"
 1201 0620 0C       		.byte	0xc
 1202 0621 1E01     		.2byte	0x11e
 1203 0623 34060000 		.4byte	0x634
 1204 0627 34       		.byte	0x34
 1205 0628 00       		.byte	0
 1206 0629 09       		.uleb128 0x9
 1207 062a 04       		.byte	0x4
 1208 062b 2F060000 		.4byte	0x62f
 1209 062f 0E       		.uleb128 0xe
 1210 0630 7B050000 		.4byte	0x57b
 1211 0634 09       		.uleb128 0x9
 1212 0635 04       		.byte	0x4
 1213 0636 8D040000 		.4byte	0x48d
 1214 063a 15       		.uleb128 0x15
 1215 063b DC030000 		.4byte	.LASF98
 1216 063f 01       		.byte	0x1
 1217 0640 40       		.byte	0x40
 1218 0641 00000000 		.4byte	.LFB40
 1219 0645 08000000 		.4byte	.LFE40-.LFB40
 1220 0649 01       		.uleb128 0x1
 1221 064a 9C       		.byte	0x9c
 1222 064b 59060000 		.4byte	0x659
 1223 064f 16       		.uleb128 0x16
 1224 0650 06000000 		.4byte	.LVL0
 1225 0654 61090000 		.4byte	0x961
 1226 0658 00       		.byte	0
 1227 0659 15       		.uleb128 0x15
 1228 065a F3030000 		.4byte	.LASF99
 1229 065e 01       		.byte	0x1
 1230 065f 4B       		.byte	0x4b
 1231 0660 00000000 		.4byte	.LFB41
 1232 0664 12000000 		.4byte	.LFE41-.LFB41
 1233 0668 01       		.uleb128 0x1
 1234 0669 9C       		.byte	0x9c
 1235 066a 91060000 		.4byte	0x691
 1236 066e 17       		.uleb128 0x17
 1237 066f EE030000 		.4byte	.LASF101
 1238 0673 01       		.byte	0x1
 1239 0674 4B       		.byte	0x4b
 1240 0675 91060000 		.4byte	0x691
 1241 0679 00000000 		.4byte	.LLST0
 1242 067d 18       		.uleb128 0x18
 1243 067e 10000000 		.4byte	.LVL3
 1244 0682 69090000 		.4byte	0x969
ARM GAS  /var/folders/qh/xwg3v3kj02qbxczjpdb8lzfr0000gn/T//ccSbQd4l.s 			page 23


 1245 0686 19       		.uleb128 0x19
 1246 0687 01       		.uleb128 0x1
 1247 0688 50       		.byte	0x50
 1248 0689 05       		.uleb128 0x5
 1249 068a F3       		.byte	0xf3
 1250 068b 01       		.uleb128 0x1
 1251 068c 50       		.byte	0x50
 1252 068d 23       		.byte	0x23
 1253 068e 0C       		.uleb128 0xc
 1254 068f 00       		.byte	0
 1255 0690 00       		.byte	0
 1256 0691 09       		.uleb128 0x9
 1257 0692 04       		.byte	0x4
 1258 0693 86050000 		.4byte	0x586
 1259 0697 15       		.uleb128 0x15
 1260 0698 60030000 		.4byte	.LASF100
 1261 069c 01       		.byte	0x1
 1262 069d 65       		.byte	0x65
 1263 069e 00000000 		.4byte	.LFB42
 1264 06a2 20000000 		.4byte	.LFE42-.LFB42
 1265 06a6 01       		.uleb128 0x1
 1266 06a7 9C       		.byte	0x9c
 1267 06a8 F1060000 		.4byte	0x6f1
 1268 06ac 17       		.uleb128 0x17
 1269 06ad EE030000 		.4byte	.LASF101
 1270 06b1 01       		.byte	0x1
 1271 06b2 65       		.byte	0x65
 1272 06b3 91060000 		.4byte	0x691
 1273 06b7 2E000000 		.4byte	.LLST1
 1274 06bb 17       		.uleb128 0x17
 1275 06bc 70040000 		.4byte	.LASF89
 1276 06c0 01       		.byte	0x1
 1277 06c1 65       		.byte	0x65
 1278 06c2 29060000 		.4byte	0x629
 1279 06c6 5A000000 		.4byte	.LLST2
 1280 06ca 16       		.uleb128 0x16
 1281 06cb 0C000000 		.4byte	.LVL5
 1282 06cf 7A090000 		.4byte	0x97a
 1283 06d3 1A       		.uleb128 0x1a
 1284 06d4 14000000 		.4byte	.LVL6
 1285 06d8 81090000 		.4byte	0x981
 1286 06dc E7060000 		.4byte	0x6e7
 1287 06e0 19       		.uleb128 0x19
 1288 06e1 01       		.uleb128 0x1
 1289 06e2 50       		.byte	0x50
 1290 06e3 02       		.uleb128 0x2
 1291 06e4 74       		.byte	0x74
 1292 06e5 00       		.sleb128 0
 1293 06e6 00       		.byte	0
 1294 06e7 16       		.uleb128 0x16
 1295 06e8 1C000000 		.4byte	.LVL7
 1296 06ec 93090000 		.4byte	0x993
 1297 06f0 00       		.byte	0
 1298 06f1 15       		.uleb128 0x15
 1299 06f2 6E000000 		.4byte	.LASF102
 1300 06f6 01       		.byte	0x1
 1301 06f7 7B       		.byte	0x7b
ARM GAS  /var/folders/qh/xwg3v3kj02qbxczjpdb8lzfr0000gn/T//ccSbQd4l.s 			page 24


 1302 06f8 00000000 		.4byte	.LFB43
 1303 06fc 1C000000 		.4byte	.LFE43-.LFB43
 1304 0700 01       		.uleb128 0x1
 1305 0701 9C       		.byte	0x9c
 1306 0702 3C070000 		.4byte	0x73c
 1307 0706 17       		.uleb128 0x17
 1308 0707 EE030000 		.4byte	.LASF101
 1309 070b 01       		.byte	0x1
 1310 070c 7B       		.byte	0x7b
 1311 070d 91060000 		.4byte	0x691
 1312 0711 86000000 		.4byte	.LLST3
 1313 0715 16       		.uleb128 0x16
 1314 0716 0A000000 		.4byte	.LVL11
 1315 071a 7A090000 		.4byte	0x97a
 1316 071e 1A       		.uleb128 0x1a
 1317 071f 10000000 		.4byte	.LVL12
 1318 0723 9A090000 		.4byte	0x99a
 1319 0727 32070000 		.4byte	0x732
 1320 072b 19       		.uleb128 0x19
 1321 072c 01       		.uleb128 0x1
 1322 072d 50       		.byte	0x50
 1323 072e 02       		.uleb128 0x2
 1324 072f 74       		.byte	0x74
 1325 0730 00       		.sleb128 0
 1326 0731 00       		.byte	0
 1327 0732 16       		.uleb128 0x16
 1328 0733 18000000 		.4byte	.LVL13
 1329 0737 93090000 		.4byte	0x993
 1330 073b 00       		.byte	0
 1331 073c 1B       		.uleb128 0x1b
 1332 073d E1050000 		.4byte	.LASF103
 1333 0741 01       		.byte	0x1
 1334 0742 91       		.byte	0x91
 1335 0743 43050000 		.4byte	0x543
 1336 0747 00000000 		.4byte	.LFB44
 1337 074b 04000000 		.4byte	.LFE44-.LFB44
 1338 074f 01       		.uleb128 0x1
 1339 0750 9C       		.byte	0x9c
 1340 0751 65070000 		.4byte	0x765
 1341 0755 17       		.uleb128 0x17
 1342 0756 EE030000 		.4byte	.LASF101
 1343 075a 01       		.byte	0x1
 1344 075b 91       		.byte	0x91
 1345 075c 91060000 		.4byte	0x691
 1346 0760 B2000000 		.4byte	.LLST4
 1347 0764 00       		.byte	0
 1348 0765 1B       		.uleb128 0x1b
 1349 0766 72010000 		.4byte	.LASF104
 1350 076a 01       		.byte	0x1
 1351 076b B2       		.byte	0xb2
 1352 076c E0000000 		.4byte	0xe0
 1353 0770 00000000 		.4byte	.LFB45
 1354 0774 4E000000 		.4byte	.LFE45-.LFB45
 1355 0778 01       		.uleb128 0x1
 1356 0779 9C       		.byte	0x9c
 1357 077a 44080000 		.4byte	0x844
 1358 077e 17       		.uleb128 0x17
ARM GAS  /var/folders/qh/xwg3v3kj02qbxczjpdb8lzfr0000gn/T//ccSbQd4l.s 			page 25


 1359 077f EE030000 		.4byte	.LASF101
 1360 0783 01       		.byte	0x1
 1361 0784 B2       		.byte	0xb2
 1362 0785 91060000 		.4byte	0x691
 1363 0789 D3000000 		.4byte	.LLST5
 1364 078d 17       		.uleb128 0x17
 1365 078e 80050000 		.4byte	.LASF93
 1366 0792 01       		.byte	0x1
 1367 0793 B3       		.byte	0xb3
 1368 0794 38050000 		.4byte	0x538
 1369 0798 0A010000 		.4byte	.LLST6
 1370 079c 17       		.uleb128 0x17
 1371 079d 49020000 		.4byte	.LASF105
 1372 07a1 01       		.byte	0x1
 1373 07a2 B4       		.byte	0xb4
 1374 07a3 9F030000 		.4byte	0x39f
 1375 07a7 2B010000 		.4byte	.LLST7
 1376 07ab 17       		.uleb128 0x17
 1377 07ac C4010000 		.4byte	.LASF106
 1378 07b0 01       		.byte	0x1
 1379 07b1 B5       		.byte	0xb5
 1380 07b2 2C000000 		.4byte	0x2c
 1381 07b6 62010000 		.4byte	.LLST8
 1382 07ba 1C       		.uleb128 0x1c
 1383 07bb DB050000 		.4byte	.LASF107
 1384 07bf 01       		.byte	0x1
 1385 07c0 B6       		.byte	0xb6
 1386 07c1 99030000 		.4byte	0x399
 1387 07c5 02       		.uleb128 0x2
 1388 07c6 91       		.byte	0x91
 1389 07c7 00       		.sleb128 0
 1390 07c8 1C       		.uleb128 0x1c
 1391 07c9 4A000000 		.4byte	.LASF108
 1392 07cd 01       		.byte	0x1
 1393 07ce B7       		.byte	0xb7
 1394 07cf 2C000000 		.4byte	0x2c
 1395 07d3 02       		.uleb128 0x2
 1396 07d4 91       		.byte	0x91
 1397 07d5 04       		.sleb128 4
 1398 07d6 1C       		.uleb128 0x1c
 1399 07d7 58050000 		.4byte	.LASF109
 1400 07db 01       		.byte	0x1
 1401 07dc B8       		.byte	0xb8
 1402 07dd F6000000 		.4byte	0xf6
 1403 07e1 02       		.uleb128 0x2
 1404 07e2 91       		.byte	0x91
 1405 07e3 08       		.sleb128 8
 1406 07e4 1D       		.uleb128 0x1d
 1407 07e5 AB020000 		.4byte	.LASF53
 1408 07e9 01       		.byte	0x1
 1409 07ea B9       		.byte	0xb9
 1410 07eb E0000000 		.4byte	0xe0
 1411 07ef 8E010000 		.4byte	.LLST9
 1412 07f3 16       		.uleb128 0x16
 1413 07f4 12000000 		.4byte	.LVL18
 1414 07f8 7A090000 		.4byte	0x97a
 1415 07fc 1A       		.uleb128 0x1a
ARM GAS  /var/folders/qh/xwg3v3kj02qbxczjpdb8lzfr0000gn/T//ccSbQd4l.s 			page 26


 1416 07fd 32000000 		.4byte	.LVL19
 1417 0801 AC090000 		.4byte	0x9ac
 1418 0805 3A080000 		.4byte	0x83a
 1419 0809 19       		.uleb128 0x19
 1420 080a 01       		.uleb128 0x1
 1421 080b 53       		.byte	0x53
 1422 080c 02       		.uleb128 0x2
 1423 080d 75       		.byte	0x75
 1424 080e 00       		.sleb128 0
 1425 080f 19       		.uleb128 0x19
 1426 0810 01       		.uleb128 0x1
 1427 0811 52       		.byte	0x52
 1428 0812 02       		.uleb128 0x2
 1429 0813 76       		.byte	0x76
 1430 0814 00       		.sleb128 0
 1431 0815 19       		.uleb128 0x19
 1432 0816 01       		.uleb128 0x1
 1433 0817 51       		.byte	0x51
 1434 0818 02       		.uleb128 0x2
 1435 0819 77       		.byte	0x77
 1436 081a 00       		.sleb128 0
 1437 081b 19       		.uleb128 0x19
 1438 081c 01       		.uleb128 0x1
 1439 081d 50       		.byte	0x50
 1440 081e 02       		.uleb128 0x2
 1441 081f 74       		.byte	0x74
 1442 0820 00       		.sleb128 0
 1443 0821 19       		.uleb128 0x19
 1444 0822 02       		.uleb128 0x2
 1445 0823 7D       		.byte	0x7d
 1446 0824 08       		.sleb128 8
 1447 0825 03       		.uleb128 0x3
 1448 0826 91       		.byte	0x91
 1449 0827 08       		.sleb128 8
 1450 0828 06       		.byte	0x6
 1451 0829 19       		.uleb128 0x19
 1452 082a 02       		.uleb128 0x2
 1453 082b 7D       		.byte	0x7d
 1454 082c 04       		.sleb128 4
 1455 082d 03       		.uleb128 0x3
 1456 082e 91       		.byte	0x91
 1457 082f 04       		.sleb128 4
 1458 0830 06       		.byte	0x6
 1459 0831 19       		.uleb128 0x19
 1460 0832 02       		.uleb128 0x2
 1461 0833 7D       		.byte	0x7d
 1462 0834 00       		.sleb128 0
 1463 0835 03       		.uleb128 0x3
 1464 0836 91       		.byte	0x91
 1465 0837 00       		.sleb128 0
 1466 0838 06       		.byte	0x6
 1467 0839 00       		.byte	0
 1468 083a 16       		.uleb128 0x16
 1469 083b 40000000 		.4byte	.LVL21
 1470 083f 93090000 		.4byte	0x993
 1471 0843 00       		.byte	0
 1472 0844 1B       		.uleb128 0x1b
ARM GAS  /var/folders/qh/xwg3v3kj02qbxczjpdb8lzfr0000gn/T//ccSbQd4l.s 			page 27


 1473 0845 D7040000 		.4byte	.LASF110
 1474 0849 01       		.byte	0x1
 1475 084a E5       		.byte	0xe5
 1476 084b E0000000 		.4byte	0xe0
 1477 084f 00000000 		.4byte	.LFB46
 1478 0853 46000000 		.4byte	.LFE46-.LFB46
 1479 0857 01       		.uleb128 0x1
 1480 0858 9C       		.byte	0x9c
 1481 0859 F7080000 		.4byte	0x8f7
 1482 085d 17       		.uleb128 0x17
 1483 085e EE030000 		.4byte	.LASF101
 1484 0862 01       		.byte	0x1
 1485 0863 E5       		.byte	0xe5
 1486 0864 91060000 		.4byte	0x691
 1487 0868 B7010000 		.4byte	.LLST10
 1488 086c 17       		.uleb128 0x17
 1489 086d 80050000 		.4byte	.LASF93
 1490 0871 01       		.byte	0x1
 1491 0872 E6       		.byte	0xe6
 1492 0873 38050000 		.4byte	0x538
 1493 0877 EE010000 		.4byte	.LLST11
 1494 087b 17       		.uleb128 0x17
 1495 087c DB050000 		.4byte	.LASF107
 1496 0880 01       		.byte	0x1
 1497 0881 E7       		.byte	0xe7
 1498 0882 99030000 		.4byte	0x399
 1499 0886 0F020000 		.4byte	.LLST12
 1500 088a 17       		.uleb128 0x17
 1501 088b 4A000000 		.4byte	.LASF108
 1502 088f 01       		.byte	0x1
 1503 0890 E8       		.byte	0xe8
 1504 0891 2C000000 		.4byte	0x2c
 1505 0895 46020000 		.4byte	.LLST13
 1506 0899 1C       		.uleb128 0x1c
 1507 089a 58050000 		.4byte	.LASF109
 1508 089e 01       		.byte	0x1
 1509 089f E9       		.byte	0xe9
 1510 08a0 F6000000 		.4byte	0xf6
 1511 08a4 02       		.uleb128 0x2
 1512 08a5 91       		.byte	0x91
 1513 08a6 00       		.sleb128 0
 1514 08a7 1D       		.uleb128 0x1d
 1515 08a8 AB020000 		.4byte	.LASF53
 1516 08ac 01       		.byte	0x1
 1517 08ad EB       		.byte	0xeb
 1518 08ae E0000000 		.4byte	0xe0
 1519 08b2 72020000 		.4byte	.LLST14
 1520 08b6 16       		.uleb128 0x16
 1521 08b7 12000000 		.4byte	.LVL27
 1522 08bb 7A090000 		.4byte	0x97a
 1523 08bf 1A       		.uleb128 0x1a
 1524 08c0 2A000000 		.4byte	.LVL28
 1525 08c4 E0090000 		.4byte	0x9e0
 1526 08c8 ED080000 		.4byte	0x8ed
 1527 08cc 19       		.uleb128 0x19
 1528 08cd 01       		.uleb128 0x1
 1529 08ce 53       		.byte	0x53
ARM GAS  /var/folders/qh/xwg3v3kj02qbxczjpdb8lzfr0000gn/T//ccSbQd4l.s 			page 28


 1530 08cf 02       		.uleb128 0x2
 1531 08d0 75       		.byte	0x75
 1532 08d1 00       		.sleb128 0
 1533 08d2 19       		.uleb128 0x19
 1534 08d3 01       		.uleb128 0x1
 1535 08d4 52       		.byte	0x52
 1536 08d5 02       		.uleb128 0x2
 1537 08d6 76       		.byte	0x76
 1538 08d7 00       		.sleb128 0
 1539 08d8 19       		.uleb128 0x19
 1540 08d9 01       		.uleb128 0x1
 1541 08da 51       		.byte	0x51
 1542 08db 02       		.uleb128 0x2
 1543 08dc 77       		.byte	0x77
 1544 08dd 00       		.sleb128 0
 1545 08de 19       		.uleb128 0x19
 1546 08df 01       		.uleb128 0x1
 1547 08e0 50       		.byte	0x50
 1548 08e1 02       		.uleb128 0x2
 1549 08e2 74       		.byte	0x74
 1550 08e3 00       		.sleb128 0
 1551 08e4 19       		.uleb128 0x19
 1552 08e5 02       		.uleb128 0x2
 1553 08e6 7D       		.byte	0x7d
 1554 08e7 00       		.sleb128 0
 1555 08e8 03       		.uleb128 0x3
 1556 08e9 91       		.byte	0x91
 1557 08ea 00       		.sleb128 0
 1558 08eb 06       		.byte	0x6
 1559 08ec 00       		.byte	0
 1560 08ed 16       		.uleb128 0x16
 1561 08ee 38000000 		.4byte	.LVL30
 1562 08f2 93090000 		.4byte	0x993
 1563 08f6 00       		.byte	0
 1564 08f7 1E       		.uleb128 0x1e
 1565 08f8 94010000 		.4byte	.LASF111
 1566 08fc 01       		.byte	0x1
 1567 08fd 0D01     		.2byte	0x10d
 1568 08ff 00000000 		.4byte	.LFB47
 1569 0903 0A000000 		.4byte	.LFE47-.LFB47
 1570 0907 01       		.uleb128 0x1
 1571 0908 9C       		.byte	0x9c
 1572 0909 31090000 		.4byte	0x931
 1573 090d 1F       		.uleb128 0x1f
 1574 090e EE030000 		.4byte	.LASF101
 1575 0912 01       		.byte	0x1
 1576 0913 0D01     		.2byte	0x10d
 1577 0915 91060000 		.4byte	0x691
 1578 0919 9B020000 		.4byte	.LLST15
 1579 091d 18       		.uleb128 0x18
 1580 091e 08000000 		.4byte	.LVL37
 1581 0922 0A0A0000 		.4byte	0xa0a
 1582 0926 19       		.uleb128 0x19
 1583 0927 01       		.uleb128 0x1
 1584 0928 50       		.byte	0x50
 1585 0929 05       		.uleb128 0x5
 1586 092a F3       		.byte	0xf3
ARM GAS  /var/folders/qh/xwg3v3kj02qbxczjpdb8lzfr0000gn/T//ccSbQd4l.s 			page 29


 1587 092b 01       		.uleb128 0x1
 1588 092c 50       		.byte	0x50
 1589 092d 23       		.byte	0x23
 1590 092e 0C       		.uleb128 0xc
 1591 092f 00       		.byte	0
 1592 0930 00       		.byte	0
 1593 0931 1E       		.uleb128 0x1e
 1594 0932 C9030000 		.4byte	.LASF112
 1595 0936 01       		.byte	0x1
 1596 0937 2101     		.2byte	0x121
 1597 0939 00000000 		.4byte	.LFB48
 1598 093d 08000000 		.4byte	.LFE48-.LFB48
 1599 0941 01       		.uleb128 0x1
 1600 0942 9C       		.byte	0x9c
 1601 0943 61090000 		.4byte	0x961
 1602 0947 1F       		.uleb128 0x1f
 1603 0948 EE030000 		.4byte	.LASF101
 1604 094c 01       		.byte	0x1
 1605 094d 2101     		.2byte	0x121
 1606 094f 91060000 		.4byte	0x691
 1607 0953 C9020000 		.4byte	.LLST16
 1608 0957 16       		.uleb128 0x16
 1609 0958 06000000 		.4byte	.LVL39
 1610 095c 1B0A0000 		.4byte	0xa1b
 1611 0960 00       		.byte	0
 1612 0961 20       		.uleb128 0x20
 1613 0962 A8010000 		.4byte	.LASF113
 1614 0966 0C       		.byte	0xc
 1615 0967 4001     		.2byte	0x140
 1616 0969 21       		.uleb128 0x21
 1617 096a 5F020000 		.4byte	.LASF115
 1618 096e 08       		.byte	0x8
 1619 096f 31       		.byte	0x31
 1620 0970 7A090000 		.4byte	0x97a
 1621 0974 22       		.uleb128 0x22
 1622 0975 93030000 		.4byte	0x393
 1623 0979 00       		.byte	0
 1624 097a 23       		.uleb128 0x23
 1625 097b A4030000 		.4byte	.LASF114
 1626 097f 0D       		.byte	0xd
 1627 0980 E0       		.byte	0xe0
 1628 0981 24       		.uleb128 0x24
 1629 0982 BB030000 		.4byte	.LASF116
 1630 0986 0C       		.byte	0xc
 1631 0987 4101     		.2byte	0x141
 1632 0989 93090000 		.4byte	0x993
 1633 098d 22       		.uleb128 0x22
 1634 098e 91060000 		.4byte	0x691
 1635 0992 00       		.byte	0
 1636 0993 23       		.uleb128 0x23
 1637 0994 22030000 		.4byte	.LASF117
 1638 0998 0D       		.byte	0xd
 1639 0999 E1       		.byte	0xe1
 1640 099a 24       		.uleb128 0x24
 1641 099b CA040000 		.4byte	.LASF118
 1642 099f 0C       		.byte	0xc
 1643 09a0 4201     		.2byte	0x142
ARM GAS  /var/folders/qh/xwg3v3kj02qbxczjpdb8lzfr0000gn/T//ccSbQd4l.s 			page 30


 1644 09a2 AC090000 		.4byte	0x9ac
 1645 09a6 22       		.uleb128 0x22
 1646 09a7 91060000 		.4byte	0x691
 1647 09ab 00       		.byte	0
 1648 09ac 25       		.uleb128 0x25
 1649 09ad 0F040000 		.4byte	.LASF119
 1650 09b1 0C       		.byte	0xc
 1651 09b2 4301     		.2byte	0x143
 1652 09b4 E0000000 		.4byte	0xe0
 1653 09b8 E0090000 		.4byte	0x9e0
 1654 09bc 22       		.uleb128 0x22
 1655 09bd 91060000 		.4byte	0x691
 1656 09c1 22       		.uleb128 0x22
 1657 09c2 38050000 		.4byte	0x538
 1658 09c6 22       		.uleb128 0x22
 1659 09c7 9F030000 		.4byte	0x39f
 1660 09cb 22       		.uleb128 0x22
 1661 09cc 2C000000 		.4byte	0x2c
 1662 09d0 22       		.uleb128 0x22
 1663 09d1 99030000 		.4byte	0x399
 1664 09d5 22       		.uleb128 0x22
 1665 09d6 2C000000 		.4byte	0x2c
 1666 09da 22       		.uleb128 0x22
 1667 09db F6000000 		.4byte	0xf6
 1668 09df 00       		.byte	0
 1669 09e0 25       		.uleb128 0x25
 1670 09e1 47040000 		.4byte	.LASF120
 1671 09e5 0C       		.byte	0xc
 1672 09e6 4701     		.2byte	0x147
 1673 09e8 E0000000 		.4byte	0xe0
 1674 09ec 0A0A0000 		.4byte	0xa0a
 1675 09f0 22       		.uleb128 0x22
 1676 09f1 91060000 		.4byte	0x691
 1677 09f5 22       		.uleb128 0x22
 1678 09f6 38050000 		.4byte	0x538
 1679 09fa 22       		.uleb128 0x22
 1680 09fb 99030000 		.4byte	0x399
 1681 09ff 22       		.uleb128 0x22
 1682 0a00 2C000000 		.4byte	0x2c
 1683 0a04 22       		.uleb128 0x22
 1684 0a05 F6000000 		.4byte	0xf6
 1685 0a09 00       		.byte	0
 1686 0a0a 21       		.uleb128 0x21
 1687 0a0b 4E050000 		.4byte	.LASF121
 1688 0a0f 08       		.byte	0x8
 1689 0a10 32       		.byte	0x32
 1690 0a11 1B0A0000 		.4byte	0xa1b
 1691 0a15 22       		.uleb128 0x22
 1692 0a16 93030000 		.4byte	0x393
 1693 0a1a 00       		.byte	0
 1694 0a1b 26       		.uleb128 0x26
 1695 0a1c 7F030000 		.4byte	.LASF125
 1696 0a20 08       		.byte	0x8
 1697 0a21 36       		.byte	0x36
 1698 0a22 93030000 		.4byte	0x393
 1699 0a26 00       		.byte	0
 1700              		.section	.debug_abbrev,"",%progbits
ARM GAS  /var/folders/qh/xwg3v3kj02qbxczjpdb8lzfr0000gn/T//ccSbQd4l.s 			page 31


 1701              	.Ldebug_abbrev0:
 1702 0000 01       		.uleb128 0x1
 1703 0001 11       		.uleb128 0x11
 1704 0002 01       		.byte	0x1
 1705 0003 25       		.uleb128 0x25
 1706 0004 0E       		.uleb128 0xe
 1707 0005 13       		.uleb128 0x13
 1708 0006 0B       		.uleb128 0xb
 1709 0007 03       		.uleb128 0x3
 1710 0008 0E       		.uleb128 0xe
 1711 0009 1B       		.uleb128 0x1b
 1712 000a 0E       		.uleb128 0xe
 1713 000b 55       		.uleb128 0x55
 1714 000c 17       		.uleb128 0x17
 1715 000d 11       		.uleb128 0x11
 1716 000e 01       		.uleb128 0x1
 1717 000f 10       		.uleb128 0x10
 1718 0010 17       		.uleb128 0x17
 1719 0011 00       		.byte	0
 1720 0012 00       		.byte	0
 1721 0013 02       		.uleb128 0x2
 1722 0014 24       		.uleb128 0x24
 1723 0015 00       		.byte	0
 1724 0016 0B       		.uleb128 0xb
 1725 0017 0B       		.uleb128 0xb
 1726 0018 3E       		.uleb128 0x3e
 1727 0019 0B       		.uleb128 0xb
 1728 001a 03       		.uleb128 0x3
 1729 001b 08       		.uleb128 0x8
 1730 001c 00       		.byte	0
 1731 001d 00       		.byte	0
 1732 001e 03       		.uleb128 0x3
 1733 001f 16       		.uleb128 0x16
 1734 0020 00       		.byte	0
 1735 0021 03       		.uleb128 0x3
 1736 0022 0E       		.uleb128 0xe
 1737 0023 3A       		.uleb128 0x3a
 1738 0024 0B       		.uleb128 0xb
 1739 0025 3B       		.uleb128 0x3b
 1740 0026 0B       		.uleb128 0xb
 1741 0027 49       		.uleb128 0x49
 1742 0028 13       		.uleb128 0x13
 1743 0029 00       		.byte	0
 1744 002a 00       		.byte	0
 1745 002b 04       		.uleb128 0x4
 1746 002c 24       		.uleb128 0x24
 1747 002d 00       		.byte	0
 1748 002e 0B       		.uleb128 0xb
 1749 002f 0B       		.uleb128 0xb
 1750 0030 3E       		.uleb128 0x3e
 1751 0031 0B       		.uleb128 0xb
 1752 0032 03       		.uleb128 0x3
 1753 0033 0E       		.uleb128 0xe
 1754 0034 00       		.byte	0
 1755 0035 00       		.byte	0
 1756 0036 05       		.uleb128 0x5
 1757 0037 13       		.uleb128 0x13
ARM GAS  /var/folders/qh/xwg3v3kj02qbxczjpdb8lzfr0000gn/T//ccSbQd4l.s 			page 32


 1758 0038 01       		.byte	0x1
 1759 0039 03       		.uleb128 0x3
 1760 003a 0E       		.uleb128 0xe
 1761 003b 0B       		.uleb128 0xb
 1762 003c 0B       		.uleb128 0xb
 1763 003d 3A       		.uleb128 0x3a
 1764 003e 0B       		.uleb128 0xb
 1765 003f 3B       		.uleb128 0x3b
 1766 0040 0B       		.uleb128 0xb
 1767 0041 01       		.uleb128 0x1
 1768 0042 13       		.uleb128 0x13
 1769 0043 00       		.byte	0
 1770 0044 00       		.byte	0
 1771 0045 06       		.uleb128 0x6
 1772 0046 0D       		.uleb128 0xd
 1773 0047 00       		.byte	0
 1774 0048 03       		.uleb128 0x3
 1775 0049 0E       		.uleb128 0xe
 1776 004a 3A       		.uleb128 0x3a
 1777 004b 0B       		.uleb128 0xb
 1778 004c 3B       		.uleb128 0x3b
 1779 004d 0B       		.uleb128 0xb
 1780 004e 49       		.uleb128 0x49
 1781 004f 13       		.uleb128 0x13
 1782 0050 38       		.uleb128 0x38
 1783 0051 0B       		.uleb128 0xb
 1784 0052 00       		.byte	0
 1785 0053 00       		.byte	0
 1786 0054 07       		.uleb128 0x7
 1787 0055 0D       		.uleb128 0xd
 1788 0056 00       		.byte	0
 1789 0057 03       		.uleb128 0x3
 1790 0058 08       		.uleb128 0x8
 1791 0059 3A       		.uleb128 0x3a
 1792 005a 0B       		.uleb128 0xb
 1793 005b 3B       		.uleb128 0x3b
 1794 005c 0B       		.uleb128 0xb
 1795 005d 49       		.uleb128 0x49
 1796 005e 13       		.uleb128 0x13
 1797 005f 38       		.uleb128 0x38
 1798 0060 0B       		.uleb128 0xb
 1799 0061 00       		.byte	0
 1800 0062 00       		.byte	0
 1801 0063 08       		.uleb128 0x8
 1802 0064 13       		.uleb128 0x13
 1803 0065 01       		.byte	0x1
 1804 0066 0B       		.uleb128 0xb
 1805 0067 0B       		.uleb128 0xb
 1806 0068 3A       		.uleb128 0x3a
 1807 0069 0B       		.uleb128 0xb
 1808 006a 3B       		.uleb128 0x3b
 1809 006b 0B       		.uleb128 0xb
 1810 006c 01       		.uleb128 0x1
 1811 006d 13       		.uleb128 0x13
 1812 006e 00       		.byte	0
 1813 006f 00       		.byte	0
 1814 0070 09       		.uleb128 0x9
ARM GAS  /var/folders/qh/xwg3v3kj02qbxczjpdb8lzfr0000gn/T//ccSbQd4l.s 			page 33


 1815 0071 0F       		.uleb128 0xf
 1816 0072 00       		.byte	0
 1817 0073 0B       		.uleb128 0xb
 1818 0074 0B       		.uleb128 0xb
 1819 0075 49       		.uleb128 0x49
 1820 0076 13       		.uleb128 0x13
 1821 0077 00       		.byte	0
 1822 0078 00       		.byte	0
 1823 0079 0A       		.uleb128 0xa
 1824 007a 0F       		.uleb128 0xf
 1825 007b 00       		.byte	0
 1826 007c 0B       		.uleb128 0xb
 1827 007d 0B       		.uleb128 0xb
 1828 007e 00       		.byte	0
 1829 007f 00       		.byte	0
 1830 0080 0B       		.uleb128 0xb
 1831 0081 35       		.uleb128 0x35
 1832 0082 00       		.byte	0
 1833 0083 49       		.uleb128 0x49
 1834 0084 13       		.uleb128 0x13
 1835 0085 00       		.byte	0
 1836 0086 00       		.byte	0
 1837 0087 0C       		.uleb128 0xc
 1838 0088 17       		.uleb128 0x17
 1839 0089 01       		.byte	0x1
 1840 008a 0B       		.uleb128 0xb
 1841 008b 0B       		.uleb128 0xb
 1842 008c 3A       		.uleb128 0x3a
 1843 008d 0B       		.uleb128 0xb
 1844 008e 3B       		.uleb128 0x3b
 1845 008f 0B       		.uleb128 0xb
 1846 0090 01       		.uleb128 0x1
 1847 0091 13       		.uleb128 0x13
 1848 0092 00       		.byte	0
 1849 0093 00       		.byte	0
 1850 0094 0D       		.uleb128 0xd
 1851 0095 0D       		.uleb128 0xd
 1852 0096 00       		.byte	0
 1853 0097 03       		.uleb128 0x3
 1854 0098 0E       		.uleb128 0xe
 1855 0099 3A       		.uleb128 0x3a
 1856 009a 0B       		.uleb128 0xb
 1857 009b 3B       		.uleb128 0x3b
 1858 009c 0B       		.uleb128 0xb
 1859 009d 49       		.uleb128 0x49
 1860 009e 13       		.uleb128 0x13
 1861 009f 00       		.byte	0
 1862 00a0 00       		.byte	0
 1863 00a1 0E       		.uleb128 0xe
 1864 00a2 26       		.uleb128 0x26
 1865 00a3 00       		.byte	0
 1866 00a4 49       		.uleb128 0x49
 1867 00a5 13       		.uleb128 0x13
 1868 00a6 00       		.byte	0
 1869 00a7 00       		.byte	0
 1870 00a8 0F       		.uleb128 0xf
 1871 00a9 13       		.uleb128 0x13
ARM GAS  /var/folders/qh/xwg3v3kj02qbxczjpdb8lzfr0000gn/T//ccSbQd4l.s 			page 34


 1872 00aa 01       		.byte	0x1
 1873 00ab 0B       		.uleb128 0xb
 1874 00ac 0B       		.uleb128 0xb
 1875 00ad 3A       		.uleb128 0x3a
 1876 00ae 0B       		.uleb128 0xb
 1877 00af 3B       		.uleb128 0x3b
 1878 00b0 05       		.uleb128 0x5
 1879 00b1 01       		.uleb128 0x1
 1880 00b2 13       		.uleb128 0x13
 1881 00b3 00       		.byte	0
 1882 00b4 00       		.byte	0
 1883 00b5 10       		.uleb128 0x10
 1884 00b6 0D       		.uleb128 0xd
 1885 00b7 00       		.byte	0
 1886 00b8 03       		.uleb128 0x3
 1887 00b9 08       		.uleb128 0x8
 1888 00ba 3A       		.uleb128 0x3a
 1889 00bb 0B       		.uleb128 0xb
 1890 00bc 3B       		.uleb128 0x3b
 1891 00bd 05       		.uleb128 0x5
 1892 00be 49       		.uleb128 0x49
 1893 00bf 13       		.uleb128 0x13
 1894 00c0 38       		.uleb128 0x38
 1895 00c1 0B       		.uleb128 0xb
 1896 00c2 00       		.byte	0
 1897 00c3 00       		.byte	0
 1898 00c4 11       		.uleb128 0x11
 1899 00c5 0D       		.uleb128 0xd
 1900 00c6 00       		.byte	0
 1901 00c7 03       		.uleb128 0x3
 1902 00c8 0E       		.uleb128 0xe
 1903 00c9 3A       		.uleb128 0x3a
 1904 00ca 0B       		.uleb128 0xb
 1905 00cb 3B       		.uleb128 0x3b
 1906 00cc 05       		.uleb128 0x5
 1907 00cd 49       		.uleb128 0x49
 1908 00ce 13       		.uleb128 0x13
 1909 00cf 38       		.uleb128 0x38
 1910 00d0 0B       		.uleb128 0xb
 1911 00d1 00       		.byte	0
 1912 00d2 00       		.byte	0
 1913 00d3 12       		.uleb128 0x12
 1914 00d4 16       		.uleb128 0x16
 1915 00d5 00       		.byte	0
 1916 00d6 03       		.uleb128 0x3
 1917 00d7 0E       		.uleb128 0xe
 1918 00d8 3A       		.uleb128 0x3a
 1919 00d9 0B       		.uleb128 0xb
 1920 00da 3B       		.uleb128 0x3b
 1921 00db 05       		.uleb128 0x5
 1922 00dc 49       		.uleb128 0x49
 1923 00dd 13       		.uleb128 0x13
 1924 00de 00       		.byte	0
 1925 00df 00       		.byte	0
 1926 00e0 13       		.uleb128 0x13
 1927 00e1 04       		.uleb128 0x4
 1928 00e2 01       		.byte	0x1
ARM GAS  /var/folders/qh/xwg3v3kj02qbxczjpdb8lzfr0000gn/T//ccSbQd4l.s 			page 35


 1929 00e3 0B       		.uleb128 0xb
 1930 00e4 0B       		.uleb128 0xb
 1931 00e5 3A       		.uleb128 0x3a
 1932 00e6 0B       		.uleb128 0xb
 1933 00e7 3B       		.uleb128 0x3b
 1934 00e8 0B       		.uleb128 0xb
 1935 00e9 01       		.uleb128 0x1
 1936 00ea 13       		.uleb128 0x13
 1937 00eb 00       		.byte	0
 1938 00ec 00       		.byte	0
 1939 00ed 14       		.uleb128 0x14
 1940 00ee 28       		.uleb128 0x28
 1941 00ef 00       		.byte	0
 1942 00f0 03       		.uleb128 0x3
 1943 00f1 0E       		.uleb128 0xe
 1944 00f2 1C       		.uleb128 0x1c
 1945 00f3 0D       		.uleb128 0xd
 1946 00f4 00       		.byte	0
 1947 00f5 00       		.byte	0
 1948 00f6 15       		.uleb128 0x15
 1949 00f7 2E       		.uleb128 0x2e
 1950 00f8 01       		.byte	0x1
 1951 00f9 3F       		.uleb128 0x3f
 1952 00fa 19       		.uleb128 0x19
 1953 00fb 03       		.uleb128 0x3
 1954 00fc 0E       		.uleb128 0xe
 1955 00fd 3A       		.uleb128 0x3a
 1956 00fe 0B       		.uleb128 0xb
 1957 00ff 3B       		.uleb128 0x3b
 1958 0100 0B       		.uleb128 0xb
 1959 0101 27       		.uleb128 0x27
 1960 0102 19       		.uleb128 0x19
 1961 0103 11       		.uleb128 0x11
 1962 0104 01       		.uleb128 0x1
 1963 0105 12       		.uleb128 0x12
 1964 0106 06       		.uleb128 0x6
 1965 0107 40       		.uleb128 0x40
 1966 0108 18       		.uleb128 0x18
 1967 0109 9742     		.uleb128 0x2117
 1968 010b 19       		.uleb128 0x19
 1969 010c 01       		.uleb128 0x1
 1970 010d 13       		.uleb128 0x13
 1971 010e 00       		.byte	0
 1972 010f 00       		.byte	0
 1973 0110 16       		.uleb128 0x16
 1974 0111 898201   		.uleb128 0x4109
 1975 0114 00       		.byte	0
 1976 0115 11       		.uleb128 0x11
 1977 0116 01       		.uleb128 0x1
 1978 0117 31       		.uleb128 0x31
 1979 0118 13       		.uleb128 0x13
 1980 0119 00       		.byte	0
 1981 011a 00       		.byte	0
 1982 011b 17       		.uleb128 0x17
 1983 011c 05       		.uleb128 0x5
 1984 011d 00       		.byte	0
 1985 011e 03       		.uleb128 0x3
ARM GAS  /var/folders/qh/xwg3v3kj02qbxczjpdb8lzfr0000gn/T//ccSbQd4l.s 			page 36


 1986 011f 0E       		.uleb128 0xe
 1987 0120 3A       		.uleb128 0x3a
 1988 0121 0B       		.uleb128 0xb
 1989 0122 3B       		.uleb128 0x3b
 1990 0123 0B       		.uleb128 0xb
 1991 0124 49       		.uleb128 0x49
 1992 0125 13       		.uleb128 0x13
 1993 0126 02       		.uleb128 0x2
 1994 0127 17       		.uleb128 0x17
 1995 0128 00       		.byte	0
 1996 0129 00       		.byte	0
 1997 012a 18       		.uleb128 0x18
 1998 012b 898201   		.uleb128 0x4109
 1999 012e 01       		.byte	0x1
 2000 012f 11       		.uleb128 0x11
 2001 0130 01       		.uleb128 0x1
 2002 0131 31       		.uleb128 0x31
 2003 0132 13       		.uleb128 0x13
 2004 0133 00       		.byte	0
 2005 0134 00       		.byte	0
 2006 0135 19       		.uleb128 0x19
 2007 0136 8A8201   		.uleb128 0x410a
 2008 0139 00       		.byte	0
 2009 013a 02       		.uleb128 0x2
 2010 013b 18       		.uleb128 0x18
 2011 013c 9142     		.uleb128 0x2111
 2012 013e 18       		.uleb128 0x18
 2013 013f 00       		.byte	0
 2014 0140 00       		.byte	0
 2015 0141 1A       		.uleb128 0x1a
 2016 0142 898201   		.uleb128 0x4109
 2017 0145 01       		.byte	0x1
 2018 0146 11       		.uleb128 0x11
 2019 0147 01       		.uleb128 0x1
 2020 0148 31       		.uleb128 0x31
 2021 0149 13       		.uleb128 0x13
 2022 014a 01       		.uleb128 0x1
 2023 014b 13       		.uleb128 0x13
 2024 014c 00       		.byte	0
 2025 014d 00       		.byte	0
 2026 014e 1B       		.uleb128 0x1b
 2027 014f 2E       		.uleb128 0x2e
 2028 0150 01       		.byte	0x1
 2029 0151 3F       		.uleb128 0x3f
 2030 0152 19       		.uleb128 0x19
 2031 0153 03       		.uleb128 0x3
 2032 0154 0E       		.uleb128 0xe
 2033 0155 3A       		.uleb128 0x3a
 2034 0156 0B       		.uleb128 0xb
 2035 0157 3B       		.uleb128 0x3b
 2036 0158 0B       		.uleb128 0xb
 2037 0159 27       		.uleb128 0x27
 2038 015a 19       		.uleb128 0x19
 2039 015b 49       		.uleb128 0x49
 2040 015c 13       		.uleb128 0x13
 2041 015d 11       		.uleb128 0x11
 2042 015e 01       		.uleb128 0x1
ARM GAS  /var/folders/qh/xwg3v3kj02qbxczjpdb8lzfr0000gn/T//ccSbQd4l.s 			page 37


 2043 015f 12       		.uleb128 0x12
 2044 0160 06       		.uleb128 0x6
 2045 0161 40       		.uleb128 0x40
 2046 0162 18       		.uleb128 0x18
 2047 0163 9742     		.uleb128 0x2117
 2048 0165 19       		.uleb128 0x19
 2049 0166 01       		.uleb128 0x1
 2050 0167 13       		.uleb128 0x13
 2051 0168 00       		.byte	0
 2052 0169 00       		.byte	0
 2053 016a 1C       		.uleb128 0x1c
 2054 016b 05       		.uleb128 0x5
 2055 016c 00       		.byte	0
 2056 016d 03       		.uleb128 0x3
 2057 016e 0E       		.uleb128 0xe
 2058 016f 3A       		.uleb128 0x3a
 2059 0170 0B       		.uleb128 0xb
 2060 0171 3B       		.uleb128 0x3b
 2061 0172 0B       		.uleb128 0xb
 2062 0173 49       		.uleb128 0x49
 2063 0174 13       		.uleb128 0x13
 2064 0175 02       		.uleb128 0x2
 2065 0176 18       		.uleb128 0x18
 2066 0177 00       		.byte	0
 2067 0178 00       		.byte	0
 2068 0179 1D       		.uleb128 0x1d
 2069 017a 34       		.uleb128 0x34
 2070 017b 00       		.byte	0
 2071 017c 03       		.uleb128 0x3
 2072 017d 0E       		.uleb128 0xe
 2073 017e 3A       		.uleb128 0x3a
 2074 017f 0B       		.uleb128 0xb
 2075 0180 3B       		.uleb128 0x3b
 2076 0181 0B       		.uleb128 0xb
 2077 0182 49       		.uleb128 0x49
 2078 0183 13       		.uleb128 0x13
 2079 0184 02       		.uleb128 0x2
 2080 0185 17       		.uleb128 0x17
 2081 0186 00       		.byte	0
 2082 0187 00       		.byte	0
 2083 0188 1E       		.uleb128 0x1e
 2084 0189 2E       		.uleb128 0x2e
 2085 018a 01       		.byte	0x1
 2086 018b 3F       		.uleb128 0x3f
 2087 018c 19       		.uleb128 0x19
 2088 018d 03       		.uleb128 0x3
 2089 018e 0E       		.uleb128 0xe
 2090 018f 3A       		.uleb128 0x3a
 2091 0190 0B       		.uleb128 0xb
 2092 0191 3B       		.uleb128 0x3b
 2093 0192 05       		.uleb128 0x5
 2094 0193 27       		.uleb128 0x27
 2095 0194 19       		.uleb128 0x19
 2096 0195 11       		.uleb128 0x11
 2097 0196 01       		.uleb128 0x1
 2098 0197 12       		.uleb128 0x12
 2099 0198 06       		.uleb128 0x6
ARM GAS  /var/folders/qh/xwg3v3kj02qbxczjpdb8lzfr0000gn/T//ccSbQd4l.s 			page 38


 2100 0199 40       		.uleb128 0x40
 2101 019a 18       		.uleb128 0x18
 2102 019b 9742     		.uleb128 0x2117
 2103 019d 19       		.uleb128 0x19
 2104 019e 01       		.uleb128 0x1
 2105 019f 13       		.uleb128 0x13
 2106 01a0 00       		.byte	0
 2107 01a1 00       		.byte	0
 2108 01a2 1F       		.uleb128 0x1f
 2109 01a3 05       		.uleb128 0x5
 2110 01a4 00       		.byte	0
 2111 01a5 03       		.uleb128 0x3
 2112 01a6 0E       		.uleb128 0xe
 2113 01a7 3A       		.uleb128 0x3a
 2114 01a8 0B       		.uleb128 0xb
 2115 01a9 3B       		.uleb128 0x3b
 2116 01aa 05       		.uleb128 0x5
 2117 01ab 49       		.uleb128 0x49
 2118 01ac 13       		.uleb128 0x13
 2119 01ad 02       		.uleb128 0x2
 2120 01ae 17       		.uleb128 0x17
 2121 01af 00       		.byte	0
 2122 01b0 00       		.byte	0
 2123 01b1 20       		.uleb128 0x20
 2124 01b2 2E       		.uleb128 0x2e
 2125 01b3 00       		.byte	0
 2126 01b4 3F       		.uleb128 0x3f
 2127 01b5 19       		.uleb128 0x19
 2128 01b6 03       		.uleb128 0x3
 2129 01b7 0E       		.uleb128 0xe
 2130 01b8 3A       		.uleb128 0x3a
 2131 01b9 0B       		.uleb128 0xb
 2132 01ba 3B       		.uleb128 0x3b
 2133 01bb 05       		.uleb128 0x5
 2134 01bc 27       		.uleb128 0x27
 2135 01bd 19       		.uleb128 0x19
 2136 01be 3C       		.uleb128 0x3c
 2137 01bf 19       		.uleb128 0x19
 2138 01c0 00       		.byte	0
 2139 01c1 00       		.byte	0
 2140 01c2 21       		.uleb128 0x21
 2141 01c3 2E       		.uleb128 0x2e
 2142 01c4 01       		.byte	0x1
 2143 01c5 3F       		.uleb128 0x3f
 2144 01c6 19       		.uleb128 0x19
 2145 01c7 03       		.uleb128 0x3
 2146 01c8 0E       		.uleb128 0xe
 2147 01c9 3A       		.uleb128 0x3a
 2148 01ca 0B       		.uleb128 0xb
 2149 01cb 3B       		.uleb128 0x3b
 2150 01cc 0B       		.uleb128 0xb
 2151 01cd 27       		.uleb128 0x27
 2152 01ce 19       		.uleb128 0x19
 2153 01cf 3C       		.uleb128 0x3c
 2154 01d0 19       		.uleb128 0x19
 2155 01d1 01       		.uleb128 0x1
 2156 01d2 13       		.uleb128 0x13
ARM GAS  /var/folders/qh/xwg3v3kj02qbxczjpdb8lzfr0000gn/T//ccSbQd4l.s 			page 39


 2157 01d3 00       		.byte	0
 2158 01d4 00       		.byte	0
 2159 01d5 22       		.uleb128 0x22
 2160 01d6 05       		.uleb128 0x5
 2161 01d7 00       		.byte	0
 2162 01d8 49       		.uleb128 0x49
 2163 01d9 13       		.uleb128 0x13
 2164 01da 00       		.byte	0
 2165 01db 00       		.byte	0
 2166 01dc 23       		.uleb128 0x23
 2167 01dd 2E       		.uleb128 0x2e
 2168 01de 00       		.byte	0
 2169 01df 3F       		.uleb128 0x3f
 2170 01e0 19       		.uleb128 0x19
 2171 01e1 03       		.uleb128 0x3
 2172 01e2 0E       		.uleb128 0xe
 2173 01e3 3A       		.uleb128 0x3a
 2174 01e4 0B       		.uleb128 0xb
 2175 01e5 3B       		.uleb128 0x3b
 2176 01e6 0B       		.uleb128 0xb
 2177 01e7 27       		.uleb128 0x27
 2178 01e8 19       		.uleb128 0x19
 2179 01e9 3C       		.uleb128 0x3c
 2180 01ea 19       		.uleb128 0x19
 2181 01eb 00       		.byte	0
 2182 01ec 00       		.byte	0
 2183 01ed 24       		.uleb128 0x24
 2184 01ee 2E       		.uleb128 0x2e
 2185 01ef 01       		.byte	0x1
 2186 01f0 3F       		.uleb128 0x3f
 2187 01f1 19       		.uleb128 0x19
 2188 01f2 03       		.uleb128 0x3
 2189 01f3 0E       		.uleb128 0xe
 2190 01f4 3A       		.uleb128 0x3a
 2191 01f5 0B       		.uleb128 0xb
 2192 01f6 3B       		.uleb128 0x3b
 2193 01f7 05       		.uleb128 0x5
 2194 01f8 27       		.uleb128 0x27
 2195 01f9 19       		.uleb128 0x19
 2196 01fa 3C       		.uleb128 0x3c
 2197 01fb 19       		.uleb128 0x19
 2198 01fc 01       		.uleb128 0x1
 2199 01fd 13       		.uleb128 0x13
 2200 01fe 00       		.byte	0
 2201 01ff 00       		.byte	0
 2202 0200 25       		.uleb128 0x25
 2203 0201 2E       		.uleb128 0x2e
 2204 0202 01       		.byte	0x1
 2205 0203 3F       		.uleb128 0x3f
 2206 0204 19       		.uleb128 0x19
 2207 0205 03       		.uleb128 0x3
 2208 0206 0E       		.uleb128 0xe
 2209 0207 3A       		.uleb128 0x3a
 2210 0208 0B       		.uleb128 0xb
 2211 0209 3B       		.uleb128 0x3b
 2212 020a 05       		.uleb128 0x5
 2213 020b 27       		.uleb128 0x27
ARM GAS  /var/folders/qh/xwg3v3kj02qbxczjpdb8lzfr0000gn/T//ccSbQd4l.s 			page 40


 2214 020c 19       		.uleb128 0x19
 2215 020d 49       		.uleb128 0x49
 2216 020e 13       		.uleb128 0x13
 2217 020f 3C       		.uleb128 0x3c
 2218 0210 19       		.uleb128 0x19
 2219 0211 01       		.uleb128 0x1
 2220 0212 13       		.uleb128 0x13
 2221 0213 00       		.byte	0
 2222 0214 00       		.byte	0
 2223 0215 26       		.uleb128 0x26
 2224 0216 2E       		.uleb128 0x2e
 2225 0217 00       		.byte	0
 2226 0218 3F       		.uleb128 0x3f
 2227 0219 19       		.uleb128 0x19
 2228 021a 03       		.uleb128 0x3
 2229 021b 0E       		.uleb128 0xe
 2230 021c 3A       		.uleb128 0x3a
 2231 021d 0B       		.uleb128 0xb
 2232 021e 3B       		.uleb128 0x3b
 2233 021f 0B       		.uleb128 0xb
 2234 0220 27       		.uleb128 0x27
 2235 0221 19       		.uleb128 0x19
 2236 0222 49       		.uleb128 0x49
 2237 0223 13       		.uleb128 0x13
 2238 0224 3C       		.uleb128 0x3c
 2239 0225 19       		.uleb128 0x19
 2240 0226 00       		.byte	0
 2241 0227 00       		.byte	0
 2242 0228 00       		.byte	0
 2243              		.section	.debug_loc,"",%progbits
 2244              	.Ldebug_loc0:
 2245              	.LLST0:
 2246 0000 00000000 		.4byte	.LVL1
 2247 0004 0C000000 		.4byte	.LVL2
 2248 0008 0100     		.2byte	0x1
 2249 000a 50       		.byte	0x50
 2250 000b 0C000000 		.4byte	.LVL2
 2251 000f 0F000000 		.4byte	.LVL3-1
 2252 0013 0300     		.2byte	0x3
 2253 0015 70       		.byte	0x70
 2254 0016 74       		.sleb128 -12
 2255 0017 9F       		.byte	0x9f
 2256 0018 0F000000 		.4byte	.LVL3-1
 2257 001c 12000000 		.4byte	.LFE41
 2258 0020 0400     		.2byte	0x4
 2259 0022 F3       		.byte	0xf3
 2260 0023 01       		.uleb128 0x1
 2261 0024 50       		.byte	0x50
 2262 0025 9F       		.byte	0x9f
 2263 0026 00000000 		.4byte	0
 2264 002a 00000000 		.4byte	0
 2265              	.LLST1:
 2266 002e 00000000 		.4byte	.LVL4
 2267 0032 0B000000 		.4byte	.LVL5-1
 2268 0036 0100     		.2byte	0x1
 2269 0038 50       		.byte	0x50
 2270 0039 0B000000 		.4byte	.LVL5-1
ARM GAS  /var/folders/qh/xwg3v3kj02qbxczjpdb8lzfr0000gn/T//ccSbQd4l.s 			page 41


 2271 003d 1E000000 		.4byte	.LVL8
 2272 0041 0100     		.2byte	0x1
 2273 0043 54       		.byte	0x54
 2274 0044 1E000000 		.4byte	.LVL8
 2275 0048 20000000 		.4byte	.LFE42
 2276 004c 0400     		.2byte	0x4
 2277 004e F3       		.byte	0xf3
 2278 004f 01       		.uleb128 0x1
 2279 0050 50       		.byte	0x50
 2280 0051 9F       		.byte	0x9f
 2281 0052 00000000 		.4byte	0
 2282 0056 00000000 		.4byte	0
 2283              	.LLST2:
 2284 005a 00000000 		.4byte	.LVL4
 2285 005e 0B000000 		.4byte	.LVL5-1
 2286 0062 0100     		.2byte	0x1
 2287 0064 51       		.byte	0x51
 2288 0065 0B000000 		.4byte	.LVL5-1
 2289 0069 1E000000 		.4byte	.LVL9
 2290 006d 0100     		.2byte	0x1
 2291 006f 55       		.byte	0x55
 2292 0070 1E000000 		.4byte	.LVL9
 2293 0074 20000000 		.4byte	.LFE42
 2294 0078 0400     		.2byte	0x4
 2295 007a F3       		.byte	0xf3
 2296 007b 01       		.uleb128 0x1
 2297 007c 51       		.byte	0x51
 2298 007d 9F       		.byte	0x9f
 2299 007e 00000000 		.4byte	0
 2300 0082 00000000 		.4byte	0
 2301              	.LLST3:
 2302 0086 00000000 		.4byte	.LVL10
 2303 008a 09000000 		.4byte	.LVL11-1
 2304 008e 0100     		.2byte	0x1
 2305 0090 50       		.byte	0x50
 2306 0091 09000000 		.4byte	.LVL11-1
 2307 0095 1A000000 		.4byte	.LVL14
 2308 0099 0100     		.2byte	0x1
 2309 009b 54       		.byte	0x54
 2310 009c 1A000000 		.4byte	.LVL14
 2311 00a0 1C000000 		.4byte	.LFE43
 2312 00a4 0400     		.2byte	0x4
 2313 00a6 F3       		.byte	0xf3
 2314 00a7 01       		.uleb128 0x1
 2315 00a8 50       		.byte	0x50
 2316 00a9 9F       		.byte	0x9f
 2317 00aa 00000000 		.4byte	0
 2318 00ae 00000000 		.4byte	0
 2319              	.LLST4:
 2320 00b2 00000000 		.4byte	.LVL15
 2321 00b6 02000000 		.4byte	.LVL16
 2322 00ba 0100     		.2byte	0x1
 2323 00bc 50       		.byte	0x50
 2324 00bd 02000000 		.4byte	.LVL16
 2325 00c1 04000000 		.4byte	.LFE44
 2326 00c5 0400     		.2byte	0x4
 2327 00c7 F3       		.byte	0xf3
ARM GAS  /var/folders/qh/xwg3v3kj02qbxczjpdb8lzfr0000gn/T//ccSbQd4l.s 			page 42


 2328 00c8 01       		.uleb128 0x1
 2329 00c9 50       		.byte	0x50
 2330 00ca 9F       		.byte	0x9f
 2331 00cb 00000000 		.4byte	0
 2332 00cf 00000000 		.4byte	0
 2333              	.LLST5:
 2334 00d3 00000000 		.4byte	.LVL17
 2335 00d7 11000000 		.4byte	.LVL18-1
 2336 00db 0100     		.2byte	0x1
 2337 00dd 50       		.byte	0x50
 2338 00de 11000000 		.4byte	.LVL18-1
 2339 00e2 46000000 		.4byte	.LVL22
 2340 00e6 0100     		.2byte	0x1
 2341 00e8 54       		.byte	0x54
 2342 00e9 46000000 		.4byte	.LVL22
 2343 00ed 48000000 		.4byte	.LVL25
 2344 00f1 0400     		.2byte	0x4
 2345 00f3 F3       		.byte	0xf3
 2346 00f4 01       		.uleb128 0x1
 2347 00f5 50       		.byte	0x50
 2348 00f6 9F       		.byte	0x9f
 2349 00f7 48000000 		.4byte	.LVL25
 2350 00fb 4E000000 		.4byte	.LFE45
 2351 00ff 0100     		.2byte	0x1
 2352 0101 54       		.byte	0x54
 2353 0102 00000000 		.4byte	0
 2354 0106 00000000 		.4byte	0
 2355              	.LLST6:
 2356 010a 00000000 		.4byte	.LVL17
 2357 010e 11000000 		.4byte	.LVL18-1
 2358 0112 0100     		.2byte	0x1
 2359 0114 51       		.byte	0x51
 2360 0115 11000000 		.4byte	.LVL18-1
 2361 0119 4E000000 		.4byte	.LFE45
 2362 011d 0400     		.2byte	0x4
 2363 011f F3       		.byte	0xf3
 2364 0120 01       		.uleb128 0x1
 2365 0121 51       		.byte	0x51
 2366 0122 9F       		.byte	0x9f
 2367 0123 00000000 		.4byte	0
 2368 0127 00000000 		.4byte	0
 2369              	.LLST7:
 2370 012b 00000000 		.4byte	.LVL17
 2371 012f 11000000 		.4byte	.LVL18-1
 2372 0133 0100     		.2byte	0x1
 2373 0135 52       		.byte	0x52
 2374 0136 11000000 		.4byte	.LVL18-1
 2375 013a 46000000 		.4byte	.LVL24
 2376 013e 0100     		.2byte	0x1
 2377 0140 56       		.byte	0x56
 2378 0141 46000000 		.4byte	.LVL24
 2379 0145 48000000 		.4byte	.LVL25
 2380 0149 0400     		.2byte	0x4
 2381 014b F3       		.byte	0xf3
 2382 014c 01       		.uleb128 0x1
 2383 014d 52       		.byte	0x52
 2384 014e 9F       		.byte	0x9f
ARM GAS  /var/folders/qh/xwg3v3kj02qbxczjpdb8lzfr0000gn/T//ccSbQd4l.s 			page 43


 2385 014f 48000000 		.4byte	.LVL25
 2386 0153 4E000000 		.4byte	.LFE45
 2387 0157 0100     		.2byte	0x1
 2388 0159 56       		.byte	0x56
 2389 015a 00000000 		.4byte	0
 2390 015e 00000000 		.4byte	0
 2391              	.LLST8:
 2392 0162 00000000 		.4byte	.LVL17
 2393 0166 11000000 		.4byte	.LVL18-1
 2394 016a 0100     		.2byte	0x1
 2395 016c 53       		.byte	0x53
 2396 016d 11000000 		.4byte	.LVL18-1
 2397 0171 34000000 		.4byte	.LVL20
 2398 0175 0100     		.2byte	0x1
 2399 0177 55       		.byte	0x55
 2400 0178 34000000 		.4byte	.LVL20
 2401 017c 4E000000 		.4byte	.LFE45
 2402 0180 0400     		.2byte	0x4
 2403 0182 F3       		.byte	0xf3
 2404 0183 01       		.uleb128 0x1
 2405 0184 53       		.byte	0x53
 2406 0185 9F       		.byte	0x9f
 2407 0186 00000000 		.4byte	0
 2408 018a 00000000 		.4byte	0
 2409              	.LLST9:
 2410 018e 34000000 		.4byte	.LVL20
 2411 0192 3F000000 		.4byte	.LVL21-1
 2412 0196 0100     		.2byte	0x1
 2413 0198 50       		.byte	0x50
 2414 0199 3F000000 		.4byte	.LVL21-1
 2415 019d 46000000 		.4byte	.LVL23
 2416 01a1 0100     		.2byte	0x1
 2417 01a3 55       		.byte	0x55
 2418 01a4 46000000 		.4byte	.LVL23
 2419 01a8 4E000000 		.4byte	.LFE45
 2420 01ac 0100     		.2byte	0x1
 2421 01ae 50       		.byte	0x50
 2422 01af 00000000 		.4byte	0
 2423 01b3 00000000 		.4byte	0
 2424              	.LLST10:
 2425 01b7 00000000 		.4byte	.LVL26
 2426 01bb 11000000 		.4byte	.LVL27-1
 2427 01bf 0100     		.2byte	0x1
 2428 01c1 50       		.byte	0x50
 2429 01c2 11000000 		.4byte	.LVL27-1
 2430 01c6 3E000000 		.4byte	.LVL31
 2431 01ca 0100     		.2byte	0x1
 2432 01cc 54       		.byte	0x54
 2433 01cd 3E000000 		.4byte	.LVL31
 2434 01d1 40000000 		.4byte	.LVL34
 2435 01d5 0400     		.2byte	0x4
 2436 01d7 F3       		.byte	0xf3
 2437 01d8 01       		.uleb128 0x1
 2438 01d9 50       		.byte	0x50
 2439 01da 9F       		.byte	0x9f
 2440 01db 40000000 		.4byte	.LVL34
 2441 01df 46000000 		.4byte	.LFE46
ARM GAS  /var/folders/qh/xwg3v3kj02qbxczjpdb8lzfr0000gn/T//ccSbQd4l.s 			page 44


 2442 01e3 0100     		.2byte	0x1
 2443 01e5 54       		.byte	0x54
 2444 01e6 00000000 		.4byte	0
 2445 01ea 00000000 		.4byte	0
 2446              	.LLST11:
 2447 01ee 00000000 		.4byte	.LVL26
 2448 01f2 11000000 		.4byte	.LVL27-1
 2449 01f6 0100     		.2byte	0x1
 2450 01f8 51       		.byte	0x51
 2451 01f9 11000000 		.4byte	.LVL27-1
 2452 01fd 46000000 		.4byte	.LFE46
 2453 0201 0400     		.2byte	0x4
 2454 0203 F3       		.byte	0xf3
 2455 0204 01       		.uleb128 0x1
 2456 0205 51       		.byte	0x51
 2457 0206 9F       		.byte	0x9f
 2458 0207 00000000 		.4byte	0
 2459 020b 00000000 		.4byte	0
 2460              	.LLST12:
 2461 020f 00000000 		.4byte	.LVL26
 2462 0213 11000000 		.4byte	.LVL27-1
 2463 0217 0100     		.2byte	0x1
 2464 0219 52       		.byte	0x52
 2465 021a 11000000 		.4byte	.LVL27-1
 2466 021e 3E000000 		.4byte	.LVL33
 2467 0222 0100     		.2byte	0x1
 2468 0224 56       		.byte	0x56
 2469 0225 3E000000 		.4byte	.LVL33
 2470 0229 40000000 		.4byte	.LVL34
 2471 022d 0400     		.2byte	0x4
 2472 022f F3       		.byte	0xf3
 2473 0230 01       		.uleb128 0x1
 2474 0231 52       		.byte	0x52
 2475 0232 9F       		.byte	0x9f
 2476 0233 40000000 		.4byte	.LVL34
 2477 0237 46000000 		.4byte	.LFE46
 2478 023b 0100     		.2byte	0x1
 2479 023d 56       		.byte	0x56
 2480 023e 00000000 		.4byte	0
 2481 0242 00000000 		.4byte	0
 2482              	.LLST13:
 2483 0246 00000000 		.4byte	.LVL26
 2484 024a 11000000 		.4byte	.LVL27-1
 2485 024e 0100     		.2byte	0x1
 2486 0250 53       		.byte	0x53
 2487 0251 11000000 		.4byte	.LVL27-1
 2488 0255 2C000000 		.4byte	.LVL29
 2489 0259 0100     		.2byte	0x1
 2490 025b 55       		.byte	0x55
 2491 025c 2C000000 		.4byte	.LVL29
 2492 0260 46000000 		.4byte	.LFE46
 2493 0264 0400     		.2byte	0x4
 2494 0266 F3       		.byte	0xf3
 2495 0267 01       		.uleb128 0x1
 2496 0268 53       		.byte	0x53
 2497 0269 9F       		.byte	0x9f
 2498 026a 00000000 		.4byte	0
ARM GAS  /var/folders/qh/xwg3v3kj02qbxczjpdb8lzfr0000gn/T//ccSbQd4l.s 			page 45


 2499 026e 00000000 		.4byte	0
 2500              	.LLST14:
 2501 0272 2C000000 		.4byte	.LVL29
 2502 0276 37000000 		.4byte	.LVL30-1
 2503 027a 0100     		.2byte	0x1
 2504 027c 50       		.byte	0x50
 2505 027d 37000000 		.4byte	.LVL30-1
 2506 0281 3E000000 		.4byte	.LVL32
 2507 0285 0100     		.2byte	0x1
 2508 0287 55       		.byte	0x55
 2509 0288 3E000000 		.4byte	.LVL32
 2510 028c 46000000 		.4byte	.LFE46
 2511 0290 0100     		.2byte	0x1
 2512 0292 50       		.byte	0x50
 2513 0293 00000000 		.4byte	0
 2514 0297 00000000 		.4byte	0
 2515              	.LLST15:
 2516 029b 00000000 		.4byte	.LVL35
 2517 029f 04000000 		.4byte	.LVL36
 2518 02a3 0100     		.2byte	0x1
 2519 02a5 50       		.byte	0x50
 2520 02a6 04000000 		.4byte	.LVL36
 2521 02aa 07000000 		.4byte	.LVL37-1
 2522 02ae 0300     		.2byte	0x3
 2523 02b0 70       		.byte	0x70
 2524 02b1 74       		.sleb128 -12
 2525 02b2 9F       		.byte	0x9f
 2526 02b3 07000000 		.4byte	.LVL37-1
 2527 02b7 0A000000 		.4byte	.LFE47
 2528 02bb 0400     		.2byte	0x4
 2529 02bd F3       		.byte	0xf3
 2530 02be 01       		.uleb128 0x1
 2531 02bf 50       		.byte	0x50
 2532 02c0 9F       		.byte	0x9f
 2533 02c1 00000000 		.4byte	0
 2534 02c5 00000000 		.4byte	0
 2535              	.LLST16:
 2536 02c9 00000000 		.4byte	.LVL38
 2537 02cd 05000000 		.4byte	.LVL39-1
 2538 02d1 0100     		.2byte	0x1
 2539 02d3 50       		.byte	0x50
 2540 02d4 05000000 		.4byte	.LVL39-1
 2541 02d8 08000000 		.4byte	.LFE48
 2542 02dc 0400     		.2byte	0x4
 2543 02de F3       		.byte	0xf3
 2544 02df 01       		.uleb128 0x1
 2545 02e0 50       		.byte	0x50
 2546 02e1 9F       		.byte	0x9f
 2547 02e2 00000000 		.4byte	0
 2548 02e6 00000000 		.4byte	0
 2549              		.section	.debug_aranges,"",%progbits
 2550 0000 5C000000 		.4byte	0x5c
 2551 0004 0200     		.2byte	0x2
 2552 0006 00000000 		.4byte	.Ldebug_info0
 2553 000a 04       		.byte	0x4
 2554 000b 00       		.byte	0
 2555 000c 0000     		.2byte	0
ARM GAS  /var/folders/qh/xwg3v3kj02qbxczjpdb8lzfr0000gn/T//ccSbQd4l.s 			page 46


 2556 000e 0000     		.2byte	0
 2557 0010 00000000 		.4byte	.LFB40
 2558 0014 08000000 		.4byte	.LFE40-.LFB40
 2559 0018 00000000 		.4byte	.LFB41
 2560 001c 12000000 		.4byte	.LFE41-.LFB41
 2561 0020 00000000 		.4byte	.LFB42
 2562 0024 20000000 		.4byte	.LFE42-.LFB42
 2563 0028 00000000 		.4byte	.LFB43
 2564 002c 1C000000 		.4byte	.LFE43-.LFB43
 2565 0030 00000000 		.4byte	.LFB44
 2566 0034 04000000 		.4byte	.LFE44-.LFB44
 2567 0038 00000000 		.4byte	.LFB45
 2568 003c 4E000000 		.4byte	.LFE45-.LFB45
 2569 0040 00000000 		.4byte	.LFB46
 2570 0044 46000000 		.4byte	.LFE46-.LFB46
 2571 0048 00000000 		.4byte	.LFB47
 2572 004c 0A000000 		.4byte	.LFE47-.LFB47
 2573 0050 00000000 		.4byte	.LFB48
 2574 0054 08000000 		.4byte	.LFE48-.LFB48
 2575 0058 00000000 		.4byte	0
 2576 005c 00000000 		.4byte	0
 2577              		.section	.debug_ranges,"",%progbits
 2578              	.Ldebug_ranges0:
 2579 0000 00000000 		.4byte	.LFB40
 2580 0004 08000000 		.4byte	.LFE40
 2581 0008 00000000 		.4byte	.LFB41
 2582 000c 12000000 		.4byte	.LFE41
 2583 0010 00000000 		.4byte	.LFB42
 2584 0014 20000000 		.4byte	.LFE42
 2585 0018 00000000 		.4byte	.LFB43
 2586 001c 1C000000 		.4byte	.LFE43
 2587 0020 00000000 		.4byte	.LFB44
 2588 0024 04000000 		.4byte	.LFE44
 2589 0028 00000000 		.4byte	.LFB45
 2590 002c 4E000000 		.4byte	.LFE45
 2591 0030 00000000 		.4byte	.LFB46
 2592 0034 46000000 		.4byte	.LFE46
 2593 0038 00000000 		.4byte	.LFB47
 2594 003c 0A000000 		.4byte	.LFE47
 2595 0040 00000000 		.4byte	.LFB48
 2596 0044 08000000 		.4byte	.LFE48
 2597 0048 00000000 		.4byte	0
 2598 004c 00000000 		.4byte	0
 2599              		.section	.debug_line,"",%progbits
 2600              	.Ldebug_line0:
 2601 0000 B8020000 		.section	.debug_str,"MS",%progbits,1
 2601      0200EF01 
 2601      00000201 
 2601      FB0E0D00 
 2601      01010101 
 2602              	.LASF44:
 2603 0000 54687265 		.ascii	"ThreadsList\000"
 2603      6164734C 
 2603      69737400 
 2604              	.LASF36:
 2605 000c 705F7761 		.ascii	"p_waiting\000"
 2605      6974696E 
ARM GAS  /var/folders/qh/xwg3v3kj02qbxczjpdb8lzfr0000gn/T//ccSbQd4l.s 			page 47


 2605      6700
 2606              	.LASF35:
 2607 0016 705F7469 		.ascii	"p_time\000"
 2607      6D6500
 2608              	.LASF45:
 2609 001d 72656761 		.ascii	"regarm_t\000"
 2609      726D5F74 
 2609      00
 2610              	.LASF26:
 2611 0026 705F7072 		.ascii	"p_prio\000"
 2611      696F00
 2612              	.LASF22:
 2613 002d 73797374 		.ascii	"systime_t\000"
 2613      696D655F 
 2613      7400
 2614              	.LASF51:
 2615 0037 6D5F6F77 		.ascii	"m_owner\000"
 2615      6E657200 
 2616              	.LASF37:
 2617 003f 705F6D73 		.ascii	"p_msgqueue\000"
 2617      67717565 
 2617      756500
 2618              	.LASF108:
 2619 004a 72786279 		.ascii	"rxbytes\000"
 2619      74657300 
 2620              	.LASF0:
 2621 0052 756E7369 		.ascii	"unsigned int\000"
 2621      676E6564 
 2621      20696E74 
 2621      00
 2622              	.LASF87:
 2623 005f 49324344 		.ascii	"I2CDriver\000"
 2623      72697665 
 2623      7200
 2624              	.LASF60:
 2625 0069 434D4152 		.ascii	"CMAR\000"
 2625      00
 2626              	.LASF102:
 2627 006e 69326353 		.ascii	"i2cStop\000"
 2627      746F7000 
 2628              	.LASF55:
 2629 0076 77746F62 		.ascii	"wtobjp\000"
 2629      6A7000
 2630              	.LASF61:
 2631 007d 444D415F 		.ascii	"DMA_Channel_TypeDef\000"
 2631      4368616E 
 2631      6E656C5F 
 2631      54797065 
 2631      44656600 
 2632              	.LASF122:
 2633 0091 474E5520 		.ascii	"GNU C 4.8.3 20131129 (release) [ARM/embedded-4_8-br"
 2633      4320342E 
 2633      382E3320 
 2633      32303133 
 2633      31313239 
 2634 00c4 616E6368 		.ascii	"anch revision 205641] -mcpu=cortex-m0 -mno-thumb-in"
 2634      20726576 
ARM GAS  /var/folders/qh/xwg3v3kj02qbxczjpdb8lzfr0000gn/T//ccSbQd4l.s 			page 48


 2634      6973696F 
 2634      6E203230 
 2634      35363431 
 2635 00f7 74657277 		.ascii	"terwork -mthumb -ggdb -O2 -fomit-frame-pointer -fal"
 2635      6F726B20 
 2635      2D6D7468 
 2635      756D6220 
 2635      2D676764 
 2636 012a 69676E2D 		.ascii	"ign-functions=16 -ffunction-sections -fdata-section"
 2636      66756E63 
 2636      74696F6E 
 2636      733D3136 
 2636      202D6666 
 2637 015d 73202D66 		.ascii	"s -fno-common\000"
 2637      6E6F2D63 
 2637      6F6D6D6F 
 2637      6E00
 2638              	.LASF56:
 2639 016b 65776D61 		.ascii	"ewmask\000"
 2639      736B00
 2640              	.LASF104:
 2641 0172 6932634D 		.ascii	"i2cMasterTransmitTimeout\000"
 2641      61737465 
 2641      72547261 
 2641      6E736D69 
 2641      7454696D 
 2642              	.LASF65:
 2643 018b 54494D45 		.ascii	"TIMEOUTR\000"
 2643      4F555452 
 2643      00
 2644              	.LASF111:
 2645 0194 69326341 		.ascii	"i2cAcquireBus\000"
 2645      63717569 
 2645      72654275 
 2645      7300
 2646              	.LASF58:
 2647 01a2 434E4454 		.ascii	"CNDTR\000"
 2647      5200
 2648              	.LASF113:
 2649 01a8 6932635F 		.ascii	"i2c_lld_init\000"
 2649      6C6C645F 
 2649      696E6974 
 2649      00
 2650              	.LASF97:
 2651 01b5 646D6174 		.ascii	"dmatx\000"
 2651      7800
 2652              	.LASF10:
 2653 01bb 75696E74 		.ascii	"uint32_t\000"
 2653      33325F74 
 2653      00
 2654              	.LASF106:
 2655 01c4 74786279 		.ascii	"txbytes\000"
 2655      74657300 
 2656              	.LASF79:
 2657 01cc 4932435F 		.ascii	"I2C_ACTIVE_TX\000"
 2657      41435449 
 2657      56455F54 
ARM GAS  /var/folders/qh/xwg3v3kj02qbxczjpdb8lzfr0000gn/T//ccSbQd4l.s 			page 49


 2657      5800
 2658              	.LASF21:
 2659 01da 6576656E 		.ascii	"eventmask_t\000"
 2659      746D6173 
 2659      6B5F7400 
 2660              	.LASF71:
 2661 01e6 69666372 		.ascii	"ifcr\000"
 2661      00
 2662              	.LASF91:
 2663 01eb 6D757465 		.ascii	"mutex\000"
 2663      7800
 2664              	.LASF19:
 2665 01f1 74707269 		.ascii	"tprio_t\000"
 2665      6F5F7400 
 2666              	.LASF13:
 2667 01f9 6C6F6E67 		.ascii	"long long unsigned int\000"
 2667      206C6F6E 
 2667      6720756E 
 2667      7369676E 
 2667      65642069 
 2668              	.LASF74:
 2669 0210 76656374 		.ascii	"vector\000"
 2669      6F7200
 2670              	.LASF80:
 2671 0217 4932435F 		.ascii	"I2C_ACTIVE_RX\000"
 2671      41435449 
 2671      56455F52 
 2671      5800
 2672              	.LASF90:
 2673 0225 6572726F 		.ascii	"errors\000"
 2673      727300
 2674              	.LASF82:
 2675 022c 69326373 		.ascii	"i2cstate_t\000"
 2675      74617465 
 2675      5F7400
 2676              	.LASF86:
 2677 0237 49324343 		.ascii	"I2CConfig\000"
 2677      6F6E6669 
 2677      6700
 2678              	.LASF28:
 2679 0241 705F6E65 		.ascii	"p_newer\000"
 2679      77657200 
 2680              	.LASF105:
 2681 0249 74786275 		.ascii	"txbuf\000"
 2681      6600
 2682              	.LASF59:
 2683 024f 43504152 		.ascii	"CPAR\000"
 2683      00
 2684              	.LASF84:
 2685 0254 69326366 		.ascii	"i2cflags_t\000"
 2685      6C616773 
 2685      5F7400
 2686              	.LASF115:
 2687 025f 63684D74 		.ascii	"chMtxInit\000"
 2687      78496E69 
 2687      7400
 2688              	.LASF124:
ARM GAS  /var/folders/qh/xwg3v3kj02qbxczjpdb8lzfr0000gn/T//ccSbQd4l.s 			page 50


 2689 0269 2F557365 		.ascii	"/Users/John/Development/embedded/ChibiOS-RT/BluC/ST"
 2689      72732F4A 
 2689      6F686E2F 
 2689      44657665 
 2689      6C6F706D 
 2690 029c 4D333246 		.ascii	"M32F051\000"
 2690      30353100 
 2691              	.LASF2:
 2692 02a4 73697A65 		.ascii	"size_t\000"
 2692      5F7400
 2693              	.LASF53:
 2694 02ab 7264796D 		.ascii	"rdymsg\000"
 2694      736700
 2695              	.LASF67:
 2696 02b2 52584452 		.ascii	"RXDR\000"
 2696      00
 2697              	.LASF14:
 2698 02b7 5F426F6F 		.ascii	"_Bool\000"
 2698      6C00
 2699              	.LASF62:
 2700 02bd 4F415231 		.ascii	"OAR1\000"
 2700      00
 2701              	.LASF63:
 2702 02c2 4F415232 		.ascii	"OAR2\000"
 2702      00
 2703              	.LASF49:
 2704 02c7 4D757465 		.ascii	"Mutex\000"
 2704      7800
 2705              	.LASF30:
 2706 02cd 705F6E61 		.ascii	"p_name\000"
 2706      6D6500
 2707              	.LASF43:
 2708 02d4 54687265 		.ascii	"ThreadsQueue\000"
 2708      61647351 
 2708      75657565 
 2708      00
 2709              	.LASF57:
 2710 02e1 63686172 		.ascii	"char\000"
 2710      00
 2711              	.LASF95:
 2712 02e6 7478646D 		.ascii	"txdmamode\000"
 2712      616D6F64 
 2712      6500
 2713              	.LASF72:
 2714 02f0 69736869 		.ascii	"ishift\000"
 2714      667400
 2715              	.LASF23:
 2716 02f7 54687265 		.ascii	"Thread\000"
 2716      616400
 2717              	.LASF16:
 2718 02fe 74737461 		.ascii	"tstate_t\000"
 2718      74655F74 
 2718      00
 2719              	.LASF75:
 2720 0307 73746D33 		.ascii	"stm32_dma_stream_t\000"
 2720      325F646D 
 2720      615F7374 
ARM GAS  /var/folders/qh/xwg3v3kj02qbxczjpdb8lzfr0000gn/T//ccSbQd4l.s 			page 51


 2720      7265616D 
 2720      5F7400
 2721              	.LASF29:
 2722 031a 705F6F6C 		.ascii	"p_older\000"
 2722      64657200 
 2723              	.LASF117:
 2724 0322 6462675F 		.ascii	"dbg_check_unlock\000"
 2724      63686563 
 2724      6B5F756E 
 2724      6C6F636B 
 2724      00
 2725              	.LASF31:
 2726 0333 705F7374 		.ascii	"p_state\000"
 2726      61746500 
 2727              	.LASF3:
 2728 033b 75696E74 		.ascii	"uint8_t\000"
 2728      385F7400 
 2729              	.LASF96:
 2730 0343 646D6172 		.ascii	"dmarx\000"
 2730      7800
 2731              	.LASF42:
 2732 0349 705F6D70 		.ascii	"p_mpool\000"
 2732      6F6F6C00 
 2733              	.LASF40:
 2734 0351 705F6D74 		.ascii	"p_mtxlist\000"
 2734      786C6973 
 2734      7400
 2735              	.LASF68:
 2736 035b 54584452 		.ascii	"TXDR\000"
 2736      00
 2737              	.LASF100:
 2738 0360 69326353 		.ascii	"i2cStart\000"
 2738      74617274 
 2738      00
 2739              	.LASF64:
 2740 0369 54494D49 		.ascii	"TIMINGR\000"
 2740      4E475200 
 2741              	.LASF12:
 2742 0371 6C6F6E67 		.ascii	"long long int\000"
 2742      206C6F6E 
 2742      6720696E 
 2742      7400
 2743              	.LASF125:
 2744 037f 63684D74 		.ascii	"chMtxUnlock\000"
 2744      78556E6C 
 2744      6F636B00 
 2745              	.LASF76:
 2746 038b 4932435F 		.ascii	"I2C_UNINIT\000"
 2746      554E494E 
 2746      495400
 2747              	.LASF20:
 2748 0396 6D73675F 		.ascii	"msg_t\000"
 2748      7400
 2749              	.LASF47:
 2750 039c 636F6E74 		.ascii	"context\000"
 2750      65787400 
 2751              	.LASF114:
ARM GAS  /var/folders/qh/xwg3v3kj02qbxczjpdb8lzfr0000gn/T//ccSbQd4l.s 			page 52


 2752 03a4 6462675F 		.ascii	"dbg_check_lock\000"
 2752      63686563 
 2752      6B5F6C6F 
 2752      636B00
 2753              	.LASF32:
 2754 03b3 705F666C 		.ascii	"p_flags\000"
 2754      61677300 
 2755              	.LASF116:
 2756 03bb 6932635F 		.ascii	"i2c_lld_start\000"
 2756      6C6C645F 
 2756      73746172 
 2756      7400
 2757              	.LASF112:
 2758 03c9 69326352 		.ascii	"i2cReleaseBus\000"
 2758      656C6561 
 2758      73654275 
 2758      7300
 2759              	.LASF66:
 2760 03d7 50454352 		.ascii	"PECR\000"
 2760      00
 2761              	.LASF98:
 2762 03dc 69326349 		.ascii	"i2cInit\000"
 2762      6E697400 
 2763              	.LASF18:
 2764 03e4 74736C69 		.ascii	"tslices_t\000"
 2764      6365735F 
 2764      7400
 2765              	.LASF101:
 2766 03ee 69326370 		.ascii	"i2cp\000"
 2766      00
 2767              	.LASF99:
 2768 03f3 6932634F 		.ascii	"i2cObjectInit\000"
 2768      626A6563 
 2768      74496E69 
 2768      7400
 2769              	.LASF38:
 2770 0401 705F6D73 		.ascii	"p_msg\000"
 2770      6700
 2771              	.LASF15:
 2772 0407 746D6F64 		.ascii	"tmode_t\000"
 2772      655F7400 
 2773              	.LASF119:
 2774 040f 6932635F 		.ascii	"i2c_lld_master_transmit_timeout\000"
 2774      6C6C645F 
 2774      6D617374 
 2774      65725F74 
 2774      72616E73 
 2775              	.LASF6:
 2776 042f 75696E74 		.ascii	"uint16_t\000"
 2776      31365F74 
 2776      00
 2777              	.LASF46:
 2778 0438 696E7463 		.ascii	"intctx\000"
 2778      747800
 2779              	.LASF70:
 2780 043f 6368616E 		.ascii	"channel\000"
 2780      6E656C00 
ARM GAS  /var/folders/qh/xwg3v3kj02qbxczjpdb8lzfr0000gn/T//ccSbQd4l.s 			page 53


 2781              	.LASF120:
 2782 0447 6932635F 		.ascii	"i2c_lld_master_receive_timeout\000"
 2782      6C6C645F 
 2782      6D617374 
 2782      65725F72 
 2782      65636569 
 2783              	.LASF78:
 2784 0466 4932435F 		.ascii	"I2C_READY\000"
 2784      52454144 
 2784      5900
 2785              	.LASF89:
 2786 0470 636F6E66 		.ascii	"config\000"
 2786      696700
 2787              	.LASF41:
 2788 0477 705F7265 		.ascii	"p_realprio\000"
 2788      616C7072 
 2788      696F00
 2789              	.LASF5:
 2790 0482 73686F72 		.ascii	"short int\000"
 2790      7420696E 
 2790      7400
 2791              	.LASF39:
 2792 048c 705F6570 		.ascii	"p_epending\000"
 2792      656E6469 
 2792      6E6700
 2793              	.LASF50:
 2794 0497 6D5F7175 		.ascii	"m_queue\000"
 2794      65756500 
 2795              	.LASF9:
 2796 049f 6C6F6E67 		.ascii	"long int\000"
 2796      20696E74 
 2796      00
 2797              	.LASF83:
 2798 04a8 69326361 		.ascii	"i2caddr_t\000"
 2798      6464725F 
 2798      7400
 2799              	.LASF81:
 2800 04b2 4932435F 		.ascii	"I2C_LOCKED\000"
 2800      4C4F434B 
 2800      454400
 2801              	.LASF24:
 2802 04bd 705F6E65 		.ascii	"p_next\000"
 2802      787400
 2803              	.LASF27:
 2804 04c4 705F6374 		.ascii	"p_ctx\000"
 2804      7800
 2805              	.LASF118:
 2806 04ca 6932635F 		.ascii	"i2c_lld_stop\000"
 2806      6C6C645F 
 2806      73746F70 
 2806      00
 2807              	.LASF110:
 2808 04d7 6932634D 		.ascii	"i2cMasterReceiveTimeout\000"
 2808      61737465 
 2808      72526563 
 2808      65697665 
 2808      54696D65 
ARM GAS  /var/folders/qh/xwg3v3kj02qbxczjpdb8lzfr0000gn/T//ccSbQd4l.s 			page 54


 2809              	.LASF25:
 2810 04ef 705F7072 		.ascii	"p_prev\000"
 2810      657600
 2811              	.LASF48:
 2812 04f6 73697A65 		.ascii	"sizetype\000"
 2812      74797065 
 2812      00
 2813              	.LASF17:
 2814 04ff 74726566 		.ascii	"trefs_t\000"
 2814      735F7400 
 2815              	.LASF11:
 2816 0507 6C6F6E67 		.ascii	"long unsigned int\000"
 2816      20756E73 
 2816      69676E65 
 2816      6420696E 
 2816      7400
 2817              	.LASF8:
 2818 0519 696E7433 		.ascii	"int32_t\000"
 2818      325F7400 
 2819              	.LASF92:
 2820 0521 74687265 		.ascii	"thread\000"
 2820      616400
 2821              	.LASF77:
 2822 0528 4932435F 		.ascii	"I2C_STOP\000"
 2822      53544F50 
 2822      00
 2823              	.LASF4:
 2824 0531 756E7369 		.ascii	"unsigned char\000"
 2824      676E6564 
 2824      20636861 
 2824      7200
 2825              	.LASF85:
 2826 053f 74696D69 		.ascii	"timingr\000"
 2826      6E677200 
 2827              	.LASF33:
 2828 0547 705F7265 		.ascii	"p_refs\000"
 2828      667300
 2829              	.LASF121:
 2830 054e 63684D74 		.ascii	"chMtxLock\000"
 2830      784C6F63 
 2830      6B00
 2831              	.LASF109:
 2832 0558 74696D65 		.ascii	"timeout\000"
 2832      6F757400 
 2833              	.LASF94:
 2834 0560 7278646D 		.ascii	"rxdmamode\000"
 2834      616D6F64 
 2834      6500
 2835              	.LASF69:
 2836 056a 4932435F 		.ascii	"I2C_TypeDef\000"
 2836      54797065 
 2836      44656600 
 2837              	.LASF34:
 2838 0576 705F7072 		.ascii	"p_preempt\000"
 2838      65656D70 
 2838      7400
 2839              	.LASF93:
ARM GAS  /var/folders/qh/xwg3v3kj02qbxczjpdb8lzfr0000gn/T//ccSbQd4l.s 			page 55


 2840 0580 61646472 		.ascii	"addr\000"
 2840      00
 2841              	.LASF88:
 2842 0585 73746174 		.ascii	"state\000"
 2842      6500
 2843              	.LASF52:
 2844 058b 6D5F6E65 		.ascii	"m_next\000"
 2844      787400
 2845              	.LASF1:
 2846 0592 7369676E 		.ascii	"signed char\000"
 2846      65642063 
 2846      68617200 
 2847              	.LASF7:
 2848 059e 73686F72 		.ascii	"short unsigned int\000"
 2848      7420756E 
 2848      7369676E 
 2848      65642069 
 2848      6E7400
 2849              	.LASF123:
 2850 05b1 2E2E2F2E 		.ascii	"../../os/hal/src/i2c.c\000"
 2850      2E2F6F73 
 2850      2F68616C 
 2850      2F737263 
 2850      2F693263 
 2851              	.LASF54:
 2852 05c8 65786974 		.ascii	"exitcode\000"
 2852      636F6465 
 2852      00
 2853              	.LASF73:
 2854 05d1 73656C66 		.ascii	"selfindex\000"
 2854      696E6465 
 2854      7800
 2855              	.LASF107:
 2856 05db 72786275 		.ascii	"rxbuf\000"
 2856      6600
 2857              	.LASF103:
 2858 05e1 69326347 		.ascii	"i2cGetErrors\000"
 2858      65744572 
 2858      726F7273 
 2858      00
 2859              		.ident	"GCC: (GNU Tools for ARM Embedded Processors) 4.8.3 20131129 (release) [ARM/embedded-4_8-br
ARM GAS  /var/folders/qh/xwg3v3kj02qbxczjpdb8lzfr0000gn/T//ccSbQd4l.s 			page 56


DEFINED SYMBOLS
                            *ABS*:0000000000000000 i2c.c
/var/folders/qh/xwg3v3kj02qbxczjpdb8lzfr0000gn/T//ccSbQd4l.s:18     .text.i2cInit:0000000000000000 $t
/var/folders/qh/xwg3v3kj02qbxczjpdb8lzfr0000gn/T//ccSbQd4l.s:24     .text.i2cInit:0000000000000000 i2cInit
/var/folders/qh/xwg3v3kj02qbxczjpdb8lzfr0000gn/T//ccSbQd4l.s:43     .text.i2cObjectInit:0000000000000000 $t
/var/folders/qh/xwg3v3kj02qbxczjpdb8lzfr0000gn/T//ccSbQd4l.s:49     .text.i2cObjectInit:0000000000000000 i2cObjectInit
/var/folders/qh/xwg3v3kj02qbxczjpdb8lzfr0000gn/T//ccSbQd4l.s:76     .text.i2cStart:0000000000000000 $t
/var/folders/qh/xwg3v3kj02qbxczjpdb8lzfr0000gn/T//ccSbQd4l.s:82     .text.i2cStart:0000000000000000 i2cStart
/var/folders/qh/xwg3v3kj02qbxczjpdb8lzfr0000gn/T//ccSbQd4l.s:129    .text.i2cStop:0000000000000000 $t
/var/folders/qh/xwg3v3kj02qbxczjpdb8lzfr0000gn/T//ccSbQd4l.s:135    .text.i2cStop:0000000000000000 i2cStop
/var/folders/qh/xwg3v3kj02qbxczjpdb8lzfr0000gn/T//ccSbQd4l.s:175    .text.i2cGetErrors:0000000000000000 $t
/var/folders/qh/xwg3v3kj02qbxczjpdb8lzfr0000gn/T//ccSbQd4l.s:181    .text.i2cGetErrors:0000000000000000 i2cGetErrors
/var/folders/qh/xwg3v3kj02qbxczjpdb8lzfr0000gn/T//ccSbQd4l.s:196    .text.i2cMasterTransmitTimeout:0000000000000000 $t
/var/folders/qh/xwg3v3kj02qbxczjpdb8lzfr0000gn/T//ccSbQd4l.s:202    .text.i2cMasterTransmitTimeout:0000000000000000 i2cMasterTransmitTimeout
/var/folders/qh/xwg3v3kj02qbxczjpdb8lzfr0000gn/T//ccSbQd4l.s:281    .text.i2cMasterReceiveTimeout:0000000000000000 $t
/var/folders/qh/xwg3v3kj02qbxczjpdb8lzfr0000gn/T//ccSbQd4l.s:287    .text.i2cMasterReceiveTimeout:0000000000000000 i2cMasterReceiveTimeout
/var/folders/qh/xwg3v3kj02qbxczjpdb8lzfr0000gn/T//ccSbQd4l.s:362    .text.i2cAcquireBus:0000000000000000 $t
/var/folders/qh/xwg3v3kj02qbxczjpdb8lzfr0000gn/T//ccSbQd4l.s:368    .text.i2cAcquireBus:0000000000000000 i2cAcquireBus
/var/folders/qh/xwg3v3kj02qbxczjpdb8lzfr0000gn/T//ccSbQd4l.s:389    .text.i2cReleaseBus:0000000000000000 $t
/var/folders/qh/xwg3v3kj02qbxczjpdb8lzfr0000gn/T//ccSbQd4l.s:395    .text.i2cReleaseBus:0000000000000000 i2cReleaseBus
                     .debug_frame:0000000000000010 $d

UNDEFINED SYMBOLS
i2c_lld_init
chMtxInit
dbg_check_lock
i2c_lld_start
dbg_check_unlock
i2c_lld_stop
i2c_lld_master_transmit_timeout
i2c_lld_master_receive_timeout
chMtxLock
chMtxUnlock
