ARM GAS  /var/folders/qh/xwg3v3kj02qbxczjpdb8lzfr0000gn/T//ccvvFpD1.s 			page 1


   1              		.cpu cortex-m0
   2              		.fpu softvfp
   3              		.eabi_attribute 20, 1
   4              		.eabi_attribute 21, 1
   5              		.eabi_attribute 23, 3
   6              		.eabi_attribute 24, 1
   7              		.eabi_attribute 25, 1
   8              		.eabi_attribute 26, 1
   9              		.eabi_attribute 30, 2
  10              		.eabi_attribute 34, 0
  11              		.eabi_attribute 18, 4
  12              		.code	16
  13              		.file	"i2c_lld.c"
  14              		.text
  15              	.Ltext0:
  16              		.cfi_sections	.debug_frame
  17              		.section	.text.i2c_lld_abort_operation,"ax",%progbits
  18              		.align	2
  19              		.p2align 4,,15
  20              		.code	16
  21              		.thumb_func
  22              		.type	i2c_lld_abort_operation, %function
  23              	i2c_lld_abort_operation:
  24              	.LFB40:
  25              		.file 1 "../../os/hal/platforms/STM32/I2Cv2/i2c_lld.c"
  26              		.loc 1 122 0
  27              		.cfi_startproc
  28              	.LVL0:
  29              		.loc 1 123 0
  30 0000 436B     		ldr	r3, [r0, #52]
  31              	.LVL1:
  32              		.loc 1 125 0
  33 0002 0121     		mov	r1, #1
  34 0004 1A68     		ldr	r2, [r3]
  35              		.loc 1 122 0
  36 0006 10B5     		push	{r4, lr}
  37              		.cfi_def_cfa_offset 8
  38              		.cfi_offset 4, -8
  39              		.cfi_offset 14, -4
  40              		.loc 1 125 0
  41 0008 1142     		tst	r1, r2
  42 000a 10D0     		beq	.L2
  43              		.loc 1 127 0
  44 000c 1A68     		ldr	r2, [r3]
  45 000e 8A43     		bic	r2, r1
  46 0010 1A60     		str	r2, [r3]
  47              		.loc 1 128 0
  48 0012 1C68     		ldr	r4, [r3]
  49              		.loc 1 129 0
  50 0014 0122     		mov	r2, #1
  51              		.loc 1 128 0
  52 0016 2142     		tst	r1, r4
  53 0018 05D0     		beq	.L4
  54              	.L12:
  55              		.loc 1 129 0
  56 001a 1968     		ldr	r1, [r3]
  57 001c 9143     		bic	r1, r2
ARM GAS  /var/folders/qh/xwg3v3kj02qbxczjpdb8lzfr0000gn/T//ccvvFpD1.s 			page 2


  58 001e 1960     		str	r1, [r3]
  59              		.loc 1 128 0
  60 0020 1968     		ldr	r1, [r3]
  61 0022 0A42     		tst	r2, r1
  62 0024 F9D1     		bne	.L12
  63              	.L4:
  64              		.loc 1 130 0
  65 0026 1968     		ldr	r1, [r3]
  66 0028 0122     		mov	r2, #1
  67 002a 0A43     		orr	r2, r1
  68 002c 1A60     		str	r2, [r3]
  69              	.L2:
  70              		.loc 1 134 0
  71 002e 026B     		ldr	r2, [r0, #48]
  72 0030 0F23     		mov	r3, #15
  73              	.LVL2:
  74 0032 1168     		ldr	r1, [r2]
  75              		.loc 1 136 0
  76              		@ sp needed
  77              		.loc 1 134 0
  78 0034 0C68     		ldr	r4, [r1]
  79 0036 9C43     		bic	r4, r3
  80 0038 0C60     		str	r4, [r1]
  81 003a 5168     		ldr	r1, [r2, #4]
  82 003c 127A     		ldrb	r2, [r2, #8]
  83 003e 1C1C     		mov	r4, r3
  84 0040 9440     		lsl	r4, r4, r2
  85              		.loc 1 135 0
  86 0042 C26A     		ldr	r2, [r0, #44]
  87              		.loc 1 134 0
  88 0044 0C60     		str	r4, [r1]
  89              		.loc 1 135 0
  90 0046 1168     		ldr	r1, [r2]
  91 0048 0868     		ldr	r0, [r1]
  92              	.LVL3:
  93 004a 9843     		bic	r0, r3
  94 004c 0860     		str	r0, [r1]
  95 004e 5168     		ldr	r1, [r2, #4]
  96 0050 127A     		ldrb	r2, [r2, #8]
  97 0052 9340     		lsl	r3, r3, r2
  98 0054 0B60     		str	r3, [r1]
  99              		.loc 1 136 0
 100 0056 10BD     		pop	{r4, pc}
 101              		.cfi_endproc
 102              	.LFE40:
 103              		.size	i2c_lld_abort_operation, .-i2c_lld_abort_operation
 104 0058 C046C046 		.section	.text.i2c_lld_safety_timeout,"ax",%progbits
 104      C046C046 
 105              		.align	2
 106              		.p2align 4,,15
 107              		.code	16
 108              		.thumb_func
 109              		.type	i2c_lld_safety_timeout, %function
 110              	i2c_lld_safety_timeout:
 111              	.LFB41:
 112              		.loc 1 145 0
 113              		.cfi_startproc
ARM GAS  /var/folders/qh/xwg3v3kj02qbxczjpdb8lzfr0000gn/T//ccvvFpD1.s 			page 3


 114              	.LVL4:
 115 0000 38B5     		push	{r3, r4, r5, lr}
 116              		.cfi_def_cfa_offset 16
 117              		.cfi_offset 3, -16
 118              		.cfi_offset 4, -12
 119              		.cfi_offset 5, -8
 120              		.cfi_offset 14, -4
 121              		.loc 1 145 0
 122 0002 051C     		mov	r5, r0
 123              	.LVL5:
 124              		.loc 1 148 0
 125              	@ 148 "../../os/hal/platforms/STM32/I2Cv2/i2c_lld.c" 1
 126 0004 72B6     		cpsid   i
 127              	@ 0 "" 2
 128              		.code	16
 129 0006 FFF7FEFF 		bl	dbg_check_lock_from_isr
 130              	.LVL6:
 131              		.loc 1 149 0
 132 000a EC69     		ldr	r4, [r5, #28]
 133 000c 002C     		cmp	r4, #0
 134 000e 0AD0     		beq	.L15
 135              	.LVL7:
 136              	.LBB6:
 137              		.loc 1 151 0
 138 0010 281C     		mov	r0, r5
 139 0012 FFF7FEFF 		bl	i2c_lld_abort_operation
 140              	.LVL8:
 141              		.loc 1 152 0
 142 0016 0023     		mov	r3, #0
 143 0018 EB61     		str	r3, [r5, #28]
 144              		.loc 1 153 0
 145 001a 0123     		mov	r3, #1
 146 001c 5B42     		neg	r3, r3
 147 001e 6362     		str	r3, [r4, #36]
 148              		.loc 1 154 0
 149 0020 201C     		mov	r0, r4
 150 0022 FFF7FEFF 		bl	chSchReadyI
 151              	.LVL9:
 152              	.L15:
 153              	.LBE6:
 154              		.loc 1 156 0
 155 0026 FFF7FEFF 		bl	dbg_check_unlock_from_isr
 156              	.LVL10:
 157              	@ 156 "../../os/hal/platforms/STM32/I2Cv2/i2c_lld.c" 1
 158 002a 62B6     		cpsie   i
 159              	@ 0 "" 2
 160              		.loc 1 157 0
 161              		.code	16
 162              		@ sp needed
 163              	.LVL11:
 164 002c 38BD     		pop	{r3, r4, r5, pc}
 165              		.cfi_endproc
 166              	.LFE41:
 167              		.size	i2c_lld_safety_timeout, .-i2c_lld_safety_timeout
 168 002e C046     		.section	.text.i2c_lld_serve_tx_end_irq,"ax",%progbits
 169              		.align	2
 170              		.p2align 4,,15
ARM GAS  /var/folders/qh/xwg3v3kj02qbxczjpdb8lzfr0000gn/T//ccvvFpD1.s 			page 4


 171              		.code	16
 172              		.thumb_func
 173              		.type	i2c_lld_serve_tx_end_irq, %function
 174              	i2c_lld_serve_tx_end_irq:
 175              	.LFB44:
 176              		.loc 1 247 0
 177              		.cfi_startproc
 178              	.LVL12:
 179 0000 10B5     		push	{r4, lr}
 180              		.cfi_def_cfa_offset 8
 181              		.cfi_offset 4, -8
 182              		.cfi_offset 14, -4
 183              		.loc 1 247 0
 184 0002 041C     		mov	r4, r0
 185              		.loc 1 251 0
 186 0004 0B07     		lsl	r3, r1, #28
 187 0006 01D5     		bpl	.L20
 188              		.loc 1 252 0
 189 0008 FFF7FEFF 		bl	port_halt
 190              	.LVL13:
 191              	.L20:
 192              		.loc 1 258 0
 193 000c 236B     		ldr	r3, [r4, #48]
 194 000e 0F22     		mov	r2, #15
 195 0010 1968     		ldr	r1, [r3]
 196              		.loc 1 259 0
 197              		@ sp needed
 198              		.loc 1 258 0
 199 0012 0868     		ldr	r0, [r1]
 200 0014 9043     		bic	r0, r2
 201 0016 0860     		str	r0, [r1]
 202 0018 5968     		ldr	r1, [r3, #4]
 203 001a 1B7A     		ldrb	r3, [r3, #8]
 204 001c 9A40     		lsl	r2, r2, r3
 205 001e 0A60     		str	r2, [r1]
 206              	.LVL14:
 207              		.loc 1 259 0
 208 0020 10BD     		pop	{r4, pc}
 209              		.cfi_endproc
 210              	.LFE44:
 211              		.size	i2c_lld_serve_tx_end_irq, .-i2c_lld_serve_tx_end_irq
 212 0022 C046C046 		.section	.text.i2c_lld_serve_rx_end_irq,"ax",%progbits
 212      C046C046 
 212      C046C046 
 212      C046
 213              		.align	2
 214              		.p2align 4,,15
 215              		.code	16
 216              		.thumb_func
 217              		.type	i2c_lld_serve_rx_end_irq, %function
 218              	i2c_lld_serve_rx_end_irq:
 219              	.LFB43:
 220              		.loc 1 223 0
 221              		.cfi_startproc
 222              	.LVL15:
 223 0000 38B5     		push	{r3, r4, r5, lr}
 224              		.cfi_def_cfa_offset 16
ARM GAS  /var/folders/qh/xwg3v3kj02qbxczjpdb8lzfr0000gn/T//ccvvFpD1.s 			page 5


 225              		.cfi_offset 3, -16
 226              		.cfi_offset 4, -12
 227              		.cfi_offset 5, -8
 228              		.cfi_offset 14, -4
 229              		.loc 1 223 0
 230 0002 041C     		mov	r4, r0
 231              		.loc 1 224 0
 232 0004 456B     		ldr	r5, [r0, #52]
 233              	.LVL16:
 234              		.loc 1 228 0
 235 0006 0B07     		lsl	r3, r1, #28
 236 0008 1DD4     		bmi	.L33
 237              	.LVL17:
 238              	.L25:
 239              		.loc 1 235 0
 240 000a E36A     		ldr	r3, [r4, #44]
 241 000c 0F22     		mov	r2, #15
 242 000e 1968     		ldr	r1, [r3]
 243 0010 0868     		ldr	r0, [r1]
 244 0012 9043     		bic	r0, r2
 245 0014 0860     		str	r0, [r1]
 246 0016 5968     		ldr	r1, [r3, #4]
 247 0018 1B7A     		ldrb	r3, [r3, #8]
 248 001a 9A40     		lsl	r2, r2, r3
 249 001c 0A60     		str	r2, [r1]
 250              		.loc 1 236 0
 251 001e 6A68     		ldr	r2, [r5, #4]
 252 0020 8023     		mov	r3, #128
 253 0022 DB01     		lsl	r3, r3, #7
 254 0024 1343     		orr	r3, r2
 255 0026 6B60     		str	r3, [r5, #4]
 256              		.loc 1 237 0
 257              	@ 237 "../../os/hal/platforms/STM32/I2Cv2/i2c_lld.c" 1
 258 0028 72B6     		cpsid   i
 259              	@ 0 "" 2
 260              		.code	16
 261 002a FFF7FEFF 		bl	dbg_check_lock_from_isr
 262              	.LVL18:
 263 002e E069     		ldr	r0, [r4, #28]
 264 0030 0028     		cmp	r0, #0
 265 0032 04D0     		beq	.L26
 266              	.LVL19:
 267              	.LBB7:
 268              		.loc 1 237 0 is_stmt 0 discriminator 1
 269 0034 0023     		mov	r3, #0
 270 0036 E361     		str	r3, [r4, #28]
 271 0038 4362     		str	r3, [r0, #36]
 272 003a FFF7FEFF 		bl	chSchReadyI
 273              	.LVL20:
 274              	.L26:
 275              	.LBE7:
 276              		.loc 1 237 0 discriminator 2
 277 003e FFF7FEFF 		bl	dbg_check_unlock_from_isr
 278              	.LVL21:
 279              	@ 237 "../../os/hal/platforms/STM32/I2Cv2/i2c_lld.c" 1
 280 0042 62B6     		cpsie   i
 281              	@ 0 "" 2
ARM GAS  /var/folders/qh/xwg3v3kj02qbxczjpdb8lzfr0000gn/T//ccvvFpD1.s 			page 6


 282              		.loc 1 238 0 is_stmt 1 discriminator 2
 283              		.code	16
 284              		@ sp needed
 285              	.LVL22:
 286              	.LVL23:
 287 0044 38BD     		pop	{r3, r4, r5, pc}
 288              	.LVL24:
 289              	.L33:
 290              		.loc 1 229 0
 291 0046 FFF7FEFF 		bl	port_halt
 292              	.LVL25:
 293 004a DEE7     		b	.L25
 294              		.cfi_endproc
 295              	.LFE43:
 296              		.size	i2c_lld_serve_rx_end_irq, .-i2c_lld_serve_rx_end_irq
 297 004c C046C046 		.section	.text.Vector9C,"ax",%progbits
 298              		.align	2
 299              		.p2align 4,,15
 300              		.global	Vector9C
 301              		.code	16
 302              		.thumb_func
 303              		.type	Vector9C, %function
 304              	Vector9C:
 305              	.LFB46:
 306              		.loc 1 303 0
 307              		.cfi_startproc
 308 0000 F8B5     		push	{r3, r4, r5, r6, r7, lr}
 309              		.cfi_def_cfa_offset 24
 310              		.cfi_offset 3, -24
 311              		.cfi_offset 4, -20
 312              		.cfi_offset 5, -16
 313              		.cfi_offset 6, -12
 314              		.cfi_offset 7, -8
 315              		.cfi_offset 14, -4
 316              		.loc 1 304 0
 317 0002 594B     		ldr	r3, .L84
 318 0004 5B6B     		ldr	r3, [r3, #52]
 319 0006 9C69     		ldr	r4, [r3, #24]
 320              	.LVL26:
 321              		.loc 1 306 0
 322              	@ 306 "../../os/hal/platforms/STM32/I2Cv2/i2c_lld.c" 1
 323 0008 7646     		mov     r6, lr
 324              	@ 0 "" 2
 325              	.LVL27:
 326              		.code	16
 327 000a FFF7FEFF 		bl	dbg_check_enter_isr
 328              	.LVL28:
 329              		.loc 1 309 0
 330 000e 564D     		ldr	r5, .L84
 331              		.loc 1 311 0
 332 0010 FC22     		mov	r2, #252
 333              		.loc 1 309 0
 334 0012 6B6B     		ldr	r3, [r5, #52]
 335              		.loc 1 311 0
 336 0014 9201     		lsl	r2, r2, #6
 337              		.loc 1 309 0
 338 0016 DC61     		str	r4, [r3, #28]
ARM GAS  /var/folders/qh/xwg3v3kj02qbxczjpdb8lzfr0000gn/T//ccvvFpD1.s 			page 7


 339              		.loc 1 311 0
 340 0018 1442     		tst	r4, r2
 341 001a 41D1     		bne	.L81
 342              		.loc 1 313 0
 343 001c FE22     		mov	r2, #254
 344 001e 2242     		tst	r2, r4
 345 0020 05D1     		bne	.L82
 346              	.L42:
 347              		.loc 1 316 0
 348 0022 FFF7FEFF 		bl	dbg_check_leave_isr
 349              	.LVL29:
 350 0026 301C     		mov	r0, r6
 351 0028 FFF7FEFF 		bl	_port_irq_epilogue
 352              	.LVL30:
 353              		.loc 1 317 0
 354              		@ sp needed
 355              	.LVL31:
 356              	.LVL32:
 357 002c F8BD     		pop	{r3, r4, r5, r6, r7, pc}
 358              	.LVL33:
 359              	.L82:
 360              	.LBB16:
 361              	.LBB17:
 362              		.loc 1 170 0
 363 002e 4022     		mov	r2, #64
 364 0030 2242     		tst	r2, r4
 365 0032 02D0     		beq	.L45
 366 0034 2978     		ldrb	r1, [r5]
 367 0036 0329     		cmp	r1, #3
 368 0038 6FD0     		beq	.L83
 369              	.L45:
 370              		.loc 1 195 0
 371 003a E006     		lsl	r0, r4, #27
 372 003c 08D5     		bpl	.L47
 373              		.loc 1 197 0
 374 003e 5968     		ldr	r1, [r3, #4]
 375 0040 8022     		mov	r2, #128
 376 0042 D201     		lsl	r2, r2, #7
 377 0044 0A43     		orr	r2, r1
 378 0046 5A60     		str	r2, [r3, #4]
 379              		.loc 1 199 0
 380 0048 AA68     		ldr	r2, [r5, #8]
 381 004a 0423     		mov	r3, #4
 382              	.LVL34:
 383 004c 1343     		orr	r3, r2
 384 004e AB60     		str	r3, [r5, #8]
 385              	.L47:
 386              		.loc 1 201 0
 387 0050 A306     		lsl	r3, r4, #26
 388 0052 E6D5     		bpl	.L42
 389              		.loc 1 203 0
 390 0054 2A6B     		ldr	r2, [r5, #48]
 391 0056 0F23     		mov	r3, #15
 392 0058 1168     		ldr	r1, [r2]
 393 005a 0868     		ldr	r0, [r1]
 394 005c 9843     		bic	r0, r3
 395 005e 0860     		str	r0, [r1]
ARM GAS  /var/folders/qh/xwg3v3kj02qbxczjpdb8lzfr0000gn/T//ccvvFpD1.s 			page 8


 396 0060 5168     		ldr	r1, [r2, #4]
 397 0062 127A     		ldrb	r2, [r2, #8]
 398 0064 181C     		mov	r0, r3
 399 0066 9040     		lsl	r0, r0, r2
 400              		.loc 1 204 0
 401 0068 EA6A     		ldr	r2, [r5, #44]
 402              		.loc 1 203 0
 403 006a 0860     		str	r0, [r1]
 404              		.loc 1 204 0
 405 006c 1168     		ldr	r1, [r2]
 406 006e 0868     		ldr	r0, [r1]
 407 0070 9843     		bic	r0, r3
 408 0072 0860     		str	r0, [r1]
 409 0074 5168     		ldr	r1, [r2, #4]
 410 0076 127A     		ldrb	r2, [r2, #8]
 411 0078 9340     		lsl	r3, r3, r2
 412 007a 0B60     		str	r3, [r1]
 413              		.loc 1 206 0
 414 007c AA68     		ldr	r2, [r5, #8]
 415 007e 002A     		cmp	r2, #0
 416 0080 34D1     		bne	.L80
 417              		.loc 1 210 0
 418              	@ 210 "../../os/hal/platforms/STM32/I2Cv2/i2c_lld.c" 1
 419 0082 72B6     		cpsid   i
 420              	@ 0 "" 2
 421              		.code	16
 422 0084 FFF7FEFF 		bl	dbg_check_lock_from_isr
 423              	.LVL35:
 424 0088 E869     		ldr	r0, [r5, #28]
 425 008a 0028     		cmp	r0, #0
 426 008c 04D0     		beq	.L50
 427              	.LVL36:
 428              	.LBB18:
 429 008e 0023     		mov	r3, #0
 430 0090 EB61     		str	r3, [r5, #28]
 431 0092 4362     		str	r3, [r0, #36]
 432 0094 FFF7FEFF 		bl	chSchReadyI
 433              	.LVL37:
 434              	.L50:
 435              	.LBE18:
 436 0098 FFF7FEFF 		bl	dbg_check_unlock_from_isr
 437              	.LVL38:
 438              	@ 210 "../../os/hal/platforms/STM32/I2Cv2/i2c_lld.c" 1
 439 009c 62B6     		cpsie   i
 440              	@ 0 "" 2
 441              		.code	16
 442 009e C0E7     		b	.L42
 443              	.L81:
 444              	.LVL39:
 445              	.LBE17:
 446              	.LBE16:
 447              	.LBB23:
 448              	.LBB24:
 449              		.loc 1 272 0
 450 00a0 2A6B     		ldr	r2, [r5, #48]
 451 00a2 0F23     		mov	r3, #15
 452 00a4 1168     		ldr	r1, [r2]
ARM GAS  /var/folders/qh/xwg3v3kj02qbxczjpdb8lzfr0000gn/T//ccvvFpD1.s 			page 9


 453 00a6 0868     		ldr	r0, [r1]
 454 00a8 9843     		bic	r0, r3
 455 00aa 0860     		str	r0, [r1]
 456 00ac 5168     		ldr	r1, [r2, #4]
 457 00ae 127A     		ldrb	r2, [r2, #8]
 458 00b0 181C     		mov	r0, r3
 459 00b2 9040     		lsl	r0, r0, r2
 460              		.loc 1 273 0
 461 00b4 EA6A     		ldr	r2, [r5, #44]
 462              		.loc 1 272 0
 463 00b6 0860     		str	r0, [r1]
 464              		.loc 1 273 0
 465 00b8 1168     		ldr	r1, [r2]
 466 00ba 0868     		ldr	r0, [r1]
 467 00bc 9843     		bic	r0, r3
 468 00be 0860     		str	r0, [r1]
 469 00c0 5168     		ldr	r1, [r2, #4]
 470 00c2 127A     		ldrb	r2, [r2, #8]
 471 00c4 9340     		lsl	r3, r3, r2
 472 00c6 0B60     		str	r3, [r1]
 473              		.loc 1 275 0
 474 00c8 E205     		lsl	r2, r4, #23
 475 00ca 1DD4     		bmi	.L36
 476 00cc AB68     		ldr	r3, [r5, #8]
 477              	.L37:
 478              		.loc 1 278 0
 479 00ce A205     		lsl	r2, r4, #22
 480 00d0 02D5     		bpl	.L38
 481              		.loc 1 279 0
 482 00d2 0222     		mov	r2, #2
 483 00d4 1343     		orr	r3, r2
 484 00d6 AB60     		str	r3, [r5, #8]
 485              	.L38:
 486              		.loc 1 281 0
 487 00d8 6005     		lsl	r0, r4, #21
 488 00da 02D5     		bpl	.L39
 489              		.loc 1 282 0
 490 00dc 0822     		mov	r2, #8
 491 00de 1343     		orr	r3, r2
 492 00e0 AB60     		str	r3, [r5, #8]
 493              	.L39:
 494              		.loc 1 284 0
 495 00e2 E204     		lsl	r2, r4, #19
 496 00e4 15D5     		bpl	.L40
 497              		.loc 1 285 0
 498 00e6 2022     		mov	r2, #32
 499 00e8 1343     		orr	r3, r2
 500 00ea AB60     		str	r3, [r5, #8]
 501              	.LVL40:
 502              	.L80:
 503              	.LBE24:
 504              	.LBE23:
 505              	.LBB26:
 506              	.LBB21:
 507              		.loc 1 207 0
 508              	@ 207 "../../os/hal/platforms/STM32/I2Cv2/i2c_lld.c" 1
 509 00ec 72B6     		cpsid   i
ARM GAS  /var/folders/qh/xwg3v3kj02qbxczjpdb8lzfr0000gn/T//ccvvFpD1.s 			page 10


 510              	@ 0 "" 2
 511              		.code	16
 512 00ee FFF7FEFF 		bl	dbg_check_lock_from_isr
 513              	.LVL41:
 514 00f2 E869     		ldr	r0, [r5, #28]
 515 00f4 0028     		cmp	r0, #0
 516 00f6 CFD0     		beq	.L50
 517              	.LVL42:
 518              	.LBB19:
 519 00f8 0023     		mov	r3, #0
 520 00fa EB61     		str	r3, [r5, #28]
 521 00fc 0223     		mov	r3, #2
 522 00fe 5B42     		neg	r3, r3
 523 0100 4362     		str	r3, [r0, #36]
 524 0102 FFF7FEFF 		bl	chSchReadyI
 525              	.LVL43:
 526 0106 C7E7     		b	.L50
 527              	.LVL44:
 528              	.L36:
 529              	.LBE19:
 530              	.LBE21:
 531              	.LBE26:
 532              	.LBB27:
 533              	.LBB25:
 534              		.loc 1 276 0
 535 0108 A868     		ldr	r0, [r5, #8]
 536 010a 0123     		mov	r3, #1
 537 010c 0343     		orr	r3, r0
 538 010e AB60     		str	r3, [r5, #8]
 539 0110 DDE7     		b	.L37
 540              	.L40:
 541              		.loc 1 288 0
 542 0112 002B     		cmp	r3, #0
 543 0114 00D1     		bne	.LCB491
 544 0116 84E7     		b	.L42	@long jump
 545              	.LCB491:
 546 0118 E8E7     		b	.L80
 547              	.LVL45:
 548              	.L83:
 549              	.LBE25:
 550              	.LBE27:
 551              	.LBB28:
 552              	.LBB22:
 553              	.LBB20:
 554              		.loc 1 174 0
 555 011a 1968     		ldr	r1, [r3]
 556 011c 9143     		bic	r1, r2
 557              		.loc 1 176 0
 558 011e EA6A     		ldr	r2, [r5, #44]
 559              		.loc 1 174 0
 560 0120 1960     		str	r1, [r3]
 561              		.loc 1 176 0
 562 0122 1268     		ldr	r2, [r2]
 563 0124 5168     		ldr	r1, [r2, #4]
 564              	.LVL46:
 565              		.loc 1 177 0
 566 0126 0029     		cmp	r1, #0
ARM GAS  /var/folders/qh/xwg3v3kj02qbxczjpdb8lzfr0000gn/T//ccvvFpD1.s 			page 11


 567 0128 18D0     		beq	.L46
 568              		.loc 1 181 0
 569 012a 1768     		ldr	r7, [r2]
 570              		.loc 1 178 0
 571 012c 0420     		mov	r0, #4
 572 012e 2870     		strb	r0, [r5]
 573              		.loc 1 181 0
 574 0130 0120     		mov	r0, #1
 575 0132 3843     		orr	r0, r7
 576 0134 1060     		str	r0, [r2]
 577              		.loc 1 183 0
 578 0136 5868     		ldr	r0, [r3, #4]
 579 0138 0C4A     		ldr	r2, .L84+4
 580              		.loc 1 184 0
 581 013a 0904     		lsl	r1, r1, #16
 582              	.LVL47:
 583              		.loc 1 183 0
 584 013c 0240     		and	r2, r0
 585 013e 5A60     		str	r2, [r3, #4]
 586              		.loc 1 184 0
 587 0140 5A68     		ldr	r2, [r3, #4]
 588 0142 1143     		orr	r1, r2
 589 0144 5960     		str	r1, [r3, #4]
 590              		.loc 1 187 0
 591 0146 5968     		ldr	r1, [r3, #4]
 592 0148 8022     		mov	r2, #128
 593 014a D200     		lsl	r2, r2, #3
 594 014c 0A43     		orr	r2, r1
 595 014e 5A60     		str	r2, [r3, #4]
 596              		.loc 1 188 0
 597 0150 5968     		ldr	r1, [r3, #4]
 598 0152 8022     		mov	r2, #128
 599 0154 9201     		lsl	r2, r2, #6
 600 0156 0A43     		orr	r2, r1
 601 0158 5A60     		str	r2, [r3, #4]
 602 015a 6EE7     		b	.L45
 603              	.LVL48:
 604              	.L46:
 605              		.loc 1 192 0
 606 015c 5968     		ldr	r1, [r3, #4]
 607              	.LVL49:
 608 015e 8022     		mov	r2, #128
 609 0160 D201     		lsl	r2, r2, #7
 610 0162 0A43     		orr	r2, r1
 611 0164 5A60     		str	r2, [r3, #4]
 612 0166 68E7     		b	.L45
 613              	.L85:
 614              		.align	2
 615              	.L84:
 616 0168 00000000 		.word	.LANCHOR0
 617 016c FFFF00FF 		.word	-16711681
 618              	.LBE20:
 619              	.LBE22:
 620              	.LBE28:
 621              		.cfi_endproc
 622              	.LFE46:
 623              		.size	Vector9C, .-Vector9C
ARM GAS  /var/folders/qh/xwg3v3kj02qbxczjpdb8lzfr0000gn/T//ccvvFpD1.s 			page 12


 624              		.section	.text.i2c_lld_init,"ax",%progbits
 625              		.align	2
 626              		.p2align 4,,15
 627              		.global	i2c_lld_init
 628              		.code	16
 629              		.thumb_func
 630              		.type	i2c_lld_init, %function
 631              	i2c_lld_init:
 632              	.LFB47:
 633              		.loc 1 415 0
 634              		.cfi_startproc
 635 0000 10B5     		push	{r4, lr}
 636              		.cfi_def_cfa_offset 8
 637              		.cfi_offset 4, -8
 638              		.cfi_offset 14, -4
 639              		.loc 1 418 0
 640 0002 064C     		ldr	r4, .L87
 641              		.loc 1 432 0
 642              		@ sp needed
 643              		.loc 1 418 0
 644 0004 201C     		mov	r0, r4
 645 0006 FFF7FEFF 		bl	i2cObjectInit
 646              	.LVL50:
 647              		.loc 1 419 0
 648 000a 0023     		mov	r3, #0
 649 000c E361     		str	r3, [r4, #28]
 650              		.loc 1 420 0
 651 000e 044B     		ldr	r3, .L87+4
 652 0010 6363     		str	r3, [r4, #52]
 653              		.loc 1 421 0
 654 0012 044B     		ldr	r3, .L87+8
 655 0014 E362     		str	r3, [r4, #44]
 656              		.loc 1 422 0
 657 0016 0C3B     		sub	r3, r3, #12
 658 0018 2363     		str	r3, [r4, #48]
 659              		.loc 1 432 0
 660 001a 10BD     		pop	{r4, pc}
 661              	.L88:
 662              		.align	2
 663              	.L87:
 664 001c 00000000 		.word	.LANCHOR0
 665 0020 00540040 		.word	1073763328
 666 0024 18000000 		.word	_stm32_dma_streams+24
 667              		.cfi_endproc
 668              	.LFE47:
 669              		.size	i2c_lld_init, .-i2c_lld_init
 670 0028 C046C046 		.section	.text.i2c_lld_start,"ax",%progbits
 670      C046C046 
 671              		.align	2
 672              		.p2align 4,,15
 673              		.global	i2c_lld_start
 674              		.code	16
 675              		.thumb_func
 676              		.type	i2c_lld_start, %function
 677              	i2c_lld_start:
 678              	.LFB48:
 679              		.loc 1 441 0
ARM GAS  /var/folders/qh/xwg3v3kj02qbxczjpdb8lzfr0000gn/T//ccvvFpD1.s 			page 13


 680              		.cfi_startproc
 681              	.LVL51:
 682 0000 F8B5     		push	{r3, r4, r5, r6, r7, lr}
 683              		.cfi_def_cfa_offset 24
 684              		.cfi_offset 3, -24
 685              		.cfi_offset 4, -20
 686              		.cfi_offset 5, -16
 687              		.cfi_offset 6, -12
 688              		.cfi_offset 7, -8
 689              		.cfi_offset 14, -4
 690              		.loc 1 442 0
 691 0002 446B     		ldr	r4, [r0, #52]
 692              	.LVL52:
 693              		.loc 1 444 0
 694 0004 9A23     		mov	r3, #154
 695 0006 8362     		str	r3, [r0, #40]
 696              		.loc 1 445 0
 697 0008 8A23     		mov	r3, #138
 698 000a 4362     		str	r3, [r0, #36]
 699              		.loc 1 448 0
 700 000c 2368     		ldr	r3, [r4]
 701 000e 0122     		mov	r2, #1
 702 0010 9343     		bic	r3, r2
 703 0012 2360     		str	r3, [r4]
 704              		.loc 1 451 0
 705 0014 0378     		ldrb	r3, [r0]
 706              		.loc 1 441 0
 707 0016 051C     		mov	r5, r0
 708              		.loc 1 451 0
 709 0018 012B     		cmp	r3, #1
 710 001a 18D0     		beq	.L91
 711              	.LVL53:
 712              	.L90:
 713              		.loc 1 527 0
 714 001c EB6A     		ldr	r3, [r5, #44]
 715 001e 221C     		mov	r2, r4
 716 0020 1B68     		ldr	r3, [r3]
 717 0022 2432     		add	r2, r2, #36
 718 0024 9A60     		str	r2, [r3, #8]
 719              		.loc 1 528 0
 720 0026 2B6B     		ldr	r3, [r5, #48]
 721 0028 0432     		add	r2, r2, #4
 722 002a 1B68     		ldr	r3, [r3]
 723              		.loc 1 542 0
 724              		@ sp needed
 725              		.loc 1 528 0
 726 002c 9A60     		str	r2, [r3, #8]
 727              		.loc 1 531 0
 728 002e 6B68     		ldr	r3, [r5, #4]
 729              		.loc 1 532 0
 730 0030 1B4A     		ldr	r2, .L92
 731 0032 5968     		ldr	r1, [r3, #4]
 732 0034 0A43     		orr	r2, r1
 733              		.loc 1 535 0
 734 0036 9968     		ldr	r1, [r3, #8]
 735              		.loc 1 531 0
 736 0038 2260     		str	r2, [r4]
ARM GAS  /var/folders/qh/xwg3v3kj02qbxczjpdb8lzfr0000gn/T//ccvvFpD1.s 			page 14


 737              		.loc 1 538 0
 738 003a 1B68     		ldr	r3, [r3]
 739              		.loc 1 535 0
 740 003c 8A0A     		lsr	r2, r1, #10
 741 003e 9202     		lsl	r2, r2, #10
 742 0040 6260     		str	r2, [r4, #4]
 743              		.loc 1 538 0
 744 0042 2361     		str	r3, [r4, #16]
 745              		.loc 1 541 0
 746 0044 2268     		ldr	r2, [r4]
 747 0046 0123     		mov	r3, #1
 748 0048 1343     		orr	r3, r2
 749 004a 2360     		str	r3, [r4]
 750              	.LVL54:
 751              	.LVL55:
 752              		.loc 1 542 0
 753 004c F8BD     		pop	{r3, r4, r5, r6, r7, pc}
 754              	.LVL56:
 755              	.L91:
 756              		.loc 1 454 0
 757 004e 154B     		ldr	r3, .L92+4
 758 0050 9842     		cmp	r0, r3
 759 0052 E3D1     		bne	.L90
 760              	.LBB29:
 761              		.loc 1 457 0
 762 0054 144E     		ldr	r6, .L92+8
 763 0056 8027     		mov	r7, #128
 764 0058 3369     		ldr	r3, [r6, #16]
 765 005a BF03     		lsl	r7, r7, #14
 766 005c 3B43     		orr	r3, r7
 767 005e 3361     		str	r3, [r6, #16]
 768 0060 0023     		mov	r3, #0
 769 0062 3361     		str	r3, [r6, #16]
 770              		.loc 1 458 0
 771 0064 0A21     		mov	r1, #10
 772 0066 114A     		ldr	r2, .L92+12
 773 0068 2B1C     		mov	r3, r5
 774 006a C06A     		ldr	r0, [r0, #44]
 775              	.LVL57:
 776 006c FFF7FEFF 		bl	dmaStreamAllocate
 777              	.LVL58:
 778              		.loc 1 463 0
 779 0070 0F4A     		ldr	r2, .L92+16
 780 0072 0A21     		mov	r1, #10
 781 0074 2B1C     		mov	r3, r5
 782 0076 286B     		ldr	r0, [r5, #48]
 783 0078 FFF7FEFF 		bl	dmaStreamAllocate
 784              	.LVL59:
 785              		.loc 1 468 0
 786 007c F369     		ldr	r3, [r6, #28]
 787              		.loc 1 471 0
 788 007e A021     		mov	r1, #160
 789              		.loc 1 468 0
 790 0080 1F43     		orr	r7, r3
 791              		.loc 1 471 0
 792 0082 8900     		lsl	r1, r1, #2
 793              		.loc 1 468 0
ARM GAS  /var/folders/qh/xwg3v3kj02qbxczjpdb8lzfr0000gn/T//ccvvFpD1.s 			page 15


 794 0084 F761     		str	r7, [r6, #28]
 795              		.loc 1 471 0
 796 0086 1720     		mov	r0, #23
 797 0088 FFF7FEFF 		bl	nvicEnableVector
 798              	.LVL60:
 799              		.loc 1 482 0
 800 008c 6A6A     		ldr	r2, [r5, #36]
 801              		.loc 1 484 0
 802 008e A96A     		ldr	r1, [r5, #40]
 803              		.loc 1 482 0
 804 0090 8023     		mov	r3, #128
 805 0092 5B01     		lsl	r3, r3, #5
 806 0094 1A43     		orr	r2, r3
 807              		.loc 1 484 0
 808 0096 0B43     		orr	r3, r1
 809              		.loc 1 482 0
 810 0098 6A62     		str	r2, [r5, #36]
 811              		.loc 1 484 0
 812 009a AB62     		str	r3, [r5, #40]
 813 009c BEE7     		b	.L90
 814              	.L93:
 815 009e C046     		.align	2
 816              	.L92:
 817 00a0 B0C00000 		.word	49328
 818 00a4 00000000 		.word	.LANCHOR0
 819 00a8 00100240 		.word	1073876992
 820 00ac 00000000 		.word	i2c_lld_serve_rx_end_irq
 821 00b0 00000000 		.word	i2c_lld_serve_tx_end_irq
 822              	.LBE29:
 823              		.cfi_endproc
 824              	.LFE48:
 825              		.size	i2c_lld_start, .-i2c_lld_start
 826 00b4 C046C046 		.section	.text.i2c_lld_stop,"ax",%progbits
 826      C046C046 
 826      C046C046 
 827              		.align	2
 828              		.p2align 4,,15
 829              		.global	i2c_lld_stop
 830              		.code	16
 831              		.thumb_func
 832              		.type	i2c_lld_stop, %function
 833              	i2c_lld_stop:
 834              	.LFB49:
 835              		.loc 1 551 0
 836              		.cfi_startproc
 837              	.LVL61:
 838              		.loc 1 554 0
 839 0000 0378     		ldrb	r3, [r0]
 840              		.loc 1 551 0
 841 0002 10B5     		push	{r4, lr}
 842              		.cfi_def_cfa_offset 8
 843              		.cfi_offset 4, -8
 844              		.cfi_offset 14, -4
 845              		.loc 1 551 0
 846 0004 041C     		mov	r4, r0
 847              		.loc 1 554 0
 848 0006 012B     		cmp	r3, #1
ARM GAS  /var/folders/qh/xwg3v3kj02qbxczjpdb8lzfr0000gn/T//ccvvFpD1.s 			page 16


 849 0008 0AD0     		beq	.L94
 850              		.loc 1 557 0
 851 000a FFF7FEFF 		bl	i2c_lld_abort_operation
 852              	.LVL62:
 853              		.loc 1 558 0
 854 000e 206B     		ldr	r0, [r4, #48]
 855 0010 FFF7FEFF 		bl	dmaStreamRelease
 856              	.LVL63:
 857              		.loc 1 559 0
 858 0014 E06A     		ldr	r0, [r4, #44]
 859 0016 FFF7FEFF 		bl	dmaStreamRelease
 860              	.LVL64:
 861              		.loc 1 562 0
 862 001a 064B     		ldr	r3, .L99
 863 001c 9C42     		cmp	r4, r3
 864 001e 00D0     		beq	.L98
 865              	.L94:
 866              		.loc 1 591 0
 867              		@ sp needed
 868              	.LVL65:
 869 0020 10BD     		pop	{r4, pc}
 870              	.LVL66:
 871              	.L98:
 872              		.loc 1 564 0
 873 0022 1720     		mov	r0, #23
 874 0024 FFF7FEFF 		bl	nvicDisableVector
 875              	.LVL67:
 876              		.loc 1 572 0
 877 0028 034B     		ldr	r3, .L99+4
 878 002a 044A     		ldr	r2, .L99+8
 879 002c D969     		ldr	r1, [r3, #28]
 880 002e 0A40     		and	r2, r1
 881 0030 DA61     		str	r2, [r3, #28]
 882 0032 F5E7     		b	.L94
 883              	.L100:
 884              		.align	2
 885              	.L99:
 886 0034 00000000 		.word	.LANCHOR0
 887 0038 00100240 		.word	1073876992
 888 003c FFFFDFFF 		.word	-2097153
 889              		.cfi_endproc
 890              	.LFE49:
 891              		.size	i2c_lld_stop, .-i2c_lld_stop
 892              		.section	.text.i2c_lld_master_receive_timeout,"ax",%progbits
 893              		.align	2
 894              		.p2align 4,,15
 895              		.global	i2c_lld_master_receive_timeout
 896              		.code	16
 897              		.thumb_func
 898              		.type	i2c_lld_master_receive_timeout, %function
 899              	i2c_lld_master_receive_timeout:
 900              	.LFB50:
 901              		.loc 1 618 0
 902              		.cfi_startproc
 903              	.LVL68:
 904 0000 F0B5     		push	{r4, r5, r6, r7, lr}
 905              		.cfi_def_cfa_offset 20
ARM GAS  /var/folders/qh/xwg3v3kj02qbxczjpdb8lzfr0000gn/T//ccvvFpD1.s 			page 17


 906              		.cfi_offset 4, -20
 907              		.cfi_offset 5, -16
 908              		.cfi_offset 6, -12
 909              		.cfi_offset 7, -8
 910              		.cfi_offset 14, -4
 911 0002 5646     		mov	r6, r10
 912 0004 4D46     		mov	r5, r9
 913 0006 5F46     		mov	r7, fp
 914 0008 4446     		mov	r4, r8
 915 000a F0B4     		push	{r4, r5, r6, r7}
 916              		.cfi_def_cfa_offset 36
 917              		.cfi_offset 8, -36
 918              		.cfi_offset 9, -32
 919              		.cfi_offset 10, -28
 920              		.cfi_offset 11, -24
 921 000c 87B0     		sub	sp, sp, #28
 922              		.cfi_def_cfa_offset 64
 923              		.loc 1 618 0
 924 000e 109E     		ldr	r6, [sp, #64]
 925 0010 9946     		mov	r9, r3
 926              		.loc 1 626 0
 927 0012 0023     		mov	r3, #0
 928              	.LVL69:
 929              		.loc 1 618 0
 930 0014 8046     		mov	r8, r0
 931 0016 8B46     		mov	fp, r1
 932 0018 9246     		mov	r10, r2
 933              		.loc 1 619 0
 934 001a 456B     		ldr	r5, [r0, #52]
 935              	.LVL70:
 936              		.loc 1 626 0
 937 001c 8360     		str	r3, [r0, #8]
 938              		.loc 1 629 0
 939 001e 711C     		add	r1, r6, #1
 940 0020 05D0     		beq	.L102
 941              	.LVL71:
 942              		.loc 1 630 0
 943 0022 01A8     		add	r0, sp, #4
 944              	.LVL72:
 945 0024 311C     		mov	r1, r6
 946 0026 3D4A     		ldr	r2, .L130
 947              	.LVL73:
 948 0028 4346     		mov	r3, r8
 949 002a FFF7FEFF 		bl	chVTSetI
 950              	.LVL74:
 951              	.L102:
 952              		.loc 1 633 0
 953 002e FFF7FEFF 		bl	dbg_check_unlock
 954              	.LVL75:
 955              	@ 633 "../../os/hal/platforms/STM32/I2Cv2/i2c_lld.c" 1
 956 0032 62B6     		cpsie   i
 957              	@ 0 "" 2
 958              		.loc 1 637 0
 959              		.code	16
 960 0034 8027     		mov	r7, #128
 961 0036 AB69     		ldr	r3, [r5, #24]
 962 0038 3F02     		lsl	r7, r7, #8
ARM GAS  /var/folders/qh/xwg3v3kj02qbxczjpdb8lzfr0000gn/T//ccvvFpD1.s 			page 18


 963 003a 3B42     		tst	r3, r7
 964 003c 0DD0     		beq	.L108
 965              	.L127:
 966              		.loc 1 638 0
 967              	@ 638 "../../os/hal/platforms/STM32/I2Cv2/i2c_lld.c" 1
 968 003e 72B6     		cpsid   i
 969              	@ 0 "" 2
 970              		.code	16
 971 0040 FFF7FEFF 		bl	dbg_check_lock
 972              	.LVL76:
 973              		.loc 1 639 0
 974 0044 731C     		add	r3, r6, #1
 975 0046 02D0     		beq	.L106
 976              		.loc 1 639 0 is_stmt 0 discriminator 1
 977 0048 0499     		ldr	r1, [sp, #16]
 978 004a 0029     		cmp	r1, #0
 979 004c 51D0     		beq	.L111
 980              	.L106:
 981              		.loc 1 641 0 is_stmt 1
 982 004e FFF7FEFF 		bl	dbg_check_unlock
 983              	.LVL77:
 984              	@ 641 "../../os/hal/platforms/STM32/I2Cv2/i2c_lld.c" 1
 985 0052 62B6     		cpsie   i
 986              	@ 0 "" 2
 987              		.loc 1 637 0
 988              		.code	16
 989 0054 AC69     		ldr	r4, [r5, #24]
 990 0056 3C42     		tst	r4, r7
 991 0058 F1D1     		bne	.L127
 992              	.L108:
 993              		.loc 1 621 0
 994 005a 5A46     		mov	r2, fp
 995 005c 9405     		lsl	r4, r2, #22
 996 005e A40D     		lsr	r4, r4, #22
 997              		.loc 1 645 0
 998              	@ 645 "../../os/hal/platforms/STM32/I2Cv2/i2c_lld.c" 1
 999 0060 72B6     		cpsid   i
 1000              	@ 0 "" 2
 1001              		.code	16
 1002 0062 FFF7FEFF 		bl	dbg_check_lock
 1003              	.LVL78:
 1004              		.loc 1 648 0
 1005 0066 4146     		mov	r1, r8
 1006 0068 4B68     		ldr	r3, [r1, #4]
 1007 006a 9B68     		ldr	r3, [r3, #8]
 1008 006c 1A05     		lsl	r2, r3, #20
 1009 006e 02D4     		bmi	.L105
 1010              	.LVL79:
 1011              		.loc 1 649 0
 1012 0070 6400     		lsl	r4, r4, #1
 1013 0072 FF23     		mov	r3, #255
 1014 0074 1C40     		and	r4, r3
 1015              	.LVL80:
 1016              	.L105:
 1017              		.loc 1 652 0
 1018 0076 6A68     		ldr	r2, [r5, #4]
 1019 0078 294B     		ldr	r3, .L130+4
ARM GAS  /var/folders/qh/xwg3v3kj02qbxczjpdb8lzfr0000gn/T//ccvvFpD1.s 			page 19


 1020              		.loc 1 653 0
 1021 007a 4946     		mov	r1, r9
 1022              	.LVL81:
 1023              		.loc 1 652 0
 1024 007c 1340     		and	r3, r2
 1025 007e 6B60     		str	r3, [r5, #4]
 1026              		.loc 1 653 0
 1027 0080 6B68     		ldr	r3, [r5, #4]
 1028 0082 0A04     		lsl	r2, r1, #16
 1029 0084 1343     		orr	r3, r2
 1030 0086 1C43     		orr	r4, r3
 1031              	.LVL82:
 1032              		.loc 1 656 0
 1033 0088 4246     		mov	r2, r8
 1034 008a 0023     		mov	r3, #0
 1035              		.loc 1 653 0
 1036 008c 6C60     		str	r4, [r5, #4]
 1037              		.loc 1 656 0
 1038 008e 9360     		str	r3, [r2, #8]
 1039              		.loc 1 659 0
 1040 0090 D36A     		ldr	r3, [r2, #44]
 1041 0092 1968     		ldr	r1, [r3]
 1042 0094 536A     		ldr	r3, [r2, #36]
 1043              		.loc 1 660 0
 1044 0096 5246     		mov	r2, r10
 1045              		.loc 1 659 0
 1046 0098 0B60     		str	r3, [r1]
 1047              		.loc 1 661 0
 1048 009a 4B46     		mov	r3, r9
 1049              		.loc 1 660 0
 1050 009c CA60     		str	r2, [r1, #12]
 1051              		.loc 1 661 0
 1052 009e 4B60     		str	r3, [r1, #4]
 1053              		.loc 1 664 0
 1054 00a0 0A68     		ldr	r2, [r1]
 1055 00a2 0123     		mov	r3, #1
 1056 00a4 1343     		orr	r3, r2
 1057 00a6 0B60     		str	r3, [r1]
 1058              		.loc 1 668 0
 1059 00a8 0136     		add	r6, r6, #1
 1060 00aa 25D0     		beq	.L110
 1061              		.loc 1 668 0 is_stmt 0 discriminator 1
 1062 00ac 0499     		ldr	r1, [sp, #16]
 1063 00ae 0029     		cmp	r1, #0
 1064 00b0 1FD0     		beq	.L111
 1065              		.loc 1 672 0 is_stmt 1
 1066 00b2 6A68     		ldr	r2, [r5, #4]
 1067 00b4 8023     		mov	r3, #128
 1068 00b6 DB00     		lsl	r3, r3, #3
 1069 00b8 1343     		orr	r3, r2
 1070 00ba 6B60     		str	r3, [r5, #4]
 1071              		.loc 1 673 0
 1072 00bc 6A68     		ldr	r2, [r5, #4]
 1073              		.loc 1 676 0
 1074 00be 194C     		ldr	r4, .L130+8
 1075              		.loc 1 673 0
 1076 00c0 8023     		mov	r3, #128
ARM GAS  /var/folders/qh/xwg3v3kj02qbxczjpdb8lzfr0000gn/T//ccvvFpD1.s 			page 20


 1077 00c2 9B01     		lsl	r3, r3, #6
 1078 00c4 1343     		orr	r3, r2
 1079              		.loc 1 676 0
 1080 00c6 A269     		ldr	r2, [r4, #24]
 1081              		.loc 1 673 0
 1082 00c8 6B60     		str	r3, [r5, #4]
 1083              		.loc 1 676 0
 1084 00ca 4346     		mov	r3, r8
 1085 00cc DA61     		str	r2, [r3, #28]
 1086              		.loc 1 677 0
 1087 00ce 0220     		mov	r0, #2
 1088 00d0 FFF7FEFF 		bl	chSchGoSleepS
 1089              	.LVL83:
 1090              		.loc 1 678 0
 1091 00d4 0499     		ldr	r1, [sp, #16]
 1092 00d6 0029     		cmp	r1, #0
 1093 00d8 02D0     		beq	.L114
 1094              		.loc 1 679 0
 1095 00da 01A8     		add	r0, sp, #4
 1096 00dc FFF7FEFF 		bl	chVTResetI
 1097              	.LVL84:
 1098              	.L114:
 1099              		.loc 1 681 0
 1100 00e0 A369     		ldr	r3, [r4, #24]
 1101 00e2 586A     		ldr	r0, [r3, #36]
 1102              	.L128:
 1103              		.loc 1 682 0
 1104 00e4 07B0     		add	sp, sp, #28
 1105              		@ sp needed
 1106              	.LVL85:
 1107              	.LVL86:
 1108              	.LVL87:
 1109              	.LVL88:
 1110 00e6 3CBC     		pop	{r2, r3, r4, r5}
 1111 00e8 9046     		mov	r8, r2
 1112 00ea 9946     		mov	r9, r3
 1113 00ec A246     		mov	r10, r4
 1114 00ee AB46     		mov	fp, r5
 1115 00f0 F0BD     		pop	{r4, r5, r6, r7, pc}
 1116              	.LVL89:
 1117              	.L111:
 1118              		.loc 1 640 0
 1119 00f2 0120     		mov	r0, #1
 1120 00f4 4042     		neg	r0, r0
 1121 00f6 F5E7     		b	.L128
 1122              	.L110:
 1123              		.loc 1 672 0
 1124 00f8 6A68     		ldr	r2, [r5, #4]
 1125 00fa 8023     		mov	r3, #128
 1126 00fc DB00     		lsl	r3, r3, #3
 1127 00fe 1343     		orr	r3, r2
 1128 0100 6B60     		str	r3, [r5, #4]
 1129              		.loc 1 673 0
 1130 0102 6A68     		ldr	r2, [r5, #4]
 1131              		.loc 1 676 0
 1132 0104 074C     		ldr	r4, .L130+8
 1133              		.loc 1 673 0
ARM GAS  /var/folders/qh/xwg3v3kj02qbxczjpdb8lzfr0000gn/T//ccvvFpD1.s 			page 21


 1134 0106 8023     		mov	r3, #128
 1135 0108 9B01     		lsl	r3, r3, #6
 1136 010a 1343     		orr	r3, r2
 1137              		.loc 1 676 0
 1138 010c A269     		ldr	r2, [r4, #24]
 1139              		.loc 1 673 0
 1140 010e 6B60     		str	r3, [r5, #4]
 1141              		.loc 1 676 0
 1142 0110 4346     		mov	r3, r8
 1143 0112 DA61     		str	r2, [r3, #28]
 1144              		.loc 1 677 0
 1145 0114 0220     		mov	r0, #2
 1146 0116 FFF7FEFF 		bl	chSchGoSleepS
 1147              	.LVL90:
 1148 011a E1E7     		b	.L114
 1149              	.L131:
 1150              		.align	2
 1151              	.L130:
 1152 011c 00000000 		.word	i2c_lld_safety_timeout
 1153 0120 00FC00FF 		.word	-16712704
 1154 0124 00000000 		.word	rlist
 1155              		.cfi_endproc
 1156              	.LFE50:
 1157              		.size	i2c_lld_master_receive_timeout, .-i2c_lld_master_receive_timeout
 1158 0128 C046C046 		.section	.text.i2c_lld_master_transmit_timeout,"ax",%progbits
 1158      C046C046 
 1159              		.align	2
 1160              		.p2align 4,,15
 1161              		.global	i2c_lld_master_transmit_timeout
 1162              		.code	16
 1163              		.thumb_func
 1164              		.type	i2c_lld_master_transmit_timeout, %function
 1165              	i2c_lld_master_transmit_timeout:
 1166              	.LFB51:
 1167              		.loc 1 712 0
 1168              		.cfi_startproc
 1169              	.LVL91:
 1170 0000 F0B5     		push	{r4, r5, r6, r7, lr}
 1171              		.cfi_def_cfa_offset 20
 1172              		.cfi_offset 4, -20
 1173              		.cfi_offset 5, -16
 1174              		.cfi_offset 6, -12
 1175              		.cfi_offset 7, -8
 1176              		.cfi_offset 14, -4
 1177 0002 5646     		mov	r6, r10
 1178 0004 4D46     		mov	r5, r9
 1179 0006 5F46     		mov	r7, fp
 1180 0008 4446     		mov	r4, r8
 1181 000a F0B4     		push	{r4, r5, r6, r7}
 1182              		.cfi_def_cfa_offset 36
 1183              		.cfi_offset 8, -36
 1184              		.cfi_offset 9, -32
 1185              		.cfi_offset 10, -28
 1186              		.cfi_offset 11, -24
 1187 000c 87B0     		sub	sp, sp, #28
 1188              		.cfi_def_cfa_offset 64
 1189              		.loc 1 712 0
ARM GAS  /var/folders/qh/xwg3v3kj02qbxczjpdb8lzfr0000gn/T//ccvvFpD1.s 			page 22


 1190 000e 129E     		ldr	r6, [sp, #72]
 1191 0010 9946     		mov	r9, r3
 1192              		.loc 1 721 0
 1193 0012 0023     		mov	r3, #0
 1194              	.LVL92:
 1195              		.loc 1 712 0
 1196 0014 8046     		mov	r8, r0
 1197 0016 8B46     		mov	fp, r1
 1198 0018 9246     		mov	r10, r2
 1199              		.loc 1 713 0
 1200 001a 456B     		ldr	r5, [r0, #52]
 1201              	.LVL93:
 1202              		.loc 1 721 0
 1203 001c 8360     		str	r3, [r0, #8]
 1204              		.loc 1 724 0
 1205 001e 701C     		add	r0, r6, #1
 1206 0020 05D0     		beq	.L133
 1207              	.LVL94:
 1208              		.loc 1 725 0
 1209 0022 01A8     		add	r0, sp, #4
 1210 0024 311C     		mov	r1, r6
 1211              	.LVL95:
 1212 0026 454A     		ldr	r2, .L161
 1213              	.LVL96:
 1214 0028 4346     		mov	r3, r8
 1215 002a FFF7FEFF 		bl	chVTSetI
 1216              	.LVL97:
 1217              	.L133:
 1218              		.loc 1 728 0
 1219 002e FFF7FEFF 		bl	dbg_check_unlock
 1220              	.LVL98:
 1221              	@ 728 "../../os/hal/platforms/STM32/I2Cv2/i2c_lld.c" 1
 1222 0032 62B6     		cpsie   i
 1223              	@ 0 "" 2
 1224              		.loc 1 732 0
 1225              		.code	16
 1226 0034 8027     		mov	r7, #128
 1227 0036 AB69     		ldr	r3, [r5, #24]
 1228 0038 3F02     		lsl	r7, r7, #8
 1229 003a 3B42     		tst	r3, r7
 1230 003c 0DD0     		beq	.L139
 1231              	.L158:
 1232              		.loc 1 733 0
 1233              	@ 733 "../../os/hal/platforms/STM32/I2Cv2/i2c_lld.c" 1
 1234 003e 72B6     		cpsid   i
 1235              	@ 0 "" 2
 1236              		.code	16
 1237 0040 FFF7FEFF 		bl	dbg_check_lock
 1238              	.LVL99:
 1239              		.loc 1 734 0
 1240 0044 711C     		add	r1, r6, #1
 1241 0046 02D0     		beq	.L137
 1242              		.loc 1 734 0 is_stmt 0 discriminator 1
 1243 0048 049A     		ldr	r2, [sp, #16]
 1244 004a 002A     		cmp	r2, #0
 1245 004c 5DD0     		beq	.L142
 1246              	.L137:
ARM GAS  /var/folders/qh/xwg3v3kj02qbxczjpdb8lzfr0000gn/T//ccvvFpD1.s 			page 23


 1247              		.loc 1 736 0 is_stmt 1
 1248 004e FFF7FEFF 		bl	dbg_check_unlock
 1249              	.LVL100:
 1250              	@ 736 "../../os/hal/platforms/STM32/I2Cv2/i2c_lld.c" 1
 1251 0052 62B6     		cpsie   i
 1252              	@ 0 "" 2
 1253              		.loc 1 732 0
 1254              		.code	16
 1255 0054 AC69     		ldr	r4, [r5, #24]
 1256 0056 3C42     		tst	r4, r7
 1257 0058 F1D1     		bne	.L158
 1258              	.L139:
 1259              		.loc 1 715 0
 1260 005a 5946     		mov	r1, fp
 1261 005c 8C05     		lsl	r4, r1, #22
 1262 005e A40D     		lsr	r4, r4, #22
 1263              		.loc 1 740 0
 1264              	@ 740 "../../os/hal/platforms/STM32/I2Cv2/i2c_lld.c" 1
 1265 0060 72B6     		cpsid   i
 1266              	@ 0 "" 2
 1267              		.code	16
 1268 0062 FFF7FEFF 		bl	dbg_check_lock
 1269              	.LVL101:
 1270              		.loc 1 743 0
 1271 0066 4246     		mov	r2, r8
 1272 0068 5368     		ldr	r3, [r2, #4]
 1273 006a 9B68     		ldr	r3, [r3, #8]
 1274 006c 1805     		lsl	r0, r3, #20
 1275 006e 02D4     		bmi	.L136
 1276              	.LVL102:
 1277              		.loc 1 744 0
 1278 0070 6400     		lsl	r4, r4, #1
 1279 0072 FF23     		mov	r3, #255
 1280 0074 1C40     		and	r4, r3
 1281              	.LVL103:
 1282              	.L136:
 1283              		.loc 1 747 0
 1284 0076 6A68     		ldr	r2, [r5, #4]
 1285              	.LVL104:
 1286 0078 314B     		ldr	r3, .L161+4
 1287              		.loc 1 748 0
 1288 007a 4846     		mov	r0, r9
 1289              		.loc 1 747 0
 1290 007c 1340     		and	r3, r2
 1291 007e 6B60     		str	r3, [r5, #4]
 1292              		.loc 1 748 0
 1293 0080 6B68     		ldr	r3, [r5, #4]
 1294 0082 0204     		lsl	r2, r0, #16
 1295 0084 1343     		orr	r3, r2
 1296              		.loc 1 751 0
 1297 0086 4146     		mov	r1, r8
 1298              		.loc 1 748 0
 1299 0088 1C43     		orr	r4, r3
 1300              	.LVL105:
 1301              		.loc 1 751 0
 1302 008a 0023     		mov	r3, #0
 1303              		.loc 1 748 0
ARM GAS  /var/folders/qh/xwg3v3kj02qbxczjpdb8lzfr0000gn/T//ccvvFpD1.s 			page 24


 1304 008c 6C60     		str	r4, [r5, #4]
 1305              		.loc 1 751 0
 1306 008e 8B60     		str	r3, [r1, #8]
 1307              		.loc 1 754 0
 1308 0090 0B6B     		ldr	r3, [r1, #48]
 1309 0092 4246     		mov	r2, r8
 1310 0094 926A     		ldr	r2, [r2, #40]
 1311 0096 1968     		ldr	r1, [r3]
 1312              		.loc 1 755 0
 1313 0098 5346     		mov	r3, r10
 1314              		.loc 1 754 0
 1315 009a 0A60     		str	r2, [r1]
 1316              		.loc 1 755 0
 1317 009c CB60     		str	r3, [r1, #12]
 1318              		.loc 1 756 0
 1319 009e 4860     		str	r0, [r1, #4]
 1320              		.loc 1 759 0
 1321 00a0 4046     		mov	r0, r8
 1322 00a2 C36A     		ldr	r3, [r0, #44]
 1323 00a4 426A     		ldr	r2, [r0, #36]
 1324 00a6 1B68     		ldr	r3, [r3]
 1325              		.loc 1 760 0
 1326 00a8 1098     		ldr	r0, [sp, #64]
 1327              		.loc 1 759 0
 1328 00aa 1A60     		str	r2, [r3]
 1329              		.loc 1 761 0
 1330 00ac 119A     		ldr	r2, [sp, #68]
 1331              		.loc 1 760 0
 1332 00ae D860     		str	r0, [r3, #12]
 1333              		.loc 1 761 0
 1334 00b0 5A60     		str	r2, [r3, #4]
 1335              		.loc 1 764 0
 1336 00b2 0A68     		ldr	r2, [r1]
 1337 00b4 0123     		mov	r3, #1
 1338 00b6 1343     		orr	r3, r2
 1339 00b8 0B60     		str	r3, [r1]
 1340              		.loc 1 768 0
 1341 00ba 0136     		add	r6, r6, #1
 1342 00bc 28D0     		beq	.L141
 1343              		.loc 1 768 0 is_stmt 0 discriminator 1
 1344 00be 049B     		ldr	r3, [sp, #16]
 1345 00c0 002B     		cmp	r3, #0
 1346 00c2 22D0     		beq	.L142
 1347              		.loc 1 772 0 is_stmt 1
 1348 00c4 2A68     		ldr	r2, [r5]
 1349 00c6 4023     		mov	r3, #64
 1350 00c8 1343     		orr	r3, r2
 1351 00ca 2B60     		str	r3, [r5]
 1352              		.loc 1 775 0
 1353 00cc 6A68     		ldr	r2, [r5, #4]
 1354 00ce 1D4B     		ldr	r3, .L161+8
 1355              		.loc 1 779 0
 1356 00d0 1D4C     		ldr	r4, .L161+12
 1357              		.loc 1 775 0
 1358 00d2 1340     		and	r3, r2
 1359 00d4 6B60     		str	r3, [r5, #4]
 1360              		.loc 1 776 0
ARM GAS  /var/folders/qh/xwg3v3kj02qbxczjpdb8lzfr0000gn/T//ccvvFpD1.s 			page 25


 1361 00d6 6A68     		ldr	r2, [r5, #4]
 1362 00d8 8023     		mov	r3, #128
 1363              		.loc 1 779 0
 1364 00da A069     		ldr	r0, [r4, #24]
 1365              		.loc 1 776 0
 1366 00dc 9B01     		lsl	r3, r3, #6
 1367 00de 1343     		orr	r3, r2
 1368              		.loc 1 779 0
 1369 00e0 4146     		mov	r1, r8
 1370              		.loc 1 776 0
 1371 00e2 6B60     		str	r3, [r5, #4]
 1372              		.loc 1 779 0
 1373 00e4 C861     		str	r0, [r1, #28]
 1374              		.loc 1 780 0
 1375 00e6 0220     		mov	r0, #2
 1376 00e8 FFF7FEFF 		bl	chSchGoSleepS
 1377              	.LVL106:
 1378              		.loc 1 781 0
 1379 00ec 049A     		ldr	r2, [sp, #16]
 1380 00ee 002A     		cmp	r2, #0
 1381 00f0 02D0     		beq	.L145
 1382              		.loc 1 782 0
 1383 00f2 01A8     		add	r0, sp, #4
 1384 00f4 FFF7FEFF 		bl	chVTResetI
 1385              	.LVL107:
 1386              	.L145:
 1387              		.loc 1 784 0
 1388 00f8 A369     		ldr	r3, [r4, #24]
 1389 00fa 586A     		ldr	r0, [r3, #36]
 1390              	.L159:
 1391              		.loc 1 785 0
 1392 00fc 07B0     		add	sp, sp, #28
 1393              		@ sp needed
 1394              	.LVL108:
 1395              	.LVL109:
 1396              	.LVL110:
 1397              	.LVL111:
 1398 00fe 3CBC     		pop	{r2, r3, r4, r5}
 1399 0100 9046     		mov	r8, r2
 1400 0102 9946     		mov	r9, r3
 1401 0104 A246     		mov	r10, r4
 1402 0106 AB46     		mov	fp, r5
 1403 0108 F0BD     		pop	{r4, r5, r6, r7, pc}
 1404              	.LVL112:
 1405              	.L142:
 1406              		.loc 1 735 0
 1407 010a 0120     		mov	r0, #1
 1408 010c 4042     		neg	r0, r0
 1409 010e F5E7     		b	.L159
 1410              	.L141:
 1411              		.loc 1 772 0
 1412 0110 2A68     		ldr	r2, [r5]
 1413 0112 4023     		mov	r3, #64
 1414 0114 1343     		orr	r3, r2
 1415 0116 2B60     		str	r3, [r5]
 1416              		.loc 1 775 0
 1417 0118 6A68     		ldr	r2, [r5, #4]
ARM GAS  /var/folders/qh/xwg3v3kj02qbxczjpdb8lzfr0000gn/T//ccvvFpD1.s 			page 26


 1418 011a 0A4B     		ldr	r3, .L161+8
 1419              		.loc 1 779 0
 1420 011c 0A4C     		ldr	r4, .L161+12
 1421              		.loc 1 775 0
 1422 011e 1340     		and	r3, r2
 1423 0120 6B60     		str	r3, [r5, #4]
 1424              		.loc 1 776 0
 1425 0122 6A68     		ldr	r2, [r5, #4]
 1426 0124 8023     		mov	r3, #128
 1427 0126 9B01     		lsl	r3, r3, #6
 1428 0128 1343     		orr	r3, r2
 1429 012a 6B60     		str	r3, [r5, #4]
 1430              		.loc 1 779 0
 1431 012c A369     		ldr	r3, [r4, #24]
 1432 012e 4046     		mov	r0, r8
 1433 0130 C361     		str	r3, [r0, #28]
 1434              		.loc 1 780 0
 1435 0132 0220     		mov	r0, #2
 1436 0134 FFF7FEFF 		bl	chSchGoSleepS
 1437              	.LVL113:
 1438 0138 DEE7     		b	.L145
 1439              	.L162:
 1440 013a C046     		.align	2
 1441              	.L161:
 1442 013c 00000000 		.word	i2c_lld_safety_timeout
 1443 0140 00FC00FF 		.word	-16712704
 1444 0144 FFFBFFFF 		.word	-1025
 1445 0148 00000000 		.word	rlist
 1446              		.cfi_endproc
 1447              	.LFE51:
 1448              		.size	i2c_lld_master_transmit_timeout, .-i2c_lld_master_transmit_timeout
 1449              		.global	I2CD1
 1450 014c C046C046 		.section	.bss.I2CD1,"aw",%nobits
 1451              		.align	2
 1452              		.set	.LANCHOR0,. + 0
 1453              		.type	I2CD1, %object
 1454              		.size	I2CD1, 56
 1455              	I2CD1:
 1456 0000 00000000 		.space	56
 1456      00000000 
 1456      00000000 
 1456      00000000 
 1456      00000000 
 1457              		.text
 1458              	.Letext0:
 1459              		.file 2 "/usr/local/Cellar/gcc-arm-none-eabi-48/20131218/lib/gcc/arm-none-eabi/4.8.3/include/stdde
 1460              		.file 3 "/usr/local/Cellar/gcc-arm-none-eabi-48/20131218/arm-none-eabi/include/stdint.h"
 1461              		.file 4 "../../os/ports/GCC/ARMCMx/chtypes.h"
 1462              		.file 5 "../../os/kernel/include/chlists.h"
 1463              		.file 6 "../../os/kernel/include/chthreads.h"
 1464              		.file 7 "../../os/ports/GCC/ARMCMx/chcore_v6m.h"
 1465              		.file 8 "../../os/kernel/include/chvt.h"
 1466              		.file 9 "../../os/kernel/include/chschd.h"
 1467              		.file 10 "../../os/kernel/include/chmtx.h"
 1468              		.file 11 "../../os/hal/platforms/STM32F0xx/stm32f0xx.h"
 1469              		.file 12 "../../os/hal/platforms/STM32F0xx/stm32_dma.h"
 1470              		.file 13 "../../os/hal/include/i2c.h"
ARM GAS  /var/folders/qh/xwg3v3kj02qbxczjpdb8lzfr0000gn/T//ccvvFpD1.s 			page 27


 1471              		.file 14 "../../os/hal/platforms/STM32/I2Cv2/i2c_lld.h"
 1472              		.file 15 "../../os/kernel/include/chdebug.h"
 1473              		.file 16 "../../os/ports/common/ARMCMx/nvic.h"