ARM GAS  /var/folders/qh/xwg3v3kj02qbxczjpdb8lzfr0000gn/T//ccbil6mW.s 			page 1


   1              		.cpu cortex-m0
   2              		.fpu softvfp
   3              		.eabi_attribute 20, 1
   4              		.eabi_attribute 21, 1
   5              		.eabi_attribute 23, 3
   6              		.eabi_attribute 24, 1
   7              		.eabi_attribute 25, 1
   8              		.eabi_attribute 26, 1
   9              		.eabi_attribute 30, 2
  10              		.eabi_attribute 34, 0
  11              		.eabi_attribute 18, 4
  12              		.code	16
  13              		.file	"main.c"
  14              		.text
  15              	.Ltext0:
  16              		.cfi_sections	.debug_frame
  17              		.section	.text.Thread2,"ax",%progbits
  18              		.align	2
  19              		.p2align 4,,15
  20              		.code	16
  21              		.thumb_func
  22              		.type	Thread2, %function
  23              	Thread2:
  24              	.LFB42:
  25              		.file 1 "main.c"
  26              		.loc 1 62 0
  27              		.cfi_startproc
  28              	.LVL0:
  29              		.loc 1 65 0
  30 0000 084B     		ldr	r3, .L4
  31              		.loc 1 62 0
  32 0002 70B5     		push	{r4, r5, r6, lr}
  33              		.cfi_def_cfa_offset 16
  34              		.cfi_offset 4, -16
  35              		.cfi_offset 5, -12
  36              		.cfi_offset 6, -8
  37              		.cfi_offset 14, -4
  38              		.loc 1 65 0
  39 0004 9B69     		ldr	r3, [r3, #24]
  40 0006 084A     		ldr	r2, .L4+4
  41              		.loc 1 67 0
  42 0008 8025     		mov	r5, #128
  43 000a AD00     		lsl	r5, r5, #2
  44 000c 074C     		ldr	r4, .L4+8
  45              		.loc 1 65 0
  46 000e 9A61     		str	r2, [r3, #24]
  47              		.loc 1 67 0
  48 0010 2E1C     		add	r6, r5, #0
  49              	.LVL1:
  50              	.L2:
  51              		.loc 1 67 0 is_stmt 0 discriminator 1
  52 0012 6683     		strh	r6, [r4, #26]
  53              		.loc 1 68 0 is_stmt 1 discriminator 1
  54 0014 FA20     		mov	r0, #250
  55 0016 FFF7FEFF 		bl	chThdSleep
  56              	.LVL2:
  57              		.loc 1 69 0 discriminator 1
ARM GAS  /var/folders/qh/xwg3v3kj02qbxczjpdb8lzfr0000gn/T//ccbil6mW.s 			page 2


  58 001a 2583     		strh	r5, [r4, #24]
  59              		.loc 1 70 0 discriminator 1
  60 001c FA20     		mov	r0, #250
  61 001e FFF7FEFF 		bl	chThdSleep
  62              	.LVL3:
  63 0022 F6E7     		b	.L2
  64              	.L5:
  65              		.align	2
  66              	.L4:
  67 0024 00000000 		.word	rlist
  68 0028 00000000 		.word	.LC1
  69 002c 00080048 		.word	1207961600
  70              		.cfi_endproc
  71              	.LFE42:
  72              		.size	Thread2, .-Thread2
  73              		.section	.text.Thread1,"ax",%progbits
  74              		.align	2
  75              		.p2align 4,,15
  76              		.code	16
  77              		.thumb_func
  78              		.type	Thread1, %function
  79              	Thread1:
  80              	.LFB41:
  81              		.loc 1 44 0
  82              		.cfi_startproc
  83              	.LVL4:
  84              		.loc 1 47 0
  85 0000 094B     		ldr	r3, .L8
  86              		.loc 1 44 0
  87 0002 70B5     		push	{r4, r5, r6, lr}
  88              		.cfi_def_cfa_offset 16
  89              		.cfi_offset 4, -16
  90              		.cfi_offset 5, -12
  91              		.cfi_offset 6, -8
  92              		.cfi_offset 14, -4
  93              		.loc 1 47 0
  94 0004 9B69     		ldr	r3, [r3, #24]
  95 0006 094A     		ldr	r2, .L8+4
  96              		.loc 1 49 0
  97 0008 8025     		mov	r5, #128
  98 000a 6D00     		lsl	r5, r5, #1
  99 000c 084C     		ldr	r4, .L8+8
 100              		.loc 1 47 0
 101 000e 9A61     		str	r2, [r3, #24]
 102              		.loc 1 49 0
 103 0010 2E1C     		add	r6, r5, #0
 104              	.LVL5:
 105              	.L7:
 106              		.loc 1 50 0 discriminator 1
 107 0012 FA20     		mov	r0, #250
 108              		.loc 1 49 0 discriminator 1
 109 0014 6683     		strh	r6, [r4, #26]
 110              		.loc 1 50 0 discriminator 1
 111 0016 4000     		lsl	r0, r0, #1
 112 0018 FFF7FEFF 		bl	chThdSleep
 113              	.LVL6:
 114              		.loc 1 52 0 discriminator 1
ARM GAS  /var/folders/qh/xwg3v3kj02qbxczjpdb8lzfr0000gn/T//ccbil6mW.s 			page 3


 115 001c FA20     		mov	r0, #250
 116              		.loc 1 51 0 discriminator 1
 117 001e 2583     		strh	r5, [r4, #24]
 118              		.loc 1 52 0 discriminator 1
 119 0020 4000     		lsl	r0, r0, #1
 120 0022 FFF7FEFF 		bl	chThdSleep
 121              	.LVL7:
 122 0026 F4E7     		b	.L7
 123              	.L9:
 124              		.align	2
 125              	.L8:
 126 0028 00000000 		.word	rlist
 127 002c 0C000000 		.word	.LC4
 128 0030 00080048 		.word	1207961600
 129              		.cfi_endproc
 130              	.LFE41:
 131              		.size	Thread1, .-Thread1
 132 0034 C046C046 		.section	.text.startup.main,"ax",%progbits
 132      C046C046 
 132      C046C046 
 133              		.align	2
 134              		.p2align 4,,15
 135              		.global	main
 136              		.code	16
 137              		.thumb_func
 138              		.type	main, %function
 139              	main:
 140              	.LFB43:
 141              		.loc 1 77 0
 142              		.cfi_startproc
 143 0000 30B5     		push	{r4, r5, lr}
 144              		.cfi_def_cfa_offset 12
 145              		.cfi_offset 4, -12
 146              		.cfi_offset 5, -8
 147              		.cfi_offset 14, -4
 148              		.loc 1 79 0
 149 0002 2E4C     		ldr	r4, .L15
 150 0004 8021     		mov	r1, #128
 151              		.loc 1 77 0
 152 0006 83B0     		sub	sp, sp, #12
 153              		.cfi_def_cfa_offset 24
 154              		.loc 1 79 0
 155 0008 0022     		mov	r2, #0
 156 000a 201C     		mov	r0, r4
 157 000c 8900     		lsl	r1, r1, #2
 158 000e FFF7FEFF 		bl	chPoolInit
 159              	.LVL8:
 160              		.loc 1 80 0
 161 0012 201C     		mov	r0, r4
 162 0014 2A49     		ldr	r1, .L15+4
 163 0016 FFF7FEFF 		bl	chPoolFree
 164              	.LVL9:
 165              		.loc 1 81 0
 166 001a 201C     		mov	r0, r4
 167 001c 2949     		ldr	r1, .L15+8
 168 001e FFF7FEFF 		bl	chPoolFree
 169              	.LVL10:
ARM GAS  /var/folders/qh/xwg3v3kj02qbxczjpdb8lzfr0000gn/T//ccbil6mW.s 			page 4


 170              		.loc 1 90 0
 171 0022 FFF7FEFF 		bl	halInit
 172              	.LVL11:
 173              		.loc 1 91 0
 174 0026 FFF7FEFF 		bl	chSysInit
 175              	.LVL12:
 176              		.loc 1 97 0
 177 002a 2748     		ldr	r0, .L15+12
 178 002c 0021     		mov	r1, #0
 179 002e FFF7FEFF 		bl	sdStart
 180              	.LVL13:
 181              		.loc 1 98 0
 182 0032 9020     		mov	r0, #144
 183 0034 8021     		mov	r1, #128
 184 0036 C005     		lsl	r0, r0, #23
 185 0038 8900     		lsl	r1, r1, #2
 186 003a 8222     		mov	r2, #130
 187 003c FFF7FEFF 		bl	_pal_lld_setgroupmode
 188              	.LVL14:
 189              		.loc 1 99 0
 190 0040 9020     		mov	r0, #144
 191 0042 8021     		mov	r1, #128
 192 0044 C005     		lsl	r0, r0, #23
 193 0046 C900     		lsl	r1, r1, #3
 194 0048 8222     		mov	r2, #130
 195 004a FFF7FEFF 		bl	_pal_lld_setgroupmode
 196              	.LVL15:
 197              		.loc 1 100 0
 198 004e 1F48     		ldr	r0, .L15+16
 199 0050 0321     		mov	r1, #3
 200 0052 0322     		mov	r2, #3
 201 0054 FFF7FEFF 		bl	_pal_lld_setgroupmode
 202              	.LVL16:
 203              		.loc 1 106 0
 204 0058 201C     		mov	r0, r4
 205 005a 4021     		mov	r1, #64
 206 005c 1C4A     		ldr	r2, .L15+20
 207 005e 0023     		mov	r3, #0
 208 0060 FFF7FEFF 		bl	chThdCreateFromMemoryPool
 209              	.LVL17:
 210              		.loc 1 107 0
 211 0064 0024     		mov	r4, #0
 212 0066 9821     		mov	r1, #152
 213 0068 4900     		lsl	r1, r1, #1
 214 006a 4022     		mov	r2, #64
 215 006c 194B     		ldr	r3, .L15+24
 216 006e 0094     		str	r4, [sp]
 217 0070 1948     		ldr	r0, .L15+28
 218 0072 FFF7FEFF 		bl	chThdCreateStatic
 219              	.LVL18:
 220              		.loc 1 108 0
 221 0076 9821     		mov	r1, #152
 222 0078 4900     		lsl	r1, r1, #1
 223 007a 4022     		mov	r2, #64
 224 007c 174B     		ldr	r3, .L15+32
 225 007e 0094     		str	r4, [sp]
 226 0080 1748     		ldr	r0, .L15+36
ARM GAS  /var/folders/qh/xwg3v3kj02qbxczjpdb8lzfr0000gn/T//ccbil6mW.s 			page 5


 227 0082 FFF7FEFF 		bl	chThdCreateStatic
 228              	.LVL19:
 229              		.loc 1 120 0
 230 0086 FFF7FEFF 		bl	shellInit
 231              	.LVL20:
 232 008a 164D     		ldr	r5, .L15+40
 233 008c 03E0     		b	.L13
 234              	.LVL21:
 235              	.L12:
 236              		.loc 1 128 0
 237 008e FA20     		mov	r0, #250
 238 0090 8000     		lsl	r0, r0, #2
 239 0092 FFF7FEFF 		bl	chThdSleep
 240              	.LVL22:
 241              	.L13:
 242              		.loc 1 122 0
 243 0096 002C     		cmp	r4, #0
 244 0098 07D0     		beq	.L14
 245              		.loc 1 124 0
 246 009a 237F     		ldrb	r3, [r4, #28]
 247 009c 0E2B     		cmp	r3, #14
 248 009e F6D1     		bne	.L12
 249              		.loc 1 125 0
 250 00a0 201C     		mov	r0, r4
 251 00a2 FFF7FEFF 		bl	chThdRelease
 252              	.LVL23:
 253              		.loc 1 126 0
 254 00a6 0024     		mov	r4, #0
 255 00a8 F1E7     		b	.L12
 256              	.LVL24:
 257              	.L14:
 258              		.loc 1 123 0
 259 00aa 9621     		mov	r1, #150
 260 00ac 281C     		mov	r0, r5
 261 00ae C900     		lsl	r1, r1, #3
 262 00b0 4022     		mov	r2, #64
 263 00b2 FFF7FEFF 		bl	shellCreate
 264              	.LVL25:
 265 00b6 041C     		mov	r4, r0
 266              	.LVL26:
 267 00b8 E9E7     		b	.L12
 268              	.L16:
 269 00ba C046     		.align	2
 270              	.L15:
 271 00bc 00000000 		.word	.LANCHOR0
 272 00c0 00000000 		.word	.LANCHOR1
 273 00c4 00000000 		.word	.LANCHOR2
 274 00c8 00000000 		.word	SD1
 275 00cc 00080048 		.word	1207961600
 276 00d0 00000000 		.word	outputResponse
 277 00d4 00000000 		.word	Thread1
 278 00d8 00000000 		.word	.LANCHOR3
 279 00dc 00000000 		.word	Thread2
 280 00e0 00000000 		.word	.LANCHOR4
 281 00e4 00000000 		.word	.LANCHOR5
 282              		.cfi_endproc
 283              	.LFE43:
ARM GAS  /var/folders/qh/xwg3v3kj02qbxczjpdb8lzfr0000gn/T//ccbil6mW.s 			page 6


 284              		.size	main, .-main
 285              		.global	sh
 286              		.global	thd2
 287              		.global	thd1
 288              		.global	mp
 289 00e8 C046C046 		.section	.bss.waThread1,"aw",%nobits
 289      C046C046 
 290              		.align	3
 291              		.set	.LANCHOR3,. + 0
 292              		.type	waThread1, %object
 293              		.size	waThread1, 304
 294              	waThread1:
 295 0000 00000000 		.space	304
 295      00000000 
 295      00000000 
 295      00000000 
 295      00000000 
 296              		.section	.bss.waThread2,"aw",%nobits
 297              		.align	3
 298              		.set	.LANCHOR4,. + 0
 299              		.type	waThread2, %object
 300              		.size	waThread2, 304
 301              	waThread2:
 302 0000 00000000 		.space	304
 302      00000000 
 302      00000000 
 302      00000000 
 302      00000000 
 303              		.section	.bss.mp,"aw",%nobits
 304              		.align	2
 305              		.set	.LANCHOR0,. + 0
 306              		.type	mp, %object
 307              		.size	mp, 12
 308              	mp:
 309 0000 00000000 		.space	12
 309      00000000 
 309      00000000 
 310              		.section	.rodata.shCmds,"a",%progbits
 311              		.align	2
 312              		.type	shCmds, %object
 313              		.size	shCmds, 88
 314              	shCmds:
 315 0000 18000000 		.word	.LC16
 316 0004 00000000 		.word	cmdGetTemp
 317 0008 20000000 		.word	.LC17
 318 000c 00000000 		.word	cmdGetVoltage
 319 0010 28000000 		.word	.LC18
 320 0014 00000000 		.word	cmdGetBattery
 321 0018 30000000 		.word	.LC19
 322 001c 00000000 		.word	cmdBluetooth
 323 0020 3C000000 		.word	.LC20
 324 0024 00000000 		.word	cmdPwm
 325 0028 40000000 		.word	.LC21
 326 002c 00000000 		.word	cmdSpi
 327 0030 44000000 		.word	.LC22
 328 0034 00000000 		.word	cmdI2c
 329 0038 48000000 		.word	.LC23
ARM GAS  /var/folders/qh/xwg3v3kj02qbxczjpdb8lzfr0000gn/T//ccbil6mW.s 			page 7


 330 003c 00000000 		.word	cmdDate
 331 0040 50000000 		.word	.LC24
 332 0044 00000000 		.word	cmdAdc
 333 0048 54000000 		.word	.LC25
 334 004c 00000000 		.word	cmdDac
 335 0050 00000000 		.word	0
 336 0054 00000000 		.word	0
 337              		.section	.rodata.shCfg,"a",%progbits
 338              		.align	2
 339              		.set	.LANCHOR5,. + 0
 340              		.type	shCfg, %object
 341              		.size	shCfg, 8
 342              	shCfg:
 343 0000 00000000 		.word	SD1
 344 0004 00000000 		.word	shCmds
 345              		.section	.rodata.str1.4,"aMS",%progbits,1
 346              		.align	2
 347              	.LC1:
 348 0000 626C696E 		.ascii	"blinker2\000"
 348      6B657232 
 348      00
 349 0009 000000   		.space	3
 350              	.LC4:
 351 000c 626C696E 		.ascii	"blinker1\000"
 351      6B657231 
 351      00
 352 0015 000000   		.space	3
 353              	.LC16:
 354 0018 74656D70 		.ascii	"temp\000"
 354      00
 355 001d 000000   		.space	3
 356              	.LC17:
 357 0020 766F6C74 		.ascii	"voltage\000"
 357      61676500 
 358              	.LC18:
 359 0028 62617474 		.ascii	"battery\000"
 359      65727900 
 360              	.LC19:
 361 0030 626C7565 		.ascii	"bluetooth\000"
 361      746F6F74 
 361      6800
 362 003a 0000     		.space	2
 363              	.LC20:
 364 003c 70776D00 		.ascii	"pwm\000"
 365              	.LC21:
 366 0040 73706900 		.ascii	"spi\000"
 367              	.LC22:
 368 0044 69326300 		.ascii	"i2c\000"
 369              	.LC23:
 370 0048 64617465 		.ascii	"date\000"
 370      00
 371 004d 000000   		.space	3
 372              	.LC24:
 373 0050 61646300 		.ascii	"adc\000"
 374              	.LC25:
 375 0054 64616300 		.ascii	"dac\000"
 376              		.section	.bss.thd1,"aw",%nobits
ARM GAS  /var/folders/qh/xwg3v3kj02qbxczjpdb8lzfr0000gn/T//ccbil6mW.s 			page 8


 377              		.align	3
 378              		.set	.LANCHOR1,. + 0
 379              		.type	thd1, %object
 380              		.size	thd1, 688
 381              	thd1:
 382 0000 00000000 		.space	688
 382      00000000 
 382      00000000 
 382      00000000 
 382      00000000 
 383              		.section	.bss.thd2,"aw",%nobits
 384              		.align	3
 385              		.set	.LANCHOR2,. + 0
 386              		.type	thd2, %object
 387              		.size	thd2, 688
 388              	thd2:
 389 0000 00000000 		.space	688
 389      00000000 
 389      00000000 
 389      00000000 
 389      00000000 
 390              		.section	.bss.sh,"aw",%nobits
 391              		.align	2
 392              		.type	sh, %object
 393              		.size	sh, 4
 394              	sh:
 395 0000 00000000 		.space	4
 396              		.text
 397              	.Letext0:
 398              		.file 2 "/usr/local/Cellar/gcc-arm-none-eabi-48/20131218/lib/gcc/arm-none-eabi/4.8.3/include/stdde
 399              		.file 3 "/usr/local/Cellar/gcc-arm-none-eabi-48/20131218/arm-none-eabi/include/stdint.h"
 400              		.file 4 "../../os/ports/GCC/ARMCMx/chtypes.h"
 401              		.file 5 "../../os/kernel/include/chlists.h"
 402              		.file 6 "../../os/kernel/include/chthreads.h"
 403              		.file 7 "../../os/ports/GCC/ARMCMx/chcore_v6m.h"
 404              		.file 8 "../../os/kernel/include/chschd.h"
 405              		.file 9 "../../os/kernel/include/chmtx.h"
 406              		.file 10 "../../os/kernel/include/chevents.h"
 407              		.file 11 "../../os/kernel/include/chmemcore.h"
 408              		.file 12 "../../os/kernel/include/chmempools.h"
 409              		.file 13 "../../os/kernel/include/chqueues.h"
 410              		.file 14 "../../os/kernel/include/chstreams.h"
 411              		.file 15 "../../os/hal/platforms/STM32F0xx/stm32f0xx.h"
 412              		.file 16 "../../os/hal/platforms/STM32/GPIOv2/pal_lld.h"
 413              		.file 17 "../../os/hal/include/serial.h"
 414              		.file 18 "../../os/hal/platforms/STM32/USARTv2/serial_lld.h"
 415              		.file 19 "../../os/various/shell.h"
 416              		.file 20 "cmd.h"
 417              		.file 21 "../../os/hal/include/hal.h"
 418              		.file 22 "../../os/kernel/include/chsys.h"
 419              		.file 23 "../../os/kernel/include/chdynamic.h"
 420              		.section	.debug_info,"",%progbits
 421              	.Ldebug_info0:
 422 0000 980F0000 		.4byte	0xf98
 423 0004 0400     		.2byte	0x4
 424 0006 00000000 		.4byte	.Ldebug_abbrev0
 425 000a 04       		.byte	0x4
ARM GAS  /var/folders/qh/xwg3v3kj02qbxczjpdb8lzfr0000gn/T//ccbil6mW.s 			page 9


 426 000b 01       		.uleb128 0x1
 427 000c CC000000 		.4byte	.LASF166
 428 0010 01       		.byte	0x1
 429 0011 23000000 		.4byte	.LASF167
 430 0015 85020000 		.4byte	.LASF168
 431 0019 00000000 		.4byte	.Ldebug_ranges0+0
 432 001d 00000000 		.4byte	0
 433 0021 00000000 		.4byte	.Ldebug_line0
 434 0025 02       		.uleb128 0x2
 435 0026 04       		.byte	0x4
 436 0027 05       		.byte	0x5
 437 0028 696E7400 		.ascii	"int\000"
 438 002c 03       		.uleb128 0x3
 439 002d C0020000 		.4byte	.LASF2
 440 0031 02       		.byte	0x2
 441 0032 D4       		.byte	0xd4
 442 0033 37000000 		.4byte	0x37
 443 0037 04       		.uleb128 0x4
 444 0038 04       		.byte	0x4
 445 0039 07       		.byte	0x7
 446 003a 63000000 		.4byte	.LASF0
 447 003e 04       		.uleb128 0x4
 448 003f 01       		.byte	0x1
 449 0040 06       		.byte	0x6
 450 0041 EB060000 		.4byte	.LASF1
 451 0045 03       		.uleb128 0x3
 452 0046 CE030000 		.4byte	.LASF3
 453 004a 03       		.byte	0x3
 454 004b 2A       		.byte	0x2a
 455 004c 50000000 		.4byte	0x50
 456 0050 04       		.uleb128 0x4
 457 0051 01       		.byte	0x1
 458 0052 08       		.byte	0x8
 459 0053 7D060000 		.4byte	.LASF4
 460 0057 04       		.uleb128 0x4
 461 0058 02       		.byte	0x2
 462 0059 05       		.byte	0x5
 463 005a 6A050000 		.4byte	.LASF5
 464 005e 03       		.uleb128 0x3
 465 005f E4040000 		.4byte	.LASF6
 466 0063 03       		.byte	0x3
 467 0064 36       		.byte	0x36
 468 0065 69000000 		.4byte	0x69
 469 0069 04       		.uleb128 0x4
 470 006a 02       		.byte	0x2
 471 006b 07       		.byte	0x7
 472 006c FD060000 		.4byte	.LASF7
 473 0070 03       		.uleb128 0x3
 474 0071 56060000 		.4byte	.LASF8
 475 0075 03       		.byte	0x3
 476 0076 4F       		.byte	0x4f
 477 0077 7B000000 		.4byte	0x7b
 478 007b 04       		.uleb128 0x4
 479 007c 04       		.byte	0x4
 480 007d 05       		.byte	0x5
 481 007e 91050000 		.4byte	.LASF9
 482 0082 03       		.uleb128 0x3
ARM GAS  /var/folders/qh/xwg3v3kj02qbxczjpdb8lzfr0000gn/T//ccbil6mW.s 			page 10


 483 0083 C6010000 		.4byte	.LASF10
 484 0087 03       		.byte	0x3
 485 0088 50       		.byte	0x50
 486 0089 8D000000 		.4byte	0x8d
 487 008d 04       		.uleb128 0x4
 488 008e 04       		.byte	0x4
 489 008f 07       		.byte	0x7
 490 0090 44060000 		.4byte	.LASF11
 491 0094 04       		.uleb128 0x4
 492 0095 08       		.byte	0x8
 493 0096 05       		.byte	0x5
 494 0097 07040000 		.4byte	.LASF12
 495 009b 03       		.uleb128 0x3
 496 009c A8050000 		.4byte	.LASF13
 497 00a0 03       		.byte	0x3
 498 00a1 78       		.byte	0x78
 499 00a2 A6000000 		.4byte	0xa6
 500 00a6 04       		.uleb128 0x4
 501 00a7 08       		.byte	0x8
 502 00a8 07       		.byte	0x7
 503 00a9 1B020000 		.4byte	.LASF14
 504 00ad 04       		.uleb128 0x4
 505 00ae 01       		.byte	0x1
 506 00af 02       		.byte	0x2
 507 00b0 CE020000 		.4byte	.LASF15
 508 00b4 03       		.uleb128 0x3
 509 00b5 B6040000 		.4byte	.LASF16
 510 00b9 04       		.byte	0x4
 511 00ba 25       		.byte	0x25
 512 00bb 45000000 		.4byte	0x45
 513 00bf 03       		.uleb128 0x3
 514 00c0 9B030000 		.4byte	.LASF17
 515 00c4 04       		.byte	0x4
 516 00c5 26       		.byte	0x26
 517 00c6 45000000 		.4byte	0x45
 518 00ca 03       		.uleb128 0x3
 519 00cb 2E060000 		.4byte	.LASF18
 520 00cf 04       		.byte	0x4
 521 00d0 27       		.byte	0x27
 522 00d1 45000000 		.4byte	0x45
 523 00d5 03       		.uleb128 0x3
 524 00d6 4F040000 		.4byte	.LASF19
 525 00da 04       		.byte	0x4
 526 00db 28       		.byte	0x28
 527 00dc 45000000 		.4byte	0x45
 528 00e0 03       		.uleb128 0x3
 529 00e1 0B020000 		.4byte	.LASF20
 530 00e5 04       		.byte	0x4
 531 00e6 29       		.byte	0x29
 532 00e7 82000000 		.4byte	0x82
 533 00eb 03       		.uleb128 0x3
 534 00ec 2C040000 		.4byte	.LASF21
 535 00f0 04       		.byte	0x4
 536 00f1 2A       		.byte	0x2a
 537 00f2 70000000 		.4byte	0x70
 538 00f6 03       		.uleb128 0x3
 539 00f7 DB010000 		.4byte	.LASF22
ARM GAS  /var/folders/qh/xwg3v3kj02qbxczjpdb8lzfr0000gn/T//ccbil6mW.s 			page 11


 540 00fb 04       		.byte	0x4
 541 00fc 2C       		.byte	0x2c
 542 00fd 82000000 		.4byte	0x82
 543 0101 03       		.uleb128 0x3
 544 0102 D6030000 		.4byte	.LASF23
 545 0106 04       		.byte	0x4
 546 0107 2D       		.byte	0x2d
 547 0108 82000000 		.4byte	0x82
 548 010c 03       		.uleb128 0x3
 549 010d 46000000 		.4byte	.LASF24
 550 0111 04       		.byte	0x4
 551 0112 2E       		.byte	0x2e
 552 0113 82000000 		.4byte	0x82
 553 0117 03       		.uleb128 0x3
 554 0118 94030000 		.4byte	.LASF25
 555 011c 05       		.byte	0x5
 556 011d 23       		.byte	0x23
 557 011e 22010000 		.4byte	0x122
 558 0122 05       		.uleb128 0x5
 559 0123 94030000 		.4byte	.LASF25
 560 0127 48       		.byte	0x48
 561 0128 06       		.byte	0x6
 562 0129 57       		.byte	0x57
 563 012a 1F020000 		.4byte	0x21f
 564 012e 06       		.uleb128 0x6
 565 012f A1050000 		.4byte	.LASF26
 566 0133 06       		.byte	0x6
 567 0134 58       		.byte	0x58
 568 0135 40020000 		.4byte	0x240
 569 0139 00       		.byte	0
 570 013a 06       		.uleb128 0x6
 571 013b 1E060000 		.4byte	.LASF27
 572 013f 06       		.byte	0x6
 573 0140 5A       		.byte	0x5a
 574 0141 40020000 		.4byte	0x240
 575 0145 04       		.byte	0x4
 576 0146 06       		.uleb128 0x6
 577 0147 3F000000 		.4byte	.LASF28
 578 014b 06       		.byte	0x6
 579 014c 5C       		.byte	0x5c
 580 014d E0000000 		.4byte	0xe0
 581 0151 08       		.byte	0x8
 582 0152 06       		.uleb128 0x6
 583 0153 B1050000 		.4byte	.LASF29
 584 0157 06       		.byte	0x6
 585 0158 5D       		.byte	0x5d
 586 0159 FB020000 		.4byte	0x2fb
 587 015d 0C       		.byte	0xc
 588 015e 06       		.uleb128 0x6
 589 015f 68020000 		.4byte	.LASF30
 590 0163 06       		.byte	0x6
 591 0164 5F       		.byte	0x5f
 592 0165 40020000 		.4byte	0x240
 593 0169 10       		.byte	0x10
 594 016a 06       		.uleb128 0x6
 595 016b BE030000 		.4byte	.LASF31
 596 016f 06       		.byte	0x6
ARM GAS  /var/folders/qh/xwg3v3kj02qbxczjpdb8lzfr0000gn/T//ccbil6mW.s 			page 12


 597 0170 60       		.byte	0x60
 598 0171 40020000 		.4byte	0x240
 599 0175 14       		.byte	0x14
 600 0176 06       		.uleb128 0x6
 601 0177 11030000 		.4byte	.LASF32
 602 017b 06       		.byte	0x6
 603 017c 67       		.byte	0x67
 604 017d E7040000 		.4byte	0x4e7
 605 0181 18       		.byte	0x18
 606 0182 06       		.uleb128 0x6
 607 0183 C6030000 		.4byte	.LASF33
 608 0187 06       		.byte	0x6
 609 0188 72       		.byte	0x72
 610 0189 BF000000 		.4byte	0xbf
 611 018d 1C       		.byte	0x1c
 612 018e 06       		.uleb128 0x6
 613 018f 3A040000 		.4byte	.LASF34
 614 0193 06       		.byte	0x6
 615 0194 76       		.byte	0x76
 616 0195 B4000000 		.4byte	0xb4
 617 0199 1D       		.byte	0x1d
 618 019a 06       		.uleb128 0x6
 619 019b 8B060000 		.4byte	.LASF35
 620 019f 06       		.byte	0x6
 621 01a0 7B       		.byte	0x7b
 622 01a1 CA000000 		.4byte	0xca
 623 01a5 1E       		.byte	0x1e
 624 01a6 06       		.uleb128 0x6
 625 01a7 A7060000 		.4byte	.LASF36
 626 01ab 06       		.byte	0x6
 627 01ac 81       		.byte	0x81
 628 01ad D5000000 		.4byte	0xd5
 629 01b1 1F       		.byte	0x1f
 630 01b2 06       		.uleb128 0x6
 631 01b3 2A000000 		.4byte	.LASF37
 632 01b7 06       		.byte	0x6
 633 01b8 88       		.byte	0x88
 634 01b9 26030000 		.4byte	0x326
 635 01bd 20       		.byte	0x20
 636 01be 07       		.uleb128 0x7
 637 01bf 705F7500 		.ascii	"p_u\000"
 638 01c3 06       		.byte	0x6
 639 01c4 AD       		.byte	0xad
 640 01c5 B2040000 		.4byte	0x4b2
 641 01c9 24       		.byte	0x24
 642 01ca 06       		.uleb128 0x6
 643 01cb 0C000000 		.4byte	.LASF38
 644 01cf 06       		.byte	0x6
 645 01d0 B2       		.byte	0xb2
 646 01d1 66020000 		.4byte	0x266
 647 01d5 28       		.byte	0x28
 648 01d6 06       		.uleb128 0x6
 649 01d7 58000000 		.4byte	.LASF39
 650 01db 06       		.byte	0x6
 651 01dc B8       		.byte	0xb8
 652 01dd 46020000 		.4byte	0x246
 653 01e1 2C       		.byte	0x2c
ARM GAS  /var/folders/qh/xwg3v3kj02qbxczjpdb8lzfr0000gn/T//ccbil6mW.s 			page 13


 654 01e2 06       		.uleb128 0x6
 655 01e3 B0040000 		.4byte	.LASF40
 656 01e7 06       		.byte	0x6
 657 01e8 BC       		.byte	0xbc
 658 01e9 EB000000 		.4byte	0xeb
 659 01ed 34       		.byte	0x34
 660 01ee 06       		.uleb128 0x6
 661 01ef 7E050000 		.4byte	.LASF41
 662 01f3 06       		.byte	0x6
 663 01f4 C2       		.byte	0xc2
 664 01f5 F6000000 		.4byte	0xf6
 665 01f9 38       		.byte	0x38
 666 01fa 06       		.uleb128 0x6
 667 01fb F7030000 		.4byte	.LASF42
 668 01ff 06       		.byte	0x6
 669 0200 C9       		.byte	0xc9
 670 0201 F9040000 		.4byte	0x4f9
 671 0205 3C       		.byte	0x3c
 672 0206 06       		.uleb128 0x6
 673 0207 2D050000 		.4byte	.LASF43
 674 020b 06       		.byte	0x6
 675 020c CD       		.byte	0xcd
 676 020d E0000000 		.4byte	0xe0
 677 0211 40       		.byte	0x40
 678 0212 06       		.uleb128 0x6
 679 0213 EF030000 		.4byte	.LASF44
 680 0217 06       		.byte	0x6
 681 0218 D3       		.byte	0xd3
 682 0219 7C020000 		.4byte	0x27c
 683 021d 44       		.byte	0x44
 684 021e 00       		.byte	0
 685 021f 08       		.uleb128 0x8
 686 0220 08       		.byte	0x8
 687 0221 05       		.byte	0x5
 688 0222 5A       		.byte	0x5a
 689 0223 40020000 		.4byte	0x240
 690 0227 06       		.uleb128 0x6
 691 0228 A1050000 		.4byte	.LASF26
 692 022c 05       		.byte	0x5
 693 022d 5B       		.byte	0x5b
 694 022e 40020000 		.4byte	0x240
 695 0232 00       		.byte	0
 696 0233 06       		.uleb128 0x6
 697 0234 1E060000 		.4byte	.LASF27
 698 0238 05       		.byte	0x5
 699 0239 5D       		.byte	0x5d
 700 023a 40020000 		.4byte	0x240
 701 023e 04       		.byte	0x4
 702 023f 00       		.byte	0
 703 0240 09       		.uleb128 0x9
 704 0241 04       		.byte	0x4
 705 0242 17010000 		.4byte	0x117
 706 0246 03       		.uleb128 0x3
 707 0247 38030000 		.4byte	.LASF45
 708 024b 05       		.byte	0x5
 709 024c 5F       		.byte	0x5f
 710 024d 1F020000 		.4byte	0x21f
ARM GAS  /var/folders/qh/xwg3v3kj02qbxczjpdb8lzfr0000gn/T//ccbil6mW.s 			page 14


 711 0251 08       		.uleb128 0x8
 712 0252 04       		.byte	0x4
 713 0253 05       		.byte	0x5
 714 0254 64       		.byte	0x64
 715 0255 66020000 		.4byte	0x266
 716 0259 06       		.uleb128 0x6
 717 025a A1050000 		.4byte	.LASF26
 718 025e 05       		.byte	0x5
 719 025f 66       		.byte	0x66
 720 0260 40020000 		.4byte	0x240
 721 0264 00       		.byte	0
 722 0265 00       		.byte	0
 723 0266 03       		.uleb128 0x3
 724 0267 00000000 		.4byte	.LASF46
 725 026b 05       		.byte	0x5
 726 026c 69       		.byte	0x69
 727 026d 51020000 		.4byte	0x251
 728 0271 03       		.uleb128 0x3
 729 0272 36000000 		.4byte	.LASF47
 730 0276 07       		.byte	0x7
 731 0277 A0       		.byte	0xa0
 732 0278 7C020000 		.4byte	0x27c
 733 027c 0A       		.uleb128 0xa
 734 027d 04       		.byte	0x4
 735 027e 03       		.uleb128 0x3
 736 027f 16070000 		.4byte	.LASF48
 737 0283 07       		.byte	0x7
 738 0284 A6       		.byte	0xa6
 739 0285 9B000000 		.4byte	0x9b
 740 0289 05       		.uleb128 0x5
 741 028a ED040000 		.4byte	.LASF49
 742 028e 24       		.byte	0x24
 743 028f 07       		.byte	0x7
 744 0290 B3       		.byte	0xb3
 745 0291 FB020000 		.4byte	0x2fb
 746 0295 07       		.uleb128 0x7
 747 0296 723800   		.ascii	"r8\000"
 748 0299 07       		.byte	0x7
 749 029a B4       		.byte	0xb4
 750 029b 71020000 		.4byte	0x271
 751 029f 00       		.byte	0
 752 02a0 07       		.uleb128 0x7
 753 02a1 723900   		.ascii	"r9\000"
 754 02a4 07       		.byte	0x7
 755 02a5 B5       		.byte	0xb5
 756 02a6 71020000 		.4byte	0x271
 757 02aa 04       		.byte	0x4
 758 02ab 07       		.uleb128 0x7
 759 02ac 72313000 		.ascii	"r10\000"
 760 02b0 07       		.byte	0x7
 761 02b1 B6       		.byte	0xb6
 762 02b2 71020000 		.4byte	0x271
 763 02b6 08       		.byte	0x8
 764 02b7 07       		.uleb128 0x7
 765 02b8 72313100 		.ascii	"r11\000"
 766 02bc 07       		.byte	0x7
 767 02bd B7       		.byte	0xb7
ARM GAS  /var/folders/qh/xwg3v3kj02qbxczjpdb8lzfr0000gn/T//ccbil6mW.s 			page 15


 768 02be 71020000 		.4byte	0x271
 769 02c2 0C       		.byte	0xc
 770 02c3 07       		.uleb128 0x7
 771 02c4 723400   		.ascii	"r4\000"
 772 02c7 07       		.byte	0x7
 773 02c8 B8       		.byte	0xb8
 774 02c9 71020000 		.4byte	0x271
 775 02cd 10       		.byte	0x10
 776 02ce 07       		.uleb128 0x7
 777 02cf 723500   		.ascii	"r5\000"
 778 02d2 07       		.byte	0x7
 779 02d3 B9       		.byte	0xb9
 780 02d4 71020000 		.4byte	0x271
 781 02d8 14       		.byte	0x14
 782 02d9 07       		.uleb128 0x7
 783 02da 723600   		.ascii	"r6\000"
 784 02dd 07       		.byte	0x7
 785 02de BA       		.byte	0xba
 786 02df 71020000 		.4byte	0x271
 787 02e3 18       		.byte	0x18
 788 02e4 07       		.uleb128 0x7
 789 02e5 723700   		.ascii	"r7\000"
 790 02e8 07       		.byte	0x7
 791 02e9 BB       		.byte	0xbb
 792 02ea 71020000 		.4byte	0x271
 793 02ee 1C       		.byte	0x1c
 794 02ef 07       		.uleb128 0x7
 795 02f0 6C7200   		.ascii	"lr\000"
 796 02f3 07       		.byte	0x7
 797 02f4 BC       		.byte	0xbc
 798 02f5 71020000 		.4byte	0x271
 799 02f9 20       		.byte	0x20
 800 02fa 00       		.byte	0
 801 02fb 05       		.uleb128 0x5
 802 02fc 32040000 		.4byte	.LASF50
 803 0300 04       		.byte	0x4
 804 0301 07       		.byte	0x7
 805 0302 C6       		.byte	0xc6
 806 0303 14030000 		.4byte	0x314
 807 0307 07       		.uleb128 0x7
 808 0308 72313300 		.ascii	"r13\000"
 809 030c 07       		.byte	0x7
 810 030d C7       		.byte	0xc7
 811 030e 14030000 		.4byte	0x314
 812 0312 00       		.byte	0
 813 0313 00       		.byte	0
 814 0314 09       		.uleb128 0x9
 815 0315 04       		.byte	0x4
 816 0316 89020000 		.4byte	0x289
 817 031a 0B       		.uleb128 0xb
 818 031b 82000000 		.4byte	0x82
 819 031f 04       		.uleb128 0x4
 820 0320 04       		.byte	0x4
 821 0321 07       		.byte	0x7
 822 0322 25060000 		.4byte	.LASF51
 823 0326 0B       		.uleb128 0xb
 824 0327 0C010000 		.4byte	0x10c
ARM GAS  /var/folders/qh/xwg3v3kj02qbxczjpdb8lzfr0000gn/T//ccbil6mW.s 			page 16


 825 032b 08       		.uleb128 0x8
 826 032c 1C       		.byte	0x1c
 827 032d 08       		.byte	0x8
 828 032e 57       		.byte	0x57
 829 032f 7C030000 		.4byte	0x37c
 830 0333 06       		.uleb128 0x6
 831 0334 24040000 		.4byte	.LASF52
 832 0338 08       		.byte	0x8
 833 0339 58       		.byte	0x58
 834 033a 46020000 		.4byte	0x246
 835 033e 00       		.byte	0
 836 033f 06       		.uleb128 0x6
 837 0340 E7010000 		.4byte	.LASF53
 838 0344 08       		.byte	0x8
 839 0345 59       		.byte	0x59
 840 0346 E0000000 		.4byte	0xe0
 841 034a 08       		.byte	0x8
 842 034b 06       		.uleb128 0x6
 843 034c 10070000 		.4byte	.LASF54
 844 0350 08       		.byte	0x8
 845 0351 5B       		.byte	0x5b
 846 0352 FB020000 		.4byte	0x2fb
 847 0356 0C       		.byte	0xc
 848 0357 06       		.uleb128 0x6
 849 0358 6A030000 		.4byte	.LASF55
 850 035c 08       		.byte	0x8
 851 035d 5E       		.byte	0x5e
 852 035e 40020000 		.4byte	0x240
 853 0362 10       		.byte	0x10
 854 0363 06       		.uleb128 0x6
 855 0364 59040000 		.4byte	.LASF56
 856 0368 08       		.byte	0x8
 857 0369 5F       		.byte	0x5f
 858 036a 40020000 		.4byte	0x240
 859 036e 14       		.byte	0x14
 860 036f 06       		.uleb128 0x6
 861 0370 74050000 		.4byte	.LASF57
 862 0374 08       		.byte	0x8
 863 0375 62       		.byte	0x62
 864 0376 40020000 		.4byte	0x240
 865 037a 18       		.byte	0x18
 866 037b 00       		.byte	0
 867 037c 03       		.uleb128 0x3
 868 037d 92060000 		.4byte	.LASF58
 869 0381 08       		.byte	0x8
 870 0382 64       		.byte	0x64
 871 0383 2B030000 		.4byte	0x32b
 872 0387 05       		.uleb128 0x5
 873 0388 EA020000 		.4byte	.LASF59
 874 038c 10       		.byte	0x10
 875 038d 09       		.byte	0x9
 876 038e 25       		.byte	0x25
 877 038f B8030000 		.4byte	0x3b8
 878 0393 06       		.uleb128 0x6
 879 0394 89050000 		.4byte	.LASF60
 880 0398 09       		.byte	0x9
 881 0399 26       		.byte	0x26
ARM GAS  /var/folders/qh/xwg3v3kj02qbxczjpdb8lzfr0000gn/T//ccbil6mW.s 			page 17


 882 039a 46020000 		.4byte	0x246
 883 039e 00       		.byte	0
 884 039f 06       		.uleb128 0x6
 885 03a0 50000000 		.4byte	.LASF61
 886 03a4 09       		.byte	0x9
 887 03a5 28       		.byte	0x28
 888 03a6 40020000 		.4byte	0x240
 889 03aa 08       		.byte	0x8
 890 03ab 06       		.uleb128 0x6
 891 03ac E4060000 		.4byte	.LASF62
 892 03b0 09       		.byte	0x9
 893 03b1 2A       		.byte	0x2a
 894 03b2 B8030000 		.4byte	0x3b8
 895 03b6 0C       		.byte	0xc
 896 03b7 00       		.byte	0
 897 03b8 09       		.uleb128 0x9
 898 03b9 04       		.byte	0x4
 899 03ba 87030000 		.4byte	0x387
 900 03be 03       		.uleb128 0x3
 901 03bf EA020000 		.4byte	.LASF59
 902 03c3 09       		.byte	0x9
 903 03c4 2C       		.byte	0x2c
 904 03c5 87030000 		.4byte	0x387
 905 03c9 03       		.uleb128 0x3
 906 03ca 36060000 		.4byte	.LASF63
 907 03ce 0A       		.byte	0xa
 908 03cf 25       		.byte	0x25
 909 03d0 D4030000 		.4byte	0x3d4
 910 03d4 05       		.uleb128 0x5
 911 03d5 36060000 		.4byte	.LASF63
 912 03d9 10       		.byte	0x10
 913 03da 0A       		.byte	0xa
 914 03db 2A       		.byte	0x2a
 915 03dc 11040000 		.4byte	0x411
 916 03e0 06       		.uleb128 0x6
 917 03e1 A8040000 		.4byte	.LASF64
 918 03e5 0A       		.byte	0xa
 919 03e6 2B       		.byte	0x2b
 920 03e7 11040000 		.4byte	0x411
 921 03eb 00       		.byte	0
 922 03ec 06       		.uleb128 0x6
 923 03ed DA050000 		.4byte	.LASF65
 924 03f1 0A       		.byte	0xa
 925 03f2 2E       		.byte	0x2e
 926 03f3 40020000 		.4byte	0x240
 927 03f7 04       		.byte	0x4
 928 03f8 06       		.uleb128 0x6
 929 03f9 98000000 		.4byte	.LASF66
 930 03fd 0A       		.byte	0xa
 931 03fe 30       		.byte	0x30
 932 03ff F6000000 		.4byte	0xf6
 933 0403 08       		.byte	0x8
 934 0404 06       		.uleb128 0x6
 935 0405 26070000 		.4byte	.LASF67
 936 0409 0A       		.byte	0xa
 937 040a 33       		.byte	0x33
 938 040b 01010000 		.4byte	0x101
ARM GAS  /var/folders/qh/xwg3v3kj02qbxczjpdb8lzfr0000gn/T//ccbil6mW.s 			page 18


 939 040f 0C       		.byte	0xc
 940 0410 00       		.byte	0
 941 0411 09       		.uleb128 0x9
 942 0412 04       		.byte	0x4
 943 0413 C9030000 		.4byte	0x3c9
 944 0417 05       		.uleb128 0x5
 945 0418 8A040000 		.4byte	.LASF68
 946 041c 04       		.byte	0x4
 947 041d 0A       		.byte	0xa
 948 041e 3A       		.byte	0x3a
 949 041f 30040000 		.4byte	0x430
 950 0423 06       		.uleb128 0x6
 951 0424 B1060000 		.4byte	.LASF69
 952 0428 0A       		.byte	0xa
 953 0429 3B       		.byte	0x3b
 954 042a 11040000 		.4byte	0x411
 955 042e 00       		.byte	0
 956 042f 00       		.byte	0
 957 0430 03       		.uleb128 0x3
 958 0431 8A040000 		.4byte	.LASF68
 959 0435 0A       		.byte	0xa
 960 0436 3E       		.byte	0x3e
 961 0437 17040000 		.4byte	0x417
 962 043b 03       		.uleb128 0x3
 963 043c C8050000 		.4byte	.LASF70
 964 0440 0B       		.byte	0xb
 965 0441 25       		.byte	0x25
 966 0442 46040000 		.4byte	0x446
 967 0446 09       		.uleb128 0x9
 968 0447 04       		.byte	0x4
 969 0448 4C040000 		.4byte	0x44c
 970 044c 0C       		.uleb128 0xc
 971 044d 7C020000 		.4byte	0x27c
 972 0451 5B040000 		.4byte	0x45b
 973 0455 0D       		.uleb128 0xd
 974 0456 2C000000 		.4byte	0x2c
 975 045a 00       		.byte	0
 976 045b 05       		.uleb128 0x5
 977 045c BF060000 		.4byte	.LASF71
 978 0460 04       		.byte	0x4
 979 0461 0C       		.byte	0xc
 980 0462 25       		.byte	0x25
 981 0463 74040000 		.4byte	0x474
 982 0467 06       		.uleb128 0x6
 983 0468 3C020000 		.4byte	.LASF72
 984 046c 0C       		.byte	0xc
 985 046d 26       		.byte	0x26
 986 046e 74040000 		.4byte	0x474
 987 0472 00       		.byte	0
 988 0473 00       		.byte	0
 989 0474 09       		.uleb128 0x9
 990 0475 04       		.byte	0x4
 991 0476 5B040000 		.4byte	0x45b
 992 047a 08       		.uleb128 0x8
 993 047b 0C       		.byte	0xc
 994 047c 0C       		.byte	0xc
 995 047d 2D       		.byte	0x2d
ARM GAS  /var/folders/qh/xwg3v3kj02qbxczjpdb8lzfr0000gn/T//ccbil6mW.s 			page 19


 996 047e A7040000 		.4byte	0x4a7
 997 0482 06       		.uleb128 0x6
 998 0483 E7030000 		.4byte	.LASF73
 999 0487 0C       		.byte	0xc
 1000 0488 2E       		.byte	0x2e
 1001 0489 74040000 		.4byte	0x474
 1002 048d 00       		.byte	0
 1003 048e 06       		.uleb128 0x6
 1004 048f 7B040000 		.4byte	.LASF74
 1005 0493 0C       		.byte	0xc
 1006 0494 2F       		.byte	0x2f
 1007 0495 2C000000 		.4byte	0x2c
 1008 0499 04       		.byte	0x4
 1009 049a 06       		.uleb128 0x6
 1010 049b 3D070000 		.4byte	.LASF75
 1011 049f 0C       		.byte	0xc
 1012 04a0 31       		.byte	0x31
 1013 04a1 3B040000 		.4byte	0x43b
 1014 04a5 08       		.byte	0x8
 1015 04a6 00       		.byte	0
 1016 04a7 03       		.uleb128 0x3
 1017 04a8 5F030000 		.4byte	.LASF76
 1018 04ac 0C       		.byte	0xc
 1019 04ad 33       		.byte	0x33
 1020 04ae 7A040000 		.4byte	0x47a
 1021 04b2 0E       		.uleb128 0xe
 1022 04b3 04       		.byte	0x4
 1023 04b4 06       		.byte	0x6
 1024 04b5 8F       		.byte	0x8f
 1025 04b6 E7040000 		.4byte	0x4e7
 1026 04ba 0F       		.uleb128 0xf
 1027 04bb C7020000 		.4byte	.LASF77
 1028 04bf 06       		.byte	0x6
 1029 04c0 96       		.byte	0x96
 1030 04c1 EB000000 		.4byte	0xeb
 1031 04c5 0F       		.uleb128 0xf
 1032 04c6 2F070000 		.4byte	.LASF78
 1033 04ca 06       		.byte	0x6
 1034 04cb 9D       		.byte	0x9d
 1035 04cc EB000000 		.4byte	0xeb
 1036 04d0 0F       		.uleb128 0xf
 1037 04d1 B8000000 		.4byte	.LASF79
 1038 04d5 06       		.byte	0x6
 1039 04d6 A4       		.byte	0xa4
 1040 04d7 7C020000 		.4byte	0x27c
 1041 04db 0F       		.uleb128 0xf
 1042 04dc A6010000 		.4byte	.LASF80
 1043 04e0 06       		.byte	0x6
 1044 04e1 AB       		.byte	0xab
 1045 04e2 F6000000 		.4byte	0xf6
 1046 04e6 00       		.byte	0
 1047 04e7 09       		.uleb128 0x9
 1048 04e8 04       		.byte	0x4
 1049 04e9 ED040000 		.4byte	0x4ed
 1050 04ed 10       		.uleb128 0x10
 1051 04ee F2040000 		.4byte	0x4f2
 1052 04f2 04       		.uleb128 0x4
ARM GAS  /var/folders/qh/xwg3v3kj02qbxczjpdb8lzfr0000gn/T//ccbil6mW.s 			page 20


 1053 04f3 01       		.byte	0x1
 1054 04f4 08       		.byte	0x8
 1055 04f5 50030000 		.4byte	.LASF81
 1056 04f9 09       		.uleb128 0x9
 1057 04fa 04       		.byte	0x4
 1058 04fb BE030000 		.4byte	0x3be
 1059 04ff 03       		.uleb128 0x3
 1060 0500 13020000 		.4byte	.LASF82
 1061 0504 06       		.byte	0x6
 1062 0505 DE       		.byte	0xde
 1063 0506 0A050000 		.4byte	0x50a
 1064 050a 09       		.uleb128 0x9
 1065 050b 04       		.byte	0x4
 1066 050c 10050000 		.4byte	0x510
 1067 0510 0C       		.uleb128 0xc
 1068 0511 EB000000 		.4byte	0xeb
 1069 0515 1F050000 		.4byte	0x51f
 1070 0519 0D       		.uleb128 0xd
 1071 051a 7C020000 		.4byte	0x27c
 1072 051e 00       		.byte	0
 1073 051f 03       		.uleb128 0x3
 1074 0520 D0040000 		.4byte	.LASF83
 1075 0524 0D       		.byte	0xd
 1076 0525 30       		.byte	0x30
 1077 0526 2A050000 		.4byte	0x52a
 1078 052a 05       		.uleb128 0x5
 1079 052b D0040000 		.4byte	.LASF83
 1080 052f 24       		.byte	0x24
 1081 0530 0D       		.byte	0xd
 1082 0531 3E       		.byte	0x3e
 1083 0532 97050000 		.4byte	0x597
 1084 0536 06       		.uleb128 0x6
 1085 0537 76020000 		.4byte	.LASF84
 1086 053b 0D       		.byte	0xd
 1087 053c 3F       		.byte	0x3f
 1088 053d 46020000 		.4byte	0x246
 1089 0541 00       		.byte	0
 1090 0542 06       		.uleb128 0x6
 1091 0543 09060000 		.4byte	.LASF85
 1092 0547 0D       		.byte	0xd
 1093 0548 40       		.byte	0x40
 1094 0549 2C000000 		.4byte	0x2c
 1095 054d 08       		.byte	0x8
 1096 054e 06       		.uleb128 0x6
 1097 054f 1B040000 		.4byte	.LASF86
 1098 0553 0D       		.byte	0xd
 1099 0554 41       		.byte	0x41
 1100 0555 B9050000 		.4byte	0x5b9
 1101 0559 0C       		.byte	0xc
 1102 055a 06       		.uleb128 0x6
 1103 055b 18060000 		.4byte	.LASF87
 1104 055f 0D       		.byte	0xd
 1105 0560 42       		.byte	0x42
 1106 0561 B9050000 		.4byte	0x5b9
 1107 0565 10       		.byte	0x10
 1108 0566 06       		.uleb128 0x6
 1109 0567 72030000 		.4byte	.LASF88
ARM GAS  /var/folders/qh/xwg3v3kj02qbxczjpdb8lzfr0000gn/T//ccbil6mW.s 			page 21


 1110 056b 0D       		.byte	0xd
 1111 056c 44       		.byte	0x44
 1112 056d B9050000 		.4byte	0x5b9
 1113 0571 14       		.byte	0x14
 1114 0572 06       		.uleb128 0x6
 1115 0573 86000000 		.4byte	.LASF89
 1116 0577 0D       		.byte	0xd
 1117 0578 45       		.byte	0x45
 1118 0579 B9050000 		.4byte	0x5b9
 1119 057d 18       		.byte	0x18
 1120 057e 06       		.uleb128 0x6
 1121 057f FC020000 		.4byte	.LASF90
 1122 0583 0D       		.byte	0xd
 1123 0584 46       		.byte	0x46
 1124 0585 97050000 		.4byte	0x597
 1125 0589 1C       		.byte	0x1c
 1126 058a 06       		.uleb128 0x6
 1127 058b BF000000 		.4byte	.LASF91
 1128 058f 0D       		.byte	0xd
 1129 0590 47       		.byte	0x47
 1130 0591 7C020000 		.4byte	0x27c
 1131 0595 20       		.byte	0x20
 1132 0596 00       		.byte	0
 1133 0597 03       		.uleb128 0x3
 1134 0598 8E000000 		.4byte	.LASF92
 1135 059c 0D       		.byte	0xd
 1136 059d 33       		.byte	0x33
 1137 059e A2050000 		.4byte	0x5a2
 1138 05a2 09       		.uleb128 0x9
 1139 05a3 04       		.byte	0x4
 1140 05a4 A8050000 		.4byte	0x5a8
 1141 05a8 11       		.uleb128 0x11
 1142 05a9 B3050000 		.4byte	0x5b3
 1143 05ad 0D       		.uleb128 0xd
 1144 05ae B3050000 		.4byte	0x5b3
 1145 05b2 00       		.byte	0
 1146 05b3 09       		.uleb128 0x9
 1147 05b4 04       		.byte	0x4
 1148 05b5 1F050000 		.4byte	0x51f
 1149 05b9 09       		.uleb128 0x9
 1150 05ba 04       		.byte	0x4
 1151 05bb 45000000 		.4byte	0x45
 1152 05bf 03       		.uleb128 0x3
 1153 05c0 2D030000 		.4byte	.LASF93
 1154 05c4 0D       		.byte	0xd
 1155 05c5 7B       		.byte	0x7b
 1156 05c6 1F050000 		.4byte	0x51f
 1157 05ca 03       		.uleb128 0x3
 1158 05cb F0020000 		.4byte	.LASF94
 1159 05cf 0D       		.byte	0xd
 1160 05d0 EE       		.byte	0xee
 1161 05d1 1F050000 		.4byte	0x51f
 1162 05d5 05       		.uleb128 0x5
 1163 05d6 A0000000 		.4byte	.LASF95
 1164 05da 10       		.byte	0x10
 1165 05db 0E       		.byte	0xe
 1166 05dc 41       		.byte	0x41
ARM GAS  /var/folders/qh/xwg3v3kj02qbxczjpdb8lzfr0000gn/T//ccbil6mW.s 			page 22


 1167 05dd 12060000 		.4byte	0x612
 1168 05e1 06       		.uleb128 0x6
 1169 05e2 15040000 		.4byte	.LASF96
 1170 05e6 0E       		.byte	0xe
 1171 05e7 42       		.byte	0x42
 1172 05e8 36060000 		.4byte	0x636
 1173 05ec 00       		.byte	0
 1174 05ed 06       		.uleb128 0x6
 1175 05ee D5050000 		.4byte	.LASF97
 1176 05f2 0E       		.byte	0xe
 1177 05f3 42       		.byte	0x42
 1178 05f4 55060000 		.4byte	0x655
 1179 05f8 04       		.byte	0x4
 1180 05f9 07       		.uleb128 0x7
 1181 05fa 70757400 		.ascii	"put\000"
 1182 05fe 0E       		.byte	0xe
 1183 05ff 42       		.byte	0x42
 1184 0600 6F060000 		.4byte	0x66f
 1185 0604 08       		.byte	0x8
 1186 0605 07       		.uleb128 0x7
 1187 0606 67657400 		.ascii	"get\000"
 1188 060a 0E       		.byte	0xe
 1189 060b 42       		.byte	0x42
 1190 060c 0A050000 		.4byte	0x50a
 1191 0610 0C       		.byte	0xc
 1192 0611 00       		.byte	0
 1193 0612 0C       		.uleb128 0xc
 1194 0613 2C000000 		.4byte	0x2c
 1195 0617 2B060000 		.4byte	0x62b
 1196 061b 0D       		.uleb128 0xd
 1197 061c 7C020000 		.4byte	0x27c
 1198 0620 0D       		.uleb128 0xd
 1199 0621 2B060000 		.4byte	0x62b
 1200 0625 0D       		.uleb128 0xd
 1201 0626 2C000000 		.4byte	0x2c
 1202 062a 00       		.byte	0
 1203 062b 09       		.uleb128 0x9
 1204 062c 04       		.byte	0x4
 1205 062d 31060000 		.4byte	0x631
 1206 0631 10       		.uleb128 0x10
 1207 0632 45000000 		.4byte	0x45
 1208 0636 09       		.uleb128 0x9
 1209 0637 04       		.byte	0x4
 1210 0638 12060000 		.4byte	0x612
 1211 063c 0C       		.uleb128 0xc
 1212 063d 2C000000 		.4byte	0x2c
 1213 0641 55060000 		.4byte	0x655
 1214 0645 0D       		.uleb128 0xd
 1215 0646 7C020000 		.4byte	0x27c
 1216 064a 0D       		.uleb128 0xd
 1217 064b B9050000 		.4byte	0x5b9
 1218 064f 0D       		.uleb128 0xd
 1219 0650 2C000000 		.4byte	0x2c
 1220 0654 00       		.byte	0
 1221 0655 09       		.uleb128 0x9
 1222 0656 04       		.byte	0x4
 1223 0657 3C060000 		.4byte	0x63c
ARM GAS  /var/folders/qh/xwg3v3kj02qbxczjpdb8lzfr0000gn/T//ccbil6mW.s 			page 23


 1224 065b 0C       		.uleb128 0xc
 1225 065c EB000000 		.4byte	0xeb
 1226 0660 6F060000 		.4byte	0x66f
 1227 0664 0D       		.uleb128 0xd
 1228 0665 7C020000 		.4byte	0x27c
 1229 0669 0D       		.uleb128 0xd
 1230 066a 45000000 		.4byte	0x45
 1231 066e 00       		.byte	0
 1232 066f 09       		.uleb128 0x9
 1233 0670 04       		.byte	0x4
 1234 0671 5B060000 		.4byte	0x65b
 1235 0675 08       		.uleb128 0x8
 1236 0676 04       		.byte	0x4
 1237 0677 0E       		.byte	0xe
 1238 0678 4A       		.byte	0x4a
 1239 0679 8A060000 		.4byte	0x68a
 1240 067d 07       		.uleb128 0x7
 1241 067e 766D7400 		.ascii	"vmt\000"
 1242 0682 0E       		.byte	0xe
 1243 0683 4C       		.byte	0x4c
 1244 0684 8A060000 		.4byte	0x68a
 1245 0688 00       		.byte	0
 1246 0689 00       		.byte	0
 1247 068a 09       		.uleb128 0x9
 1248 068b 04       		.byte	0x4
 1249 068c 90060000 		.4byte	0x690
 1250 0690 10       		.uleb128 0x10
 1251 0691 D5050000 		.4byte	0x5d5
 1252 0695 03       		.uleb128 0x3
 1253 0696 18030000 		.4byte	.LASF98
 1254 069a 0E       		.byte	0xe
 1255 069b 4E       		.byte	0x4e
 1256 069c 75060000 		.4byte	0x675
 1257 06a0 0B       		.uleb128 0xb
 1258 06a1 5E000000 		.4byte	0x5e
 1259 06a5 12       		.uleb128 0x12
 1260 06a6 2C       		.byte	0x2c
 1261 06a7 0F       		.byte	0xf
 1262 06a8 AA02     		.2byte	0x2aa
 1263 06aa 7F070000 		.4byte	0x77f
 1264 06ae 13       		.uleb128 0x13
 1265 06af 43523100 		.ascii	"CR1\000"
 1266 06b3 0F       		.byte	0xf
 1267 06b4 AC02     		.2byte	0x2ac
 1268 06b6 1A030000 		.4byte	0x31a
 1269 06ba 00       		.byte	0
 1270 06bb 13       		.uleb128 0x13
 1271 06bc 43523200 		.ascii	"CR2\000"
 1272 06c0 0F       		.byte	0xf
 1273 06c1 AD02     		.2byte	0x2ad
 1274 06c3 1A030000 		.4byte	0x31a
 1275 06c7 04       		.byte	0x4
 1276 06c8 13       		.uleb128 0x13
 1277 06c9 43523300 		.ascii	"CR3\000"
 1278 06cd 0F       		.byte	0xf
 1279 06ce AE02     		.2byte	0x2ae
 1280 06d0 1A030000 		.4byte	0x31a
ARM GAS  /var/folders/qh/xwg3v3kj02qbxczjpdb8lzfr0000gn/T//ccbil6mW.s 			page 24


 1281 06d4 08       		.byte	0x8
 1282 06d5 13       		.uleb128 0x13
 1283 06d6 42525200 		.ascii	"BRR\000"
 1284 06da 0F       		.byte	0xf
 1285 06db AF02     		.2byte	0x2af
 1286 06dd A0060000 		.4byte	0x6a0
 1287 06e1 0C       		.byte	0xc
 1288 06e2 14       		.uleb128 0x14
 1289 06e3 38050000 		.4byte	.LASF99
 1290 06e7 0F       		.byte	0xf
 1291 06e8 B002     		.2byte	0x2b0
 1292 06ea 5E000000 		.4byte	0x5e
 1293 06ee 0E       		.byte	0xe
 1294 06ef 14       		.uleb128 0x14
 1295 06f0 BA010000 		.4byte	.LASF100
 1296 06f4 0F       		.byte	0xf
 1297 06f5 B102     		.2byte	0x2b1
 1298 06f7 A0060000 		.4byte	0x6a0
 1299 06fb 10       		.byte	0x10
 1300 06fc 14       		.uleb128 0x14
 1301 06fd 42050000 		.4byte	.LASF101
 1302 0701 0F       		.byte	0xf
 1303 0702 B202     		.2byte	0x2b2
 1304 0704 5E000000 		.4byte	0x5e
 1305 0708 12       		.byte	0x12
 1306 0709 14       		.uleb128 0x14
 1307 070a E2030000 		.4byte	.LASF102
 1308 070e 0F       		.byte	0xf
 1309 070f B302     		.2byte	0x2b3
 1310 0711 1A030000 		.4byte	0x31a
 1311 0715 14       		.byte	0x14
 1312 0716 13       		.uleb128 0x13
 1313 0717 52515200 		.ascii	"RQR\000"
 1314 071b 0F       		.byte	0xf
 1315 071c B402     		.2byte	0x2b4
 1316 071e A0060000 		.4byte	0x6a0
 1317 0722 18       		.byte	0x18
 1318 0723 14       		.uleb128 0x14
 1319 0724 4C050000 		.4byte	.LASF103
 1320 0728 0F       		.byte	0xf
 1321 0729 B502     		.2byte	0x2b5
 1322 072b 5E000000 		.4byte	0x5e
 1323 072f 1A       		.byte	0x1a
 1324 0730 13       		.uleb128 0x13
 1325 0731 49535200 		.ascii	"ISR\000"
 1326 0735 0F       		.byte	0xf
 1327 0736 B602     		.2byte	0x2b6
 1328 0738 1A030000 		.4byte	0x31a
 1329 073c 1C       		.byte	0x1c
 1330 073d 13       		.uleb128 0x13
 1331 073e 49435200 		.ascii	"ICR\000"
 1332 0742 0F       		.byte	0xf
 1333 0743 B702     		.2byte	0x2b7
 1334 0745 1A030000 		.4byte	0x31a
 1335 0749 20       		.byte	0x20
 1336 074a 13       		.uleb128 0x13
 1337 074b 52445200 		.ascii	"RDR\000"
ARM GAS  /var/folders/qh/xwg3v3kj02qbxczjpdb8lzfr0000gn/T//ccbil6mW.s 			page 25


 1338 074f 0F       		.byte	0xf
 1339 0750 B802     		.2byte	0x2b8
 1340 0752 A0060000 		.4byte	0x6a0
 1341 0756 24       		.byte	0x24
 1342 0757 14       		.uleb128 0x14
 1343 0758 56050000 		.4byte	.LASF104
 1344 075c 0F       		.byte	0xf
 1345 075d B902     		.2byte	0x2b9
 1346 075f 5E000000 		.4byte	0x5e
 1347 0763 26       		.byte	0x26
 1348 0764 13       		.uleb128 0x13
 1349 0765 54445200 		.ascii	"TDR\000"
 1350 0769 0F       		.byte	0xf
 1351 076a BA02     		.2byte	0x2ba
 1352 076c A0060000 		.4byte	0x6a0
 1353 0770 28       		.byte	0x28
 1354 0771 14       		.uleb128 0x14
 1355 0772 60050000 		.4byte	.LASF105
 1356 0776 0F       		.byte	0xf
 1357 0777 BB02     		.2byte	0x2bb
 1358 0779 5E000000 		.4byte	0x5e
 1359 077d 2A       		.byte	0x2a
 1360 077e 00       		.byte	0
 1361 077f 15       		.uleb128 0x15
 1362 0780 DC020000 		.4byte	.LASF106
 1363 0784 0F       		.byte	0xf
 1364 0785 BC02     		.2byte	0x2bc
 1365 0787 A5060000 		.4byte	0x6a5
 1366 078b 0C       		.uleb128 0xc
 1367 078c EB000000 		.4byte	0xeb
 1368 0790 A4070000 		.4byte	0x7a4
 1369 0794 0D       		.uleb128 0xd
 1370 0795 7C020000 		.4byte	0x27c
 1371 0799 0D       		.uleb128 0xd
 1372 079a 45000000 		.4byte	0x45
 1373 079e 0D       		.uleb128 0xd
 1374 079f 0C010000 		.4byte	0x10c
 1375 07a3 00       		.byte	0
 1376 07a4 09       		.uleb128 0x9
 1377 07a5 04       		.byte	0x4
 1378 07a6 8B070000 		.4byte	0x78b
 1379 07aa 0C       		.uleb128 0xc
 1380 07ab EB000000 		.4byte	0xeb
 1381 07af BE070000 		.4byte	0x7be
 1382 07b3 0D       		.uleb128 0xd
 1383 07b4 7C020000 		.4byte	0x27c
 1384 07b8 0D       		.uleb128 0xd
 1385 07b9 0C010000 		.4byte	0x10c
 1386 07bd 00       		.byte	0
 1387 07be 09       		.uleb128 0x9
 1388 07bf 04       		.byte	0x4
 1389 07c0 AA070000 		.4byte	0x7aa
 1390 07c4 0C       		.uleb128 0xc
 1391 07c5 2C000000 		.4byte	0x2c
 1392 07c9 E2070000 		.4byte	0x7e2
 1393 07cd 0D       		.uleb128 0xd
 1394 07ce 7C020000 		.4byte	0x27c
ARM GAS  /var/folders/qh/xwg3v3kj02qbxczjpdb8lzfr0000gn/T//ccbil6mW.s 			page 26


 1395 07d2 0D       		.uleb128 0xd
 1396 07d3 2B060000 		.4byte	0x62b
 1397 07d7 0D       		.uleb128 0xd
 1398 07d8 2C000000 		.4byte	0x2c
 1399 07dc 0D       		.uleb128 0xd
 1400 07dd 0C010000 		.4byte	0x10c
 1401 07e1 00       		.byte	0
 1402 07e2 09       		.uleb128 0x9
 1403 07e3 04       		.byte	0x4
 1404 07e4 C4070000 		.4byte	0x7c4
 1405 07e8 0C       		.uleb128 0xc
 1406 07e9 2C000000 		.4byte	0x2c
 1407 07ed 06080000 		.4byte	0x806
 1408 07f1 0D       		.uleb128 0xd
 1409 07f2 7C020000 		.4byte	0x27c
 1410 07f6 0D       		.uleb128 0xd
 1411 07f7 B9050000 		.4byte	0x5b9
 1412 07fb 0D       		.uleb128 0xd
 1413 07fc 2C000000 		.4byte	0x2c
 1414 0800 0D       		.uleb128 0xd
 1415 0801 0C010000 		.4byte	0x10c
 1416 0805 00       		.byte	0
 1417 0806 09       		.uleb128 0x9
 1418 0807 04       		.byte	0x4
 1419 0808 E8070000 		.4byte	0x7e8
 1420 080c 08       		.uleb128 0x8
 1421 080d 04       		.byte	0x4
 1422 080e 10       		.byte	0x10
 1423 080f 96       		.byte	0x96
 1424 0810 2D080000 		.4byte	0x82d
 1425 0814 07       		.uleb128 0x7
 1426 0815 73657400 		.ascii	"set\000"
 1427 0819 10       		.byte	0x10
 1428 081a 97       		.byte	0x97
 1429 081b 5E000000 		.4byte	0x5e
 1430 081f 00       		.byte	0
 1431 0820 06       		.uleb128 0x6
 1432 0821 70020000 		.4byte	.LASF107
 1433 0825 10       		.byte	0x10
 1434 0826 98       		.byte	0x98
 1435 0827 5E000000 		.4byte	0x5e
 1436 082b 02       		.byte	0x2
 1437 082c 00       		.byte	0
 1438 082d 0E       		.uleb128 0xe
 1439 082e 04       		.byte	0x4
 1440 082f 10       		.byte	0x10
 1441 0830 94       		.byte	0x94
 1442 0831 48080000 		.4byte	0x848
 1443 0835 16       		.uleb128 0x16
 1444 0836 5700     		.ascii	"W\000"
 1445 0838 10       		.byte	0x10
 1446 0839 95       		.byte	0x95
 1447 083a 82000000 		.4byte	0x82
 1448 083e 16       		.uleb128 0x16
 1449 083f 4800     		.ascii	"H\000"
 1450 0841 10       		.byte	0x10
 1451 0842 99       		.byte	0x99
ARM GAS  /var/folders/qh/xwg3v3kj02qbxczjpdb8lzfr0000gn/T//ccbil6mW.s 			page 27


 1452 0843 0C080000 		.4byte	0x80c
 1453 0847 00       		.byte	0
 1454 0848 08       		.uleb128 0x8
 1455 0849 28       		.byte	0x28
 1456 084a 10       		.byte	0x10
 1457 084b 8C       		.byte	0x8c
 1458 084c C9080000 		.4byte	0x8c9
 1459 0850 06       		.uleb128 0x6
 1460 0851 4C020000 		.4byte	.LASF108
 1461 0855 10       		.byte	0x10
 1462 0856 8E       		.byte	0x8e
 1463 0857 1A030000 		.4byte	0x31a
 1464 085b 00       		.byte	0
 1465 085c 06       		.uleb128 0x6
 1466 085d 9A050000 		.4byte	.LASF109
 1467 0861 10       		.byte	0x10
 1468 0862 8F       		.byte	0x8f
 1469 0863 1A030000 		.4byte	0x31a
 1470 0867 04       		.byte	0x4
 1471 0868 06       		.uleb128 0x6
 1472 0869 C8040000 		.4byte	.LASF110
 1473 086d 10       		.byte	0x10
 1474 086e 90       		.byte	0x90
 1475 086f 1A030000 		.4byte	0x31a
 1476 0873 08       		.byte	0x8
 1477 0874 06       		.uleb128 0x6
 1478 0875 0B030000 		.4byte	.LASF111
 1479 0879 10       		.byte	0x10
 1480 087a 91       		.byte	0x91
 1481 087b 1A030000 		.4byte	0x31a
 1482 087f 0C       		.byte	0xc
 1483 0880 07       		.uleb128 0x7
 1484 0881 49445200 		.ascii	"IDR\000"
 1485 0885 10       		.byte	0x10
 1486 0886 92       		.byte	0x92
 1487 0887 1A030000 		.4byte	0x31a
 1488 088b 10       		.byte	0x10
 1489 088c 07       		.uleb128 0x7
 1490 088d 4F445200 		.ascii	"ODR\000"
 1491 0891 10       		.byte	0x10
 1492 0892 93       		.byte	0x93
 1493 0893 1A030000 		.4byte	0x31a
 1494 0897 14       		.byte	0x14
 1495 0898 06       		.uleb128 0x6
 1496 0899 31000000 		.4byte	.LASF112
 1497 089d 10       		.byte	0x10
 1498 089e 9A       		.byte	0x9a
 1499 089f C9080000 		.4byte	0x8c9
 1500 08a3 18       		.byte	0x18
 1501 08a4 06       		.uleb128 0x6
 1502 08a5 38070000 		.4byte	.LASF113
 1503 08a9 10       		.byte	0x10
 1504 08aa 9B       		.byte	0x9b
 1505 08ab 1A030000 		.4byte	0x31a
 1506 08af 1C       		.byte	0x1c
 1507 08b0 06       		.uleb128 0x6
 1508 08b1 63020000 		.4byte	.LASF114
ARM GAS  /var/folders/qh/xwg3v3kj02qbxczjpdb8lzfr0000gn/T//ccbil6mW.s 			page 28


 1509 08b5 10       		.byte	0x10
 1510 08b6 9C       		.byte	0x9c
 1511 08b7 1A030000 		.4byte	0x31a
 1512 08bb 20       		.byte	0x20
 1513 08bc 06       		.uleb128 0x6
 1514 08bd 5E020000 		.4byte	.LASF115
 1515 08c1 10       		.byte	0x10
 1516 08c2 9D       		.byte	0x9d
 1517 08c3 1A030000 		.4byte	0x31a
 1518 08c7 24       		.byte	0x24
 1519 08c8 00       		.byte	0
 1520 08c9 0B       		.uleb128 0xb
 1521 08ca 2D080000 		.4byte	0x82d
 1522 08ce 03       		.uleb128 0x3
 1523 08cf F0050000 		.4byte	.LASF116
 1524 08d3 10       		.byte	0x10
 1525 08d4 9E       		.byte	0x9e
 1526 08d5 48080000 		.4byte	0x848
 1527 08d9 03       		.uleb128 0x3
 1528 08da 42040000 		.4byte	.LASF117
 1529 08de 10       		.byte	0x10
 1530 08df F0       		.byte	0xf0
 1531 08e0 82000000 		.4byte	0x82
 1532 08e4 03       		.uleb128 0x3
 1533 08e5 DB060000 		.4byte	.LASF118
 1534 08e9 10       		.byte	0x10
 1535 08ea F5       		.byte	0xf5
 1536 08eb 82000000 		.4byte	0x82
 1537 08ef 03       		.uleb128 0x3
 1538 08f0 BD050000 		.4byte	.LASF119
 1539 08f4 10       		.byte	0x10
 1540 08f5 FD       		.byte	0xfd
 1541 08f6 FA080000 		.4byte	0x8fa
 1542 08fa 09       		.uleb128 0x9
 1543 08fb 04       		.byte	0x4
 1544 08fc CE080000 		.4byte	0x8ce
 1545 0900 17       		.uleb128 0x17
 1546 0901 01       		.byte	0x1
 1547 0902 11       		.byte	0x11
 1548 0903 5D       		.byte	0x5d
 1549 0904 1B090000 		.4byte	0x91b
 1550 0908 18       		.uleb128 0x18
 1551 0909 E6050000 		.4byte	.LASF120
 1552 090d 00       		.sleb128 0
 1553 090e 18       		.uleb128 0x18
 1554 090f D4020000 		.4byte	.LASF121
 1555 0913 01       		.sleb128 1
 1556 0914 18       		.uleb128 0x18
 1557 0915 07050000 		.4byte	.LASF122
 1558 0919 02       		.sleb128 2
 1559 091a 00       		.byte	0
 1560 091b 03       		.uleb128 0x3
 1561 091c FB010000 		.4byte	.LASF123
 1562 0920 11       		.byte	0x11
 1563 0921 61       		.byte	0x61
 1564 0922 00090000 		.4byte	0x900
 1565 0926 03       		.uleb128 0x3
ARM GAS  /var/folders/qh/xwg3v3kj02qbxczjpdb8lzfr0000gn/T//ccbil6mW.s 			page 29


 1566 0927 16000000 		.4byte	.LASF124
 1567 092b 11       		.byte	0x11
 1568 092c 66       		.byte	0x66
 1569 092d 31090000 		.4byte	0x931
 1570 0931 05       		.uleb128 0x5
 1571 0932 16000000 		.4byte	.LASF124
 1572 0936 7C       		.byte	0x7c
 1573 0937 11       		.byte	0x11
 1574 0938 80       		.byte	0x80
 1575 0939 A8090000 		.4byte	0x9a8
 1576 093d 07       		.uleb128 0x7
 1577 093e 766D7400 		.ascii	"vmt\000"
 1578 0942 11       		.byte	0x11
 1579 0943 82       		.byte	0x82
 1580 0944 590A0000 		.4byte	0xa59
 1581 0948 00       		.byte	0
 1582 0949 06       		.uleb128 0x6
 1583 094a 05020000 		.4byte	.LASF125
 1584 094e 11       		.byte	0x11
 1585 094f 83       		.byte	0x83
 1586 0950 30040000 		.4byte	0x430
 1587 0954 04       		.byte	0x4
 1588 0955 06       		.uleb128 0x6
 1589 0956 B9060000 		.4byte	.LASF126
 1590 095a 11       		.byte	0x11
 1591 095b 83       		.byte	0x83
 1592 095c 1B090000 		.4byte	0x91b
 1593 0960 08       		.byte	0x8
 1594 0961 06       		.uleb128 0x6
 1595 0962 BF010000 		.4byte	.LASF127
 1596 0966 11       		.byte	0x11
 1597 0967 83       		.byte	0x83
 1598 0968 BF050000 		.4byte	0x5bf
 1599 096c 0C       		.byte	0xc
 1600 096d 06       		.uleb128 0x6
 1601 096e DD040000 		.4byte	.LASF128
 1602 0972 11       		.byte	0x11
 1603 0973 83       		.byte	0x83
 1604 0974 CA050000 		.4byte	0x5ca
 1605 0978 30       		.byte	0x30
 1606 0979 07       		.uleb128 0x7
 1607 097a 696200   		.ascii	"ib\000"
 1608 097d 11       		.byte	0x11
 1609 097e 83       		.byte	0x83
 1610 097f 640A0000 		.4byte	0xa64
 1611 0983 54       		.byte	0x54
 1612 0984 07       		.uleb128 0x7
 1613 0985 6F6200   		.ascii	"ob\000"
 1614 0988 11       		.byte	0x11
 1615 0989 83       		.byte	0x83
 1616 098a 640A0000 		.4byte	0xa64
 1617 098e 64       		.byte	0x64
 1618 098f 06       		.uleb128 0x6
 1619 0990 01040000 		.4byte	.LASF129
 1620 0994 11       		.byte	0x11
 1621 0995 83       		.byte	0x83
 1622 0996 740A0000 		.4byte	0xa74
ARM GAS  /var/folders/qh/xwg3v3kj02qbxczjpdb8lzfr0000gn/T//ccbil6mW.s 			page 30


 1623 099a 74       		.byte	0x74
 1624 099b 06       		.uleb128 0x6
 1625 099c 05030000 		.4byte	.LASF130
 1626 09a0 11       		.byte	0x11
 1627 09a1 83       		.byte	0x83
 1628 09a2 82000000 		.4byte	0x82
 1629 09a6 78       		.byte	0x78
 1630 09a7 00       		.byte	0
 1631 09a8 08       		.uleb128 0x8
 1632 09a9 10       		.byte	0x10
 1633 09aa 12       		.byte	0x12
 1634 09ab D7       		.byte	0xd7
 1635 09ac E1090000 		.4byte	0x9e1
 1636 09b0 06       		.uleb128 0x6
 1637 09b1 AD010000 		.4byte	.LASF131
 1638 09b5 12       		.byte	0x12
 1639 09b6 DB       		.byte	0xdb
 1640 09b7 82000000 		.4byte	0x82
 1641 09bb 00       		.byte	0
 1642 09bc 07       		.uleb128 0x7
 1643 09bd 63723100 		.ascii	"cr1\000"
 1644 09c1 12       		.byte	0x12
 1645 09c2 E0       		.byte	0xe0
 1646 09c3 82000000 		.4byte	0x82
 1647 09c7 04       		.byte	0x4
 1648 09c8 07       		.uleb128 0x7
 1649 09c9 63723200 		.ascii	"cr2\000"
 1650 09cd 12       		.byte	0x12
 1651 09ce E4       		.byte	0xe4
 1652 09cf 82000000 		.4byte	0x82
 1653 09d3 08       		.byte	0x8
 1654 09d4 07       		.uleb128 0x7
 1655 09d5 63723300 		.ascii	"cr3\000"
 1656 09d9 12       		.byte	0x12
 1657 09da E8       		.byte	0xe8
 1658 09db 82000000 		.4byte	0x82
 1659 09df 0C       		.byte	0xc
 1660 09e0 00       		.byte	0
 1661 09e1 03       		.uleb128 0x3
 1662 09e2 EE010000 		.4byte	.LASF132
 1663 09e6 12       		.byte	0x12
 1664 09e7 E9       		.byte	0xe9
 1665 09e8 A8090000 		.4byte	0x9a8
 1666 09ec 05       		.uleb128 0x5
 1667 09ed 10050000 		.4byte	.LASF133
 1668 09f1 20       		.byte	0x20
 1669 09f2 11       		.byte	0x11
 1670 09f3 75       		.byte	0x75
 1671 09f4 590A0000 		.4byte	0xa59
 1672 09f8 06       		.uleb128 0x6
 1673 09f9 15040000 		.4byte	.LASF96
 1674 09fd 11       		.byte	0x11
 1675 09fe 76       		.byte	0x76
 1676 09ff 36060000 		.4byte	0x636
 1677 0a03 00       		.byte	0
 1678 0a04 06       		.uleb128 0x6
 1679 0a05 D5050000 		.4byte	.LASF97
ARM GAS  /var/folders/qh/xwg3v3kj02qbxczjpdb8lzfr0000gn/T//ccbil6mW.s 			page 31


 1680 0a09 11       		.byte	0x11
 1681 0a0a 76       		.byte	0x76
 1682 0a0b 55060000 		.4byte	0x655
 1683 0a0f 04       		.byte	0x4
 1684 0a10 07       		.uleb128 0x7
 1685 0a11 70757400 		.ascii	"put\000"
 1686 0a15 11       		.byte	0x11
 1687 0a16 76       		.byte	0x76
 1688 0a17 6F060000 		.4byte	0x66f
 1689 0a1b 08       		.byte	0x8
 1690 0a1c 07       		.uleb128 0x7
 1691 0a1d 67657400 		.ascii	"get\000"
 1692 0a21 11       		.byte	0x11
 1693 0a22 76       		.byte	0x76
 1694 0a23 0A050000 		.4byte	0x50a
 1695 0a27 0C       		.byte	0xc
 1696 0a28 06       		.uleb128 0x6
 1697 0a29 80020000 		.4byte	.LASF134
 1698 0a2d 11       		.byte	0x11
 1699 0a2e 76       		.byte	0x76
 1700 0a2f A4070000 		.4byte	0x7a4
 1701 0a33 10       		.byte	0x10
 1702 0a34 06       		.uleb128 0x6
 1703 0a35 13060000 		.4byte	.LASF135
 1704 0a39 11       		.byte	0x11
 1705 0a3a 76       		.byte	0x76
 1706 0a3b BE070000 		.4byte	0x7be
 1707 0a3f 14       		.byte	0x14
 1708 0a40 06       		.uleb128 0x6
 1709 0a41 B3010000 		.4byte	.LASF136
 1710 0a45 11       		.byte	0x11
 1711 0a46 76       		.byte	0x76
 1712 0a47 E2070000 		.4byte	0x7e2
 1713 0a4b 18       		.byte	0x18
 1714 0a4c 06       		.uleb128 0x6
 1715 0a4d F7060000 		.4byte	.LASF137
 1716 0a51 11       		.byte	0x11
 1717 0a52 76       		.byte	0x76
 1718 0a53 06080000 		.4byte	0x806
 1719 0a57 1C       		.byte	0x1c
 1720 0a58 00       		.byte	0
 1721 0a59 09       		.uleb128 0x9
 1722 0a5a 04       		.byte	0x4
 1723 0a5b 5F0A0000 		.4byte	0xa5f
 1724 0a5f 10       		.uleb128 0x10
 1725 0a60 EC090000 		.4byte	0x9ec
 1726 0a64 19       		.uleb128 0x19
 1727 0a65 45000000 		.4byte	0x45
 1728 0a69 740A0000 		.4byte	0xa74
 1729 0a6d 1A       		.uleb128 0x1a
 1730 0a6e 1F030000 		.4byte	0x31f
 1731 0a72 0F       		.byte	0xf
 1732 0a73 00       		.byte	0
 1733 0a74 09       		.uleb128 0x9
 1734 0a75 04       		.byte	0x4
 1735 0a76 7F070000 		.4byte	0x77f
 1736 0a7a 19       		.uleb128 0x19
ARM GAS  /var/folders/qh/xwg3v3kj02qbxczjpdb8lzfr0000gn/T//ccbil6mW.s 			page 32


 1737 0a7b 7E020000 		.4byte	0x27e
 1738 0a7f 8A0A0000 		.4byte	0xa8a
 1739 0a83 1A       		.uleb128 0x1a
 1740 0a84 1F030000 		.4byte	0x31f
 1741 0a88 25       		.byte	0x25
 1742 0a89 00       		.byte	0
 1743 0a8a 03       		.uleb128 0x3
 1744 0a8b AC030000 		.4byte	.LASF138
 1745 0a8f 13       		.byte	0x13
 1746 0a90 2D       		.byte	0x2d
 1747 0a91 950A0000 		.4byte	0xa95
 1748 0a95 09       		.uleb128 0x9
 1749 0a96 04       		.byte	0x4
 1750 0a97 9B0A0000 		.4byte	0xa9b
 1751 0a9b 11       		.uleb128 0x11
 1752 0a9c B00A0000 		.4byte	0xab0
 1753 0aa0 0D       		.uleb128 0xd
 1754 0aa1 B00A0000 		.4byte	0xab0
 1755 0aa5 0D       		.uleb128 0xd
 1756 0aa6 25000000 		.4byte	0x25
 1757 0aaa 0D       		.uleb128 0xd
 1758 0aab B60A0000 		.4byte	0xab6
 1759 0aaf 00       		.byte	0
 1760 0ab0 09       		.uleb128 0x9
 1761 0ab1 04       		.byte	0x4
 1762 0ab2 95060000 		.4byte	0x695
 1763 0ab6 09       		.uleb128 0x9
 1764 0ab7 04       		.byte	0x4
 1765 0ab8 BC0A0000 		.4byte	0xabc
 1766 0abc 09       		.uleb128 0x9
 1767 0abd 04       		.byte	0x4
 1768 0abe F2040000 		.4byte	0x4f2
 1769 0ac2 08       		.uleb128 0x8
 1770 0ac3 08       		.byte	0x8
 1771 0ac4 13       		.byte	0x13
 1772 0ac5 32       		.byte	0x32
 1773 0ac6 E30A0000 		.4byte	0xae3
 1774 0aca 06       		.uleb128 0x6
 1775 0acb F4040000 		.4byte	.LASF139
 1776 0acf 13       		.byte	0x13
 1777 0ad0 33       		.byte	0x33
 1778 0ad1 E7040000 		.4byte	0x4e7
 1779 0ad5 00       		.byte	0
 1780 0ad6 06       		.uleb128 0x6
 1781 0ad7 49070000 		.4byte	.LASF140
 1782 0adb 13       		.byte	0x13
 1783 0adc 34       		.byte	0x34
 1784 0add 8A0A0000 		.4byte	0xa8a
 1785 0ae1 04       		.byte	0x4
 1786 0ae2 00       		.byte	0
 1787 0ae3 03       		.uleb128 0x3
 1788 0ae4 20050000 		.4byte	.LASF141
 1789 0ae8 13       		.byte	0x13
 1790 0ae9 35       		.byte	0x35
 1791 0aea C20A0000 		.4byte	0xac2
 1792 0aee 08       		.uleb128 0x8
 1793 0aef 08       		.byte	0x8
ARM GAS  /var/folders/qh/xwg3v3kj02qbxczjpdb8lzfr0000gn/T//ccbil6mW.s 			page 33


 1794 0af0 13       		.byte	0x13
 1795 0af1 3A       		.byte	0x3a
 1796 0af2 0F0B0000 		.4byte	0xb0f
 1797 0af6 06       		.uleb128 0x6
 1798 0af7 FC040000 		.4byte	.LASF142
 1799 0afb 13       		.byte	0x13
 1800 0afc 3B       		.byte	0x3b
 1801 0afd B00A0000 		.4byte	0xab0
 1802 0b01 00       		.byte	0
 1803 0b02 06       		.uleb128 0x6
 1804 0b03 FD050000 		.4byte	.LASF143
 1805 0b07 13       		.byte	0x13
 1806 0b08 3D       		.byte	0x3d
 1807 0b09 0F0B0000 		.4byte	0xb0f
 1808 0b0d 04       		.byte	0x4
 1809 0b0e 00       		.byte	0
 1810 0b0f 09       		.uleb128 0x9
 1811 0b10 04       		.byte	0x4
 1812 0b11 150B0000 		.4byte	0xb15
 1813 0b15 10       		.uleb128 0x10
 1814 0b16 E30A0000 		.4byte	0xae3
 1815 0b1a 03       		.uleb128 0x3
 1816 0b1b 52020000 		.4byte	.LASF144
 1817 0b1f 13       		.byte	0x13
 1818 0b20 3F       		.byte	0x3f
 1819 0b21 EE0A0000 		.4byte	0xaee
 1820 0b25 1B       		.uleb128 0x1b
 1821 0b26 D3060000 		.4byte	.LASF145
 1822 0b2a 01       		.byte	0x1
 1823 0b2b 3E       		.byte	0x3e
 1824 0b2c EB000000 		.4byte	0xeb
 1825 0b30 00000000 		.4byte	.LFB42
 1826 0b34 30000000 		.4byte	.LFE42-.LFB42
 1827 0b38 01       		.uleb128 0x1
 1828 0b39 9C       		.byte	0x9c
 1829 0b3a 720B0000 		.4byte	0xb72
 1830 0b3e 1C       		.uleb128 0x1c
 1831 0b3f 61726700 		.ascii	"arg\000"
 1832 0b43 01       		.byte	0x1
 1833 0b44 3E       		.byte	0x3e
 1834 0b45 7C020000 		.4byte	0x27c
 1835 0b49 00000000 		.4byte	.LLST0
 1836 0b4d 1D       		.uleb128 0x1d
 1837 0b4e 1A000000 		.4byte	.LVL2
 1838 0b52 750E0000 		.4byte	0xe75
 1839 0b56 610B0000 		.4byte	0xb61
 1840 0b5a 1E       		.uleb128 0x1e
 1841 0b5b 01       		.uleb128 0x1
 1842 0b5c 50       		.byte	0x50
 1843 0b5d 02       		.uleb128 0x2
 1844 0b5e 08       		.byte	0x8
 1845 0b5f FA       		.byte	0xfa
 1846 0b60 00       		.byte	0
 1847 0b61 1F       		.uleb128 0x1f
 1848 0b62 22000000 		.4byte	.LVL3
 1849 0b66 750E0000 		.4byte	0xe75
 1850 0b6a 1E       		.uleb128 0x1e
ARM GAS  /var/folders/qh/xwg3v3kj02qbxczjpdb8lzfr0000gn/T//ccbil6mW.s 			page 34


 1851 0b6b 01       		.uleb128 0x1
 1852 0b6c 50       		.byte	0x50
 1853 0b6d 02       		.uleb128 0x2
 1854 0b6e 08       		.byte	0x8
 1855 0b6f FA       		.byte	0xfa
 1856 0b70 00       		.byte	0
 1857 0b71 00       		.byte	0
 1858 0b72 1B       		.uleb128 0x1b
 1859 0b73 CB060000 		.4byte	.LASF146
 1860 0b77 01       		.byte	0x1
 1861 0b78 2C       		.byte	0x2c
 1862 0b79 EB000000 		.4byte	0xeb
 1863 0b7d 00000000 		.4byte	.LFB41
 1864 0b81 34000000 		.4byte	.LFE41-.LFB41
 1865 0b85 01       		.uleb128 0x1
 1866 0b86 9C       		.byte	0x9c
 1867 0b87 C10B0000 		.4byte	0xbc1
 1868 0b8b 1C       		.uleb128 0x1c
 1869 0b8c 61726700 		.ascii	"arg\000"
 1870 0b90 01       		.byte	0x1
 1871 0b91 2C       		.byte	0x2c
 1872 0b92 7C020000 		.4byte	0x27c
 1873 0b96 21000000 		.4byte	.LLST1
 1874 0b9a 1D       		.uleb128 0x1d
 1875 0b9b 1C000000 		.4byte	.LVL6
 1876 0b9f 750E0000 		.4byte	0xe75
 1877 0ba3 AF0B0000 		.4byte	0xbaf
 1878 0ba7 1E       		.uleb128 0x1e
 1879 0ba8 01       		.uleb128 0x1
 1880 0ba9 50       		.byte	0x50
 1881 0baa 03       		.uleb128 0x3
 1882 0bab 0A       		.byte	0xa
 1883 0bac F401     		.2byte	0x1f4
 1884 0bae 00       		.byte	0
 1885 0baf 1F       		.uleb128 0x1f
 1886 0bb0 26000000 		.4byte	.LVL7
 1887 0bb4 750E0000 		.4byte	0xe75
 1888 0bb8 1E       		.uleb128 0x1e
 1889 0bb9 01       		.uleb128 0x1
 1890 0bba 50       		.byte	0x50
 1891 0bbb 03       		.uleb128 0x3
 1892 0bbc 0A       		.byte	0xa
 1893 0bbd F401     		.2byte	0x1f4
 1894 0bbf 00       		.byte	0
 1895 0bc0 00       		.byte	0
 1896 0bc1 20       		.uleb128 0x20
 1897 0bc2 21070000 		.4byte	.LASF169
 1898 0bc6 01       		.byte	0x1
 1899 0bc7 4D       		.byte	0x4d
 1900 0bc8 25000000 		.4byte	0x25
 1901 0bcc 00000000 		.4byte	.LFB43
 1902 0bd0 E8000000 		.4byte	.LFE43-.LFB43
 1903 0bd4 01       		.uleb128 0x1
 1904 0bd5 9C       		.byte	0x9c
 1905 0bd6 AE0D0000 		.4byte	0xdae
 1906 0bda 21       		.uleb128 0x21
 1907 0bdb 736800   		.ascii	"sh\000"
ARM GAS  /var/folders/qh/xwg3v3kj02qbxczjpdb8lzfr0000gn/T//ccbil6mW.s 			page 35


 1908 0bde 01       		.byte	0x1
 1909 0bdf 52       		.byte	0x52
 1910 0be0 40020000 		.4byte	0x240
 1911 0be4 42000000 		.4byte	.LLST2
 1912 0be8 22       		.uleb128 0x22
 1913 0be9 6E040000 		.4byte	.LASF170
 1914 0bed 01       		.byte	0x1
 1915 0bee 6A       		.byte	0x6a
 1916 0bef 40020000 		.4byte	0x240
 1917 0bf3 1D       		.uleb128 0x1d
 1918 0bf4 12000000 		.4byte	.LVL8
 1919 0bf8 870E0000 		.4byte	0xe87
 1920 0bfc 130C0000 		.4byte	0xc13
 1921 0c00 1E       		.uleb128 0x1e
 1922 0c01 01       		.uleb128 0x1
 1923 0c02 52       		.byte	0x52
 1924 0c03 01       		.uleb128 0x1
 1925 0c04 30       		.byte	0x30
 1926 0c05 1E       		.uleb128 0x1e
 1927 0c06 01       		.uleb128 0x1
 1928 0c07 51       		.byte	0x51
 1929 0c08 03       		.uleb128 0x3
 1930 0c09 0A       		.byte	0xa
 1931 0c0a 0002     		.2byte	0x200
 1932 0c0c 1E       		.uleb128 0x1e
 1933 0c0d 01       		.uleb128 0x1
 1934 0c0e 50       		.byte	0x50
 1935 0c0f 02       		.uleb128 0x2
 1936 0c10 74       		.byte	0x74
 1937 0c11 00       		.sleb128 0
 1938 0c12 00       		.byte	0
 1939 0c13 1D       		.uleb128 0x1d
 1940 0c14 1A000000 		.4byte	.LVL9
 1941 0c18 A80E0000 		.4byte	0xea8
 1942 0c1c 300C0000 		.4byte	0xc30
 1943 0c20 1E       		.uleb128 0x1e
 1944 0c21 01       		.uleb128 0x1
 1945 0c22 51       		.byte	0x51
 1946 0c23 05       		.uleb128 0x5
 1947 0c24 03       		.byte	0x3
 1948 0c25 00000000 		.4byte	.LANCHOR1
 1949 0c29 1E       		.uleb128 0x1e
 1950 0c2a 01       		.uleb128 0x1
 1951 0c2b 50       		.byte	0x50
 1952 0c2c 02       		.uleb128 0x2
 1953 0c2d 74       		.byte	0x74
 1954 0c2e 00       		.sleb128 0
 1955 0c2f 00       		.byte	0
 1956 0c30 1D       		.uleb128 0x1d
 1957 0c31 22000000 		.4byte	.LVL10
 1958 0c35 A80E0000 		.4byte	0xea8
 1959 0c39 4D0C0000 		.4byte	0xc4d
 1960 0c3d 1E       		.uleb128 0x1e
 1961 0c3e 01       		.uleb128 0x1
 1962 0c3f 51       		.byte	0x51
 1963 0c40 05       		.uleb128 0x5
 1964 0c41 03       		.byte	0x3
ARM GAS  /var/folders/qh/xwg3v3kj02qbxczjpdb8lzfr0000gn/T//ccbil6mW.s 			page 36


 1965 0c42 00000000 		.4byte	.LANCHOR2
 1966 0c46 1E       		.uleb128 0x1e
 1967 0c47 01       		.uleb128 0x1
 1968 0c48 50       		.byte	0x50
 1969 0c49 02       		.uleb128 0x2
 1970 0c4a 74       		.byte	0x74
 1971 0c4b 00       		.sleb128 0
 1972 0c4c 00       		.byte	0
 1973 0c4d 23       		.uleb128 0x23
 1974 0c4e 26000000 		.4byte	.LVL11
 1975 0c52 BE0E0000 		.4byte	0xebe
 1976 0c56 23       		.uleb128 0x23
 1977 0c57 2A000000 		.4byte	.LVL12
 1978 0c5b C50E0000 		.4byte	0xec5
 1979 0c5f 1D       		.uleb128 0x1d
 1980 0c60 32000000 		.4byte	.LVL13
 1981 0c64 CC0E0000 		.4byte	0xecc
 1982 0c68 720C0000 		.4byte	0xc72
 1983 0c6c 1E       		.uleb128 0x1e
 1984 0c6d 01       		.uleb128 0x1
 1985 0c6e 51       		.byte	0x51
 1986 0c6f 01       		.uleb128 0x1
 1987 0c70 30       		.byte	0x30
 1988 0c71 00       		.byte	0
 1989 0c72 1D       		.uleb128 0x1d
 1990 0c73 40000000 		.4byte	.LVL14
 1991 0c77 F40E0000 		.4byte	0xef4
 1992 0c7b 940C0000 		.4byte	0xc94
 1993 0c7f 1E       		.uleb128 0x1e
 1994 0c80 01       		.uleb128 0x1
 1995 0c81 52       		.byte	0x52
 1996 0c82 02       		.uleb128 0x2
 1997 0c83 08       		.byte	0x8
 1998 0c84 82       		.byte	0x82
 1999 0c85 1E       		.uleb128 0x1e
 2000 0c86 01       		.uleb128 0x1
 2001 0c87 51       		.byte	0x51
 2002 0c88 03       		.uleb128 0x3
 2003 0c89 0A       		.byte	0xa
 2004 0c8a 0002     		.2byte	0x200
 2005 0c8c 1E       		.uleb128 0x1e
 2006 0c8d 01       		.uleb128 0x1
 2007 0c8e 50       		.byte	0x50
 2008 0c8f 03       		.uleb128 0x3
 2009 0c90 42       		.byte	0x42
 2010 0c91 4A       		.byte	0x4a
 2011 0c92 24       		.byte	0x24
 2012 0c93 00       		.byte	0
 2013 0c94 1D       		.uleb128 0x1d
 2014 0c95 4E000000 		.4byte	.LVL15
 2015 0c99 F40E0000 		.4byte	0xef4
 2016 0c9d B60C0000 		.4byte	0xcb6
 2017 0ca1 1E       		.uleb128 0x1e
 2018 0ca2 01       		.uleb128 0x1
 2019 0ca3 52       		.byte	0x52
 2020 0ca4 02       		.uleb128 0x2
 2021 0ca5 08       		.byte	0x8
ARM GAS  /var/folders/qh/xwg3v3kj02qbxczjpdb8lzfr0000gn/T//ccbil6mW.s 			page 37


 2022 0ca6 82       		.byte	0x82
 2023 0ca7 1E       		.uleb128 0x1e
 2024 0ca8 01       		.uleb128 0x1
 2025 0ca9 51       		.byte	0x51
 2026 0caa 03       		.uleb128 0x3
 2027 0cab 0A       		.byte	0xa
 2028 0cac 0004     		.2byte	0x400
 2029 0cae 1E       		.uleb128 0x1e
 2030 0caf 01       		.uleb128 0x1
 2031 0cb0 50       		.byte	0x50
 2032 0cb1 03       		.uleb128 0x3
 2033 0cb2 42       		.byte	0x42
 2034 0cb3 4A       		.byte	0x4a
 2035 0cb4 24       		.byte	0x24
 2036 0cb5 00       		.byte	0
 2037 0cb6 1D       		.uleb128 0x1d
 2038 0cb7 58000000 		.4byte	.LVL16
 2039 0cbb F40E0000 		.4byte	0xef4
 2040 0cbf D70C0000 		.4byte	0xcd7
 2041 0cc3 1E       		.uleb128 0x1e
 2042 0cc4 01       		.uleb128 0x1
 2043 0cc5 52       		.byte	0x52
 2044 0cc6 01       		.uleb128 0x1
 2045 0cc7 33       		.byte	0x33
 2046 0cc8 1E       		.uleb128 0x1e
 2047 0cc9 01       		.uleb128 0x1
 2048 0cca 51       		.byte	0x51
 2049 0ccb 01       		.uleb128 0x1
 2050 0ccc 33       		.byte	0x33
 2051 0ccd 1E       		.uleb128 0x1e
 2052 0cce 01       		.uleb128 0x1
 2053 0ccf 50       		.byte	0x50
 2054 0cd0 05       		.uleb128 0x5
 2055 0cd1 0C       		.byte	0xc
 2056 0cd2 00080048 		.4byte	0x48000800
 2057 0cd6 00       		.byte	0
 2058 0cd7 1D       		.uleb128 0x1d
 2059 0cd8 64000000 		.4byte	.LVL17
 2060 0cdc 100F0000 		.4byte	0xf10
 2061 0ce0 F60C0000 		.4byte	0xcf6
 2062 0ce4 1E       		.uleb128 0x1e
 2063 0ce5 01       		.uleb128 0x1
 2064 0ce6 53       		.byte	0x53
 2065 0ce7 01       		.uleb128 0x1
 2066 0ce8 30       		.byte	0x30
 2067 0ce9 1E       		.uleb128 0x1e
 2068 0cea 01       		.uleb128 0x1
 2069 0ceb 51       		.byte	0x51
 2070 0cec 02       		.uleb128 0x2
 2071 0ced 08       		.byte	0x8
 2072 0cee 40       		.byte	0x40
 2073 0cef 1E       		.uleb128 0x1e
 2074 0cf0 01       		.uleb128 0x1
 2075 0cf1 50       		.byte	0x50
 2076 0cf2 02       		.uleb128 0x2
 2077 0cf3 74       		.byte	0x74
 2078 0cf4 00       		.sleb128 0
ARM GAS  /var/folders/qh/xwg3v3kj02qbxczjpdb8lzfr0000gn/T//ccbil6mW.s 			page 38


 2079 0cf5 00       		.byte	0
 2080 0cf6 1D       		.uleb128 0x1d
 2081 0cf7 76000000 		.4byte	.LVL18
 2082 0cfb 340F0000 		.4byte	0xf34
 2083 0cff 2A0D0000 		.4byte	0xd2a
 2084 0d03 1E       		.uleb128 0x1e
 2085 0d04 01       		.uleb128 0x1
 2086 0d05 53       		.byte	0x53
 2087 0d06 05       		.uleb128 0x5
 2088 0d07 03       		.byte	0x3
 2089 0d08 00000000 		.4byte	Thread1
 2090 0d0c 1E       		.uleb128 0x1e
 2091 0d0d 01       		.uleb128 0x1
 2092 0d0e 52       		.byte	0x52
 2093 0d0f 02       		.uleb128 0x2
 2094 0d10 08       		.byte	0x8
 2095 0d11 40       		.byte	0x40
 2096 0d12 1E       		.uleb128 0x1e
 2097 0d13 01       		.uleb128 0x1
 2098 0d14 51       		.byte	0x51
 2099 0d15 03       		.uleb128 0x3
 2100 0d16 0A       		.byte	0xa
 2101 0d17 3001     		.2byte	0x130
 2102 0d19 1E       		.uleb128 0x1e
 2103 0d1a 01       		.uleb128 0x1
 2104 0d1b 50       		.byte	0x50
 2105 0d1c 05       		.uleb128 0x5
 2106 0d1d 03       		.byte	0x3
 2107 0d1e 00000000 		.4byte	.LANCHOR3
 2108 0d22 1E       		.uleb128 0x1e
 2109 0d23 02       		.uleb128 0x2
 2110 0d24 7D       		.byte	0x7d
 2111 0d25 00       		.sleb128 0
 2112 0d26 02       		.uleb128 0x2
 2113 0d27 74       		.byte	0x74
 2114 0d28 00       		.sleb128 0
 2115 0d29 00       		.byte	0
 2116 0d2a 1D       		.uleb128 0x1d
 2117 0d2b 86000000 		.4byte	.LVL19
 2118 0d2f 340F0000 		.4byte	0xf34
 2119 0d33 5E0D0000 		.4byte	0xd5e
 2120 0d37 1E       		.uleb128 0x1e
 2121 0d38 01       		.uleb128 0x1
 2122 0d39 53       		.byte	0x53
 2123 0d3a 05       		.uleb128 0x5
 2124 0d3b 03       		.byte	0x3
 2125 0d3c 00000000 		.4byte	Thread2
 2126 0d40 1E       		.uleb128 0x1e
 2127 0d41 01       		.uleb128 0x1
 2128 0d42 52       		.byte	0x52
 2129 0d43 02       		.uleb128 0x2
 2130 0d44 08       		.byte	0x8
 2131 0d45 40       		.byte	0x40
 2132 0d46 1E       		.uleb128 0x1e
 2133 0d47 01       		.uleb128 0x1
 2134 0d48 51       		.byte	0x51
 2135 0d49 03       		.uleb128 0x3
ARM GAS  /var/folders/qh/xwg3v3kj02qbxczjpdb8lzfr0000gn/T//ccbil6mW.s 			page 39


 2136 0d4a 0A       		.byte	0xa
 2137 0d4b 3001     		.2byte	0x130
 2138 0d4d 1E       		.uleb128 0x1e
 2139 0d4e 01       		.uleb128 0x1
 2140 0d4f 50       		.byte	0x50
 2141 0d50 05       		.uleb128 0x5
 2142 0d51 03       		.byte	0x3
 2143 0d52 00000000 		.4byte	.LANCHOR4
 2144 0d56 1E       		.uleb128 0x1e
 2145 0d57 02       		.uleb128 0x2
 2146 0d58 7D       		.byte	0x7d
 2147 0d59 00       		.sleb128 0
 2148 0d5a 02       		.uleb128 0x2
 2149 0d5b 74       		.byte	0x74
 2150 0d5c 00       		.sleb128 0
 2151 0d5d 00       		.byte	0
 2152 0d5e 23       		.uleb128 0x23
 2153 0d5f 8A000000 		.4byte	.LVL20
 2154 0d63 5E0F0000 		.4byte	0xf5e
 2155 0d67 1D       		.uleb128 0x1d
 2156 0d68 96000000 		.4byte	.LVL22
 2157 0d6c 750E0000 		.4byte	0xe75
 2158 0d70 7C0D0000 		.4byte	0xd7c
 2159 0d74 1E       		.uleb128 0x1e
 2160 0d75 01       		.uleb128 0x1
 2161 0d76 50       		.byte	0x50
 2162 0d77 03       		.uleb128 0x3
 2163 0d78 0A       		.byte	0xa
 2164 0d79 E803     		.2byte	0x3e8
 2165 0d7b 00       		.byte	0
 2166 0d7c 1D       		.uleb128 0x1d
 2167 0d7d A6000000 		.4byte	.LVL23
 2168 0d81 650F0000 		.4byte	0xf65
 2169 0d85 900D0000 		.4byte	0xd90
 2170 0d89 1E       		.uleb128 0x1e
 2171 0d8a 01       		.uleb128 0x1
 2172 0d8b 50       		.byte	0x50
 2173 0d8c 02       		.uleb128 0x2
 2174 0d8d 74       		.byte	0x74
 2175 0d8e 00       		.sleb128 0
 2176 0d8f 00       		.byte	0
 2177 0d90 1F       		.uleb128 0x1f
 2178 0d91 B6000000 		.4byte	.LVL25
 2179 0d95 760F0000 		.4byte	0xf76
 2180 0d99 1E       		.uleb128 0x1e
 2181 0d9a 01       		.uleb128 0x1
 2182 0d9b 52       		.byte	0x52
 2183 0d9c 02       		.uleb128 0x2
 2184 0d9d 08       		.byte	0x8
 2185 0d9e 40       		.byte	0x40
 2186 0d9f 1E       		.uleb128 0x1e
 2187 0da0 01       		.uleb128 0x1
 2188 0da1 51       		.byte	0x51
 2189 0da2 03       		.uleb128 0x3
 2190 0da3 0A       		.byte	0xa
 2191 0da4 B004     		.2byte	0x4b0
 2192 0da6 1E       		.uleb128 0x1e
ARM GAS  /var/folders/qh/xwg3v3kj02qbxczjpdb8lzfr0000gn/T//ccbil6mW.s 			page 40


 2193 0da7 01       		.uleb128 0x1
 2194 0da8 50       		.byte	0x50
 2195 0da9 02       		.uleb128 0x2
 2196 0daa 75       		.byte	0x75
 2197 0dab 00       		.sleb128 0
 2198 0dac 00       		.byte	0
 2199 0dad 00       		.byte	0
 2200 0dae 19       		.uleb128 0x19
 2201 0daf E30A0000 		.4byte	0xae3
 2202 0db3 BE0D0000 		.4byte	0xdbe
 2203 0db7 1A       		.uleb128 0x1a
 2204 0db8 1F030000 		.4byte	0x31f
 2205 0dbc 0A       		.byte	0xa
 2206 0dbd 00       		.byte	0
 2207 0dbe 24       		.uleb128 0x24
 2208 0dbf B7030000 		.4byte	.LASF147
 2209 0dc3 14       		.byte	0x14
 2210 0dc4 3C       		.byte	0x3c
 2211 0dc5 CF0D0000 		.4byte	0xdcf
 2212 0dc9 05       		.uleb128 0x5
 2213 0dca 03       		.byte	0x3
 2214 0dcb 00000000 		.4byte	shCmds
 2215 0dcf 10       		.uleb128 0x10
 2216 0dd0 AE0D0000 		.4byte	0xdae
 2217 0dd4 24       		.uleb128 0x24
 2218 0dd5 C6000000 		.4byte	.LASF148
 2219 0dd9 14       		.byte	0x14
 2220 0dda 4A       		.byte	0x4a
 2221 0ddb E50D0000 		.4byte	0xde5
 2222 0ddf 05       		.uleb128 0x5
 2223 0de0 03       		.byte	0x3
 2224 0de1 00000000 		.4byte	shCfg
 2225 0de5 10       		.uleb128 0x10
 2226 0de6 1A0B0000 		.4byte	0xb1a
 2227 0dea 24       		.uleb128 0x24
 2228 0deb 69060000 		.4byte	.LASF149
 2229 0def 01       		.byte	0x1
 2230 0df0 2B       		.byte	0x2b
 2231 0df1 7A0A0000 		.4byte	0xa7a
 2232 0df5 05       		.uleb128 0x5
 2233 0df6 03       		.byte	0x3
 2234 0df7 00000000 		.4byte	waThread1
 2235 0dfb 24       		.uleb128 0x24
 2236 0dfc 73060000 		.4byte	.LASF150
 2237 0e00 01       		.byte	0x1
 2238 0e01 3D       		.byte	0x3d
 2239 0e02 7A0A0000 		.4byte	0xa7a
 2240 0e06 05       		.uleb128 0x5
 2241 0e07 03       		.byte	0x3
 2242 0e08 00000000 		.4byte	waThread2
 2243 0e0c 25       		.uleb128 0x25
 2244 0e0d B7050000 		.4byte	.LASF151
 2245 0e11 08       		.byte	0x8
 2246 0e12 68       		.byte	0x68
 2247 0e13 7C030000 		.4byte	0x37c
 2248 0e17 26       		.uleb128 0x26
 2249 0e18 53443100 		.ascii	"SD1\000"
ARM GAS  /var/folders/qh/xwg3v3kj02qbxczjpdb8lzfr0000gn/T//ccbil6mW.s 			page 41


 2250 0e1c 12       		.byte	0x12
 2251 0e1d 1101     		.2byte	0x111
 2252 0e1f 26090000 		.4byte	0x926
 2253 0e23 27       		.uleb128 0x27
 2254 0e24 6D7000   		.ascii	"mp\000"
 2255 0e27 01       		.byte	0x1
 2256 0e28 21       		.byte	0x21
 2257 0e29 A7040000 		.4byte	0x4a7
 2258 0e2d 05       		.uleb128 0x5
 2259 0e2e 03       		.byte	0x3
 2260 0e2f 00000000 		.4byte	mp
 2261 0e33 19       		.uleb128 0x19
 2262 0e34 7E020000 		.4byte	0x27e
 2263 0e38 430E0000 		.4byte	0xe43
 2264 0e3c 1A       		.uleb128 0x1a
 2265 0e3d 1F030000 		.4byte	0x31f
 2266 0e41 55       		.byte	0x55
 2267 0e42 00       		.byte	0
 2268 0e43 28       		.uleb128 0x28
 2269 0e44 32020000 		.4byte	.LASF152
 2270 0e48 01       		.byte	0x1
 2271 0e49 22       		.byte	0x22
 2272 0e4a 330E0000 		.4byte	0xe33
 2273 0e4e 05       		.uleb128 0x5
 2274 0e4f 03       		.byte	0x3
 2275 0e50 00000000 		.4byte	thd1
 2276 0e54 28       		.uleb128 0x28
 2277 0e55 37020000 		.4byte	.LASF153
 2278 0e59 01       		.byte	0x1
 2279 0e5a 23       		.byte	0x23
 2280 0e5b 330E0000 		.4byte	0xe33
 2281 0e5f 05       		.uleb128 0x5
 2282 0e60 03       		.byte	0x3
 2283 0e61 00000000 		.4byte	thd2
 2284 0e65 27       		.uleb128 0x27
 2285 0e66 736800   		.ascii	"sh\000"
 2286 0e69 01       		.byte	0x1
 2287 0e6a 25       		.byte	0x25
 2288 0e6b 40020000 		.4byte	0x240
 2289 0e6f 05       		.uleb128 0x5
 2290 0e70 03       		.byte	0x3
 2291 0e71 00000000 		.4byte	sh
 2292 0e75 29       		.uleb128 0x29
 2293 0e76 9C060000 		.4byte	.LASF154
 2294 0e7a 06       		.byte	0x6
 2295 0e7b 6E01     		.2byte	0x16e
 2296 0e7d 870E0000 		.4byte	0xe87
 2297 0e81 0D       		.uleb128 0xd
 2298 0e82 0C010000 		.4byte	0x10c
 2299 0e86 00       		.byte	0
 2300 0e87 2A       		.uleb128 0x2a
 2301 0e88 5E060000 		.4byte	.LASF155
 2302 0e8c 0C       		.byte	0xc
 2303 0e8d 78       		.byte	0x78
 2304 0e8e A20E0000 		.4byte	0xea2
 2305 0e92 0D       		.uleb128 0xd
 2306 0e93 A20E0000 		.4byte	0xea2
ARM GAS  /var/folders/qh/xwg3v3kj02qbxczjpdb8lzfr0000gn/T//ccbil6mW.s 			page 42


 2307 0e97 0D       		.uleb128 0xd
 2308 0e98 2C000000 		.4byte	0x2c
 2309 0e9c 0D       		.uleb128 0xd
 2310 0e9d 3B040000 		.4byte	0x43b
 2311 0ea1 00       		.byte	0
 2312 0ea2 09       		.uleb128 0x9
 2313 0ea3 04       		.byte	0x4
 2314 0ea4 A7040000 		.4byte	0x4a7
 2315 0ea8 2A       		.uleb128 0x2a
 2316 0ea9 45030000 		.4byte	.LASF156
 2317 0ead 0C       		.byte	0xc
 2318 0eae 7D       		.byte	0x7d
 2319 0eaf BE0E0000 		.4byte	0xebe
 2320 0eb3 0D       		.uleb128 0xd
 2321 0eb4 A20E0000 		.4byte	0xea2
 2322 0eb8 0D       		.uleb128 0xd
 2323 0eb9 7C020000 		.4byte	0x27c
 2324 0ebd 00       		.byte	0
 2325 0ebe 2B       		.uleb128 0x2b
 2326 0ebf A4030000 		.4byte	.LASF157
 2327 0ec3 15       		.byte	0x15
 2328 0ec4 CA       		.byte	0xca
 2329 0ec5 2B       		.uleb128 0x2b
 2330 0ec6 55030000 		.4byte	.LASF158
 2331 0eca 16       		.byte	0x16
 2332 0ecb EF       		.byte	0xef
 2333 0ecc 29       		.uleb128 0x29
 2334 0ecd 44020000 		.4byte	.LASF159
 2335 0ed1 11       		.byte	0x11
 2336 0ed2 3001     		.2byte	0x130
 2337 0ed4 E30E0000 		.4byte	0xee3
 2338 0ed8 0D       		.uleb128 0xd
 2339 0ed9 E30E0000 		.4byte	0xee3
 2340 0edd 0D       		.uleb128 0xd
 2341 0ede E90E0000 		.4byte	0xee9
 2342 0ee2 00       		.byte	0
 2343 0ee3 09       		.uleb128 0x9
 2344 0ee4 04       		.byte	0x4
 2345 0ee5 26090000 		.4byte	0x926
 2346 0ee9 09       		.uleb128 0x9
 2347 0eea 04       		.byte	0x4
 2348 0eeb EF0E0000 		.4byte	0xeef
 2349 0eef 10       		.uleb128 0x10
 2350 0ef0 E1090000 		.4byte	0x9e1
 2351 0ef4 29       		.uleb128 0x29
 2352 0ef5 70000000 		.4byte	.LASF160
 2353 0ef9 10       		.byte	0x10
 2354 0efa C201     		.2byte	0x1c2
 2355 0efc 100F0000 		.4byte	0xf10
 2356 0f00 0D       		.uleb128 0xd
 2357 0f01 EF080000 		.4byte	0x8ef
 2358 0f05 0D       		.uleb128 0xd
 2359 0f06 D9080000 		.4byte	0x8d9
 2360 0f0a 0D       		.uleb128 0xd
 2361 0f0b E4080000 		.4byte	0x8e4
 2362 0f0f 00       		.byte	0
 2363 0f10 2C       		.uleb128 0x2c
ARM GAS  /var/folders/qh/xwg3v3kj02qbxczjpdb8lzfr0000gn/T//ccbil6mW.s 			page 43


 2364 0f11 7A030000 		.4byte	.LASF161
 2365 0f15 17       		.byte	0x17
 2366 0f16 39       		.byte	0x39
 2367 0f17 40020000 		.4byte	0x240
 2368 0f1b 340F0000 		.4byte	0xf34
 2369 0f1f 0D       		.uleb128 0xd
 2370 0f20 A20E0000 		.4byte	0xea2
 2371 0f24 0D       		.uleb128 0xd
 2372 0f25 E0000000 		.4byte	0xe0
 2373 0f29 0D       		.uleb128 0xd
 2374 0f2a FF040000 		.4byte	0x4ff
 2375 0f2e 0D       		.uleb128 0xd
 2376 0f2f 7C020000 		.4byte	0x27c
 2377 0f33 00       		.byte	0
 2378 0f34 2D       		.uleb128 0x2d
 2379 0f35 96040000 		.4byte	.LASF162
 2380 0f39 06       		.byte	0x6
 2381 0f3a 6901     		.2byte	0x169
 2382 0f3c 40020000 		.4byte	0x240
 2383 0f40 5E0F0000 		.4byte	0xf5e
 2384 0f44 0D       		.uleb128 0xd
 2385 0f45 7C020000 		.4byte	0x27c
 2386 0f49 0D       		.uleb128 0xd
 2387 0f4a 2C000000 		.4byte	0x2c
 2388 0f4e 0D       		.uleb128 0xd
 2389 0f4f E0000000 		.4byte	0xe0
 2390 0f53 0D       		.uleb128 0xd
 2391 0f54 FF040000 		.4byte	0x4ff
 2392 0f58 0D       		.uleb128 0xd
 2393 0f59 7C020000 		.4byte	0x27c
 2394 0f5d 00       		.byte	0
 2395 0f5e 2B       		.uleb128 0x2b
 2396 0f5f BE040000 		.4byte	.LASF163
 2397 0f63 13       		.byte	0x13
 2398 0f64 48       		.byte	0x48
 2399 0f65 2A       		.uleb128 0x2a
 2400 0f66 61040000 		.4byte	.LASF164
 2401 0f6a 17       		.byte	0x17
 2402 0f6b 33       		.byte	0x33
 2403 0f6c 760F0000 		.4byte	0xf76
 2404 0f70 0D       		.uleb128 0xd
 2405 0f71 40020000 		.4byte	0x240
 2406 0f75 00       		.byte	0
 2407 0f76 2C       		.uleb128 0x2c
 2408 0f77 CF010000 		.4byte	.LASF165
 2409 0f7b 13       		.byte	0x13
 2410 0f7c 4A       		.byte	0x4a
 2411 0f7d 40020000 		.4byte	0x240
 2412 0f81 950F0000 		.4byte	0xf95
 2413 0f85 0D       		.uleb128 0xd
 2414 0f86 950F0000 		.4byte	0xf95
 2415 0f8a 0D       		.uleb128 0xd
 2416 0f8b 2C000000 		.4byte	0x2c
 2417 0f8f 0D       		.uleb128 0xd
 2418 0f90 E0000000 		.4byte	0xe0
 2419 0f94 00       		.byte	0
 2420 0f95 09       		.uleb128 0x9
ARM GAS  /var/folders/qh/xwg3v3kj02qbxczjpdb8lzfr0000gn/T//ccbil6mW.s 			page 44


 2421 0f96 04       		.byte	0x4
 2422 0f97 E50D0000 		.4byte	0xde5
 2423 0f9b 00       		.byte	0
 2424              		.section	.debug_abbrev,"",%progbits
 2425              	.Ldebug_abbrev0:
 2426 0000 01       		.uleb128 0x1
 2427 0001 11       		.uleb128 0x11
 2428 0002 01       		.byte	0x1
 2429 0003 25       		.uleb128 0x25
 2430 0004 0E       		.uleb128 0xe
 2431 0005 13       		.uleb128 0x13
 2432 0006 0B       		.uleb128 0xb
 2433 0007 03       		.uleb128 0x3
 2434 0008 0E       		.uleb128 0xe
 2435 0009 1B       		.uleb128 0x1b
 2436 000a 0E       		.uleb128 0xe
 2437 000b 55       		.uleb128 0x55
 2438 000c 17       		.uleb128 0x17
 2439 000d 11       		.uleb128 0x11
 2440 000e 01       		.uleb128 0x1
 2441 000f 10       		.uleb128 0x10
 2442 0010 17       		.uleb128 0x17
 2443 0011 00       		.byte	0
 2444 0012 00       		.byte	0
 2445 0013 02       		.uleb128 0x2
 2446 0014 24       		.uleb128 0x24
 2447 0015 00       		.byte	0
 2448 0016 0B       		.uleb128 0xb
 2449 0017 0B       		.uleb128 0xb
 2450 0018 3E       		.uleb128 0x3e
 2451 0019 0B       		.uleb128 0xb
 2452 001a 03       		.uleb128 0x3
 2453 001b 08       		.uleb128 0x8
 2454 001c 00       		.byte	0
 2455 001d 00       		.byte	0
 2456 001e 03       		.uleb128 0x3
 2457 001f 16       		.uleb128 0x16
 2458 0020 00       		.byte	0
 2459 0021 03       		.uleb128 0x3
 2460 0022 0E       		.uleb128 0xe
 2461 0023 3A       		.uleb128 0x3a
 2462 0024 0B       		.uleb128 0xb
 2463 0025 3B       		.uleb128 0x3b
 2464 0026 0B       		.uleb128 0xb
 2465 0027 49       		.uleb128 0x49
 2466 0028 13       		.uleb128 0x13
 2467 0029 00       		.byte	0
 2468 002a 00       		.byte	0
 2469 002b 04       		.uleb128 0x4
 2470 002c 24       		.uleb128 0x24
 2471 002d 00       		.byte	0
 2472 002e 0B       		.uleb128 0xb
 2473 002f 0B       		.uleb128 0xb
 2474 0030 3E       		.uleb128 0x3e
 2475 0031 0B       		.uleb128 0xb
 2476 0032 03       		.uleb128 0x3
 2477 0033 0E       		.uleb128 0xe
ARM GAS  /var/folders/qh/xwg3v3kj02qbxczjpdb8lzfr0000gn/T//ccbil6mW.s 			page 45


 2478 0034 00       		.byte	0
 2479 0035 00       		.byte	0
 2480 0036 05       		.uleb128 0x5
 2481 0037 13       		.uleb128 0x13
 2482 0038 01       		.byte	0x1
 2483 0039 03       		.uleb128 0x3
 2484 003a 0E       		.uleb128 0xe
 2485 003b 0B       		.uleb128 0xb
 2486 003c 0B       		.uleb128 0xb
 2487 003d 3A       		.uleb128 0x3a
 2488 003e 0B       		.uleb128 0xb
 2489 003f 3B       		.uleb128 0x3b
 2490 0040 0B       		.uleb128 0xb
 2491 0041 01       		.uleb128 0x1
 2492 0042 13       		.uleb128 0x13
 2493 0043 00       		.byte	0
 2494 0044 00       		.byte	0
 2495 0045 06       		.uleb128 0x6
 2496 0046 0D       		.uleb128 0xd
 2497 0047 00       		.byte	0
 2498 0048 03       		.uleb128 0x3
 2499 0049 0E       		.uleb128 0xe
 2500 004a 3A       		.uleb128 0x3a
 2501 004b 0B       		.uleb128 0xb
 2502 004c 3B       		.uleb128 0x3b
 2503 004d 0B       		.uleb128 0xb
 2504 004e 49       		.uleb128 0x49
 2505 004f 13       		.uleb128 0x13
 2506 0050 38       		.uleb128 0x38
 2507 0051 0B       		.uleb128 0xb
 2508 0052 00       		.byte	0
 2509 0053 00       		.byte	0
 2510 0054 07       		.uleb128 0x7
 2511 0055 0D       		.uleb128 0xd
 2512 0056 00       		.byte	0
 2513 0057 03       		.uleb128 0x3
 2514 0058 08       		.uleb128 0x8
 2515 0059 3A       		.uleb128 0x3a
 2516 005a 0B       		.uleb128 0xb
 2517 005b 3B       		.uleb128 0x3b
 2518 005c 0B       		.uleb128 0xb
 2519 005d 49       		.uleb128 0x49
 2520 005e 13       		.uleb128 0x13
 2521 005f 38       		.uleb128 0x38
 2522 0060 0B       		.uleb128 0xb
 2523 0061 00       		.byte	0
 2524 0062 00       		.byte	0
 2525 0063 08       		.uleb128 0x8
 2526 0064 13       		.uleb128 0x13
 2527 0065 01       		.byte	0x1
 2528 0066 0B       		.uleb128 0xb
 2529 0067 0B       		.uleb128 0xb
 2530 0068 3A       		.uleb128 0x3a
 2531 0069 0B       		.uleb128 0xb
 2532 006a 3B       		.uleb128 0x3b
 2533 006b 0B       		.uleb128 0xb
 2534 006c 01       		.uleb128 0x1
ARM GAS  /var/folders/qh/xwg3v3kj02qbxczjpdb8lzfr0000gn/T//ccbil6mW.s 			page 46


 2535 006d 13       		.uleb128 0x13
 2536 006e 00       		.byte	0
 2537 006f 00       		.byte	0
 2538 0070 09       		.uleb128 0x9
 2539 0071 0F       		.uleb128 0xf
 2540 0072 00       		.byte	0
 2541 0073 0B       		.uleb128 0xb
 2542 0074 0B       		.uleb128 0xb
 2543 0075 49       		.uleb128 0x49
 2544 0076 13       		.uleb128 0x13
 2545 0077 00       		.byte	0
 2546 0078 00       		.byte	0
 2547 0079 0A       		.uleb128 0xa
 2548 007a 0F       		.uleb128 0xf
 2549 007b 00       		.byte	0
 2550 007c 0B       		.uleb128 0xb
 2551 007d 0B       		.uleb128 0xb
 2552 007e 00       		.byte	0
 2553 007f 00       		.byte	0
 2554 0080 0B       		.uleb128 0xb
 2555 0081 35       		.uleb128 0x35
 2556 0082 00       		.byte	0
 2557 0083 49       		.uleb128 0x49
 2558 0084 13       		.uleb128 0x13
 2559 0085 00       		.byte	0
 2560 0086 00       		.byte	0
 2561 0087 0C       		.uleb128 0xc
 2562 0088 15       		.uleb128 0x15
 2563 0089 01       		.byte	0x1
 2564 008a 27       		.uleb128 0x27
 2565 008b 19       		.uleb128 0x19
 2566 008c 49       		.uleb128 0x49
 2567 008d 13       		.uleb128 0x13
 2568 008e 01       		.uleb128 0x1
 2569 008f 13       		.uleb128 0x13
 2570 0090 00       		.byte	0
 2571 0091 00       		.byte	0
 2572 0092 0D       		.uleb128 0xd
 2573 0093 05       		.uleb128 0x5
 2574 0094 00       		.byte	0
 2575 0095 49       		.uleb128 0x49
 2576 0096 13       		.uleb128 0x13
 2577 0097 00       		.byte	0
 2578 0098 00       		.byte	0
 2579 0099 0E       		.uleb128 0xe
 2580 009a 17       		.uleb128 0x17
 2581 009b 01       		.byte	0x1
 2582 009c 0B       		.uleb128 0xb
 2583 009d 0B       		.uleb128 0xb
 2584 009e 3A       		.uleb128 0x3a
 2585 009f 0B       		.uleb128 0xb
 2586 00a0 3B       		.uleb128 0x3b
 2587 00a1 0B       		.uleb128 0xb
 2588 00a2 01       		.uleb128 0x1
 2589 00a3 13       		.uleb128 0x13
 2590 00a4 00       		.byte	0
 2591 00a5 00       		.byte	0
ARM GAS  /var/folders/qh/xwg3v3kj02qbxczjpdb8lzfr0000gn/T//ccbil6mW.s 			page 47


 2592 00a6 0F       		.uleb128 0xf
 2593 00a7 0D       		.uleb128 0xd
 2594 00a8 00       		.byte	0
 2595 00a9 03       		.uleb128 0x3
 2596 00aa 0E       		.uleb128 0xe
 2597 00ab 3A       		.uleb128 0x3a
 2598 00ac 0B       		.uleb128 0xb
 2599 00ad 3B       		.uleb128 0x3b
 2600 00ae 0B       		.uleb128 0xb
 2601 00af 49       		.uleb128 0x49
 2602 00b0 13       		.uleb128 0x13
 2603 00b1 00       		.byte	0
 2604 00b2 00       		.byte	0
 2605 00b3 10       		.uleb128 0x10
 2606 00b4 26       		.uleb128 0x26
 2607 00b5 00       		.byte	0
 2608 00b6 49       		.uleb128 0x49
 2609 00b7 13       		.uleb128 0x13
 2610 00b8 00       		.byte	0
 2611 00b9 00       		.byte	0
 2612 00ba 11       		.uleb128 0x11
 2613 00bb 15       		.uleb128 0x15
 2614 00bc 01       		.byte	0x1
 2615 00bd 27       		.uleb128 0x27
 2616 00be 19       		.uleb128 0x19
 2617 00bf 01       		.uleb128 0x1
 2618 00c0 13       		.uleb128 0x13
 2619 00c1 00       		.byte	0
 2620 00c2 00       		.byte	0
 2621 00c3 12       		.uleb128 0x12
 2622 00c4 13       		.uleb128 0x13
 2623 00c5 01       		.byte	0x1
 2624 00c6 0B       		.uleb128 0xb
 2625 00c7 0B       		.uleb128 0xb
 2626 00c8 3A       		.uleb128 0x3a
 2627 00c9 0B       		.uleb128 0xb
 2628 00ca 3B       		.uleb128 0x3b
 2629 00cb 05       		.uleb128 0x5
 2630 00cc 01       		.uleb128 0x1
 2631 00cd 13       		.uleb128 0x13
 2632 00ce 00       		.byte	0
 2633 00cf 00       		.byte	0
 2634 00d0 13       		.uleb128 0x13
 2635 00d1 0D       		.uleb128 0xd
 2636 00d2 00       		.byte	0
 2637 00d3 03       		.uleb128 0x3
 2638 00d4 08       		.uleb128 0x8
 2639 00d5 3A       		.uleb128 0x3a
 2640 00d6 0B       		.uleb128 0xb
 2641 00d7 3B       		.uleb128 0x3b
 2642 00d8 05       		.uleb128 0x5
 2643 00d9 49       		.uleb128 0x49
 2644 00da 13       		.uleb128 0x13
 2645 00db 38       		.uleb128 0x38
 2646 00dc 0B       		.uleb128 0xb
 2647 00dd 00       		.byte	0
 2648 00de 00       		.byte	0
ARM GAS  /var/folders/qh/xwg3v3kj02qbxczjpdb8lzfr0000gn/T//ccbil6mW.s 			page 48


 2649 00df 14       		.uleb128 0x14
 2650 00e0 0D       		.uleb128 0xd
 2651 00e1 00       		.byte	0
 2652 00e2 03       		.uleb128 0x3
 2653 00e3 0E       		.uleb128 0xe
 2654 00e4 3A       		.uleb128 0x3a
 2655 00e5 0B       		.uleb128 0xb
 2656 00e6 3B       		.uleb128 0x3b
 2657 00e7 05       		.uleb128 0x5
 2658 00e8 49       		.uleb128 0x49
 2659 00e9 13       		.uleb128 0x13
 2660 00ea 38       		.uleb128 0x38
 2661 00eb 0B       		.uleb128 0xb
 2662 00ec 00       		.byte	0
 2663 00ed 00       		.byte	0
 2664 00ee 15       		.uleb128 0x15
 2665 00ef 16       		.uleb128 0x16
 2666 00f0 00       		.byte	0
 2667 00f1 03       		.uleb128 0x3
 2668 00f2 0E       		.uleb128 0xe
 2669 00f3 3A       		.uleb128 0x3a
 2670 00f4 0B       		.uleb128 0xb
 2671 00f5 3B       		.uleb128 0x3b
 2672 00f6 05       		.uleb128 0x5
 2673 00f7 49       		.uleb128 0x49
 2674 00f8 13       		.uleb128 0x13
 2675 00f9 00       		.byte	0
 2676 00fa 00       		.byte	0
 2677 00fb 16       		.uleb128 0x16
 2678 00fc 0D       		.uleb128 0xd
 2679 00fd 00       		.byte	0
 2680 00fe 03       		.uleb128 0x3
 2681 00ff 08       		.uleb128 0x8
 2682 0100 3A       		.uleb128 0x3a
 2683 0101 0B       		.uleb128 0xb
 2684 0102 3B       		.uleb128 0x3b
 2685 0103 0B       		.uleb128 0xb
 2686 0104 49       		.uleb128 0x49
 2687 0105 13       		.uleb128 0x13
 2688 0106 00       		.byte	0
 2689 0107 00       		.byte	0
 2690 0108 17       		.uleb128 0x17
 2691 0109 04       		.uleb128 0x4
 2692 010a 01       		.byte	0x1
 2693 010b 0B       		.uleb128 0xb
 2694 010c 0B       		.uleb128 0xb
 2695 010d 3A       		.uleb128 0x3a
 2696 010e 0B       		.uleb128 0xb
 2697 010f 3B       		.uleb128 0x3b
 2698 0110 0B       		.uleb128 0xb
 2699 0111 01       		.uleb128 0x1
 2700 0112 13       		.uleb128 0x13
 2701 0113 00       		.byte	0
 2702 0114 00       		.byte	0
 2703 0115 18       		.uleb128 0x18
 2704 0116 28       		.uleb128 0x28
 2705 0117 00       		.byte	0
ARM GAS  /var/folders/qh/xwg3v3kj02qbxczjpdb8lzfr0000gn/T//ccbil6mW.s 			page 49


 2706 0118 03       		.uleb128 0x3
 2707 0119 0E       		.uleb128 0xe
 2708 011a 1C       		.uleb128 0x1c
 2709 011b 0D       		.uleb128 0xd
 2710 011c 00       		.byte	0
 2711 011d 00       		.byte	0
 2712 011e 19       		.uleb128 0x19
 2713 011f 01       		.uleb128 0x1
 2714 0120 01       		.byte	0x1
 2715 0121 49       		.uleb128 0x49
 2716 0122 13       		.uleb128 0x13
 2717 0123 01       		.uleb128 0x1
 2718 0124 13       		.uleb128 0x13
 2719 0125 00       		.byte	0
 2720 0126 00       		.byte	0
 2721 0127 1A       		.uleb128 0x1a
 2722 0128 21       		.uleb128 0x21
 2723 0129 00       		.byte	0
 2724 012a 49       		.uleb128 0x49
 2725 012b 13       		.uleb128 0x13
 2726 012c 2F       		.uleb128 0x2f
 2727 012d 0B       		.uleb128 0xb
 2728 012e 00       		.byte	0
 2729 012f 00       		.byte	0
 2730 0130 1B       		.uleb128 0x1b
 2731 0131 2E       		.uleb128 0x2e
 2732 0132 01       		.byte	0x1
 2733 0133 03       		.uleb128 0x3
 2734 0134 0E       		.uleb128 0xe
 2735 0135 3A       		.uleb128 0x3a
 2736 0136 0B       		.uleb128 0xb
 2737 0137 3B       		.uleb128 0x3b
 2738 0138 0B       		.uleb128 0xb
 2739 0139 27       		.uleb128 0x27
 2740 013a 19       		.uleb128 0x19
 2741 013b 49       		.uleb128 0x49
 2742 013c 13       		.uleb128 0x13
 2743 013d 11       		.uleb128 0x11
 2744 013e 01       		.uleb128 0x1
 2745 013f 12       		.uleb128 0x12
 2746 0140 06       		.uleb128 0x6
 2747 0141 40       		.uleb128 0x40
 2748 0142 18       		.uleb128 0x18
 2749 0143 9742     		.uleb128 0x2117
 2750 0145 19       		.uleb128 0x19
 2751 0146 01       		.uleb128 0x1
 2752 0147 13       		.uleb128 0x13
 2753 0148 00       		.byte	0
 2754 0149 00       		.byte	0
 2755 014a 1C       		.uleb128 0x1c
 2756 014b 05       		.uleb128 0x5
 2757 014c 00       		.byte	0
 2758 014d 03       		.uleb128 0x3
 2759 014e 08       		.uleb128 0x8
 2760 014f 3A       		.uleb128 0x3a
 2761 0150 0B       		.uleb128 0xb
 2762 0151 3B       		.uleb128 0x3b
ARM GAS  /var/folders/qh/xwg3v3kj02qbxczjpdb8lzfr0000gn/T//ccbil6mW.s 			page 50


 2763 0152 0B       		.uleb128 0xb
 2764 0153 49       		.uleb128 0x49
 2765 0154 13       		.uleb128 0x13
 2766 0155 02       		.uleb128 0x2
 2767 0156 17       		.uleb128 0x17
 2768 0157 00       		.byte	0
 2769 0158 00       		.byte	0
 2770 0159 1D       		.uleb128 0x1d
 2771 015a 898201   		.uleb128 0x4109
 2772 015d 01       		.byte	0x1
 2773 015e 11       		.uleb128 0x11
 2774 015f 01       		.uleb128 0x1
 2775 0160 31       		.uleb128 0x31
 2776 0161 13       		.uleb128 0x13
 2777 0162 01       		.uleb128 0x1
 2778 0163 13       		.uleb128 0x13
 2779 0164 00       		.byte	0
 2780 0165 00       		.byte	0
 2781 0166 1E       		.uleb128 0x1e
 2782 0167 8A8201   		.uleb128 0x410a
 2783 016a 00       		.byte	0
 2784 016b 02       		.uleb128 0x2
 2785 016c 18       		.uleb128 0x18
 2786 016d 9142     		.uleb128 0x2111
 2787 016f 18       		.uleb128 0x18
 2788 0170 00       		.byte	0
 2789 0171 00       		.byte	0
 2790 0172 1F       		.uleb128 0x1f
 2791 0173 898201   		.uleb128 0x4109
 2792 0176 01       		.byte	0x1
 2793 0177 11       		.uleb128 0x11
 2794 0178 01       		.uleb128 0x1
 2795 0179 31       		.uleb128 0x31
 2796 017a 13       		.uleb128 0x13
 2797 017b 00       		.byte	0
 2798 017c 00       		.byte	0
 2799 017d 20       		.uleb128 0x20
 2800 017e 2E       		.uleb128 0x2e
 2801 017f 01       		.byte	0x1
 2802 0180 3F       		.uleb128 0x3f
 2803 0181 19       		.uleb128 0x19
 2804 0182 03       		.uleb128 0x3
 2805 0183 0E       		.uleb128 0xe
 2806 0184 3A       		.uleb128 0x3a
 2807 0185 0B       		.uleb128 0xb
 2808 0186 3B       		.uleb128 0x3b
 2809 0187 0B       		.uleb128 0xb
 2810 0188 27       		.uleb128 0x27
 2811 0189 19       		.uleb128 0x19
 2812 018a 49       		.uleb128 0x49
 2813 018b 13       		.uleb128 0x13
 2814 018c 11       		.uleb128 0x11
 2815 018d 01       		.uleb128 0x1
 2816 018e 12       		.uleb128 0x12
 2817 018f 06       		.uleb128 0x6
 2818 0190 40       		.uleb128 0x40
 2819 0191 18       		.uleb128 0x18
ARM GAS  /var/folders/qh/xwg3v3kj02qbxczjpdb8lzfr0000gn/T//ccbil6mW.s 			page 51


 2820 0192 9742     		.uleb128 0x2117
 2821 0194 19       		.uleb128 0x19
 2822 0195 01       		.uleb128 0x1
 2823 0196 13       		.uleb128 0x13
 2824 0197 00       		.byte	0
 2825 0198 00       		.byte	0
 2826 0199 21       		.uleb128 0x21
 2827 019a 34       		.uleb128 0x34
 2828 019b 00       		.byte	0
 2829 019c 03       		.uleb128 0x3
 2830 019d 08       		.uleb128 0x8
 2831 019e 3A       		.uleb128 0x3a
 2832 019f 0B       		.uleb128 0xb
 2833 01a0 3B       		.uleb128 0x3b
 2834 01a1 0B       		.uleb128 0xb
 2835 01a2 49       		.uleb128 0x49
 2836 01a3 13       		.uleb128 0x13
 2837 01a4 02       		.uleb128 0x2
 2838 01a5 17       		.uleb128 0x17
 2839 01a6 00       		.byte	0
 2840 01a7 00       		.byte	0
 2841 01a8 22       		.uleb128 0x22
 2842 01a9 34       		.uleb128 0x34
 2843 01aa 00       		.byte	0
 2844 01ab 03       		.uleb128 0x3
 2845 01ac 0E       		.uleb128 0xe
 2846 01ad 3A       		.uleb128 0x3a
 2847 01ae 0B       		.uleb128 0xb
 2848 01af 3B       		.uleb128 0x3b
 2849 01b0 0B       		.uleb128 0xb
 2850 01b1 49       		.uleb128 0x49
 2851 01b2 13       		.uleb128 0x13
 2852 01b3 00       		.byte	0
 2853 01b4 00       		.byte	0
 2854 01b5 23       		.uleb128 0x23
 2855 01b6 898201   		.uleb128 0x4109
 2856 01b9 00       		.byte	0
 2857 01ba 11       		.uleb128 0x11
 2858 01bb 01       		.uleb128 0x1
 2859 01bc 31       		.uleb128 0x31
 2860 01bd 13       		.uleb128 0x13
 2861 01be 00       		.byte	0
 2862 01bf 00       		.byte	0
 2863 01c0 24       		.uleb128 0x24
 2864 01c1 34       		.uleb128 0x34
 2865 01c2 00       		.byte	0
 2866 01c3 03       		.uleb128 0x3
 2867 01c4 0E       		.uleb128 0xe
 2868 01c5 3A       		.uleb128 0x3a
 2869 01c6 0B       		.uleb128 0xb
 2870 01c7 3B       		.uleb128 0x3b
 2871 01c8 0B       		.uleb128 0xb
 2872 01c9 49       		.uleb128 0x49
 2873 01ca 13       		.uleb128 0x13
 2874 01cb 02       		.uleb128 0x2
 2875 01cc 18       		.uleb128 0x18
 2876 01cd 00       		.byte	0
ARM GAS  /var/folders/qh/xwg3v3kj02qbxczjpdb8lzfr0000gn/T//ccbil6mW.s 			page 52


 2877 01ce 00       		.byte	0
 2878 01cf 25       		.uleb128 0x25
 2879 01d0 34       		.uleb128 0x34
 2880 01d1 00       		.byte	0
 2881 01d2 03       		.uleb128 0x3
 2882 01d3 0E       		.uleb128 0xe
 2883 01d4 3A       		.uleb128 0x3a
 2884 01d5 0B       		.uleb128 0xb
 2885 01d6 3B       		.uleb128 0x3b
 2886 01d7 0B       		.uleb128 0xb
 2887 01d8 49       		.uleb128 0x49
 2888 01d9 13       		.uleb128 0x13
 2889 01da 3F       		.uleb128 0x3f
 2890 01db 19       		.uleb128 0x19
 2891 01dc 3C       		.uleb128 0x3c
 2892 01dd 19       		.uleb128 0x19
 2893 01de 00       		.byte	0
 2894 01df 00       		.byte	0
 2895 01e0 26       		.uleb128 0x26
 2896 01e1 34       		.uleb128 0x34
 2897 01e2 00       		.byte	0
 2898 01e3 03       		.uleb128 0x3
 2899 01e4 08       		.uleb128 0x8
 2900 01e5 3A       		.uleb128 0x3a
 2901 01e6 0B       		.uleb128 0xb
 2902 01e7 3B       		.uleb128 0x3b
 2903 01e8 05       		.uleb128 0x5
 2904 01e9 49       		.uleb128 0x49
 2905 01ea 13       		.uleb128 0x13
 2906 01eb 3F       		.uleb128 0x3f
 2907 01ec 19       		.uleb128 0x19
 2908 01ed 3C       		.uleb128 0x3c
 2909 01ee 19       		.uleb128 0x19
 2910 01ef 00       		.byte	0
 2911 01f0 00       		.byte	0
 2912 01f1 27       		.uleb128 0x27
 2913 01f2 34       		.uleb128 0x34
 2914 01f3 00       		.byte	0
 2915 01f4 03       		.uleb128 0x3
 2916 01f5 08       		.uleb128 0x8
 2917 01f6 3A       		.uleb128 0x3a
 2918 01f7 0B       		.uleb128 0xb
 2919 01f8 3B       		.uleb128 0x3b
 2920 01f9 0B       		.uleb128 0xb
 2921 01fa 49       		.uleb128 0x49
 2922 01fb 13       		.uleb128 0x13
 2923 01fc 3F       		.uleb128 0x3f
 2924 01fd 19       		.uleb128 0x19
 2925 01fe 02       		.uleb128 0x2
 2926 01ff 18       		.uleb128 0x18
 2927 0200 00       		.byte	0
 2928 0201 00       		.byte	0
 2929 0202 28       		.uleb128 0x28
 2930 0203 34       		.uleb128 0x34
 2931 0204 00       		.byte	0
 2932 0205 03       		.uleb128 0x3
 2933 0206 0E       		.uleb128 0xe
ARM GAS  /var/folders/qh/xwg3v3kj02qbxczjpdb8lzfr0000gn/T//ccbil6mW.s 			page 53


 2934 0207 3A       		.uleb128 0x3a
 2935 0208 0B       		.uleb128 0xb
 2936 0209 3B       		.uleb128 0x3b
 2937 020a 0B       		.uleb128 0xb
 2938 020b 49       		.uleb128 0x49
 2939 020c 13       		.uleb128 0x13
 2940 020d 3F       		.uleb128 0x3f
 2941 020e 19       		.uleb128 0x19
 2942 020f 02       		.uleb128 0x2
 2943 0210 18       		.uleb128 0x18
 2944 0211 00       		.byte	0
 2945 0212 00       		.byte	0
 2946 0213 29       		.uleb128 0x29
 2947 0214 2E       		.uleb128 0x2e
 2948 0215 01       		.byte	0x1
 2949 0216 3F       		.uleb128 0x3f
 2950 0217 19       		.uleb128 0x19
 2951 0218 03       		.uleb128 0x3
 2952 0219 0E       		.uleb128 0xe
 2953 021a 3A       		.uleb128 0x3a
 2954 021b 0B       		.uleb128 0xb
 2955 021c 3B       		.uleb128 0x3b
 2956 021d 05       		.uleb128 0x5
 2957 021e 27       		.uleb128 0x27
 2958 021f 19       		.uleb128 0x19
 2959 0220 3C       		.uleb128 0x3c
 2960 0221 19       		.uleb128 0x19
 2961 0222 01       		.uleb128 0x1
 2962 0223 13       		.uleb128 0x13
 2963 0224 00       		.byte	0
 2964 0225 00       		.byte	0
 2965 0226 2A       		.uleb128 0x2a
 2966 0227 2E       		.uleb128 0x2e
 2967 0228 01       		.byte	0x1
 2968 0229 3F       		.uleb128 0x3f
 2969 022a 19       		.uleb128 0x19
 2970 022b 03       		.uleb128 0x3
 2971 022c 0E       		.uleb128 0xe
 2972 022d 3A       		.uleb128 0x3a
 2973 022e 0B       		.uleb128 0xb
 2974 022f 3B       		.uleb128 0x3b
 2975 0230 0B       		.uleb128 0xb
 2976 0231 27       		.uleb128 0x27
 2977 0232 19       		.uleb128 0x19
 2978 0233 3C       		.uleb128 0x3c
 2979 0234 19       		.uleb128 0x19
 2980 0235 01       		.uleb128 0x1
 2981 0236 13       		.uleb128 0x13
 2982 0237 00       		.byte	0
 2983 0238 00       		.byte	0
 2984 0239 2B       		.uleb128 0x2b
 2985 023a 2E       		.uleb128 0x2e
 2986 023b 00       		.byte	0
 2987 023c 3F       		.uleb128 0x3f
 2988 023d 19       		.uleb128 0x19
 2989 023e 03       		.uleb128 0x3
 2990 023f 0E       		.uleb128 0xe
ARM GAS  /var/folders/qh/xwg3v3kj02qbxczjpdb8lzfr0000gn/T//ccbil6mW.s 			page 54


 2991 0240 3A       		.uleb128 0x3a
 2992 0241 0B       		.uleb128 0xb
 2993 0242 3B       		.uleb128 0x3b
 2994 0243 0B       		.uleb128 0xb
 2995 0244 27       		.uleb128 0x27
 2996 0245 19       		.uleb128 0x19
 2997 0246 3C       		.uleb128 0x3c
 2998 0247 19       		.uleb128 0x19
 2999 0248 00       		.byte	0
 3000 0249 00       		.byte	0
 3001 024a 2C       		.uleb128 0x2c
 3002 024b 2E       		.uleb128 0x2e
 3003 024c 01       		.byte	0x1
 3004 024d 3F       		.uleb128 0x3f
 3005 024e 19       		.uleb128 0x19
 3006 024f 03       		.uleb128 0x3
 3007 0250 0E       		.uleb128 0xe
 3008 0251 3A       		.uleb128 0x3a
 3009 0252 0B       		.uleb128 0xb
 3010 0253 3B       		.uleb128 0x3b
 3011 0254 0B       		.uleb128 0xb
 3012 0255 27       		.uleb128 0x27
 3013 0256 19       		.uleb128 0x19
 3014 0257 49       		.uleb128 0x49
 3015 0258 13       		.uleb128 0x13
 3016 0259 3C       		.uleb128 0x3c
 3017 025a 19       		.uleb128 0x19
 3018 025b 01       		.uleb128 0x1
 3019 025c 13       		.uleb128 0x13
 3020 025d 00       		.byte	0
 3021 025e 00       		.byte	0
 3022 025f 2D       		.uleb128 0x2d
 3023 0260 2E       		.uleb128 0x2e
 3024 0261 01       		.byte	0x1
 3025 0262 3F       		.uleb128 0x3f
 3026 0263 19       		.uleb128 0x19
 3027 0264 03       		.uleb128 0x3
 3028 0265 0E       		.uleb128 0xe
 3029 0266 3A       		.uleb128 0x3a
 3030 0267 0B       		.uleb128 0xb
 3031 0268 3B       		.uleb128 0x3b
 3032 0269 05       		.uleb128 0x5
 3033 026a 27       		.uleb128 0x27
 3034 026b 19       		.uleb128 0x19
 3035 026c 49       		.uleb128 0x49
 3036 026d 13       		.uleb128 0x13
 3037 026e 3C       		.uleb128 0x3c
 3038 026f 19       		.uleb128 0x19
 3039 0270 01       		.uleb128 0x1
 3040 0271 13       		.uleb128 0x13
 3041 0272 00       		.byte	0
 3042 0273 00       		.byte	0
 3043 0274 00       		.byte	0
 3044              		.section	.debug_loc,"",%progbits
 3045              	.Ldebug_loc0:
 3046              	.LLST0:
 3047 0000 00000000 		.4byte	.LVL0
ARM GAS  /var/folders/qh/xwg3v3kj02qbxczjpdb8lzfr0000gn/T//ccbil6mW.s 			page 55


 3048 0004 12000000 		.4byte	.LVL1
 3049 0008 0100     		.2byte	0x1
 3050 000a 50       		.byte	0x50
 3051 000b 12000000 		.4byte	.LVL1
 3052 000f 30000000 		.4byte	.LFE42
 3053 0013 0400     		.2byte	0x4
 3054 0015 F3       		.byte	0xf3
 3055 0016 01       		.uleb128 0x1
 3056 0017 50       		.byte	0x50
 3057 0018 9F       		.byte	0x9f
 3058 0019 00000000 		.4byte	0
 3059 001d 00000000 		.4byte	0
 3060              	.LLST1:
 3061 0021 00000000 		.4byte	.LVL4
 3062 0025 12000000 		.4byte	.LVL5
 3063 0029 0100     		.2byte	0x1
 3064 002b 50       		.byte	0x50
 3065 002c 12000000 		.4byte	.LVL5
 3066 0030 34000000 		.4byte	.LFE41
 3067 0034 0400     		.2byte	0x4
 3068 0036 F3       		.byte	0xf3
 3069 0037 01       		.uleb128 0x1
 3070 0038 50       		.byte	0x50
 3071 0039 9F       		.byte	0x9f
 3072 003a 00000000 		.4byte	0
 3073 003e 00000000 		.4byte	0
 3074              	.LLST2:
 3075 0042 22000000 		.4byte	.LVL10
 3076 0046 8E000000 		.4byte	.LVL21
 3077 004a 0200     		.2byte	0x2
 3078 004c 30       		.byte	0x30
 3079 004d 9F       		.byte	0x9f
 3080 004e 8E000000 		.4byte	.LVL21
 3081 0052 A6000000 		.4byte	.LVL23
 3082 0056 0100     		.2byte	0x1
 3083 0058 54       		.byte	0x54
 3084 0059 A6000000 		.4byte	.LVL23
 3085 005d B8000000 		.4byte	.LVL26
 3086 0061 0200     		.2byte	0x2
 3087 0063 30       		.byte	0x30
 3088 0064 9F       		.byte	0x9f
 3089 0065 B8000000 		.4byte	.LVL26
 3090 0069 E8000000 		.4byte	.LFE43
 3091 006d 0100     		.2byte	0x1
 3092 006f 50       		.byte	0x50
 3093 0070 00000000 		.4byte	0
 3094 0074 00000000 		.4byte	0
 3095              		.section	.debug_aranges,"",%progbits
 3096 0000 2C000000 		.4byte	0x2c
 3097 0004 0200     		.2byte	0x2
 3098 0006 00000000 		.4byte	.Ldebug_info0
 3099 000a 04       		.byte	0x4
 3100 000b 00       		.byte	0
 3101 000c 0000     		.2byte	0
 3102 000e 0000     		.2byte	0
 3103 0010 00000000 		.4byte	.LFB42
 3104 0014 30000000 		.4byte	.LFE42-.LFB42
ARM GAS  /var/folders/qh/xwg3v3kj02qbxczjpdb8lzfr0000gn/T//ccbil6mW.s 			page 56


 3105 0018 00000000 		.4byte	.LFB41
 3106 001c 34000000 		.4byte	.LFE41-.LFB41
 3107 0020 00000000 		.4byte	.LFB43
 3108 0024 E8000000 		.4byte	.LFE43-.LFB43
 3109 0028 00000000 		.4byte	0
 3110 002c 00000000 		.4byte	0
 3111              		.section	.debug_ranges,"",%progbits
 3112              	.Ldebug_ranges0:
 3113 0000 00000000 		.4byte	.LFB42
 3114 0004 30000000 		.4byte	.LFE42
 3115 0008 00000000 		.4byte	.LFB41
 3116 000c 34000000 		.4byte	.LFE41
 3117 0010 00000000 		.4byte	.LFB43
 3118 0014 E8000000 		.4byte	.LFE43
 3119 0018 00000000 		.4byte	0
 3120 001c 00000000 		.4byte	0
 3121              		.section	.debug_line,"",%progbits
 3122              	.Ldebug_line0:
 3123 0000 29030000 		.section	.debug_str,"MS",%progbits,1
 3123      02009A02 
 3123      00000201 
 3123      FB0E0D00 
 3123      01010101 
 3124              	.LASF46:
 3125 0000 54687265 		.ascii	"ThreadsList\000"
 3125      6164734C 
 3125      69737400 
 3126              	.LASF38:
 3127 000c 705F7761 		.ascii	"p_waiting\000"
 3127      6974696E 
 3127      6700
 3128              	.LASF124:
 3129 0016 53657269 		.ascii	"SerialDriver\000"
 3129      616C4472 
 3129      69766572 
 3129      00
 3130              	.LASF167:
 3131 0023 6D61696E 		.ascii	"main.c\000"
 3131      2E6300
 3132              	.LASF37:
 3133 002a 705F7469 		.ascii	"p_time\000"
 3133      6D6500
 3134              	.LASF112:
 3135 0031 42535252 		.ascii	"BSRR\000"
 3135      00
 3136              	.LASF47:
 3137 0036 72656761 		.ascii	"regarm_t\000"
 3137      726D5F74 
 3137      00
 3138              	.LASF28:
 3139 003f 705F7072 		.ascii	"p_prio\000"
 3139      696F00
 3140              	.LASF24:
 3141 0046 73797374 		.ascii	"systime_t\000"
 3141      696D655F 
 3141      7400
 3142              	.LASF61:
ARM GAS  /var/folders/qh/xwg3v3kj02qbxczjpdb8lzfr0000gn/T//ccbil6mW.s 			page 57


 3143 0050 6D5F6F77 		.ascii	"m_owner\000"
 3143      6E657200 
 3144              	.LASF39:
 3145 0058 705F6D73 		.ascii	"p_msgqueue\000"
 3145      67717565 
 3145      756500
 3146              	.LASF0:
 3147 0063 756E7369 		.ascii	"unsigned int\000"
 3147      676E6564 
 3147      20696E74 
 3147      00
 3148              	.LASF160:
 3149 0070 5F70616C 		.ascii	"_pal_lld_setgroupmode\000"
 3149      5F6C6C64 
 3149      5F736574 
 3149      67726F75 
 3149      706D6F64 
 3150              	.LASF89:
 3151 0086 715F7264 		.ascii	"q_rdptr\000"
 3151      70747200 
 3152              	.LASF92:
 3153 008e 716E6F74 		.ascii	"qnotify_t\000"
 3153      6966795F 
 3153      7400
 3154              	.LASF66:
 3155 0098 656C5F6D 		.ascii	"el_mask\000"
 3155      61736B00 
 3156              	.LASF95:
 3157 00a0 42617365 		.ascii	"BaseSequentialStreamVMT\000"
 3157      53657175 
 3157      656E7469 
 3157      616C5374 
 3157      7265616D 
 3158              	.LASF79:
 3159 00b8 77746F62 		.ascii	"wtobjp\000"
 3159      6A7000
 3160              	.LASF91:
 3161 00bf 715F6C69 		.ascii	"q_link\000"
 3161      6E6B00
 3162              	.LASF148:
 3163 00c6 73684366 		.ascii	"shCfg\000"
 3163      6700
 3164              	.LASF166:
 3165 00cc 474E5520 		.ascii	"GNU C 4.8.3 20131129 (release) [ARM/embedded-4_8-br"
 3165      4320342E 
 3165      382E3320 
 3165      32303133 
 3165      31313239 
 3166 00ff 616E6368 		.ascii	"anch revision 205641] -mcpu=cortex-m0 -mno-thumb-in"
 3166      20726576 
 3166      6973696F 
 3166      6E203230 
 3166      35363431 
 3167 0132 74657277 		.ascii	"terwork -mthumb -ggdb -O2 -fomit-frame-pointer -fal"
 3167      6F726B20 
 3167      2D6D7468 
 3167      756D6220 
ARM GAS  /var/folders/qh/xwg3v3kj02qbxczjpdb8lzfr0000gn/T//ccbil6mW.s 			page 58


 3167      2D676764 
 3168 0165 69676E2D 		.ascii	"ign-functions=16 -ffunction-sections -fdata-section"
 3168      66756E63 
 3168      74696F6E 
 3168      733D3136 
 3168      202D6666 
 3169 0198 73202D66 		.ascii	"s -fno-common\000"
 3169      6E6F2D63 
 3169      6F6D6D6F 
 3169      6E00
 3170              	.LASF80:
 3171 01a6 65776D61 		.ascii	"ewmask\000"
 3171      736B00
 3172              	.LASF131:
 3173 01ad 73706565 		.ascii	"speed\000"
 3173      6400
 3174              	.LASF136:
 3175 01b3 77726974 		.ascii	"writet\000"
 3175      657400
 3176              	.LASF100:
 3177 01ba 47545052 		.ascii	"GTPR\000"
 3177      00
 3178              	.LASF127:
 3179 01bf 69717565 		.ascii	"iqueue\000"
 3179      756500
 3180              	.LASF10:
 3181 01c6 75696E74 		.ascii	"uint32_t\000"
 3181      33325F74 
 3181      00
 3182              	.LASF165:
 3183 01cf 7368656C 		.ascii	"shellCreate\000"
 3183      6C437265 
 3183      61746500 
 3184              	.LASF22:
 3185 01db 6576656E 		.ascii	"eventmask_t\000"
 3185      746D6173 
 3185      6B5F7400 
 3186              	.LASF53:
 3187 01e7 725F7072 		.ascii	"r_prio\000"
 3187      696F00
 3188              	.LASF132:
 3189 01ee 53657269 		.ascii	"SerialConfig\000"
 3189      616C436F 
 3189      6E666967 
 3189      00
 3190              	.LASF123:
 3191 01fb 73647374 		.ascii	"sdstate_t\000"
 3191      6174655F 
 3191      7400
 3192              	.LASF125:
 3193 0205 6576656E 		.ascii	"event\000"
 3193      7400
 3194              	.LASF20:
 3195 020b 74707269 		.ascii	"tprio_t\000"
 3195      6F5F7400 
 3196              	.LASF82:
 3197 0213 7466756E 		.ascii	"tfunc_t\000"
ARM GAS  /var/folders/qh/xwg3v3kj02qbxczjpdb8lzfr0000gn/T//ccbil6mW.s 			page 59


 3197      635F7400 
 3198              	.LASF14:
 3199 021b 6C6F6E67 		.ascii	"long long unsigned int\000"
 3199      206C6F6E 
 3199      6720756E 
 3199      7369676E 
 3199      65642069 
 3200              	.LASF152:
 3201 0232 74686431 		.ascii	"thd1\000"
 3201      00
 3202              	.LASF153:
 3203 0237 74686432 		.ascii	"thd2\000"
 3203      00
 3204              	.LASF72:
 3205 023c 70685F6E 		.ascii	"ph_next\000"
 3205      65787400 
 3206              	.LASF159:
 3207 0244 73645374 		.ascii	"sdStart\000"
 3207      61727400 
 3208              	.LASF108:
 3209 024c 4D4F4445 		.ascii	"MODER\000"
 3209      5200
 3210              	.LASF144:
 3211 0252 5368656C 		.ascii	"ShellConfig\000"
 3211      6C436F6E 
 3211      66696700 
 3212              	.LASF115:
 3213 025e 41465248 		.ascii	"AFRH\000"
 3213      00
 3214              	.LASF114:
 3215 0263 4146524C 		.ascii	"AFRL\000"
 3215      00
 3216              	.LASF30:
 3217 0268 705F6E65 		.ascii	"p_newer\000"
 3217      77657200 
 3218              	.LASF107:
 3219 0270 636C6561 		.ascii	"clear\000"
 3219      7200
 3220              	.LASF84:
 3221 0276 715F7761 		.ascii	"q_waiting\000"
 3221      6974696E 
 3221      6700
 3222              	.LASF134:
 3223 0280 70757474 		.ascii	"putt\000"
 3223      00
 3224              	.LASF168:
 3225 0285 2F557365 		.ascii	"/Users/John/Development/embedded/ChibiOS-RT/BluC/ST"
 3225      72732F4A 
 3225      6F686E2F 
 3225      44657665 
 3225      6C6F706D 
 3226 02b8 4D333246 		.ascii	"M32F051\000"
 3226      30353100 
 3227              	.LASF2:
 3228 02c0 73697A65 		.ascii	"size_t\000"
 3228      5F7400
 3229              	.LASF77:
ARM GAS  /var/folders/qh/xwg3v3kj02qbxczjpdb8lzfr0000gn/T//ccbil6mW.s 			page 60


 3230 02c7 7264796D 		.ascii	"rdymsg\000"
 3230      736700
 3231              	.LASF15:
 3232 02ce 5F426F6F 		.ascii	"_Bool\000"
 3232      6C00
 3233              	.LASF121:
 3234 02d4 53445F53 		.ascii	"SD_STOP\000"
 3234      544F5000 
 3235              	.LASF106:
 3236 02dc 55534152 		.ascii	"USART_TypeDef\000"
 3236      545F5479 
 3236      70654465 
 3236      6600
 3237              	.LASF59:
 3238 02ea 4D757465 		.ascii	"Mutex\000"
 3238      7800
 3239              	.LASF94:
 3240 02f0 4F757470 		.ascii	"OutputQueue\000"
 3240      75745175 
 3240      65756500 
 3241              	.LASF90:
 3242 02fc 715F6E6F 		.ascii	"q_notify\000"
 3242      74696679 
 3242      00
 3243              	.LASF130:
 3244 0305 636C6F63 		.ascii	"clock\000"
 3244      6B00
 3245              	.LASF111:
 3246 030b 50555044 		.ascii	"PUPDR\000"
 3246      5200
 3247              	.LASF32:
 3248 0311 705F6E61 		.ascii	"p_name\000"
 3248      6D6500
 3249              	.LASF98:
 3250 0318 42617365 		.ascii	"BaseSequentialStream\000"
 3250      53657175 
 3250      656E7469 
 3250      616C5374 
 3250      7265616D 
 3251              	.LASF93:
 3252 032d 496E7075 		.ascii	"InputQueue\000"
 3252      74517565 
 3252      756500
 3253              	.LASF45:
 3254 0338 54687265 		.ascii	"ThreadsQueue\000"
 3254      61647351 
 3254      75657565 
 3254      00
 3255              	.LASF156:
 3256 0345 6368506F 		.ascii	"chPoolFree\000"
 3256      6F6C4672 
 3256      656500
 3257              	.LASF81:
 3258 0350 63686172 		.ascii	"char\000"
 3258      00
 3259              	.LASF158:
 3260 0355 63685379 		.ascii	"chSysInit\000"
ARM GAS  /var/folders/qh/xwg3v3kj02qbxczjpdb8lzfr0000gn/T//ccbil6mW.s 			page 61


 3260      73496E69 
 3260      7400
 3261              	.LASF76:
 3262 035f 4D656D6F 		.ascii	"MemoryPool\000"
 3262      7279506F 
 3262      6F6C00
 3263              	.LASF55:
 3264 036a 725F6E65 		.ascii	"r_newer\000"
 3264      77657200 
 3265              	.LASF88:
 3266 0372 715F7772 		.ascii	"q_wrptr\000"
 3266      70747200 
 3267              	.LASF161:
 3268 037a 63685468 		.ascii	"chThdCreateFromMemoryPool\000"
 3268      64437265 
 3268      61746546 
 3268      726F6D4D 
 3268      656D6F72 
 3269              	.LASF25:
 3270 0394 54687265 		.ascii	"Thread\000"
 3270      616400
 3271              	.LASF17:
 3272 039b 74737461 		.ascii	"tstate_t\000"
 3272      74655F74 
 3272      00
 3273              	.LASF157:
 3274 03a4 68616C49 		.ascii	"halInit\000"
 3274      6E697400 
 3275              	.LASF138:
 3276 03ac 7368656C 		.ascii	"shellcmd_t\000"
 3276      6C636D64 
 3276      5F7400
 3277              	.LASF147:
 3278 03b7 7368436D 		.ascii	"shCmds\000"
 3278      647300
 3279              	.LASF31:
 3280 03be 705F6F6C 		.ascii	"p_older\000"
 3280      64657200 
 3281              	.LASF33:
 3282 03c6 705F7374 		.ascii	"p_state\000"
 3282      61746500 
 3283              	.LASF3:
 3284 03ce 75696E74 		.ascii	"uint8_t\000"
 3284      385F7400 
 3285              	.LASF23:
 3286 03d6 666C6167 		.ascii	"flagsmask_t\000"
 3286      736D6173 
 3286      6B5F7400 
 3287              	.LASF102:
 3288 03e2 52544F52 		.ascii	"RTOR\000"
 3288      00
 3289              	.LASF73:
 3290 03e7 6D705F6E 		.ascii	"mp_next\000"
 3290      65787400 
 3291              	.LASF44:
 3292 03ef 705F6D70 		.ascii	"p_mpool\000"
 3292      6F6F6C00 
ARM GAS  /var/folders/qh/xwg3v3kj02qbxczjpdb8lzfr0000gn/T//ccbil6mW.s 			page 62


 3293              	.LASF42:
 3294 03f7 705F6D74 		.ascii	"p_mtxlist\000"
 3294      786C6973 
 3294      7400
 3295              	.LASF129:
 3296 0401 75736172 		.ascii	"usart\000"
 3296      7400
 3297              	.LASF12:
 3298 0407 6C6F6E67 		.ascii	"long long int\000"
 3298      206C6F6E 
 3298      6720696E 
 3298      7400
 3299              	.LASF96:
 3300 0415 77726974 		.ascii	"write\000"
 3300      6500
 3301              	.LASF86:
 3302 041b 715F6275 		.ascii	"q_buffer\000"
 3302      66666572 
 3302      00
 3303              	.LASF52:
 3304 0424 725F7175 		.ascii	"r_queue\000"
 3304      65756500 
 3305              	.LASF21:
 3306 042c 6D73675F 		.ascii	"msg_t\000"
 3306      7400
 3307              	.LASF50:
 3308 0432 636F6E74 		.ascii	"context\000"
 3308      65787400 
 3309              	.LASF34:
 3310 043a 705F666C 		.ascii	"p_flags\000"
 3310      61677300 
 3311              	.LASF117:
 3312 0442 696F706F 		.ascii	"ioportmask_t\000"
 3312      72746D61 
 3312      736B5F74 
 3312      00
 3313              	.LASF19:
 3314 044f 74736C69 		.ascii	"tslices_t\000"
 3314      6365735F 
 3314      7400
 3315              	.LASF56:
 3316 0459 725F6F6C 		.ascii	"r_older\000"
 3316      64657200 
 3317              	.LASF164:
 3318 0461 63685468 		.ascii	"chThdRelease\000"
 3318      6452656C 
 3318      65617365 
 3318      00
 3319              	.LASF170:
 3320 046e 6F757470 		.ascii	"outputThread\000"
 3320      75745468 
 3320      72656164 
 3320      00
 3321              	.LASF74:
 3322 047b 6D705F6F 		.ascii	"mp_object_size\000"
 3322      626A6563 
 3322      745F7369 
ARM GAS  /var/folders/qh/xwg3v3kj02qbxczjpdb8lzfr0000gn/T//ccbil6mW.s 			page 63


 3322      7A6500
 3323              	.LASF68:
 3324 048a 4576656E 		.ascii	"EventSource\000"
 3324      74536F75 
 3324      72636500 
 3325              	.LASF162:
 3326 0496 63685468 		.ascii	"chThdCreateStatic\000"
 3326      64437265 
 3326      61746553 
 3326      74617469 
 3326      6300
 3327              	.LASF64:
 3328 04a8 656C5F6E 		.ascii	"el_next\000"
 3328      65787400 
 3329              	.LASF40:
 3330 04b0 705F6D73 		.ascii	"p_msg\000"
 3330      6700
 3331              	.LASF16:
 3332 04b6 746D6F64 		.ascii	"tmode_t\000"
 3332      655F7400 
 3333              	.LASF163:
 3334 04be 7368656C 		.ascii	"shellInit\000"
 3334      6C496E69 
 3334      7400
 3335              	.LASF110:
 3336 04c8 4F535045 		.ascii	"OSPEEDR\000"
 3336      45445200 
 3337              	.LASF83:
 3338 04d0 47656E65 		.ascii	"GenericQueue\000"
 3338      72696351 
 3338      75657565 
 3338      00
 3339              	.LASF128:
 3340 04dd 6F717565 		.ascii	"oqueue\000"
 3340      756500
 3341              	.LASF6:
 3342 04e4 75696E74 		.ascii	"uint16_t\000"
 3342      31365F74 
 3342      00
 3343              	.LASF49:
 3344 04ed 696E7463 		.ascii	"intctx\000"
 3344      747800
 3345              	.LASF139:
 3346 04f4 73635F6E 		.ascii	"sc_name\000"
 3346      616D6500 
 3347              	.LASF142:
 3348 04fc 73635F63 		.ascii	"sc_channel\000"
 3348      68616E6E 
 3348      656C00
 3349              	.LASF122:
 3350 0507 53445F52 		.ascii	"SD_READY\000"
 3350      45414459 
 3350      00
 3351              	.LASF133:
 3352 0510 53657269 		.ascii	"SerialDriverVMT\000"
 3352      616C4472 
 3352      69766572 
ARM GAS  /var/folders/qh/xwg3v3kj02qbxczjpdb8lzfr0000gn/T//ccbil6mW.s 			page 64


 3352      564D5400 
 3353              	.LASF141:
 3354 0520 5368656C 		.ascii	"ShellCommand\000"
 3354      6C436F6D 
 3354      6D616E64 
 3354      00
 3355              	.LASF43:
 3356 052d 705F7265 		.ascii	"p_realprio\000"
 3356      616C7072 
 3356      696F00
 3357              	.LASF99:
 3358 0538 52455345 		.ascii	"RESERVED1\000"
 3358      52564544 
 3358      3100
 3359              	.LASF101:
 3360 0542 52455345 		.ascii	"RESERVED2\000"
 3360      52564544 
 3360      3200
 3361              	.LASF103:
 3362 054c 52455345 		.ascii	"RESERVED3\000"
 3362      52564544 
 3362      3300
 3363              	.LASF104:
 3364 0556 52455345 		.ascii	"RESERVED4\000"
 3364      52564544 
 3364      3400
 3365              	.LASF105:
 3366 0560 52455345 		.ascii	"RESERVED5\000"
 3366      52564544 
 3366      3500
 3367              	.LASF5:
 3368 056a 73686F72 		.ascii	"short int\000"
 3368      7420696E 
 3368      7400
 3369              	.LASF57:
 3370 0574 725F6375 		.ascii	"r_current\000"
 3370      7272656E 
 3370      7400
 3371              	.LASF41:
 3372 057e 705F6570 		.ascii	"p_epending\000"
 3372      656E6469 
 3372      6E6700
 3373              	.LASF60:
 3374 0589 6D5F7175 		.ascii	"m_queue\000"
 3374      65756500 
 3375              	.LASF9:
 3376 0591 6C6F6E67 		.ascii	"long int\000"
 3376      20696E74 
 3376      00
 3377              	.LASF109:
 3378 059a 4F545950 		.ascii	"OTYPER\000"
 3378      455200
 3379              	.LASF26:
 3380 05a1 705F6E65 		.ascii	"p_next\000"
 3380      787400
 3381              	.LASF13:
 3382 05a8 75696E74 		.ascii	"uint64_t\000"
ARM GAS  /var/folders/qh/xwg3v3kj02qbxczjpdb8lzfr0000gn/T//ccbil6mW.s 			page 65


 3382      36345F74 
 3382      00
 3383              	.LASF29:
 3384 05b1 705F6374 		.ascii	"p_ctx\000"
 3384      7800
 3385              	.LASF151:
 3386 05b7 726C6973 		.ascii	"rlist\000"
 3386      7400
 3387              	.LASF119:
 3388 05bd 696F706F 		.ascii	"ioportid_t\000"
 3388      72746964 
 3388      5F7400
 3389              	.LASF70:
 3390 05c8 6D656D67 		.ascii	"memgetfunc_t\000"
 3390      65746675 
 3390      6E635F74 
 3390      00
 3391              	.LASF97:
 3392 05d5 72656164 		.ascii	"read\000"
 3392      00
 3393              	.LASF65:
 3394 05da 656C5F6C 		.ascii	"el_listener\000"
 3394      69737465 
 3394      6E657200 
 3395              	.LASF120:
 3396 05e6 53445F55 		.ascii	"SD_UNINIT\000"
 3396      4E494E49 
 3396      5400
 3397              	.LASF116:
 3398 05f0 4750494F 		.ascii	"GPIO_TypeDef\000"
 3398      5F547970 
 3398      65446566 
 3398      00
 3399              	.LASF143:
 3400 05fd 73635F63 		.ascii	"sc_commands\000"
 3400      6F6D6D61 
 3400      6E647300 
 3401              	.LASF85:
 3402 0609 715F636F 		.ascii	"q_counter\000"
 3402      756E7465 
 3402      7200
 3403              	.LASF135:
 3404 0613 67657474 		.ascii	"gett\000"
 3404      00
 3405              	.LASF87:
 3406 0618 715F746F 		.ascii	"q_top\000"
 3406      7000
 3407              	.LASF27:
 3408 061e 705F7072 		.ascii	"p_prev\000"
 3408      657600
 3409              	.LASF51:
 3410 0625 73697A65 		.ascii	"sizetype\000"
 3410      74797065 
 3410      00
 3411              	.LASF18:
 3412 062e 74726566 		.ascii	"trefs_t\000"
 3412      735F7400 
ARM GAS  /var/folders/qh/xwg3v3kj02qbxczjpdb8lzfr0000gn/T//ccbil6mW.s 			page 66


 3413              	.LASF63:
 3414 0636 4576656E 		.ascii	"EventListener\000"
 3414      744C6973 
 3414      74656E65 
 3414      7200
 3415              	.LASF11:
 3416 0644 6C6F6E67 		.ascii	"long unsigned int\000"
 3416      20756E73 
 3416      69676E65 
 3416      6420696E 
 3416      7400
 3417              	.LASF8:
 3418 0656 696E7433 		.ascii	"int32_t\000"
 3418      325F7400 
 3419              	.LASF155:
 3420 065e 6368506F 		.ascii	"chPoolInit\000"
 3420      6F6C496E 
 3420      697400
 3421              	.LASF149:
 3422 0669 77615468 		.ascii	"waThread1\000"
 3422      72656164 
 3422      3100
 3423              	.LASF150:
 3424 0673 77615468 		.ascii	"waThread2\000"
 3424      72656164 
 3424      3200
 3425              	.LASF4:
 3426 067d 756E7369 		.ascii	"unsigned char\000"
 3426      676E6564 
 3426      20636861 
 3426      7200
 3427              	.LASF35:
 3428 068b 705F7265 		.ascii	"p_refs\000"
 3428      667300
 3429              	.LASF58:
 3430 0692 52656164 		.ascii	"ReadyList\000"
 3430      794C6973 
 3430      7400
 3431              	.LASF154:
 3432 069c 63685468 		.ascii	"chThdSleep\000"
 3432      64536C65 
 3432      657000
 3433              	.LASF36:
 3434 06a7 705F7072 		.ascii	"p_preempt\000"
 3434      65656D70 
 3434      7400
 3435              	.LASF69:
 3436 06b1 65735F6E 		.ascii	"es_next\000"
 3436      65787400 
 3437              	.LASF126:
 3438 06b9 73746174 		.ascii	"state\000"
 3438      6500
 3439              	.LASF71:
 3440 06bf 706F6F6C 		.ascii	"pool_header\000"
 3440      5F686561 
 3440      64657200 
 3441              	.LASF146:
ARM GAS  /var/folders/qh/xwg3v3kj02qbxczjpdb8lzfr0000gn/T//ccbil6mW.s 			page 67


 3442 06cb 54687265 		.ascii	"Thread1\000"
 3442      61643100 
 3443              	.LASF145:
 3444 06d3 54687265 		.ascii	"Thread2\000"
 3444      61643200 
 3445              	.LASF118:
 3446 06db 696F6D6F 		.ascii	"iomode_t\000"
 3446      64655F74 
 3446      00
 3447              	.LASF62:
 3448 06e4 6D5F6E65 		.ascii	"m_next\000"
 3448      787400
 3449              	.LASF1:
 3450 06eb 7369676E 		.ascii	"signed char\000"
 3450      65642063 
 3450      68617200 
 3451              	.LASF137:
 3452 06f7 72656164 		.ascii	"readt\000"
 3452      7400
 3453              	.LASF7:
 3454 06fd 73686F72 		.ascii	"short unsigned int\000"
 3454      7420756E 
 3454      7369676E 
 3454      65642069 
 3454      6E7400
 3455              	.LASF54:
 3456 0710 725F6374 		.ascii	"r_ctx\000"
 3456      7800
 3457              	.LASF48:
 3458 0716 73746B61 		.ascii	"stkalign_t\000"
 3458      6C69676E 
 3458      5F7400
 3459              	.LASF169:
 3460 0721 6D61696E 		.ascii	"main\000"
 3460      00
 3461              	.LASF67:
 3462 0726 656C5F66 		.ascii	"el_flags\000"
 3462      6C616773 
 3462      00
 3463              	.LASF78:
 3464 072f 65786974 		.ascii	"exitcode\000"
 3464      636F6465 
 3464      00
 3465              	.LASF113:
 3466 0738 4C434B52 		.ascii	"LCKR\000"
 3466      00
 3467              	.LASF75:
 3468 073d 6D705F70 		.ascii	"mp_provider\000"
 3468      726F7669 
 3468      64657200 
 3469              	.LASF140:
 3470 0749 73635F66 		.ascii	"sc_function\000"
 3470      756E6374 
 3470      696F6E00 
 3471              		.ident	"GCC: (GNU Tools for ARM Embedded Processors) 4.8.3 20131129 (release) [ARM/embedded-4_8-br
ARM GAS  /var/folders/qh/xwg3v3kj02qbxczjpdb8lzfr0000gn/T//ccbil6mW.s 			page 68


DEFINED SYMBOLS
                            *ABS*:0000000000000000 main.c
/var/folders/qh/xwg3v3kj02qbxczjpdb8lzfr0000gn/T//ccbil6mW.s:18     .text.Thread2:0000000000000000 $t
/var/folders/qh/xwg3v3kj02qbxczjpdb8lzfr0000gn/T//ccbil6mW.s:23     .text.Thread2:0000000000000000 Thread2
/var/folders/qh/xwg3v3kj02qbxczjpdb8lzfr0000gn/T//ccbil6mW.s:67     .text.Thread2:0000000000000024 $d
/var/folders/qh/xwg3v3kj02qbxczjpdb8lzfr0000gn/T//ccbil6mW.s:74     .text.Thread1:0000000000000000 $t
/var/folders/qh/xwg3v3kj02qbxczjpdb8lzfr0000gn/T//ccbil6mW.s:79     .text.Thread1:0000000000000000 Thread1
/var/folders/qh/xwg3v3kj02qbxczjpdb8lzfr0000gn/T//ccbil6mW.s:126    .text.Thread1:0000000000000028 $d
/var/folders/qh/xwg3v3kj02qbxczjpdb8lzfr0000gn/T//ccbil6mW.s:133    .text.startup.main:0000000000000000 $t
/var/folders/qh/xwg3v3kj02qbxczjpdb8lzfr0000gn/T//ccbil6mW.s:139    .text.startup.main:0000000000000000 main
/var/folders/qh/xwg3v3kj02qbxczjpdb8lzfr0000gn/T//ccbil6mW.s:271    .text.startup.main:00000000000000bc $d
/var/folders/qh/xwg3v3kj02qbxczjpdb8lzfr0000gn/T//ccbil6mW.s:394    .bss.sh:0000000000000000 sh
/var/folders/qh/xwg3v3kj02qbxczjpdb8lzfr0000gn/T//ccbil6mW.s:388    .bss.thd2:0000000000000000 thd2
/var/folders/qh/xwg3v3kj02qbxczjpdb8lzfr0000gn/T//ccbil6mW.s:381    .bss.thd1:0000000000000000 thd1
/var/folders/qh/xwg3v3kj02qbxczjpdb8lzfr0000gn/T//ccbil6mW.s:308    .bss.mp:0000000000000000 mp
/var/folders/qh/xwg3v3kj02qbxczjpdb8lzfr0000gn/T//ccbil6mW.s:290    .bss.waThread1:0000000000000000 $d
/var/folders/qh/xwg3v3kj02qbxczjpdb8lzfr0000gn/T//ccbil6mW.s:294    .bss.waThread1:0000000000000000 waThread1
/var/folders/qh/xwg3v3kj02qbxczjpdb8lzfr0000gn/T//ccbil6mW.s:297    .bss.waThread2:0000000000000000 $d
/var/folders/qh/xwg3v3kj02qbxczjpdb8lzfr0000gn/T//ccbil6mW.s:301    .bss.waThread2:0000000000000000 waThread2
/var/folders/qh/xwg3v3kj02qbxczjpdb8lzfr0000gn/T//ccbil6mW.s:304    .bss.mp:0000000000000000 $d
/var/folders/qh/xwg3v3kj02qbxczjpdb8lzfr0000gn/T//ccbil6mW.s:311    .rodata.shCmds:0000000000000000 $d
/var/folders/qh/xwg3v3kj02qbxczjpdb8lzfr0000gn/T//ccbil6mW.s:314    .rodata.shCmds:0000000000000000 shCmds
/var/folders/qh/xwg3v3kj02qbxczjpdb8lzfr0000gn/T//ccbil6mW.s:338    .rodata.shCfg:0000000000000000 $d
/var/folders/qh/xwg3v3kj02qbxczjpdb8lzfr0000gn/T//ccbil6mW.s:342    .rodata.shCfg:0000000000000000 shCfg
/var/folders/qh/xwg3v3kj02qbxczjpdb8lzfr0000gn/T//ccbil6mW.s:346    .rodata.str1.4:0000000000000000 $d
/var/folders/qh/xwg3v3kj02qbxczjpdb8lzfr0000gn/T//ccbil6mW.s:377    .bss.thd1:0000000000000000 $d
/var/folders/qh/xwg3v3kj02qbxczjpdb8lzfr0000gn/T//ccbil6mW.s:384    .bss.thd2:0000000000000000 $d
/var/folders/qh/xwg3v3kj02qbxczjpdb8lzfr0000gn/T//ccbil6mW.s:391    .bss.sh:0000000000000000 $d
                     .debug_frame:0000000000000010 $d
/var/folders/qh/xwg3v3kj02qbxczjpdb8lzfr0000gn/T//ccbil6mW.s:132    .text.Thread1:0000000000000034 $t
/var/folders/qh/xwg3v3kj02qbxczjpdb8lzfr0000gn/T//ccbil6mW.s:289    .text.startup.main:00000000000000e8 $t

UNDEFINED SYMBOLS
chThdSleep
rlist
chPoolInit
chPoolFree
halInit
chSysInit
sdStart
_pal_lld_setgroupmode
chThdCreateFromMemoryPool
chThdCreateStatic
shellInit
chThdRelease
shellCreate
SD1
outputResponse
cmdGetTemp
cmdGetVoltage
cmdGetBattery
cmdBluetooth
cmdPwm
cmdSpi
cmdI2c
cmdDate
cmdAdc
ARM GAS  /var/folders/qh/xwg3v3kj02qbxczjpdb8lzfr0000gn/T//ccbil6mW.s 			page 69


cmdDac
