ARM GAS  /var/folders/qh/xwg3v3kj02qbxczjpdb8lzfr0000gn/T//ccgMbDgN.s 			page 1


   1              		.cpu cortex-m0
   2              		.fpu softvfp
   3              		.eabi_attribute 20, 1
   4              		.eabi_attribute 21, 1
   5              		.eabi_attribute 23, 3
   6              		.eabi_attribute 24, 1
   7              		.eabi_attribute 25, 1
   8              		.eabi_attribute 26, 1
   9              		.eabi_attribute 30, 2
  10              		.eabi_attribute 34, 0
  11              		.eabi_attribute 18, 4
  12              		.code	16
  13              		.file	"main.c"
  14              		.text
  15              	.Ltext0:
  16              		.cfi_sections	.debug_frame
  17              		.section	.text.Thread2,"ax",%progbits
  18              		.align	2
  19              		.p2align 4,,15
  20              		.code	16
  21              		.thumb_func
  22              		.type	Thread2, %function
  23              	Thread2:
  24              	.LFB42:
  25              		.file 1 "main.c"
  26              		.loc 1 60 0
  27              		.cfi_startproc
  28              	.LVL0:
  29              		.loc 1 63 0
  30 0000 084B     		ldr	r3, .L4
  31              		.loc 1 60 0
  32 0002 70B5     		push	{r4, r5, r6, lr}
  33              		.cfi_def_cfa_offset 16
  34              		.cfi_offset 4, -16
  35              		.cfi_offset 5, -12
  36              		.cfi_offset 6, -8
  37              		.cfi_offset 14, -4
  38              		.loc 1 63 0
  39 0004 9B69     		ldr	r3, [r3, #24]
  40 0006 084A     		ldr	r2, .L4+4
  41              		.loc 1 65 0
  42 0008 8025     		mov	r5, #128
  43 000a AD00     		lsl	r5, r5, #2
  44 000c 074C     		ldr	r4, .L4+8
  45              		.loc 1 63 0
  46 000e 9A61     		str	r2, [r3, #24]
  47              		.loc 1 65 0
  48 0010 2E1C     		add	r6, r5, #0
  49              	.LVL1:
  50              	.L2:
  51              		.loc 1 65 0 is_stmt 0 discriminator 1
  52 0012 6683     		strh	r6, [r4, #26]
  53              		.loc 1 66 0 is_stmt 1 discriminator 1
  54 0014 FA20     		mov	r0, #250
  55 0016 FFF7FEFF 		bl	chThdSleep
  56              	.LVL2:
  57              		.loc 1 67 0 discriminator 1
ARM GAS  /var/folders/qh/xwg3v3kj02qbxczjpdb8lzfr0000gn/T//ccgMbDgN.s 			page 2


  58 001a 2583     		strh	r5, [r4, #24]
  59              		.loc 1 68 0 discriminator 1
  60 001c FA20     		mov	r0, #250
  61 001e FFF7FEFF 		bl	chThdSleep
  62              	.LVL3:
  63 0022 F6E7     		b	.L2
  64              	.L5:
  65              		.align	2
  66              	.L4:
  67 0024 00000000 		.word	rlist
  68 0028 00000000 		.word	.LC1
  69 002c 00080048 		.word	1207961600
  70              		.cfi_endproc
  71              	.LFE42:
  72              		.size	Thread2, .-Thread2
  73              		.section	.text.Thread1,"ax",%progbits
  74              		.align	2
  75              		.p2align 4,,15
  76              		.code	16
  77              		.thumb_func
  78              		.type	Thread1, %function
  79              	Thread1:
  80              	.LFB41:
  81              		.loc 1 42 0
  82              		.cfi_startproc
  83              	.LVL4:
  84              		.loc 1 45 0
  85 0000 094B     		ldr	r3, .L8
  86              		.loc 1 42 0
  87 0002 70B5     		push	{r4, r5, r6, lr}
  88              		.cfi_def_cfa_offset 16
  89              		.cfi_offset 4, -16
  90              		.cfi_offset 5, -12
  91              		.cfi_offset 6, -8
  92              		.cfi_offset 14, -4
  93              		.loc 1 45 0
  94 0004 9B69     		ldr	r3, [r3, #24]
  95 0006 094A     		ldr	r2, .L8+4
  96              		.loc 1 47 0
  97 0008 8025     		mov	r5, #128
  98 000a 6D00     		lsl	r5, r5, #1
  99 000c 084C     		ldr	r4, .L8+8
 100              		.loc 1 45 0
 101 000e 9A61     		str	r2, [r3, #24]
 102              		.loc 1 47 0
 103 0010 2E1C     		add	r6, r5, #0
 104              	.LVL5:
 105              	.L7:
 106              		.loc 1 48 0 discriminator 1
 107 0012 FA20     		mov	r0, #250
 108              		.loc 1 47 0 discriminator 1
 109 0014 6683     		strh	r6, [r4, #26]
 110              		.loc 1 48 0 discriminator 1
 111 0016 4000     		lsl	r0, r0, #1
 112 0018 FFF7FEFF 		bl	chThdSleep
 113              	.LVL6:
 114              		.loc 1 50 0 discriminator 1
ARM GAS  /var/folders/qh/xwg3v3kj02qbxczjpdb8lzfr0000gn/T//ccgMbDgN.s 			page 3


 115 001c FA20     		mov	r0, #250
 116              		.loc 1 49 0 discriminator 1
 117 001e 2583     		strh	r5, [r4, #24]
 118              		.loc 1 50 0 discriminator 1
 119 0020 4000     		lsl	r0, r0, #1
 120 0022 FFF7FEFF 		bl	chThdSleep
 121              	.LVL7:
 122 0026 F4E7     		b	.L7
 123              	.L9:
 124              		.align	2
 125              	.L8:
 126 0028 00000000 		.word	rlist
 127 002c 0C000000 		.word	.LC4
 128 0030 00080048 		.word	1207961600
 129              		.cfi_endproc
 130              	.LFE41:
 131              		.size	Thread1, .-Thread1
 132 0034 C046C046 		.section	.text.startup.main,"ax",%progbits
 132      C046C046 
 132      C046C046 
 133              		.align	2
 134              		.p2align 4,,15
 135              		.global	main
 136              		.code	16
 137              		.thumb_func
 138              		.type	main, %function
 139              	main:
 140              	.LFB43:
 141              		.loc 1 75 0
 142              		.cfi_startproc
 143              	.LVL8:
 144 0000 30B5     		push	{r4, r5, lr}
 145              		.cfi_def_cfa_offset 12
 146              		.cfi_offset 4, -12
 147              		.cfi_offset 5, -8
 148              		.cfi_offset 14, -4
 149 0002 83B0     		sub	sp, sp, #12
 150              		.cfi_def_cfa_offset 24
 151              		.loc 1 85 0
 152 0004 FFF7FEFF 		bl	halInit
 153              	.LVL9:
 154              		.loc 1 86 0
 155 0008 FFF7FEFF 		bl	chSysInit
 156              	.LVL10:
 157              		.loc 1 92 0
 158 000c 2048     		ldr	r0, .L15
 159 000e 0021     		mov	r1, #0
 160 0010 FFF7FEFF 		bl	sdStart
 161              	.LVL11:
 162              		.loc 1 93 0
 163 0014 9020     		mov	r0, #144
 164 0016 8021     		mov	r1, #128
 165 0018 C005     		lsl	r0, r0, #23
 166 001a 8900     		lsl	r1, r1, #2
 167 001c 8222     		mov	r2, #130
 168 001e FFF7FEFF 		bl	_pal_lld_setgroupmode
 169              	.LVL12:
ARM GAS  /var/folders/qh/xwg3v3kj02qbxczjpdb8lzfr0000gn/T//ccgMbDgN.s 			page 4


 170              		.loc 1 94 0
 171 0022 9020     		mov	r0, #144
 172 0024 8021     		mov	r1, #128
 173 0026 C005     		lsl	r0, r0, #23
 174 0028 C900     		lsl	r1, r1, #3
 175 002a 8222     		mov	r2, #130
 176 002c FFF7FEFF 		bl	_pal_lld_setgroupmode
 177              	.LVL13:
 178              		.loc 1 95 0
 179 0030 1848     		ldr	r0, .L15+4
 180 0032 0321     		mov	r1, #3
 181 0034 0322     		mov	r2, #3
 182 0036 FFF7FEFF 		bl	_pal_lld_setgroupmode
 183              	.LVL14:
 184              		.loc 1 101 0
 185 003a 0024     		mov	r4, #0
 186 003c 9821     		mov	r1, #152
 187 003e 4900     		lsl	r1, r1, #1
 188 0040 4022     		mov	r2, #64
 189 0042 154B     		ldr	r3, .L15+8
 190 0044 0094     		str	r4, [sp]
 191 0046 1548     		ldr	r0, .L15+12
 192 0048 FFF7FEFF 		bl	chThdCreateStatic
 193              	.LVL15:
 194              		.loc 1 102 0
 195 004c 9821     		mov	r1, #152
 196 004e 4900     		lsl	r1, r1, #1
 197 0050 4022     		mov	r2, #64
 198 0052 134B     		ldr	r3, .L15+16
 199 0054 0094     		str	r4, [sp]
 200 0056 1348     		ldr	r0, .L15+20
 201 0058 FFF7FEFF 		bl	chThdCreateStatic
 202              	.LVL16:
 203              		.loc 1 114 0
 204 005c FFF7FEFF 		bl	shellInit
 205              	.LVL17:
 206 0060 114D     		ldr	r5, .L15+24
 207 0062 03E0     		b	.L13
 208              	.LVL18:
 209              	.L12:
 210              		.loc 1 122 0
 211 0064 FA20     		mov	r0, #250
 212 0066 8000     		lsl	r0, r0, #2
 213 0068 FFF7FEFF 		bl	chThdSleep
 214              	.LVL19:
 215              	.L13:
 216              		.loc 1 116 0
 217 006c 002C     		cmp	r4, #0
 218 006e 07D0     		beq	.L14
 219              		.loc 1 118 0
 220 0070 237F     		ldrb	r3, [r4, #28]
 221 0072 0E2B     		cmp	r3, #14
 222 0074 F6D1     		bne	.L12
 223              		.loc 1 119 0
 224 0076 201C     		mov	r0, r4
 225 0078 FFF7FEFF 		bl	chThdRelease
 226              	.LVL20:
ARM GAS  /var/folders/qh/xwg3v3kj02qbxczjpdb8lzfr0000gn/T//ccgMbDgN.s 			page 5


 227              		.loc 1 120 0
 228 007c 0024     		mov	r4, #0
 229 007e F1E7     		b	.L12
 230              	.LVL21:
 231              	.L14:
 232              		.loc 1 117 0
 233 0080 9621     		mov	r1, #150
 234 0082 281C     		mov	r0, r5
 235 0084 C900     		lsl	r1, r1, #3
 236 0086 4022     		mov	r2, #64
 237 0088 FFF7FEFF 		bl	shellCreate
 238              	.LVL22:
 239 008c 041C     		mov	r4, r0
 240              	.LVL23:
 241 008e E9E7     		b	.L12
 242              	.L16:
 243              		.align	2
 244              	.L15:
 245 0090 00000000 		.word	SD1
 246 0094 00080048 		.word	1207961600
 247 0098 00000000 		.word	Thread1
 248 009c 00000000 		.word	.LANCHOR0
 249 00a0 00000000 		.word	Thread2
 250 00a4 00000000 		.word	.LANCHOR1
 251 00a8 00000000 		.word	.LANCHOR2
 252              		.cfi_endproc
 253              	.LFE43:
 254              		.size	main, .-main
 255              		.global	sh
 256 00ac C046C046 		.section	.bss.waThread1,"aw",%nobits
 257              		.align	3
 258              		.set	.LANCHOR0,. + 0
 259              		.type	waThread1, %object
 260              		.size	waThread1, 304
 261              	waThread1:
 262 0000 00000000 		.space	304
 262      00000000 
 262      00000000 
 262      00000000 
 262      00000000 
 263              		.section	.bss.waThread2,"aw",%nobits
 264              		.align	3
 265              		.set	.LANCHOR1,. + 0
 266              		.type	waThread2, %object
 267              		.size	waThread2, 304
 268              	waThread2:
 269 0000 00000000 		.space	304
 269      00000000 
 269      00000000 
 269      00000000 
 269      00000000 
 270              		.section	.rodata.shCmds,"a",%progbits
 271              		.align	2
 272              		.type	shCmds, %object
 273              		.size	shCmds, 88
 274              	shCmds:
 275 0000 18000000 		.word	.LC12
ARM GAS  /var/folders/qh/xwg3v3kj02qbxczjpdb8lzfr0000gn/T//ccgMbDgN.s 			page 6


 276 0004 00000000 		.word	cmdGetTemp
 277 0008 20000000 		.word	.LC13
 278 000c 00000000 		.word	cmdGetVoltage
 279 0010 28000000 		.word	.LC14
 280 0014 00000000 		.word	cmdGetBattery
 281 0018 30000000 		.word	.LC15
 282 001c 00000000 		.word	cmdBluetooth
 283 0020 3C000000 		.word	.LC16
 284 0024 00000000 		.word	cmdPwm
 285 0028 40000000 		.word	.LC17
 286 002c 00000000 		.word	cmdSpi
 287 0030 44000000 		.word	.LC18
 288 0034 00000000 		.word	cmdI2c
 289 0038 48000000 		.word	.LC19
 290 003c 00000000 		.word	cmdDate
 291 0040 50000000 		.word	.LC20
 292 0044 00000000 		.word	cmdAdc
 293 0048 54000000 		.word	.LC21
 294 004c 00000000 		.word	cmdDac
 295 0050 00000000 		.word	0
 296 0054 00000000 		.word	0
 297              		.section	.rodata.shCfg,"a",%progbits
 298              		.align	2
 299              		.set	.LANCHOR2,. + 0
 300              		.type	shCfg, %object
 301              		.size	shCfg, 8
 302              	shCfg:
 303 0000 00000000 		.word	SD1
 304 0004 00000000 		.word	shCmds
 305              		.section	.rodata.str1.4,"aMS",%progbits,1
 306              		.align	2
 307              	.LC1:
 308 0000 626C696E 		.ascii	"blinker2\000"
 308      6B657232 
 308      00
 309 0009 000000   		.space	3
 310              	.LC4:
 311 000c 626C696E 		.ascii	"blinker1\000"
 311      6B657231 
 311      00
 312 0015 000000   		.space	3
 313              	.LC12:
 314 0018 74656D70 		.ascii	"temp\000"
 314      00
 315 001d 000000   		.space	3
 316              	.LC13:
 317 0020 766F6C74 		.ascii	"voltage\000"
 317      61676500 
 318              	.LC14:
 319 0028 62617474 		.ascii	"battery\000"
 319      65727900 
 320              	.LC15:
 321 0030 626C7565 		.ascii	"bluetooth\000"
 321      746F6F74 
 321      6800
 322 003a 0000     		.space	2
 323              	.LC16:
ARM GAS  /var/folders/qh/xwg3v3kj02qbxczjpdb8lzfr0000gn/T//ccgMbDgN.s 			page 7


 324 003c 70776D00 		.ascii	"pwm\000"
 325              	.LC17:
 326 0040 73706900 		.ascii	"spi\000"
 327              	.LC18:
 328 0044 69326300 		.ascii	"i2c\000"
 329              	.LC19:
 330 0048 64617465 		.ascii	"date\000"
 330      00
 331 004d 000000   		.space	3
 332              	.LC20:
 333 0050 61646300 		.ascii	"adc\000"
 334              	.LC21:
 335 0054 64616300 		.ascii	"dac\000"
 336              		.section	.bss.sh,"aw",%nobits
 337              		.align	2
 338              		.type	sh, %object
 339              		.size	sh, 4
 340              	sh:
 341 0000 00000000 		.space	4
 342              		.text
 343              	.Letext0:
 344              		.file 2 "/usr/local/Cellar/gcc-arm-none-eabi-48/20131218/lib/gcc/arm-none-eabi/4.8.3/include/stdde
 345              		.file 3 "/usr/local/Cellar/gcc-arm-none-eabi-48/20131218/arm-none-eabi/include/stdint.h"
 346              		.file 4 "../../os/ports/GCC/ARMCMx/chtypes.h"
 347              		.file 5 "../../os/kernel/include/chlists.h"
 348              		.file 6 "../../os/kernel/include/chthreads.h"
 349              		.file 7 "../../os/ports/GCC/ARMCMx/chcore_v6m.h"
 350              		.file 8 "../../os/kernel/include/chschd.h"
 351              		.file 9 "../../os/kernel/include/chmtx.h"
 352              		.file 10 "../../os/kernel/include/chevents.h"
 353              		.file 11 "../../os/kernel/include/chqueues.h"
 354              		.file 12 "../../os/kernel/include/chstreams.h"
 355              		.file 13 "../../os/hal/platforms/STM32F0xx/stm32f0xx.h"
 356              		.file 14 "../../os/hal/platforms/STM32/GPIOv2/pal_lld.h"
 357              		.file 15 "../../os/hal/include/serial.h"
 358              		.file 16 "../../os/hal/platforms/STM32/USARTv2/serial_lld.h"
 359              		.file 17 "../../os/various/shell.h"
 360              		.file 18 "cmd.h"
 361              		.file 19 "../../os/hal/include/hal.h"
 362              		.file 20 "../../os/kernel/include/chsys.h"
 363              		.file 21 "../../os/kernel/include/chdynamic.h"
 364              		.section	.debug_info,"",%progbits
 365              	.Ldebug_info0:
 366 0000 000E0000 		.4byte	0xe00
 367 0004 0400     		.2byte	0x4
 368 0006 00000000 		.4byte	.Ldebug_abbrev0
 369 000a 04       		.byte	0x4
 370 000b 01       		.uleb128 0x1
 371 000c CC000000 		.4byte	.LASF154
 372 0010 01       		.byte	0x1
 373 0011 23000000 		.4byte	.LASF155
 374 0015 73020000 		.4byte	.LASF156
 375 0019 00000000 		.4byte	.Ldebug_ranges0+0
 376 001d 00000000 		.4byte	0
 377 0021 00000000 		.4byte	.Ldebug_line0
 378 0025 02       		.uleb128 0x2
 379 0026 04       		.byte	0x4
ARM GAS  /var/folders/qh/xwg3v3kj02qbxczjpdb8lzfr0000gn/T//ccgMbDgN.s 			page 8


 380 0027 05       		.byte	0x5
 381 0028 696E7400 		.ascii	"int\000"
 382 002c 03       		.uleb128 0x3
 383 002d AE020000 		.4byte	.LASF2
 384 0031 02       		.byte	0x2
 385 0032 D4       		.byte	0xd4
 386 0033 37000000 		.4byte	0x37
 387 0037 04       		.uleb128 0x4
 388 0038 04       		.byte	0x4
 389 0039 07       		.byte	0x7
 390 003a 63000000 		.4byte	.LASF0
 391 003e 04       		.uleb128 0x4
 392 003f 01       		.byte	0x1
 393 0040 06       		.byte	0x6
 394 0041 61060000 		.4byte	.LASF1
 395 0045 03       		.uleb128 0x3
 396 0046 8C030000 		.4byte	.LASF3
 397 004a 03       		.byte	0x3
 398 004b 2A       		.byte	0x2a
 399 004c 50000000 		.4byte	0x50
 400 0050 04       		.uleb128 0x4
 401 0051 01       		.byte	0x1
 402 0052 08       		.byte	0x8
 403 0053 FF050000 		.4byte	.LASF4
 404 0057 04       		.uleb128 0x4
 405 0058 02       		.byte	0x2
 406 0059 05       		.byte	0x5
 407 005a 04050000 		.4byte	.LASF5
 408 005e 03       		.uleb128 0x3
 409 005f 7E040000 		.4byte	.LASF6
 410 0063 03       		.byte	0x3
 411 0064 36       		.byte	0x36
 412 0065 69000000 		.4byte	0x69
 413 0069 04       		.uleb128 0x4
 414 006a 02       		.byte	0x2
 415 006b 07       		.byte	0x7
 416 006c 73060000 		.4byte	.LASF7
 417 0070 03       		.uleb128 0x3
 418 0071 E3050000 		.4byte	.LASF8
 419 0075 03       		.byte	0x3
 420 0076 4F       		.byte	0x4f
 421 0077 7B000000 		.4byte	0x7b
 422 007b 04       		.uleb128 0x4
 423 007c 04       		.byte	0x4
 424 007d 05       		.byte	0x5
 425 007e 2B050000 		.4byte	.LASF9
 426 0082 03       		.uleb128 0x3
 427 0083 C6010000 		.4byte	.LASF10
 428 0087 03       		.byte	0x3
 429 0088 50       		.byte	0x50
 430 0089 8D000000 		.4byte	0x8d
 431 008d 04       		.uleb128 0x4
 432 008e 04       		.byte	0x4
 433 008f 07       		.byte	0x7
 434 0090 D1050000 		.4byte	.LASF11
 435 0094 04       		.uleb128 0x4
 436 0095 08       		.byte	0x8
ARM GAS  /var/folders/qh/xwg3v3kj02qbxczjpdb8lzfr0000gn/T//ccgMbDgN.s 			page 9


 437 0096 05       		.byte	0x5
 438 0097 BD030000 		.4byte	.LASF12
 439 009b 03       		.uleb128 0x3
 440 009c 42050000 		.4byte	.LASF13
 441 00a0 03       		.byte	0x3
 442 00a1 78       		.byte	0x78
 443 00a2 A6000000 		.4byte	0xa6
 444 00a6 04       		.uleb128 0x4
 445 00a7 08       		.byte	0x8
 446 00a8 07       		.byte	0x7
 447 00a9 1B020000 		.4byte	.LASF14
 448 00ad 04       		.uleb128 0x4
 449 00ae 01       		.byte	0x1
 450 00af 02       		.byte	0x2
 451 00b0 BC020000 		.4byte	.LASF15
 452 00b4 03       		.uleb128 0x3
 453 00b5 50040000 		.4byte	.LASF16
 454 00b9 04       		.byte	0x4
 455 00ba 25       		.byte	0x25
 456 00bb 45000000 		.4byte	0x45
 457 00bf 03       		.uleb128 0x3
 458 00c0 59030000 		.4byte	.LASF17
 459 00c4 04       		.byte	0x4
 460 00c5 26       		.byte	0x26
 461 00c6 45000000 		.4byte	0x45
 462 00ca 03       		.uleb128 0x3
 463 00cb BB050000 		.4byte	.LASF18
 464 00cf 04       		.byte	0x4
 465 00d0 27       		.byte	0x27
 466 00d1 45000000 		.4byte	0x45
 467 00d5 03       		.uleb128 0x3
 468 00d6 05040000 		.4byte	.LASF19
 469 00da 04       		.byte	0x4
 470 00db 28       		.byte	0x28
 471 00dc 45000000 		.4byte	0x45
 472 00e0 03       		.uleb128 0x3
 473 00e1 0B020000 		.4byte	.LASF20
 474 00e5 04       		.byte	0x4
 475 00e6 29       		.byte	0x29
 476 00e7 82000000 		.4byte	0x82
 477 00eb 03       		.uleb128 0x3
 478 00ec E2030000 		.4byte	.LASF21
 479 00f0 04       		.byte	0x4
 480 00f1 2A       		.byte	0x2a
 481 00f2 70000000 		.4byte	0x70
 482 00f6 03       		.uleb128 0x3
 483 00f7 DB010000 		.4byte	.LASF22
 484 00fb 04       		.byte	0x4
 485 00fc 2C       		.byte	0x2c
 486 00fd 82000000 		.4byte	0x82
 487 0101 03       		.uleb128 0x3
 488 0102 94030000 		.4byte	.LASF23
 489 0106 04       		.byte	0x4
 490 0107 2D       		.byte	0x2d
 491 0108 82000000 		.4byte	0x82
 492 010c 03       		.uleb128 0x3
 493 010d 46000000 		.4byte	.LASF24
ARM GAS  /var/folders/qh/xwg3v3kj02qbxczjpdb8lzfr0000gn/T//ccgMbDgN.s 			page 10


 494 0111 04       		.byte	0x4
 495 0112 2E       		.byte	0x2e
 496 0113 82000000 		.4byte	0x82
 497 0117 03       		.uleb128 0x3
 498 0118 52030000 		.4byte	.LASF25
 499 011c 05       		.byte	0x5
 500 011d 23       		.byte	0x23
 501 011e 22010000 		.4byte	0x122
 502 0122 05       		.uleb128 0x5
 503 0123 52030000 		.4byte	.LASF25
 504 0127 48       		.byte	0x48
 505 0128 06       		.byte	0x6
 506 0129 57       		.byte	0x57
 507 012a 1F020000 		.4byte	0x21f
 508 012e 06       		.uleb128 0x6
 509 012f 3B050000 		.4byte	.LASF26
 510 0133 06       		.byte	0x6
 511 0134 58       		.byte	0x58
 512 0135 40020000 		.4byte	0x240
 513 0139 00       		.byte	0
 514 013a 06       		.uleb128 0x6
 515 013b AB050000 		.4byte	.LASF27
 516 013f 06       		.byte	0x6
 517 0140 5A       		.byte	0x5a
 518 0141 40020000 		.4byte	0x240
 519 0145 04       		.byte	0x4
 520 0146 06       		.uleb128 0x6
 521 0147 3F000000 		.4byte	.LASF28
 522 014b 06       		.byte	0x6
 523 014c 5C       		.byte	0x5c
 524 014d E0000000 		.4byte	0xe0
 525 0151 08       		.byte	0x8
 526 0152 06       		.uleb128 0x6
 527 0153 4B050000 		.4byte	.LASF29
 528 0157 06       		.byte	0x6
 529 0158 5D       		.byte	0x5d
 530 0159 FB020000 		.4byte	0x2fb
 531 015d 0C       		.byte	0xc
 532 015e 06       		.uleb128 0x6
 533 015f 56020000 		.4byte	.LASF30
 534 0163 06       		.byte	0x6
 535 0164 5F       		.byte	0x5f
 536 0165 40020000 		.4byte	0x240
 537 0169 10       		.byte	0x10
 538 016a 06       		.uleb128 0x6
 539 016b 7C030000 		.4byte	.LASF31
 540 016f 06       		.byte	0x6
 541 0170 60       		.byte	0x60
 542 0171 40020000 		.4byte	0x240
 543 0175 14       		.byte	0x14
 544 0176 06       		.uleb128 0x6
 545 0177 FF020000 		.4byte	.LASF32
 546 017b 06       		.byte	0x6
 547 017c 67       		.byte	0x67
 548 017d 70040000 		.4byte	0x470
 549 0181 18       		.byte	0x18
 550 0182 06       		.uleb128 0x6
ARM GAS  /var/folders/qh/xwg3v3kj02qbxczjpdb8lzfr0000gn/T//ccgMbDgN.s 			page 11


 551 0183 84030000 		.4byte	.LASF33
 552 0187 06       		.byte	0x6
 553 0188 72       		.byte	0x72
 554 0189 BF000000 		.4byte	0xbf
 555 018d 1C       		.byte	0x1c
 556 018e 06       		.uleb128 0x6
 557 018f F0030000 		.4byte	.LASF34
 558 0193 06       		.byte	0x6
 559 0194 76       		.byte	0x76
 560 0195 B4000000 		.4byte	0xb4
 561 0199 1D       		.byte	0x1d
 562 019a 06       		.uleb128 0x6
 563 019b 0D060000 		.4byte	.LASF35
 564 019f 06       		.byte	0x6
 565 01a0 7B       		.byte	0x7b
 566 01a1 CA000000 		.4byte	0xca
 567 01a5 1E       		.byte	0x1e
 568 01a6 06       		.uleb128 0x6
 569 01a7 29060000 		.4byte	.LASF36
 570 01ab 06       		.byte	0x6
 571 01ac 81       		.byte	0x81
 572 01ad D5000000 		.4byte	0xd5
 573 01b1 1F       		.byte	0x1f
 574 01b2 06       		.uleb128 0x6
 575 01b3 2A000000 		.4byte	.LASF37
 576 01b7 06       		.byte	0x6
 577 01b8 88       		.byte	0x88
 578 01b9 26030000 		.4byte	0x326
 579 01bd 20       		.byte	0x20
 580 01be 07       		.uleb128 0x7
 581 01bf 705F7500 		.ascii	"p_u\000"
 582 01c3 06       		.byte	0x6
 583 01c4 AD       		.byte	0xad
 584 01c5 3B040000 		.4byte	0x43b
 585 01c9 24       		.byte	0x24
 586 01ca 06       		.uleb128 0x6
 587 01cb 0C000000 		.4byte	.LASF38
 588 01cf 06       		.byte	0x6
 589 01d0 B2       		.byte	0xb2
 590 01d1 66020000 		.4byte	0x266
 591 01d5 28       		.byte	0x28
 592 01d6 06       		.uleb128 0x6
 593 01d7 58000000 		.4byte	.LASF39
 594 01db 06       		.byte	0x6
 595 01dc B8       		.byte	0xb8
 596 01dd 46020000 		.4byte	0x246
 597 01e1 2C       		.byte	0x2c
 598 01e2 06       		.uleb128 0x6
 599 01e3 4A040000 		.4byte	.LASF40
 600 01e7 06       		.byte	0x6
 601 01e8 BC       		.byte	0xbc
 602 01e9 EB000000 		.4byte	0xeb
 603 01ed 34       		.byte	0x34
 604 01ee 06       		.uleb128 0x6
 605 01ef 18050000 		.4byte	.LASF41
 606 01f3 06       		.byte	0x6
 607 01f4 C2       		.byte	0xc2
ARM GAS  /var/folders/qh/xwg3v3kj02qbxczjpdb8lzfr0000gn/T//ccgMbDgN.s 			page 12


 608 01f5 F6000000 		.4byte	0xf6
 609 01f9 38       		.byte	0x38
 610 01fa 06       		.uleb128 0x6
 611 01fb AD030000 		.4byte	.LASF42
 612 01ff 06       		.byte	0x6
 613 0200 C9       		.byte	0xc9
 614 0201 82040000 		.4byte	0x482
 615 0205 3C       		.byte	0x3c
 616 0206 06       		.uleb128 0x6
 617 0207 C7040000 		.4byte	.LASF43
 618 020b 06       		.byte	0x6
 619 020c CD       		.byte	0xcd
 620 020d E0000000 		.4byte	0xe0
 621 0211 40       		.byte	0x40
 622 0212 06       		.uleb128 0x6
 623 0213 A5030000 		.4byte	.LASF44
 624 0217 06       		.byte	0x6
 625 0218 D3       		.byte	0xd3
 626 0219 7C020000 		.4byte	0x27c
 627 021d 44       		.byte	0x44
 628 021e 00       		.byte	0
 629 021f 08       		.uleb128 0x8
 630 0220 08       		.byte	0x8
 631 0221 05       		.byte	0x5
 632 0222 5A       		.byte	0x5a
 633 0223 40020000 		.4byte	0x240
 634 0227 06       		.uleb128 0x6
 635 0228 3B050000 		.4byte	.LASF26
 636 022c 05       		.byte	0x5
 637 022d 5B       		.byte	0x5b
 638 022e 40020000 		.4byte	0x240
 639 0232 00       		.byte	0
 640 0233 06       		.uleb128 0x6
 641 0234 AB050000 		.4byte	.LASF27
 642 0238 05       		.byte	0x5
 643 0239 5D       		.byte	0x5d
 644 023a 40020000 		.4byte	0x240
 645 023e 04       		.byte	0x4
 646 023f 00       		.byte	0
 647 0240 09       		.uleb128 0x9
 648 0241 04       		.byte	0x4
 649 0242 17010000 		.4byte	0x117
 650 0246 03       		.uleb128 0x3
 651 0247 26030000 		.4byte	.LASF45
 652 024b 05       		.byte	0x5
 653 024c 5F       		.byte	0x5f
 654 024d 1F020000 		.4byte	0x21f
 655 0251 08       		.uleb128 0x8
 656 0252 04       		.byte	0x4
 657 0253 05       		.byte	0x5
 658 0254 64       		.byte	0x64
 659 0255 66020000 		.4byte	0x266
 660 0259 06       		.uleb128 0x6
 661 025a 3B050000 		.4byte	.LASF26
 662 025e 05       		.byte	0x5
 663 025f 66       		.byte	0x66
 664 0260 40020000 		.4byte	0x240
ARM GAS  /var/folders/qh/xwg3v3kj02qbxczjpdb8lzfr0000gn/T//ccgMbDgN.s 			page 13


 665 0264 00       		.byte	0
 666 0265 00       		.byte	0
 667 0266 03       		.uleb128 0x3
 668 0267 00000000 		.4byte	.LASF46
 669 026b 05       		.byte	0x5
 670 026c 69       		.byte	0x69
 671 026d 51020000 		.4byte	0x251
 672 0271 03       		.uleb128 0x3
 673 0272 36000000 		.4byte	.LASF47
 674 0276 07       		.byte	0x7
 675 0277 A0       		.byte	0xa0
 676 0278 7C020000 		.4byte	0x27c
 677 027c 0A       		.uleb128 0xa
 678 027d 04       		.byte	0x4
 679 027e 03       		.uleb128 0x3
 680 027f 8C060000 		.4byte	.LASF48
 681 0283 07       		.byte	0x7
 682 0284 A6       		.byte	0xa6
 683 0285 9B000000 		.4byte	0x9b
 684 0289 05       		.uleb128 0x5
 685 028a 87040000 		.4byte	.LASF49
 686 028e 24       		.byte	0x24
 687 028f 07       		.byte	0x7
 688 0290 B3       		.byte	0xb3
 689 0291 FB020000 		.4byte	0x2fb
 690 0295 07       		.uleb128 0x7
 691 0296 723800   		.ascii	"r8\000"
 692 0299 07       		.byte	0x7
 693 029a B4       		.byte	0xb4
 694 029b 71020000 		.4byte	0x271
 695 029f 00       		.byte	0
 696 02a0 07       		.uleb128 0x7
 697 02a1 723900   		.ascii	"r9\000"
 698 02a4 07       		.byte	0x7
 699 02a5 B5       		.byte	0xb5
 700 02a6 71020000 		.4byte	0x271
 701 02aa 04       		.byte	0x4
 702 02ab 07       		.uleb128 0x7
 703 02ac 72313000 		.ascii	"r10\000"
 704 02b0 07       		.byte	0x7
 705 02b1 B6       		.byte	0xb6
 706 02b2 71020000 		.4byte	0x271
 707 02b6 08       		.byte	0x8
 708 02b7 07       		.uleb128 0x7
 709 02b8 72313100 		.ascii	"r11\000"
 710 02bc 07       		.byte	0x7
 711 02bd B7       		.byte	0xb7
 712 02be 71020000 		.4byte	0x271
 713 02c2 0C       		.byte	0xc
 714 02c3 07       		.uleb128 0x7
 715 02c4 723400   		.ascii	"r4\000"
 716 02c7 07       		.byte	0x7
 717 02c8 B8       		.byte	0xb8
 718 02c9 71020000 		.4byte	0x271
 719 02cd 10       		.byte	0x10
 720 02ce 07       		.uleb128 0x7
 721 02cf 723500   		.ascii	"r5\000"
ARM GAS  /var/folders/qh/xwg3v3kj02qbxczjpdb8lzfr0000gn/T//ccgMbDgN.s 			page 14


 722 02d2 07       		.byte	0x7
 723 02d3 B9       		.byte	0xb9
 724 02d4 71020000 		.4byte	0x271
 725 02d8 14       		.byte	0x14
 726 02d9 07       		.uleb128 0x7
 727 02da 723600   		.ascii	"r6\000"
 728 02dd 07       		.byte	0x7
 729 02de BA       		.byte	0xba
 730 02df 71020000 		.4byte	0x271
 731 02e3 18       		.byte	0x18
 732 02e4 07       		.uleb128 0x7
 733 02e5 723700   		.ascii	"r7\000"
 734 02e8 07       		.byte	0x7
 735 02e9 BB       		.byte	0xbb
 736 02ea 71020000 		.4byte	0x271
 737 02ee 1C       		.byte	0x1c
 738 02ef 07       		.uleb128 0x7
 739 02f0 6C7200   		.ascii	"lr\000"
 740 02f3 07       		.byte	0x7
 741 02f4 BC       		.byte	0xbc
 742 02f5 71020000 		.4byte	0x271
 743 02f9 20       		.byte	0x20
 744 02fa 00       		.byte	0
 745 02fb 05       		.uleb128 0x5
 746 02fc E8030000 		.4byte	.LASF50
 747 0300 04       		.byte	0x4
 748 0301 07       		.byte	0x7
 749 0302 C6       		.byte	0xc6
 750 0303 14030000 		.4byte	0x314
 751 0307 07       		.uleb128 0x7
 752 0308 72313300 		.ascii	"r13\000"
 753 030c 07       		.byte	0x7
 754 030d C7       		.byte	0xc7
 755 030e 14030000 		.4byte	0x314
 756 0312 00       		.byte	0
 757 0313 00       		.byte	0
 758 0314 09       		.uleb128 0x9
 759 0315 04       		.byte	0x4
 760 0316 89020000 		.4byte	0x289
 761 031a 0B       		.uleb128 0xb
 762 031b 82000000 		.4byte	0x82
 763 031f 04       		.uleb128 0x4
 764 0320 04       		.byte	0x4
 765 0321 07       		.byte	0x7
 766 0322 B2050000 		.4byte	.LASF51
 767 0326 0B       		.uleb128 0xb
 768 0327 0C010000 		.4byte	0x10c
 769 032b 08       		.uleb128 0x8
 770 032c 1C       		.byte	0x1c
 771 032d 08       		.byte	0x8
 772 032e 57       		.byte	0x57
 773 032f 7C030000 		.4byte	0x37c
 774 0333 06       		.uleb128 0x6
 775 0334 DA030000 		.4byte	.LASF52
 776 0338 08       		.byte	0x8
 777 0339 58       		.byte	0x58
 778 033a 46020000 		.4byte	0x246
ARM GAS  /var/folders/qh/xwg3v3kj02qbxczjpdb8lzfr0000gn/T//ccgMbDgN.s 			page 15


 779 033e 00       		.byte	0
 780 033f 06       		.uleb128 0x6
 781 0340 E7010000 		.4byte	.LASF53
 782 0344 08       		.byte	0x8
 783 0345 59       		.byte	0x59
 784 0346 E0000000 		.4byte	0xe0
 785 034a 08       		.byte	0x8
 786 034b 06       		.uleb128 0x6
 787 034c 86060000 		.4byte	.LASF54
 788 0350 08       		.byte	0x8
 789 0351 5B       		.byte	0x5b
 790 0352 FB020000 		.4byte	0x2fb
 791 0356 0C       		.byte	0xc
 792 0357 06       		.uleb128 0x6
 793 0358 42030000 		.4byte	.LASF55
 794 035c 08       		.byte	0x8
 795 035d 5E       		.byte	0x5e
 796 035e 40020000 		.4byte	0x240
 797 0362 10       		.byte	0x10
 798 0363 06       		.uleb128 0x6
 799 0364 0F040000 		.4byte	.LASF56
 800 0368 08       		.byte	0x8
 801 0369 5F       		.byte	0x5f
 802 036a 40020000 		.4byte	0x240
 803 036e 14       		.byte	0x14
 804 036f 06       		.uleb128 0x6
 805 0370 0E050000 		.4byte	.LASF57
 806 0374 08       		.byte	0x8
 807 0375 62       		.byte	0x62
 808 0376 40020000 		.4byte	0x240
 809 037a 18       		.byte	0x18
 810 037b 00       		.byte	0
 811 037c 03       		.uleb128 0x3
 812 037d 14060000 		.4byte	.LASF58
 813 0381 08       		.byte	0x8
 814 0382 64       		.byte	0x64
 815 0383 2B030000 		.4byte	0x32b
 816 0387 05       		.uleb128 0x5
 817 0388 D8020000 		.4byte	.LASF59
 818 038c 10       		.byte	0x10
 819 038d 09       		.byte	0x9
 820 038e 25       		.byte	0x25
 821 038f B8030000 		.4byte	0x3b8
 822 0393 06       		.uleb128 0x6
 823 0394 23050000 		.4byte	.LASF60
 824 0398 09       		.byte	0x9
 825 0399 26       		.byte	0x26
 826 039a 46020000 		.4byte	0x246
 827 039e 00       		.byte	0
 828 039f 06       		.uleb128 0x6
 829 03a0 50000000 		.4byte	.LASF61
 830 03a4 09       		.byte	0x9
 831 03a5 28       		.byte	0x28
 832 03a6 40020000 		.4byte	0x240
 833 03aa 08       		.byte	0x8
 834 03ab 06       		.uleb128 0x6
 835 03ac 5A060000 		.4byte	.LASF62
ARM GAS  /var/folders/qh/xwg3v3kj02qbxczjpdb8lzfr0000gn/T//ccgMbDgN.s 			page 16


 836 03b0 09       		.byte	0x9
 837 03b1 2A       		.byte	0x2a
 838 03b2 B8030000 		.4byte	0x3b8
 839 03b6 0C       		.byte	0xc
 840 03b7 00       		.byte	0
 841 03b8 09       		.uleb128 0x9
 842 03b9 04       		.byte	0x4
 843 03ba 87030000 		.4byte	0x387
 844 03be 03       		.uleb128 0x3
 845 03bf D8020000 		.4byte	.LASF59
 846 03c3 09       		.byte	0x9
 847 03c4 2C       		.byte	0x2c
 848 03c5 87030000 		.4byte	0x387
 849 03c9 03       		.uleb128 0x3
 850 03ca C3050000 		.4byte	.LASF63
 851 03ce 0A       		.byte	0xa
 852 03cf 25       		.byte	0x25
 853 03d0 D4030000 		.4byte	0x3d4
 854 03d4 05       		.uleb128 0x5
 855 03d5 C3050000 		.4byte	.LASF63
 856 03d9 10       		.byte	0x10
 857 03da 0A       		.byte	0xa
 858 03db 2A       		.byte	0x2a
 859 03dc 11040000 		.4byte	0x411
 860 03e0 06       		.uleb128 0x6
 861 03e1 42040000 		.4byte	.LASF64
 862 03e5 0A       		.byte	0xa
 863 03e6 2B       		.byte	0x2b
 864 03e7 11040000 		.4byte	0x411
 865 03eb 00       		.byte	0
 866 03ec 06       		.uleb128 0x6
 867 03ed 67050000 		.4byte	.LASF65
 868 03f1 0A       		.byte	0xa
 869 03f2 2E       		.byte	0x2e
 870 03f3 40020000 		.4byte	0x240
 871 03f7 04       		.byte	0x4
 872 03f8 06       		.uleb128 0x6
 873 03f9 98000000 		.4byte	.LASF66
 874 03fd 0A       		.byte	0xa
 875 03fe 30       		.byte	0x30
 876 03ff F6000000 		.4byte	0xf6
 877 0403 08       		.byte	0x8
 878 0404 06       		.uleb128 0x6
 879 0405 9C060000 		.4byte	.LASF67
 880 0409 0A       		.byte	0xa
 881 040a 33       		.byte	0x33
 882 040b 01010000 		.4byte	0x101
 883 040f 0C       		.byte	0xc
 884 0410 00       		.byte	0
 885 0411 09       		.uleb128 0x9
 886 0412 04       		.byte	0x4
 887 0413 C9030000 		.4byte	0x3c9
 888 0417 05       		.uleb128 0x5
 889 0418 24040000 		.4byte	.LASF68
 890 041c 04       		.byte	0x4
 891 041d 0A       		.byte	0xa
 892 041e 3A       		.byte	0x3a
ARM GAS  /var/folders/qh/xwg3v3kj02qbxczjpdb8lzfr0000gn/T//ccgMbDgN.s 			page 17


 893 041f 30040000 		.4byte	0x430
 894 0423 06       		.uleb128 0x6
 895 0424 33060000 		.4byte	.LASF69
 896 0428 0A       		.byte	0xa
 897 0429 3B       		.byte	0x3b
 898 042a 11040000 		.4byte	0x411
 899 042e 00       		.byte	0
 900 042f 00       		.byte	0
 901 0430 03       		.uleb128 0x3
 902 0431 24040000 		.4byte	.LASF68
 903 0435 0A       		.byte	0xa
 904 0436 3E       		.byte	0x3e
 905 0437 17040000 		.4byte	0x417
 906 043b 0C       		.uleb128 0xc
 907 043c 04       		.byte	0x4
 908 043d 06       		.byte	0x6
 909 043e 8F       		.byte	0x8f
 910 043f 70040000 		.4byte	0x470
 911 0443 0D       		.uleb128 0xd
 912 0444 B5020000 		.4byte	.LASF70
 913 0448 06       		.byte	0x6
 914 0449 96       		.byte	0x96
 915 044a EB000000 		.4byte	0xeb
 916 044e 0D       		.uleb128 0xd
 917 044f A5060000 		.4byte	.LASF71
 918 0453 06       		.byte	0x6
 919 0454 9D       		.byte	0x9d
 920 0455 EB000000 		.4byte	0xeb
 921 0459 0D       		.uleb128 0xd
 922 045a B8000000 		.4byte	.LASF72
 923 045e 06       		.byte	0x6
 924 045f A4       		.byte	0xa4
 925 0460 7C020000 		.4byte	0x27c
 926 0464 0D       		.uleb128 0xd
 927 0465 A6010000 		.4byte	.LASF73
 928 0469 06       		.byte	0x6
 929 046a AB       		.byte	0xab
 930 046b F6000000 		.4byte	0xf6
 931 046f 00       		.byte	0
 932 0470 09       		.uleb128 0x9
 933 0471 04       		.byte	0x4
 934 0472 76040000 		.4byte	0x476
 935 0476 0E       		.uleb128 0xe
 936 0477 7B040000 		.4byte	0x47b
 937 047b 04       		.uleb128 0x4
 938 047c 01       		.byte	0x1
 939 047d 08       		.byte	0x8
 940 047e 33030000 		.4byte	.LASF74
 941 0482 09       		.uleb128 0x9
 942 0483 04       		.byte	0x4
 943 0484 BE030000 		.4byte	0x3be
 944 0488 03       		.uleb128 0x3
 945 0489 13020000 		.4byte	.LASF75
 946 048d 06       		.byte	0x6
 947 048e DE       		.byte	0xde
 948 048f 93040000 		.4byte	0x493
 949 0493 09       		.uleb128 0x9
ARM GAS  /var/folders/qh/xwg3v3kj02qbxczjpdb8lzfr0000gn/T//ccgMbDgN.s 			page 18


 950 0494 04       		.byte	0x4
 951 0495 99040000 		.4byte	0x499
 952 0499 0F       		.uleb128 0xf
 953 049a EB000000 		.4byte	0xeb
 954 049e A8040000 		.4byte	0x4a8
 955 04a2 10       		.uleb128 0x10
 956 04a3 7C020000 		.4byte	0x27c
 957 04a7 00       		.byte	0
 958 04a8 03       		.uleb128 0x3
 959 04a9 6A040000 		.4byte	.LASF76
 960 04ad 0B       		.byte	0xb
 961 04ae 30       		.byte	0x30
 962 04af B3040000 		.4byte	0x4b3
 963 04b3 05       		.uleb128 0x5
 964 04b4 6A040000 		.4byte	.LASF76
 965 04b8 24       		.byte	0x24
 966 04b9 0B       		.byte	0xb
 967 04ba 3E       		.byte	0x3e
 968 04bb 20050000 		.4byte	0x520
 969 04bf 06       		.uleb128 0x6
 970 04c0 64020000 		.4byte	.LASF77
 971 04c4 0B       		.byte	0xb
 972 04c5 3F       		.byte	0x3f
 973 04c6 46020000 		.4byte	0x246
 974 04ca 00       		.byte	0
 975 04cb 06       		.uleb128 0x6
 976 04cc 96050000 		.4byte	.LASF78
 977 04d0 0B       		.byte	0xb
 978 04d1 40       		.byte	0x40
 979 04d2 2C000000 		.4byte	0x2c
 980 04d6 08       		.byte	0x8
 981 04d7 06       		.uleb128 0x6
 982 04d8 D1030000 		.4byte	.LASF79
 983 04dc 0B       		.byte	0xb
 984 04dd 41       		.byte	0x41
 985 04de 42050000 		.4byte	0x542
 986 04e2 0C       		.byte	0xc
 987 04e3 06       		.uleb128 0x6
 988 04e4 A5050000 		.4byte	.LASF80
 989 04e8 0B       		.byte	0xb
 990 04e9 42       		.byte	0x42
 991 04ea 42050000 		.4byte	0x542
 992 04ee 10       		.byte	0x10
 993 04ef 06       		.uleb128 0x6
 994 04f0 4A030000 		.4byte	.LASF81
 995 04f4 0B       		.byte	0xb
 996 04f5 44       		.byte	0x44
 997 04f6 42050000 		.4byte	0x542
 998 04fa 14       		.byte	0x14
 999 04fb 06       		.uleb128 0x6
 1000 04fc 86000000 		.4byte	.LASF82
 1001 0500 0B       		.byte	0xb
 1002 0501 45       		.byte	0x45
 1003 0502 42050000 		.4byte	0x542
 1004 0506 18       		.byte	0x18
 1005 0507 06       		.uleb128 0x6
 1006 0508 EA020000 		.4byte	.LASF83
ARM GAS  /var/folders/qh/xwg3v3kj02qbxczjpdb8lzfr0000gn/T//ccgMbDgN.s 			page 19


 1007 050c 0B       		.byte	0xb
 1008 050d 46       		.byte	0x46
 1009 050e 20050000 		.4byte	0x520
 1010 0512 1C       		.byte	0x1c
 1011 0513 06       		.uleb128 0x6
 1012 0514 BF000000 		.4byte	.LASF84
 1013 0518 0B       		.byte	0xb
 1014 0519 47       		.byte	0x47
 1015 051a 7C020000 		.4byte	0x27c
 1016 051e 20       		.byte	0x20
 1017 051f 00       		.byte	0
 1018 0520 03       		.uleb128 0x3
 1019 0521 8E000000 		.4byte	.LASF85
 1020 0525 0B       		.byte	0xb
 1021 0526 33       		.byte	0x33
 1022 0527 2B050000 		.4byte	0x52b
 1023 052b 09       		.uleb128 0x9
 1024 052c 04       		.byte	0x4
 1025 052d 31050000 		.4byte	0x531
 1026 0531 11       		.uleb128 0x11
 1027 0532 3C050000 		.4byte	0x53c
 1028 0536 10       		.uleb128 0x10
 1029 0537 3C050000 		.4byte	0x53c
 1030 053b 00       		.byte	0
 1031 053c 09       		.uleb128 0x9
 1032 053d 04       		.byte	0x4
 1033 053e A8040000 		.4byte	0x4a8
 1034 0542 09       		.uleb128 0x9
 1035 0543 04       		.byte	0x4
 1036 0544 45000000 		.4byte	0x45
 1037 0548 03       		.uleb128 0x3
 1038 0549 1B030000 		.4byte	.LASF86
 1039 054d 0B       		.byte	0xb
 1040 054e 7B       		.byte	0x7b
 1041 054f A8040000 		.4byte	0x4a8
 1042 0553 03       		.uleb128 0x3
 1043 0554 DE020000 		.4byte	.LASF87
 1044 0558 0B       		.byte	0xb
 1045 0559 EE       		.byte	0xee
 1046 055a A8040000 		.4byte	0x4a8
 1047 055e 05       		.uleb128 0x5
 1048 055f A0000000 		.4byte	.LASF88
 1049 0563 10       		.byte	0x10
 1050 0564 0C       		.byte	0xc
 1051 0565 41       		.byte	0x41
 1052 0566 9B050000 		.4byte	0x59b
 1053 056a 06       		.uleb128 0x6
 1054 056b CB030000 		.4byte	.LASF89
 1055 056f 0C       		.byte	0xc
 1056 0570 42       		.byte	0x42
 1057 0571 BF050000 		.4byte	0x5bf
 1058 0575 00       		.byte	0
 1059 0576 06       		.uleb128 0x6
 1060 0577 62050000 		.4byte	.LASF90
 1061 057b 0C       		.byte	0xc
 1062 057c 42       		.byte	0x42
 1063 057d DE050000 		.4byte	0x5de
ARM GAS  /var/folders/qh/xwg3v3kj02qbxczjpdb8lzfr0000gn/T//ccgMbDgN.s 			page 20


 1064 0581 04       		.byte	0x4
 1065 0582 07       		.uleb128 0x7
 1066 0583 70757400 		.ascii	"put\000"
 1067 0587 0C       		.byte	0xc
 1068 0588 42       		.byte	0x42
 1069 0589 F8050000 		.4byte	0x5f8
 1070 058d 08       		.byte	0x8
 1071 058e 07       		.uleb128 0x7
 1072 058f 67657400 		.ascii	"get\000"
 1073 0593 0C       		.byte	0xc
 1074 0594 42       		.byte	0x42
 1075 0595 93040000 		.4byte	0x493
 1076 0599 0C       		.byte	0xc
 1077 059a 00       		.byte	0
 1078 059b 0F       		.uleb128 0xf
 1079 059c 2C000000 		.4byte	0x2c
 1080 05a0 B4050000 		.4byte	0x5b4
 1081 05a4 10       		.uleb128 0x10
 1082 05a5 7C020000 		.4byte	0x27c
 1083 05a9 10       		.uleb128 0x10
 1084 05aa B4050000 		.4byte	0x5b4
 1085 05ae 10       		.uleb128 0x10
 1086 05af 2C000000 		.4byte	0x2c
 1087 05b3 00       		.byte	0
 1088 05b4 09       		.uleb128 0x9
 1089 05b5 04       		.byte	0x4
 1090 05b6 BA050000 		.4byte	0x5ba
 1091 05ba 0E       		.uleb128 0xe
 1092 05bb 45000000 		.4byte	0x45
 1093 05bf 09       		.uleb128 0x9
 1094 05c0 04       		.byte	0x4
 1095 05c1 9B050000 		.4byte	0x59b
 1096 05c5 0F       		.uleb128 0xf
 1097 05c6 2C000000 		.4byte	0x2c
 1098 05ca DE050000 		.4byte	0x5de
 1099 05ce 10       		.uleb128 0x10
 1100 05cf 7C020000 		.4byte	0x27c
 1101 05d3 10       		.uleb128 0x10
 1102 05d4 42050000 		.4byte	0x542
 1103 05d8 10       		.uleb128 0x10
 1104 05d9 2C000000 		.4byte	0x2c
 1105 05dd 00       		.byte	0
 1106 05de 09       		.uleb128 0x9
 1107 05df 04       		.byte	0x4
 1108 05e0 C5050000 		.4byte	0x5c5
 1109 05e4 0F       		.uleb128 0xf
 1110 05e5 EB000000 		.4byte	0xeb
 1111 05e9 F8050000 		.4byte	0x5f8
 1112 05ed 10       		.uleb128 0x10
 1113 05ee 7C020000 		.4byte	0x27c
 1114 05f2 10       		.uleb128 0x10
 1115 05f3 45000000 		.4byte	0x45
 1116 05f7 00       		.byte	0
 1117 05f8 09       		.uleb128 0x9
 1118 05f9 04       		.byte	0x4
 1119 05fa E4050000 		.4byte	0x5e4
 1120 05fe 08       		.uleb128 0x8
ARM GAS  /var/folders/qh/xwg3v3kj02qbxczjpdb8lzfr0000gn/T//ccgMbDgN.s 			page 21


 1121 05ff 04       		.byte	0x4
 1122 0600 0C       		.byte	0xc
 1123 0601 4A       		.byte	0x4a
 1124 0602 13060000 		.4byte	0x613
 1125 0606 07       		.uleb128 0x7
 1126 0607 766D7400 		.ascii	"vmt\000"
 1127 060b 0C       		.byte	0xc
 1128 060c 4C       		.byte	0x4c
 1129 060d 13060000 		.4byte	0x613
 1130 0611 00       		.byte	0
 1131 0612 00       		.byte	0
 1132 0613 09       		.uleb128 0x9
 1133 0614 04       		.byte	0x4
 1134 0615 19060000 		.4byte	0x619
 1135 0619 0E       		.uleb128 0xe
 1136 061a 5E050000 		.4byte	0x55e
 1137 061e 03       		.uleb128 0x3
 1138 061f 06030000 		.4byte	.LASF91
 1139 0623 0C       		.byte	0xc
 1140 0624 4E       		.byte	0x4e
 1141 0625 FE050000 		.4byte	0x5fe
 1142 0629 0B       		.uleb128 0xb
 1143 062a 5E000000 		.4byte	0x5e
 1144 062e 12       		.uleb128 0x12
 1145 062f 2C       		.byte	0x2c
 1146 0630 0D       		.byte	0xd
 1147 0631 AA02     		.2byte	0x2aa
 1148 0633 08070000 		.4byte	0x708
 1149 0637 13       		.uleb128 0x13
 1150 0638 43523100 		.ascii	"CR1\000"
 1151 063c 0D       		.byte	0xd
 1152 063d AC02     		.2byte	0x2ac
 1153 063f 1A030000 		.4byte	0x31a
 1154 0643 00       		.byte	0
 1155 0644 13       		.uleb128 0x13
 1156 0645 43523200 		.ascii	"CR2\000"
 1157 0649 0D       		.byte	0xd
 1158 064a AD02     		.2byte	0x2ad
 1159 064c 1A030000 		.4byte	0x31a
 1160 0650 04       		.byte	0x4
 1161 0651 13       		.uleb128 0x13
 1162 0652 43523300 		.ascii	"CR3\000"
 1163 0656 0D       		.byte	0xd
 1164 0657 AE02     		.2byte	0x2ae
 1165 0659 1A030000 		.4byte	0x31a
 1166 065d 08       		.byte	0x8
 1167 065e 13       		.uleb128 0x13
 1168 065f 42525200 		.ascii	"BRR\000"
 1169 0663 0D       		.byte	0xd
 1170 0664 AF02     		.2byte	0x2af
 1171 0666 29060000 		.4byte	0x629
 1172 066a 0C       		.byte	0xc
 1173 066b 14       		.uleb128 0x14
 1174 066c D2040000 		.4byte	.LASF92
 1175 0670 0D       		.byte	0xd
 1176 0671 B002     		.2byte	0x2b0
 1177 0673 5E000000 		.4byte	0x5e
ARM GAS  /var/folders/qh/xwg3v3kj02qbxczjpdb8lzfr0000gn/T//ccgMbDgN.s 			page 22


 1178 0677 0E       		.byte	0xe
 1179 0678 14       		.uleb128 0x14
 1180 0679 BA010000 		.4byte	.LASF93
 1181 067d 0D       		.byte	0xd
 1182 067e B102     		.2byte	0x2b1
 1183 0680 29060000 		.4byte	0x629
 1184 0684 10       		.byte	0x10
 1185 0685 14       		.uleb128 0x14
 1186 0686 DC040000 		.4byte	.LASF94
 1187 068a 0D       		.byte	0xd
 1188 068b B202     		.2byte	0x2b2
 1189 068d 5E000000 		.4byte	0x5e
 1190 0691 12       		.byte	0x12
 1191 0692 14       		.uleb128 0x14
 1192 0693 A0030000 		.4byte	.LASF95
 1193 0697 0D       		.byte	0xd
 1194 0698 B302     		.2byte	0x2b3
 1195 069a 1A030000 		.4byte	0x31a
 1196 069e 14       		.byte	0x14
 1197 069f 13       		.uleb128 0x13
 1198 06a0 52515200 		.ascii	"RQR\000"
 1199 06a4 0D       		.byte	0xd
 1200 06a5 B402     		.2byte	0x2b4
 1201 06a7 29060000 		.4byte	0x629
 1202 06ab 18       		.byte	0x18
 1203 06ac 14       		.uleb128 0x14
 1204 06ad E6040000 		.4byte	.LASF96
 1205 06b1 0D       		.byte	0xd
 1206 06b2 B502     		.2byte	0x2b5
 1207 06b4 5E000000 		.4byte	0x5e
 1208 06b8 1A       		.byte	0x1a
 1209 06b9 13       		.uleb128 0x13
 1210 06ba 49535200 		.ascii	"ISR\000"
 1211 06be 0D       		.byte	0xd
 1212 06bf B602     		.2byte	0x2b6
 1213 06c1 1A030000 		.4byte	0x31a
 1214 06c5 1C       		.byte	0x1c
 1215 06c6 13       		.uleb128 0x13
 1216 06c7 49435200 		.ascii	"ICR\000"
 1217 06cb 0D       		.byte	0xd
 1218 06cc B702     		.2byte	0x2b7
 1219 06ce 1A030000 		.4byte	0x31a
 1220 06d2 20       		.byte	0x20
 1221 06d3 13       		.uleb128 0x13
 1222 06d4 52445200 		.ascii	"RDR\000"
 1223 06d8 0D       		.byte	0xd
 1224 06d9 B802     		.2byte	0x2b8
 1225 06db 29060000 		.4byte	0x629
 1226 06df 24       		.byte	0x24
 1227 06e0 14       		.uleb128 0x14
 1228 06e1 F0040000 		.4byte	.LASF97
 1229 06e5 0D       		.byte	0xd
 1230 06e6 B902     		.2byte	0x2b9
 1231 06e8 5E000000 		.4byte	0x5e
 1232 06ec 26       		.byte	0x26
 1233 06ed 13       		.uleb128 0x13
 1234 06ee 54445200 		.ascii	"TDR\000"
ARM GAS  /var/folders/qh/xwg3v3kj02qbxczjpdb8lzfr0000gn/T//ccgMbDgN.s 			page 23


 1235 06f2 0D       		.byte	0xd
 1236 06f3 BA02     		.2byte	0x2ba
 1237 06f5 29060000 		.4byte	0x629
 1238 06f9 28       		.byte	0x28
 1239 06fa 14       		.uleb128 0x14
 1240 06fb FA040000 		.4byte	.LASF98
 1241 06ff 0D       		.byte	0xd
 1242 0700 BB02     		.2byte	0x2bb
 1243 0702 5E000000 		.4byte	0x5e
 1244 0706 2A       		.byte	0x2a
 1245 0707 00       		.byte	0
 1246 0708 15       		.uleb128 0x15
 1247 0709 CA020000 		.4byte	.LASF99
 1248 070d 0D       		.byte	0xd
 1249 070e BC02     		.2byte	0x2bc
 1250 0710 2E060000 		.4byte	0x62e
 1251 0714 0F       		.uleb128 0xf
 1252 0715 EB000000 		.4byte	0xeb
 1253 0719 2D070000 		.4byte	0x72d
 1254 071d 10       		.uleb128 0x10
 1255 071e 7C020000 		.4byte	0x27c
 1256 0722 10       		.uleb128 0x10
 1257 0723 45000000 		.4byte	0x45
 1258 0727 10       		.uleb128 0x10
 1259 0728 0C010000 		.4byte	0x10c
 1260 072c 00       		.byte	0
 1261 072d 09       		.uleb128 0x9
 1262 072e 04       		.byte	0x4
 1263 072f 14070000 		.4byte	0x714
 1264 0733 0F       		.uleb128 0xf
 1265 0734 EB000000 		.4byte	0xeb
 1266 0738 47070000 		.4byte	0x747
 1267 073c 10       		.uleb128 0x10
 1268 073d 7C020000 		.4byte	0x27c
 1269 0741 10       		.uleb128 0x10
 1270 0742 0C010000 		.4byte	0x10c
 1271 0746 00       		.byte	0
 1272 0747 09       		.uleb128 0x9
 1273 0748 04       		.byte	0x4
 1274 0749 33070000 		.4byte	0x733
 1275 074d 0F       		.uleb128 0xf
 1276 074e 2C000000 		.4byte	0x2c
 1277 0752 6B070000 		.4byte	0x76b
 1278 0756 10       		.uleb128 0x10
 1279 0757 7C020000 		.4byte	0x27c
 1280 075b 10       		.uleb128 0x10
 1281 075c B4050000 		.4byte	0x5b4
 1282 0760 10       		.uleb128 0x10
 1283 0761 2C000000 		.4byte	0x2c
 1284 0765 10       		.uleb128 0x10
 1285 0766 0C010000 		.4byte	0x10c
 1286 076a 00       		.byte	0
 1287 076b 09       		.uleb128 0x9
 1288 076c 04       		.byte	0x4
 1289 076d 4D070000 		.4byte	0x74d
 1290 0771 0F       		.uleb128 0xf
 1291 0772 2C000000 		.4byte	0x2c
ARM GAS  /var/folders/qh/xwg3v3kj02qbxczjpdb8lzfr0000gn/T//ccgMbDgN.s 			page 24


 1292 0776 8F070000 		.4byte	0x78f
 1293 077a 10       		.uleb128 0x10
 1294 077b 7C020000 		.4byte	0x27c
 1295 077f 10       		.uleb128 0x10
 1296 0780 42050000 		.4byte	0x542
 1297 0784 10       		.uleb128 0x10
 1298 0785 2C000000 		.4byte	0x2c
 1299 0789 10       		.uleb128 0x10
 1300 078a 0C010000 		.4byte	0x10c
 1301 078e 00       		.byte	0
 1302 078f 09       		.uleb128 0x9
 1303 0790 04       		.byte	0x4
 1304 0791 71070000 		.4byte	0x771
 1305 0795 08       		.uleb128 0x8
 1306 0796 04       		.byte	0x4
 1307 0797 0E       		.byte	0xe
 1308 0798 96       		.byte	0x96
 1309 0799 B6070000 		.4byte	0x7b6
 1310 079d 07       		.uleb128 0x7
 1311 079e 73657400 		.ascii	"set\000"
 1312 07a2 0E       		.byte	0xe
 1313 07a3 97       		.byte	0x97
 1314 07a4 5E000000 		.4byte	0x5e
 1315 07a8 00       		.byte	0
 1316 07a9 06       		.uleb128 0x6
 1317 07aa 5E020000 		.4byte	.LASF100
 1318 07ae 0E       		.byte	0xe
 1319 07af 98       		.byte	0x98
 1320 07b0 5E000000 		.4byte	0x5e
 1321 07b4 02       		.byte	0x2
 1322 07b5 00       		.byte	0
 1323 07b6 0C       		.uleb128 0xc
 1324 07b7 04       		.byte	0x4
 1325 07b8 0E       		.byte	0xe
 1326 07b9 94       		.byte	0x94
 1327 07ba D1070000 		.4byte	0x7d1
 1328 07be 16       		.uleb128 0x16
 1329 07bf 5700     		.ascii	"W\000"
 1330 07c1 0E       		.byte	0xe
 1331 07c2 95       		.byte	0x95
 1332 07c3 82000000 		.4byte	0x82
 1333 07c7 16       		.uleb128 0x16
 1334 07c8 4800     		.ascii	"H\000"
 1335 07ca 0E       		.byte	0xe
 1336 07cb 99       		.byte	0x99
 1337 07cc 95070000 		.4byte	0x795
 1338 07d0 00       		.byte	0
 1339 07d1 08       		.uleb128 0x8
 1340 07d2 28       		.byte	0x28
 1341 07d3 0E       		.byte	0xe
 1342 07d4 8C       		.byte	0x8c
 1343 07d5 52080000 		.4byte	0x852
 1344 07d9 06       		.uleb128 0x6
 1345 07da 3A020000 		.4byte	.LASF101
 1346 07de 0E       		.byte	0xe
 1347 07df 8E       		.byte	0x8e
 1348 07e0 1A030000 		.4byte	0x31a
ARM GAS  /var/folders/qh/xwg3v3kj02qbxczjpdb8lzfr0000gn/T//ccgMbDgN.s 			page 25


 1349 07e4 00       		.byte	0
 1350 07e5 06       		.uleb128 0x6
 1351 07e6 34050000 		.4byte	.LASF102
 1352 07ea 0E       		.byte	0xe
 1353 07eb 8F       		.byte	0x8f
 1354 07ec 1A030000 		.4byte	0x31a
 1355 07f0 04       		.byte	0x4
 1356 07f1 06       		.uleb128 0x6
 1357 07f2 62040000 		.4byte	.LASF103
 1358 07f6 0E       		.byte	0xe
 1359 07f7 90       		.byte	0x90
 1360 07f8 1A030000 		.4byte	0x31a
 1361 07fc 08       		.byte	0x8
 1362 07fd 06       		.uleb128 0x6
 1363 07fe F9020000 		.4byte	.LASF104
 1364 0802 0E       		.byte	0xe
 1365 0803 91       		.byte	0x91
 1366 0804 1A030000 		.4byte	0x31a
 1367 0808 0C       		.byte	0xc
 1368 0809 07       		.uleb128 0x7
 1369 080a 49445200 		.ascii	"IDR\000"
 1370 080e 0E       		.byte	0xe
 1371 080f 92       		.byte	0x92
 1372 0810 1A030000 		.4byte	0x31a
 1373 0814 10       		.byte	0x10
 1374 0815 07       		.uleb128 0x7
 1375 0816 4F445200 		.ascii	"ODR\000"
 1376 081a 0E       		.byte	0xe
 1377 081b 93       		.byte	0x93
 1378 081c 1A030000 		.4byte	0x31a
 1379 0820 14       		.byte	0x14
 1380 0821 06       		.uleb128 0x6
 1381 0822 31000000 		.4byte	.LASF105
 1382 0826 0E       		.byte	0xe
 1383 0827 9A       		.byte	0x9a
 1384 0828 52080000 		.4byte	0x852
 1385 082c 18       		.byte	0x18
 1386 082d 06       		.uleb128 0x6
 1387 082e AE060000 		.4byte	.LASF106
 1388 0832 0E       		.byte	0xe
 1389 0833 9B       		.byte	0x9b
 1390 0834 1A030000 		.4byte	0x31a
 1391 0838 1C       		.byte	0x1c
 1392 0839 06       		.uleb128 0x6
 1393 083a 51020000 		.4byte	.LASF107
 1394 083e 0E       		.byte	0xe
 1395 083f 9C       		.byte	0x9c
 1396 0840 1A030000 		.4byte	0x31a
 1397 0844 20       		.byte	0x20
 1398 0845 06       		.uleb128 0x6
 1399 0846 4C020000 		.4byte	.LASF108
 1400 084a 0E       		.byte	0xe
 1401 084b 9D       		.byte	0x9d
 1402 084c 1A030000 		.4byte	0x31a
 1403 0850 24       		.byte	0x24
 1404 0851 00       		.byte	0
 1405 0852 0B       		.uleb128 0xb
ARM GAS  /var/folders/qh/xwg3v3kj02qbxczjpdb8lzfr0000gn/T//ccgMbDgN.s 			page 26


 1406 0853 B6070000 		.4byte	0x7b6
 1407 0857 03       		.uleb128 0x3
 1408 0858 7D050000 		.4byte	.LASF109
 1409 085c 0E       		.byte	0xe
 1410 085d 9E       		.byte	0x9e
 1411 085e D1070000 		.4byte	0x7d1
 1412 0862 03       		.uleb128 0x3
 1413 0863 F8030000 		.4byte	.LASF110
 1414 0867 0E       		.byte	0xe
 1415 0868 F0       		.byte	0xf0
 1416 0869 82000000 		.4byte	0x82
 1417 086d 03       		.uleb128 0x3
 1418 086e 51060000 		.4byte	.LASF111
 1419 0872 0E       		.byte	0xe
 1420 0873 F5       		.byte	0xf5
 1421 0874 82000000 		.4byte	0x82
 1422 0878 03       		.uleb128 0x3
 1423 0879 57050000 		.4byte	.LASF112
 1424 087d 0E       		.byte	0xe
 1425 087e FD       		.byte	0xfd
 1426 087f 83080000 		.4byte	0x883
 1427 0883 09       		.uleb128 0x9
 1428 0884 04       		.byte	0x4
 1429 0885 57080000 		.4byte	0x857
 1430 0889 17       		.uleb128 0x17
 1431 088a 01       		.byte	0x1
 1432 088b 0F       		.byte	0xf
 1433 088c 5D       		.byte	0x5d
 1434 088d A4080000 		.4byte	0x8a4
 1435 0891 18       		.uleb128 0x18
 1436 0892 73050000 		.4byte	.LASF113
 1437 0896 00       		.sleb128 0
 1438 0897 18       		.uleb128 0x18
 1439 0898 C2020000 		.4byte	.LASF114
 1440 089c 01       		.sleb128 1
 1441 089d 18       		.uleb128 0x18
 1442 089e A1040000 		.4byte	.LASF115
 1443 08a2 02       		.sleb128 2
 1444 08a3 00       		.byte	0
 1445 08a4 03       		.uleb128 0x3
 1446 08a5 FB010000 		.4byte	.LASF116
 1447 08a9 0F       		.byte	0xf
 1448 08aa 61       		.byte	0x61
 1449 08ab 89080000 		.4byte	0x889
 1450 08af 03       		.uleb128 0x3
 1451 08b0 16000000 		.4byte	.LASF117
 1452 08b4 0F       		.byte	0xf
 1453 08b5 66       		.byte	0x66
 1454 08b6 BA080000 		.4byte	0x8ba
 1455 08ba 05       		.uleb128 0x5
 1456 08bb 16000000 		.4byte	.LASF117
 1457 08bf 7C       		.byte	0x7c
 1458 08c0 0F       		.byte	0xf
 1459 08c1 80       		.byte	0x80
 1460 08c2 31090000 		.4byte	0x931
 1461 08c6 07       		.uleb128 0x7
 1462 08c7 766D7400 		.ascii	"vmt\000"
ARM GAS  /var/folders/qh/xwg3v3kj02qbxczjpdb8lzfr0000gn/T//ccgMbDgN.s 			page 27


 1463 08cb 0F       		.byte	0xf
 1464 08cc 82       		.byte	0x82
 1465 08cd E2090000 		.4byte	0x9e2
 1466 08d1 00       		.byte	0
 1467 08d2 06       		.uleb128 0x6
 1468 08d3 05020000 		.4byte	.LASF118
 1469 08d7 0F       		.byte	0xf
 1470 08d8 83       		.byte	0x83
 1471 08d9 30040000 		.4byte	0x430
 1472 08dd 04       		.byte	0x4
 1473 08de 06       		.uleb128 0x6
 1474 08df 3B060000 		.4byte	.LASF119
 1475 08e3 0F       		.byte	0xf
 1476 08e4 83       		.byte	0x83
 1477 08e5 A4080000 		.4byte	0x8a4
 1478 08e9 08       		.byte	0x8
 1479 08ea 06       		.uleb128 0x6
 1480 08eb BF010000 		.4byte	.LASF120
 1481 08ef 0F       		.byte	0xf
 1482 08f0 83       		.byte	0x83
 1483 08f1 48050000 		.4byte	0x548
 1484 08f5 0C       		.byte	0xc
 1485 08f6 06       		.uleb128 0x6
 1486 08f7 77040000 		.4byte	.LASF121
 1487 08fb 0F       		.byte	0xf
 1488 08fc 83       		.byte	0x83
 1489 08fd 53050000 		.4byte	0x553
 1490 0901 30       		.byte	0x30
 1491 0902 07       		.uleb128 0x7
 1492 0903 696200   		.ascii	"ib\000"
 1493 0906 0F       		.byte	0xf
 1494 0907 83       		.byte	0x83
 1495 0908 ED090000 		.4byte	0x9ed
 1496 090c 54       		.byte	0x54
 1497 090d 07       		.uleb128 0x7
 1498 090e 6F6200   		.ascii	"ob\000"
 1499 0911 0F       		.byte	0xf
 1500 0912 83       		.byte	0x83
 1501 0913 ED090000 		.4byte	0x9ed
 1502 0917 64       		.byte	0x64
 1503 0918 06       		.uleb128 0x6
 1504 0919 B7030000 		.4byte	.LASF122
 1505 091d 0F       		.byte	0xf
 1506 091e 83       		.byte	0x83
 1507 091f FD090000 		.4byte	0x9fd
 1508 0923 74       		.byte	0x74
 1509 0924 06       		.uleb128 0x6
 1510 0925 F3020000 		.4byte	.LASF123
 1511 0929 0F       		.byte	0xf
 1512 092a 83       		.byte	0x83
 1513 092b 82000000 		.4byte	0x82
 1514 092f 78       		.byte	0x78
 1515 0930 00       		.byte	0
 1516 0931 08       		.uleb128 0x8
 1517 0932 10       		.byte	0x10
 1518 0933 10       		.byte	0x10
 1519 0934 D7       		.byte	0xd7
ARM GAS  /var/folders/qh/xwg3v3kj02qbxczjpdb8lzfr0000gn/T//ccgMbDgN.s 			page 28


 1520 0935 6A090000 		.4byte	0x96a
 1521 0939 06       		.uleb128 0x6
 1522 093a AD010000 		.4byte	.LASF124
 1523 093e 10       		.byte	0x10
 1524 093f DB       		.byte	0xdb
 1525 0940 82000000 		.4byte	0x82
 1526 0944 00       		.byte	0
 1527 0945 07       		.uleb128 0x7
 1528 0946 63723100 		.ascii	"cr1\000"
 1529 094a 10       		.byte	0x10
 1530 094b E0       		.byte	0xe0
 1531 094c 82000000 		.4byte	0x82
 1532 0950 04       		.byte	0x4
 1533 0951 07       		.uleb128 0x7
 1534 0952 63723200 		.ascii	"cr2\000"
 1535 0956 10       		.byte	0x10
 1536 0957 E4       		.byte	0xe4
 1537 0958 82000000 		.4byte	0x82
 1538 095c 08       		.byte	0x8
 1539 095d 07       		.uleb128 0x7
 1540 095e 63723300 		.ascii	"cr3\000"
 1541 0962 10       		.byte	0x10
 1542 0963 E8       		.byte	0xe8
 1543 0964 82000000 		.4byte	0x82
 1544 0968 0C       		.byte	0xc
 1545 0969 00       		.byte	0
 1546 096a 03       		.uleb128 0x3
 1547 096b EE010000 		.4byte	.LASF125
 1548 096f 10       		.byte	0x10
 1549 0970 E9       		.byte	0xe9
 1550 0971 31090000 		.4byte	0x931
 1551 0975 05       		.uleb128 0x5
 1552 0976 AA040000 		.4byte	.LASF126
 1553 097a 20       		.byte	0x20
 1554 097b 0F       		.byte	0xf
 1555 097c 75       		.byte	0x75
 1556 097d E2090000 		.4byte	0x9e2
 1557 0981 06       		.uleb128 0x6
 1558 0982 CB030000 		.4byte	.LASF89
 1559 0986 0F       		.byte	0xf
 1560 0987 76       		.byte	0x76
 1561 0988 BF050000 		.4byte	0x5bf
 1562 098c 00       		.byte	0
 1563 098d 06       		.uleb128 0x6
 1564 098e 62050000 		.4byte	.LASF90
 1565 0992 0F       		.byte	0xf
 1566 0993 76       		.byte	0x76
 1567 0994 DE050000 		.4byte	0x5de
 1568 0998 04       		.byte	0x4
 1569 0999 07       		.uleb128 0x7
 1570 099a 70757400 		.ascii	"put\000"
 1571 099e 0F       		.byte	0xf
 1572 099f 76       		.byte	0x76
 1573 09a0 F8050000 		.4byte	0x5f8
 1574 09a4 08       		.byte	0x8
 1575 09a5 07       		.uleb128 0x7
 1576 09a6 67657400 		.ascii	"get\000"
ARM GAS  /var/folders/qh/xwg3v3kj02qbxczjpdb8lzfr0000gn/T//ccgMbDgN.s 			page 29


 1577 09aa 0F       		.byte	0xf
 1578 09ab 76       		.byte	0x76
 1579 09ac 93040000 		.4byte	0x493
 1580 09b0 0C       		.byte	0xc
 1581 09b1 06       		.uleb128 0x6
 1582 09b2 6E020000 		.4byte	.LASF127
 1583 09b6 0F       		.byte	0xf
 1584 09b7 76       		.byte	0x76
 1585 09b8 2D070000 		.4byte	0x72d
 1586 09bc 10       		.byte	0x10
 1587 09bd 06       		.uleb128 0x6
 1588 09be A0050000 		.4byte	.LASF128
 1589 09c2 0F       		.byte	0xf
 1590 09c3 76       		.byte	0x76
 1591 09c4 47070000 		.4byte	0x747
 1592 09c8 14       		.byte	0x14
 1593 09c9 06       		.uleb128 0x6
 1594 09ca B3010000 		.4byte	.LASF129
 1595 09ce 0F       		.byte	0xf
 1596 09cf 76       		.byte	0x76
 1597 09d0 6B070000 		.4byte	0x76b
 1598 09d4 18       		.byte	0x18
 1599 09d5 06       		.uleb128 0x6
 1600 09d6 6D060000 		.4byte	.LASF130
 1601 09da 0F       		.byte	0xf
 1602 09db 76       		.byte	0x76
 1603 09dc 8F070000 		.4byte	0x78f
 1604 09e0 1C       		.byte	0x1c
 1605 09e1 00       		.byte	0
 1606 09e2 09       		.uleb128 0x9
 1607 09e3 04       		.byte	0x4
 1608 09e4 E8090000 		.4byte	0x9e8
 1609 09e8 0E       		.uleb128 0xe
 1610 09e9 75090000 		.4byte	0x975
 1611 09ed 19       		.uleb128 0x19
 1612 09ee 45000000 		.4byte	0x45
 1613 09f2 FD090000 		.4byte	0x9fd
 1614 09f6 1A       		.uleb128 0x1a
 1615 09f7 1F030000 		.4byte	0x31f
 1616 09fb 0F       		.byte	0xf
 1617 09fc 00       		.byte	0
 1618 09fd 09       		.uleb128 0x9
 1619 09fe 04       		.byte	0x4
 1620 09ff 08070000 		.4byte	0x708
 1621 0a03 19       		.uleb128 0x19
 1622 0a04 7E020000 		.4byte	0x27e
 1623 0a08 130A0000 		.4byte	0xa13
 1624 0a0c 1A       		.uleb128 0x1a
 1625 0a0d 1F030000 		.4byte	0x31f
 1626 0a11 25       		.byte	0x25
 1627 0a12 00       		.byte	0
 1628 0a13 03       		.uleb128 0x3
 1629 0a14 6A030000 		.4byte	.LASF131
 1630 0a18 11       		.byte	0x11
 1631 0a19 2D       		.byte	0x2d
 1632 0a1a 1E0A0000 		.4byte	0xa1e
 1633 0a1e 09       		.uleb128 0x9
ARM GAS  /var/folders/qh/xwg3v3kj02qbxczjpdb8lzfr0000gn/T//ccgMbDgN.s 			page 30


 1634 0a1f 04       		.byte	0x4
 1635 0a20 240A0000 		.4byte	0xa24
 1636 0a24 11       		.uleb128 0x11
 1637 0a25 390A0000 		.4byte	0xa39
 1638 0a29 10       		.uleb128 0x10
 1639 0a2a 390A0000 		.4byte	0xa39
 1640 0a2e 10       		.uleb128 0x10
 1641 0a2f 25000000 		.4byte	0x25
 1642 0a33 10       		.uleb128 0x10
 1643 0a34 3F0A0000 		.4byte	0xa3f
 1644 0a38 00       		.byte	0
 1645 0a39 09       		.uleb128 0x9
 1646 0a3a 04       		.byte	0x4
 1647 0a3b 1E060000 		.4byte	0x61e
 1648 0a3f 09       		.uleb128 0x9
 1649 0a40 04       		.byte	0x4
 1650 0a41 450A0000 		.4byte	0xa45
 1651 0a45 09       		.uleb128 0x9
 1652 0a46 04       		.byte	0x4
 1653 0a47 7B040000 		.4byte	0x47b
 1654 0a4b 08       		.uleb128 0x8
 1655 0a4c 08       		.byte	0x8
 1656 0a4d 11       		.byte	0x11
 1657 0a4e 32       		.byte	0x32
 1658 0a4f 6C0A0000 		.4byte	0xa6c
 1659 0a53 06       		.uleb128 0x6
 1660 0a54 8E040000 		.4byte	.LASF132
 1661 0a58 11       		.byte	0x11
 1662 0a59 33       		.byte	0x33
 1663 0a5a 70040000 		.4byte	0x470
 1664 0a5e 00       		.byte	0
 1665 0a5f 06       		.uleb128 0x6
 1666 0a60 B3060000 		.4byte	.LASF133
 1667 0a64 11       		.byte	0x11
 1668 0a65 34       		.byte	0x34
 1669 0a66 130A0000 		.4byte	0xa13
 1670 0a6a 04       		.byte	0x4
 1671 0a6b 00       		.byte	0
 1672 0a6c 03       		.uleb128 0x3
 1673 0a6d BA040000 		.4byte	.LASF134
 1674 0a71 11       		.byte	0x11
 1675 0a72 35       		.byte	0x35
 1676 0a73 4B0A0000 		.4byte	0xa4b
 1677 0a77 08       		.uleb128 0x8
 1678 0a78 08       		.byte	0x8
 1679 0a79 11       		.byte	0x11
 1680 0a7a 3A       		.byte	0x3a
 1681 0a7b 980A0000 		.4byte	0xa98
 1682 0a7f 06       		.uleb128 0x6
 1683 0a80 96040000 		.4byte	.LASF135
 1684 0a84 11       		.byte	0x11
 1685 0a85 3B       		.byte	0x3b
 1686 0a86 390A0000 		.4byte	0xa39
 1687 0a8a 00       		.byte	0
 1688 0a8b 06       		.uleb128 0x6
 1689 0a8c 8A050000 		.4byte	.LASF136
 1690 0a90 11       		.byte	0x11
ARM GAS  /var/folders/qh/xwg3v3kj02qbxczjpdb8lzfr0000gn/T//ccgMbDgN.s 			page 31


 1691 0a91 3D       		.byte	0x3d
 1692 0a92 980A0000 		.4byte	0xa98
 1693 0a96 04       		.byte	0x4
 1694 0a97 00       		.byte	0
 1695 0a98 09       		.uleb128 0x9
 1696 0a99 04       		.byte	0x4
 1697 0a9a 9E0A0000 		.4byte	0xa9e
 1698 0a9e 0E       		.uleb128 0xe
 1699 0a9f 6C0A0000 		.4byte	0xa6c
 1700 0aa3 03       		.uleb128 0x3
 1701 0aa4 40020000 		.4byte	.LASF137
 1702 0aa8 11       		.byte	0x11
 1703 0aa9 3F       		.byte	0x3f
 1704 0aaa 770A0000 		.4byte	0xa77
 1705 0aae 1B       		.uleb128 0x1b
 1706 0aaf 49060000 		.4byte	.LASF138
 1707 0ab3 01       		.byte	0x1
 1708 0ab4 3C       		.byte	0x3c
 1709 0ab5 EB000000 		.4byte	0xeb
 1710 0ab9 00000000 		.4byte	.LFB42
 1711 0abd 30000000 		.4byte	.LFE42-.LFB42
 1712 0ac1 01       		.uleb128 0x1
 1713 0ac2 9C       		.byte	0x9c
 1714 0ac3 FB0A0000 		.4byte	0xafb
 1715 0ac7 1C       		.uleb128 0x1c
 1716 0ac8 61726700 		.ascii	"arg\000"
 1717 0acc 01       		.byte	0x1
 1718 0acd 3C       		.byte	0x3c
 1719 0ace 7C020000 		.4byte	0x27c
 1720 0ad2 00000000 		.4byte	.LLST0
 1721 0ad6 1D       		.uleb128 0x1d
 1722 0ad7 1A000000 		.4byte	.LVL2
 1723 0adb 380D0000 		.4byte	0xd38
 1724 0adf EA0A0000 		.4byte	0xaea
 1725 0ae3 1E       		.uleb128 0x1e
 1726 0ae4 01       		.uleb128 0x1
 1727 0ae5 50       		.byte	0x50
 1728 0ae6 02       		.uleb128 0x2
 1729 0ae7 08       		.byte	0x8
 1730 0ae8 FA       		.byte	0xfa
 1731 0ae9 00       		.byte	0
 1732 0aea 1F       		.uleb128 0x1f
 1733 0aeb 22000000 		.4byte	.LVL3
 1734 0aef 380D0000 		.4byte	0xd38
 1735 0af3 1E       		.uleb128 0x1e
 1736 0af4 01       		.uleb128 0x1
 1737 0af5 50       		.byte	0x50
 1738 0af6 02       		.uleb128 0x2
 1739 0af7 08       		.byte	0x8
 1740 0af8 FA       		.byte	0xfa
 1741 0af9 00       		.byte	0
 1742 0afa 00       		.byte	0
 1743 0afb 1B       		.uleb128 0x1b
 1744 0afc 41060000 		.4byte	.LASF139
 1745 0b00 01       		.byte	0x1
 1746 0b01 2A       		.byte	0x2a
 1747 0b02 EB000000 		.4byte	0xeb
ARM GAS  /var/folders/qh/xwg3v3kj02qbxczjpdb8lzfr0000gn/T//ccgMbDgN.s 			page 32


 1748 0b06 00000000 		.4byte	.LFB41
 1749 0b0a 34000000 		.4byte	.LFE41-.LFB41
 1750 0b0e 01       		.uleb128 0x1
 1751 0b0f 9C       		.byte	0x9c
 1752 0b10 4A0B0000 		.4byte	0xb4a
 1753 0b14 1C       		.uleb128 0x1c
 1754 0b15 61726700 		.ascii	"arg\000"
 1755 0b19 01       		.byte	0x1
 1756 0b1a 2A       		.byte	0x2a
 1757 0b1b 7C020000 		.4byte	0x27c
 1758 0b1f 21000000 		.4byte	.LLST1
 1759 0b23 1D       		.uleb128 0x1d
 1760 0b24 1C000000 		.4byte	.LVL6
 1761 0b28 380D0000 		.4byte	0xd38
 1762 0b2c 380B0000 		.4byte	0xb38
 1763 0b30 1E       		.uleb128 0x1e
 1764 0b31 01       		.uleb128 0x1
 1765 0b32 50       		.byte	0x50
 1766 0b33 03       		.uleb128 0x3
 1767 0b34 0A       		.byte	0xa
 1768 0b35 F401     		.2byte	0x1f4
 1769 0b37 00       		.byte	0
 1770 0b38 1F       		.uleb128 0x1f
 1771 0b39 26000000 		.4byte	.LVL7
 1772 0b3d 380D0000 		.4byte	0xd38
 1773 0b41 1E       		.uleb128 0x1e
 1774 0b42 01       		.uleb128 0x1
 1775 0b43 50       		.byte	0x50
 1776 0b44 03       		.uleb128 0x3
 1777 0b45 0A       		.byte	0xa
 1778 0b46 F401     		.2byte	0x1f4
 1779 0b48 00       		.byte	0
 1780 0b49 00       		.byte	0
 1781 0b4a 20       		.uleb128 0x20
 1782 0b4b 97060000 		.4byte	.LASF157
 1783 0b4f 01       		.byte	0x1
 1784 0b50 4B       		.byte	0x4b
 1785 0b51 25000000 		.4byte	0x25
 1786 0b55 00000000 		.4byte	.LFB43
 1787 0b59 AC000000 		.4byte	.LFE43-.LFB43
 1788 0b5d 01       		.uleb128 0x1
 1789 0b5e 9C       		.byte	0x9c
 1790 0b5f B30C0000 		.4byte	0xcb3
 1791 0b63 21       		.uleb128 0x21
 1792 0b64 736800   		.ascii	"sh\000"
 1793 0b67 01       		.byte	0x1
 1794 0b68 4D       		.byte	0x4d
 1795 0b69 40020000 		.4byte	0x240
 1796 0b6d 42000000 		.4byte	.LLST2
 1797 0b71 22       		.uleb128 0x22
 1798 0b72 08000000 		.4byte	.LVL9
 1799 0b76 4A0D0000 		.4byte	0xd4a
 1800 0b7a 22       		.uleb128 0x22
 1801 0b7b 0C000000 		.4byte	.LVL10
 1802 0b7f 510D0000 		.4byte	0xd51
 1803 0b83 1D       		.uleb128 0x1d
 1804 0b84 14000000 		.4byte	.LVL11
ARM GAS  /var/folders/qh/xwg3v3kj02qbxczjpdb8lzfr0000gn/T//ccgMbDgN.s 			page 33


 1805 0b88 580D0000 		.4byte	0xd58
 1806 0b8c 960B0000 		.4byte	0xb96
 1807 0b90 1E       		.uleb128 0x1e
 1808 0b91 01       		.uleb128 0x1
 1809 0b92 51       		.byte	0x51
 1810 0b93 01       		.uleb128 0x1
 1811 0b94 30       		.byte	0x30
 1812 0b95 00       		.byte	0
 1813 0b96 1D       		.uleb128 0x1d
 1814 0b97 22000000 		.4byte	.LVL12
 1815 0b9b 800D0000 		.4byte	0xd80
 1816 0b9f B80B0000 		.4byte	0xbb8
 1817 0ba3 1E       		.uleb128 0x1e
 1818 0ba4 01       		.uleb128 0x1
 1819 0ba5 52       		.byte	0x52
 1820 0ba6 02       		.uleb128 0x2
 1821 0ba7 08       		.byte	0x8
 1822 0ba8 82       		.byte	0x82
 1823 0ba9 1E       		.uleb128 0x1e
 1824 0baa 01       		.uleb128 0x1
 1825 0bab 51       		.byte	0x51
 1826 0bac 03       		.uleb128 0x3
 1827 0bad 0A       		.byte	0xa
 1828 0bae 0002     		.2byte	0x200
 1829 0bb0 1E       		.uleb128 0x1e
 1830 0bb1 01       		.uleb128 0x1
 1831 0bb2 50       		.byte	0x50
 1832 0bb3 03       		.uleb128 0x3
 1833 0bb4 42       		.byte	0x42
 1834 0bb5 4A       		.byte	0x4a
 1835 0bb6 24       		.byte	0x24
 1836 0bb7 00       		.byte	0
 1837 0bb8 1D       		.uleb128 0x1d
 1838 0bb9 30000000 		.4byte	.LVL13
 1839 0bbd 800D0000 		.4byte	0xd80
 1840 0bc1 DA0B0000 		.4byte	0xbda
 1841 0bc5 1E       		.uleb128 0x1e
 1842 0bc6 01       		.uleb128 0x1
 1843 0bc7 52       		.byte	0x52
 1844 0bc8 02       		.uleb128 0x2
 1845 0bc9 08       		.byte	0x8
 1846 0bca 82       		.byte	0x82
 1847 0bcb 1E       		.uleb128 0x1e
 1848 0bcc 01       		.uleb128 0x1
 1849 0bcd 51       		.byte	0x51
 1850 0bce 03       		.uleb128 0x3
 1851 0bcf 0A       		.byte	0xa
 1852 0bd0 0004     		.2byte	0x400
 1853 0bd2 1E       		.uleb128 0x1e
 1854 0bd3 01       		.uleb128 0x1
 1855 0bd4 50       		.byte	0x50
 1856 0bd5 03       		.uleb128 0x3
 1857 0bd6 42       		.byte	0x42
 1858 0bd7 4A       		.byte	0x4a
 1859 0bd8 24       		.byte	0x24
 1860 0bd9 00       		.byte	0
 1861 0bda 1D       		.uleb128 0x1d
ARM GAS  /var/folders/qh/xwg3v3kj02qbxczjpdb8lzfr0000gn/T//ccgMbDgN.s 			page 34


 1862 0bdb 3A000000 		.4byte	.LVL14
 1863 0bdf 800D0000 		.4byte	0xd80
 1864 0be3 FB0B0000 		.4byte	0xbfb
 1865 0be7 1E       		.uleb128 0x1e
 1866 0be8 01       		.uleb128 0x1
 1867 0be9 52       		.byte	0x52
 1868 0bea 01       		.uleb128 0x1
 1869 0beb 33       		.byte	0x33
 1870 0bec 1E       		.uleb128 0x1e
 1871 0bed 01       		.uleb128 0x1
 1872 0bee 51       		.byte	0x51
 1873 0bef 01       		.uleb128 0x1
 1874 0bf0 33       		.byte	0x33
 1875 0bf1 1E       		.uleb128 0x1e
 1876 0bf2 01       		.uleb128 0x1
 1877 0bf3 50       		.byte	0x50
 1878 0bf4 05       		.uleb128 0x5
 1879 0bf5 0C       		.byte	0xc
 1880 0bf6 00080048 		.4byte	0x48000800
 1881 0bfa 00       		.byte	0
 1882 0bfb 1D       		.uleb128 0x1d
 1883 0bfc 4C000000 		.4byte	.LVL15
 1884 0c00 9C0D0000 		.4byte	0xd9c
 1885 0c04 2F0C0000 		.4byte	0xc2f
 1886 0c08 1E       		.uleb128 0x1e
 1887 0c09 01       		.uleb128 0x1
 1888 0c0a 53       		.byte	0x53
 1889 0c0b 05       		.uleb128 0x5
 1890 0c0c 03       		.byte	0x3
 1891 0c0d 00000000 		.4byte	Thread1
 1892 0c11 1E       		.uleb128 0x1e
 1893 0c12 01       		.uleb128 0x1
 1894 0c13 52       		.byte	0x52
 1895 0c14 02       		.uleb128 0x2
 1896 0c15 08       		.byte	0x8
 1897 0c16 40       		.byte	0x40
 1898 0c17 1E       		.uleb128 0x1e
 1899 0c18 01       		.uleb128 0x1
 1900 0c19 51       		.byte	0x51
 1901 0c1a 03       		.uleb128 0x3
 1902 0c1b 0A       		.byte	0xa
 1903 0c1c 3001     		.2byte	0x130
 1904 0c1e 1E       		.uleb128 0x1e
 1905 0c1f 01       		.uleb128 0x1
 1906 0c20 50       		.byte	0x50
 1907 0c21 05       		.uleb128 0x5
 1908 0c22 03       		.byte	0x3
 1909 0c23 00000000 		.4byte	.LANCHOR0
 1910 0c27 1E       		.uleb128 0x1e
 1911 0c28 02       		.uleb128 0x2
 1912 0c29 7D       		.byte	0x7d
 1913 0c2a 00       		.sleb128 0
 1914 0c2b 02       		.uleb128 0x2
 1915 0c2c 74       		.byte	0x74
 1916 0c2d 00       		.sleb128 0
 1917 0c2e 00       		.byte	0
 1918 0c2f 1D       		.uleb128 0x1d
ARM GAS  /var/folders/qh/xwg3v3kj02qbxczjpdb8lzfr0000gn/T//ccgMbDgN.s 			page 35


 1919 0c30 5C000000 		.4byte	.LVL16
 1920 0c34 9C0D0000 		.4byte	0xd9c
 1921 0c38 630C0000 		.4byte	0xc63
 1922 0c3c 1E       		.uleb128 0x1e
 1923 0c3d 01       		.uleb128 0x1
 1924 0c3e 53       		.byte	0x53
 1925 0c3f 05       		.uleb128 0x5
 1926 0c40 03       		.byte	0x3
 1927 0c41 00000000 		.4byte	Thread2
 1928 0c45 1E       		.uleb128 0x1e
 1929 0c46 01       		.uleb128 0x1
 1930 0c47 52       		.byte	0x52
 1931 0c48 02       		.uleb128 0x2
 1932 0c49 08       		.byte	0x8
 1933 0c4a 40       		.byte	0x40
 1934 0c4b 1E       		.uleb128 0x1e
 1935 0c4c 01       		.uleb128 0x1
 1936 0c4d 51       		.byte	0x51
 1937 0c4e 03       		.uleb128 0x3
 1938 0c4f 0A       		.byte	0xa
 1939 0c50 3001     		.2byte	0x130
 1940 0c52 1E       		.uleb128 0x1e
 1941 0c53 01       		.uleb128 0x1
 1942 0c54 50       		.byte	0x50
 1943 0c55 05       		.uleb128 0x5
 1944 0c56 03       		.byte	0x3
 1945 0c57 00000000 		.4byte	.LANCHOR1
 1946 0c5b 1E       		.uleb128 0x1e
 1947 0c5c 02       		.uleb128 0x2
 1948 0c5d 7D       		.byte	0x7d
 1949 0c5e 00       		.sleb128 0
 1950 0c5f 02       		.uleb128 0x2
 1951 0c60 74       		.byte	0x74
 1952 0c61 00       		.sleb128 0
 1953 0c62 00       		.byte	0
 1954 0c63 22       		.uleb128 0x22
 1955 0c64 60000000 		.4byte	.LVL17
 1956 0c68 C60D0000 		.4byte	0xdc6
 1957 0c6c 1D       		.uleb128 0x1d
 1958 0c6d 6C000000 		.4byte	.LVL19
 1959 0c71 380D0000 		.4byte	0xd38
 1960 0c75 810C0000 		.4byte	0xc81
 1961 0c79 1E       		.uleb128 0x1e
 1962 0c7a 01       		.uleb128 0x1
 1963 0c7b 50       		.byte	0x50
 1964 0c7c 03       		.uleb128 0x3
 1965 0c7d 0A       		.byte	0xa
 1966 0c7e E803     		.2byte	0x3e8
 1967 0c80 00       		.byte	0
 1968 0c81 1D       		.uleb128 0x1d
 1969 0c82 7C000000 		.4byte	.LVL20
 1970 0c86 CD0D0000 		.4byte	0xdcd
 1971 0c8a 950C0000 		.4byte	0xc95
 1972 0c8e 1E       		.uleb128 0x1e
 1973 0c8f 01       		.uleb128 0x1
 1974 0c90 50       		.byte	0x50
 1975 0c91 02       		.uleb128 0x2
ARM GAS  /var/folders/qh/xwg3v3kj02qbxczjpdb8lzfr0000gn/T//ccgMbDgN.s 			page 36


 1976 0c92 74       		.byte	0x74
 1977 0c93 00       		.sleb128 0
 1978 0c94 00       		.byte	0
 1979 0c95 1F       		.uleb128 0x1f
 1980 0c96 8C000000 		.4byte	.LVL22
 1981 0c9a DE0D0000 		.4byte	0xdde
 1982 0c9e 1E       		.uleb128 0x1e
 1983 0c9f 01       		.uleb128 0x1
 1984 0ca0 52       		.byte	0x52
 1985 0ca1 02       		.uleb128 0x2
 1986 0ca2 08       		.byte	0x8
 1987 0ca3 40       		.byte	0x40
 1988 0ca4 1E       		.uleb128 0x1e
 1989 0ca5 01       		.uleb128 0x1
 1990 0ca6 51       		.byte	0x51
 1991 0ca7 03       		.uleb128 0x3
 1992 0ca8 0A       		.byte	0xa
 1993 0ca9 B004     		.2byte	0x4b0
 1994 0cab 1E       		.uleb128 0x1e
 1995 0cac 01       		.uleb128 0x1
 1996 0cad 50       		.byte	0x50
 1997 0cae 02       		.uleb128 0x2
 1998 0caf 75       		.byte	0x75
 1999 0cb0 00       		.sleb128 0
 2000 0cb1 00       		.byte	0
 2001 0cb2 00       		.byte	0
 2002 0cb3 19       		.uleb128 0x19
 2003 0cb4 6C0A0000 		.4byte	0xa6c
 2004 0cb8 C30C0000 		.4byte	0xcc3
 2005 0cbc 1A       		.uleb128 0x1a
 2006 0cbd 1F030000 		.4byte	0x31f
 2007 0cc1 0A       		.byte	0xa
 2008 0cc2 00       		.byte	0
 2009 0cc3 23       		.uleb128 0x23
 2010 0cc4 75030000 		.4byte	.LASF140
 2011 0cc8 12       		.byte	0x12
 2012 0cc9 39       		.byte	0x39
 2013 0cca D40C0000 		.4byte	0xcd4
 2014 0cce 05       		.uleb128 0x5
 2015 0ccf 03       		.byte	0x3
 2016 0cd0 00000000 		.4byte	shCmds
 2017 0cd4 0E       		.uleb128 0xe
 2018 0cd5 B30C0000 		.4byte	0xcb3
 2019 0cd9 23       		.uleb128 0x23
 2020 0cda C6000000 		.4byte	.LASF141
 2021 0cde 12       		.byte	0x12
 2022 0cdf 47       		.byte	0x47
 2023 0ce0 EA0C0000 		.4byte	0xcea
 2024 0ce4 05       		.uleb128 0x5
 2025 0ce5 03       		.byte	0x3
 2026 0ce6 00000000 		.4byte	shCfg
 2027 0cea 0E       		.uleb128 0xe
 2028 0ceb A30A0000 		.4byte	0xaa3
 2029 0cef 23       		.uleb128 0x23
 2030 0cf0 EB050000 		.4byte	.LASF142
 2031 0cf4 01       		.byte	0x1
 2032 0cf5 29       		.byte	0x29
ARM GAS  /var/folders/qh/xwg3v3kj02qbxczjpdb8lzfr0000gn/T//ccgMbDgN.s 			page 37


 2033 0cf6 030A0000 		.4byte	0xa03
 2034 0cfa 05       		.uleb128 0x5
 2035 0cfb 03       		.byte	0x3
 2036 0cfc 00000000 		.4byte	waThread1
 2037 0d00 23       		.uleb128 0x23
 2038 0d01 F5050000 		.4byte	.LASF143
 2039 0d05 01       		.byte	0x1
 2040 0d06 3B       		.byte	0x3b
 2041 0d07 030A0000 		.4byte	0xa03
 2042 0d0b 05       		.uleb128 0x5
 2043 0d0c 03       		.byte	0x3
 2044 0d0d 00000000 		.4byte	waThread2
 2045 0d11 24       		.uleb128 0x24
 2046 0d12 51050000 		.4byte	.LASF144
 2047 0d16 08       		.byte	0x8
 2048 0d17 68       		.byte	0x68
 2049 0d18 7C030000 		.4byte	0x37c
 2050 0d1c 25       		.uleb128 0x25
 2051 0d1d 53443100 		.ascii	"SD1\000"
 2052 0d21 10       		.byte	0x10
 2053 0d22 1101     		.2byte	0x111
 2054 0d24 AF080000 		.4byte	0x8af
 2055 0d28 26       		.uleb128 0x26
 2056 0d29 736800   		.ascii	"sh\000"
 2057 0d2c 01       		.byte	0x1
 2058 0d2d 23       		.byte	0x23
 2059 0d2e 40020000 		.4byte	0x240
 2060 0d32 05       		.uleb128 0x5
 2061 0d33 03       		.byte	0x3
 2062 0d34 00000000 		.4byte	sh
 2063 0d38 27       		.uleb128 0x27
 2064 0d39 1E060000 		.4byte	.LASF147
 2065 0d3d 06       		.byte	0x6
 2066 0d3e 6E01     		.2byte	0x16e
 2067 0d40 4A0D0000 		.4byte	0xd4a
 2068 0d44 10       		.uleb128 0x10
 2069 0d45 0C010000 		.4byte	0x10c
 2070 0d49 00       		.byte	0
 2071 0d4a 28       		.uleb128 0x28
 2072 0d4b 62030000 		.4byte	.LASF145
 2073 0d4f 13       		.byte	0x13
 2074 0d50 CA       		.byte	0xca
 2075 0d51 28       		.uleb128 0x28
 2076 0d52 38030000 		.4byte	.LASF146
 2077 0d56 14       		.byte	0x14
 2078 0d57 EF       		.byte	0xef
 2079 0d58 27       		.uleb128 0x27
 2080 0d59 32020000 		.4byte	.LASF148
 2081 0d5d 0F       		.byte	0xf
 2082 0d5e 3001     		.2byte	0x130
 2083 0d60 6F0D0000 		.4byte	0xd6f
 2084 0d64 10       		.uleb128 0x10
 2085 0d65 6F0D0000 		.4byte	0xd6f
 2086 0d69 10       		.uleb128 0x10
 2087 0d6a 750D0000 		.4byte	0xd75
 2088 0d6e 00       		.byte	0
 2089 0d6f 09       		.uleb128 0x9
ARM GAS  /var/folders/qh/xwg3v3kj02qbxczjpdb8lzfr0000gn/T//ccgMbDgN.s 			page 38


 2090 0d70 04       		.byte	0x4
 2091 0d71 AF080000 		.4byte	0x8af
 2092 0d75 09       		.uleb128 0x9
 2093 0d76 04       		.byte	0x4
 2094 0d77 7B0D0000 		.4byte	0xd7b
 2095 0d7b 0E       		.uleb128 0xe
 2096 0d7c 6A090000 		.4byte	0x96a
 2097 0d80 27       		.uleb128 0x27
 2098 0d81 70000000 		.4byte	.LASF149
 2099 0d85 0E       		.byte	0xe
 2100 0d86 C201     		.2byte	0x1c2
 2101 0d88 9C0D0000 		.4byte	0xd9c
 2102 0d8c 10       		.uleb128 0x10
 2103 0d8d 78080000 		.4byte	0x878
 2104 0d91 10       		.uleb128 0x10
 2105 0d92 62080000 		.4byte	0x862
 2106 0d96 10       		.uleb128 0x10
 2107 0d97 6D080000 		.4byte	0x86d
 2108 0d9b 00       		.byte	0
 2109 0d9c 29       		.uleb128 0x29
 2110 0d9d 30040000 		.4byte	.LASF152
 2111 0da1 06       		.byte	0x6
 2112 0da2 6901     		.2byte	0x169
 2113 0da4 40020000 		.4byte	0x240
 2114 0da8 C60D0000 		.4byte	0xdc6
 2115 0dac 10       		.uleb128 0x10
 2116 0dad 7C020000 		.4byte	0x27c
 2117 0db1 10       		.uleb128 0x10
 2118 0db2 2C000000 		.4byte	0x2c
 2119 0db6 10       		.uleb128 0x10
 2120 0db7 E0000000 		.4byte	0xe0
 2121 0dbb 10       		.uleb128 0x10
 2122 0dbc 88040000 		.4byte	0x488
 2123 0dc0 10       		.uleb128 0x10
 2124 0dc1 7C020000 		.4byte	0x27c
 2125 0dc5 00       		.byte	0
 2126 0dc6 28       		.uleb128 0x28
 2127 0dc7 58040000 		.4byte	.LASF150
 2128 0dcb 11       		.byte	0x11
 2129 0dcc 48       		.byte	0x48
 2130 0dcd 2A       		.uleb128 0x2a
 2131 0dce 17040000 		.4byte	.LASF151
 2132 0dd2 15       		.byte	0x15
 2133 0dd3 33       		.byte	0x33
 2134 0dd4 DE0D0000 		.4byte	0xdde
 2135 0dd8 10       		.uleb128 0x10
 2136 0dd9 40020000 		.4byte	0x240
 2137 0ddd 00       		.byte	0
 2138 0dde 2B       		.uleb128 0x2b
 2139 0ddf CF010000 		.4byte	.LASF153
 2140 0de3 11       		.byte	0x11
 2141 0de4 4A       		.byte	0x4a
 2142 0de5 40020000 		.4byte	0x240
 2143 0de9 FD0D0000 		.4byte	0xdfd
 2144 0ded 10       		.uleb128 0x10
 2145 0dee FD0D0000 		.4byte	0xdfd
 2146 0df2 10       		.uleb128 0x10
ARM GAS  /var/folders/qh/xwg3v3kj02qbxczjpdb8lzfr0000gn/T//ccgMbDgN.s 			page 39


 2147 0df3 2C000000 		.4byte	0x2c
 2148 0df7 10       		.uleb128 0x10
 2149 0df8 E0000000 		.4byte	0xe0
 2150 0dfc 00       		.byte	0
 2151 0dfd 09       		.uleb128 0x9
 2152 0dfe 04       		.byte	0x4
 2153 0dff EA0C0000 		.4byte	0xcea
 2154 0e03 00       		.byte	0
 2155              		.section	.debug_abbrev,"",%progbits
 2156              	.Ldebug_abbrev0:
 2157 0000 01       		.uleb128 0x1
 2158 0001 11       		.uleb128 0x11
 2159 0002 01       		.byte	0x1
 2160 0003 25       		.uleb128 0x25
 2161 0004 0E       		.uleb128 0xe
 2162 0005 13       		.uleb128 0x13
 2163 0006 0B       		.uleb128 0xb
 2164 0007 03       		.uleb128 0x3
 2165 0008 0E       		.uleb128 0xe
 2166 0009 1B       		.uleb128 0x1b
 2167 000a 0E       		.uleb128 0xe
 2168 000b 55       		.uleb128 0x55
 2169 000c 17       		.uleb128 0x17
 2170 000d 11       		.uleb128 0x11
 2171 000e 01       		.uleb128 0x1
 2172 000f 10       		.uleb128 0x10
 2173 0010 17       		.uleb128 0x17
 2174 0011 00       		.byte	0
 2175 0012 00       		.byte	0
 2176 0013 02       		.uleb128 0x2
 2177 0014 24       		.uleb128 0x24
 2178 0015 00       		.byte	0
 2179 0016 0B       		.uleb128 0xb
 2180 0017 0B       		.uleb128 0xb
 2181 0018 3E       		.uleb128 0x3e
 2182 0019 0B       		.uleb128 0xb
 2183 001a 03       		.uleb128 0x3
 2184 001b 08       		.uleb128 0x8
 2185 001c 00       		.byte	0
 2186 001d 00       		.byte	0
 2187 001e 03       		.uleb128 0x3
 2188 001f 16       		.uleb128 0x16
 2189 0020 00       		.byte	0
 2190 0021 03       		.uleb128 0x3
 2191 0022 0E       		.uleb128 0xe
 2192 0023 3A       		.uleb128 0x3a
 2193 0024 0B       		.uleb128 0xb
 2194 0025 3B       		.uleb128 0x3b
 2195 0026 0B       		.uleb128 0xb
 2196 0027 49       		.uleb128 0x49
 2197 0028 13       		.uleb128 0x13
 2198 0029 00       		.byte	0
 2199 002a 00       		.byte	0
 2200 002b 04       		.uleb128 0x4
 2201 002c 24       		.uleb128 0x24
 2202 002d 00       		.byte	0
 2203 002e 0B       		.uleb128 0xb
ARM GAS  /var/folders/qh/xwg3v3kj02qbxczjpdb8lzfr0000gn/T//ccgMbDgN.s 			page 40


 2204 002f 0B       		.uleb128 0xb
 2205 0030 3E       		.uleb128 0x3e
 2206 0031 0B       		.uleb128 0xb
 2207 0032 03       		.uleb128 0x3
 2208 0033 0E       		.uleb128 0xe
 2209 0034 00       		.byte	0
 2210 0035 00       		.byte	0
 2211 0036 05       		.uleb128 0x5
 2212 0037 13       		.uleb128 0x13
 2213 0038 01       		.byte	0x1
 2214 0039 03       		.uleb128 0x3
 2215 003a 0E       		.uleb128 0xe
 2216 003b 0B       		.uleb128 0xb
 2217 003c 0B       		.uleb128 0xb
 2218 003d 3A       		.uleb128 0x3a
 2219 003e 0B       		.uleb128 0xb
 2220 003f 3B       		.uleb128 0x3b
 2221 0040 0B       		.uleb128 0xb
 2222 0041 01       		.uleb128 0x1
 2223 0042 13       		.uleb128 0x13
 2224 0043 00       		.byte	0
 2225 0044 00       		.byte	0
 2226 0045 06       		.uleb128 0x6
 2227 0046 0D       		.uleb128 0xd
 2228 0047 00       		.byte	0
 2229 0048 03       		.uleb128 0x3
 2230 0049 0E       		.uleb128 0xe
 2231 004a 3A       		.uleb128 0x3a
 2232 004b 0B       		.uleb128 0xb
 2233 004c 3B       		.uleb128 0x3b
 2234 004d 0B       		.uleb128 0xb
 2235 004e 49       		.uleb128 0x49
 2236 004f 13       		.uleb128 0x13
 2237 0050 38       		.uleb128 0x38
 2238 0051 0B       		.uleb128 0xb
 2239 0052 00       		.byte	0
 2240 0053 00       		.byte	0
 2241 0054 07       		.uleb128 0x7
 2242 0055 0D       		.uleb128 0xd
 2243 0056 00       		.byte	0
 2244 0057 03       		.uleb128 0x3
 2245 0058 08       		.uleb128 0x8
 2246 0059 3A       		.uleb128 0x3a
 2247 005a 0B       		.uleb128 0xb
 2248 005b 3B       		.uleb128 0x3b
 2249 005c 0B       		.uleb128 0xb
 2250 005d 49       		.uleb128 0x49
 2251 005e 13       		.uleb128 0x13
 2252 005f 38       		.uleb128 0x38
 2253 0060 0B       		.uleb128 0xb
 2254 0061 00       		.byte	0
 2255 0062 00       		.byte	0
 2256 0063 08       		.uleb128 0x8
 2257 0064 13       		.uleb128 0x13
 2258 0065 01       		.byte	0x1
 2259 0066 0B       		.uleb128 0xb
 2260 0067 0B       		.uleb128 0xb
ARM GAS  /var/folders/qh/xwg3v3kj02qbxczjpdb8lzfr0000gn/T//ccgMbDgN.s 			page 41


 2261 0068 3A       		.uleb128 0x3a
 2262 0069 0B       		.uleb128 0xb
 2263 006a 3B       		.uleb128 0x3b
 2264 006b 0B       		.uleb128 0xb
 2265 006c 01       		.uleb128 0x1
 2266 006d 13       		.uleb128 0x13
 2267 006e 00       		.byte	0
 2268 006f 00       		.byte	0
 2269 0070 09       		.uleb128 0x9
 2270 0071 0F       		.uleb128 0xf
 2271 0072 00       		.byte	0
 2272 0073 0B       		.uleb128 0xb
 2273 0074 0B       		.uleb128 0xb
 2274 0075 49       		.uleb128 0x49
 2275 0076 13       		.uleb128 0x13
 2276 0077 00       		.byte	0
 2277 0078 00       		.byte	0
 2278 0079 0A       		.uleb128 0xa
 2279 007a 0F       		.uleb128 0xf
 2280 007b 00       		.byte	0
 2281 007c 0B       		.uleb128 0xb
 2282 007d 0B       		.uleb128 0xb
 2283 007e 00       		.byte	0
 2284 007f 00       		.byte	0
 2285 0080 0B       		.uleb128 0xb
 2286 0081 35       		.uleb128 0x35
 2287 0082 00       		.byte	0
 2288 0083 49       		.uleb128 0x49
 2289 0084 13       		.uleb128 0x13
 2290 0085 00       		.byte	0
 2291 0086 00       		.byte	0
 2292 0087 0C       		.uleb128 0xc
 2293 0088 17       		.uleb128 0x17
 2294 0089 01       		.byte	0x1
 2295 008a 0B       		.uleb128 0xb
 2296 008b 0B       		.uleb128 0xb
 2297 008c 3A       		.uleb128 0x3a
 2298 008d 0B       		.uleb128 0xb
 2299 008e 3B       		.uleb128 0x3b
 2300 008f 0B       		.uleb128 0xb
 2301 0090 01       		.uleb128 0x1
 2302 0091 13       		.uleb128 0x13
 2303 0092 00       		.byte	0
 2304 0093 00       		.byte	0
 2305 0094 0D       		.uleb128 0xd
 2306 0095 0D       		.uleb128 0xd
 2307 0096 00       		.byte	0
 2308 0097 03       		.uleb128 0x3
 2309 0098 0E       		.uleb128 0xe
 2310 0099 3A       		.uleb128 0x3a
 2311 009a 0B       		.uleb128 0xb
 2312 009b 3B       		.uleb128 0x3b
 2313 009c 0B       		.uleb128 0xb
 2314 009d 49       		.uleb128 0x49
 2315 009e 13       		.uleb128 0x13
 2316 009f 00       		.byte	0
 2317 00a0 00       		.byte	0
ARM GAS  /var/folders/qh/xwg3v3kj02qbxczjpdb8lzfr0000gn/T//ccgMbDgN.s 			page 42


 2318 00a1 0E       		.uleb128 0xe
 2319 00a2 26       		.uleb128 0x26
 2320 00a3 00       		.byte	0
 2321 00a4 49       		.uleb128 0x49
 2322 00a5 13       		.uleb128 0x13
 2323 00a6 00       		.byte	0
 2324 00a7 00       		.byte	0
 2325 00a8 0F       		.uleb128 0xf
 2326 00a9 15       		.uleb128 0x15
 2327 00aa 01       		.byte	0x1
 2328 00ab 27       		.uleb128 0x27
 2329 00ac 19       		.uleb128 0x19
 2330 00ad 49       		.uleb128 0x49
 2331 00ae 13       		.uleb128 0x13
 2332 00af 01       		.uleb128 0x1
 2333 00b0 13       		.uleb128 0x13
 2334 00b1 00       		.byte	0
 2335 00b2 00       		.byte	0
 2336 00b3 10       		.uleb128 0x10
 2337 00b4 05       		.uleb128 0x5
 2338 00b5 00       		.byte	0
 2339 00b6 49       		.uleb128 0x49
 2340 00b7 13       		.uleb128 0x13
 2341 00b8 00       		.byte	0
 2342 00b9 00       		.byte	0
 2343 00ba 11       		.uleb128 0x11
 2344 00bb 15       		.uleb128 0x15
 2345 00bc 01       		.byte	0x1
 2346 00bd 27       		.uleb128 0x27
 2347 00be 19       		.uleb128 0x19
 2348 00bf 01       		.uleb128 0x1
 2349 00c0 13       		.uleb128 0x13
 2350 00c1 00       		.byte	0
 2351 00c2 00       		.byte	0
 2352 00c3 12       		.uleb128 0x12
 2353 00c4 13       		.uleb128 0x13
 2354 00c5 01       		.byte	0x1
 2355 00c6 0B       		.uleb128 0xb
 2356 00c7 0B       		.uleb128 0xb
 2357 00c8 3A       		.uleb128 0x3a
 2358 00c9 0B       		.uleb128 0xb
 2359 00ca 3B       		.uleb128 0x3b
 2360 00cb 05       		.uleb128 0x5
 2361 00cc 01       		.uleb128 0x1
 2362 00cd 13       		.uleb128 0x13
 2363 00ce 00       		.byte	0
 2364 00cf 00       		.byte	0
 2365 00d0 13       		.uleb128 0x13
 2366 00d1 0D       		.uleb128 0xd
 2367 00d2 00       		.byte	0
 2368 00d3 03       		.uleb128 0x3
 2369 00d4 08       		.uleb128 0x8
 2370 00d5 3A       		.uleb128 0x3a
 2371 00d6 0B       		.uleb128 0xb
 2372 00d7 3B       		.uleb128 0x3b
 2373 00d8 05       		.uleb128 0x5
 2374 00d9 49       		.uleb128 0x49
ARM GAS  /var/folders/qh/xwg3v3kj02qbxczjpdb8lzfr0000gn/T//ccgMbDgN.s 			page 43


 2375 00da 13       		.uleb128 0x13
 2376 00db 38       		.uleb128 0x38
 2377 00dc 0B       		.uleb128 0xb
 2378 00dd 00       		.byte	0
 2379 00de 00       		.byte	0
 2380 00df 14       		.uleb128 0x14
 2381 00e0 0D       		.uleb128 0xd
 2382 00e1 00       		.byte	0
 2383 00e2 03       		.uleb128 0x3
 2384 00e3 0E       		.uleb128 0xe
 2385 00e4 3A       		.uleb128 0x3a
 2386 00e5 0B       		.uleb128 0xb
 2387 00e6 3B       		.uleb128 0x3b
 2388 00e7 05       		.uleb128 0x5
 2389 00e8 49       		.uleb128 0x49
 2390 00e9 13       		.uleb128 0x13
 2391 00ea 38       		.uleb128 0x38
 2392 00eb 0B       		.uleb128 0xb
 2393 00ec 00       		.byte	0
 2394 00ed 00       		.byte	0
 2395 00ee 15       		.uleb128 0x15
 2396 00ef 16       		.uleb128 0x16
 2397 00f0 00       		.byte	0
 2398 00f1 03       		.uleb128 0x3
 2399 00f2 0E       		.uleb128 0xe
 2400 00f3 3A       		.uleb128 0x3a
 2401 00f4 0B       		.uleb128 0xb
 2402 00f5 3B       		.uleb128 0x3b
 2403 00f6 05       		.uleb128 0x5
 2404 00f7 49       		.uleb128 0x49
 2405 00f8 13       		.uleb128 0x13
 2406 00f9 00       		.byte	0
 2407 00fa 00       		.byte	0
 2408 00fb 16       		.uleb128 0x16
 2409 00fc 0D       		.uleb128 0xd
 2410 00fd 00       		.byte	0
 2411 00fe 03       		.uleb128 0x3
 2412 00ff 08       		.uleb128 0x8
 2413 0100 3A       		.uleb128 0x3a
 2414 0101 0B       		.uleb128 0xb
 2415 0102 3B       		.uleb128 0x3b
 2416 0103 0B       		.uleb128 0xb
 2417 0104 49       		.uleb128 0x49
 2418 0105 13       		.uleb128 0x13
 2419 0106 00       		.byte	0
 2420 0107 00       		.byte	0
 2421 0108 17       		.uleb128 0x17
 2422 0109 04       		.uleb128 0x4
 2423 010a 01       		.byte	0x1
 2424 010b 0B       		.uleb128 0xb
 2425 010c 0B       		.uleb128 0xb
 2426 010d 3A       		.uleb128 0x3a
 2427 010e 0B       		.uleb128 0xb
 2428 010f 3B       		.uleb128 0x3b
 2429 0110 0B       		.uleb128 0xb
 2430 0111 01       		.uleb128 0x1
 2431 0112 13       		.uleb128 0x13
ARM GAS  /var/folders/qh/xwg3v3kj02qbxczjpdb8lzfr0000gn/T//ccgMbDgN.s 			page 44


 2432 0113 00       		.byte	0
 2433 0114 00       		.byte	0
 2434 0115 18       		.uleb128 0x18
 2435 0116 28       		.uleb128 0x28
 2436 0117 00       		.byte	0
 2437 0118 03       		.uleb128 0x3
 2438 0119 0E       		.uleb128 0xe
 2439 011a 1C       		.uleb128 0x1c
 2440 011b 0D       		.uleb128 0xd
 2441 011c 00       		.byte	0
 2442 011d 00       		.byte	0
 2443 011e 19       		.uleb128 0x19
 2444 011f 01       		.uleb128 0x1
 2445 0120 01       		.byte	0x1
 2446 0121 49       		.uleb128 0x49
 2447 0122 13       		.uleb128 0x13
 2448 0123 01       		.uleb128 0x1
 2449 0124 13       		.uleb128 0x13
 2450 0125 00       		.byte	0
 2451 0126 00       		.byte	0
 2452 0127 1A       		.uleb128 0x1a
 2453 0128 21       		.uleb128 0x21
 2454 0129 00       		.byte	0
 2455 012a 49       		.uleb128 0x49
 2456 012b 13       		.uleb128 0x13
 2457 012c 2F       		.uleb128 0x2f
 2458 012d 0B       		.uleb128 0xb
 2459 012e 00       		.byte	0
 2460 012f 00       		.byte	0
 2461 0130 1B       		.uleb128 0x1b
 2462 0131 2E       		.uleb128 0x2e
 2463 0132 01       		.byte	0x1
 2464 0133 03       		.uleb128 0x3
 2465 0134 0E       		.uleb128 0xe
 2466 0135 3A       		.uleb128 0x3a
 2467 0136 0B       		.uleb128 0xb
 2468 0137 3B       		.uleb128 0x3b
 2469 0138 0B       		.uleb128 0xb
 2470 0139 27       		.uleb128 0x27
 2471 013a 19       		.uleb128 0x19
 2472 013b 49       		.uleb128 0x49
 2473 013c 13       		.uleb128 0x13
 2474 013d 11       		.uleb128 0x11
 2475 013e 01       		.uleb128 0x1
 2476 013f 12       		.uleb128 0x12
 2477 0140 06       		.uleb128 0x6
 2478 0141 40       		.uleb128 0x40
 2479 0142 18       		.uleb128 0x18
 2480 0143 9742     		.uleb128 0x2117
 2481 0145 19       		.uleb128 0x19
 2482 0146 01       		.uleb128 0x1
 2483 0147 13       		.uleb128 0x13
 2484 0148 00       		.byte	0
 2485 0149 00       		.byte	0
 2486 014a 1C       		.uleb128 0x1c
 2487 014b 05       		.uleb128 0x5
 2488 014c 00       		.byte	0
ARM GAS  /var/folders/qh/xwg3v3kj02qbxczjpdb8lzfr0000gn/T//ccgMbDgN.s 			page 45


 2489 014d 03       		.uleb128 0x3
 2490 014e 08       		.uleb128 0x8
 2491 014f 3A       		.uleb128 0x3a
 2492 0150 0B       		.uleb128 0xb
 2493 0151 3B       		.uleb128 0x3b
 2494 0152 0B       		.uleb128 0xb
 2495 0153 49       		.uleb128 0x49
 2496 0154 13       		.uleb128 0x13
 2497 0155 02       		.uleb128 0x2
 2498 0156 17       		.uleb128 0x17
 2499 0157 00       		.byte	0
 2500 0158 00       		.byte	0
 2501 0159 1D       		.uleb128 0x1d
 2502 015a 898201   		.uleb128 0x4109
 2503 015d 01       		.byte	0x1
 2504 015e 11       		.uleb128 0x11
 2505 015f 01       		.uleb128 0x1
 2506 0160 31       		.uleb128 0x31
 2507 0161 13       		.uleb128 0x13
 2508 0162 01       		.uleb128 0x1
 2509 0163 13       		.uleb128 0x13
 2510 0164 00       		.byte	0
 2511 0165 00       		.byte	0
 2512 0166 1E       		.uleb128 0x1e
 2513 0167 8A8201   		.uleb128 0x410a
 2514 016a 00       		.byte	0
 2515 016b 02       		.uleb128 0x2
 2516 016c 18       		.uleb128 0x18
 2517 016d 9142     		.uleb128 0x2111
 2518 016f 18       		.uleb128 0x18
 2519 0170 00       		.byte	0
 2520 0171 00       		.byte	0
 2521 0172 1F       		.uleb128 0x1f
 2522 0173 898201   		.uleb128 0x4109
 2523 0176 01       		.byte	0x1
 2524 0177 11       		.uleb128 0x11
 2525 0178 01       		.uleb128 0x1
 2526 0179 31       		.uleb128 0x31
 2527 017a 13       		.uleb128 0x13
 2528 017b 00       		.byte	0
 2529 017c 00       		.byte	0
 2530 017d 20       		.uleb128 0x20
 2531 017e 2E       		.uleb128 0x2e
 2532 017f 01       		.byte	0x1
 2533 0180 3F       		.uleb128 0x3f
 2534 0181 19       		.uleb128 0x19
 2535 0182 03       		.uleb128 0x3
 2536 0183 0E       		.uleb128 0xe
 2537 0184 3A       		.uleb128 0x3a
 2538 0185 0B       		.uleb128 0xb
 2539 0186 3B       		.uleb128 0x3b
 2540 0187 0B       		.uleb128 0xb
 2541 0188 27       		.uleb128 0x27
 2542 0189 19       		.uleb128 0x19
 2543 018a 49       		.uleb128 0x49
 2544 018b 13       		.uleb128 0x13
 2545 018c 11       		.uleb128 0x11
ARM GAS  /var/folders/qh/xwg3v3kj02qbxczjpdb8lzfr0000gn/T//ccgMbDgN.s 			page 46


 2546 018d 01       		.uleb128 0x1
 2547 018e 12       		.uleb128 0x12
 2548 018f 06       		.uleb128 0x6
 2549 0190 40       		.uleb128 0x40
 2550 0191 18       		.uleb128 0x18
 2551 0192 9742     		.uleb128 0x2117
 2552 0194 19       		.uleb128 0x19
 2553 0195 01       		.uleb128 0x1
 2554 0196 13       		.uleb128 0x13
 2555 0197 00       		.byte	0
 2556 0198 00       		.byte	0
 2557 0199 21       		.uleb128 0x21
 2558 019a 34       		.uleb128 0x34
 2559 019b 00       		.byte	0
 2560 019c 03       		.uleb128 0x3
 2561 019d 08       		.uleb128 0x8
 2562 019e 3A       		.uleb128 0x3a
 2563 019f 0B       		.uleb128 0xb
 2564 01a0 3B       		.uleb128 0x3b
 2565 01a1 0B       		.uleb128 0xb
 2566 01a2 49       		.uleb128 0x49
 2567 01a3 13       		.uleb128 0x13
 2568 01a4 02       		.uleb128 0x2
 2569 01a5 17       		.uleb128 0x17
 2570 01a6 00       		.byte	0
 2571 01a7 00       		.byte	0
 2572 01a8 22       		.uleb128 0x22
 2573 01a9 898201   		.uleb128 0x4109
 2574 01ac 00       		.byte	0
 2575 01ad 11       		.uleb128 0x11
 2576 01ae 01       		.uleb128 0x1
 2577 01af 31       		.uleb128 0x31
 2578 01b0 13       		.uleb128 0x13
 2579 01b1 00       		.byte	0
 2580 01b2 00       		.byte	0
 2581 01b3 23       		.uleb128 0x23
 2582 01b4 34       		.uleb128 0x34
 2583 01b5 00       		.byte	0
 2584 01b6 03       		.uleb128 0x3
 2585 01b7 0E       		.uleb128 0xe
 2586 01b8 3A       		.uleb128 0x3a
 2587 01b9 0B       		.uleb128 0xb
 2588 01ba 3B       		.uleb128 0x3b
 2589 01bb 0B       		.uleb128 0xb
 2590 01bc 49       		.uleb128 0x49
 2591 01bd 13       		.uleb128 0x13
 2592 01be 02       		.uleb128 0x2
 2593 01bf 18       		.uleb128 0x18
 2594 01c0 00       		.byte	0
 2595 01c1 00       		.byte	0
 2596 01c2 24       		.uleb128 0x24
 2597 01c3 34       		.uleb128 0x34
 2598 01c4 00       		.byte	0
 2599 01c5 03       		.uleb128 0x3
 2600 01c6 0E       		.uleb128 0xe
 2601 01c7 3A       		.uleb128 0x3a
 2602 01c8 0B       		.uleb128 0xb
ARM GAS  /var/folders/qh/xwg3v3kj02qbxczjpdb8lzfr0000gn/T//ccgMbDgN.s 			page 47


 2603 01c9 3B       		.uleb128 0x3b
 2604 01ca 0B       		.uleb128 0xb
 2605 01cb 49       		.uleb128 0x49
 2606 01cc 13       		.uleb128 0x13
 2607 01cd 3F       		.uleb128 0x3f
 2608 01ce 19       		.uleb128 0x19
 2609 01cf 3C       		.uleb128 0x3c
 2610 01d0 19       		.uleb128 0x19
 2611 01d1 00       		.byte	0
 2612 01d2 00       		.byte	0
 2613 01d3 25       		.uleb128 0x25
 2614 01d4 34       		.uleb128 0x34
 2615 01d5 00       		.byte	0
 2616 01d6 03       		.uleb128 0x3
 2617 01d7 08       		.uleb128 0x8
 2618 01d8 3A       		.uleb128 0x3a
 2619 01d9 0B       		.uleb128 0xb
 2620 01da 3B       		.uleb128 0x3b
 2621 01db 05       		.uleb128 0x5
 2622 01dc 49       		.uleb128 0x49
 2623 01dd 13       		.uleb128 0x13
 2624 01de 3F       		.uleb128 0x3f
 2625 01df 19       		.uleb128 0x19
 2626 01e0 3C       		.uleb128 0x3c
 2627 01e1 19       		.uleb128 0x19
 2628 01e2 00       		.byte	0
 2629 01e3 00       		.byte	0
 2630 01e4 26       		.uleb128 0x26
 2631 01e5 34       		.uleb128 0x34
 2632 01e6 00       		.byte	0
 2633 01e7 03       		.uleb128 0x3
 2634 01e8 08       		.uleb128 0x8
 2635 01e9 3A       		.uleb128 0x3a
 2636 01ea 0B       		.uleb128 0xb
 2637 01eb 3B       		.uleb128 0x3b
 2638 01ec 0B       		.uleb128 0xb
 2639 01ed 49       		.uleb128 0x49
 2640 01ee 13       		.uleb128 0x13
 2641 01ef 3F       		.uleb128 0x3f
 2642 01f0 19       		.uleb128 0x19
 2643 01f1 02       		.uleb128 0x2
 2644 01f2 18       		.uleb128 0x18
 2645 01f3 00       		.byte	0
 2646 01f4 00       		.byte	0
 2647 01f5 27       		.uleb128 0x27
 2648 01f6 2E       		.uleb128 0x2e
 2649 01f7 01       		.byte	0x1
 2650 01f8 3F       		.uleb128 0x3f
 2651 01f9 19       		.uleb128 0x19
 2652 01fa 03       		.uleb128 0x3
 2653 01fb 0E       		.uleb128 0xe
 2654 01fc 3A       		.uleb128 0x3a
 2655 01fd 0B       		.uleb128 0xb
 2656 01fe 3B       		.uleb128 0x3b
 2657 01ff 05       		.uleb128 0x5
 2658 0200 27       		.uleb128 0x27
 2659 0201 19       		.uleb128 0x19
ARM GAS  /var/folders/qh/xwg3v3kj02qbxczjpdb8lzfr0000gn/T//ccgMbDgN.s 			page 48


 2660 0202 3C       		.uleb128 0x3c
 2661 0203 19       		.uleb128 0x19
 2662 0204 01       		.uleb128 0x1
 2663 0205 13       		.uleb128 0x13
 2664 0206 00       		.byte	0
 2665 0207 00       		.byte	0
 2666 0208 28       		.uleb128 0x28
 2667 0209 2E       		.uleb128 0x2e
 2668 020a 00       		.byte	0
 2669 020b 3F       		.uleb128 0x3f
 2670 020c 19       		.uleb128 0x19
 2671 020d 03       		.uleb128 0x3
 2672 020e 0E       		.uleb128 0xe
 2673 020f 3A       		.uleb128 0x3a
 2674 0210 0B       		.uleb128 0xb
 2675 0211 3B       		.uleb128 0x3b
 2676 0212 0B       		.uleb128 0xb
 2677 0213 27       		.uleb128 0x27
 2678 0214 19       		.uleb128 0x19
 2679 0215 3C       		.uleb128 0x3c
 2680 0216 19       		.uleb128 0x19
 2681 0217 00       		.byte	0
 2682 0218 00       		.byte	0
 2683 0219 29       		.uleb128 0x29
 2684 021a 2E       		.uleb128 0x2e
 2685 021b 01       		.byte	0x1
 2686 021c 3F       		.uleb128 0x3f
 2687 021d 19       		.uleb128 0x19
 2688 021e 03       		.uleb128 0x3
 2689 021f 0E       		.uleb128 0xe
 2690 0220 3A       		.uleb128 0x3a
 2691 0221 0B       		.uleb128 0xb
 2692 0222 3B       		.uleb128 0x3b
 2693 0223 05       		.uleb128 0x5
 2694 0224 27       		.uleb128 0x27
 2695 0225 19       		.uleb128 0x19
 2696 0226 49       		.uleb128 0x49
 2697 0227 13       		.uleb128 0x13
 2698 0228 3C       		.uleb128 0x3c
 2699 0229 19       		.uleb128 0x19
 2700 022a 01       		.uleb128 0x1
 2701 022b 13       		.uleb128 0x13
 2702 022c 00       		.byte	0
 2703 022d 00       		.byte	0
 2704 022e 2A       		.uleb128 0x2a
 2705 022f 2E       		.uleb128 0x2e
 2706 0230 01       		.byte	0x1
 2707 0231 3F       		.uleb128 0x3f
 2708 0232 19       		.uleb128 0x19
 2709 0233 03       		.uleb128 0x3
 2710 0234 0E       		.uleb128 0xe
 2711 0235 3A       		.uleb128 0x3a
 2712 0236 0B       		.uleb128 0xb
 2713 0237 3B       		.uleb128 0x3b
 2714 0238 0B       		.uleb128 0xb
 2715 0239 27       		.uleb128 0x27
 2716 023a 19       		.uleb128 0x19
ARM GAS  /var/folders/qh/xwg3v3kj02qbxczjpdb8lzfr0000gn/T//ccgMbDgN.s 			page 49


 2717 023b 3C       		.uleb128 0x3c
 2718 023c 19       		.uleb128 0x19
 2719 023d 01       		.uleb128 0x1
 2720 023e 13       		.uleb128 0x13
 2721 023f 00       		.byte	0
 2722 0240 00       		.byte	0
 2723 0241 2B       		.uleb128 0x2b
 2724 0242 2E       		.uleb128 0x2e
 2725 0243 01       		.byte	0x1
 2726 0244 3F       		.uleb128 0x3f
 2727 0245 19       		.uleb128 0x19
 2728 0246 03       		.uleb128 0x3
 2729 0247 0E       		.uleb128 0xe
 2730 0248 3A       		.uleb128 0x3a
 2731 0249 0B       		.uleb128 0xb
 2732 024a 3B       		.uleb128 0x3b
 2733 024b 0B       		.uleb128 0xb
 2734 024c 27       		.uleb128 0x27
 2735 024d 19       		.uleb128 0x19
 2736 024e 49       		.uleb128 0x49
 2737 024f 13       		.uleb128 0x13
 2738 0250 3C       		.uleb128 0x3c
 2739 0251 19       		.uleb128 0x19
 2740 0252 01       		.uleb128 0x1
 2741 0253 13       		.uleb128 0x13
 2742 0254 00       		.byte	0
 2743 0255 00       		.byte	0
 2744 0256 00       		.byte	0
 2745              		.section	.debug_loc,"",%progbits
 2746              	.Ldebug_loc0:
 2747              	.LLST0:
 2748 0000 00000000 		.4byte	.LVL0
 2749 0004 12000000 		.4byte	.LVL1
 2750 0008 0100     		.2byte	0x1
 2751 000a 50       		.byte	0x50
 2752 000b 12000000 		.4byte	.LVL1
 2753 000f 30000000 		.4byte	.LFE42
 2754 0013 0400     		.2byte	0x4
 2755 0015 F3       		.byte	0xf3
 2756 0016 01       		.uleb128 0x1
 2757 0017 50       		.byte	0x50
 2758 0018 9F       		.byte	0x9f
 2759 0019 00000000 		.4byte	0
 2760 001d 00000000 		.4byte	0
 2761              	.LLST1:
 2762 0021 00000000 		.4byte	.LVL4
 2763 0025 12000000 		.4byte	.LVL5
 2764 0029 0100     		.2byte	0x1
 2765 002b 50       		.byte	0x50
 2766 002c 12000000 		.4byte	.LVL5
 2767 0030 34000000 		.4byte	.LFE41
 2768 0034 0400     		.2byte	0x4
 2769 0036 F3       		.byte	0xf3
 2770 0037 01       		.uleb128 0x1
 2771 0038 50       		.byte	0x50
 2772 0039 9F       		.byte	0x9f
 2773 003a 00000000 		.4byte	0
ARM GAS  /var/folders/qh/xwg3v3kj02qbxczjpdb8lzfr0000gn/T//ccgMbDgN.s 			page 50


 2774 003e 00000000 		.4byte	0
 2775              	.LLST2:
 2776 0042 00000000 		.4byte	.LVL8
 2777 0046 64000000 		.4byte	.LVL18
 2778 004a 0200     		.2byte	0x2
 2779 004c 30       		.byte	0x30
 2780 004d 9F       		.byte	0x9f
 2781 004e 64000000 		.4byte	.LVL18
 2782 0052 7C000000 		.4byte	.LVL20
 2783 0056 0100     		.2byte	0x1
 2784 0058 54       		.byte	0x54
 2785 0059 7C000000 		.4byte	.LVL20
 2786 005d 8E000000 		.4byte	.LVL23
 2787 0061 0200     		.2byte	0x2
 2788 0063 30       		.byte	0x30
 2789 0064 9F       		.byte	0x9f
 2790 0065 8E000000 		.4byte	.LVL23
 2791 0069 AC000000 		.4byte	.LFE43
 2792 006d 0100     		.2byte	0x1
 2793 006f 50       		.byte	0x50
 2794 0070 00000000 		.4byte	0
 2795 0074 00000000 		.4byte	0
 2796              		.section	.debug_aranges,"",%progbits
 2797 0000 2C000000 		.4byte	0x2c
 2798 0004 0200     		.2byte	0x2
 2799 0006 00000000 		.4byte	.Ldebug_info0
 2800 000a 04       		.byte	0x4
 2801 000b 00       		.byte	0
 2802 000c 0000     		.2byte	0
 2803 000e 0000     		.2byte	0
 2804 0010 00000000 		.4byte	.LFB42
 2805 0014 30000000 		.4byte	.LFE42-.LFB42
 2806 0018 00000000 		.4byte	.LFB41
 2807 001c 34000000 		.4byte	.LFE41-.LFB41
 2808 0020 00000000 		.4byte	.LFB43
 2809 0024 AC000000 		.4byte	.LFE43-.LFB43
 2810 0028 00000000 		.4byte	0
 2811 002c 00000000 		.4byte	0
 2812              		.section	.debug_ranges,"",%progbits
 2813              	.Ldebug_ranges0:
 2814 0000 00000000 		.4byte	.LFB42
 2815 0004 30000000 		.4byte	.LFE42
 2816 0008 00000000 		.4byte	.LFB41
 2817 000c 34000000 		.4byte	.LFE41
 2818 0010 00000000 		.4byte	.LFB43
 2819 0014 AC000000 		.4byte	.LFE43
 2820 0018 00000000 		.4byte	0
 2821 001c 00000000 		.4byte	0
 2822              		.section	.debug_line,"",%progbits
 2823              	.Ldebug_line0:
 2824 0000 04030000 		.section	.debug_str,"MS",%progbits,1
 2824      02007B02 
 2824      00000201 
 2824      FB0E0D00 
 2824      01010101 
 2825              	.LASF46:
 2826 0000 54687265 		.ascii	"ThreadsList\000"
ARM GAS  /var/folders/qh/xwg3v3kj02qbxczjpdb8lzfr0000gn/T//ccgMbDgN.s 			page 51


 2826      6164734C 
 2826      69737400 
 2827              	.LASF38:
 2828 000c 705F7761 		.ascii	"p_waiting\000"
 2828      6974696E 
 2828      6700
 2829              	.LASF117:
 2830 0016 53657269 		.ascii	"SerialDriver\000"
 2830      616C4472 
 2830      69766572 
 2830      00
 2831              	.LASF155:
 2832 0023 6D61696E 		.ascii	"main.c\000"
 2832      2E6300
 2833              	.LASF37:
 2834 002a 705F7469 		.ascii	"p_time\000"
 2834      6D6500
 2835              	.LASF105:
 2836 0031 42535252 		.ascii	"BSRR\000"
 2836      00
 2837              	.LASF47:
 2838 0036 72656761 		.ascii	"regarm_t\000"
 2838      726D5F74 
 2838      00
 2839              	.LASF28:
 2840 003f 705F7072 		.ascii	"p_prio\000"
 2840      696F00
 2841              	.LASF24:
 2842 0046 73797374 		.ascii	"systime_t\000"
 2842      696D655F 
 2842      7400
 2843              	.LASF61:
 2844 0050 6D5F6F77 		.ascii	"m_owner\000"
 2844      6E657200 
 2845              	.LASF39:
 2846 0058 705F6D73 		.ascii	"p_msgqueue\000"
 2846      67717565 
 2846      756500
 2847              	.LASF0:
 2848 0063 756E7369 		.ascii	"unsigned int\000"
 2848      676E6564 
 2848      20696E74 
 2848      00
 2849              	.LASF149:
 2850 0070 5F70616C 		.ascii	"_pal_lld_setgroupmode\000"
 2850      5F6C6C64 
 2850      5F736574 
 2850      67726F75 
 2850      706D6F64 
 2851              	.LASF82:
 2852 0086 715F7264 		.ascii	"q_rdptr\000"
 2852      70747200 
 2853              	.LASF85:
 2854 008e 716E6F74 		.ascii	"qnotify_t\000"
 2854      6966795F 
 2854      7400
 2855              	.LASF66:
ARM GAS  /var/folders/qh/xwg3v3kj02qbxczjpdb8lzfr0000gn/T//ccgMbDgN.s 			page 52


 2856 0098 656C5F6D 		.ascii	"el_mask\000"
 2856      61736B00 
 2857              	.LASF88:
 2858 00a0 42617365 		.ascii	"BaseSequentialStreamVMT\000"
 2858      53657175 
 2858      656E7469 
 2858      616C5374 
 2858      7265616D 
 2859              	.LASF72:
 2860 00b8 77746F62 		.ascii	"wtobjp\000"
 2860      6A7000
 2861              	.LASF84:
 2862 00bf 715F6C69 		.ascii	"q_link\000"
 2862      6E6B00
 2863              	.LASF141:
 2864 00c6 73684366 		.ascii	"shCfg\000"
 2864      6700
 2865              	.LASF154:
 2866 00cc 474E5520 		.ascii	"GNU C 4.8.3 20131129 (release) [ARM/embedded-4_8-br"
 2866      4320342E 
 2866      382E3320 
 2866      32303133 
 2866      31313239 
 2867 00ff 616E6368 		.ascii	"anch revision 205641] -mcpu=cortex-m0 -mno-thumb-in"
 2867      20726576 
 2867      6973696F 
 2867      6E203230 
 2867      35363431 
 2868 0132 74657277 		.ascii	"terwork -mthumb -ggdb -O2 -fomit-frame-pointer -fal"
 2868      6F726B20 
 2868      2D6D7468 
 2868      756D6220 
 2868      2D676764 
 2869 0165 69676E2D 		.ascii	"ign-functions=16 -ffunction-sections -fdata-section"
 2869      66756E63 
 2869      74696F6E 
 2869      733D3136 
 2869      202D6666 
 2870 0198 73202D66 		.ascii	"s -fno-common\000"
 2870      6E6F2D63 
 2870      6F6D6D6F 
 2870      6E00
 2871              	.LASF73:
 2872 01a6 65776D61 		.ascii	"ewmask\000"
 2872      736B00
 2873              	.LASF124:
 2874 01ad 73706565 		.ascii	"speed\000"
 2874      6400
 2875              	.LASF129:
 2876 01b3 77726974 		.ascii	"writet\000"
 2876      657400
 2877              	.LASF93:
 2878 01ba 47545052 		.ascii	"GTPR\000"
 2878      00
 2879              	.LASF120:
 2880 01bf 69717565 		.ascii	"iqueue\000"
 2880      756500
ARM GAS  /var/folders/qh/xwg3v3kj02qbxczjpdb8lzfr0000gn/T//ccgMbDgN.s 			page 53


 2881              	.LASF10:
 2882 01c6 75696E74 		.ascii	"uint32_t\000"
 2882      33325F74 
 2882      00
 2883              	.LASF153:
 2884 01cf 7368656C 		.ascii	"shellCreate\000"
 2884      6C437265 
 2884      61746500 
 2885              	.LASF22:
 2886 01db 6576656E 		.ascii	"eventmask_t\000"
 2886      746D6173 
 2886      6B5F7400 
 2887              	.LASF53:
 2888 01e7 725F7072 		.ascii	"r_prio\000"
 2888      696F00
 2889              	.LASF125:
 2890 01ee 53657269 		.ascii	"SerialConfig\000"
 2890      616C436F 
 2890      6E666967 
 2890      00
 2891              	.LASF116:
 2892 01fb 73647374 		.ascii	"sdstate_t\000"
 2892      6174655F 
 2892      7400
 2893              	.LASF118:
 2894 0205 6576656E 		.ascii	"event\000"
 2894      7400
 2895              	.LASF20:
 2896 020b 74707269 		.ascii	"tprio_t\000"
 2896      6F5F7400 
 2897              	.LASF75:
 2898 0213 7466756E 		.ascii	"tfunc_t\000"
 2898      635F7400 
 2899              	.LASF14:
 2900 021b 6C6F6E67 		.ascii	"long long unsigned int\000"
 2900      206C6F6E 
 2900      6720756E 
 2900      7369676E 
 2900      65642069 
 2901              	.LASF148:
 2902 0232 73645374 		.ascii	"sdStart\000"
 2902      61727400 
 2903              	.LASF101:
 2904 023a 4D4F4445 		.ascii	"MODER\000"
 2904      5200
 2905              	.LASF137:
 2906 0240 5368656C 		.ascii	"ShellConfig\000"
 2906      6C436F6E 
 2906      66696700 
 2907              	.LASF108:
 2908 024c 41465248 		.ascii	"AFRH\000"
 2908      00
 2909              	.LASF107:
 2910 0251 4146524C 		.ascii	"AFRL\000"
 2910      00
 2911              	.LASF30:
 2912 0256 705F6E65 		.ascii	"p_newer\000"
ARM GAS  /var/folders/qh/xwg3v3kj02qbxczjpdb8lzfr0000gn/T//ccgMbDgN.s 			page 54


 2912      77657200 
 2913              	.LASF100:
 2914 025e 636C6561 		.ascii	"clear\000"
 2914      7200
 2915              	.LASF77:
 2916 0264 715F7761 		.ascii	"q_waiting\000"
 2916      6974696E 
 2916      6700
 2917              	.LASF127:
 2918 026e 70757474 		.ascii	"putt\000"
 2918      00
 2919              	.LASF156:
 2920 0273 2F557365 		.ascii	"/Users/John/Development/embedded/ChibiOS-RT/BluC/ST"
 2920      72732F4A 
 2920      6F686E2F 
 2920      44657665 
 2920      6C6F706D 
 2921 02a6 4D333246 		.ascii	"M32F051\000"
 2921      30353100 
 2922              	.LASF2:
 2923 02ae 73697A65 		.ascii	"size_t\000"
 2923      5F7400
 2924              	.LASF70:
 2925 02b5 7264796D 		.ascii	"rdymsg\000"
 2925      736700
 2926              	.LASF15:
 2927 02bc 5F426F6F 		.ascii	"_Bool\000"
 2927      6C00
 2928              	.LASF114:
 2929 02c2 53445F53 		.ascii	"SD_STOP\000"
 2929      544F5000 
 2930              	.LASF99:
 2931 02ca 55534152 		.ascii	"USART_TypeDef\000"
 2931      545F5479 
 2931      70654465 
 2931      6600
 2932              	.LASF59:
 2933 02d8 4D757465 		.ascii	"Mutex\000"
 2933      7800
 2934              	.LASF87:
 2935 02de 4F757470 		.ascii	"OutputQueue\000"
 2935      75745175 
 2935      65756500 
 2936              	.LASF83:
 2937 02ea 715F6E6F 		.ascii	"q_notify\000"
 2937      74696679 
 2937      00
 2938              	.LASF123:
 2939 02f3 636C6F63 		.ascii	"clock\000"
 2939      6B00
 2940              	.LASF104:
 2941 02f9 50555044 		.ascii	"PUPDR\000"
 2941      5200
 2942              	.LASF32:
 2943 02ff 705F6E61 		.ascii	"p_name\000"
 2943      6D6500
 2944              	.LASF91:
ARM GAS  /var/folders/qh/xwg3v3kj02qbxczjpdb8lzfr0000gn/T//ccgMbDgN.s 			page 55


 2945 0306 42617365 		.ascii	"BaseSequentialStream\000"
 2945      53657175 
 2945      656E7469 
 2945      616C5374 
 2945      7265616D 
 2946              	.LASF86:
 2947 031b 496E7075 		.ascii	"InputQueue\000"
 2947      74517565 
 2947      756500
 2948              	.LASF45:
 2949 0326 54687265 		.ascii	"ThreadsQueue\000"
 2949      61647351 
 2949      75657565 
 2949      00
 2950              	.LASF74:
 2951 0333 63686172 		.ascii	"char\000"
 2951      00
 2952              	.LASF146:
 2953 0338 63685379 		.ascii	"chSysInit\000"
 2953      73496E69 
 2953      7400
 2954              	.LASF55:
 2955 0342 725F6E65 		.ascii	"r_newer\000"
 2955      77657200 
 2956              	.LASF81:
 2957 034a 715F7772 		.ascii	"q_wrptr\000"
 2957      70747200 
 2958              	.LASF25:
 2959 0352 54687265 		.ascii	"Thread\000"
 2959      616400
 2960              	.LASF17:
 2961 0359 74737461 		.ascii	"tstate_t\000"
 2961      74655F74 
 2961      00
 2962              	.LASF145:
 2963 0362 68616C49 		.ascii	"halInit\000"
 2963      6E697400 
 2964              	.LASF131:
 2965 036a 7368656C 		.ascii	"shellcmd_t\000"
 2965      6C636D64 
 2965      5F7400
 2966              	.LASF140:
 2967 0375 7368436D 		.ascii	"shCmds\000"
 2967      647300
 2968              	.LASF31:
 2969 037c 705F6F6C 		.ascii	"p_older\000"
 2969      64657200 
 2970              	.LASF33:
 2971 0384 705F7374 		.ascii	"p_state\000"
 2971      61746500 
 2972              	.LASF3:
 2973 038c 75696E74 		.ascii	"uint8_t\000"
 2973      385F7400 
 2974              	.LASF23:
 2975 0394 666C6167 		.ascii	"flagsmask_t\000"
 2975      736D6173 
 2975      6B5F7400 
ARM GAS  /var/folders/qh/xwg3v3kj02qbxczjpdb8lzfr0000gn/T//ccgMbDgN.s 			page 56


 2976              	.LASF95:
 2977 03a0 52544F52 		.ascii	"RTOR\000"
 2977      00
 2978              	.LASF44:
 2979 03a5 705F6D70 		.ascii	"p_mpool\000"
 2979      6F6F6C00 
 2980              	.LASF42:
 2981 03ad 705F6D74 		.ascii	"p_mtxlist\000"
 2981      786C6973 
 2981      7400
 2982              	.LASF122:
 2983 03b7 75736172 		.ascii	"usart\000"
 2983      7400
 2984              	.LASF12:
 2985 03bd 6C6F6E67 		.ascii	"long long int\000"
 2985      206C6F6E 
 2985      6720696E 
 2985      7400
 2986              	.LASF89:
 2987 03cb 77726974 		.ascii	"write\000"
 2987      6500
 2988              	.LASF79:
 2989 03d1 715F6275 		.ascii	"q_buffer\000"
 2989      66666572 
 2989      00
 2990              	.LASF52:
 2991 03da 725F7175 		.ascii	"r_queue\000"
 2991      65756500 
 2992              	.LASF21:
 2993 03e2 6D73675F 		.ascii	"msg_t\000"
 2993      7400
 2994              	.LASF50:
 2995 03e8 636F6E74 		.ascii	"context\000"
 2995      65787400 
 2996              	.LASF34:
 2997 03f0 705F666C 		.ascii	"p_flags\000"
 2997      61677300 
 2998              	.LASF110:
 2999 03f8 696F706F 		.ascii	"ioportmask_t\000"
 2999      72746D61 
 2999      736B5F74 
 2999      00
 3000              	.LASF19:
 3001 0405 74736C69 		.ascii	"tslices_t\000"
 3001      6365735F 
 3001      7400
 3002              	.LASF56:
 3003 040f 725F6F6C 		.ascii	"r_older\000"
 3003      64657200 
 3004              	.LASF151:
 3005 0417 63685468 		.ascii	"chThdRelease\000"
 3005      6452656C 
 3005      65617365 
 3005      00
 3006              	.LASF68:
 3007 0424 4576656E 		.ascii	"EventSource\000"
 3007      74536F75 
ARM GAS  /var/folders/qh/xwg3v3kj02qbxczjpdb8lzfr0000gn/T//ccgMbDgN.s 			page 57


 3007      72636500 
 3008              	.LASF152:
 3009 0430 63685468 		.ascii	"chThdCreateStatic\000"
 3009      64437265 
 3009      61746553 
 3009      74617469 
 3009      6300
 3010              	.LASF64:
 3011 0442 656C5F6E 		.ascii	"el_next\000"
 3011      65787400 
 3012              	.LASF40:
 3013 044a 705F6D73 		.ascii	"p_msg\000"
 3013      6700
 3014              	.LASF16:
 3015 0450 746D6F64 		.ascii	"tmode_t\000"
 3015      655F7400 
 3016              	.LASF150:
 3017 0458 7368656C 		.ascii	"shellInit\000"
 3017      6C496E69 
 3017      7400
 3018              	.LASF103:
 3019 0462 4F535045 		.ascii	"OSPEEDR\000"
 3019      45445200 
 3020              	.LASF76:
 3021 046a 47656E65 		.ascii	"GenericQueue\000"
 3021      72696351 
 3021      75657565 
 3021      00
 3022              	.LASF121:
 3023 0477 6F717565 		.ascii	"oqueue\000"
 3023      756500
 3024              	.LASF6:
 3025 047e 75696E74 		.ascii	"uint16_t\000"
 3025      31365F74 
 3025      00
 3026              	.LASF49:
 3027 0487 696E7463 		.ascii	"intctx\000"
 3027      747800
 3028              	.LASF132:
 3029 048e 73635F6E 		.ascii	"sc_name\000"
 3029      616D6500 
 3030              	.LASF135:
 3031 0496 73635F63 		.ascii	"sc_channel\000"
 3031      68616E6E 
 3031      656C00
 3032              	.LASF115:
 3033 04a1 53445F52 		.ascii	"SD_READY\000"
 3033      45414459 
 3033      00
 3034              	.LASF126:
 3035 04aa 53657269 		.ascii	"SerialDriverVMT\000"
 3035      616C4472 
 3035      69766572 
 3035      564D5400 
 3036              	.LASF134:
 3037 04ba 5368656C 		.ascii	"ShellCommand\000"
 3037      6C436F6D 
ARM GAS  /var/folders/qh/xwg3v3kj02qbxczjpdb8lzfr0000gn/T//ccgMbDgN.s 			page 58


 3037      6D616E64 
 3037      00
 3038              	.LASF43:
 3039 04c7 705F7265 		.ascii	"p_realprio\000"
 3039      616C7072 
 3039      696F00
 3040              	.LASF92:
 3041 04d2 52455345 		.ascii	"RESERVED1\000"
 3041      52564544 
 3041      3100
 3042              	.LASF94:
 3043 04dc 52455345 		.ascii	"RESERVED2\000"
 3043      52564544 
 3043      3200
 3044              	.LASF96:
 3045 04e6 52455345 		.ascii	"RESERVED3\000"
 3045      52564544 
 3045      3300
 3046              	.LASF97:
 3047 04f0 52455345 		.ascii	"RESERVED4\000"
 3047      52564544 
 3047      3400
 3048              	.LASF98:
 3049 04fa 52455345 		.ascii	"RESERVED5\000"
 3049      52564544 
 3049      3500
 3050              	.LASF5:
 3051 0504 73686F72 		.ascii	"short int\000"
 3051      7420696E 
 3051      7400
 3052              	.LASF57:
 3053 050e 725F6375 		.ascii	"r_current\000"
 3053      7272656E 
 3053      7400
 3054              	.LASF41:
 3055 0518 705F6570 		.ascii	"p_epending\000"
 3055      656E6469 
 3055      6E6700
 3056              	.LASF60:
 3057 0523 6D5F7175 		.ascii	"m_queue\000"
 3057      65756500 
 3058              	.LASF9:
 3059 052b 6C6F6E67 		.ascii	"long int\000"
 3059      20696E74 
 3059      00
 3060              	.LASF102:
 3061 0534 4F545950 		.ascii	"OTYPER\000"
 3061      455200
 3062              	.LASF26:
 3063 053b 705F6E65 		.ascii	"p_next\000"
 3063      787400
 3064              	.LASF13:
 3065 0542 75696E74 		.ascii	"uint64_t\000"
 3065      36345F74 
 3065      00
 3066              	.LASF29:
 3067 054b 705F6374 		.ascii	"p_ctx\000"
ARM GAS  /var/folders/qh/xwg3v3kj02qbxczjpdb8lzfr0000gn/T//ccgMbDgN.s 			page 59


 3067      7800
 3068              	.LASF144:
 3069 0551 726C6973 		.ascii	"rlist\000"
 3069      7400
 3070              	.LASF112:
 3071 0557 696F706F 		.ascii	"ioportid_t\000"
 3071      72746964 
 3071      5F7400
 3072              	.LASF90:
 3073 0562 72656164 		.ascii	"read\000"
 3073      00
 3074              	.LASF65:
 3075 0567 656C5F6C 		.ascii	"el_listener\000"
 3075      69737465 
 3075      6E657200 
 3076              	.LASF113:
 3077 0573 53445F55 		.ascii	"SD_UNINIT\000"
 3077      4E494E49 
 3077      5400
 3078              	.LASF109:
 3079 057d 4750494F 		.ascii	"GPIO_TypeDef\000"
 3079      5F547970 
 3079      65446566 
 3079      00
 3080              	.LASF136:
 3081 058a 73635F63 		.ascii	"sc_commands\000"
 3081      6F6D6D61 
 3081      6E647300 
 3082              	.LASF78:
 3083 0596 715F636F 		.ascii	"q_counter\000"
 3083      756E7465 
 3083      7200
 3084              	.LASF128:
 3085 05a0 67657474 		.ascii	"gett\000"
 3085      00
 3086              	.LASF80:
 3087 05a5 715F746F 		.ascii	"q_top\000"
 3087      7000
 3088              	.LASF27:
 3089 05ab 705F7072 		.ascii	"p_prev\000"
 3089      657600
 3090              	.LASF51:
 3091 05b2 73697A65 		.ascii	"sizetype\000"
 3091      74797065 
 3091      00
 3092              	.LASF18:
 3093 05bb 74726566 		.ascii	"trefs_t\000"
 3093      735F7400 
 3094              	.LASF63:
 3095 05c3 4576656E 		.ascii	"EventListener\000"
 3095      744C6973 
 3095      74656E65 
 3095      7200
 3096              	.LASF11:
 3097 05d1 6C6F6E67 		.ascii	"long unsigned int\000"
 3097      20756E73 
 3097      69676E65 
ARM GAS  /var/folders/qh/xwg3v3kj02qbxczjpdb8lzfr0000gn/T//ccgMbDgN.s 			page 60


 3097      6420696E 
 3097      7400
 3098              	.LASF8:
 3099 05e3 696E7433 		.ascii	"int32_t\000"
 3099      325F7400 
 3100              	.LASF142:
 3101 05eb 77615468 		.ascii	"waThread1\000"
 3101      72656164 
 3101      3100
 3102              	.LASF143:
 3103 05f5 77615468 		.ascii	"waThread2\000"
 3103      72656164 
 3103      3200
 3104              	.LASF4:
 3105 05ff 756E7369 		.ascii	"unsigned char\000"
 3105      676E6564 
 3105      20636861 
 3105      7200
 3106              	.LASF35:
 3107 060d 705F7265 		.ascii	"p_refs\000"
 3107      667300
 3108              	.LASF58:
 3109 0614 52656164 		.ascii	"ReadyList\000"
 3109      794C6973 
 3109      7400
 3110              	.LASF147:
 3111 061e 63685468 		.ascii	"chThdSleep\000"
 3111      64536C65 
 3111      657000
 3112              	.LASF36:
 3113 0629 705F7072 		.ascii	"p_preempt\000"
 3113      65656D70 
 3113      7400
 3114              	.LASF69:
 3115 0633 65735F6E 		.ascii	"es_next\000"
 3115      65787400 
 3116              	.LASF119:
 3117 063b 73746174 		.ascii	"state\000"
 3117      6500
 3118              	.LASF139:
 3119 0641 54687265 		.ascii	"Thread1\000"
 3119      61643100 
 3120              	.LASF138:
 3121 0649 54687265 		.ascii	"Thread2\000"
 3121      61643200 
 3122              	.LASF111:
 3123 0651 696F6D6F 		.ascii	"iomode_t\000"
 3123      64655F74 
 3123      00
 3124              	.LASF62:
 3125 065a 6D5F6E65 		.ascii	"m_next\000"
 3125      787400
 3126              	.LASF1:
 3127 0661 7369676E 		.ascii	"signed char\000"
 3127      65642063 
 3127      68617200 
 3128              	.LASF130:
ARM GAS  /var/folders/qh/xwg3v3kj02qbxczjpdb8lzfr0000gn/T//ccgMbDgN.s 			page 61


 3129 066d 72656164 		.ascii	"readt\000"
 3129      7400
 3130              	.LASF7:
 3131 0673 73686F72 		.ascii	"short unsigned int\000"
 3131      7420756E 
 3131      7369676E 
 3131      65642069 
 3131      6E7400
 3132              	.LASF54:
 3133 0686 725F6374 		.ascii	"r_ctx\000"
 3133      7800
 3134              	.LASF48:
 3135 068c 73746B61 		.ascii	"stkalign_t\000"
 3135      6C69676E 
 3135      5F7400
 3136              	.LASF157:
 3137 0697 6D61696E 		.ascii	"main\000"
 3137      00
 3138              	.LASF67:
 3139 069c 656C5F66 		.ascii	"el_flags\000"
 3139      6C616773 
 3139      00
 3140              	.LASF71:
 3141 06a5 65786974 		.ascii	"exitcode\000"
 3141      636F6465 
 3141      00
 3142              	.LASF106:
 3143 06ae 4C434B52 		.ascii	"LCKR\000"
 3143      00
 3144              	.LASF133:
 3145 06b3 73635F66 		.ascii	"sc_function\000"
 3145      756E6374 
 3145      696F6E00 
 3146              		.ident	"GCC: (GNU Tools for ARM Embedded Processors) 4.8.3 20131129 (release) [ARM/embedded-4_8-br
ARM GAS  /var/folders/qh/xwg3v3kj02qbxczjpdb8lzfr0000gn/T//ccgMbDgN.s 			page 62


DEFINED SYMBOLS
                            *ABS*:0000000000000000 main.c
/var/folders/qh/xwg3v3kj02qbxczjpdb8lzfr0000gn/T//ccgMbDgN.s:18     .text.Thread2:0000000000000000 $t
/var/folders/qh/xwg3v3kj02qbxczjpdb8lzfr0000gn/T//ccgMbDgN.s:23     .text.Thread2:0000000000000000 Thread2
/var/folders/qh/xwg3v3kj02qbxczjpdb8lzfr0000gn/T//ccgMbDgN.s:67     .text.Thread2:0000000000000024 $d
/var/folders/qh/xwg3v3kj02qbxczjpdb8lzfr0000gn/T//ccgMbDgN.s:74     .text.Thread1:0000000000000000 $t
/var/folders/qh/xwg3v3kj02qbxczjpdb8lzfr0000gn/T//ccgMbDgN.s:79     .text.Thread1:0000000000000000 Thread1
/var/folders/qh/xwg3v3kj02qbxczjpdb8lzfr0000gn/T//ccgMbDgN.s:126    .text.Thread1:0000000000000028 $d
/var/folders/qh/xwg3v3kj02qbxczjpdb8lzfr0000gn/T//ccgMbDgN.s:133    .text.startup.main:0000000000000000 $t
/var/folders/qh/xwg3v3kj02qbxczjpdb8lzfr0000gn/T//ccgMbDgN.s:139    .text.startup.main:0000000000000000 main
/var/folders/qh/xwg3v3kj02qbxczjpdb8lzfr0000gn/T//ccgMbDgN.s:245    .text.startup.main:0000000000000090 $d
/var/folders/qh/xwg3v3kj02qbxczjpdb8lzfr0000gn/T//ccgMbDgN.s:340    .bss.sh:0000000000000000 sh
/var/folders/qh/xwg3v3kj02qbxczjpdb8lzfr0000gn/T//ccgMbDgN.s:257    .bss.waThread1:0000000000000000 $d
/var/folders/qh/xwg3v3kj02qbxczjpdb8lzfr0000gn/T//ccgMbDgN.s:261    .bss.waThread1:0000000000000000 waThread1
/var/folders/qh/xwg3v3kj02qbxczjpdb8lzfr0000gn/T//ccgMbDgN.s:264    .bss.waThread2:0000000000000000 $d
/var/folders/qh/xwg3v3kj02qbxczjpdb8lzfr0000gn/T//ccgMbDgN.s:268    .bss.waThread2:0000000000000000 waThread2
/var/folders/qh/xwg3v3kj02qbxczjpdb8lzfr0000gn/T//ccgMbDgN.s:271    .rodata.shCmds:0000000000000000 $d
/var/folders/qh/xwg3v3kj02qbxczjpdb8lzfr0000gn/T//ccgMbDgN.s:274    .rodata.shCmds:0000000000000000 shCmds
/var/folders/qh/xwg3v3kj02qbxczjpdb8lzfr0000gn/T//ccgMbDgN.s:298    .rodata.shCfg:0000000000000000 $d
/var/folders/qh/xwg3v3kj02qbxczjpdb8lzfr0000gn/T//ccgMbDgN.s:302    .rodata.shCfg:0000000000000000 shCfg
/var/folders/qh/xwg3v3kj02qbxczjpdb8lzfr0000gn/T//ccgMbDgN.s:306    .rodata.str1.4:0000000000000000 $d
/var/folders/qh/xwg3v3kj02qbxczjpdb8lzfr0000gn/T//ccgMbDgN.s:337    .bss.sh:0000000000000000 $d
                     .debug_frame:0000000000000010 $d
/var/folders/qh/xwg3v3kj02qbxczjpdb8lzfr0000gn/T//ccgMbDgN.s:132    .text.Thread1:0000000000000034 $t
/var/folders/qh/xwg3v3kj02qbxczjpdb8lzfr0000gn/T//ccgMbDgN.s:256    .text.startup.main:00000000000000ac $t

UNDEFINED SYMBOLS
chThdSleep
rlist
halInit
chSysInit
sdStart
_pal_lld_setgroupmode
chThdCreateStatic
shellInit
chThdRelease
shellCreate
SD1
cmdGetTemp
cmdGetVoltage
cmdGetBattery
cmdBluetooth
cmdPwm
cmdSpi
cmdI2c
cmdDate
cmdAdc
cmdDac
