ARM GAS  /var/folders/qh/xwg3v3kj02qbxczjpdb8lzfr0000gn/T//ccTU8HMp.s 			page 1


   1              		.cpu cortex-m0
   2              		.fpu softvfp
   3              		.eabi_attribute 20, 1
   4              		.eabi_attribute 21, 1
   5              		.eabi_attribute 23, 3
   6              		.eabi_attribute 24, 1
   7              		.eabi_attribute 25, 1
   8              		.eabi_attribute 26, 1
   9              		.eabi_attribute 30, 2
  10              		.eabi_attribute 34, 0
  11              		.eabi_attribute 18, 4
  12              		.code	16
  13              		.file	"main.c"
  14              		.text
  15              	.Ltext0:
  16              		.cfi_sections	.debug_frame
  17              		.section	.text.Thread2,"ax",%progbits
  18              		.align	2
  19              		.p2align 4,,15
  20              		.code	16
  21              		.thumb_func
  22              		.type	Thread2, %function
  23              	Thread2:
  24              	.LFB42:
  25              		.file 1 "main.c"
  26              		.loc 1 60 0
  27              		.cfi_startproc
  28              	.LVL0:
  29              		.loc 1 63 0
  30 0000 084B     		ldr	r3, .L4
  31              		.loc 1 60 0
  32 0002 70B5     		push	{r4, r5, r6, lr}
  33              		.cfi_def_cfa_offset 16
  34              		.cfi_offset 4, -16
  35              		.cfi_offset 5, -12
  36              		.cfi_offset 6, -8
  37              		.cfi_offset 14, -4
  38              		.loc 1 63 0
  39 0004 9B69     		ldr	r3, [r3, #24]
  40 0006 084A     		ldr	r2, .L4+4
  41              		.loc 1 65 0
  42 0008 8025     		mov	r5, #128
  43 000a AD00     		lsl	r5, r5, #2
  44 000c 074C     		ldr	r4, .L4+8
  45              		.loc 1 63 0
  46 000e 9A61     		str	r2, [r3, #24]
  47              		.loc 1 65 0
  48 0010 2E1C     		add	r6, r5, #0
  49              	.LVL1:
  50              	.L2:
  51              		.loc 1 65 0 is_stmt 0 discriminator 1
  52 0012 6683     		strh	r6, [r4, #26]
  53              		.loc 1 66 0 is_stmt 1 discriminator 1
  54 0014 FA20     		mov	r0, #250
  55 0016 FFF7FEFF 		bl	chThdSleep
  56              	.LVL2:
  57              		.loc 1 67 0 discriminator 1
ARM GAS  /var/folders/qh/xwg3v3kj02qbxczjpdb8lzfr0000gn/T//ccTU8HMp.s 			page 2


  58 001a 2583     		strh	r5, [r4, #24]
  59              		.loc 1 68 0 discriminator 1
  60 001c FA20     		mov	r0, #250
  61 001e FFF7FEFF 		bl	chThdSleep
  62              	.LVL3:
  63 0022 F6E7     		b	.L2
  64              	.L5:
  65              		.align	2
  66              	.L4:
  67 0024 00000000 		.word	rlist
  68 0028 00000000 		.word	.LC1
  69 002c 00080048 		.word	1207961600
  70              		.cfi_endproc
  71              	.LFE42:
  72              		.size	Thread2, .-Thread2
  73              		.section	.text.Thread1,"ax",%progbits
  74              		.align	2
  75              		.p2align 4,,15
  76              		.code	16
  77              		.thumb_func
  78              		.type	Thread1, %function
  79              	Thread1:
  80              	.LFB41:
  81              		.loc 1 42 0
  82              		.cfi_startproc
  83              	.LVL4:
  84              		.loc 1 45 0
  85 0000 094B     		ldr	r3, .L8
  86              		.loc 1 42 0
  87 0002 70B5     		push	{r4, r5, r6, lr}
  88              		.cfi_def_cfa_offset 16
  89              		.cfi_offset 4, -16
  90              		.cfi_offset 5, -12
  91              		.cfi_offset 6, -8
  92              		.cfi_offset 14, -4
  93              		.loc 1 45 0
  94 0004 9B69     		ldr	r3, [r3, #24]
  95 0006 094A     		ldr	r2, .L8+4
  96              		.loc 1 47 0
  97 0008 8025     		mov	r5, #128
  98 000a 6D00     		lsl	r5, r5, #1
  99 000c 084C     		ldr	r4, .L8+8
 100              		.loc 1 45 0
 101 000e 9A61     		str	r2, [r3, #24]
 102              		.loc 1 47 0
 103 0010 2E1C     		add	r6, r5, #0
 104              	.LVL5:
 105              	.L7:
 106              		.loc 1 48 0 discriminator 1
 107 0012 FA20     		mov	r0, #250
 108              		.loc 1 47 0 discriminator 1
 109 0014 6683     		strh	r6, [r4, #26]
 110              		.loc 1 48 0 discriminator 1
 111 0016 4000     		lsl	r0, r0, #1
 112 0018 FFF7FEFF 		bl	chThdSleep
 113              	.LVL6:
 114              		.loc 1 50 0 discriminator 1
ARM GAS  /var/folders/qh/xwg3v3kj02qbxczjpdb8lzfr0000gn/T//ccTU8HMp.s 			page 3


 115 001c FA20     		mov	r0, #250
 116              		.loc 1 49 0 discriminator 1
 117 001e 2583     		strh	r5, [r4, #24]
 118              		.loc 1 50 0 discriminator 1
 119 0020 4000     		lsl	r0, r0, #1
 120 0022 FFF7FEFF 		bl	chThdSleep
 121              	.LVL7:
 122 0026 F4E7     		b	.L7
 123              	.L9:
 124              		.align	2
 125              	.L8:
 126 0028 00000000 		.word	rlist
 127 002c 0C000000 		.word	.LC4
 128 0030 00080048 		.word	1207961600
 129              		.cfi_endproc
 130              	.LFE41:
 131              		.size	Thread1, .-Thread1
 132 0034 C046C046 		.section	.text.startup.main,"ax",%progbits
 132      C046C046 
 132      C046C046 
 133              		.align	2
 134              		.p2align 4,,15
 135              		.global	main
 136              		.code	16
 137              		.thumb_func
 138              		.type	main, %function
 139              	main:
 140              	.LFB43:
 141              		.loc 1 75 0
 142              		.cfi_startproc
 143              	.LVL8:
 144 0000 30B5     		push	{r4, r5, lr}
 145              		.cfi_def_cfa_offset 12
 146              		.cfi_offset 4, -12
 147              		.cfi_offset 5, -8
 148              		.cfi_offset 14, -4
 149 0002 83B0     		sub	sp, sp, #12
 150              		.cfi_def_cfa_offset 24
 151              		.loc 1 86 0
 152 0004 FFF7FEFF 		bl	halInit
 153              	.LVL9:
 154              		.loc 1 87 0
 155 0008 FFF7FEFF 		bl	chSysInit
 156              	.LVL10:
 157              		.loc 1 88 0
 158 000c FFF7FEFF 		bl	hardwareInitialise
 159              	.LVL11:
 160              		.loc 1 89 0
 161 0010 2F4C     		ldr	r4, .L15
 162 0012 D821     		mov	r1, #216
 163 0014 0022     		mov	r2, #0
 164 0016 201C     		mov	r0, r4
 165 0018 4900     		lsl	r1, r1, #1
 166 001a FFF7FEFF 		bl	chPoolInit
 167              	.LVL12:
 168              		.loc 1 90 0
 169 001e 201C     		mov	r0, r4
ARM GAS  /var/folders/qh/xwg3v3kj02qbxczjpdb8lzfr0000gn/T//ccTU8HMp.s 			page 4


 170 0020 2C49     		ldr	r1, .L15+4
 171 0022 FFF7FEFF 		bl	chPoolFree
 172              	.LVL13:
 173              		.loc 1 91 0
 174 0026 201C     		mov	r0, r4
 175 0028 2B49     		ldr	r1, .L15+8
 176 002a FFF7FEFF 		bl	chPoolFree
 177              	.LVL14:
 178              		.loc 1 92 0
 179 002e 201C     		mov	r0, r4
 180 0030 2A49     		ldr	r1, .L15+12
 181 0032 FFF7FEFF 		bl	chPoolFree
 182              	.LVL15:
 183              		.loc 1 98 0
 184 0036 2A4D     		ldr	r5, .L15+16
 185 0038 0021     		mov	r1, #0
 186 003a 281C     		mov	r0, r5
 187 003c FFF7FEFF 		bl	sdStart
 188              	.LVL16:
 189              		.loc 1 99 0
 190 0040 9020     		mov	r0, #144
 191 0042 8021     		mov	r1, #128
 192 0044 C005     		lsl	r0, r0, #23
 193 0046 8900     		lsl	r1, r1, #2
 194 0048 8222     		mov	r2, #130
 195 004a FFF7FEFF 		bl	_pal_lld_setgroupmode
 196              	.LVL17:
 197              		.loc 1 100 0
 198 004e 9020     		mov	r0, #144
 199 0050 8021     		mov	r1, #128
 200 0052 C005     		lsl	r0, r0, #23
 201 0054 C900     		lsl	r1, r1, #3
 202 0056 8222     		mov	r2, #130
 203 0058 FFF7FEFF 		bl	_pal_lld_setgroupmode
 204              	.LVL18:
 205              		.loc 1 101 0
 206 005c 2148     		ldr	r0, .L15+20
 207 005e 0321     		mov	r1, #3
 208 0060 0322     		mov	r2, #3
 209 0062 FFF7FEFF 		bl	_pal_lld_setgroupmode
 210              	.LVL19:
 211              		.loc 1 107 0
 212 0066 2B1C     		mov	r3, r5
 213 0068 201C     		mov	r0, r4
 214 006a 4021     		mov	r1, #64
 215 006c 1E4A     		ldr	r2, .L15+24
 216 006e FFF7FEFF 		bl	chThdCreateFromMemoryPool
 217              	.LVL20:
 218              		.loc 1 108 0
 219 0072 1E4B     		ldr	r3, .L15+28
 220              		.loc 1 109 0
 221 0074 0024     		mov	r4, #0
 222              		.loc 1 108 0
 223 0076 1A68     		ldr	r2, [r3]
 224              		.loc 1 109 0
 225 0078 9821     		mov	r1, #152
 226              		.loc 1 108 0
ARM GAS  /var/folders/qh/xwg3v3kj02qbxczjpdb8lzfr0000gn/T//ccTU8HMp.s 			page 5


 227 007a 0132     		add	r2, r2, #1
 228 007c 1A60     		str	r2, [r3]
 229              		.loc 1 109 0
 230 007e 4900     		lsl	r1, r1, #1
 231 0080 4022     		mov	r2, #64
 232 0082 1B4B     		ldr	r3, .L15+32
 233 0084 0094     		str	r4, [sp]
 234 0086 1B48     		ldr	r0, .L15+36
 235 0088 FFF7FEFF 		bl	chThdCreateStatic
 236              	.LVL21:
 237              		.loc 1 110 0
 238 008c 9821     		mov	r1, #152
 239 008e 4900     		lsl	r1, r1, #1
 240 0090 4022     		mov	r2, #64
 241 0092 194B     		ldr	r3, .L15+40
 242 0094 0094     		str	r4, [sp]
 243 0096 1948     		ldr	r0, .L15+44
 244 0098 FFF7FEFF 		bl	chThdCreateStatic
 245              	.LVL22:
 246              		.loc 1 122 0
 247 009c FFF7FEFF 		bl	shellInit
 248              	.LVL23:
 249 00a0 174D     		ldr	r5, .L15+48
 250 00a2 03E0     		b	.L13
 251              	.LVL24:
 252              	.L12:
 253              		.loc 1 131 0
 254 00a4 FA20     		mov	r0, #250
 255 00a6 8000     		lsl	r0, r0, #2
 256 00a8 FFF7FEFF 		bl	chThdSleep
 257              	.LVL25:
 258              	.L13:
 259              		.loc 1 125 0
 260 00ac 002C     		cmp	r4, #0
 261 00ae 07D0     		beq	.L14
 262              		.loc 1 127 0
 263 00b0 237F     		ldrb	r3, [r4, #28]
 264 00b2 0E2B     		cmp	r3, #14
 265 00b4 F6D1     		bne	.L12
 266              		.loc 1 128 0
 267 00b6 201C     		mov	r0, r4
 268 00b8 FFF7FEFF 		bl	chThdRelease
 269              	.LVL26:
 270              		.loc 1 129 0
 271 00bc 0024     		mov	r4, #0
 272 00be F1E7     		b	.L12
 273              	.LVL27:
 274              	.L14:
 275              		.loc 1 126 0
 276 00c0 AC21     		mov	r1, #172
 277 00c2 281C     		mov	r0, r5
 278 00c4 8900     		lsl	r1, r1, #2
 279 00c6 4022     		mov	r2, #64
 280 00c8 FFF7FEFF 		bl	shellCreate
 281              	.LVL28:
 282 00cc 041C     		mov	r4, r0
 283              	.LVL29:
ARM GAS  /var/folders/qh/xwg3v3kj02qbxczjpdb8lzfr0000gn/T//ccTU8HMp.s 			page 6


 284 00ce E9E7     		b	.L12
 285              	.L16:
 286              		.align	2
 287              	.L15:
 288 00d0 00000000 		.word	.LANCHOR0
 289 00d4 00000000 		.word	.LANCHOR1
 290 00d8 00000000 		.word	.LANCHOR2
 291 00dc 00000000 		.word	.LANCHOR3
 292 00e0 00000000 		.word	SD1
 293 00e4 00080048 		.word	1207961600
 294 00e8 00000000 		.word	outputResponse
 295 00ec 00000000 		.word	.LANCHOR4
 296 00f0 00000000 		.word	Thread1
 297 00f4 00000000 		.word	.LANCHOR5
 298 00f8 00000000 		.word	Thread2
 299 00fc 00000000 		.word	.LANCHOR6
 300 0100 00000000 		.word	.LANCHOR7
 301              		.cfi_endproc
 302              	.LFE43:
 303              		.size	main, .-main
 304              		.global	sh
 305              		.global	thread_area2
 306              		.global	thread_area1
 307              		.global	thread_area0
 308              		.global	threadArray
 309              		.global	threadCount
 310              		.global	mp
 311 0104 C046C046 		.section	.bss.waThread1,"aw",%nobits
 311      C046C046 
 311      C046C046 
 312              		.align	3
 313              		.set	.LANCHOR5,. + 0
 314              		.type	waThread1, %object
 315              		.size	waThread1, 304
 316              	waThread1:
 317 0000 00000000 		.space	304
 317      00000000 
 317      00000000 
 317      00000000 
 317      00000000 
 318              		.section	.bss.waThread2,"aw",%nobits
 319              		.align	3
 320              		.set	.LANCHOR6,. + 0
 321              		.type	waThread2, %object
 322              		.size	waThread2, 304
 323              	waThread2:
 324 0000 00000000 		.space	304
 324      00000000 
 324      00000000 
 324      00000000 
 324      00000000 
 325              		.section	.bss.mp,"aw",%nobits
 326              		.align	2
 327              		.set	.LANCHOR0,. + 0
 328              		.type	mp, %object
 329              		.size	mp, 12
 330              	mp:
ARM GAS  /var/folders/qh/xwg3v3kj02qbxczjpdb8lzfr0000gn/T//ccTU8HMp.s 			page 7


 331 0000 00000000 		.space	12
 331      00000000 
 331      00000000 
 332              		.section	.bss.threadCount,"aw",%nobits
 333              		.align	2
 334              		.set	.LANCHOR4,. + 0
 335              		.type	threadCount, %object
 336              		.size	threadCount, 4
 337              	threadCount:
 338 0000 00000000 		.space	4
 339              		.section	.rodata.shCfg,"a",%progbits
 340              		.align	2
 341              		.set	.LANCHOR7,. + 0
 342              		.type	shCfg, %object
 343              		.size	shCfg, 8
 344              	shCfg:
 345 0000 00000000 		.word	SD1
 346 0004 00000000 		.word	shCmds
 347              		.section	.bss.thread_area0,"aw",%nobits
 348              		.align	3
 349              		.set	.LANCHOR1,. + 0
 350              		.type	thread_area0, %object
 351              		.size	thread_area0, 432
 352              	thread_area0:
 353 0000 00000000 		.space	432
 353      00000000 
 353      00000000 
 353      00000000 
 353      00000000 
 354              		.section	.bss.thread_area1,"aw",%nobits
 355              		.align	3
 356              		.set	.LANCHOR2,. + 0
 357              		.type	thread_area1, %object
 358              		.size	thread_area1, 432
 359              	thread_area1:
 360 0000 00000000 		.space	432
 360      00000000 
 360      00000000 
 360      00000000 
 360      00000000 
 361              		.section	.rodata.str1.4,"aMS",%progbits,1
 362              		.align	2
 363              	.LC1:
 364 0000 626C696E 		.ascii	"blinker2\000"
 364      6B657232 
 364      00
 365 0009 000000   		.space	3
 366              	.LC4:
 367 000c 626C696E 		.ascii	"blinker1\000"
 367      6B657231 
 367      00
 368 0015 000000   		.space	3
 369              	.LC18:
 370 0018 74656D70 		.ascii	"temp\000"
 370      00
 371 001d 000000   		.space	3
 372              	.LC19:
ARM GAS  /var/folders/qh/xwg3v3kj02qbxczjpdb8lzfr0000gn/T//ccTU8HMp.s 			page 8


 373 0020 766F6C74 		.ascii	"voltage\000"
 373      61676500 
 374              	.LC20:
 375 0028 62617474 		.ascii	"battery\000"
 375      65727900 
 376              	.LC21:
 377 0030 626C7565 		.ascii	"bluetooth\000"
 377      746F6F74 
 377      6800
 378 003a 0000     		.space	2
 379              	.LC22:
 380 003c 70776D00 		.ascii	"pwm\000"
 381              	.LC23:
 382 0040 73706900 		.ascii	"spi\000"
 383              	.LC24:
 384 0044 69326300 		.ascii	"i2c\000"
 385              	.LC25:
 386 0048 64617465 		.ascii	"date\000"
 386      00
 387 004d 000000   		.space	3
 388              	.LC26:
 389 0050 61646300 		.ascii	"adc\000"
 390              	.LC27:
 391 0054 64616300 		.ascii	"dac\000"
 392              		.section	.bss.thread_area2,"aw",%nobits
 393              		.align	3
 394              		.set	.LANCHOR3,. + 0
 395              		.type	thread_area2, %object
 396              		.size	thread_area2, 432
 397              	thread_area2:
 398 0000 00000000 		.space	432
 398      00000000 
 398      00000000 
 398      00000000 
 398      00000000 
 399              		.section	.bss.threadArray,"aw",%nobits
 400              		.align	2
 401              		.type	threadArray, %object
 402              		.size	threadArray, 12
 403              	threadArray:
 404 0000 00000000 		.space	12
 404      00000000 
 404      00000000 
 405              		.section	.bss.sh,"aw",%nobits
 406              		.align	2
 407              		.type	sh, %object
 408              		.size	sh, 4
 409              	sh:
 410 0000 00000000 		.space	4
 411              		.section	.rodata.shCmds,"a",%progbits
 412              		.align	2
 413              		.type	shCmds, %object
 414              		.size	shCmds, 88
 415              	shCmds:
 416 0000 18000000 		.word	.LC18
 417 0004 00000000 		.word	cmdGetTemp
 418 0008 20000000 		.word	.LC19
ARM GAS  /var/folders/qh/xwg3v3kj02qbxczjpdb8lzfr0000gn/T//ccTU8HMp.s 			page 9


 419 000c 00000000 		.word	cmdGetVoltage
 420 0010 28000000 		.word	.LC20
 421 0014 00000000 		.word	cmdGetBattery
 422 0018 30000000 		.word	.LC21
 423 001c 00000000 		.word	cmdBluetooth
 424 0020 3C000000 		.word	.LC22
 425 0024 00000000 		.word	cmdPwm
 426 0028 40000000 		.word	.LC23
 427 002c 00000000 		.word	cmdSpi
 428 0030 44000000 		.word	.LC24
 429 0034 00000000 		.word	cmdI2c
 430 0038 48000000 		.word	.LC25
 431 003c 00000000 		.word	cmdDate
 432 0040 50000000 		.word	.LC26
 433 0044 00000000 		.word	cmdAdc
 434 0048 54000000 		.word	.LC27
 435 004c 00000000 		.word	cmdDac
 436 0050 00000000 		.word	0
 437 0054 00000000 		.word	0
 438              		.text
 439              	.Letext0:
 440              		.file 2 "/usr/local/Cellar/gcc-arm-none-eabi-48/20131218/lib/gcc/arm-none-eabi/4.8.3/include/stdde
 441              		.file 3 "/usr/local/Cellar/gcc-arm-none-eabi-48/20131218/arm-none-eabi/include/stdint.h"
 442              		.file 4 "../../os/ports/GCC/ARMCMx/chtypes.h"
 443              		.file 5 "../../os/kernel/include/chlists.h"
 444              		.file 6 "../../os/kernel/include/chthreads.h"
 445              		.file 7 "../../os/ports/GCC/ARMCMx/chcore_v6m.h"
 446              		.file 8 "../../os/kernel/include/chschd.h"
 447              		.file 9 "../../os/kernel/include/chmtx.h"
 448              		.file 10 "../../os/kernel/include/chevents.h"
 449              		.file 11 "../../os/kernel/include/chmemcore.h"
 450              		.file 12 "../../os/kernel/include/chmempools.h"
 451              		.file 13 "../../os/kernel/include/chqueues.h"
 452              		.file 14 "../../os/kernel/include/chstreams.h"
 453              		.file 15 "../../os/hal/platforms/STM32F0xx/stm32f0xx.h"
 454              		.file 16 "../../os/hal/platforms/STM32/GPIOv2/pal_lld.h"
 455              		.file 17 "../../os/hal/include/serial.h"
 456              		.file 18 "../../os/hal/platforms/STM32/USARTv2/serial_lld.h"
 457              		.file 19 "../../os/various/shell.h"
 458              		.file 20 "cmd.h"
 459              		.file 21 "../../os/hal/include/hal.h"
 460              		.file 22 "../../os/kernel/include/chsys.h"
 461              		.file 23 "hardware.h"
 462              		.file 24 "../../os/kernel/include/chdynamic.h"
 463              		.section	.debug_info,"",%progbits
 464              	.Ldebug_info0:
 465 0000 04100000 		.4byte	0x1004
 466 0004 0400     		.2byte	0x4
 467 0006 00000000 		.4byte	.Ldebug_abbrev0
 468 000a 04       		.byte	0x4
 469 000b 01       		.uleb128 0x1
 470 000c 62030000 		.4byte	.LASF170
 471 0010 01       		.byte	0x1
 472 0011 7C040000 		.4byte	.LASF171
 473 0015 5D020000 		.4byte	.LASF172
 474 0019 00000000 		.4byte	.Ldebug_ranges0+0
 475 001d 00000000 		.4byte	0
ARM GAS  /var/folders/qh/xwg3v3kj02qbxczjpdb8lzfr0000gn/T//ccTU8HMp.s 			page 10


 476 0021 00000000 		.4byte	.Ldebug_line0
 477 0025 02       		.uleb128 0x2
 478 0026 04       		.byte	0x4
 479 0027 05       		.byte	0x5
 480 0028 696E7400 		.ascii	"int\000"
 481 002c 03       		.uleb128 0x3
 482 002d 08000000 		.4byte	.LASF2
 483 0031 02       		.byte	0x2
 484 0032 D4       		.byte	0xd4
 485 0033 37000000 		.4byte	0x37
 486 0037 04       		.uleb128 0x4
 487 0038 04       		.byte	0x4
 488 0039 07       		.byte	0x7
 489 003a D1010000 		.4byte	.LASF0
 490 003e 04       		.uleb128 0x4
 491 003f 01       		.byte	0x1
 492 0040 06       		.byte	0x6
 493 0041 A3000000 		.4byte	.LASF1
 494 0045 03       		.uleb128 0x3
 495 0046 30070000 		.4byte	.LASF3
 496 004a 03       		.byte	0x3
 497 004b 2A       		.byte	0x2a
 498 004c 50000000 		.4byte	0x50
 499 0050 04       		.uleb128 0x4
 500 0051 01       		.byte	0x1
 501 0052 08       		.byte	0x8
 502 0053 26050000 		.4byte	.LASF4
 503 0057 04       		.uleb128 0x4
 504 0058 02       		.byte	0x2
 505 0059 05       		.byte	0x5
 506 005a 5A050000 		.4byte	.LASF5
 507 005e 03       		.uleb128 0x3
 508 005f DE010000 		.4byte	.LASF6
 509 0063 03       		.byte	0x3
 510 0064 36       		.byte	0x36
 511 0065 69000000 		.4byte	0x69
 512 0069 04       		.uleb128 0x4
 513 006a 02       		.byte	0x2
 514 006b 07       		.byte	0x7
 515 006c AA020000 		.4byte	.LASF7
 516 0070 03       		.uleb128 0x3
 517 0071 1E050000 		.4byte	.LASF8
 518 0075 03       		.byte	0x3
 519 0076 4F       		.byte	0x4f
 520 0077 7B000000 		.4byte	0x7b
 521 007b 04       		.uleb128 0x4
 522 007c 04       		.byte	0x4
 523 007d 05       		.byte	0x5
 524 007e 09010000 		.4byte	.LASF9
 525 0082 03       		.uleb128 0x3
 526 0083 E8060000 		.4byte	.LASF10
 527 0087 03       		.byte	0x3
 528 0088 50       		.byte	0x50
 529 0089 8D000000 		.4byte	0x8d
 530 008d 04       		.uleb128 0x4
 531 008e 04       		.byte	0x4
 532 008f 07       		.byte	0x7
ARM GAS  /var/folders/qh/xwg3v3kj02qbxczjpdb8lzfr0000gn/T//ccTU8HMp.s 			page 11


 533 0090 39060000 		.4byte	.LASF11
 534 0094 04       		.uleb128 0x4
 535 0095 08       		.byte	0x8
 536 0096 05       		.byte	0x5
 537 0097 95000000 		.4byte	.LASF12
 538 009b 03       		.uleb128 0x3
 539 009c 16000000 		.4byte	.LASF13
 540 00a0 03       		.byte	0x3
 541 00a1 78       		.byte	0x78
 542 00a2 A6000000 		.4byte	0xa6
 543 00a6 04       		.uleb128 0x4
 544 00a7 08       		.byte	0x8
 545 00a8 07       		.byte	0x7
 546 00a9 52000000 		.4byte	.LASF14
 547 00ad 04       		.uleb128 0x4
 548 00ae 01       		.byte	0x1
 549 00af 02       		.byte	0x2
 550 00b0 18050000 		.4byte	.LASF15
 551 00b4 03       		.uleb128 0x3
 552 00b5 DF020000 		.4byte	.LASF16
 553 00b9 04       		.byte	0x4
 554 00ba 25       		.byte	0x25
 555 00bb 45000000 		.4byte	0x45
 556 00bf 03       		.uleb128 0x3
 557 00c0 1F010000 		.4byte	.LASF17
 558 00c4 04       		.byte	0x4
 559 00c5 26       		.byte	0x26
 560 00c6 45000000 		.4byte	0x45
 561 00ca 03       		.uleb128 0x3
 562 00cb D1040000 		.4byte	.LASF18
 563 00cf 04       		.byte	0x4
 564 00d0 27       		.byte	0x27
 565 00d1 45000000 		.4byte	0x45
 566 00d5 03       		.uleb128 0x3
 567 00d6 2F060000 		.4byte	.LASF19
 568 00da 04       		.byte	0x4
 569 00db 28       		.byte	0x28
 570 00dc 45000000 		.4byte	0x45
 571 00e0 03       		.uleb128 0x3
 572 00e1 08050000 		.4byte	.LASF20
 573 00e5 04       		.byte	0x4
 574 00e6 29       		.byte	0x29
 575 00e7 82000000 		.4byte	0x82
 576 00eb 03       		.uleb128 0x3
 577 00ec BD020000 		.4byte	.LASF21
 578 00f0 04       		.byte	0x4
 579 00f1 2A       		.byte	0x2a
 580 00f2 70000000 		.4byte	0x70
 581 00f6 03       		.uleb128 0x3
 582 00f7 F3020000 		.4byte	.LASF22
 583 00fb 04       		.byte	0x4
 584 00fc 2C       		.byte	0x2c
 585 00fd 82000000 		.4byte	0x82
 586 0101 03       		.uleb128 0x3
 587 0102 DB050000 		.4byte	.LASF23
 588 0106 04       		.byte	0x4
 589 0107 2D       		.byte	0x2d
ARM GAS  /var/folders/qh/xwg3v3kj02qbxczjpdb8lzfr0000gn/T//ccTU8HMp.s 			page 12


 590 0108 82000000 		.4byte	0x82
 591 010c 03       		.uleb128 0x3
 592 010d 78060000 		.4byte	.LASF24
 593 0111 04       		.byte	0x4
 594 0112 2E       		.byte	0x2e
 595 0113 82000000 		.4byte	0x82
 596 0117 03       		.uleb128 0x3
 597 0118 CF050000 		.4byte	.LASF25
 598 011c 05       		.byte	0x5
 599 011d 23       		.byte	0x23
 600 011e 22010000 		.4byte	0x122
 601 0122 05       		.uleb128 0x5
 602 0123 CF050000 		.4byte	.LASF25
 603 0127 48       		.byte	0x48
 604 0128 06       		.byte	0x6
 605 0129 57       		.byte	0x57
 606 012a 1F020000 		.4byte	0x21f
 607 012e 06       		.uleb128 0x6
 608 012f 84050000 		.4byte	.LASF26
 609 0133 06       		.byte	0x6
 610 0134 58       		.byte	0x58
 611 0135 40020000 		.4byte	0x240
 612 0139 00       		.byte	0
 613 013a 06       		.uleb128 0x6
 614 013b 01050000 		.4byte	.LASF27
 615 013f 06       		.byte	0x6
 616 0140 5A       		.byte	0x5a
 617 0141 40020000 		.4byte	0x240
 618 0145 04       		.byte	0x4
 619 0146 06       		.uleb128 0x6
 620 0147 7E000000 		.4byte	.LASF28
 621 014b 06       		.byte	0x6
 622 014c 5C       		.byte	0x5c
 623 014d E0000000 		.4byte	0xe0
 624 0151 08       		.byte	0x8
 625 0152 06       		.uleb128 0x6
 626 0153 80070000 		.4byte	.LASF29
 627 0157 06       		.byte	0x6
 628 0158 5D       		.byte	0x5d
 629 0159 FB020000 		.4byte	0x2fb
 630 015d 0C       		.byte	0xc
 631 015e 06       		.uleb128 0x6
 632 015f 4F010000 		.4byte	.LASF30
 633 0163 06       		.byte	0x6
 634 0164 5F       		.byte	0x5f
 635 0165 40020000 		.4byte	0x240
 636 0169 10       		.byte	0x10
 637 016a 06       		.uleb128 0x6
 638 016b 52040000 		.4byte	.LASF31
 639 016f 06       		.byte	0x6
 640 0170 60       		.byte	0x60
 641 0171 40020000 		.4byte	0x240
 642 0175 14       		.byte	0x14
 643 0176 06       		.uleb128 0x6
 644 0177 B3050000 		.4byte	.LASF32
 645 017b 06       		.byte	0x6
 646 017c 67       		.byte	0x67
ARM GAS  /var/folders/qh/xwg3v3kj02qbxczjpdb8lzfr0000gn/T//ccTU8HMp.s 			page 13


 647 017d E7040000 		.4byte	0x4e7
 648 0181 18       		.byte	0x18
 649 0182 06       		.uleb128 0x6
 650 0183 64050000 		.4byte	.LASF33
 651 0187 06       		.byte	0x6
 652 0188 72       		.byte	0x72
 653 0189 BF000000 		.4byte	0xbf
 654 018d 1C       		.byte	0x1c
 655 018e 06       		.uleb128 0x6
 656 018f A3050000 		.4byte	.LASF34
 657 0193 06       		.byte	0x6
 658 0194 76       		.byte	0x76
 659 0195 B4000000 		.4byte	0xb4
 660 0199 1D       		.byte	0x1d
 661 019a 06       		.uleb128 0x6
 662 019b 28010000 		.4byte	.LASF35
 663 019f 06       		.byte	0x6
 664 01a0 7B       		.byte	0x7b
 665 01a1 CA000000 		.4byte	0xca
 666 01a5 1E       		.byte	0x1e
 667 01a6 06       		.uleb128 0x6
 668 01a7 6C050000 		.4byte	.LASF36
 669 01ab 06       		.byte	0x6
 670 01ac 81       		.byte	0x81
 671 01ad D5000000 		.4byte	0xd5
 672 01b1 1F       		.byte	0x1f
 673 01b2 06       		.uleb128 0x6
 674 01b3 F7010000 		.4byte	.LASF37
 675 01b7 06       		.byte	0x6
 676 01b8 88       		.byte	0x88
 677 01b9 26030000 		.4byte	0x326
 678 01bd 20       		.byte	0x20
 679 01be 07       		.uleb128 0x7
 680 01bf 705F7500 		.ascii	"p_u\000"
 681 01c3 06       		.byte	0x6
 682 01c4 AD       		.byte	0xad
 683 01c5 B2040000 		.4byte	0x4b2
 684 01c9 24       		.byte	0x24
 685 01ca 06       		.uleb128 0x6
 686 01cb 86070000 		.4byte	.LASF38
 687 01cf 06       		.byte	0x6
 688 01d0 B2       		.byte	0xb2
 689 01d1 66020000 		.4byte	0x266
 690 01d5 28       		.byte	0x28
 691 01d6 06       		.uleb128 0x6
 692 01d7 11020000 		.4byte	.LASF39
 693 01db 06       		.byte	0x6
 694 01dc B8       		.byte	0xb8
 695 01dd 46020000 		.4byte	0x246
 696 01e1 2C       		.byte	0x2c
 697 01e2 06       		.uleb128 0x6
 698 01e3 C7060000 		.4byte	.LASF40
 699 01e7 06       		.byte	0x6
 700 01e8 BC       		.byte	0xbc
 701 01e9 EB000000 		.4byte	0xeb
 702 01ed 34       		.byte	0x34
 703 01ee 06       		.uleb128 0x6
ARM GAS  /var/folders/qh/xwg3v3kj02qbxczjpdb8lzfr0000gn/T//ccTU8HMp.s 			page 14


 704 01ef 47040000 		.4byte	.LASF41
 705 01f3 06       		.byte	0x6
 706 01f4 C2       		.byte	0xc2
 707 01f5 F6000000 		.4byte	0xf6
 708 01f9 38       		.byte	0x38
 709 01fa 06       		.uleb128 0x6
 710 01fb 50050000 		.4byte	.LASF42
 711 01ff 06       		.byte	0x6
 712 0200 C9       		.byte	0xc9
 713 0201 F9040000 		.4byte	0x4f9
 714 0205 3C       		.byte	0x3c
 715 0206 06       		.uleb128 0x6
 716 0207 82060000 		.4byte	.LASF43
 717 020b 06       		.byte	0x6
 718 020c CD       		.byte	0xcd
 719 020d E0000000 		.4byte	0xe0
 720 0211 40       		.byte	0x40
 721 0212 06       		.uleb128 0x6
 722 0213 C3000000 		.4byte	.LASF44
 723 0217 06       		.byte	0x6
 724 0218 D3       		.byte	0xd3
 725 0219 7C020000 		.4byte	0x27c
 726 021d 44       		.byte	0x44
 727 021e 00       		.byte	0
 728 021f 08       		.uleb128 0x8
 729 0220 08       		.byte	0x8
 730 0221 05       		.byte	0x5
 731 0222 5A       		.byte	0x5a
 732 0223 40020000 		.4byte	0x240
 733 0227 06       		.uleb128 0x6
 734 0228 84050000 		.4byte	.LASF26
 735 022c 05       		.byte	0x5
 736 022d 5B       		.byte	0x5b
 737 022e 40020000 		.4byte	0x240
 738 0232 00       		.byte	0
 739 0233 06       		.uleb128 0x6
 740 0234 01050000 		.4byte	.LASF27
 741 0238 05       		.byte	0x5
 742 0239 5D       		.byte	0x5d
 743 023a 40020000 		.4byte	0x240
 744 023e 04       		.byte	0x4
 745 023f 00       		.byte	0
 746 0240 09       		.uleb128 0x9
 747 0241 04       		.byte	0x4
 748 0242 17010000 		.4byte	0x117
 749 0246 03       		.uleb128 0x3
 750 0247 60040000 		.4byte	.LASF45
 751 024b 05       		.byte	0x5
 752 024c 5F       		.byte	0x5f
 753 024d 1F020000 		.4byte	0x21f
 754 0251 08       		.uleb128 0x8
 755 0252 04       		.byte	0x4
 756 0253 05       		.byte	0x5
 757 0254 64       		.byte	0x64
 758 0255 66020000 		.4byte	0x266
 759 0259 06       		.uleb128 0x6
 760 025a 84050000 		.4byte	.LASF26
ARM GAS  /var/folders/qh/xwg3v3kj02qbxczjpdb8lzfr0000gn/T//ccTU8HMp.s 			page 15


 761 025e 05       		.byte	0x5
 762 025f 66       		.byte	0x66
 763 0260 40020000 		.4byte	0x240
 764 0264 00       		.byte	0
 765 0265 00       		.byte	0
 766 0266 03       		.uleb128 0x3
 767 0267 E7020000 		.4byte	.LASF46
 768 026b 05       		.byte	0x5
 769 026c 69       		.byte	0x69
 770 026d 51020000 		.4byte	0x251
 771 0271 03       		.uleb128 0x3
 772 0272 8D010000 		.4byte	.LASF47
 773 0276 07       		.byte	0x7
 774 0277 A0       		.byte	0xa0
 775 0278 7C020000 		.4byte	0x27c
 776 027c 0A       		.uleb128 0xa
 777 027d 04       		.byte	0x4
 778 027e 03       		.uleb128 0x3
 779 027f 27030000 		.4byte	.LASF48
 780 0283 07       		.byte	0x7
 781 0284 A6       		.byte	0xa6
 782 0285 9B000000 		.4byte	0x9b
 783 0289 05       		.uleb128 0x5
 784 028a CD060000 		.4byte	.LASF49
 785 028e 24       		.byte	0x24
 786 028f 07       		.byte	0x7
 787 0290 B3       		.byte	0xb3
 788 0291 FB020000 		.4byte	0x2fb
 789 0295 07       		.uleb128 0x7
 790 0296 723800   		.ascii	"r8\000"
 791 0299 07       		.byte	0x7
 792 029a B4       		.byte	0xb4
 793 029b 71020000 		.4byte	0x271
 794 029f 00       		.byte	0
 795 02a0 07       		.uleb128 0x7
 796 02a1 723900   		.ascii	"r9\000"
 797 02a4 07       		.byte	0x7
 798 02a5 B5       		.byte	0xb5
 799 02a6 71020000 		.4byte	0x271
 800 02aa 04       		.byte	0x4
 801 02ab 07       		.uleb128 0x7
 802 02ac 72313000 		.ascii	"r10\000"
 803 02b0 07       		.byte	0x7
 804 02b1 B6       		.byte	0xb6
 805 02b2 71020000 		.4byte	0x271
 806 02b6 08       		.byte	0x8
 807 02b7 07       		.uleb128 0x7
 808 02b8 72313100 		.ascii	"r11\000"
 809 02bc 07       		.byte	0x7
 810 02bd B7       		.byte	0xb7
 811 02be 71020000 		.4byte	0x271
 812 02c2 0C       		.byte	0xc
 813 02c3 07       		.uleb128 0x7
 814 02c4 723400   		.ascii	"r4\000"
 815 02c7 07       		.byte	0x7
 816 02c8 B8       		.byte	0xb8
 817 02c9 71020000 		.4byte	0x271
ARM GAS  /var/folders/qh/xwg3v3kj02qbxczjpdb8lzfr0000gn/T//ccTU8HMp.s 			page 16


 818 02cd 10       		.byte	0x10
 819 02ce 07       		.uleb128 0x7
 820 02cf 723500   		.ascii	"r5\000"
 821 02d2 07       		.byte	0x7
 822 02d3 B9       		.byte	0xb9
 823 02d4 71020000 		.4byte	0x271
 824 02d8 14       		.byte	0x14
 825 02d9 07       		.uleb128 0x7
 826 02da 723600   		.ascii	"r6\000"
 827 02dd 07       		.byte	0x7
 828 02de BA       		.byte	0xba
 829 02df 71020000 		.4byte	0x271
 830 02e3 18       		.byte	0x18
 831 02e4 07       		.uleb128 0x7
 832 02e5 723700   		.ascii	"r7\000"
 833 02e8 07       		.byte	0x7
 834 02e9 BB       		.byte	0xbb
 835 02ea 71020000 		.4byte	0x271
 836 02ee 1C       		.byte	0x1c
 837 02ef 07       		.uleb128 0x7
 838 02f0 6C7200   		.ascii	"lr\000"
 839 02f3 07       		.byte	0x7
 840 02f4 BC       		.byte	0xbc
 841 02f5 71020000 		.4byte	0x271
 842 02f9 20       		.byte	0x20
 843 02fa 00       		.byte	0
 844 02fb 05       		.uleb128 0x5
 845 02fc A9060000 		.4byte	.LASF50
 846 0300 04       		.byte	0x4
 847 0301 07       		.byte	0x7
 848 0302 C6       		.byte	0xc6
 849 0303 14030000 		.4byte	0x314
 850 0307 07       		.uleb128 0x7
 851 0308 72313300 		.ascii	"r13\000"
 852 030c 07       		.byte	0x7
 853 030d C7       		.byte	0xc7
 854 030e 14030000 		.4byte	0x314
 855 0312 00       		.byte	0
 856 0313 00       		.byte	0
 857 0314 09       		.uleb128 0x9
 858 0315 04       		.byte	0x4
 859 0316 89020000 		.4byte	0x289
 860 031a 0B       		.uleb128 0xb
 861 031b 82000000 		.4byte	0x82
 862 031f 04       		.uleb128 0x4
 863 0320 04       		.byte	0x4
 864 0321 07       		.byte	0x7
 865 0322 4D030000 		.4byte	.LASF51
 866 0326 0B       		.uleb128 0xb
 867 0327 0C010000 		.4byte	0x10c
 868 032b 08       		.uleb128 0x8
 869 032c 1C       		.byte	0x1c
 870 032d 08       		.byte	0x8
 871 032e 57       		.byte	0x57
 872 032f 7C030000 		.4byte	0x37c
 873 0333 06       		.uleb128 0x6
 874 0334 10060000 		.4byte	.LASF52
ARM GAS  /var/folders/qh/xwg3v3kj02qbxczjpdb8lzfr0000gn/T//ccTU8HMp.s 			page 17


 875 0338 08       		.byte	0x8
 876 0339 58       		.byte	0x58
 877 033a 46020000 		.4byte	0x246
 878 033e 00       		.byte	0
 879 033f 06       		.uleb128 0x6
 880 0340 76050000 		.4byte	.LASF53
 881 0344 08       		.byte	0x8
 882 0345 59       		.byte	0x59
 883 0346 E0000000 		.4byte	0xe0
 884 034a 08       		.byte	0x8
 885 034b 06       		.uleb128 0x6
 886 034c 5A040000 		.4byte	.LASF54
 887 0350 08       		.byte	0x8
 888 0351 5B       		.byte	0x5b
 889 0352 FB020000 		.4byte	0x2fb
 890 0356 0C       		.byte	0xc
 891 0357 06       		.uleb128 0x6
 892 0358 79010000 		.4byte	.LASF55
 893 035c 08       		.byte	0x8
 894 035d 5E       		.byte	0x5e
 895 035e 40020000 		.4byte	0x240
 896 0362 10       		.byte	0x10
 897 0363 06       		.uleb128 0x6
 898 0364 83040000 		.4byte	.LASF56
 899 0368 08       		.byte	0x8
 900 0369 5F       		.byte	0x5f
 901 036a 40020000 		.4byte	0x240
 902 036e 14       		.byte	0x14
 903 036f 06       		.uleb128 0x6
 904 0370 4B060000 		.4byte	.LASF57
 905 0374 08       		.byte	0x8
 906 0375 62       		.byte	0x62
 907 0376 40020000 		.4byte	0x240
 908 037a 18       		.byte	0x18
 909 037b 00       		.byte	0
 910 037c 03       		.uleb128 0x3
 911 037d 0B070000 		.4byte	.LASF58
 912 0381 08       		.byte	0x8
 913 0382 64       		.byte	0x64
 914 0383 2B030000 		.4byte	0x32b
 915 0387 05       		.uleb128 0x5
 916 0388 5C030000 		.4byte	.LASF59
 917 038c 10       		.byte	0x10
 918 038d 09       		.byte	0x9
 919 038e 25       		.byte	0x25
 920 038f B8030000 		.4byte	0x3b8
 921 0393 06       		.uleb128 0x6
 922 0394 CB000000 		.4byte	.LASF60
 923 0398 09       		.byte	0x9
 924 0399 26       		.byte	0x26
 925 039a 46020000 		.4byte	0x246
 926 039e 00       		.byte	0
 927 039f 06       		.uleb128 0x6
 928 03a0 78070000 		.4byte	.LASF61
 929 03a4 09       		.byte	0x9
 930 03a5 28       		.byte	0x28
 931 03a6 40020000 		.4byte	0x240
ARM GAS  /var/folders/qh/xwg3v3kj02qbxczjpdb8lzfr0000gn/T//ccTU8HMp.s 			page 18


 932 03aa 08       		.byte	0x8
 933 03ab 06       		.uleb128 0x6
 934 03ac 71060000 		.4byte	.LASF62
 935 03b0 09       		.byte	0x9
 936 03b1 2A       		.byte	0x2a
 937 03b2 B8030000 		.4byte	0x3b8
 938 03b6 0C       		.byte	0xc
 939 03b7 00       		.byte	0
 940 03b8 09       		.uleb128 0x9
 941 03b9 04       		.byte	0x4
 942 03ba 87030000 		.4byte	0x387
 943 03be 03       		.uleb128 0x3
 944 03bf 5C030000 		.4byte	.LASF59
 945 03c3 09       		.byte	0x9
 946 03c4 2C       		.byte	0x2c
 947 03c5 87030000 		.4byte	0x387
 948 03c9 03       		.uleb128 0x3
 949 03ca 4F070000 		.4byte	.LASF63
 950 03ce 0A       		.byte	0xa
 951 03cf 25       		.byte	0x25
 952 03d0 D4030000 		.4byte	0x3d4
 953 03d4 05       		.uleb128 0x5
 954 03d5 4F070000 		.4byte	.LASF63
 955 03d9 10       		.byte	0x10
 956 03da 0A       		.byte	0xa
 957 03db 2A       		.byte	0x2a
 958 03dc 11040000 		.4byte	0x411
 959 03e0 06       		.uleb128 0x6
 960 03e1 AB050000 		.4byte	.LASF64
 961 03e5 0A       		.byte	0xa
 962 03e6 2B       		.byte	0x2b
 963 03e7 11040000 		.4byte	0x411
 964 03eb 00       		.byte	0
 965 03ec 06       		.uleb128 0x6
 966 03ed 34050000 		.4byte	.LASF65
 967 03f1 0A       		.byte	0xa
 968 03f2 2E       		.byte	0x2e
 969 03f3 40020000 		.4byte	0x240
 970 03f7 04       		.byte	0x4
 971 03f8 06       		.uleb128 0x6
 972 03f9 8B040000 		.4byte	.LASF66
 973 03fd 0A       		.byte	0xa
 974 03fe 30       		.byte	0x30
 975 03ff F6000000 		.4byte	0xf6
 976 0403 08       		.byte	0x8
 977 0404 06       		.uleb128 0x6
 978 0405 40050000 		.4byte	.LASF67
 979 0409 0A       		.byte	0xa
 980 040a 33       		.byte	0x33
 981 040b 01010000 		.4byte	0x101
 982 040f 0C       		.byte	0xc
 983 0410 00       		.byte	0
 984 0411 09       		.uleb128 0x9
 985 0412 04       		.byte	0x4
 986 0413 C9030000 		.4byte	0x3c9
 987 0417 05       		.uleb128 0x5
 988 0418 9E010000 		.4byte	.LASF68
ARM GAS  /var/folders/qh/xwg3v3kj02qbxczjpdb8lzfr0000gn/T//ccTU8HMp.s 			page 19


 989 041c 04       		.byte	0x4
 990 041d 0A       		.byte	0xa
 991 041e 3A       		.byte	0x3a
 992 041f 30040000 		.4byte	0x430
 993 0423 06       		.uleb128 0x6
 994 0424 03070000 		.4byte	.LASF69
 995 0428 0A       		.byte	0xa
 996 0429 3B       		.byte	0x3b
 997 042a 11040000 		.4byte	0x411
 998 042e 00       		.byte	0
 999 042f 00       		.byte	0
 1000 0430 03       		.uleb128 0x3
 1001 0431 9E010000 		.4byte	.LASF68
 1002 0435 0A       		.byte	0xa
 1003 0436 3E       		.byte	0x3e
 1004 0437 17040000 		.4byte	0x417
 1005 043b 03       		.uleb128 0x3
 1006 043c 3F000000 		.4byte	.LASF70
 1007 0440 0B       		.byte	0xb
 1008 0441 25       		.byte	0x25
 1009 0442 46040000 		.4byte	0x446
 1010 0446 09       		.uleb128 0x9
 1011 0447 04       		.byte	0x4
 1012 0448 4C040000 		.4byte	0x44c
 1013 044c 0C       		.uleb128 0xc
 1014 044d 7C020000 		.4byte	0x27c
 1015 0451 5B040000 		.4byte	0x45b
 1016 0455 0D       		.uleb128 0xd
 1017 0456 2C000000 		.4byte	0x2c
 1018 045a 00       		.byte	0
 1019 045b 05       		.uleb128 0x5
 1020 045c F7060000 		.4byte	.LASF71
 1021 0460 04       		.byte	0x4
 1022 0461 0C       		.byte	0xc
 1023 0462 25       		.byte	0x25
 1024 0463 74040000 		.4byte	0x474
 1025 0467 06       		.uleb128 0x6
 1026 0468 B0040000 		.4byte	.LASF72
 1027 046c 0C       		.byte	0xc
 1028 046d 26       		.byte	0x26
 1029 046e 74040000 		.4byte	0x474
 1030 0472 00       		.byte	0
 1031 0473 00       		.byte	0
 1032 0474 09       		.uleb128 0x9
 1033 0475 04       		.byte	0x4
 1034 0476 5B040000 		.4byte	0x45b
 1035 047a 08       		.uleb128 0x8
 1036 047b 0C       		.byte	0xc
 1037 047c 0C       		.byte	0xc
 1038 047d 2D       		.byte	0x2d
 1039 047e A7040000 		.4byte	0x4a7
 1040 0482 06       		.uleb128 0x6
 1041 0483 2F010000 		.4byte	.LASF73
 1042 0487 0C       		.byte	0xc
 1043 0488 2E       		.byte	0x2e
 1044 0489 74040000 		.4byte	0x474
 1045 048d 00       		.byte	0
ARM GAS  /var/folders/qh/xwg3v3kj02qbxczjpdb8lzfr0000gn/T//ccTU8HMp.s 			page 20


 1046 048e 06       		.uleb128 0x6
 1047 048f 6D040000 		.4byte	.LASF74
 1048 0493 0C       		.byte	0xc
 1049 0494 2F       		.byte	0x2f
 1050 0495 2C000000 		.4byte	0x2c
 1051 0499 04       		.byte	0x4
 1052 049a 06       		.uleb128 0x6
 1053 049b 81010000 		.4byte	.LASF75
 1054 049f 0C       		.byte	0xc
 1055 04a0 31       		.byte	0x31
 1056 04a1 3B040000 		.4byte	0x43b
 1057 04a5 08       		.byte	0x8
 1058 04a6 00       		.byte	0
 1059 04a7 03       		.uleb128 0x3
 1060 04a8 E7050000 		.4byte	.LASF76
 1061 04ac 0C       		.byte	0xc
 1062 04ad 33       		.byte	0x33
 1063 04ae 7A040000 		.4byte	0x47a
 1064 04b2 0E       		.uleb128 0xe
 1065 04b3 04       		.byte	0x4
 1066 04b4 06       		.byte	0x6
 1067 04b5 8F       		.byte	0x8f
 1068 04b6 E7040000 		.4byte	0x4e7
 1069 04ba 0F       		.uleb128 0xf
 1070 04bb 0F000000 		.4byte	.LASF77
 1071 04bf 06       		.byte	0x6
 1072 04c0 96       		.byte	0x96
 1073 04c1 EB000000 		.4byte	0xeb
 1074 04c5 0F       		.uleb128 0xf
 1075 04c6 75000000 		.4byte	.LASF78
 1076 04ca 06       		.byte	0x6
 1077 04cb 9D       		.byte	0x9d
 1078 04cc EB000000 		.4byte	0xeb
 1079 04d0 0F       		.uleb128 0xf
 1080 04d1 5D070000 		.4byte	.LASF79
 1081 04d5 06       		.byte	0x6
 1082 04d6 A4       		.byte	0xa4
 1083 04d7 7C020000 		.4byte	0x27c
 1084 04db 0F       		.uleb128 0xf
 1085 04dc 7D050000 		.4byte	.LASF80
 1086 04e0 06       		.byte	0x6
 1087 04e1 AB       		.byte	0xab
 1088 04e2 F6000000 		.4byte	0xf6
 1089 04e6 00       		.byte	0
 1090 04e7 09       		.uleb128 0x9
 1091 04e8 04       		.byte	0x4
 1092 04e9 ED040000 		.4byte	0x4ed
 1093 04ed 10       		.uleb128 0x10
 1094 04ee F2040000 		.4byte	0x4f2
 1095 04f2 04       		.uleb128 0x4
 1096 04f3 01       		.byte	0x1
 1097 04f4 08       		.byte	0x8
 1098 04f5 5A060000 		.4byte	.LASF81
 1099 04f9 09       		.uleb128 0x9
 1100 04fa 04       		.byte	0x4
 1101 04fb BE030000 		.4byte	0x3be
 1102 04ff 03       		.uleb128 0x3
ARM GAS  /var/folders/qh/xwg3v3kj02qbxczjpdb8lzfr0000gn/T//ccTU8HMp.s 			page 21


 1103 0500 00000000 		.4byte	.LASF82
 1104 0504 06       		.byte	0x6
 1105 0505 DE       		.byte	0xde
 1106 0506 0A050000 		.4byte	0x50a
 1107 050a 09       		.uleb128 0x9
 1108 050b 04       		.byte	0x4
 1109 050c 10050000 		.4byte	0x510
 1110 0510 0C       		.uleb128 0xc
 1111 0511 EB000000 		.4byte	0xeb
 1112 0515 1F050000 		.4byte	0x51f
 1113 0519 0D       		.uleb128 0xd
 1114 051a 7C020000 		.4byte	0x27c
 1115 051e 00       		.byte	0
 1116 051f 03       		.uleb128 0x3
 1117 0520 1A030000 		.4byte	.LASF83
 1118 0524 0D       		.byte	0xd
 1119 0525 30       		.byte	0x30
 1120 0526 2A050000 		.4byte	0x52a
 1121 052a 05       		.uleb128 0x5
 1122 052b 1A030000 		.4byte	.LASF83
 1123 052f 24       		.byte	0x24
 1124 0530 0D       		.byte	0xd
 1125 0531 3E       		.byte	0x3e
 1126 0532 97050000 		.4byte	0x597
 1127 0536 06       		.uleb128 0x6
 1128 0537 8B000000 		.4byte	.LASF84
 1129 053b 0D       		.byte	0xd
 1130 053c 3F       		.byte	0x3f
 1131 053d 46020000 		.4byte	0x246
 1132 0541 00       		.byte	0
 1133 0542 06       		.uleb128 0x6
 1134 0543 06060000 		.4byte	.LASF85
 1135 0547 0D       		.byte	0xd
 1136 0548 40       		.byte	0x40
 1137 0549 2C000000 		.4byte	0x2c
 1138 054d 08       		.byte	0x8
 1139 054e 06       		.uleb128 0x6
 1140 054f 37010000 		.4byte	.LASF86
 1141 0553 0D       		.byte	0xd
 1142 0554 41       		.byte	0x41
 1143 0555 B9050000 		.4byte	0x5b9
 1144 0559 0C       		.byte	0xc
 1145 055a 06       		.uleb128 0x6
 1146 055b F1060000 		.4byte	.LASF87
 1147 055f 0D       		.byte	0xd
 1148 0560 42       		.byte	0x42
 1149 0561 B9050000 		.4byte	0x5b9
 1150 0565 10       		.byte	0x10
 1151 0566 06       		.uleb128 0x6
 1152 0567 40010000 		.4byte	.LASF88
 1153 056b 0D       		.byte	0xd
 1154 056c 44       		.byte	0x44
 1155 056d B9050000 		.4byte	0x5b9
 1156 0571 14       		.byte	0x14
 1157 0572 06       		.uleb128 0x6
 1158 0573 10050000 		.4byte	.LASF89
 1159 0577 0D       		.byte	0xd
ARM GAS  /var/folders/qh/xwg3v3kj02qbxczjpdb8lzfr0000gn/T//ccTU8HMp.s 			page 22


 1160 0578 45       		.byte	0x45
 1161 0579 B9050000 		.4byte	0x5b9
 1162 057d 18       		.byte	0x18
 1163 057e 06       		.uleb128 0x6
 1164 057f 15070000 		.4byte	.LASF90
 1165 0583 0D       		.byte	0xd
 1166 0584 46       		.byte	0x46
 1167 0585 97050000 		.4byte	0x597
 1168 0589 1C       		.byte	0x1c
 1169 058a 06       		.uleb128 0x6
 1170 058b 48010000 		.4byte	.LASF91
 1171 058f 0D       		.byte	0xd
 1172 0590 47       		.byte	0x47
 1173 0591 7C020000 		.4byte	0x27c
 1174 0595 20       		.byte	0x20
 1175 0596 00       		.byte	0
 1176 0597 03       		.uleb128 0x3
 1177 0598 10030000 		.4byte	.LASF92
 1178 059c 0D       		.byte	0xd
 1179 059d 33       		.byte	0x33
 1180 059e A2050000 		.4byte	0x5a2
 1181 05a2 09       		.uleb128 0x9
 1182 05a3 04       		.byte	0x4
 1183 05a4 A8050000 		.4byte	0x5a8
 1184 05a8 11       		.uleb128 0x11
 1185 05a9 B3050000 		.4byte	0x5b3
 1186 05ad 0D       		.uleb128 0xd
 1187 05ae B3050000 		.4byte	0x5b3
 1188 05b2 00       		.byte	0
 1189 05b3 09       		.uleb128 0x9
 1190 05b4 04       		.byte	0x4
 1191 05b5 1F050000 		.4byte	0x51f
 1192 05b9 09       		.uleb128 0x9
 1193 05ba 04       		.byte	0x4
 1194 05bb 45000000 		.4byte	0x45
 1195 05bf 03       		.uleb128 0x3
 1196 05c0 FF020000 		.4byte	.LASF93
 1197 05c4 0D       		.byte	0xd
 1198 05c5 7B       		.byte	0x7b
 1199 05c6 1F050000 		.4byte	0x51f
 1200 05ca 03       		.uleb128 0x3
 1201 05cb 1F000000 		.4byte	.LASF94
 1202 05cf 0D       		.byte	0xd
 1203 05d0 EE       		.byte	0xee
 1204 05d1 1F050000 		.4byte	0x51f
 1205 05d5 05       		.uleb128 0x5
 1206 05d6 8B050000 		.4byte	.LASF95
 1207 05da 10       		.byte	0x10
 1208 05db 0E       		.byte	0xe
 1209 05dc 41       		.byte	0x41
 1210 05dd 12060000 		.4byte	0x612
 1211 05e1 06       		.uleb128 0x6
 1212 05e2 42030000 		.4byte	.LASF96
 1213 05e6 0E       		.byte	0xe
 1214 05e7 42       		.byte	0x42
 1215 05e8 36060000 		.4byte	0x636
 1216 05ec 00       		.byte	0
ARM GAS  /var/folders/qh/xwg3v3kj02qbxczjpdb8lzfr0000gn/T//ccTU8HMp.s 			page 23


 1217 05ed 06       		.uleb128 0x6
 1218 05ee 55060000 		.4byte	.LASF97
 1219 05f2 0E       		.byte	0xe
 1220 05f3 42       		.byte	0x42
 1221 05f4 55060000 		.4byte	0x655
 1222 05f8 04       		.byte	0x4
 1223 05f9 07       		.uleb128 0x7
 1224 05fa 70757400 		.ascii	"put\000"
 1225 05fe 0E       		.byte	0xe
 1226 05ff 42       		.byte	0x42
 1227 0600 6F060000 		.4byte	0x66f
 1228 0604 08       		.byte	0x8
 1229 0605 07       		.uleb128 0x7
 1230 0606 67657400 		.ascii	"get\000"
 1231 060a 0E       		.byte	0xe
 1232 060b 42       		.byte	0x42
 1233 060c 0A050000 		.4byte	0x50a
 1234 0610 0C       		.byte	0xc
 1235 0611 00       		.byte	0
 1236 0612 0C       		.uleb128 0xc
 1237 0613 2C000000 		.4byte	0x2c
 1238 0617 2B060000 		.4byte	0x62b
 1239 061b 0D       		.uleb128 0xd
 1240 061c 7C020000 		.4byte	0x27c
 1241 0620 0D       		.uleb128 0xd
 1242 0621 2B060000 		.4byte	0x62b
 1243 0625 0D       		.uleb128 0xd
 1244 0626 2C000000 		.4byte	0x2c
 1245 062a 00       		.byte	0
 1246 062b 09       		.uleb128 0x9
 1247 062c 04       		.byte	0x4
 1248 062d 31060000 		.4byte	0x631
 1249 0631 10       		.uleb128 0x10
 1250 0632 45000000 		.4byte	0x45
 1251 0636 09       		.uleb128 0x9
 1252 0637 04       		.byte	0x4
 1253 0638 12060000 		.4byte	0x612
 1254 063c 0C       		.uleb128 0xc
 1255 063d 2C000000 		.4byte	0x2c
 1256 0641 55060000 		.4byte	0x655
 1257 0645 0D       		.uleb128 0xd
 1258 0646 7C020000 		.4byte	0x27c
 1259 064a 0D       		.uleb128 0xd
 1260 064b B9050000 		.4byte	0x5b9
 1261 064f 0D       		.uleb128 0xd
 1262 0650 2C000000 		.4byte	0x2c
 1263 0654 00       		.byte	0
 1264 0655 09       		.uleb128 0x9
 1265 0656 04       		.byte	0x4
 1266 0657 3C060000 		.4byte	0x63c
 1267 065b 0C       		.uleb128 0xc
 1268 065c EB000000 		.4byte	0xeb
 1269 0660 6F060000 		.4byte	0x66f
 1270 0664 0D       		.uleb128 0xd
 1271 0665 7C020000 		.4byte	0x27c
 1272 0669 0D       		.uleb128 0xd
 1273 066a 45000000 		.4byte	0x45
ARM GAS  /var/folders/qh/xwg3v3kj02qbxczjpdb8lzfr0000gn/T//ccTU8HMp.s 			page 24


 1274 066e 00       		.byte	0
 1275 066f 09       		.uleb128 0x9
 1276 0670 04       		.byte	0x4
 1277 0671 5B060000 		.4byte	0x65b
 1278 0675 08       		.uleb128 0x8
 1279 0676 04       		.byte	0x4
 1280 0677 0E       		.byte	0xe
 1281 0678 4A       		.byte	0x4a
 1282 0679 8A060000 		.4byte	0x68a
 1283 067d 07       		.uleb128 0x7
 1284 067e 766D7400 		.ascii	"vmt\000"
 1285 0682 0E       		.byte	0xe
 1286 0683 4C       		.byte	0x4c
 1287 0684 8A060000 		.4byte	0x68a
 1288 0688 00       		.byte	0
 1289 0689 00       		.byte	0
 1290 068a 09       		.uleb128 0x9
 1291 068b 04       		.byte	0x4
 1292 068c 90060000 		.4byte	0x690
 1293 0690 10       		.uleb128 0x10
 1294 0691 D5050000 		.4byte	0x5d5
 1295 0695 03       		.uleb128 0x3
 1296 0696 AA010000 		.4byte	.LASF98
 1297 069a 0E       		.byte	0xe
 1298 069b 4E       		.byte	0x4e
 1299 069c 75060000 		.4byte	0x675
 1300 06a0 0B       		.uleb128 0xb
 1301 06a1 5E000000 		.4byte	0x5e
 1302 06a5 12       		.uleb128 0x12
 1303 06a6 2C       		.byte	0x2c
 1304 06a7 0F       		.byte	0xf
 1305 06a8 AA02     		.2byte	0x2aa
 1306 06aa 7F070000 		.4byte	0x77f
 1307 06ae 13       		.uleb128 0x13
 1308 06af 43523100 		.ascii	"CR1\000"
 1309 06b3 0F       		.byte	0xf
 1310 06b4 AC02     		.2byte	0x2ac
 1311 06b6 1A030000 		.4byte	0x31a
 1312 06ba 00       		.byte	0
 1313 06bb 13       		.uleb128 0x13
 1314 06bc 43523200 		.ascii	"CR2\000"
 1315 06c0 0F       		.byte	0xf
 1316 06c1 AD02     		.2byte	0x2ad
 1317 06c3 1A030000 		.4byte	0x31a
 1318 06c7 04       		.byte	0x4
 1319 06c8 13       		.uleb128 0x13
 1320 06c9 43523300 		.ascii	"CR3\000"
 1321 06cd 0F       		.byte	0xf
 1322 06ce AE02     		.2byte	0x2ae
 1323 06d0 1A030000 		.4byte	0x31a
 1324 06d4 08       		.byte	0x8
 1325 06d5 13       		.uleb128 0x13
 1326 06d6 42525200 		.ascii	"BRR\000"
 1327 06da 0F       		.byte	0xf
 1328 06db AF02     		.2byte	0x2af
 1329 06dd A0060000 		.4byte	0x6a0
 1330 06e1 0C       		.byte	0xc
ARM GAS  /var/folders/qh/xwg3v3kj02qbxczjpdb8lzfr0000gn/T//ccTU8HMp.s 			page 25


 1331 06e2 14       		.uleb128 0x14
 1332 06e3 D9040000 		.4byte	.LASF99
 1333 06e7 0F       		.byte	0xf
 1334 06e8 B002     		.2byte	0x2b0
 1335 06ea 5E000000 		.4byte	0x5e
 1336 06ee 0E       		.byte	0xe
 1337 06ef 14       		.uleb128 0x14
 1338 06f0 BE000000 		.4byte	.LASF100
 1339 06f4 0F       		.byte	0xf
 1340 06f5 B102     		.2byte	0x2b1
 1341 06f7 A0060000 		.4byte	0x6a0
 1342 06fb 10       		.byte	0x10
 1343 06fc 14       		.uleb128 0x14
 1344 06fd E3040000 		.4byte	.LASF101
 1345 0701 0F       		.byte	0xf
 1346 0702 B202     		.2byte	0x2b2
 1347 0704 5E000000 		.4byte	0x5e
 1348 0708 12       		.byte	0x12
 1349 0709 14       		.uleb128 0x14
 1350 070a 99060000 		.4byte	.LASF102
 1351 070e 0F       		.byte	0xf
 1352 070f B302     		.2byte	0x2b3
 1353 0711 1A030000 		.4byte	0x31a
 1354 0715 14       		.byte	0x14
 1355 0716 13       		.uleb128 0x13
 1356 0717 52515200 		.ascii	"RQR\000"
 1357 071b 0F       		.byte	0xf
 1358 071c B402     		.2byte	0x2b4
 1359 071e A0060000 		.4byte	0x6a0
 1360 0722 18       		.byte	0x18
 1361 0723 14       		.uleb128 0x14
 1362 0724 ED040000 		.4byte	.LASF103
 1363 0728 0F       		.byte	0xf
 1364 0729 B502     		.2byte	0x2b5
 1365 072b 5E000000 		.4byte	0x5e
 1366 072f 1A       		.byte	0x1a
 1367 0730 13       		.uleb128 0x13
 1368 0731 49535200 		.ascii	"ISR\000"
 1369 0735 0F       		.byte	0xf
 1370 0736 B602     		.2byte	0x2b6
 1371 0738 1A030000 		.4byte	0x31a
 1372 073c 1C       		.byte	0x1c
 1373 073d 13       		.uleb128 0x13
 1374 073e 49435200 		.ascii	"ICR\000"
 1375 0742 0F       		.byte	0xf
 1376 0743 B702     		.2byte	0x2b7
 1377 0745 1A030000 		.4byte	0x31a
 1378 0749 20       		.byte	0x20
 1379 074a 13       		.uleb128 0x13
 1380 074b 52445200 		.ascii	"RDR\000"
 1381 074f 0F       		.byte	0xf
 1382 0750 B802     		.2byte	0x2b8
 1383 0752 A0060000 		.4byte	0x6a0
 1384 0756 24       		.byte	0x24
 1385 0757 14       		.uleb128 0x14
 1386 0758 F7040000 		.4byte	.LASF104
 1387 075c 0F       		.byte	0xf
ARM GAS  /var/folders/qh/xwg3v3kj02qbxczjpdb8lzfr0000gn/T//ccTU8HMp.s 			page 26


 1388 075d B902     		.2byte	0x2b9
 1389 075f 5E000000 		.4byte	0x5e
 1390 0763 26       		.byte	0x26
 1391 0764 13       		.uleb128 0x13
 1392 0765 54445200 		.ascii	"TDR\000"
 1393 0769 0F       		.byte	0xf
 1394 076a BA02     		.2byte	0x2ba
 1395 076c A0060000 		.4byte	0x6a0
 1396 0770 28       		.byte	0x28
 1397 0771 14       		.uleb128 0x14
 1398 0772 FC050000 		.4byte	.LASF105
 1399 0776 0F       		.byte	0xf
 1400 0777 BB02     		.2byte	0x2bb
 1401 0779 5E000000 		.4byte	0x5e
 1402 077d 2A       		.byte	0x2a
 1403 077e 00       		.byte	0
 1404 077f 15       		.uleb128 0x15
 1405 0780 CA020000 		.4byte	.LASF106
 1406 0784 0F       		.byte	0xf
 1407 0785 BC02     		.2byte	0x2bc
 1408 0787 A5060000 		.4byte	0x6a5
 1409 078b 0C       		.uleb128 0xc
 1410 078c EB000000 		.4byte	0xeb
 1411 0790 A4070000 		.4byte	0x7a4
 1412 0794 0D       		.uleb128 0xd
 1413 0795 7C020000 		.4byte	0x27c
 1414 0799 0D       		.uleb128 0xd
 1415 079a 45000000 		.4byte	0x45
 1416 079e 0D       		.uleb128 0xd
 1417 079f 0C010000 		.4byte	0x10c
 1418 07a3 00       		.byte	0
 1419 07a4 09       		.uleb128 0x9
 1420 07a5 04       		.byte	0x4
 1421 07a6 8B070000 		.4byte	0x78b
 1422 07aa 0C       		.uleb128 0xc
 1423 07ab EB000000 		.4byte	0xeb
 1424 07af BE070000 		.4byte	0x7be
 1425 07b3 0D       		.uleb128 0xd
 1426 07b4 7C020000 		.4byte	0x27c
 1427 07b8 0D       		.uleb128 0xd
 1428 07b9 0C010000 		.4byte	0x10c
 1429 07bd 00       		.byte	0
 1430 07be 09       		.uleb128 0x9
 1431 07bf 04       		.byte	0x4
 1432 07c0 AA070000 		.4byte	0x7aa
 1433 07c4 0C       		.uleb128 0xc
 1434 07c5 2C000000 		.4byte	0x2c
 1435 07c9 E2070000 		.4byte	0x7e2
 1436 07cd 0D       		.uleb128 0xd
 1437 07ce 7C020000 		.4byte	0x27c
 1438 07d2 0D       		.uleb128 0xd
 1439 07d3 2B060000 		.4byte	0x62b
 1440 07d7 0D       		.uleb128 0xd
 1441 07d8 2C000000 		.4byte	0x2c
 1442 07dc 0D       		.uleb128 0xd
 1443 07dd 0C010000 		.4byte	0x10c
 1444 07e1 00       		.byte	0
ARM GAS  /var/folders/qh/xwg3v3kj02qbxczjpdb8lzfr0000gn/T//ccTU8HMp.s 			page 27


 1445 07e2 09       		.uleb128 0x9
 1446 07e3 04       		.byte	0x4
 1447 07e4 C4070000 		.4byte	0x7c4
 1448 07e8 0C       		.uleb128 0xc
 1449 07e9 2C000000 		.4byte	0x2c
 1450 07ed 06080000 		.4byte	0x806
 1451 07f1 0D       		.uleb128 0xd
 1452 07f2 7C020000 		.4byte	0x27c
 1453 07f6 0D       		.uleb128 0xd
 1454 07f7 B9050000 		.4byte	0x5b9
 1455 07fb 0D       		.uleb128 0xd
 1456 07fc 2C000000 		.4byte	0x2c
 1457 0800 0D       		.uleb128 0xd
 1458 0801 0C010000 		.4byte	0x10c
 1459 0805 00       		.byte	0
 1460 0806 09       		.uleb128 0x9
 1461 0807 04       		.byte	0x4
 1462 0808 E8070000 		.4byte	0x7e8
 1463 080c 08       		.uleb128 0x8
 1464 080d 04       		.byte	0x4
 1465 080e 10       		.byte	0x10
 1466 080f 96       		.byte	0x96
 1467 0810 2D080000 		.4byte	0x82d
 1468 0814 07       		.uleb128 0x7
 1469 0815 73657400 		.ascii	"set\000"
 1470 0819 10       		.byte	0x10
 1471 081a 97       		.byte	0x97
 1472 081b 5E000000 		.4byte	0x5e
 1473 081f 00       		.byte	0
 1474 0820 06       		.uleb128 0x6
 1475 0821 56030000 		.4byte	.LASF107
 1476 0825 10       		.byte	0x10
 1477 0826 98       		.byte	0x98
 1478 0827 5E000000 		.4byte	0x5e
 1479 082b 02       		.byte	0x2
 1480 082c 00       		.byte	0
 1481 082d 0E       		.uleb128 0xe
 1482 082e 04       		.byte	0x4
 1483 082f 10       		.byte	0x10
 1484 0830 94       		.byte	0x94
 1485 0831 48080000 		.4byte	0x848
 1486 0835 16       		.uleb128 0x16
 1487 0836 5700     		.ascii	"W\000"
 1488 0838 10       		.byte	0x10
 1489 0839 95       		.byte	0x95
 1490 083a 82000000 		.4byte	0x82
 1491 083e 16       		.uleb128 0x16
 1492 083f 4800     		.ascii	"H\000"
 1493 0841 10       		.byte	0x10
 1494 0842 99       		.byte	0x99
 1495 0843 0C080000 		.4byte	0x80c
 1496 0847 00       		.byte	0
 1497 0848 08       		.uleb128 0x8
 1498 0849 28       		.byte	0x28
 1499 084a 10       		.byte	0x10
 1500 084b 8C       		.byte	0x8c
 1501 084c C9080000 		.4byte	0x8c9
ARM GAS  /var/folders/qh/xwg3v3kj02qbxczjpdb8lzfr0000gn/T//ccTU8HMp.s 			page 28


 1502 0850 06       		.uleb128 0x6
 1503 0851 4C000000 		.4byte	.LASF108
 1504 0855 10       		.byte	0x10
 1505 0856 8E       		.byte	0x8e
 1506 0857 1A030000 		.4byte	0x31a
 1507 085b 00       		.byte	0
 1508 085c 06       		.uleb128 0x6
 1509 085d 2B000000 		.4byte	.LASF109
 1510 0861 10       		.byte	0x10
 1511 0862 8F       		.byte	0x8f
 1512 0863 1A030000 		.4byte	0x31a
 1513 0867 04       		.byte	0x4
 1514 0868 06       		.uleb128 0x6
 1515 0869 71010000 		.4byte	.LASF110
 1516 086d 10       		.byte	0x10
 1517 086e 90       		.byte	0x90
 1518 086f 1A030000 		.4byte	0x31a
 1519 0873 08       		.byte	0x8
 1520 0874 06       		.uleb128 0x6
 1521 0875 6F000000 		.4byte	.LASF111
 1522 0879 10       		.byte	0x10
 1523 087a 91       		.byte	0x91
 1524 087b 1A030000 		.4byte	0x31a
 1525 087f 0C       		.byte	0xc
 1526 0880 07       		.uleb128 0x7
 1527 0881 49445200 		.ascii	"IDR\000"
 1528 0885 10       		.byte	0x10
 1529 0886 92       		.byte	0x92
 1530 0887 1A030000 		.4byte	0x31a
 1531 088b 10       		.byte	0x10
 1532 088c 07       		.uleb128 0x7
 1533 088d 4F445200 		.ascii	"ODR\000"
 1534 0891 10       		.byte	0x10
 1535 0892 93       		.byte	0x93
 1536 0893 1A030000 		.4byte	0x31a
 1537 0897 14       		.byte	0x14
 1538 0898 06       		.uleb128 0x6
 1539 0899 AF000000 		.4byte	.LASF112
 1540 089d 10       		.byte	0x10
 1541 089e 9A       		.byte	0x9a
 1542 089f C9080000 		.4byte	0x8c9
 1543 08a3 18       		.byte	0x18
 1544 08a4 06       		.uleb128 0x6
 1545 08a5 D6050000 		.4byte	.LASF113
 1546 08a9 10       		.byte	0x10
 1547 08aa 9B       		.byte	0x9b
 1548 08ab 1A030000 		.4byte	0x31a
 1549 08af 1C       		.byte	0x1c
 1550 08b0 06       		.uleb128 0x6
 1551 08b1 B8040000 		.4byte	.LASF114
 1552 08b5 10       		.byte	0x10
 1553 08b6 9C       		.byte	0x9c
 1554 08b7 1A030000 		.4byte	0x31a
 1555 08bb 20       		.byte	0x20
 1556 08bc 06       		.uleb128 0x6
 1557 08bd AB040000 		.4byte	.LASF115
 1558 08c1 10       		.byte	0x10
ARM GAS  /var/folders/qh/xwg3v3kj02qbxczjpdb8lzfr0000gn/T//ccTU8HMp.s 			page 29


 1559 08c2 9D       		.byte	0x9d
 1560 08c3 1A030000 		.4byte	0x31a
 1561 08c7 24       		.byte	0x24
 1562 08c8 00       		.byte	0
 1563 08c9 0B       		.uleb128 0xb
 1564 08ca 2D080000 		.4byte	0x82d
 1565 08ce 03       		.uleb128 0x3
 1566 08cf 1C020000 		.4byte	.LASF116
 1567 08d3 10       		.byte	0x10
 1568 08d4 9E       		.byte	0x9e
 1569 08d5 48080000 		.4byte	0x848
 1570 08d9 03       		.uleb128 0x3
 1571 08da 32000000 		.4byte	.LASF117
 1572 08de 10       		.byte	0x10
 1573 08df F0       		.byte	0xf0
 1574 08e0 82000000 		.4byte	0x82
 1575 08e4 03       		.uleb128 0x3
 1576 08e5 6F070000 		.4byte	.LASF118
 1577 08e9 10       		.byte	0x10
 1578 08ea F5       		.byte	0xf5
 1579 08eb 82000000 		.4byte	0x82
 1580 08ef 03       		.uleb128 0x3
 1581 08f0 9E060000 		.4byte	.LASF119
 1582 08f4 10       		.byte	0x10
 1583 08f5 FD       		.byte	0xfd
 1584 08f6 FA080000 		.4byte	0x8fa
 1585 08fa 09       		.uleb128 0x9
 1586 08fb 04       		.byte	0x4
 1587 08fc CE080000 		.4byte	0x8ce
 1588 0900 17       		.uleb128 0x17
 1589 0901 01       		.byte	0x1
 1590 0902 11       		.byte	0x11
 1591 0903 5D       		.byte	0x5d
 1592 0904 1B090000 		.4byte	0x91b
 1593 0908 18       		.uleb128 0x18
 1594 0909 F2050000 		.4byte	.LASF120
 1595 090d 00       		.sleb128 0
 1596 090e 18       		.uleb128 0x18
 1597 090f BA050000 		.4byte	.LASF121
 1598 0913 01       		.sleb128 1
 1599 0914 18       		.uleb128 0x18
 1600 0915 D4060000 		.4byte	.LASF122
 1601 0919 02       		.sleb128 2
 1602 091a 00       		.byte	0
 1603 091b 03       		.uleb128 0x3
 1604 091c 18060000 		.4byte	.LASF123
 1605 0920 11       		.byte	0x11
 1606 0921 61       		.byte	0x61
 1607 0922 00090000 		.4byte	0x900
 1608 0926 03       		.uleb128 0x3
 1609 0927 22060000 		.4byte	.LASF124
 1610 092b 11       		.byte	0x11
 1611 092c 66       		.byte	0x66
 1612 092d 31090000 		.4byte	0x931
 1613 0931 05       		.uleb128 0x5
 1614 0932 22060000 		.4byte	.LASF124
 1615 0936 7C       		.byte	0x7c
ARM GAS  /var/folders/qh/xwg3v3kj02qbxczjpdb8lzfr0000gn/T//ccTU8HMp.s 			page 30


 1616 0937 11       		.byte	0x11
 1617 0938 80       		.byte	0x80
 1618 0939 A8090000 		.4byte	0x9a8
 1619 093d 07       		.uleb128 0x7
 1620 093e 766D7400 		.ascii	"vmt\000"
 1621 0942 11       		.byte	0x11
 1622 0943 82       		.byte	0x82
 1623 0944 590A0000 		.4byte	0xa59
 1624 0948 00       		.byte	0
 1625 0949 06       		.uleb128 0x6
 1626 094a A4020000 		.4byte	.LASF125
 1627 094e 11       		.byte	0x11
 1628 094f 83       		.byte	0x83
 1629 0950 30040000 		.4byte	0x430
 1630 0954 04       		.byte	0x4
 1631 0955 06       		.uleb128 0x6
 1632 0956 03010000 		.4byte	.LASF126
 1633 095a 11       		.byte	0x11
 1634 095b 83       		.byte	0x83
 1635 095c 1B090000 		.4byte	0x91b
 1636 0960 08       		.byte	0x8
 1637 0961 06       		.uleb128 0x6
 1638 0962 0A020000 		.4byte	.LASF127
 1639 0966 11       		.byte	0x11
 1640 0967 83       		.byte	0x83
 1641 0968 BF050000 		.4byte	0x5bf
 1642 096c 0C       		.byte	0xc
 1643 096d 06       		.uleb128 0x6
 1644 096e C3020000 		.4byte	.LASF128
 1645 0972 11       		.byte	0x11
 1646 0973 83       		.byte	0x83
 1647 0974 CA050000 		.4byte	0x5ca
 1648 0978 30       		.byte	0x30
 1649 0979 07       		.uleb128 0x7
 1650 097a 696200   		.ascii	"ib\000"
 1651 097d 11       		.byte	0x11
 1652 097e 83       		.byte	0x83
 1653 097f 640A0000 		.4byte	0xa64
 1654 0983 54       		.byte	0x54
 1655 0984 07       		.uleb128 0x7
 1656 0985 6F6200   		.ascii	"ob\000"
 1657 0988 11       		.byte	0x11
 1658 0989 83       		.byte	0x83
 1659 098a 640A0000 		.4byte	0xa64
 1660 098e 64       		.byte	0x64
 1661 098f 06       		.uleb128 0x6
 1662 0990 CB010000 		.4byte	.LASF129
 1663 0994 11       		.byte	0x11
 1664 0995 83       		.byte	0x83
 1665 0996 740A0000 		.4byte	0xa74
 1666 099a 74       		.byte	0x74
 1667 099b 06       		.uleb128 0x6
 1668 099c 64070000 		.4byte	.LASF130
 1669 09a0 11       		.byte	0x11
 1670 09a1 83       		.byte	0x83
 1671 09a2 82000000 		.4byte	0x82
 1672 09a6 78       		.byte	0x78
ARM GAS  /var/folders/qh/xwg3v3kj02qbxczjpdb8lzfr0000gn/T//ccTU8HMp.s 			page 31


 1673 09a7 00       		.byte	0
 1674 09a8 08       		.uleb128 0x8
 1675 09a9 10       		.byte	0x10
 1676 09aa 12       		.byte	0x12
 1677 09ab D7       		.byte	0xd7
 1678 09ac E1090000 		.4byte	0x9e1
 1679 09b0 06       		.uleb128 0x6
 1680 09b1 0A030000 		.4byte	.LASF131
 1681 09b5 12       		.byte	0x12
 1682 09b6 DB       		.byte	0xdb
 1683 09b7 82000000 		.4byte	0x82
 1684 09bb 00       		.byte	0
 1685 09bc 07       		.uleb128 0x7
 1686 09bd 63723100 		.ascii	"cr1\000"
 1687 09c1 12       		.byte	0x12
 1688 09c2 E0       		.byte	0xe0
 1689 09c3 82000000 		.4byte	0x82
 1690 09c7 04       		.byte	0x4
 1691 09c8 07       		.uleb128 0x7
 1692 09c9 63723200 		.ascii	"cr2\000"
 1693 09cd 12       		.byte	0x12
 1694 09ce E4       		.byte	0xe4
 1695 09cf 82000000 		.4byte	0x82
 1696 09d3 08       		.byte	0x8
 1697 09d4 07       		.uleb128 0x7
 1698 09d5 63723300 		.ascii	"cr3\000"
 1699 09d9 12       		.byte	0x12
 1700 09da E8       		.byte	0xe8
 1701 09db 82000000 		.4byte	0x82
 1702 09df 0C       		.byte	0xc
 1703 09e0 00       		.byte	0
 1704 09e1 03       		.uleb128 0x3
 1705 09e2 9E040000 		.4byte	.LASF132
 1706 09e6 12       		.byte	0x12
 1707 09e7 E9       		.byte	0xe9
 1708 09e8 A8090000 		.4byte	0x9a8
 1709 09ec 05       		.uleb128 0x5
 1710 09ed E7010000 		.4byte	.LASF133
 1711 09f1 20       		.byte	0x20
 1712 09f2 11       		.byte	0x11
 1713 09f3 75       		.byte	0x75
 1714 09f4 590A0000 		.4byte	0xa59
 1715 09f8 06       		.uleb128 0x6
 1716 09f9 42030000 		.4byte	.LASF96
 1717 09fd 11       		.byte	0x11
 1718 09fe 76       		.byte	0x76
 1719 09ff 36060000 		.4byte	0x636
 1720 0a03 00       		.byte	0
 1721 0a04 06       		.uleb128 0x6
 1722 0a05 55060000 		.4byte	.LASF97
 1723 0a09 11       		.byte	0x11
 1724 0a0a 76       		.byte	0x76
 1725 0a0b 55060000 		.4byte	0x655
 1726 0a0f 04       		.byte	0x4
 1727 0a10 07       		.uleb128 0x7
 1728 0a11 70757400 		.ascii	"put\000"
 1729 0a15 11       		.byte	0x11
ARM GAS  /var/folders/qh/xwg3v3kj02qbxczjpdb8lzfr0000gn/T//ccTU8HMp.s 			page 32


 1730 0a16 76       		.byte	0x76
 1731 0a17 6F060000 		.4byte	0x66f
 1732 0a1b 08       		.byte	0x8
 1733 0a1c 07       		.uleb128 0x7
 1734 0a1d 67657400 		.ascii	"get\000"
 1735 0a21 11       		.byte	0x11
 1736 0a22 76       		.byte	0x76
 1737 0a23 0A050000 		.4byte	0x50a
 1738 0a27 0C       		.byte	0xc
 1739 0a28 06       		.uleb128 0x6
 1740 0a29 48030000 		.4byte	.LASF134
 1741 0a2d 11       		.byte	0x11
 1742 0a2e 76       		.byte	0x76
 1743 0a2f A4070000 		.4byte	0x7a4
 1744 0a33 10       		.byte	0x10
 1745 0a34 06       		.uleb128 0x6
 1746 0a35 31020000 		.4byte	.LASF135
 1747 0a39 11       		.byte	0x11
 1748 0a3a 76       		.byte	0x76
 1749 0a3b BE070000 		.4byte	0x7be
 1750 0a3f 14       		.byte	0x14
 1751 0a40 06       		.uleb128 0x6
 1752 0a41 D8020000 		.4byte	.LASF136
 1753 0a45 11       		.byte	0x11
 1754 0a46 76       		.byte	0x76
 1755 0a47 E2070000 		.4byte	0x7e2
 1756 0a4b 18       		.byte	0x18
 1757 0a4c 06       		.uleb128 0x6
 1758 0a4d 85000000 		.4byte	.LASF137
 1759 0a51 11       		.byte	0x11
 1760 0a52 76       		.byte	0x76
 1761 0a53 06080000 		.4byte	0x806
 1762 0a57 1C       		.byte	0x1c
 1763 0a58 00       		.byte	0
 1764 0a59 09       		.uleb128 0x9
 1765 0a5a 04       		.byte	0x4
 1766 0a5b 5F0A0000 		.4byte	0xa5f
 1767 0a5f 10       		.uleb128 0x10
 1768 0a60 EC090000 		.4byte	0x9ec
 1769 0a64 19       		.uleb128 0x19
 1770 0a65 45000000 		.4byte	0x45
 1771 0a69 740A0000 		.4byte	0xa74
 1772 0a6d 1A       		.uleb128 0x1a
 1773 0a6e 1F030000 		.4byte	0x31f
 1774 0a72 0F       		.byte	0xf
 1775 0a73 00       		.byte	0
 1776 0a74 09       		.uleb128 0x9
 1777 0a75 04       		.byte	0x4
 1778 0a76 7F070000 		.4byte	0x77f
 1779 0a7a 19       		.uleb128 0x19
 1780 0a7b 7E020000 		.4byte	0x27e
 1781 0a7f 8A0A0000 		.4byte	0xa8a
 1782 0a83 1A       		.uleb128 0x1a
 1783 0a84 1F030000 		.4byte	0x31f
 1784 0a88 25       		.byte	0x25
 1785 0a89 00       		.byte	0
 1786 0a8a 03       		.uleb128 0x3
ARM GAS  /var/folders/qh/xwg3v3kj02qbxczjpdb8lzfr0000gn/T//ccTU8HMp.s 			page 33


 1787 0a8b 3C040000 		.4byte	.LASF138
 1788 0a8f 13       		.byte	0x13
 1789 0a90 2D       		.byte	0x2d
 1790 0a91 950A0000 		.4byte	0xa95
 1791 0a95 09       		.uleb128 0x9
 1792 0a96 04       		.byte	0x4
 1793 0a97 9B0A0000 		.4byte	0xa9b
 1794 0a9b 11       		.uleb128 0x11
 1795 0a9c B00A0000 		.4byte	0xab0
 1796 0aa0 0D       		.uleb128 0xd
 1797 0aa1 B00A0000 		.4byte	0xab0
 1798 0aa5 0D       		.uleb128 0xd
 1799 0aa6 25000000 		.4byte	0x25
 1800 0aaa 0D       		.uleb128 0xd
 1801 0aab B60A0000 		.4byte	0xab6
 1802 0aaf 00       		.byte	0
 1803 0ab0 09       		.uleb128 0x9
 1804 0ab1 04       		.byte	0x4
 1805 0ab2 95060000 		.4byte	0x695
 1806 0ab6 09       		.uleb128 0x9
 1807 0ab7 04       		.byte	0x4
 1808 0ab8 BC0A0000 		.4byte	0xabc
 1809 0abc 09       		.uleb128 0x9
 1810 0abd 04       		.byte	0x4
 1811 0abe F2040000 		.4byte	0x4f2
 1812 0ac2 08       		.uleb128 0x8
 1813 0ac3 08       		.byte	0x8
 1814 0ac4 13       		.byte	0x13
 1815 0ac5 32       		.byte	0x32
 1816 0ac6 E30A0000 		.4byte	0xae3
 1817 0aca 06       		.uleb128 0x6
 1818 0acb 96010000 		.4byte	.LASF139
 1819 0acf 13       		.byte	0x13
 1820 0ad0 33       		.byte	0x33
 1821 0ad1 E7040000 		.4byte	0x4e7
 1822 0ad5 00       		.byte	0
 1823 0ad6 06       		.uleb128 0x6
 1824 0ad7 43070000 		.4byte	.LASF140
 1825 0adb 13       		.byte	0x13
 1826 0adc 34       		.byte	0x34
 1827 0add 8A0A0000 		.4byte	0xa8a
 1828 0ae1 04       		.byte	0x4
 1829 0ae2 00       		.byte	0
 1830 0ae3 03       		.uleb128 0x3
 1831 0ae4 12010000 		.4byte	.LASF141
 1832 0ae8 13       		.byte	0x13
 1833 0ae9 35       		.byte	0x35
 1834 0aea C20A0000 		.4byte	0xac2
 1835 0aee 08       		.uleb128 0x8
 1836 0aef 08       		.byte	0x8
 1837 0af0 13       		.byte	0x13
 1838 0af1 3A       		.byte	0x3a
 1839 0af2 0F0B0000 		.4byte	0xb0f
 1840 0af6 06       		.uleb128 0x6
 1841 0af7 D3000000 		.4byte	.LASF142
 1842 0afb 13       		.byte	0x13
 1843 0afc 3B       		.byte	0x3b
ARM GAS  /var/folders/qh/xwg3v3kj02qbxczjpdb8lzfr0000gn/T//ccTU8HMp.s 			page 34


 1844 0afd B00A0000 		.4byte	0xab0
 1845 0b01 00       		.byte	0
 1846 0b02 06       		.uleb128 0x6
 1847 0b03 FE010000 		.4byte	.LASF143
 1848 0b07 13       		.byte	0x13
 1849 0b08 3D       		.byte	0x3d
 1850 0b09 0F0B0000 		.4byte	0xb0f
 1851 0b0d 04       		.byte	0x4
 1852 0b0e 00       		.byte	0
 1853 0b0f 09       		.uleb128 0x9
 1854 0b10 04       		.byte	0x4
 1855 0b11 150B0000 		.4byte	0xb15
 1856 0b15 10       		.uleb128 0x10
 1857 0b16 E30A0000 		.4byte	0xae3
 1858 0b1a 03       		.uleb128 0x3
 1859 0b1b 8D060000 		.4byte	.LASF144
 1860 0b1f 13       		.byte	0x13
 1861 0b20 3F       		.byte	0x3f
 1862 0b21 EE0A0000 		.4byte	0xaee
 1863 0b25 1B       		.uleb128 0x1b
 1864 0b26 3A030000 		.4byte	.LASF145
 1865 0b2a 01       		.byte	0x1
 1866 0b2b 3C       		.byte	0x3c
 1867 0b2c EB000000 		.4byte	0xeb
 1868 0b30 00000000 		.4byte	.LFB42
 1869 0b34 30000000 		.4byte	.LFE42-.LFB42
 1870 0b38 01       		.uleb128 0x1
 1871 0b39 9C       		.byte	0x9c
 1872 0b3a 720B0000 		.4byte	0xb72
 1873 0b3e 1C       		.uleb128 0x1c
 1874 0b3f 61726700 		.ascii	"arg\000"
 1875 0b43 01       		.byte	0x1
 1876 0b44 3C       		.byte	0x3c
 1877 0b45 7C020000 		.4byte	0x27c
 1878 0b49 00000000 		.4byte	.LLST0
 1879 0b4d 1D       		.uleb128 0x1d
 1880 0b4e 1A000000 		.4byte	.LVL2
 1881 0b52 DA0E0000 		.4byte	0xeda
 1882 0b56 610B0000 		.4byte	0xb61
 1883 0b5a 1E       		.uleb128 0x1e
 1884 0b5b 01       		.uleb128 0x1
 1885 0b5c 50       		.byte	0x50
 1886 0b5d 02       		.uleb128 0x2
 1887 0b5e 08       		.byte	0x8
 1888 0b5f FA       		.byte	0xfa
 1889 0b60 00       		.byte	0
 1890 0b61 1F       		.uleb128 0x1f
 1891 0b62 22000000 		.4byte	.LVL3
 1892 0b66 DA0E0000 		.4byte	0xeda
 1893 0b6a 1E       		.uleb128 0x1e
 1894 0b6b 01       		.uleb128 0x1
 1895 0b6c 50       		.byte	0x50
 1896 0b6d 02       		.uleb128 0x2
 1897 0b6e 08       		.byte	0x8
 1898 0b6f FA       		.byte	0xfa
 1899 0b70 00       		.byte	0
 1900 0b71 00       		.byte	0
ARM GAS  /var/folders/qh/xwg3v3kj02qbxczjpdb8lzfr0000gn/T//ccTU8HMp.s 			page 35


 1901 0b72 1B       		.uleb128 0x1b
 1902 0b73 32030000 		.4byte	.LASF146
 1903 0b77 01       		.byte	0x1
 1904 0b78 2A       		.byte	0x2a
 1905 0b79 EB000000 		.4byte	0xeb
 1906 0b7d 00000000 		.4byte	.LFB41
 1907 0b81 34000000 		.4byte	.LFE41-.LFB41
 1908 0b85 01       		.uleb128 0x1
 1909 0b86 9C       		.byte	0x9c
 1910 0b87 C10B0000 		.4byte	0xbc1
 1911 0b8b 1C       		.uleb128 0x1c
 1912 0b8c 61726700 		.ascii	"arg\000"
 1913 0b90 01       		.byte	0x1
 1914 0b91 2A       		.byte	0x2a
 1915 0b92 7C020000 		.4byte	0x27c
 1916 0b96 21000000 		.4byte	.LLST1
 1917 0b9a 1D       		.uleb128 0x1d
 1918 0b9b 1C000000 		.4byte	.LVL6
 1919 0b9f DA0E0000 		.4byte	0xeda
 1920 0ba3 AF0B0000 		.4byte	0xbaf
 1921 0ba7 1E       		.uleb128 0x1e
 1922 0ba8 01       		.uleb128 0x1
 1923 0ba9 50       		.byte	0x50
 1924 0baa 03       		.uleb128 0x3
 1925 0bab 0A       		.byte	0xa
 1926 0bac F401     		.2byte	0x1f4
 1927 0bae 00       		.byte	0
 1928 0baf 1F       		.uleb128 0x1f
 1929 0bb0 26000000 		.4byte	.LVL7
 1930 0bb4 DA0E0000 		.4byte	0xeda
 1931 0bb8 1E       		.uleb128 0x1e
 1932 0bb9 01       		.uleb128 0x1
 1933 0bba 50       		.byte	0x50
 1934 0bbb 03       		.uleb128 0x3
 1935 0bbc 0A       		.byte	0xa
 1936 0bbd F401     		.2byte	0x1f4
 1937 0bbf 00       		.byte	0
 1938 0bc0 00       		.byte	0
 1939 0bc1 20       		.uleb128 0x20
 1940 0bc2 6A070000 		.4byte	.LASF173
 1941 0bc6 01       		.byte	0x1
 1942 0bc7 4B       		.byte	0x4b
 1943 0bc8 25000000 		.4byte	0x25
 1944 0bcc 00000000 		.4byte	.LFB43
 1945 0bd0 04010000 		.4byte	.LFE43-.LFB43
 1946 0bd4 01       		.uleb128 0x1
 1947 0bd5 9C       		.byte	0x9c
 1948 0bd6 D00D0000 		.4byte	0xdd0
 1949 0bda 21       		.uleb128 0x21
 1950 0bdb 736800   		.ascii	"sh\000"
 1951 0bde 01       		.byte	0x1
 1952 0bdf 4E       		.byte	0x4e
 1953 0be0 40020000 		.4byte	0x240
 1954 0be4 42000000 		.4byte	.LLST2
 1955 0be8 22       		.uleb128 0x22
 1956 0be9 08000000 		.4byte	.LVL9
 1957 0bed EC0E0000 		.4byte	0xeec
ARM GAS  /var/folders/qh/xwg3v3kj02qbxczjpdb8lzfr0000gn/T//ccTU8HMp.s 			page 36


 1958 0bf1 22       		.uleb128 0x22
 1959 0bf2 0C000000 		.4byte	.LVL10
 1960 0bf6 F30E0000 		.4byte	0xef3
 1961 0bfa 22       		.uleb128 0x22
 1962 0bfb 10000000 		.4byte	.LVL11
 1963 0bff FA0E0000 		.4byte	0xefa
 1964 0c03 1D       		.uleb128 0x1d
 1965 0c04 1E000000 		.4byte	.LVL12
 1966 0c08 010F0000 		.4byte	0xf01
 1967 0c0c 230C0000 		.4byte	0xc23
 1968 0c10 1E       		.uleb128 0x1e
 1969 0c11 01       		.uleb128 0x1
 1970 0c12 52       		.byte	0x52
 1971 0c13 01       		.uleb128 0x1
 1972 0c14 30       		.byte	0x30
 1973 0c15 1E       		.uleb128 0x1e
 1974 0c16 01       		.uleb128 0x1
 1975 0c17 51       		.byte	0x51
 1976 0c18 03       		.uleb128 0x3
 1977 0c19 0A       		.byte	0xa
 1978 0c1a B001     		.2byte	0x1b0
 1979 0c1c 1E       		.uleb128 0x1e
 1980 0c1d 01       		.uleb128 0x1
 1981 0c1e 50       		.byte	0x50
 1982 0c1f 02       		.uleb128 0x2
 1983 0c20 74       		.byte	0x74
 1984 0c21 00       		.sleb128 0
 1985 0c22 00       		.byte	0
 1986 0c23 1D       		.uleb128 0x1d
 1987 0c24 26000000 		.4byte	.LVL13
 1988 0c28 220F0000 		.4byte	0xf22
 1989 0c2c 400C0000 		.4byte	0xc40
 1990 0c30 1E       		.uleb128 0x1e
 1991 0c31 01       		.uleb128 0x1
 1992 0c32 51       		.byte	0x51
 1993 0c33 05       		.uleb128 0x5
 1994 0c34 03       		.byte	0x3
 1995 0c35 00000000 		.4byte	.LANCHOR1
 1996 0c39 1E       		.uleb128 0x1e
 1997 0c3a 01       		.uleb128 0x1
 1998 0c3b 50       		.byte	0x50
 1999 0c3c 02       		.uleb128 0x2
 2000 0c3d 74       		.byte	0x74
 2001 0c3e 00       		.sleb128 0
 2002 0c3f 00       		.byte	0
 2003 0c40 1D       		.uleb128 0x1d
 2004 0c41 2E000000 		.4byte	.LVL14
 2005 0c45 220F0000 		.4byte	0xf22
 2006 0c49 5D0C0000 		.4byte	0xc5d
 2007 0c4d 1E       		.uleb128 0x1e
 2008 0c4e 01       		.uleb128 0x1
 2009 0c4f 51       		.byte	0x51
 2010 0c50 05       		.uleb128 0x5
 2011 0c51 03       		.byte	0x3
 2012 0c52 00000000 		.4byte	.LANCHOR2
 2013 0c56 1E       		.uleb128 0x1e
 2014 0c57 01       		.uleb128 0x1
ARM GAS  /var/folders/qh/xwg3v3kj02qbxczjpdb8lzfr0000gn/T//ccTU8HMp.s 			page 37


 2015 0c58 50       		.byte	0x50
 2016 0c59 02       		.uleb128 0x2
 2017 0c5a 74       		.byte	0x74
 2018 0c5b 00       		.sleb128 0
 2019 0c5c 00       		.byte	0
 2020 0c5d 1D       		.uleb128 0x1d
 2021 0c5e 36000000 		.4byte	.LVL15
 2022 0c62 220F0000 		.4byte	0xf22
 2023 0c66 7A0C0000 		.4byte	0xc7a
 2024 0c6a 1E       		.uleb128 0x1e
 2025 0c6b 01       		.uleb128 0x1
 2026 0c6c 51       		.byte	0x51
 2027 0c6d 05       		.uleb128 0x5
 2028 0c6e 03       		.byte	0x3
 2029 0c6f 00000000 		.4byte	.LANCHOR3
 2030 0c73 1E       		.uleb128 0x1e
 2031 0c74 01       		.uleb128 0x1
 2032 0c75 50       		.byte	0x50
 2033 0c76 02       		.uleb128 0x2
 2034 0c77 74       		.byte	0x74
 2035 0c78 00       		.sleb128 0
 2036 0c79 00       		.byte	0
 2037 0c7a 1D       		.uleb128 0x1d
 2038 0c7b 40000000 		.4byte	.LVL16
 2039 0c7f 380F0000 		.4byte	0xf38
 2040 0c83 930C0000 		.4byte	0xc93
 2041 0c87 1E       		.uleb128 0x1e
 2042 0c88 01       		.uleb128 0x1
 2043 0c89 51       		.byte	0x51
 2044 0c8a 01       		.uleb128 0x1
 2045 0c8b 30       		.byte	0x30
 2046 0c8c 1E       		.uleb128 0x1e
 2047 0c8d 01       		.uleb128 0x1
 2048 0c8e 50       		.byte	0x50
 2049 0c8f 02       		.uleb128 0x2
 2050 0c90 75       		.byte	0x75
 2051 0c91 00       		.sleb128 0
 2052 0c92 00       		.byte	0
 2053 0c93 1D       		.uleb128 0x1d
 2054 0c94 4E000000 		.4byte	.LVL17
 2055 0c98 600F0000 		.4byte	0xf60
 2056 0c9c B50C0000 		.4byte	0xcb5
 2057 0ca0 1E       		.uleb128 0x1e
 2058 0ca1 01       		.uleb128 0x1
 2059 0ca2 52       		.byte	0x52
 2060 0ca3 02       		.uleb128 0x2
 2061 0ca4 08       		.byte	0x8
 2062 0ca5 82       		.byte	0x82
 2063 0ca6 1E       		.uleb128 0x1e
 2064 0ca7 01       		.uleb128 0x1
 2065 0ca8 51       		.byte	0x51
 2066 0ca9 03       		.uleb128 0x3
 2067 0caa 0A       		.byte	0xa
 2068 0cab 0002     		.2byte	0x200
 2069 0cad 1E       		.uleb128 0x1e
 2070 0cae 01       		.uleb128 0x1
 2071 0caf 50       		.byte	0x50
ARM GAS  /var/folders/qh/xwg3v3kj02qbxczjpdb8lzfr0000gn/T//ccTU8HMp.s 			page 38


 2072 0cb0 03       		.uleb128 0x3
 2073 0cb1 42       		.byte	0x42
 2074 0cb2 4A       		.byte	0x4a
 2075 0cb3 24       		.byte	0x24
 2076 0cb4 00       		.byte	0
 2077 0cb5 1D       		.uleb128 0x1d
 2078 0cb6 5C000000 		.4byte	.LVL18
 2079 0cba 600F0000 		.4byte	0xf60
 2080 0cbe D70C0000 		.4byte	0xcd7
 2081 0cc2 1E       		.uleb128 0x1e
 2082 0cc3 01       		.uleb128 0x1
 2083 0cc4 52       		.byte	0x52
 2084 0cc5 02       		.uleb128 0x2
 2085 0cc6 08       		.byte	0x8
 2086 0cc7 82       		.byte	0x82
 2087 0cc8 1E       		.uleb128 0x1e
 2088 0cc9 01       		.uleb128 0x1
 2089 0cca 51       		.byte	0x51
 2090 0ccb 03       		.uleb128 0x3
 2091 0ccc 0A       		.byte	0xa
 2092 0ccd 0004     		.2byte	0x400
 2093 0ccf 1E       		.uleb128 0x1e
 2094 0cd0 01       		.uleb128 0x1
 2095 0cd1 50       		.byte	0x50
 2096 0cd2 03       		.uleb128 0x3
 2097 0cd3 42       		.byte	0x42
 2098 0cd4 4A       		.byte	0x4a
 2099 0cd5 24       		.byte	0x24
 2100 0cd6 00       		.byte	0
 2101 0cd7 1D       		.uleb128 0x1d
 2102 0cd8 66000000 		.4byte	.LVL19
 2103 0cdc 600F0000 		.4byte	0xf60
 2104 0ce0 F80C0000 		.4byte	0xcf8
 2105 0ce4 1E       		.uleb128 0x1e
 2106 0ce5 01       		.uleb128 0x1
 2107 0ce6 52       		.byte	0x52
 2108 0ce7 01       		.uleb128 0x1
 2109 0ce8 33       		.byte	0x33
 2110 0ce9 1E       		.uleb128 0x1e
 2111 0cea 01       		.uleb128 0x1
 2112 0ceb 51       		.byte	0x51
 2113 0cec 01       		.uleb128 0x1
 2114 0ced 33       		.byte	0x33
 2115 0cee 1E       		.uleb128 0x1e
 2116 0cef 01       		.uleb128 0x1
 2117 0cf0 50       		.byte	0x50
 2118 0cf1 05       		.uleb128 0x5
 2119 0cf2 0C       		.byte	0xc
 2120 0cf3 00080048 		.4byte	0x48000800
 2121 0cf7 00       		.byte	0
 2122 0cf8 1D       		.uleb128 0x1d
 2123 0cf9 72000000 		.4byte	.LVL20
 2124 0cfd 7C0F0000 		.4byte	0xf7c
 2125 0d01 180D0000 		.4byte	0xd18
 2126 0d05 1E       		.uleb128 0x1e
 2127 0d06 01       		.uleb128 0x1
 2128 0d07 53       		.byte	0x53
ARM GAS  /var/folders/qh/xwg3v3kj02qbxczjpdb8lzfr0000gn/T//ccTU8HMp.s 			page 39


 2129 0d08 02       		.uleb128 0x2
 2130 0d09 75       		.byte	0x75
 2131 0d0a 00       		.sleb128 0
 2132 0d0b 1E       		.uleb128 0x1e
 2133 0d0c 01       		.uleb128 0x1
 2134 0d0d 51       		.byte	0x51
 2135 0d0e 02       		.uleb128 0x2
 2136 0d0f 08       		.byte	0x8
 2137 0d10 40       		.byte	0x40
 2138 0d11 1E       		.uleb128 0x1e
 2139 0d12 01       		.uleb128 0x1
 2140 0d13 50       		.byte	0x50
 2141 0d14 02       		.uleb128 0x2
 2142 0d15 74       		.byte	0x74
 2143 0d16 00       		.sleb128 0
 2144 0d17 00       		.byte	0
 2145 0d18 1D       		.uleb128 0x1d
 2146 0d19 8C000000 		.4byte	.LVL21
 2147 0d1d A00F0000 		.4byte	0xfa0
 2148 0d21 4C0D0000 		.4byte	0xd4c
 2149 0d25 1E       		.uleb128 0x1e
 2150 0d26 01       		.uleb128 0x1
 2151 0d27 53       		.byte	0x53
 2152 0d28 05       		.uleb128 0x5
 2153 0d29 03       		.byte	0x3
 2154 0d2a 00000000 		.4byte	Thread1
 2155 0d2e 1E       		.uleb128 0x1e
 2156 0d2f 01       		.uleb128 0x1
 2157 0d30 52       		.byte	0x52
 2158 0d31 02       		.uleb128 0x2
 2159 0d32 08       		.byte	0x8
 2160 0d33 40       		.byte	0x40
 2161 0d34 1E       		.uleb128 0x1e
 2162 0d35 01       		.uleb128 0x1
 2163 0d36 51       		.byte	0x51
 2164 0d37 03       		.uleb128 0x3
 2165 0d38 0A       		.byte	0xa
 2166 0d39 3001     		.2byte	0x130
 2167 0d3b 1E       		.uleb128 0x1e
 2168 0d3c 01       		.uleb128 0x1
 2169 0d3d 50       		.byte	0x50
 2170 0d3e 05       		.uleb128 0x5
 2171 0d3f 03       		.byte	0x3
 2172 0d40 00000000 		.4byte	.LANCHOR5
 2173 0d44 1E       		.uleb128 0x1e
 2174 0d45 02       		.uleb128 0x2
 2175 0d46 7D       		.byte	0x7d
 2176 0d47 00       		.sleb128 0
 2177 0d48 02       		.uleb128 0x2
 2178 0d49 74       		.byte	0x74
 2179 0d4a 00       		.sleb128 0
 2180 0d4b 00       		.byte	0
 2181 0d4c 1D       		.uleb128 0x1d
 2182 0d4d 9C000000 		.4byte	.LVL22
 2183 0d51 A00F0000 		.4byte	0xfa0
 2184 0d55 800D0000 		.4byte	0xd80
 2185 0d59 1E       		.uleb128 0x1e
ARM GAS  /var/folders/qh/xwg3v3kj02qbxczjpdb8lzfr0000gn/T//ccTU8HMp.s 			page 40


 2186 0d5a 01       		.uleb128 0x1
 2187 0d5b 53       		.byte	0x53
 2188 0d5c 05       		.uleb128 0x5
 2189 0d5d 03       		.byte	0x3
 2190 0d5e 00000000 		.4byte	Thread2
 2191 0d62 1E       		.uleb128 0x1e
 2192 0d63 01       		.uleb128 0x1
 2193 0d64 52       		.byte	0x52
 2194 0d65 02       		.uleb128 0x2
 2195 0d66 08       		.byte	0x8
 2196 0d67 40       		.byte	0x40
 2197 0d68 1E       		.uleb128 0x1e
 2198 0d69 01       		.uleb128 0x1
 2199 0d6a 51       		.byte	0x51
 2200 0d6b 03       		.uleb128 0x3
 2201 0d6c 0A       		.byte	0xa
 2202 0d6d 3001     		.2byte	0x130
 2203 0d6f 1E       		.uleb128 0x1e
 2204 0d70 01       		.uleb128 0x1
 2205 0d71 50       		.byte	0x50
 2206 0d72 05       		.uleb128 0x5
 2207 0d73 03       		.byte	0x3
 2208 0d74 00000000 		.4byte	.LANCHOR6
 2209 0d78 1E       		.uleb128 0x1e
 2210 0d79 02       		.uleb128 0x2
 2211 0d7a 7D       		.byte	0x7d
 2212 0d7b 00       		.sleb128 0
 2213 0d7c 02       		.uleb128 0x2
 2214 0d7d 74       		.byte	0x74
 2215 0d7e 00       		.sleb128 0
 2216 0d7f 00       		.byte	0
 2217 0d80 22       		.uleb128 0x22
 2218 0d81 A0000000 		.4byte	.LVL23
 2219 0d85 CA0F0000 		.4byte	0xfca
 2220 0d89 1D       		.uleb128 0x1d
 2221 0d8a AC000000 		.4byte	.LVL25
 2222 0d8e DA0E0000 		.4byte	0xeda
 2223 0d92 9E0D0000 		.4byte	0xd9e
 2224 0d96 1E       		.uleb128 0x1e
 2225 0d97 01       		.uleb128 0x1
 2226 0d98 50       		.byte	0x50
 2227 0d99 03       		.uleb128 0x3
 2228 0d9a 0A       		.byte	0xa
 2229 0d9b E803     		.2byte	0x3e8
 2230 0d9d 00       		.byte	0
 2231 0d9e 1D       		.uleb128 0x1d
 2232 0d9f BC000000 		.4byte	.LVL26
 2233 0da3 D10F0000 		.4byte	0xfd1
 2234 0da7 B20D0000 		.4byte	0xdb2
 2235 0dab 1E       		.uleb128 0x1e
 2236 0dac 01       		.uleb128 0x1
 2237 0dad 50       		.byte	0x50
 2238 0dae 02       		.uleb128 0x2
 2239 0daf 74       		.byte	0x74
 2240 0db0 00       		.sleb128 0
 2241 0db1 00       		.byte	0
 2242 0db2 1F       		.uleb128 0x1f
ARM GAS  /var/folders/qh/xwg3v3kj02qbxczjpdb8lzfr0000gn/T//ccTU8HMp.s 			page 41


 2243 0db3 CC000000 		.4byte	.LVL28
 2244 0db7 E20F0000 		.4byte	0xfe2
 2245 0dbb 1E       		.uleb128 0x1e
 2246 0dbc 01       		.uleb128 0x1
 2247 0dbd 52       		.byte	0x52
 2248 0dbe 02       		.uleb128 0x2
 2249 0dbf 08       		.byte	0x8
 2250 0dc0 40       		.byte	0x40
 2251 0dc1 1E       		.uleb128 0x1e
 2252 0dc2 01       		.uleb128 0x1
 2253 0dc3 51       		.byte	0x51
 2254 0dc4 03       		.uleb128 0x3
 2255 0dc5 0A       		.byte	0xa
 2256 0dc6 B002     		.2byte	0x2b0
 2257 0dc8 1E       		.uleb128 0x1e
 2258 0dc9 01       		.uleb128 0x1
 2259 0dca 50       		.byte	0x50
 2260 0dcb 02       		.uleb128 0x2
 2261 0dcc 75       		.byte	0x75
 2262 0dcd 00       		.sleb128 0
 2263 0dce 00       		.byte	0
 2264 0dcf 00       		.byte	0
 2265 0dd0 19       		.uleb128 0x19
 2266 0dd1 E30A0000 		.4byte	0xae3
 2267 0dd5 E00D0000 		.4byte	0xde0
 2268 0dd9 1A       		.uleb128 0x1a
 2269 0dda 1F030000 		.4byte	0x31f
 2270 0dde 0A       		.byte	0xa
 2271 0ddf 00       		.byte	0
 2272 0de0 23       		.uleb128 0x23
 2273 0de1 49050000 		.4byte	.LASF147
 2274 0de5 14       		.byte	0x14
 2275 0de6 3B       		.byte	0x3b
 2276 0de7 F10D0000 		.4byte	0xdf1
 2277 0deb 05       		.uleb128 0x5
 2278 0dec 03       		.byte	0x3
 2279 0ded 00000000 		.4byte	shCmds
 2280 0df1 10       		.uleb128 0x10
 2281 0df2 D00D0000 		.4byte	0xdd0
 2282 0df6 23       		.uleb128 0x23
 2283 0df7 69000000 		.4byte	.LASF148
 2284 0dfb 14       		.byte	0x14
 2285 0dfc 49       		.byte	0x49
 2286 0dfd 070E0000 		.4byte	0xe07
 2287 0e01 05       		.uleb128 0x5
 2288 0e02 03       		.byte	0x3
 2289 0e03 00000000 		.4byte	shCfg
 2290 0e07 10       		.uleb128 0x10
 2291 0e08 1A0B0000 		.4byte	0xb1a
 2292 0e0c 23       		.uleb128 0x23
 2293 0e0d BD040000 		.4byte	.LASF149
 2294 0e11 01       		.byte	0x1
 2295 0e12 29       		.byte	0x29
 2296 0e13 7A0A0000 		.4byte	0xa7a
 2297 0e17 05       		.uleb128 0x5
 2298 0e18 03       		.byte	0x3
 2299 0e19 00000000 		.4byte	waThread1
ARM GAS  /var/folders/qh/xwg3v3kj02qbxczjpdb8lzfr0000gn/T//ccTU8HMp.s 			page 42


 2300 0e1d 23       		.uleb128 0x23
 2301 0e1e C7040000 		.4byte	.LASF150
 2302 0e22 01       		.byte	0x1
 2303 0e23 3B       		.byte	0x3b
 2304 0e24 7A0A0000 		.4byte	0xa7a
 2305 0e28 05       		.uleb128 0x5
 2306 0e29 03       		.byte	0x3
 2307 0e2a 00000000 		.4byte	waThread2
 2308 0e2e 24       		.uleb128 0x24
 2309 0e2f 1E070000 		.4byte	.LASF151
 2310 0e33 08       		.byte	0x8
 2311 0e34 68       		.byte	0x68
 2312 0e35 7C030000 		.4byte	0x37c
 2313 0e39 25       		.uleb128 0x25
 2314 0e3a 53443100 		.ascii	"SD1\000"
 2315 0e3e 12       		.byte	0x12
 2316 0e3f 1101     		.2byte	0x111
 2317 0e41 26090000 		.4byte	0x926
 2318 0e45 26       		.uleb128 0x26
 2319 0e46 6D7000   		.ascii	"mp\000"
 2320 0e49 01       		.byte	0x1
 2321 0e4a 1B       		.byte	0x1b
 2322 0e4b A7040000 		.4byte	0x4a7
 2323 0e4f 05       		.uleb128 0x5
 2324 0e50 03       		.byte	0x3
 2325 0e51 00000000 		.4byte	mp
 2326 0e55 27       		.uleb128 0x27
 2327 0e56 BF010000 		.4byte	.LASF152
 2328 0e5a 01       		.byte	0x1
 2329 0e5b 1D       		.byte	0x1d
 2330 0e5c 25000000 		.4byte	0x25
 2331 0e60 05       		.uleb128 0x5
 2332 0e61 03       		.byte	0x3
 2333 0e62 00000000 		.4byte	threadCount
 2334 0e66 19       		.uleb128 0x19
 2335 0e67 40020000 		.4byte	0x240
 2336 0e6b 760E0000 		.4byte	0xe76
 2337 0e6f 1A       		.uleb128 0x1a
 2338 0e70 1F030000 		.4byte	0x31f
 2339 0e74 02       		.byte	0x2
 2340 0e75 00       		.byte	0
 2341 0e76 27       		.uleb128 0x27
 2342 0e77 24070000 		.4byte	.LASF153
 2343 0e7b 01       		.byte	0x1
 2344 0e7c 1E       		.byte	0x1e
 2345 0e7d 660E0000 		.4byte	0xe66
 2346 0e81 05       		.uleb128 0x5
 2347 0e82 03       		.byte	0x3
 2348 0e83 00000000 		.4byte	threadArray
 2349 0e87 19       		.uleb128 0x19
 2350 0e88 7E020000 		.4byte	0x27e
 2351 0e8c 970E0000 		.4byte	0xe97
 2352 0e90 1A       		.uleb128 0x1a
 2353 0e91 1F030000 		.4byte	0x31f
 2354 0e95 35       		.byte	0x35
 2355 0e96 00       		.byte	0
 2356 0e97 27       		.uleb128 0x27
ARM GAS  /var/folders/qh/xwg3v3kj02qbxczjpdb8lzfr0000gn/T//ccTU8HMp.s 			page 43


 2357 0e98 36020000 		.4byte	.LASF154
 2358 0e9c 01       		.byte	0x1
 2359 0e9d 1F       		.byte	0x1f
 2360 0e9e 870E0000 		.4byte	0xe87
 2361 0ea2 05       		.uleb128 0x5
 2362 0ea3 03       		.byte	0x3
 2363 0ea4 00000000 		.4byte	thread_area0
 2364 0ea8 27       		.uleb128 0x27
 2365 0ea9 43020000 		.4byte	.LASF155
 2366 0ead 01       		.byte	0x1
 2367 0eae 20       		.byte	0x20
 2368 0eaf 870E0000 		.4byte	0xe87
 2369 0eb3 05       		.uleb128 0x5
 2370 0eb4 03       		.byte	0x3
 2371 0eb5 00000000 		.4byte	thread_area1
 2372 0eb9 27       		.uleb128 0x27
 2373 0eba 50020000 		.4byte	.LASF156
 2374 0ebe 01       		.byte	0x1
 2375 0ebf 21       		.byte	0x21
 2376 0ec0 870E0000 		.4byte	0xe87
 2377 0ec4 05       		.uleb128 0x5
 2378 0ec5 03       		.byte	0x3
 2379 0ec6 00000000 		.4byte	thread_area2
 2380 0eca 26       		.uleb128 0x26
 2381 0ecb 736800   		.ascii	"sh\000"
 2382 0ece 01       		.byte	0x1
 2383 0ecf 23       		.byte	0x23
 2384 0ed0 40020000 		.4byte	0x240
 2385 0ed4 05       		.uleb128 0x5
 2386 0ed5 03       		.byte	0x3
 2387 0ed6 00000000 		.4byte	sh
 2388 0eda 28       		.uleb128 0x28
 2389 0edb 93040000 		.4byte	.LASF160
 2390 0edf 06       		.byte	0x6
 2391 0ee0 6E01     		.2byte	0x16e
 2392 0ee2 EC0E0000 		.4byte	0xeec
 2393 0ee6 0D       		.uleb128 0xd
 2394 0ee7 0C010000 		.4byte	0x10c
 2395 0eeb 00       		.byte	0
 2396 0eec 29       		.uleb128 0x29
 2397 0eed 29020000 		.4byte	.LASF157
 2398 0ef1 15       		.byte	0x15
 2399 0ef2 CA       		.byte	0xca
 2400 0ef3 29       		.uleb128 0x29
 2401 0ef4 B4000000 		.4byte	.LASF158
 2402 0ef8 16       		.byte	0x16
 2403 0ef9 EF       		.byte	0xef
 2404 0efa 29       		.uleb128 0x29
 2405 0efb F0000000 		.4byte	.LASF159
 2406 0eff 17       		.byte	0x17
 2407 0f00 27       		.byte	0x27
 2408 0f01 2A       		.uleb128 0x2a
 2409 0f02 DD060000 		.4byte	.LASF161
 2410 0f06 0C       		.byte	0xc
 2411 0f07 78       		.byte	0x78
 2412 0f08 1C0F0000 		.4byte	0xf1c
 2413 0f0c 0D       		.uleb128 0xd
ARM GAS  /var/folders/qh/xwg3v3kj02qbxczjpdb8lzfr0000gn/T//ccTU8HMp.s 			page 44


 2414 0f0d 1C0F0000 		.4byte	0xf1c
 2415 0f11 0D       		.uleb128 0xd
 2416 0f12 2C000000 		.4byte	0x2c
 2417 0f16 0D       		.uleb128 0xd
 2418 0f17 3B040000 		.4byte	0x43b
 2419 0f1b 00       		.byte	0
 2420 0f1c 09       		.uleb128 0x9
 2421 0f1d 04       		.byte	0x4
 2422 0f1e A7040000 		.4byte	0x4a7
 2423 0f22 2A       		.uleb128 0x2a
 2424 0f23 38070000 		.4byte	.LASF162
 2425 0f27 0C       		.byte	0xc
 2426 0f28 7D       		.byte	0x7d
 2427 0f29 380F0000 		.4byte	0xf38
 2428 0f2d 0D       		.uleb128 0xd
 2429 0f2e 1C0F0000 		.4byte	0xf1c
 2430 0f32 0D       		.uleb128 0xd
 2431 0f33 7C020000 		.4byte	0x27c
 2432 0f37 00       		.byte	0
 2433 0f38 28       		.uleb128 0x28
 2434 0f39 5F060000 		.4byte	.LASF163
 2435 0f3d 11       		.byte	0x11
 2436 0f3e 3001     		.2byte	0x130
 2437 0f40 4F0F0000 		.4byte	0xf4f
 2438 0f44 0D       		.uleb128 0xd
 2439 0f45 4F0F0000 		.4byte	0xf4f
 2440 0f49 0D       		.uleb128 0xd
 2441 0f4a 550F0000 		.4byte	0xf55
 2442 0f4e 00       		.byte	0
 2443 0f4f 09       		.uleb128 0x9
 2444 0f50 04       		.byte	0x4
 2445 0f51 26090000 		.4byte	0x926
 2446 0f55 09       		.uleb128 0x9
 2447 0f56 04       		.byte	0x4
 2448 0f57 5B0F0000 		.4byte	0xf5b
 2449 0f5b 10       		.uleb128 0x10
 2450 0f5c E1090000 		.4byte	0x9e1
 2451 0f60 28       		.uleb128 0x28
 2452 0f61 B1060000 		.4byte	.LASF164
 2453 0f65 10       		.byte	0x10
 2454 0f66 C201     		.2byte	0x1c2
 2455 0f68 7C0F0000 		.4byte	0xf7c
 2456 0f6c 0D       		.uleb128 0xd
 2457 0f6d EF080000 		.4byte	0x8ef
 2458 0f71 0D       		.uleb128 0xd
 2459 0f72 D9080000 		.4byte	0x8d9
 2460 0f76 0D       		.uleb128 0xd
 2461 0f77 E4080000 		.4byte	0x8e4
 2462 0f7b 00       		.byte	0
 2463 0f7c 2B       		.uleb128 0x2b
 2464 0f7d 57010000 		.4byte	.LASF165
 2465 0f81 18       		.byte	0x18
 2466 0f82 39       		.byte	0x39
 2467 0f83 40020000 		.4byte	0x240
 2468 0f87 A00F0000 		.4byte	0xfa0
 2469 0f8b 0D       		.uleb128 0xd
 2470 0f8c 1C0F0000 		.4byte	0xf1c
ARM GAS  /var/folders/qh/xwg3v3kj02qbxczjpdb8lzfr0000gn/T//ccTU8HMp.s 			page 45


 2471 0f90 0D       		.uleb128 0xd
 2472 0f91 E0000000 		.4byte	0xe0
 2473 0f95 0D       		.uleb128 0xd
 2474 0f96 FF040000 		.4byte	0x4ff
 2475 0f9a 0D       		.uleb128 0xd
 2476 0f9b 7C020000 		.4byte	0x27c
 2477 0f9f 00       		.byte	0
 2478 0fa0 2C       		.uleb128 0x2c
 2479 0fa1 DE000000 		.4byte	.LASF166
 2480 0fa5 06       		.byte	0x6
 2481 0fa6 6901     		.2byte	0x169
 2482 0fa8 40020000 		.4byte	0x240
 2483 0fac CA0F0000 		.4byte	0xfca
 2484 0fb0 0D       		.uleb128 0xd
 2485 0fb1 7C020000 		.4byte	0x27c
 2486 0fb5 0D       		.uleb128 0xd
 2487 0fb6 2C000000 		.4byte	0x2c
 2488 0fba 0D       		.uleb128 0xd
 2489 0fbb E0000000 		.4byte	0xe0
 2490 0fbf 0D       		.uleb128 0xd
 2491 0fc0 FF040000 		.4byte	0x4ff
 2492 0fc4 0D       		.uleb128 0xd
 2493 0fc5 7C020000 		.4byte	0x27c
 2494 0fc9 00       		.byte	0
 2495 0fca 29       		.uleb128 0x29
 2496 0fcb 67060000 		.4byte	.LASF167
 2497 0fcf 13       		.byte	0x13
 2498 0fd0 48       		.byte	0x48
 2499 0fd1 2A       		.uleb128 0x2a
 2500 0fd2 C2050000 		.4byte	.LASF168
 2501 0fd6 18       		.byte	0x18
 2502 0fd7 33       		.byte	0x33
 2503 0fd8 E20F0000 		.4byte	0xfe2
 2504 0fdc 0D       		.uleb128 0xd
 2505 0fdd 40020000 		.4byte	0x240
 2506 0fe1 00       		.byte	0
 2507 0fe2 2B       		.uleb128 0x2b
 2508 0fe3 98020000 		.4byte	.LASF169
 2509 0fe7 13       		.byte	0x13
 2510 0fe8 4A       		.byte	0x4a
 2511 0fe9 40020000 		.4byte	0x240
 2512 0fed 01100000 		.4byte	0x1001
 2513 0ff1 0D       		.uleb128 0xd
 2514 0ff2 01100000 		.4byte	0x1001
 2515 0ff6 0D       		.uleb128 0xd
 2516 0ff7 2C000000 		.4byte	0x2c
 2517 0ffb 0D       		.uleb128 0xd
 2518 0ffc E0000000 		.4byte	0xe0
 2519 1000 00       		.byte	0
 2520 1001 09       		.uleb128 0x9
 2521 1002 04       		.byte	0x4
 2522 1003 070E0000 		.4byte	0xe07
 2523 1007 00       		.byte	0
 2524              		.section	.debug_abbrev,"",%progbits
 2525              	.Ldebug_abbrev0:
 2526 0000 01       		.uleb128 0x1
 2527 0001 11       		.uleb128 0x11
ARM GAS  /var/folders/qh/xwg3v3kj02qbxczjpdb8lzfr0000gn/T//ccTU8HMp.s 			page 46


 2528 0002 01       		.byte	0x1
 2529 0003 25       		.uleb128 0x25
 2530 0004 0E       		.uleb128 0xe
 2531 0005 13       		.uleb128 0x13
 2532 0006 0B       		.uleb128 0xb
 2533 0007 03       		.uleb128 0x3
 2534 0008 0E       		.uleb128 0xe
 2535 0009 1B       		.uleb128 0x1b
 2536 000a 0E       		.uleb128 0xe
 2537 000b 55       		.uleb128 0x55
 2538 000c 17       		.uleb128 0x17
 2539 000d 11       		.uleb128 0x11
 2540 000e 01       		.uleb128 0x1
 2541 000f 10       		.uleb128 0x10
 2542 0010 17       		.uleb128 0x17
 2543 0011 00       		.byte	0
 2544 0012 00       		.byte	0
 2545 0013 02       		.uleb128 0x2
 2546 0014 24       		.uleb128 0x24
 2547 0015 00       		.byte	0
 2548 0016 0B       		.uleb128 0xb
 2549 0017 0B       		.uleb128 0xb
 2550 0018 3E       		.uleb128 0x3e
 2551 0019 0B       		.uleb128 0xb
 2552 001a 03       		.uleb128 0x3
 2553 001b 08       		.uleb128 0x8
 2554 001c 00       		.byte	0
 2555 001d 00       		.byte	0
 2556 001e 03       		.uleb128 0x3
 2557 001f 16       		.uleb128 0x16
 2558 0020 00       		.byte	0
 2559 0021 03       		.uleb128 0x3
 2560 0022 0E       		.uleb128 0xe
 2561 0023 3A       		.uleb128 0x3a
 2562 0024 0B       		.uleb128 0xb
 2563 0025 3B       		.uleb128 0x3b
 2564 0026 0B       		.uleb128 0xb
 2565 0027 49       		.uleb128 0x49
 2566 0028 13       		.uleb128 0x13
 2567 0029 00       		.byte	0
 2568 002a 00       		.byte	0
 2569 002b 04       		.uleb128 0x4
 2570 002c 24       		.uleb128 0x24
 2571 002d 00       		.byte	0
 2572 002e 0B       		.uleb128 0xb
 2573 002f 0B       		.uleb128 0xb
 2574 0030 3E       		.uleb128 0x3e
 2575 0031 0B       		.uleb128 0xb
 2576 0032 03       		.uleb128 0x3
 2577 0033 0E       		.uleb128 0xe
 2578 0034 00       		.byte	0
 2579 0035 00       		.byte	0
 2580 0036 05       		.uleb128 0x5
 2581 0037 13       		.uleb128 0x13
 2582 0038 01       		.byte	0x1
 2583 0039 03       		.uleb128 0x3
 2584 003a 0E       		.uleb128 0xe
ARM GAS  /var/folders/qh/xwg3v3kj02qbxczjpdb8lzfr0000gn/T//ccTU8HMp.s 			page 47


 2585 003b 0B       		.uleb128 0xb
 2586 003c 0B       		.uleb128 0xb
 2587 003d 3A       		.uleb128 0x3a
 2588 003e 0B       		.uleb128 0xb
 2589 003f 3B       		.uleb128 0x3b
 2590 0040 0B       		.uleb128 0xb
 2591 0041 01       		.uleb128 0x1
 2592 0042 13       		.uleb128 0x13
 2593 0043 00       		.byte	0
 2594 0044 00       		.byte	0
 2595 0045 06       		.uleb128 0x6
 2596 0046 0D       		.uleb128 0xd
 2597 0047 00       		.byte	0
 2598 0048 03       		.uleb128 0x3
 2599 0049 0E       		.uleb128 0xe
 2600 004a 3A       		.uleb128 0x3a
 2601 004b 0B       		.uleb128 0xb
 2602 004c 3B       		.uleb128 0x3b
 2603 004d 0B       		.uleb128 0xb
 2604 004e 49       		.uleb128 0x49
 2605 004f 13       		.uleb128 0x13
 2606 0050 38       		.uleb128 0x38
 2607 0051 0B       		.uleb128 0xb
 2608 0052 00       		.byte	0
 2609 0053 00       		.byte	0
 2610 0054 07       		.uleb128 0x7
 2611 0055 0D       		.uleb128 0xd
 2612 0056 00       		.byte	0
 2613 0057 03       		.uleb128 0x3
 2614 0058 08       		.uleb128 0x8
 2615 0059 3A       		.uleb128 0x3a
 2616 005a 0B       		.uleb128 0xb
 2617 005b 3B       		.uleb128 0x3b
 2618 005c 0B       		.uleb128 0xb
 2619 005d 49       		.uleb128 0x49
 2620 005e 13       		.uleb128 0x13
 2621 005f 38       		.uleb128 0x38
 2622 0060 0B       		.uleb128 0xb
 2623 0061 00       		.byte	0
 2624 0062 00       		.byte	0
 2625 0063 08       		.uleb128 0x8
 2626 0064 13       		.uleb128 0x13
 2627 0065 01       		.byte	0x1
 2628 0066 0B       		.uleb128 0xb
 2629 0067 0B       		.uleb128 0xb
 2630 0068 3A       		.uleb128 0x3a
 2631 0069 0B       		.uleb128 0xb
 2632 006a 3B       		.uleb128 0x3b
 2633 006b 0B       		.uleb128 0xb
 2634 006c 01       		.uleb128 0x1
 2635 006d 13       		.uleb128 0x13
 2636 006e 00       		.byte	0
 2637 006f 00       		.byte	0
 2638 0070 09       		.uleb128 0x9
 2639 0071 0F       		.uleb128 0xf
 2640 0072 00       		.byte	0
 2641 0073 0B       		.uleb128 0xb
ARM GAS  /var/folders/qh/xwg3v3kj02qbxczjpdb8lzfr0000gn/T//ccTU8HMp.s 			page 48


 2642 0074 0B       		.uleb128 0xb
 2643 0075 49       		.uleb128 0x49
 2644 0076 13       		.uleb128 0x13
 2645 0077 00       		.byte	0
 2646 0078 00       		.byte	0
 2647 0079 0A       		.uleb128 0xa
 2648 007a 0F       		.uleb128 0xf
 2649 007b 00       		.byte	0
 2650 007c 0B       		.uleb128 0xb
 2651 007d 0B       		.uleb128 0xb
 2652 007e 00       		.byte	0
 2653 007f 00       		.byte	0
 2654 0080 0B       		.uleb128 0xb
 2655 0081 35       		.uleb128 0x35
 2656 0082 00       		.byte	0
 2657 0083 49       		.uleb128 0x49
 2658 0084 13       		.uleb128 0x13
 2659 0085 00       		.byte	0
 2660 0086 00       		.byte	0
 2661 0087 0C       		.uleb128 0xc
 2662 0088 15       		.uleb128 0x15
 2663 0089 01       		.byte	0x1
 2664 008a 27       		.uleb128 0x27
 2665 008b 19       		.uleb128 0x19
 2666 008c 49       		.uleb128 0x49
 2667 008d 13       		.uleb128 0x13
 2668 008e 01       		.uleb128 0x1
 2669 008f 13       		.uleb128 0x13
 2670 0090 00       		.byte	0
 2671 0091 00       		.byte	0
 2672 0092 0D       		.uleb128 0xd
 2673 0093 05       		.uleb128 0x5
 2674 0094 00       		.byte	0
 2675 0095 49       		.uleb128 0x49
 2676 0096 13       		.uleb128 0x13
 2677 0097 00       		.byte	0
 2678 0098 00       		.byte	0
 2679 0099 0E       		.uleb128 0xe
 2680 009a 17       		.uleb128 0x17
 2681 009b 01       		.byte	0x1
 2682 009c 0B       		.uleb128 0xb
 2683 009d 0B       		.uleb128 0xb
 2684 009e 3A       		.uleb128 0x3a
 2685 009f 0B       		.uleb128 0xb
 2686 00a0 3B       		.uleb128 0x3b
 2687 00a1 0B       		.uleb128 0xb
 2688 00a2 01       		.uleb128 0x1
 2689 00a3 13       		.uleb128 0x13
 2690 00a4 00       		.byte	0
 2691 00a5 00       		.byte	0
 2692 00a6 0F       		.uleb128 0xf
 2693 00a7 0D       		.uleb128 0xd
 2694 00a8 00       		.byte	0
 2695 00a9 03       		.uleb128 0x3
 2696 00aa 0E       		.uleb128 0xe
 2697 00ab 3A       		.uleb128 0x3a
 2698 00ac 0B       		.uleb128 0xb
ARM GAS  /var/folders/qh/xwg3v3kj02qbxczjpdb8lzfr0000gn/T//ccTU8HMp.s 			page 49


 2699 00ad 3B       		.uleb128 0x3b
 2700 00ae 0B       		.uleb128 0xb
 2701 00af 49       		.uleb128 0x49
 2702 00b0 13       		.uleb128 0x13
 2703 00b1 00       		.byte	0
 2704 00b2 00       		.byte	0
 2705 00b3 10       		.uleb128 0x10
 2706 00b4 26       		.uleb128 0x26
 2707 00b5 00       		.byte	0
 2708 00b6 49       		.uleb128 0x49
 2709 00b7 13       		.uleb128 0x13
 2710 00b8 00       		.byte	0
 2711 00b9 00       		.byte	0
 2712 00ba 11       		.uleb128 0x11
 2713 00bb 15       		.uleb128 0x15
 2714 00bc 01       		.byte	0x1
 2715 00bd 27       		.uleb128 0x27
 2716 00be 19       		.uleb128 0x19
 2717 00bf 01       		.uleb128 0x1
 2718 00c0 13       		.uleb128 0x13
 2719 00c1 00       		.byte	0
 2720 00c2 00       		.byte	0
 2721 00c3 12       		.uleb128 0x12
 2722 00c4 13       		.uleb128 0x13
 2723 00c5 01       		.byte	0x1
 2724 00c6 0B       		.uleb128 0xb
 2725 00c7 0B       		.uleb128 0xb
 2726 00c8 3A       		.uleb128 0x3a
 2727 00c9 0B       		.uleb128 0xb
 2728 00ca 3B       		.uleb128 0x3b
 2729 00cb 05       		.uleb128 0x5
 2730 00cc 01       		.uleb128 0x1
 2731 00cd 13       		.uleb128 0x13
 2732 00ce 00       		.byte	0
 2733 00cf 00       		.byte	0
 2734 00d0 13       		.uleb128 0x13
 2735 00d1 0D       		.uleb128 0xd
 2736 00d2 00       		.byte	0
 2737 00d3 03       		.uleb128 0x3
 2738 00d4 08       		.uleb128 0x8
 2739 00d5 3A       		.uleb128 0x3a
 2740 00d6 0B       		.uleb128 0xb
 2741 00d7 3B       		.uleb128 0x3b
 2742 00d8 05       		.uleb128 0x5
 2743 00d9 49       		.uleb128 0x49
 2744 00da 13       		.uleb128 0x13
 2745 00db 38       		.uleb128 0x38
 2746 00dc 0B       		.uleb128 0xb
 2747 00dd 00       		.byte	0
 2748 00de 00       		.byte	0
 2749 00df 14       		.uleb128 0x14
 2750 00e0 0D       		.uleb128 0xd
 2751 00e1 00       		.byte	0
 2752 00e2 03       		.uleb128 0x3
 2753 00e3 0E       		.uleb128 0xe
 2754 00e4 3A       		.uleb128 0x3a
 2755 00e5 0B       		.uleb128 0xb
ARM GAS  /var/folders/qh/xwg3v3kj02qbxczjpdb8lzfr0000gn/T//ccTU8HMp.s 			page 50


 2756 00e6 3B       		.uleb128 0x3b
 2757 00e7 05       		.uleb128 0x5
 2758 00e8 49       		.uleb128 0x49
 2759 00e9 13       		.uleb128 0x13
 2760 00ea 38       		.uleb128 0x38
 2761 00eb 0B       		.uleb128 0xb
 2762 00ec 00       		.byte	0
 2763 00ed 00       		.byte	0
 2764 00ee 15       		.uleb128 0x15
 2765 00ef 16       		.uleb128 0x16
 2766 00f0 00       		.byte	0
 2767 00f1 03       		.uleb128 0x3
 2768 00f2 0E       		.uleb128 0xe
 2769 00f3 3A       		.uleb128 0x3a
 2770 00f4 0B       		.uleb128 0xb
 2771 00f5 3B       		.uleb128 0x3b
 2772 00f6 05       		.uleb128 0x5
 2773 00f7 49       		.uleb128 0x49
 2774 00f8 13       		.uleb128 0x13
 2775 00f9 00       		.byte	0
 2776 00fa 00       		.byte	0
 2777 00fb 16       		.uleb128 0x16
 2778 00fc 0D       		.uleb128 0xd
 2779 00fd 00       		.byte	0
 2780 00fe 03       		.uleb128 0x3
 2781 00ff 08       		.uleb128 0x8
 2782 0100 3A       		.uleb128 0x3a
 2783 0101 0B       		.uleb128 0xb
 2784 0102 3B       		.uleb128 0x3b
 2785 0103 0B       		.uleb128 0xb
 2786 0104 49       		.uleb128 0x49
 2787 0105 13       		.uleb128 0x13
 2788 0106 00       		.byte	0
 2789 0107 00       		.byte	0
 2790 0108 17       		.uleb128 0x17
 2791 0109 04       		.uleb128 0x4
 2792 010a 01       		.byte	0x1
 2793 010b 0B       		.uleb128 0xb
 2794 010c 0B       		.uleb128 0xb
 2795 010d 3A       		.uleb128 0x3a
 2796 010e 0B       		.uleb128 0xb
 2797 010f 3B       		.uleb128 0x3b
 2798 0110 0B       		.uleb128 0xb
 2799 0111 01       		.uleb128 0x1
 2800 0112 13       		.uleb128 0x13
 2801 0113 00       		.byte	0
 2802 0114 00       		.byte	0
 2803 0115 18       		.uleb128 0x18
 2804 0116 28       		.uleb128 0x28
 2805 0117 00       		.byte	0
 2806 0118 03       		.uleb128 0x3
 2807 0119 0E       		.uleb128 0xe
 2808 011a 1C       		.uleb128 0x1c
 2809 011b 0D       		.uleb128 0xd
 2810 011c 00       		.byte	0
 2811 011d 00       		.byte	0
 2812 011e 19       		.uleb128 0x19
ARM GAS  /var/folders/qh/xwg3v3kj02qbxczjpdb8lzfr0000gn/T//ccTU8HMp.s 			page 51


 2813 011f 01       		.uleb128 0x1
 2814 0120 01       		.byte	0x1
 2815 0121 49       		.uleb128 0x49
 2816 0122 13       		.uleb128 0x13
 2817 0123 01       		.uleb128 0x1
 2818 0124 13       		.uleb128 0x13
 2819 0125 00       		.byte	0
 2820 0126 00       		.byte	0
 2821 0127 1A       		.uleb128 0x1a
 2822 0128 21       		.uleb128 0x21
 2823 0129 00       		.byte	0
 2824 012a 49       		.uleb128 0x49
 2825 012b 13       		.uleb128 0x13
 2826 012c 2F       		.uleb128 0x2f
 2827 012d 0B       		.uleb128 0xb
 2828 012e 00       		.byte	0
 2829 012f 00       		.byte	0
 2830 0130 1B       		.uleb128 0x1b
 2831 0131 2E       		.uleb128 0x2e
 2832 0132 01       		.byte	0x1
 2833 0133 03       		.uleb128 0x3
 2834 0134 0E       		.uleb128 0xe
 2835 0135 3A       		.uleb128 0x3a
 2836 0136 0B       		.uleb128 0xb
 2837 0137 3B       		.uleb128 0x3b
 2838 0138 0B       		.uleb128 0xb
 2839 0139 27       		.uleb128 0x27
 2840 013a 19       		.uleb128 0x19
 2841 013b 49       		.uleb128 0x49
 2842 013c 13       		.uleb128 0x13
 2843 013d 11       		.uleb128 0x11
 2844 013e 01       		.uleb128 0x1
 2845 013f 12       		.uleb128 0x12
 2846 0140 06       		.uleb128 0x6
 2847 0141 40       		.uleb128 0x40
 2848 0142 18       		.uleb128 0x18
 2849 0143 9742     		.uleb128 0x2117
 2850 0145 19       		.uleb128 0x19
 2851 0146 01       		.uleb128 0x1
 2852 0147 13       		.uleb128 0x13
 2853 0148 00       		.byte	0
 2854 0149 00       		.byte	0
 2855 014a 1C       		.uleb128 0x1c
 2856 014b 05       		.uleb128 0x5
 2857 014c 00       		.byte	0
 2858 014d 03       		.uleb128 0x3
 2859 014e 08       		.uleb128 0x8
 2860 014f 3A       		.uleb128 0x3a
 2861 0150 0B       		.uleb128 0xb
 2862 0151 3B       		.uleb128 0x3b
 2863 0152 0B       		.uleb128 0xb
 2864 0153 49       		.uleb128 0x49
 2865 0154 13       		.uleb128 0x13
 2866 0155 02       		.uleb128 0x2
 2867 0156 17       		.uleb128 0x17
 2868 0157 00       		.byte	0
 2869 0158 00       		.byte	0
ARM GAS  /var/folders/qh/xwg3v3kj02qbxczjpdb8lzfr0000gn/T//ccTU8HMp.s 			page 52


 2870 0159 1D       		.uleb128 0x1d
 2871 015a 898201   		.uleb128 0x4109
 2872 015d 01       		.byte	0x1
 2873 015e 11       		.uleb128 0x11
 2874 015f 01       		.uleb128 0x1
 2875 0160 31       		.uleb128 0x31
 2876 0161 13       		.uleb128 0x13
 2877 0162 01       		.uleb128 0x1
 2878 0163 13       		.uleb128 0x13
 2879 0164 00       		.byte	0
 2880 0165 00       		.byte	0
 2881 0166 1E       		.uleb128 0x1e
 2882 0167 8A8201   		.uleb128 0x410a
 2883 016a 00       		.byte	0
 2884 016b 02       		.uleb128 0x2
 2885 016c 18       		.uleb128 0x18
 2886 016d 9142     		.uleb128 0x2111
 2887 016f 18       		.uleb128 0x18
 2888 0170 00       		.byte	0
 2889 0171 00       		.byte	0
 2890 0172 1F       		.uleb128 0x1f
 2891 0173 898201   		.uleb128 0x4109
 2892 0176 01       		.byte	0x1
 2893 0177 11       		.uleb128 0x11
 2894 0178 01       		.uleb128 0x1
 2895 0179 31       		.uleb128 0x31
 2896 017a 13       		.uleb128 0x13
 2897 017b 00       		.byte	0
 2898 017c 00       		.byte	0
 2899 017d 20       		.uleb128 0x20
 2900 017e 2E       		.uleb128 0x2e
 2901 017f 01       		.byte	0x1
 2902 0180 3F       		.uleb128 0x3f
 2903 0181 19       		.uleb128 0x19
 2904 0182 03       		.uleb128 0x3
 2905 0183 0E       		.uleb128 0xe
 2906 0184 3A       		.uleb128 0x3a
 2907 0185 0B       		.uleb128 0xb
 2908 0186 3B       		.uleb128 0x3b
 2909 0187 0B       		.uleb128 0xb
 2910 0188 27       		.uleb128 0x27
 2911 0189 19       		.uleb128 0x19
 2912 018a 49       		.uleb128 0x49
 2913 018b 13       		.uleb128 0x13
 2914 018c 11       		.uleb128 0x11
 2915 018d 01       		.uleb128 0x1
 2916 018e 12       		.uleb128 0x12
 2917 018f 06       		.uleb128 0x6
 2918 0190 40       		.uleb128 0x40
 2919 0191 18       		.uleb128 0x18
 2920 0192 9742     		.uleb128 0x2117
 2921 0194 19       		.uleb128 0x19
 2922 0195 01       		.uleb128 0x1
 2923 0196 13       		.uleb128 0x13
 2924 0197 00       		.byte	0
 2925 0198 00       		.byte	0
 2926 0199 21       		.uleb128 0x21
ARM GAS  /var/folders/qh/xwg3v3kj02qbxczjpdb8lzfr0000gn/T//ccTU8HMp.s 			page 53


 2927 019a 34       		.uleb128 0x34
 2928 019b 00       		.byte	0
 2929 019c 03       		.uleb128 0x3
 2930 019d 08       		.uleb128 0x8
 2931 019e 3A       		.uleb128 0x3a
 2932 019f 0B       		.uleb128 0xb
 2933 01a0 3B       		.uleb128 0x3b
 2934 01a1 0B       		.uleb128 0xb
 2935 01a2 49       		.uleb128 0x49
 2936 01a3 13       		.uleb128 0x13
 2937 01a4 02       		.uleb128 0x2
 2938 01a5 17       		.uleb128 0x17
 2939 01a6 00       		.byte	0
 2940 01a7 00       		.byte	0
 2941 01a8 22       		.uleb128 0x22
 2942 01a9 898201   		.uleb128 0x4109
 2943 01ac 00       		.byte	0
 2944 01ad 11       		.uleb128 0x11
 2945 01ae 01       		.uleb128 0x1
 2946 01af 31       		.uleb128 0x31
 2947 01b0 13       		.uleb128 0x13
 2948 01b1 00       		.byte	0
 2949 01b2 00       		.byte	0
 2950 01b3 23       		.uleb128 0x23
 2951 01b4 34       		.uleb128 0x34
 2952 01b5 00       		.byte	0
 2953 01b6 03       		.uleb128 0x3
 2954 01b7 0E       		.uleb128 0xe
 2955 01b8 3A       		.uleb128 0x3a
 2956 01b9 0B       		.uleb128 0xb
 2957 01ba 3B       		.uleb128 0x3b
 2958 01bb 0B       		.uleb128 0xb
 2959 01bc 49       		.uleb128 0x49
 2960 01bd 13       		.uleb128 0x13
 2961 01be 02       		.uleb128 0x2
 2962 01bf 18       		.uleb128 0x18
 2963 01c0 00       		.byte	0
 2964 01c1 00       		.byte	0
 2965 01c2 24       		.uleb128 0x24
 2966 01c3 34       		.uleb128 0x34
 2967 01c4 00       		.byte	0
 2968 01c5 03       		.uleb128 0x3
 2969 01c6 0E       		.uleb128 0xe
 2970 01c7 3A       		.uleb128 0x3a
 2971 01c8 0B       		.uleb128 0xb
 2972 01c9 3B       		.uleb128 0x3b
 2973 01ca 0B       		.uleb128 0xb
 2974 01cb 49       		.uleb128 0x49
 2975 01cc 13       		.uleb128 0x13
 2976 01cd 3F       		.uleb128 0x3f
 2977 01ce 19       		.uleb128 0x19
 2978 01cf 3C       		.uleb128 0x3c
 2979 01d0 19       		.uleb128 0x19
 2980 01d1 00       		.byte	0
 2981 01d2 00       		.byte	0
 2982 01d3 25       		.uleb128 0x25
 2983 01d4 34       		.uleb128 0x34
ARM GAS  /var/folders/qh/xwg3v3kj02qbxczjpdb8lzfr0000gn/T//ccTU8HMp.s 			page 54


 2984 01d5 00       		.byte	0
 2985 01d6 03       		.uleb128 0x3
 2986 01d7 08       		.uleb128 0x8
 2987 01d8 3A       		.uleb128 0x3a
 2988 01d9 0B       		.uleb128 0xb
 2989 01da 3B       		.uleb128 0x3b
 2990 01db 05       		.uleb128 0x5
 2991 01dc 49       		.uleb128 0x49
 2992 01dd 13       		.uleb128 0x13
 2993 01de 3F       		.uleb128 0x3f
 2994 01df 19       		.uleb128 0x19
 2995 01e0 3C       		.uleb128 0x3c
 2996 01e1 19       		.uleb128 0x19
 2997 01e2 00       		.byte	0
 2998 01e3 00       		.byte	0
 2999 01e4 26       		.uleb128 0x26
 3000 01e5 34       		.uleb128 0x34
 3001 01e6 00       		.byte	0
 3002 01e7 03       		.uleb128 0x3
 3003 01e8 08       		.uleb128 0x8
 3004 01e9 3A       		.uleb128 0x3a
 3005 01ea 0B       		.uleb128 0xb
 3006 01eb 3B       		.uleb128 0x3b
 3007 01ec 0B       		.uleb128 0xb
 3008 01ed 49       		.uleb128 0x49
 3009 01ee 13       		.uleb128 0x13
 3010 01ef 3F       		.uleb128 0x3f
 3011 01f0 19       		.uleb128 0x19
 3012 01f1 02       		.uleb128 0x2
 3013 01f2 18       		.uleb128 0x18
 3014 01f3 00       		.byte	0
 3015 01f4 00       		.byte	0
 3016 01f5 27       		.uleb128 0x27
 3017 01f6 34       		.uleb128 0x34
 3018 01f7 00       		.byte	0
 3019 01f8 03       		.uleb128 0x3
 3020 01f9 0E       		.uleb128 0xe
 3021 01fa 3A       		.uleb128 0x3a
 3022 01fb 0B       		.uleb128 0xb
 3023 01fc 3B       		.uleb128 0x3b
 3024 01fd 0B       		.uleb128 0xb
 3025 01fe 49       		.uleb128 0x49
 3026 01ff 13       		.uleb128 0x13
 3027 0200 3F       		.uleb128 0x3f
 3028 0201 19       		.uleb128 0x19
 3029 0202 02       		.uleb128 0x2
 3030 0203 18       		.uleb128 0x18
 3031 0204 00       		.byte	0
 3032 0205 00       		.byte	0
 3033 0206 28       		.uleb128 0x28
 3034 0207 2E       		.uleb128 0x2e
 3035 0208 01       		.byte	0x1
 3036 0209 3F       		.uleb128 0x3f
 3037 020a 19       		.uleb128 0x19
 3038 020b 03       		.uleb128 0x3
 3039 020c 0E       		.uleb128 0xe
 3040 020d 3A       		.uleb128 0x3a
ARM GAS  /var/folders/qh/xwg3v3kj02qbxczjpdb8lzfr0000gn/T//ccTU8HMp.s 			page 55


 3041 020e 0B       		.uleb128 0xb
 3042 020f 3B       		.uleb128 0x3b
 3043 0210 05       		.uleb128 0x5
 3044 0211 27       		.uleb128 0x27
 3045 0212 19       		.uleb128 0x19
 3046 0213 3C       		.uleb128 0x3c
 3047 0214 19       		.uleb128 0x19
 3048 0215 01       		.uleb128 0x1
 3049 0216 13       		.uleb128 0x13
 3050 0217 00       		.byte	0
 3051 0218 00       		.byte	0
 3052 0219 29       		.uleb128 0x29
 3053 021a 2E       		.uleb128 0x2e
 3054 021b 00       		.byte	0
 3055 021c 3F       		.uleb128 0x3f
 3056 021d 19       		.uleb128 0x19
 3057 021e 03       		.uleb128 0x3
 3058 021f 0E       		.uleb128 0xe
 3059 0220 3A       		.uleb128 0x3a
 3060 0221 0B       		.uleb128 0xb
 3061 0222 3B       		.uleb128 0x3b
 3062 0223 0B       		.uleb128 0xb
 3063 0224 27       		.uleb128 0x27
 3064 0225 19       		.uleb128 0x19
 3065 0226 3C       		.uleb128 0x3c
 3066 0227 19       		.uleb128 0x19
 3067 0228 00       		.byte	0
 3068 0229 00       		.byte	0
 3069 022a 2A       		.uleb128 0x2a
 3070 022b 2E       		.uleb128 0x2e
 3071 022c 01       		.byte	0x1
 3072 022d 3F       		.uleb128 0x3f
 3073 022e 19       		.uleb128 0x19
 3074 022f 03       		.uleb128 0x3
 3075 0230 0E       		.uleb128 0xe
 3076 0231 3A       		.uleb128 0x3a
 3077 0232 0B       		.uleb128 0xb
 3078 0233 3B       		.uleb128 0x3b
 3079 0234 0B       		.uleb128 0xb
 3080 0235 27       		.uleb128 0x27
 3081 0236 19       		.uleb128 0x19
 3082 0237 3C       		.uleb128 0x3c
 3083 0238 19       		.uleb128 0x19
 3084 0239 01       		.uleb128 0x1
 3085 023a 13       		.uleb128 0x13
 3086 023b 00       		.byte	0
 3087 023c 00       		.byte	0
 3088 023d 2B       		.uleb128 0x2b
 3089 023e 2E       		.uleb128 0x2e
 3090 023f 01       		.byte	0x1
 3091 0240 3F       		.uleb128 0x3f
 3092 0241 19       		.uleb128 0x19
 3093 0242 03       		.uleb128 0x3
 3094 0243 0E       		.uleb128 0xe
 3095 0244 3A       		.uleb128 0x3a
 3096 0245 0B       		.uleb128 0xb
 3097 0246 3B       		.uleb128 0x3b
ARM GAS  /var/folders/qh/xwg3v3kj02qbxczjpdb8lzfr0000gn/T//ccTU8HMp.s 			page 56


 3098 0247 0B       		.uleb128 0xb
 3099 0248 27       		.uleb128 0x27
 3100 0249 19       		.uleb128 0x19
 3101 024a 49       		.uleb128 0x49
 3102 024b 13       		.uleb128 0x13
 3103 024c 3C       		.uleb128 0x3c
 3104 024d 19       		.uleb128 0x19
 3105 024e 01       		.uleb128 0x1
 3106 024f 13       		.uleb128 0x13
 3107 0250 00       		.byte	0
 3108 0251 00       		.byte	0
 3109 0252 2C       		.uleb128 0x2c
 3110 0253 2E       		.uleb128 0x2e
 3111 0254 01       		.byte	0x1
 3112 0255 3F       		.uleb128 0x3f
 3113 0256 19       		.uleb128 0x19
 3114 0257 03       		.uleb128 0x3
 3115 0258 0E       		.uleb128 0xe
 3116 0259 3A       		.uleb128 0x3a
 3117 025a 0B       		.uleb128 0xb
 3118 025b 3B       		.uleb128 0x3b
 3119 025c 05       		.uleb128 0x5
 3120 025d 27       		.uleb128 0x27
 3121 025e 19       		.uleb128 0x19
 3122 025f 49       		.uleb128 0x49
 3123 0260 13       		.uleb128 0x13
 3124 0261 3C       		.uleb128 0x3c
 3125 0262 19       		.uleb128 0x19
 3126 0263 01       		.uleb128 0x1
 3127 0264 13       		.uleb128 0x13
 3128 0265 00       		.byte	0
 3129 0266 00       		.byte	0
 3130 0267 00       		.byte	0
 3131              		.section	.debug_loc,"",%progbits
 3132              	.Ldebug_loc0:
 3133              	.LLST0:
 3134 0000 00000000 		.4byte	.LVL0
 3135 0004 12000000 		.4byte	.LVL1
 3136 0008 0100     		.2byte	0x1
 3137 000a 50       		.byte	0x50
 3138 000b 12000000 		.4byte	.LVL1
 3139 000f 30000000 		.4byte	.LFE42
 3140 0013 0400     		.2byte	0x4
 3141 0015 F3       		.byte	0xf3
 3142 0016 01       		.uleb128 0x1
 3143 0017 50       		.byte	0x50
 3144 0018 9F       		.byte	0x9f
 3145 0019 00000000 		.4byte	0
 3146 001d 00000000 		.4byte	0
 3147              	.LLST1:
 3148 0021 00000000 		.4byte	.LVL4
 3149 0025 12000000 		.4byte	.LVL5
 3150 0029 0100     		.2byte	0x1
 3151 002b 50       		.byte	0x50
 3152 002c 12000000 		.4byte	.LVL5
 3153 0030 34000000 		.4byte	.LFE41
 3154 0034 0400     		.2byte	0x4
ARM GAS  /var/folders/qh/xwg3v3kj02qbxczjpdb8lzfr0000gn/T//ccTU8HMp.s 			page 57


 3155 0036 F3       		.byte	0xf3
 3156 0037 01       		.uleb128 0x1
 3157 0038 50       		.byte	0x50
 3158 0039 9F       		.byte	0x9f
 3159 003a 00000000 		.4byte	0
 3160 003e 00000000 		.4byte	0
 3161              	.LLST2:
 3162 0042 00000000 		.4byte	.LVL8
 3163 0046 A4000000 		.4byte	.LVL24
 3164 004a 0200     		.2byte	0x2
 3165 004c 30       		.byte	0x30
 3166 004d 9F       		.byte	0x9f
 3167 004e A4000000 		.4byte	.LVL24
 3168 0052 BC000000 		.4byte	.LVL26
 3169 0056 0100     		.2byte	0x1
 3170 0058 54       		.byte	0x54
 3171 0059 BC000000 		.4byte	.LVL26
 3172 005d CE000000 		.4byte	.LVL29
 3173 0061 0200     		.2byte	0x2
 3174 0063 30       		.byte	0x30
 3175 0064 9F       		.byte	0x9f
 3176 0065 CE000000 		.4byte	.LVL29
 3177 0069 04010000 		.4byte	.LFE43
 3178 006d 0100     		.2byte	0x1
 3179 006f 50       		.byte	0x50
 3180 0070 00000000 		.4byte	0
 3181 0074 00000000 		.4byte	0
 3182              		.section	.debug_aranges,"",%progbits
 3183 0000 2C000000 		.4byte	0x2c
 3184 0004 0200     		.2byte	0x2
 3185 0006 00000000 		.4byte	.Ldebug_info0
 3186 000a 04       		.byte	0x4
 3187 000b 00       		.byte	0
 3188 000c 0000     		.2byte	0
 3189 000e 0000     		.2byte	0
 3190 0010 00000000 		.4byte	.LFB42
 3191 0014 30000000 		.4byte	.LFE42-.LFB42
 3192 0018 00000000 		.4byte	.LFB41
 3193 001c 34000000 		.4byte	.LFE41-.LFB41
 3194 0020 00000000 		.4byte	.LFB43
 3195 0024 04010000 		.4byte	.LFE43-.LFB43
 3196 0028 00000000 		.4byte	0
 3197 002c 00000000 		.4byte	0
 3198              		.section	.debug_ranges,"",%progbits
 3199              	.Ldebug_ranges0:
 3200 0000 00000000 		.4byte	.LFB42
 3201 0004 30000000 		.4byte	.LFE42
 3202 0008 00000000 		.4byte	.LFB41
 3203 000c 34000000 		.4byte	.LFE41
 3204 0010 00000000 		.4byte	.LFB43
 3205 0014 04010000 		.4byte	.LFE43
 3206 0018 00000000 		.4byte	0
 3207 001c 00000000 		.4byte	0
 3208              		.section	.debug_line,"",%progbits
 3209              	.Ldebug_line0:
 3210 0000 3E030000 		.section	.debug_str,"MS",%progbits,1
 3210      0200A802 
ARM GAS  /var/folders/qh/xwg3v3kj02qbxczjpdb8lzfr0000gn/T//ccTU8HMp.s 			page 58


 3210      00000201 
 3210      FB0E0D00 
 3210      01010101 
 3211              	.LASF82:
 3212 0000 7466756E 		.ascii	"tfunc_t\000"
 3212      635F7400 
 3213              	.LASF2:
 3214 0008 73697A65 		.ascii	"size_t\000"
 3214      5F7400
 3215              	.LASF77:
 3216 000f 7264796D 		.ascii	"rdymsg\000"
 3216      736700
 3217              	.LASF13:
 3218 0016 75696E74 		.ascii	"uint64_t\000"
 3218      36345F74 
 3218      00
 3219              	.LASF94:
 3220 001f 4F757470 		.ascii	"OutputQueue\000"
 3220      75745175 
 3220      65756500 
 3221              	.LASF109:
 3222 002b 4F545950 		.ascii	"OTYPER\000"
 3222      455200
 3223              	.LASF117:
 3224 0032 696F706F 		.ascii	"ioportmask_t\000"
 3224      72746D61 
 3224      736B5F74 
 3224      00
 3225              	.LASF70:
 3226 003f 6D656D67 		.ascii	"memgetfunc_t\000"
 3226      65746675 
 3226      6E635F74 
 3226      00
 3227              	.LASF108:
 3228 004c 4D4F4445 		.ascii	"MODER\000"
 3228      5200
 3229              	.LASF14:
 3230 0052 6C6F6E67 		.ascii	"long long unsigned int\000"
 3230      206C6F6E 
 3230      6720756E 
 3230      7369676E 
 3230      65642069 
 3231              	.LASF148:
 3232 0069 73684366 		.ascii	"shCfg\000"
 3232      6700
 3233              	.LASF111:
 3234 006f 50555044 		.ascii	"PUPDR\000"
 3234      5200
 3235              	.LASF78:
 3236 0075 65786974 		.ascii	"exitcode\000"
 3236      636F6465 
 3236      00
 3237              	.LASF28:
 3238 007e 705F7072 		.ascii	"p_prio\000"
 3238      696F00
 3239              	.LASF137:
 3240 0085 72656164 		.ascii	"readt\000"
ARM GAS  /var/folders/qh/xwg3v3kj02qbxczjpdb8lzfr0000gn/T//ccTU8HMp.s 			page 59


 3240      7400
 3241              	.LASF84:
 3242 008b 715F7761 		.ascii	"q_waiting\000"
 3242      6974696E 
 3242      6700
 3243              	.LASF12:
 3244 0095 6C6F6E67 		.ascii	"long long int\000"
 3244      206C6F6E 
 3244      6720696E 
 3244      7400
 3245              	.LASF1:
 3246 00a3 7369676E 		.ascii	"signed char\000"
 3246      65642063 
 3246      68617200 
 3247              	.LASF112:
 3248 00af 42535252 		.ascii	"BSRR\000"
 3248      00
 3249              	.LASF158:
 3250 00b4 63685379 		.ascii	"chSysInit\000"
 3250      73496E69 
 3250      7400
 3251              	.LASF100:
 3252 00be 47545052 		.ascii	"GTPR\000"
 3252      00
 3253              	.LASF44:
 3254 00c3 705F6D70 		.ascii	"p_mpool\000"
 3254      6F6F6C00 
 3255              	.LASF60:
 3256 00cb 6D5F7175 		.ascii	"m_queue\000"
 3256      65756500 
 3257              	.LASF142:
 3258 00d3 73635F63 		.ascii	"sc_channel\000"
 3258      68616E6E 
 3258      656C00
 3259              	.LASF166:
 3260 00de 63685468 		.ascii	"chThdCreateStatic\000"
 3260      64437265 
 3260      61746553 
 3260      74617469 
 3260      6300
 3261              	.LASF159:
 3262 00f0 68617264 		.ascii	"hardwareInitialise\000"
 3262      77617265 
 3262      496E6974 
 3262      69616C69 
 3262      736500
 3263              	.LASF126:
 3264 0103 73746174 		.ascii	"state\000"
 3264      6500
 3265              	.LASF9:
 3266 0109 6C6F6E67 		.ascii	"long int\000"
 3266      20696E74 
 3266      00
 3267              	.LASF141:
 3268 0112 5368656C 		.ascii	"ShellCommand\000"
 3268      6C436F6D 
 3268      6D616E64 
ARM GAS  /var/folders/qh/xwg3v3kj02qbxczjpdb8lzfr0000gn/T//ccTU8HMp.s 			page 60


 3268      00
 3269              	.LASF17:
 3270 011f 74737461 		.ascii	"tstate_t\000"
 3270      74655F74 
 3270      00
 3271              	.LASF35:
 3272 0128 705F7265 		.ascii	"p_refs\000"
 3272      667300
 3273              	.LASF73:
 3274 012f 6D705F6E 		.ascii	"mp_next\000"
 3274      65787400 
 3275              	.LASF86:
 3276 0137 715F6275 		.ascii	"q_buffer\000"
 3276      66666572 
 3276      00
 3277              	.LASF88:
 3278 0140 715F7772 		.ascii	"q_wrptr\000"
 3278      70747200 
 3279              	.LASF91:
 3280 0148 715F6C69 		.ascii	"q_link\000"
 3280      6E6B00
 3281              	.LASF30:
 3282 014f 705F6E65 		.ascii	"p_newer\000"
 3282      77657200 
 3283              	.LASF165:
 3284 0157 63685468 		.ascii	"chThdCreateFromMemoryPool\000"
 3284      64437265 
 3284      61746546 
 3284      726F6D4D 
 3284      656D6F72 
 3285              	.LASF110:
 3286 0171 4F535045 		.ascii	"OSPEEDR\000"
 3286      45445200 
 3287              	.LASF55:
 3288 0179 725F6E65 		.ascii	"r_newer\000"
 3288      77657200 
 3289              	.LASF75:
 3290 0181 6D705F70 		.ascii	"mp_provider\000"
 3290      726F7669 
 3290      64657200 
 3291              	.LASF47:
 3292 018d 72656761 		.ascii	"regarm_t\000"
 3292      726D5F74 
 3292      00
 3293              	.LASF139:
 3294 0196 73635F6E 		.ascii	"sc_name\000"
 3294      616D6500 
 3295              	.LASF68:
 3296 019e 4576656E 		.ascii	"EventSource\000"
 3296      74536F75 
 3296      72636500 
 3297              	.LASF98:
 3298 01aa 42617365 		.ascii	"BaseSequentialStream\000"
 3298      53657175 
 3298      656E7469 
 3298      616C5374 
 3298      7265616D 
ARM GAS  /var/folders/qh/xwg3v3kj02qbxczjpdb8lzfr0000gn/T//ccTU8HMp.s 			page 61


 3299              	.LASF152:
 3300 01bf 74687265 		.ascii	"threadCount\000"
 3300      6164436F 
 3300      756E7400 
 3301              	.LASF129:
 3302 01cb 75736172 		.ascii	"usart\000"
 3302      7400
 3303              	.LASF0:
 3304 01d1 756E7369 		.ascii	"unsigned int\000"
 3304      676E6564 
 3304      20696E74 
 3304      00
 3305              	.LASF6:
 3306 01de 75696E74 		.ascii	"uint16_t\000"
 3306      31365F74 
 3306      00
 3307              	.LASF133:
 3308 01e7 53657269 		.ascii	"SerialDriverVMT\000"
 3308      616C4472 
 3308      69766572 
 3308      564D5400 
 3309              	.LASF37:
 3310 01f7 705F7469 		.ascii	"p_time\000"
 3310      6D6500
 3311              	.LASF143:
 3312 01fe 73635F63 		.ascii	"sc_commands\000"
 3312      6F6D6D61 
 3312      6E647300 
 3313              	.LASF127:
 3314 020a 69717565 		.ascii	"iqueue\000"
 3314      756500
 3315              	.LASF39:
 3316 0211 705F6D73 		.ascii	"p_msgqueue\000"
 3316      67717565 
 3316      756500
 3317              	.LASF116:
 3318 021c 4750494F 		.ascii	"GPIO_TypeDef\000"
 3318      5F547970 
 3318      65446566 
 3318      00
 3319              	.LASF157:
 3320 0229 68616C49 		.ascii	"halInit\000"
 3320      6E697400 
 3321              	.LASF135:
 3322 0231 67657474 		.ascii	"gett\000"
 3322      00
 3323              	.LASF154:
 3324 0236 74687265 		.ascii	"thread_area0\000"
 3324      61645F61 
 3324      72656130 
 3324      00
 3325              	.LASF155:
 3326 0243 74687265 		.ascii	"thread_area1\000"
 3326      61645F61 
 3326      72656131 
 3326      00
 3327              	.LASF156:
ARM GAS  /var/folders/qh/xwg3v3kj02qbxczjpdb8lzfr0000gn/T//ccTU8HMp.s 			page 62


 3328 0250 74687265 		.ascii	"thread_area2\000"
 3328      61645F61 
 3328      72656132 
 3328      00
 3329              	.LASF172:
 3330 025d 2F557365 		.ascii	"/Users/John/Development/embedded/ChibiOS-RT/BluC/ST"
 3330      72732F4A 
 3330      6F686E2F 
 3330      44657665 
 3330      6C6F706D 
 3331 0290 4D333246 		.ascii	"M32F051\000"
 3331      30353100 
 3332              	.LASF169:
 3333 0298 7368656C 		.ascii	"shellCreate\000"
 3333      6C437265 
 3333      61746500 
 3334              	.LASF125:
 3335 02a4 6576656E 		.ascii	"event\000"
 3335      7400
 3336              	.LASF7:
 3337 02aa 73686F72 		.ascii	"short unsigned int\000"
 3337      7420756E 
 3337      7369676E 
 3337      65642069 
 3337      6E7400
 3338              	.LASF21:
 3339 02bd 6D73675F 		.ascii	"msg_t\000"
 3339      7400
 3340              	.LASF128:
 3341 02c3 6F717565 		.ascii	"oqueue\000"
 3341      756500
 3342              	.LASF106:
 3343 02ca 55534152 		.ascii	"USART_TypeDef\000"
 3343      545F5479 
 3343      70654465 
 3343      6600
 3344              	.LASF136:
 3345 02d8 77726974 		.ascii	"writet\000"
 3345      657400
 3346              	.LASF16:
 3347 02df 746D6F64 		.ascii	"tmode_t\000"
 3347      655F7400 
 3348              	.LASF46:
 3349 02e7 54687265 		.ascii	"ThreadsList\000"
 3349      6164734C 
 3349      69737400 
 3350              	.LASF22:
 3351 02f3 6576656E 		.ascii	"eventmask_t\000"
 3351      746D6173 
 3351      6B5F7400 
 3352              	.LASF93:
 3353 02ff 496E7075 		.ascii	"InputQueue\000"
 3353      74517565 
 3353      756500
 3354              	.LASF131:
 3355 030a 73706565 		.ascii	"speed\000"
 3355      6400
ARM GAS  /var/folders/qh/xwg3v3kj02qbxczjpdb8lzfr0000gn/T//ccTU8HMp.s 			page 63


 3356              	.LASF92:
 3357 0310 716E6F74 		.ascii	"qnotify_t\000"
 3357      6966795F 
 3357      7400
 3358              	.LASF83:
 3359 031a 47656E65 		.ascii	"GenericQueue\000"
 3359      72696351 
 3359      75657565 
 3359      00
 3360              	.LASF48:
 3361 0327 73746B61 		.ascii	"stkalign_t\000"
 3361      6C69676E 
 3361      5F7400
 3362              	.LASF146:
 3363 0332 54687265 		.ascii	"Thread1\000"
 3363      61643100 
 3364              	.LASF145:
 3365 033a 54687265 		.ascii	"Thread2\000"
 3365      61643200 
 3366              	.LASF96:
 3367 0342 77726974 		.ascii	"write\000"
 3367      6500
 3368              	.LASF134:
 3369 0348 70757474 		.ascii	"putt\000"
 3369      00
 3370              	.LASF51:
 3371 034d 73697A65 		.ascii	"sizetype\000"
 3371      74797065 
 3371      00
 3372              	.LASF107:
 3373 0356 636C6561 		.ascii	"clear\000"
 3373      7200
 3374              	.LASF59:
 3375 035c 4D757465 		.ascii	"Mutex\000"
 3375      7800
 3376              	.LASF170:
 3377 0362 474E5520 		.ascii	"GNU C 4.8.3 20131129 (release) [ARM/embedded-4_8-br"
 3377      4320342E 
 3377      382E3320 
 3377      32303133 
 3377      31313239 
 3378 0395 616E6368 		.ascii	"anch revision 205641] -mcpu=cortex-m0 -mno-thumb-in"
 3378      20726576 
 3378      6973696F 
 3378      6E203230 
 3378      35363431 
 3379 03c8 74657277 		.ascii	"terwork -mthumb -ggdb -O2 -fomit-frame-pointer -fal"
 3379      6F726B20 
 3379      2D6D7468 
 3379      756D6220 
 3379      2D676764 
 3380 03fb 69676E2D 		.ascii	"ign-functions=16 -ffunction-sections -fdata-section"
 3380      66756E63 
 3380      74696F6E 
 3380      733D3136 
 3380      202D6666 
 3381 042e 73202D66 		.ascii	"s -fno-common\000"
ARM GAS  /var/folders/qh/xwg3v3kj02qbxczjpdb8lzfr0000gn/T//ccTU8HMp.s 			page 64


 3381      6E6F2D63 
 3381      6F6D6D6F 
 3381      6E00
 3382              	.LASF138:
 3383 043c 7368656C 		.ascii	"shellcmd_t\000"
 3383      6C636D64 
 3383      5F7400
 3384              	.LASF41:
 3385 0447 705F6570 		.ascii	"p_epending\000"
 3385      656E6469 
 3385      6E6700
 3386              	.LASF31:
 3387 0452 705F6F6C 		.ascii	"p_older\000"
 3387      64657200 
 3388              	.LASF54:
 3389 045a 725F6374 		.ascii	"r_ctx\000"
 3389      7800
 3390              	.LASF45:
 3391 0460 54687265 		.ascii	"ThreadsQueue\000"
 3391      61647351 
 3391      75657565 
 3391      00
 3392              	.LASF74:
 3393 046d 6D705F6F 		.ascii	"mp_object_size\000"
 3393      626A6563 
 3393      745F7369 
 3393      7A6500
 3394              	.LASF171:
 3395 047c 6D61696E 		.ascii	"main.c\000"
 3395      2E6300
 3396              	.LASF56:
 3397 0483 725F6F6C 		.ascii	"r_older\000"
 3397      64657200 
 3398              	.LASF66:
 3399 048b 656C5F6D 		.ascii	"el_mask\000"
 3399      61736B00 
 3400              	.LASF160:
 3401 0493 63685468 		.ascii	"chThdSleep\000"
 3401      64536C65 
 3401      657000
 3402              	.LASF132:
 3403 049e 53657269 		.ascii	"SerialConfig\000"
 3403      616C436F 
 3403      6E666967 
 3403      00
 3404              	.LASF115:
 3405 04ab 41465248 		.ascii	"AFRH\000"
 3405      00
 3406              	.LASF72:
 3407 04b0 70685F6E 		.ascii	"ph_next\000"
 3407      65787400 
 3408              	.LASF114:
 3409 04b8 4146524C 		.ascii	"AFRL\000"
 3409      00
 3410              	.LASF149:
 3411 04bd 77615468 		.ascii	"waThread1\000"
 3411      72656164 
ARM GAS  /var/folders/qh/xwg3v3kj02qbxczjpdb8lzfr0000gn/T//ccTU8HMp.s 			page 65


 3411      3100
 3412              	.LASF150:
 3413 04c7 77615468 		.ascii	"waThread2\000"
 3413      72656164 
 3413      3200
 3414              	.LASF18:
 3415 04d1 74726566 		.ascii	"trefs_t\000"
 3415      735F7400 
 3416              	.LASF99:
 3417 04d9 52455345 		.ascii	"RESERVED1\000"
 3417      52564544 
 3417      3100
 3418              	.LASF101:
 3419 04e3 52455345 		.ascii	"RESERVED2\000"
 3419      52564544 
 3419      3200
 3420              	.LASF103:
 3421 04ed 52455345 		.ascii	"RESERVED3\000"
 3421      52564544 
 3421      3300
 3422              	.LASF104:
 3423 04f7 52455345 		.ascii	"RESERVED4\000"
 3423      52564544 
 3423      3400
 3424              	.LASF27:
 3425 0501 705F7072 		.ascii	"p_prev\000"
 3425      657600
 3426              	.LASF20:
 3427 0508 74707269 		.ascii	"tprio_t\000"
 3427      6F5F7400 
 3428              	.LASF89:
 3429 0510 715F7264 		.ascii	"q_rdptr\000"
 3429      70747200 
 3430              	.LASF15:
 3431 0518 5F426F6F 		.ascii	"_Bool\000"
 3431      6C00
 3432              	.LASF8:
 3433 051e 696E7433 		.ascii	"int32_t\000"
 3433      325F7400 
 3434              	.LASF4:
 3435 0526 756E7369 		.ascii	"unsigned char\000"
 3435      676E6564 
 3435      20636861 
 3435      7200
 3436              	.LASF65:
 3437 0534 656C5F6C 		.ascii	"el_listener\000"
 3437      69737465 
 3437      6E657200 
 3438              	.LASF67:
 3439 0540 656C5F66 		.ascii	"el_flags\000"
 3439      6C616773 
 3439      00
 3440              	.LASF147:
 3441 0549 7368436D 		.ascii	"shCmds\000"
 3441      647300
 3442              	.LASF42:
 3443 0550 705F6D74 		.ascii	"p_mtxlist\000"
ARM GAS  /var/folders/qh/xwg3v3kj02qbxczjpdb8lzfr0000gn/T//ccTU8HMp.s 			page 66


 3443      786C6973 
 3443      7400
 3444              	.LASF5:
 3445 055a 73686F72 		.ascii	"short int\000"
 3445      7420696E 
 3445      7400
 3446              	.LASF33:
 3447 0564 705F7374 		.ascii	"p_state\000"
 3447      61746500 
 3448              	.LASF36:
 3449 056c 705F7072 		.ascii	"p_preempt\000"
 3449      65656D70 
 3449      7400
 3450              	.LASF53:
 3451 0576 725F7072 		.ascii	"r_prio\000"
 3451      696F00
 3452              	.LASF80:
 3453 057d 65776D61 		.ascii	"ewmask\000"
 3453      736B00
 3454              	.LASF26:
 3455 0584 705F6E65 		.ascii	"p_next\000"
 3455      787400
 3456              	.LASF95:
 3457 058b 42617365 		.ascii	"BaseSequentialStreamVMT\000"
 3457      53657175 
 3457      656E7469 
 3457      616C5374 
 3457      7265616D 
 3458              	.LASF34:
 3459 05a3 705F666C 		.ascii	"p_flags\000"
 3459      61677300 
 3460              	.LASF64:
 3461 05ab 656C5F6E 		.ascii	"el_next\000"
 3461      65787400 
 3462              	.LASF32:
 3463 05b3 705F6E61 		.ascii	"p_name\000"
 3463      6D6500
 3464              	.LASF121:
 3465 05ba 53445F53 		.ascii	"SD_STOP\000"
 3465      544F5000 
 3466              	.LASF168:
 3467 05c2 63685468 		.ascii	"chThdRelease\000"
 3467      6452656C 
 3467      65617365 
 3467      00
 3468              	.LASF25:
 3469 05cf 54687265 		.ascii	"Thread\000"
 3469      616400
 3470              	.LASF113:
 3471 05d6 4C434B52 		.ascii	"LCKR\000"
 3471      00
 3472              	.LASF23:
 3473 05db 666C6167 		.ascii	"flagsmask_t\000"
 3473      736D6173 
 3473      6B5F7400 
 3474              	.LASF76:
 3475 05e7 4D656D6F 		.ascii	"MemoryPool\000"
ARM GAS  /var/folders/qh/xwg3v3kj02qbxczjpdb8lzfr0000gn/T//ccTU8HMp.s 			page 67


 3475      7279506F 
 3475      6F6C00
 3476              	.LASF120:
 3477 05f2 53445F55 		.ascii	"SD_UNINIT\000"
 3477      4E494E49 
 3477      5400
 3478              	.LASF105:
 3479 05fc 52455345 		.ascii	"RESERVED5\000"
 3479      52564544 
 3479      3500
 3480              	.LASF85:
 3481 0606 715F636F 		.ascii	"q_counter\000"
 3481      756E7465 
 3481      7200
 3482              	.LASF52:
 3483 0610 725F7175 		.ascii	"r_queue\000"
 3483      65756500 
 3484              	.LASF123:
 3485 0618 73647374 		.ascii	"sdstate_t\000"
 3485      6174655F 
 3485      7400
 3486              	.LASF124:
 3487 0622 53657269 		.ascii	"SerialDriver\000"
 3487      616C4472 
 3487      69766572 
 3487      00
 3488              	.LASF19:
 3489 062f 74736C69 		.ascii	"tslices_t\000"
 3489      6365735F 
 3489      7400
 3490              	.LASF11:
 3491 0639 6C6F6E67 		.ascii	"long unsigned int\000"
 3491      20756E73 
 3491      69676E65 
 3491      6420696E 
 3491      7400
 3492              	.LASF57:
 3493 064b 725F6375 		.ascii	"r_current\000"
 3493      7272656E 
 3493      7400
 3494              	.LASF97:
 3495 0655 72656164 		.ascii	"read\000"
 3495      00
 3496              	.LASF81:
 3497 065a 63686172 		.ascii	"char\000"
 3497      00
 3498              	.LASF163:
 3499 065f 73645374 		.ascii	"sdStart\000"
 3499      61727400 
 3500              	.LASF167:
 3501 0667 7368656C 		.ascii	"shellInit\000"
 3501      6C496E69 
 3501      7400
 3502              	.LASF62:
 3503 0671 6D5F6E65 		.ascii	"m_next\000"
 3503      787400
 3504              	.LASF24:
ARM GAS  /var/folders/qh/xwg3v3kj02qbxczjpdb8lzfr0000gn/T//ccTU8HMp.s 			page 68


 3505 0678 73797374 		.ascii	"systime_t\000"
 3505      696D655F 
 3505      7400
 3506              	.LASF43:
 3507 0682 705F7265 		.ascii	"p_realprio\000"
 3507      616C7072 
 3507      696F00
 3508              	.LASF144:
 3509 068d 5368656C 		.ascii	"ShellConfig\000"
 3509      6C436F6E 
 3509      66696700 
 3510              	.LASF102:
 3511 0699 52544F52 		.ascii	"RTOR\000"
 3511      00
 3512              	.LASF119:
 3513 069e 696F706F 		.ascii	"ioportid_t\000"
 3513      72746964 
 3513      5F7400
 3514              	.LASF50:
 3515 06a9 636F6E74 		.ascii	"context\000"
 3515      65787400 
 3516              	.LASF164:
 3517 06b1 5F70616C 		.ascii	"_pal_lld_setgroupmode\000"
 3517      5F6C6C64 
 3517      5F736574 
 3517      67726F75 
 3517      706D6F64 
 3518              	.LASF40:
 3519 06c7 705F6D73 		.ascii	"p_msg\000"
 3519      6700
 3520              	.LASF49:
 3521 06cd 696E7463 		.ascii	"intctx\000"
 3521      747800
 3522              	.LASF122:
 3523 06d4 53445F52 		.ascii	"SD_READY\000"
 3523      45414459 
 3523      00
 3524              	.LASF161:
 3525 06dd 6368506F 		.ascii	"chPoolInit\000"
 3525      6F6C496E 
 3525      697400
 3526              	.LASF10:
 3527 06e8 75696E74 		.ascii	"uint32_t\000"
 3527      33325F74 
 3527      00
 3528              	.LASF87:
 3529 06f1 715F746F 		.ascii	"q_top\000"
 3529      7000
 3530              	.LASF71:
 3531 06f7 706F6F6C 		.ascii	"pool_header\000"
 3531      5F686561 
 3531      64657200 
 3532              	.LASF69:
 3533 0703 65735F6E 		.ascii	"es_next\000"
 3533      65787400 
 3534              	.LASF58:
 3535 070b 52656164 		.ascii	"ReadyList\000"
ARM GAS  /var/folders/qh/xwg3v3kj02qbxczjpdb8lzfr0000gn/T//ccTU8HMp.s 			page 69


 3535      794C6973 
 3535      7400
 3536              	.LASF90:
 3537 0715 715F6E6F 		.ascii	"q_notify\000"
 3537      74696679 
 3537      00
 3538              	.LASF151:
 3539 071e 726C6973 		.ascii	"rlist\000"
 3539      7400
 3540              	.LASF153:
 3541 0724 74687265 		.ascii	"threadArray\000"
 3541      61644172 
 3541      72617900 
 3542              	.LASF3:
 3543 0730 75696E74 		.ascii	"uint8_t\000"
 3543      385F7400 
 3544              	.LASF162:
 3545 0738 6368506F 		.ascii	"chPoolFree\000"
 3545      6F6C4672 
 3545      656500
 3546              	.LASF140:
 3547 0743 73635F66 		.ascii	"sc_function\000"
 3547      756E6374 
 3547      696F6E00 
 3548              	.LASF63:
 3549 074f 4576656E 		.ascii	"EventListener\000"
 3549      744C6973 
 3549      74656E65 
 3549      7200
 3550              	.LASF79:
 3551 075d 77746F62 		.ascii	"wtobjp\000"
 3551      6A7000
 3552              	.LASF130:
 3553 0764 636C6F63 		.ascii	"clock\000"
 3553      6B00
 3554              	.LASF173:
 3555 076a 6D61696E 		.ascii	"main\000"
 3555      00
 3556              	.LASF118:
 3557 076f 696F6D6F 		.ascii	"iomode_t\000"
 3557      64655F74 
 3557      00
 3558              	.LASF61:
 3559 0778 6D5F6F77 		.ascii	"m_owner\000"
 3559      6E657200 
 3560              	.LASF29:
 3561 0780 705F6374 		.ascii	"p_ctx\000"
 3561      7800
 3562              	.LASF38:
 3563 0786 705F7761 		.ascii	"p_waiting\000"
 3563      6974696E 
 3563      6700
 3564              		.ident	"GCC: (GNU Tools for ARM Embedded Processors) 4.8.3 20131129 (release) [ARM/embedded-4_8-br
ARM GAS  /var/folders/qh/xwg3v3kj02qbxczjpdb8lzfr0000gn/T//ccTU8HMp.s 			page 70


DEFINED SYMBOLS
                            *ABS*:0000000000000000 main.c
/var/folders/qh/xwg3v3kj02qbxczjpdb8lzfr0000gn/T//ccTU8HMp.s:18     .text.Thread2:0000000000000000 $t
/var/folders/qh/xwg3v3kj02qbxczjpdb8lzfr0000gn/T//ccTU8HMp.s:23     .text.Thread2:0000000000000000 Thread2
/var/folders/qh/xwg3v3kj02qbxczjpdb8lzfr0000gn/T//ccTU8HMp.s:67     .text.Thread2:0000000000000024 $d
/var/folders/qh/xwg3v3kj02qbxczjpdb8lzfr0000gn/T//ccTU8HMp.s:74     .text.Thread1:0000000000000000 $t
/var/folders/qh/xwg3v3kj02qbxczjpdb8lzfr0000gn/T//ccTU8HMp.s:79     .text.Thread1:0000000000000000 Thread1
/var/folders/qh/xwg3v3kj02qbxczjpdb8lzfr0000gn/T//ccTU8HMp.s:126    .text.Thread1:0000000000000028 $d
/var/folders/qh/xwg3v3kj02qbxczjpdb8lzfr0000gn/T//ccTU8HMp.s:133    .text.startup.main:0000000000000000 $t
/var/folders/qh/xwg3v3kj02qbxczjpdb8lzfr0000gn/T//ccTU8HMp.s:139    .text.startup.main:0000000000000000 main
/var/folders/qh/xwg3v3kj02qbxczjpdb8lzfr0000gn/T//ccTU8HMp.s:288    .text.startup.main:00000000000000d0 $d
/var/folders/qh/xwg3v3kj02qbxczjpdb8lzfr0000gn/T//ccTU8HMp.s:409    .bss.sh:0000000000000000 sh
/var/folders/qh/xwg3v3kj02qbxczjpdb8lzfr0000gn/T//ccTU8HMp.s:397    .bss.thread_area2:0000000000000000 thread_area2
/var/folders/qh/xwg3v3kj02qbxczjpdb8lzfr0000gn/T//ccTU8HMp.s:359    .bss.thread_area1:0000000000000000 thread_area1
/var/folders/qh/xwg3v3kj02qbxczjpdb8lzfr0000gn/T//ccTU8HMp.s:352    .bss.thread_area0:0000000000000000 thread_area0
/var/folders/qh/xwg3v3kj02qbxczjpdb8lzfr0000gn/T//ccTU8HMp.s:403    .bss.threadArray:0000000000000000 threadArray
/var/folders/qh/xwg3v3kj02qbxczjpdb8lzfr0000gn/T//ccTU8HMp.s:337    .bss.threadCount:0000000000000000 threadCount
/var/folders/qh/xwg3v3kj02qbxczjpdb8lzfr0000gn/T//ccTU8HMp.s:330    .bss.mp:0000000000000000 mp
/var/folders/qh/xwg3v3kj02qbxczjpdb8lzfr0000gn/T//ccTU8HMp.s:312    .bss.waThread1:0000000000000000 $d
/var/folders/qh/xwg3v3kj02qbxczjpdb8lzfr0000gn/T//ccTU8HMp.s:316    .bss.waThread1:0000000000000000 waThread1
/var/folders/qh/xwg3v3kj02qbxczjpdb8lzfr0000gn/T//ccTU8HMp.s:319    .bss.waThread2:0000000000000000 $d
/var/folders/qh/xwg3v3kj02qbxczjpdb8lzfr0000gn/T//ccTU8HMp.s:323    .bss.waThread2:0000000000000000 waThread2
/var/folders/qh/xwg3v3kj02qbxczjpdb8lzfr0000gn/T//ccTU8HMp.s:326    .bss.mp:0000000000000000 $d
/var/folders/qh/xwg3v3kj02qbxczjpdb8lzfr0000gn/T//ccTU8HMp.s:333    .bss.threadCount:0000000000000000 $d
/var/folders/qh/xwg3v3kj02qbxczjpdb8lzfr0000gn/T//ccTU8HMp.s:340    .rodata.shCfg:0000000000000000 $d
/var/folders/qh/xwg3v3kj02qbxczjpdb8lzfr0000gn/T//ccTU8HMp.s:344    .rodata.shCfg:0000000000000000 shCfg
/var/folders/qh/xwg3v3kj02qbxczjpdb8lzfr0000gn/T//ccTU8HMp.s:415    .rodata.shCmds:0000000000000000 shCmds
/var/folders/qh/xwg3v3kj02qbxczjpdb8lzfr0000gn/T//ccTU8HMp.s:348    .bss.thread_area0:0000000000000000 $d
/var/folders/qh/xwg3v3kj02qbxczjpdb8lzfr0000gn/T//ccTU8HMp.s:355    .bss.thread_area1:0000000000000000 $d
/var/folders/qh/xwg3v3kj02qbxczjpdb8lzfr0000gn/T//ccTU8HMp.s:362    .rodata.str1.4:0000000000000000 $d
/var/folders/qh/xwg3v3kj02qbxczjpdb8lzfr0000gn/T//ccTU8HMp.s:393    .bss.thread_area2:0000000000000000 $d
/var/folders/qh/xwg3v3kj02qbxczjpdb8lzfr0000gn/T//ccTU8HMp.s:400    .bss.threadArray:0000000000000000 $d
/var/folders/qh/xwg3v3kj02qbxczjpdb8lzfr0000gn/T//ccTU8HMp.s:406    .bss.sh:0000000000000000 $d
/var/folders/qh/xwg3v3kj02qbxczjpdb8lzfr0000gn/T//ccTU8HMp.s:412    .rodata.shCmds:0000000000000000 $d
                     .debug_frame:0000000000000010 $d
/var/folders/qh/xwg3v3kj02qbxczjpdb8lzfr0000gn/T//ccTU8HMp.s:132    .text.Thread1:0000000000000034 $t
/var/folders/qh/xwg3v3kj02qbxczjpdb8lzfr0000gn/T//ccTU8HMp.s:311    .text.startup.main:0000000000000104 $t

UNDEFINED SYMBOLS
chThdSleep
rlist
halInit
chSysInit
hardwareInitialise
chPoolInit
chPoolFree
sdStart
_pal_lld_setgroupmode
chThdCreateFromMemoryPool
chThdCreateStatic
shellInit
chThdRelease
shellCreate
SD1
outputResponse
cmdGetTemp
cmdGetVoltage
ARM GAS  /var/folders/qh/xwg3v3kj02qbxczjpdb8lzfr0000gn/T//ccTU8HMp.s 			page 71


cmdGetBattery
cmdBluetooth
cmdPwm
cmdSpi
cmdI2c
cmdDate
cmdAdc
cmdDac
