ARM GAS  /var/folders/qh/xwg3v3kj02qbxczjpdb8lzfr0000gn/T//ccbil6mW.s 			page 1


   1              		.cpu cortex-m0
   2              		.fpu softvfp
   3              		.eabi_attribute 20, 1
   4              		.eabi_attribute 21, 1
   5              		.eabi_attribute 23, 3
   6              		.eabi_attribute 24, 1
   7              		.eabi_attribute 25, 1
   8              		.eabi_attribute 26, 1
   9              		.eabi_attribute 30, 2
  10              		.eabi_attribute 34, 0
  11              		.eabi_attribute 18, 4
  12              		.code	16
  13              		.file	"main.c"
  14              		.text
  15              	.Ltext0:
  16              		.cfi_sections	.debug_frame
  17              		.section	.text.Thread2,"ax",%progbits
  18              		.align	2
  19              		.p2align 4,,15
  20              		.code	16
  21              		.thumb_func
  22              		.type	Thread2, %function
  23              	Thread2:
  24              	.LFB42:
  25              		.file 1 "main.c"
  26              		.loc 1 62 0
  27              		.cfi_startproc
  28              	.LVL0:
  29              		.loc 1 65 0
  30 0000 084B     		ldr	r3, .L4
  31              		.loc 1 62 0
  32 0002 70B5     		push	{r4, r5, r6, lr}
  33              		.cfi_def_cfa_offset 16
  34              		.cfi_offset 4, -16
  35              		.cfi_offset 5, -12
  36              		.cfi_offset 6, -8
  37              		.cfi_offset 14, -4
  38              		.loc 1 65 0
  39 0004 9B69     		ldr	r3, [r3, #24]
  40 0006 084A     		ldr	r2, .L4+4
  41              		.loc 1 67 0
  42 0008 8025     		mov	r5, #128
  43 000a AD00     		lsl	r5, r5, #2
  44 000c 074C     		ldr	r4, .L4+8
  45              		.loc 1 65 0
  46 000e 9A61     		str	r2, [r3, #24]
  47              		.loc 1 67 0
  48 0010 2E1C     		add	r6, r5, #0
  49              	.LVL1:
  50              	.L2:
  51              		.loc 1 67 0 is_stmt 0 discriminator 1
  52 0012 6683     		strh	r6, [r4, #26]
  53              		.loc 1 68 0 is_stmt 1 discriminator 1
  54 0014 FA20     		mov	r0, #250
  55 0016 FFF7FEFF 		bl	chThdSleep
  56              	.LVL2:
  57              		.loc 1 69 0 discriminator 1
ARM GAS  /var/folders/qh/xwg3v3kj02qbxczjpdb8lzfr0000gn/T//ccbil6mW.s 			page 2


  58 001a 2583     		strh	r5, [r4, #24]
  59              		.loc 1 70 0 discriminator 1
  60 001c FA20     		mov	r0, #250
  61 001e FFF7FEFF 		bl	chThdSleep
  62              	.LVL3:
  63 0022 F6E7     		b	.L2
  64              	.L5:
  65              		.align	2
  66              	.L4:
  67 0024 00000000 		.word	rlist
  68 0028 00000000 		.word	.LC1
  69 002c 00080048 		.word	1207961600
  70              		.cfi_endproc
  71              	.LFE42:
  72              		.size	Thread2, .-Thread2
  73              		.section	.text.Thread1,"ax",%progbits
  74              		.align	2
  75              		.p2align 4,,15
  76              		.code	16
  77              		.thumb_func
  78              		.type	Thread1, %function
  79              	Thread1:
  80              	.LFB41:
  81              		.loc 1 44 0
  82              		.cfi_startproc
  83              	.LVL4:
  84              		.loc 1 47 0
  85 0000 094B     		ldr	r3, .L8
  86              		.loc 1 44 0
  87 0002 70B5     		push	{r4, r5, r6, lr}
  88              		.cfi_def_cfa_offset 16
  89              		.cfi_offset 4, -16
  90              		.cfi_offset 5, -12
  91              		.cfi_offset 6, -8
  92              		.cfi_offset 14, -4
  93              		.loc 1 47 0
  94 0004 9B69     		ldr	r3, [r3, #24]
  95 0006 094A     		ldr	r2, .L8+4
  96              		.loc 1 49 0
  97 0008 8025     		mov	r5, #128
  98 000a 6D00     		lsl	r5, r5, #1
  99 000c 084C     		ldr	r4, .L8+8
 100              		.loc 1 47 0
 101 000e 9A61     		str	r2, [r3, #24]
 102              		.loc 1 49 0
 103 0010 2E1C     		add	r6, r5, #0
 104              	.LVL5:
 105              	.L7:
 106              		.loc 1 50 0 discriminator 1
 107 0012 FA20     		mov	r0, #250
 108              		.loc 1 49 0 discriminator 1
 109 0014 6683     		strh	r6, [r4, #26]
 110              		.loc 1 50 0 discriminator 1
 111 0016 4000     		lsl	r0, r0, #1
 112 0018 FFF7FEFF 		bl	chThdSleep
 113              	.LVL6:
 114              		.loc 1 52 0 discriminator 1
ARM GAS  /var/folders/qh/xwg3v3kj02qbxczjpdb8lzfr0000gn/T//ccbil6mW.s 			page 3


 115 001c FA20     		mov	r0, #250
 116              		.loc 1 51 0 discriminator 1
 117 001e 2583     		strh	r5, [r4, #24]
 118              		.loc 1 52 0 discriminator 1
 119 0020 4000     		lsl	r0, r0, #1
 120 0022 FFF7FEFF 		bl	chThdSleep
 121              	.LVL7:
 122 0026 F4E7     		b	.L7
 123              	.L9:
 124              		.align	2
 125              	.L8:
 126 0028 00000000 		.word	rlist
 127 002c 0C000000 		.word	.LC4
 128 0030 00080048 		.word	1207961600
 129              		.cfi_endproc
 130              	.LFE41:
 131              		.size	Thread1, .-Thread1
 132 0034 C046C046 		.section	.text.startup.main,"ax",%progbits
 132      C046C046 
 132      C046C046 
 133              		.align	2
 134              		.p2align 4,,15
 135              		.global	main
 136              		.code	16
 137              		.thumb_func
 138              		.type	main, %function
 139              	main:
 140              	.LFB43:
 141              		.loc 1 77 0
 142              		.cfi_startproc
 143 0000 30B5     		push	{r4, r5, lr}
 144              		.cfi_def_cfa_offset 12
 145              		.cfi_offset 4, -12
 146              		.cfi_offset 5, -8
 147              		.cfi_offset 14, -4
 148              		.loc 1 79 0
 149 0002 2E4C     		ldr	r4, .L15
 150 0004 8021     		mov	r1, #128
 151              		.loc 1 77 0
 152 0006 83B0     		sub	sp, sp, #12
 153              		.cfi_def_cfa_offset 24
 154              		.loc 1 79 0
 155 0008 0022     		mov	r2, #0
 156 000a 201C     		mov	r0, r4
 157 000c 8900     		lsl	r1, r1, #2
 158 000e FFF7FEFF 		bl	chPoolInit
 159              	.LVL8:
 160              		.loc 1 80 0
 161 0012 201C     		mov	r0, r4
 162 0014 2A49     		ldr	r1, .L15+4
 163 0016 FFF7FEFF 		bl	chPoolFree
 164              	.LVL9:
 165              		.loc 1 81 0
 166 001a 201C     		mov	r0, r4
 167 001c 2949     		ldr	r1, .L15+8
 168 001e FFF7FEFF 		bl	chPoolFree
 169              	.LVL10:
ARM GAS  /var/folders/qh/xwg3v3kj02qbxczjpdb8lzfr0000gn/T//ccbil6mW.s 			page 4


 170              		.loc 1 90 0
 171 0022 FFF7FEFF 		bl	halInit
 172              	.LVL11:
 173              		.loc 1 91 0
 174 0026 FFF7FEFF 		bl	chSysInit
 175              	.LVL12:
 176              		.loc 1 97 0
 177 002a 2748     		ldr	r0, .L15+12
 178 002c 0021     		mov	r1, #0
 179 002e FFF7FEFF 		bl	sdStart
 180              	.LVL13:
 181              		.loc 1 98 0
 182 0032 9020     		mov	r0, #144
 183 0034 8021     		mov	r1, #128
 184 0036 C005     		lsl	r0, r0, #23
 185 0038 8900     		lsl	r1, r1, #2
 186 003a 8222     		mov	r2, #130
 187 003c FFF7FEFF 		bl	_pal_lld_setgroupmode
 188              	.LVL14:
 189              		.loc 1 99 0
 190 0040 9020     		mov	r0, #144
 191 0042 8021     		mov	r1, #128
 192 0044 C005     		lsl	r0, r0, #23
 193 0046 C900     		lsl	r1, r1, #3
 194 0048 8222     		mov	r2, #130
 195 004a FFF7FEFF 		bl	_pal_lld_setgroupmode
 196              	.LVL15:
 197              		.loc 1 100 0
 198 004e 1F48     		ldr	r0, .L15+16
 199 0050 0321     		mov	r1, #3
 200 0052 0322     		mov	r2, #3
 201 0054 FFF7FEFF 		bl	_pal_lld_setgroupmode
 202              	.LVL16:
 203              		.loc 1 106 0
 204 0058 201C     		mov	r0, r4
 205 005a 4021     		mov	r1, #64
 206 005c 1C4A     		ldr	r2, .L15+20
 207 005e 0023     		mov	r3, #0
 208 0060 FFF7FEFF 		bl	chThdCreateFromMemoryPool
 209              	.LVL17:
 210              		.loc 1 107 0
 211 0064 0024     		mov	r4, #0
 212 0066 9821     		mov	r1, #152
 213 0068 4900     		lsl	r1, r1, #1
 214 006a 4022     		mov	r2, #64
 215 006c 194B     		ldr	r3, .L15+24
 216 006e 0094     		str	r4, [sp]
 217 0070 1948     		ldr	r0, .L15+28
 218 0072 FFF7FEFF 		bl	chThdCreateStatic
 219              	.LVL18:
 220              		.loc 1 108 0
 221 0076 9821     		mov	r1, #152
 222 0078 4900     		lsl	r1, r1, #1
 223 007a 4022     		mov	r2, #64
 224 007c 174B     		ldr	r3, .L15+32
 225 007e 0094     		str	r4, [sp]
 226 0080 1748     		ldr	r0, .L15+36
ARM GAS  /var/folders/qh/xwg3v3kj02qbxczjpdb8lzfr0000gn/T//ccbil6mW.s 			page 5


 227 0082 FFF7FEFF 		bl	chThdCreateStatic
 228              	.LVL19:
 229              		.loc 1 120 0
 230 0086 FFF7FEFF 		bl	shellInit
 231              	.LVL20:
 232 008a 164D     		ldr	r5, .L15+40
 233 008c 03E0     		b	.L13
 234              	.LVL21:
 235              	.L12:
 236              		.loc 1 128 0
 237 008e FA20     		mov	r0, #250
 238 0090 8000     		lsl	r0, r0, #2
 239 0092 FFF7FEFF 		bl	chThdSleep
 240              	.LVL22:
 241              	.L13:
 242              		.loc 1 122 0
 243 0096 002C     		cmp	r4, #0
 244 0098 07D0     		beq	.L14
 245              		.loc 1 124 0
 246 009a 237F     		ldrb	r3, [r4, #28]
 247 009c 0E2B     		cmp	r3, #14
 248 009e F6D1     		bne	.L12
 249              		.loc 1 125 0
 250 00a0 201C     		mov	r0, r4
 251 00a2 FFF7FEFF 		bl	chThdRelease
 252              	.LVL23:
 253              		.loc 1 126 0
 254 00a6 0024     		mov	r4, #0
 255 00a8 F1E7     		b	.L12
 256              	.LVL24:
 257              	.L14:
 258              		.loc 1 123 0
 259 00aa 9621     		mov	r1, #150
 260 00ac 281C     		mov	r0, r5
 261 00ae C900     		lsl	r1, r1, #3
 262 00b0 4022     		mov	r2, #64
 263 00b2 FFF7FEFF 		bl	shellCreate
 264              	.LVL25:
 265 00b6 041C     		mov	r4, r0
 266              	.LVL26:
 267 00b8 E9E7     		b	.L12
 268              	.L16:
 269 00ba C046     		.align	2
 270              	.L15:
 271 00bc 00000000 		.word	.LANCHOR0
 272 00c0 00000000 		.word	.LANCHOR1
 273 00c4 00000000 		.word	.LANCHOR2
 274 00c8 00000000 		.word	SD1
 275 00cc 00080048 		.word	1207961600
 276 00d0 00000000 		.word	outputResponse
 277 00d4 00000000 		.word	Thread1
 278 00d8 00000000 		.word	.LANCHOR3
 279 00dc 00000000 		.word	Thread2
 280 00e0 00000000 		.word	.LANCHOR4
 281 00e4 00000000 		.word	.LANCHOR5
 282              		.cfi_endproc
 283              	.LFE43:
ARM GAS  /var/folders/qh/xwg3v3kj02qbxczjpdb8lzfr0000gn/T//ccbil6mW.s 			page 6


 284              		.size	main, .-main
 285              		.global	sh
 286              		.global	thd2
 287              		.global	thd1
 288              		.global	mp
 289 00e8 C046C046 		.section	.bss.waThread1,"aw",%nobits
 289      C046C046 
 290              		.align	3
 291              		.set	.LANCHOR3,. + 0
 292              		.type	waThread1, %object
 293              		.size	waThread1, 304
 294              	waThread1:
 295 0000 00000000 		.space	304
 295      00000000 
 295      00000000 
 295      00000000 
 295      00000000 
 296              		.section	.bss.waThread2,"aw",%nobits
 297              		.align	3
 298              		.set	.LANCHOR4,. + 0
 299              		.type	waThread2, %object
 300              		.size	waThread2, 304
 301              	waThread2:
 302 0000 00000000 		.space	304
 302      00000000 
 302      00000000 
 302      00000000 
 302      00000000 
 303              		.section	.bss.mp,"aw",%nobits
 304              		.align	2
 305              		.set	.LANCHOR0,. + 0
 306              		.type	mp, %object
 307              		.size	mp, 12
 308              	mp:
 309 0000 00000000 		.space	12
 309      00000000 
 309      00000000 
 310              		.section	.rodata.shCmds,"a",%progbits
 311              		.align	2
 312              		.type	shCmds, %object
 313              		.size	shCmds, 88
 314              	shCmds:
 315 0000 18000000 		.word	.LC16
 316 0004 00000000 		.word	cmdGetTemp
 317 0008 20000000 		.word	.LC17
 318 000c 00000000 		.word	cmdGetVoltage
 319 0010 28000000 		.word	.LC18
 320 0014 00000000 		.word	cmdGetBattery
 321 0018 30000000 		.word	.LC19
 322 001c 00000000 		.word	cmdBluetooth
 323 0020 3C000000 		.word	.LC20
 324 0024 00000000 		.word	cmdPwm
 325 0028 40000000 		.word	.LC21
 326 002c 00000000 		.word	cmdSpi
 327 0030 44000000 		.word	.LC22
 328 0034 00000000 		.word	cmdI2c
 329 0038 48000000 		.word	.LC23
ARM GAS  /var/folders/qh/xwg3v3kj02qbxczjpdb8lzfr0000gn/T//ccbil6mW.s 			page 7


 330 003c 00000000 		.word	cmdDate
 331 0040 50000000 		.word	.LC24
 332 0044 00000000 		.word	cmdAdc
 333 0048 54000000 		.word	.LC25
 334 004c 00000000 		.word	cmdDac
 335 0050 00000000 		.word	0
 336 0054 00000000 		.word	0
 337              		.section	.rodata.shCfg,"a",%progbits
 338              		.align	2
 339              		.set	.LANCHOR5,. + 0
 340              		.type	shCfg, %object
 341              		.size	shCfg, 8
 342              	shCfg:
 343 0000 00000000 		.word	SD1
 344 0004 00000000 		.word	shCmds
 345              		.section	.rodata.str1.4,"aMS",%progbits,1
 346              		.align	2
 347              	.LC1:
 348 0000 626C696E 		.ascii	"blinker2\000"
 348      6B657232 
 348      00
 349 0009 000000   		.space	3
 350              	.LC4:
 351 000c 626C696E 		.ascii	"blinker1\000"
 351      6B657231 
 351      00
 352 0015 000000   		.space	3
 353              	.LC16:
 354 0018 74656D70 		.ascii	"temp\000"
 354      00
 355 001d 000000   		.space	3
 356              	.LC17:
 357 0020 766F6C74 		.ascii	"voltage\000"
 357      61676500 
 358              	.LC18:
 359 0028 62617474 		.ascii	"battery\000"
 359      65727900 
 360              	.LC19:
 361 0030 626C7565 		.ascii	"bluetooth\000"
 361      746F6F74 
 361      6800
 362 003a 0000     		.space	2
 363              	.LC20:
 364 003c 70776D00 		.ascii	"pwm\000"
 365              	.LC21:
 366 0040 73706900 		.ascii	"spi\000"
 367              	.LC22:
 368 0044 69326300 		.ascii	"i2c\000"
 369              	.LC23:
 370 0048 64617465 		.ascii	"date\000"
 370      00
 371 004d 000000   		.space	3
 372              	.LC24:
 373 0050 61646300 		.ascii	"adc\000"
 374              	.LC25:
 375 0054 64616300 		.ascii	"dac\000"
 376              		.section	.bss.thd1,"aw",%nobits
ARM GAS  /var/folders/qh/xwg3v3kj02qbxczjpdb8lzfr0000gn/T//ccbil6mW.s 			page 8


 377              		.align	3
 378              		.set	.LANCHOR1,. + 0
 379              		.type	thd1, %object
 380              		.size	thd1, 688
 381              	thd1:
 382 0000 00000000 		.space	688
 382      00000000 
 382      00000000 
 382      00000000 
 382      00000000 
 383              		.section	.bss.thd2,"aw",%nobits
 384              		.align	3
 385              		.set	.LANCHOR2,. + 0
 386              		.type	thd2, %object
 387              		.size	thd2, 688
 388              	thd2:
 389 0000 00000000 		.space	688
 389      00000000 
 389      00000000 
 389      00000000 
 389      00000000 
 390              		.section	.bss.sh,"aw",%nobits
 391              		.align	2
 392              		.type	sh, %object
 393              		.size	sh, 4
 394              	sh:
 395 0000 00000000 		.space	4
 396              		.text
 397              	.Letext0:
 398              		.file 2 "/usr/local/Cellar/gcc-arm-none-eabi-48/20131218/lib/gcc/arm-none-eabi/4.8.3/include/stdde
 399              		.file 3 "/usr/local/Cellar/gcc-arm-none-eabi-48/20131218/arm-none-eabi/include/stdint.h"
 400              		.file 4 "../../os/ports/GCC/ARMCMx/chtypes.h"
 401              		.file 5 "../../os/kernel/include/chlists.h"
 402              		.file 6 "../../os/kernel/include/chthreads.h"
 403              		.file 7 "../../os/ports/GCC/ARMCMx/chcore_v6m.h"
 404              		.file 8 "../../os/kernel/include/chschd.h"
 405              		.file 9 "../../os/kernel/include/chmtx.h"
 406              		.file 10 "../../os/kernel/include/chevents.h"
 407              		.file 11 "../../os/kernel/include/chmemcore.h"
 408              		.file 12 "../../os/kernel/include/chmempools.h"
 409              		.file 13 "../../os/kernel/include/chqueues.h"
 410              		.file 14 "../../os/kernel/include/chstreams.h"
 411              		.file 15 "../../os/hal/platforms/STM32F0xx/stm32f0xx.h"
 412              		.file 16 "../../os/hal/platforms/STM32/GPIOv2/pal_lld.h"
 413              		.file 17 "../../os/hal/include/serial.h"
 414              		.file 18 "../../os/hal/platforms/STM32/USARTv2/serial_lld.h"
 415              		.file 19 "../../os/various/shell.h"
 416              		.file 20 "cmd.h"
 417              		.file 21 "../../os/hal/include/hal.h"
 418              		.file 22 "../../os/kernel/include/chsys.h"
 419              		.file 23 "../../os/kernel/include/chdynamic.h"