ARM GAS  /var/folders/qh/xwg3v3kj02qbxczjpdb8lzfr0000gn/T//cch5LI8o.s 			page 1


   1              		.cpu cortex-m0
   2              		.fpu softvfp
   3              		.eabi_attribute 20, 1
   4              		.eabi_attribute 21, 1
   5              		.eabi_attribute 23, 3
   6              		.eabi_attribute 24, 1
   7              		.eabi_attribute 25, 1
   8              		.eabi_attribute 26, 1
   9              		.eabi_attribute 30, 2
  10              		.eabi_attribute 34, 0
  11              		.eabi_attribute 18, 4
  12              		.code	16
  13              		.file	"main.c"
  14              		.text
  15              	.Ltext0:
  16              		.cfi_sections	.debug_frame
  17              		.section	.text.Thread2,"ax",%progbits
  18              		.align	2
  19              		.p2align 4,,15
  20              		.code	16
  21              		.thumb_func
  22              		.type	Thread2, %function
  23              	Thread2:
  24              	.LFB42:
  25              		.file 1 "main.c"
  26              		.loc 1 60 0
  27              		.cfi_startproc
  28              	.LVL0:
  29              		.loc 1 63 0
  30 0000 084B     		ldr	r3, .L4
  31              		.loc 1 60 0
  32 0002 70B5     		push	{r4, r5, r6, lr}
  33              		.cfi_def_cfa_offset 16
  34              		.cfi_offset 4, -16
  35              		.cfi_offset 5, -12
  36              		.cfi_offset 6, -8
  37              		.cfi_offset 14, -4
  38              		.loc 1 63 0
  39 0004 9B69     		ldr	r3, [r3, #24]
  40 0006 084A     		ldr	r2, .L4+4
  41              		.loc 1 65 0
  42 0008 8025     		mov	r5, #128
  43 000a AD00     		lsl	r5, r5, #2
  44 000c 074C     		ldr	r4, .L4+8
  45              		.loc 1 63 0
  46 000e 9A61     		str	r2, [r3, #24]
  47              		.loc 1 65 0
  48 0010 2E1C     		add	r6, r5, #0
  49              	.LVL1:
  50              	.L2:
  51              		.loc 1 65 0 is_stmt 0 discriminator 1
  52 0012 6683     		strh	r6, [r4, #26]
  53              		.loc 1 66 0 is_stmt 1 discriminator 1
  54 0014 FA20     		mov	r0, #250
  55 0016 FFF7FEFF 		bl	chThdSleep
  56              	.LVL2:
  57              		.loc 1 67 0 discriminator 1
ARM GAS  /var/folders/qh/xwg3v3kj02qbxczjpdb8lzfr0000gn/T//cch5LI8o.s 			page 2


  58 001a 2583     		strh	r5, [r4, #24]
  59              		.loc 1 68 0 discriminator 1
  60 001c FA20     		mov	r0, #250
  61 001e FFF7FEFF 		bl	chThdSleep
  62              	.LVL3:
  63 0022 F6E7     		b	.L2
  64              	.L5:
  65              		.align	2
  66              	.L4:
  67 0024 00000000 		.word	rlist
  68 0028 00000000 		.word	.LC1
  69 002c 00080048 		.word	1207961600
  70              		.cfi_endproc
  71              	.LFE42:
  72              		.size	Thread2, .-Thread2
  73              		.section	.text.Thread1,"ax",%progbits
  74              		.align	2
  75              		.p2align 4,,15
  76              		.code	16
  77              		.thumb_func
  78              		.type	Thread1, %function
  79              	Thread1:
  80              	.LFB41:
  81              		.loc 1 42 0
  82              		.cfi_startproc
  83              	.LVL4:
  84              		.loc 1 45 0
  85 0000 094B     		ldr	r3, .L8
  86              		.loc 1 42 0
  87 0002 70B5     		push	{r4, r5, r6, lr}
  88              		.cfi_def_cfa_offset 16
  89              		.cfi_offset 4, -16
  90              		.cfi_offset 5, -12
  91              		.cfi_offset 6, -8
  92              		.cfi_offset 14, -4
  93              		.loc 1 45 0
  94 0004 9B69     		ldr	r3, [r3, #24]
  95 0006 094A     		ldr	r2, .L8+4
  96              		.loc 1 47 0
  97 0008 8025     		mov	r5, #128
  98 000a 6D00     		lsl	r5, r5, #1
  99 000c 084C     		ldr	r4, .L8+8
 100              		.loc 1 45 0
 101 000e 9A61     		str	r2, [r3, #24]
 102              		.loc 1 47 0
 103 0010 2E1C     		add	r6, r5, #0
 104              	.LVL5:
 105              	.L7:
 106              		.loc 1 48 0 discriminator 1
 107 0012 FA20     		mov	r0, #250
 108              		.loc 1 47 0 discriminator 1
 109 0014 6683     		strh	r6, [r4, #26]
 110              		.loc 1 48 0 discriminator 1
 111 0016 4000     		lsl	r0, r0, #1
 112 0018 FFF7FEFF 		bl	chThdSleep
 113              	.LVL6:
 114              		.loc 1 50 0 discriminator 1
ARM GAS  /var/folders/qh/xwg3v3kj02qbxczjpdb8lzfr0000gn/T//cch5LI8o.s 			page 3


 115 001c FA20     		mov	r0, #250
 116              		.loc 1 49 0 discriminator 1
 117 001e 2583     		strh	r5, [r4, #24]
 118              		.loc 1 50 0 discriminator 1
 119 0020 4000     		lsl	r0, r0, #1
 120 0022 FFF7FEFF 		bl	chThdSleep
 121              	.LVL7:
 122 0026 F4E7     		b	.L7
 123              	.L9:
 124              		.align	2
 125              	.L8:
 126 0028 00000000 		.word	rlist
 127 002c 0C000000 		.word	.LC4
 128 0030 00080048 		.word	1207961600
 129              		.cfi_endproc
 130              	.LFE41:
 131              		.size	Thread1, .-Thread1
 132 0034 C046C046 		.section	.text.startup.main,"ax",%progbits
 132      C046C046 
 132      C046C046 
 133              		.align	2
 134              		.p2align 4,,15
 135              		.global	main
 136              		.code	16
 137              		.thumb_func
 138              		.type	main, %function
 139              	main:
 140              	.LFB43:
 141              		.loc 1 75 0
 142              		.cfi_startproc
 143              	.LVL8:
 144 0000 30B5     		push	{r4, r5, lr}
 145              		.cfi_def_cfa_offset 12
 146              		.cfi_offset 4, -12
 147              		.cfi_offset 5, -8
 148              		.cfi_offset 14, -4
 149 0002 83B0     		sub	sp, sp, #12
 150              		.cfi_def_cfa_offset 24
 151              		.loc 1 85 0
 152 0004 FFF7FEFF 		bl	halInit
 153              	.LVL9:
 154              		.loc 1 86 0
 155 0008 FFF7FEFF 		bl	chSysInit
 156              	.LVL10:
 157              		.loc 1 92 0
 158 000c 2048     		ldr	r0, .L15
 159 000e 0021     		mov	r1, #0
 160 0010 FFF7FEFF 		bl	sdStart
 161              	.LVL11:
 162              		.loc 1 93 0
 163 0014 9020     		mov	r0, #144
 164 0016 8021     		mov	r1, #128
 165 0018 C005     		lsl	r0, r0, #23
 166 001a 8900     		lsl	r1, r1, #2
 167 001c 8222     		mov	r2, #130
 168 001e FFF7FEFF 		bl	_pal_lld_setgroupmode
 169              	.LVL12:
ARM GAS  /var/folders/qh/xwg3v3kj02qbxczjpdb8lzfr0000gn/T//cch5LI8o.s 			page 4


 170              		.loc 1 94 0
 171 0022 9020     		mov	r0, #144
 172 0024 8021     		mov	r1, #128
 173 0026 C005     		lsl	r0, r0, #23
 174 0028 C900     		lsl	r1, r1, #3
 175 002a 8222     		mov	r2, #130
 176 002c FFF7FEFF 		bl	_pal_lld_setgroupmode
 177              	.LVL13:
 178              		.loc 1 95 0
 179 0030 1848     		ldr	r0, .L15+4
 180 0032 0321     		mov	r1, #3
 181 0034 0322     		mov	r2, #3
 182 0036 FFF7FEFF 		bl	_pal_lld_setgroupmode
 183              	.LVL14:
 184              		.loc 1 101 0
 185 003a 0024     		mov	r4, #0
 186 003c 9821     		mov	r1, #152
 187 003e 4900     		lsl	r1, r1, #1
 188 0040 4022     		mov	r2, #64
 189 0042 154B     		ldr	r3, .L15+8
 190 0044 0094     		str	r4, [sp]
 191 0046 1548     		ldr	r0, .L15+12
 192 0048 FFF7FEFF 		bl	chThdCreateStatic
 193              	.LVL15:
 194              		.loc 1 102 0
 195 004c 9821     		mov	r1, #152
 196 004e 4900     		lsl	r1, r1, #1
 197 0050 4022     		mov	r2, #64
 198 0052 134B     		ldr	r3, .L15+16
 199 0054 0094     		str	r4, [sp]
 200 0056 1348     		ldr	r0, .L15+20
 201 0058 FFF7FEFF 		bl	chThdCreateStatic
 202              	.LVL16:
 203              		.loc 1 114 0
 204 005c FFF7FEFF 		bl	shellInit
 205              	.LVL17:
 206 0060 114D     		ldr	r5, .L15+24
 207 0062 03E0     		b	.L13
 208              	.LVL18:
 209              	.L12:
 210              		.loc 1 122 0
 211 0064 FA20     		mov	r0, #250
 212 0066 8000     		lsl	r0, r0, #2
 213 0068 FFF7FEFF 		bl	chThdSleep
 214              	.LVL19:
 215              	.L13:
 216              		.loc 1 116 0
 217 006c 002C     		cmp	r4, #0
 218 006e 07D0     		beq	.L14
 219              		.loc 1 118 0
 220 0070 237F     		ldrb	r3, [r4, #28]
 221 0072 0E2B     		cmp	r3, #14
 222 0074 F6D1     		bne	.L12
 223              		.loc 1 119 0
 224 0076 201C     		mov	r0, r4
 225 0078 FFF7FEFF 		bl	chThdRelease
 226              	.LVL20:
ARM GAS  /var/folders/qh/xwg3v3kj02qbxczjpdb8lzfr0000gn/T//cch5LI8o.s 			page 5


 227              		.loc 1 120 0
 228 007c 0024     		mov	r4, #0
 229 007e F1E7     		b	.L12
 230              	.LVL21:
 231              	.L14:
 232              		.loc 1 117 0
 233 0080 9621     		mov	r1, #150
 234 0082 281C     		mov	r0, r5
 235 0084 C900     		lsl	r1, r1, #3
 236 0086 4022     		mov	r2, #64
 237 0088 FFF7FEFF 		bl	shellCreate
 238              	.LVL22:
 239 008c 041C     		mov	r4, r0
 240              	.LVL23:
 241 008e E9E7     		b	.L12
 242              	.L16:
 243              		.align	2
 244              	.L15:
 245 0090 00000000 		.word	SD1
 246 0094 00080048 		.word	1207961600
 247 0098 00000000 		.word	Thread1
 248 009c 00000000 		.word	.LANCHOR0
 249 00a0 00000000 		.word	Thread2
 250 00a4 00000000 		.word	.LANCHOR1
 251 00a8 00000000 		.word	.LANCHOR2
 252              		.cfi_endproc
 253              	.LFE43:
 254              		.size	main, .-main
 255              		.global	sh
 256              		.global	shCmds
 257 00ac C046C046 		.section	.bss.waThread1,"aw",%nobits
 258              		.align	3
 259              		.set	.LANCHOR0,. + 0
 260              		.type	waThread1, %object
 261              		.size	waThread1, 304
 262              	waThread1:
 263 0000 00000000 		.space	304
 263      00000000 
 263      00000000 
 263      00000000 
 263      00000000 
 264              		.section	.bss.waThread2,"aw",%nobits
 265              		.align	3
 266              		.set	.LANCHOR1,. + 0
 267              		.type	waThread2, %object
 268              		.size	waThread2, 304
 269              	waThread2:
 270 0000 00000000 		.space	304
 270      00000000 
 270      00000000 
 270      00000000 
 270      00000000 
 271              		.section	.rodata.shCmds,"a",%progbits
 272              		.align	2
 273              		.type	shCmds, %object
 274              		.size	shCmds, 16
 275              	shCmds:
ARM GAS  /var/folders/qh/xwg3v3kj02qbxczjpdb8lzfr0000gn/T//cch5LI8o.s 			page 6


 276 0000 18000000 		.word	.LC12
 277 0004 00000000 		.word	cmdGetTemp
 278 0008 00000000 		.word	0
 279 000c 00000000 		.word	0
 280              		.section	.rodata.shCfg,"a",%progbits
 281              		.align	2
 282              		.set	.LANCHOR2,. + 0
 283              		.type	shCfg, %object
 284              		.size	shCfg, 8
 285              	shCfg:
 286 0000 00000000 		.word	SD1
 287 0004 00000000 		.word	shCmds
 288              		.section	.rodata.str1.4,"aMS",%progbits,1
 289              		.align	2
 290              	.LC1:
 291 0000 626C696E 		.ascii	"blinker2\000"
 291      6B657232 
 291      00
 292 0009 000000   		.space	3
 293              	.LC4:
 294 000c 626C696E 		.ascii	"blinker1\000"
 294      6B657231 
 294      00
 295 0015 000000   		.space	3
 296              	.LC12:
 297 0018 74656D70 		.ascii	"temp\000"
 297      00
 298 001d 000000   		.section	.bss.sh,"aw",%nobits
 299              		.align	2
 300              		.type	sh, %object
 301              		.size	sh, 4
 302              	sh:
 303 0000 00000000 		.space	4
 304              		.text
 305              	.Letext0:
 306              		.file 2 "/usr/local/Cellar/gcc-arm-none-eabi-48/20131218/lib/gcc/arm-none-eabi/4.8.3/include/stdde
 307              		.file 3 "/usr/local/Cellar/gcc-arm-none-eabi-48/20131218/arm-none-eabi/include/stdint.h"
 308              		.file 4 "../../os/ports/GCC/ARMCMx/chtypes.h"
 309              		.file 5 "../../os/kernel/include/chlists.h"
 310              		.file 6 "../../os/kernel/include/chthreads.h"
 311              		.file 7 "../../os/ports/GCC/ARMCMx/chcore_v6m.h"
 312              		.file 8 "../../os/kernel/include/chschd.h"
 313              		.file 9 "../../os/kernel/include/chmtx.h"
 314              		.file 10 "../../os/kernel/include/chevents.h"
 315              		.file 11 "../../os/kernel/include/chqueues.h"
 316              		.file 12 "../../os/kernel/include/chstreams.h"
 317              		.file 13 "../../os/hal/platforms/STM32F0xx/stm32f0xx.h"
 318              		.file 14 "../../os/hal/platforms/STM32F0xx/stm32_dma.h"
 319              		.file 15 "../../os/hal/platforms/STM32/GPIOv2/pal_lld.h"
 320              		.file 16 "../../os/hal/include/adc.h"
 321              		.file 17 "../../os/hal/platforms/STM32F0xx/adc_lld.h"
 322              		.file 18 "../../os/hal/include/serial.h"
 323              		.file 19 "../../os/hal/platforms/STM32/USARTv2/serial_lld.h"
 324              		.file 20 "../../os/various/shell.h"
 325              		.file 21 "cmd.h"
 326              		.file 22 "../../os/hal/include/hal.h"
 327              		.file 23 "../../os/kernel/include/chsys.h"
ARM GAS  /var/folders/qh/xwg3v3kj02qbxczjpdb8lzfr0000gn/T//cch5LI8o.s 			page 7


 328              		.file 24 "../../os/kernel/include/chdynamic.h"
 329              		.file 25 "cmdadc.h"
 330              		.section	.debug_info,"",%progbits
 331              	.Ldebug_info0:
 332 0000 A0110000 		.4byte	0x11a0
 333 0004 0400     		.2byte	0x4
 334 0006 00000000 		.4byte	.Ldebug_abbrev0
 335 000a 04       		.byte	0x4
 336 000b 01       		.uleb128 0x1
 337 000c 0C010000 		.4byte	.LASF204
 338 0010 01       		.byte	0x1
 339 0011 23000000 		.4byte	.LASF205
 340 0015 FA020000 		.4byte	.LASF206
 341 0019 00000000 		.4byte	.Ldebug_ranges0+0
 342 001d 00000000 		.4byte	0
 343 0021 00000000 		.4byte	.Ldebug_line0
 344 0025 02       		.uleb128 0x2
 345 0026 04       		.byte	0x4
 346 0027 05       		.byte	0x5
 347 0028 696E7400 		.ascii	"int\000"
 348 002c 03       		.uleb128 0x3
 349 002d 35030000 		.4byte	.LASF2
 350 0031 02       		.byte	0x2
 351 0032 D4       		.byte	0xd4
 352 0033 37000000 		.4byte	0x37
 353 0037 04       		.uleb128 0x4
 354 0038 04       		.byte	0x4
 355 0039 07       		.byte	0x7
 356 003a 76000000 		.4byte	.LASF0
 357 003e 04       		.uleb128 0x4
 358 003f 01       		.byte	0x1
 359 0040 06       		.byte	0x6
 360 0041 3C080000 		.4byte	.LASF1
 361 0045 03       		.uleb128 0x3
 362 0046 63040000 		.4byte	.LASF3
 363 004a 03       		.byte	0x3
 364 004b 2A       		.byte	0x2a
 365 004c 50000000 		.4byte	0x50
 366 0050 04       		.uleb128 0x4
 367 0051 01       		.byte	0x1
 368 0052 08       		.byte	0x8
 369 0053 CE070000 		.4byte	.LASF4
 370 0057 04       		.uleb128 0x4
 371 0058 02       		.byte	0x2
 372 0059 05       		.byte	0x5
 373 005a 59060000 		.4byte	.LASF5
 374 005e 03       		.uleb128 0x3
 375 005f A8050000 		.4byte	.LASF6
 376 0063 03       		.byte	0x3
 377 0064 36       		.byte	0x36
 378 0065 69000000 		.4byte	0x69
 379 0069 04       		.uleb128 0x4
 380 006a 02       		.byte	0x2
 381 006b 07       		.byte	0x7
 382 006c 4E080000 		.4byte	.LASF7
 383 0070 03       		.uleb128 0x3
 384 0071 AB070000 		.4byte	.LASF8
ARM GAS  /var/folders/qh/xwg3v3kj02qbxczjpdb8lzfr0000gn/T//cch5LI8o.s 			page 8


 385 0075 03       		.byte	0x3
 386 0076 4F       		.byte	0x4f
 387 0077 7B000000 		.4byte	0x7b
 388 007b 04       		.uleb128 0x4
 389 007c 04       		.byte	0x4
 390 007d 05       		.byte	0x5
 391 007e 99060000 		.4byte	.LASF9
 392 0082 03       		.uleb128 0x3
 393 0083 0C020000 		.4byte	.LASF10
 394 0087 03       		.byte	0x3
 395 0088 50       		.byte	0x50
 396 0089 8D000000 		.4byte	0x8d
 397 008d 04       		.uleb128 0x4
 398 008e 04       		.byte	0x4
 399 008f 07       		.byte	0x7
 400 0090 7D070000 		.4byte	.LASF11
 401 0094 04       		.uleb128 0x4
 402 0095 08       		.byte	0x8
 403 0096 05       		.byte	0x5
 404 0097 B1040000 		.4byte	.LASF12
 405 009b 03       		.uleb128 0x3
 406 009c D0060000 		.4byte	.LASF13
 407 00a0 03       		.byte	0x3
 408 00a1 78       		.byte	0x78
 409 00a2 A6000000 		.4byte	0xa6
 410 00a6 04       		.uleb128 0x4
 411 00a7 08       		.byte	0x8
 412 00a8 07       		.byte	0x7
 413 00a9 8F020000 		.4byte	.LASF14
 414 00ad 03       		.uleb128 0x3
 415 00ae 48030000 		.4byte	.LASF15
 416 00b2 04       		.byte	0x4
 417 00b3 24       		.byte	0x24
 418 00b4 B8000000 		.4byte	0xb8
 419 00b8 04       		.uleb128 0x4
 420 00b9 01       		.byte	0x1
 421 00ba 02       		.byte	0x2
 422 00bb 4F030000 		.4byte	.LASF16
 423 00bf 03       		.uleb128 0x3
 424 00c0 6E050000 		.4byte	.LASF17
 425 00c4 04       		.byte	0x4
 426 00c5 25       		.byte	0x25
 427 00c6 45000000 		.4byte	0x45
 428 00ca 03       		.uleb128 0x3
 429 00cb 1D040000 		.4byte	.LASF18
 430 00cf 04       		.byte	0x4
 431 00d0 26       		.byte	0x26
 432 00d1 45000000 		.4byte	0x45
 433 00d5 03       		.uleb128 0x3
 434 00d6 67070000 		.4byte	.LASF19
 435 00da 04       		.byte	0x4
 436 00db 27       		.byte	0x27
 437 00dc 45000000 		.4byte	0x45
 438 00e0 03       		.uleb128 0x3
 439 00e1 17050000 		.4byte	.LASF20
 440 00e5 04       		.byte	0x4
 441 00e6 28       		.byte	0x28
ARM GAS  /var/folders/qh/xwg3v3kj02qbxczjpdb8lzfr0000gn/T//cch5LI8o.s 			page 9


 442 00e7 45000000 		.4byte	0x45
 443 00eb 03       		.uleb128 0x3
 444 00ec 6F020000 		.4byte	.LASF21
 445 00f0 04       		.byte	0x4
 446 00f1 29       		.byte	0x29
 447 00f2 82000000 		.4byte	0x82
 448 00f6 03       		.uleb128 0x3
 449 00f7 DC040000 		.4byte	.LASF22
 450 00fb 04       		.byte	0x4
 451 00fc 2A       		.byte	0x2a
 452 00fd 70000000 		.4byte	0x70
 453 0101 03       		.uleb128 0x3
 454 0102 34020000 		.4byte	.LASF23
 455 0106 04       		.byte	0x4
 456 0107 2C       		.byte	0x2c
 457 0108 82000000 		.4byte	0x82
 458 010c 03       		.uleb128 0x3
 459 010d 6B040000 		.4byte	.LASF24
 460 0111 04       		.byte	0x4
 461 0112 2D       		.byte	0x2d
 462 0113 82000000 		.4byte	0x82
 463 0117 03       		.uleb128 0x3
 464 0118 4E000000 		.4byte	.LASF25
 465 011c 04       		.byte	0x4
 466 011d 2E       		.byte	0x2e
 467 011e 82000000 		.4byte	0x82
 468 0122 03       		.uleb128 0x3
 469 0123 16040000 		.4byte	.LASF26
 470 0127 05       		.byte	0x5
 471 0128 23       		.byte	0x23
 472 0129 2D010000 		.4byte	0x12d
 473 012d 05       		.uleb128 0x5
 474 012e 16040000 		.4byte	.LASF26
 475 0132 48       		.byte	0x48
 476 0133 06       		.byte	0x6
 477 0134 57       		.byte	0x57
 478 0135 2A020000 		.4byte	0x22a
 479 0139 06       		.uleb128 0x6
 480 013a C9060000 		.4byte	.LASF27
 481 013e 06       		.byte	0x6
 482 013f 58       		.byte	0x58
 483 0140 4B020000 		.4byte	0x24b
 484 0144 00       		.byte	0
 485 0145 06       		.uleb128 0x6
 486 0146 57070000 		.4byte	.LASF28
 487 014a 06       		.byte	0x6
 488 014b 5A       		.byte	0x5a
 489 014c 4B020000 		.4byte	0x24b
 490 0150 04       		.byte	0x4
 491 0151 06       		.uleb128 0x6
 492 0152 3F000000 		.4byte	.LASF29
 493 0156 06       		.byte	0x6
 494 0157 5C       		.byte	0x5c
 495 0158 EB000000 		.4byte	0xeb
 496 015c 08       		.byte	0x8
 497 015d 06       		.uleb128 0x6
 498 015e D9060000 		.4byte	.LASF30
ARM GAS  /var/folders/qh/xwg3v3kj02qbxczjpdb8lzfr0000gn/T//cch5LI8o.s 			page 10


 499 0162 06       		.byte	0x6
 500 0163 5D       		.byte	0x5d
 501 0164 06030000 		.4byte	0x306
 502 0168 0C       		.byte	0xc
 503 0169 06       		.uleb128 0x6
 504 016a D8020000 		.4byte	.LASF31
 505 016e 06       		.byte	0x6
 506 016f 5F       		.byte	0x5f
 507 0170 4B020000 		.4byte	0x24b
 508 0174 10       		.byte	0x10
 509 0175 06       		.uleb128 0x6
 510 0176 53040000 		.4byte	.LASF32
 511 017a 06       		.byte	0x6
 512 017b 60       		.byte	0x60
 513 017c 4B020000 		.4byte	0x24b
 514 0180 14       		.byte	0x14
 515 0181 06       		.uleb128 0x6
 516 0182 BC030000 		.4byte	.LASF33
 517 0186 06       		.byte	0x6
 518 0187 67       		.byte	0x67
 519 0188 7B040000 		.4byte	0x47b
 520 018c 18       		.byte	0x18
 521 018d 06       		.uleb128 0x6
 522 018e 5B040000 		.4byte	.LASF34
 523 0192 06       		.byte	0x6
 524 0193 72       		.byte	0x72
 525 0194 CA000000 		.4byte	0xca
 526 0198 1C       		.byte	0x1c
 527 0199 06       		.uleb128 0x6
 528 019a 02050000 		.4byte	.LASF35
 529 019e 06       		.byte	0x6
 530 019f 76       		.byte	0x76
 531 01a0 BF000000 		.4byte	0xbf
 532 01a4 1D       		.byte	0x1d
 533 01a5 06       		.uleb128 0x6
 534 01a6 DC070000 		.4byte	.LASF36
 535 01aa 06       		.byte	0x6
 536 01ab 7B       		.byte	0x7b
 537 01ac D5000000 		.4byte	0xd5
 538 01b0 1E       		.byte	0x1e
 539 01b1 06       		.uleb128 0x6
 540 01b2 F8070000 		.4byte	.LASF37
 541 01b6 06       		.byte	0x6
 542 01b7 81       		.byte	0x81
 543 01b8 E0000000 		.4byte	0xe0
 544 01bc 1F       		.byte	0x1f
 545 01bd 06       		.uleb128 0x6
 546 01be 2A000000 		.4byte	.LASF38
 547 01c2 06       		.byte	0x6
 548 01c3 88       		.byte	0x88
 549 01c4 31030000 		.4byte	0x331
 550 01c8 20       		.byte	0x20
 551 01c9 07       		.uleb128 0x7
 552 01ca 705F7500 		.ascii	"p_u\000"
 553 01ce 06       		.byte	0x6
 554 01cf AD       		.byte	0xad
 555 01d0 46040000 		.4byte	0x446
ARM GAS  /var/folders/qh/xwg3v3kj02qbxczjpdb8lzfr0000gn/T//cch5LI8o.s 			page 11


 556 01d4 24       		.byte	0x24
 557 01d5 06       		.uleb128 0x6
 558 01d6 0C000000 		.4byte	.LASF39
 559 01da 06       		.byte	0x6
 560 01db B2       		.byte	0xb2
 561 01dc 71020000 		.4byte	0x271
 562 01e0 28       		.byte	0x28
 563 01e1 06       		.uleb128 0x6
 564 01e2 60000000 		.4byte	.LASF40
 565 01e6 06       		.byte	0x6
 566 01e7 B8       		.byte	0xb8
 567 01e8 51020000 		.4byte	0x251
 568 01ec 2C       		.byte	0x2c
 569 01ed 06       		.uleb128 0x6
 570 01ee 68050000 		.4byte	.LASF41
 571 01f2 06       		.byte	0x6
 572 01f3 BC       		.byte	0xbc
 573 01f4 F6000000 		.4byte	0xf6
 574 01f8 34       		.byte	0x34
 575 01f9 06       		.uleb128 0x6
 576 01fa 86060000 		.4byte	.LASF42
 577 01fe 06       		.byte	0x6
 578 01ff C2       		.byte	0xc2
 579 0200 01010000 		.4byte	0x101
 580 0204 38       		.byte	0x38
 581 0205 06       		.uleb128 0x6
 582 0206 99040000 		.4byte	.LASF43
 583 020a 06       		.byte	0x6
 584 020b C9       		.byte	0xc9
 585 020c 8D040000 		.4byte	0x48d
 586 0210 3C       		.byte	0x3c
 587 0211 06       		.uleb128 0x6
 588 0212 1C060000 		.4byte	.LASF44
 589 0216 06       		.byte	0x6
 590 0217 CD       		.byte	0xcd
 591 0218 EB000000 		.4byte	0xeb
 592 021c 40       		.byte	0x40
 593 021d 06       		.uleb128 0x6
 594 021e 91040000 		.4byte	.LASF45
 595 0222 06       		.byte	0x6
 596 0223 D3       		.byte	0xd3
 597 0224 87020000 		.4byte	0x287
 598 0228 44       		.byte	0x44
 599 0229 00       		.byte	0
 600 022a 08       		.uleb128 0x8
 601 022b 08       		.byte	0x8
 602 022c 05       		.byte	0x5
 603 022d 5A       		.byte	0x5a
 604 022e 4B020000 		.4byte	0x24b
 605 0232 06       		.uleb128 0x6
 606 0233 C9060000 		.4byte	.LASF27
 607 0237 05       		.byte	0x5
 608 0238 5B       		.byte	0x5b
 609 0239 4B020000 		.4byte	0x24b
 610 023d 00       		.byte	0
 611 023e 06       		.uleb128 0x6
 612 023f 57070000 		.4byte	.LASF28
ARM GAS  /var/folders/qh/xwg3v3kj02qbxczjpdb8lzfr0000gn/T//cch5LI8o.s 			page 12


 613 0243 05       		.byte	0x5
 614 0244 5D       		.byte	0x5d
 615 0245 4B020000 		.4byte	0x24b
 616 0249 04       		.byte	0x4
 617 024a 00       		.byte	0
 618 024b 09       		.uleb128 0x9
 619 024c 04       		.byte	0x4
 620 024d 22010000 		.4byte	0x122
 621 0251 03       		.uleb128 0x3
 622 0252 E3030000 		.4byte	.LASF46
 623 0256 05       		.byte	0x5
 624 0257 5F       		.byte	0x5f
 625 0258 2A020000 		.4byte	0x22a
 626 025c 08       		.uleb128 0x8
 627 025d 04       		.byte	0x4
 628 025e 05       		.byte	0x5
 629 025f 64       		.byte	0x64
 630 0260 71020000 		.4byte	0x271
 631 0264 06       		.uleb128 0x6
 632 0265 C9060000 		.4byte	.LASF27
 633 0269 05       		.byte	0x5
 634 026a 66       		.byte	0x66
 635 026b 4B020000 		.4byte	0x24b
 636 026f 00       		.byte	0
 637 0270 00       		.byte	0
 638 0271 03       		.uleb128 0x3
 639 0272 00000000 		.4byte	.LASF47
 640 0276 05       		.byte	0x5
 641 0277 69       		.byte	0x69
 642 0278 5C020000 		.4byte	0x25c
 643 027c 03       		.uleb128 0x3
 644 027d 36000000 		.4byte	.LASF48
 645 0281 07       		.byte	0x7
 646 0282 A0       		.byte	0xa0
 647 0283 87020000 		.4byte	0x287
 648 0287 0A       		.uleb128 0xa
 649 0288 04       		.byte	0x4
 650 0289 03       		.uleb128 0x3
 651 028a 67080000 		.4byte	.LASF49
 652 028e 07       		.byte	0x7
 653 028f A6       		.byte	0xa6
 654 0290 9B000000 		.4byte	0x9b
 655 0294 05       		.uleb128 0x5
 656 0295 B1050000 		.4byte	.LASF50
 657 0299 24       		.byte	0x24
 658 029a 07       		.byte	0x7
 659 029b B3       		.byte	0xb3
 660 029c 06030000 		.4byte	0x306
 661 02a0 07       		.uleb128 0x7
 662 02a1 723800   		.ascii	"r8\000"
 663 02a4 07       		.byte	0x7
 664 02a5 B4       		.byte	0xb4
 665 02a6 7C020000 		.4byte	0x27c
 666 02aa 00       		.byte	0
 667 02ab 07       		.uleb128 0x7
 668 02ac 723900   		.ascii	"r9\000"
 669 02af 07       		.byte	0x7
ARM GAS  /var/folders/qh/xwg3v3kj02qbxczjpdb8lzfr0000gn/T//cch5LI8o.s 			page 13


 670 02b0 B5       		.byte	0xb5
 671 02b1 7C020000 		.4byte	0x27c
 672 02b5 04       		.byte	0x4
 673 02b6 07       		.uleb128 0x7
 674 02b7 72313000 		.ascii	"r10\000"
 675 02bb 07       		.byte	0x7
 676 02bc B6       		.byte	0xb6
 677 02bd 7C020000 		.4byte	0x27c
 678 02c1 08       		.byte	0x8
 679 02c2 07       		.uleb128 0x7
 680 02c3 72313100 		.ascii	"r11\000"
 681 02c7 07       		.byte	0x7
 682 02c8 B7       		.byte	0xb7
 683 02c9 7C020000 		.4byte	0x27c
 684 02cd 0C       		.byte	0xc
 685 02ce 07       		.uleb128 0x7
 686 02cf 723400   		.ascii	"r4\000"
 687 02d2 07       		.byte	0x7
 688 02d3 B8       		.byte	0xb8
 689 02d4 7C020000 		.4byte	0x27c
 690 02d8 10       		.byte	0x10
 691 02d9 07       		.uleb128 0x7
 692 02da 723500   		.ascii	"r5\000"
 693 02dd 07       		.byte	0x7
 694 02de B9       		.byte	0xb9
 695 02df 7C020000 		.4byte	0x27c
 696 02e3 14       		.byte	0x14
 697 02e4 07       		.uleb128 0x7
 698 02e5 723600   		.ascii	"r6\000"
 699 02e8 07       		.byte	0x7
 700 02e9 BA       		.byte	0xba
 701 02ea 7C020000 		.4byte	0x27c
 702 02ee 18       		.byte	0x18
 703 02ef 07       		.uleb128 0x7
 704 02f0 723700   		.ascii	"r7\000"
 705 02f3 07       		.byte	0x7
 706 02f4 BB       		.byte	0xbb
 707 02f5 7C020000 		.4byte	0x27c
 708 02f9 1C       		.byte	0x1c
 709 02fa 07       		.uleb128 0x7
 710 02fb 6C7200   		.ascii	"lr\000"
 711 02fe 07       		.byte	0x7
 712 02ff BC       		.byte	0xbc
 713 0300 7C020000 		.4byte	0x27c
 714 0304 20       		.byte	0x20
 715 0305 00       		.byte	0
 716 0306 05       		.uleb128 0x5
 717 0307 E2040000 		.4byte	.LASF51
 718 030b 04       		.byte	0x4
 719 030c 07       		.byte	0x7
 720 030d C6       		.byte	0xc6
 721 030e 1F030000 		.4byte	0x31f
 722 0312 07       		.uleb128 0x7
 723 0313 72313300 		.ascii	"r13\000"
 724 0317 07       		.byte	0x7
 725 0318 C7       		.byte	0xc7
 726 0319 1F030000 		.4byte	0x31f
ARM GAS  /var/folders/qh/xwg3v3kj02qbxczjpdb8lzfr0000gn/T//cch5LI8o.s 			page 14


 727 031d 00       		.byte	0
 728 031e 00       		.byte	0
 729 031f 09       		.uleb128 0x9
 730 0320 04       		.byte	0x4
 731 0321 94020000 		.4byte	0x294
 732 0325 0B       		.uleb128 0xb
 733 0326 82000000 		.4byte	0x82
 734 032a 04       		.uleb128 0x4
 735 032b 04       		.byte	0x4
 736 032c 07       		.byte	0x7
 737 032d 5E070000 		.4byte	.LASF52
 738 0331 0B       		.uleb128 0xb
 739 0332 17010000 		.4byte	0x117
 740 0336 08       		.uleb128 0x8
 741 0337 1C       		.byte	0x1c
 742 0338 08       		.byte	0x8
 743 0339 57       		.byte	0x57
 744 033a 87030000 		.4byte	0x387
 745 033e 06       		.uleb128 0x6
 746 033f CE040000 		.4byte	.LASF53
 747 0343 08       		.byte	0x8
 748 0344 58       		.byte	0x58
 749 0345 51020000 		.4byte	0x251
 750 0349 00       		.byte	0
 751 034a 06       		.uleb128 0x6
 752 034b 40020000 		.4byte	.LASF54
 753 034f 08       		.byte	0x8
 754 0350 59       		.byte	0x59
 755 0351 EB000000 		.4byte	0xeb
 756 0355 08       		.byte	0x8
 757 0356 06       		.uleb128 0x6
 758 0357 61080000 		.4byte	.LASF55
 759 035b 08       		.byte	0x8
 760 035c 5B       		.byte	0x5b
 761 035d 06030000 		.4byte	0x306
 762 0361 0C       		.byte	0xc
 763 0362 06       		.uleb128 0x6
 764 0363 FF030000 		.4byte	.LASF56
 765 0367 08       		.byte	0x8
 766 0368 5E       		.byte	0x5e
 767 0369 4B020000 		.4byte	0x24b
 768 036d 10       		.byte	0x10
 769 036e 06       		.uleb128 0x6
 770 036f 21050000 		.4byte	.LASF57
 771 0373 08       		.byte	0x8
 772 0374 5F       		.byte	0x5f
 773 0375 4B020000 		.4byte	0x24b
 774 0379 14       		.byte	0x14
 775 037a 06       		.uleb128 0x6
 776 037b 76060000 		.4byte	.LASF58
 777 037f 08       		.byte	0x8
 778 0380 62       		.byte	0x62
 779 0381 4B020000 		.4byte	0x24b
 780 0385 18       		.byte	0x18
 781 0386 00       		.byte	0
 782 0387 03       		.uleb128 0x3
 783 0388 E3070000 		.4byte	.LASF59
ARM GAS  /var/folders/qh/xwg3v3kj02qbxczjpdb8lzfr0000gn/T//cch5LI8o.s 			page 15


 784 038c 08       		.byte	0x8
 785 038d 64       		.byte	0x64
 786 038e 36030000 		.4byte	0x336
 787 0392 05       		.uleb128 0x5
 788 0393 77030000 		.4byte	.LASF60
 789 0397 10       		.byte	0x10
 790 0398 09       		.byte	0x9
 791 0399 25       		.byte	0x25
 792 039a C3030000 		.4byte	0x3c3
 793 039e 06       		.uleb128 0x6
 794 039f 91060000 		.4byte	.LASF61
 795 03a3 09       		.byte	0x9
 796 03a4 26       		.byte	0x26
 797 03a5 51020000 		.4byte	0x251
 798 03a9 00       		.byte	0
 799 03aa 06       		.uleb128 0x6
 800 03ab 58000000 		.4byte	.LASF62
 801 03af 09       		.byte	0x9
 802 03b0 28       		.byte	0x28
 803 03b1 4B020000 		.4byte	0x24b
 804 03b5 08       		.byte	0x8
 805 03b6 06       		.uleb128 0x6
 806 03b7 35080000 		.4byte	.LASF63
 807 03bb 09       		.byte	0x9
 808 03bc 2A       		.byte	0x2a
 809 03bd C3030000 		.4byte	0x3c3
 810 03c1 0C       		.byte	0xc
 811 03c2 00       		.byte	0
 812 03c3 09       		.uleb128 0x9
 813 03c4 04       		.byte	0x4
 814 03c5 92030000 		.4byte	0x392
 815 03c9 03       		.uleb128 0x3
 816 03ca 77030000 		.4byte	.LASF60
 817 03ce 09       		.byte	0x9
 818 03cf 2C       		.byte	0x2c
 819 03d0 92030000 		.4byte	0x392
 820 03d4 03       		.uleb128 0x3
 821 03d5 6F070000 		.4byte	.LASF64
 822 03d9 0A       		.byte	0xa
 823 03da 25       		.byte	0x25
 824 03db DF030000 		.4byte	0x3df
 825 03df 05       		.uleb128 0x5
 826 03e0 6F070000 		.4byte	.LASF64
 827 03e4 10       		.byte	0x10
 828 03e5 0A       		.byte	0xa
 829 03e6 2A       		.byte	0x2a
 830 03e7 1C040000 		.4byte	0x41c
 831 03eb 06       		.uleb128 0x6
 832 03ec 60050000 		.4byte	.LASF65
 833 03f0 0A       		.byte	0xa
 834 03f1 2B       		.byte	0x2b
 835 03f2 1C040000 		.4byte	0x41c
 836 03f6 00       		.byte	0
 837 03f7 06       		.uleb128 0x6
 838 03f8 00070000 		.4byte	.LASF66
 839 03fc 0A       		.byte	0xa
 840 03fd 2E       		.byte	0x2e
ARM GAS  /var/folders/qh/xwg3v3kj02qbxczjpdb8lzfr0000gn/T//cch5LI8o.s 			page 16


 841 03fe 4B020000 		.4byte	0x24b
 842 0402 04       		.byte	0x4
 843 0403 06       		.uleb128 0x6
 844 0404 AB000000 		.4byte	.LASF67
 845 0408 0A       		.byte	0xa
 846 0409 30       		.byte	0x30
 847 040a 01010000 		.4byte	0x101
 848 040e 08       		.byte	0x8
 849 040f 06       		.uleb128 0x6
 850 0410 85080000 		.4byte	.LASF68
 851 0414 0A       		.byte	0xa
 852 0415 33       		.byte	0x33
 853 0416 0C010000 		.4byte	0x10c
 854 041a 0C       		.byte	0xc
 855 041b 00       		.byte	0
 856 041c 09       		.uleb128 0x9
 857 041d 04       		.byte	0x4
 858 041e D4030000 		.4byte	0x3d4
 859 0422 05       		.uleb128 0x5
 860 0423 42050000 		.4byte	.LASF69
 861 0427 04       		.byte	0x4
 862 0428 0A       		.byte	0xa
 863 0429 3A       		.byte	0x3a
 864 042a 3B040000 		.4byte	0x43b
 865 042e 06       		.uleb128 0x6
 866 042f 02080000 		.4byte	.LASF70
 867 0433 0A       		.byte	0xa
 868 0434 3B       		.byte	0x3b
 869 0435 1C040000 		.4byte	0x41c
 870 0439 00       		.byte	0
 871 043a 00       		.byte	0
 872 043b 03       		.uleb128 0x3
 873 043c 42050000 		.4byte	.LASF69
 874 0440 0A       		.byte	0xa
 875 0441 3E       		.byte	0x3e
 876 0442 22040000 		.4byte	0x422
 877 0446 0C       		.uleb128 0xc
 878 0447 04       		.byte	0x4
 879 0448 06       		.byte	0x6
 880 0449 8F       		.byte	0x8f
 881 044a 7B040000 		.4byte	0x47b
 882 044e 0D       		.uleb128 0xd
 883 044f 3C030000 		.4byte	.LASF71
 884 0453 06       		.byte	0x6
 885 0454 96       		.byte	0x96
 886 0455 F6000000 		.4byte	0xf6
 887 0459 0D       		.uleb128 0xd
 888 045a 8E080000 		.4byte	.LASF72
 889 045e 06       		.byte	0x6
 890 045f 9D       		.byte	0x9d
 891 0460 F6000000 		.4byte	0xf6
 892 0464 0D       		.uleb128 0xd
 893 0465 DF000000 		.4byte	.LASF73
 894 0469 06       		.byte	0x6
 895 046a A4       		.byte	0xa4
 896 046b 87020000 		.4byte	0x287
 897 046f 0D       		.uleb128 0xd
ARM GAS  /var/folders/qh/xwg3v3kj02qbxczjpdb8lzfr0000gn/T//cch5LI8o.s 			page 17


 898 0470 E6010000 		.4byte	.LASF74
 899 0474 06       		.byte	0x6
 900 0475 AB       		.byte	0xab
 901 0476 01010000 		.4byte	0x101
 902 047a 00       		.byte	0
 903 047b 09       		.uleb128 0x9
 904 047c 04       		.byte	0x4
 905 047d 81040000 		.4byte	0x481
 906 0481 0E       		.uleb128 0xe
 907 0482 86040000 		.4byte	0x486
 908 0486 04       		.uleb128 0x4
 909 0487 01       		.byte	0x1
 910 0488 08       		.byte	0x8
 911 0489 F0030000 		.4byte	.LASF75
 912 048d 09       		.uleb128 0x9
 913 048e 04       		.byte	0x4
 914 048f C9030000 		.4byte	0x3c9
 915 0493 03       		.uleb128 0x3
 916 0494 7E020000 		.4byte	.LASF76
 917 0498 06       		.byte	0x6
 918 0499 DE       		.byte	0xde
 919 049a 9E040000 		.4byte	0x49e
 920 049e 09       		.uleb128 0x9
 921 049f 04       		.byte	0x4
 922 04a0 A4040000 		.4byte	0x4a4
 923 04a4 0F       		.uleb128 0xf
 924 04a5 F6000000 		.4byte	0xf6
 925 04a9 B3040000 		.4byte	0x4b3
 926 04ad 10       		.uleb128 0x10
 927 04ae 87020000 		.4byte	0x287
 928 04b2 00       		.byte	0
 929 04b3 03       		.uleb128 0x3
 930 04b4 94050000 		.4byte	.LASF77
 931 04b8 0B       		.byte	0xb
 932 04b9 30       		.byte	0x30
 933 04ba BE040000 		.4byte	0x4be
 934 04be 05       		.uleb128 0x5
 935 04bf 94050000 		.4byte	.LASF77
 936 04c3 24       		.byte	0x24
 937 04c4 0B       		.byte	0xb
 938 04c5 3E       		.byte	0x3e
 939 04c6 2B050000 		.4byte	0x52b
 940 04ca 06       		.uleb128 0x6
 941 04cb E6020000 		.4byte	.LASF78
 942 04cf 0B       		.byte	0xb
 943 04d0 3F       		.byte	0x3f
 944 04d1 51020000 		.4byte	0x251
 945 04d5 00       		.byte	0
 946 04d6 06       		.uleb128 0x6
 947 04d7 42070000 		.4byte	.LASF79
 948 04db 0B       		.byte	0xb
 949 04dc 40       		.byte	0x40
 950 04dd 2C000000 		.4byte	0x2c
 951 04e1 08       		.byte	0x8
 952 04e2 06       		.uleb128 0x6
 953 04e3 C5040000 		.4byte	.LASF80
 954 04e7 0B       		.byte	0xb
ARM GAS  /var/folders/qh/xwg3v3kj02qbxczjpdb8lzfr0000gn/T//cch5LI8o.s 			page 18


 955 04e8 41       		.byte	0x41
 956 04e9 4D050000 		.4byte	0x54d
 957 04ed 0C       		.byte	0xc
 958 04ee 06       		.uleb128 0x6
 959 04ef 51070000 		.4byte	.LASF81
 960 04f3 0B       		.byte	0xb
 961 04f4 42       		.byte	0x42
 962 04f5 4D050000 		.4byte	0x54d
 963 04f9 10       		.byte	0x10
 964 04fa 06       		.uleb128 0x6
 965 04fb 07040000 		.4byte	.LASF82
 966 04ff 0B       		.byte	0xb
 967 0500 44       		.byte	0x44
 968 0501 4D050000 		.4byte	0x54d
 969 0505 14       		.byte	0x14
 970 0506 06       		.uleb128 0x6
 971 0507 99000000 		.4byte	.LASF83
 972 050b 0B       		.byte	0xb
 973 050c 45       		.byte	0x45
 974 050d 4D050000 		.4byte	0x54d
 975 0511 18       		.byte	0x18
 976 0512 06       		.uleb128 0x6
 977 0513 89030000 		.4byte	.LASF84
 978 0517 0B       		.byte	0xb
 979 0518 46       		.byte	0x46
 980 0519 2B050000 		.4byte	0x52b
 981 051d 1C       		.byte	0x1c
 982 051e 06       		.uleb128 0x6
 983 051f E6000000 		.4byte	.LASF85
 984 0523 0B       		.byte	0xb
 985 0524 47       		.byte	0x47
 986 0525 87020000 		.4byte	0x287
 987 0529 20       		.byte	0x20
 988 052a 00       		.byte	0
 989 052b 03       		.uleb128 0x3
 990 052c A1000000 		.4byte	.LASF86
 991 0530 0B       		.byte	0xb
 992 0531 33       		.byte	0x33
 993 0532 36050000 		.4byte	0x536
 994 0536 09       		.uleb128 0x9
 995 0537 04       		.byte	0x4
 996 0538 3C050000 		.4byte	0x53c
 997 053c 11       		.uleb128 0x11
 998 053d 47050000 		.4byte	0x547
 999 0541 10       		.uleb128 0x10
 1000 0542 47050000 		.4byte	0x547
 1001 0546 00       		.byte	0
 1002 0547 09       		.uleb128 0x9
 1003 0548 04       		.byte	0x4
 1004 0549 B3040000 		.4byte	0x4b3
 1005 054d 09       		.uleb128 0x9
 1006 054e 04       		.byte	0x4
 1007 054f 45000000 		.4byte	0x45
 1008 0553 03       		.uleb128 0x3
 1009 0554 D8030000 		.4byte	.LASF87
 1010 0558 0B       		.byte	0xb
 1011 0559 7B       		.byte	0x7b
ARM GAS  /var/folders/qh/xwg3v3kj02qbxczjpdb8lzfr0000gn/T//cch5LI8o.s 			page 19


 1012 055a B3040000 		.4byte	0x4b3
 1013 055e 03       		.uleb128 0x3
 1014 055f 7D030000 		.4byte	.LASF88
 1015 0563 0B       		.byte	0xb
 1016 0564 EE       		.byte	0xee
 1017 0565 B3040000 		.4byte	0x4b3
 1018 0569 05       		.uleb128 0x5
 1019 056a B3000000 		.4byte	.LASF89
 1020 056e 10       		.byte	0x10
 1021 056f 0C       		.byte	0xc
 1022 0570 41       		.byte	0x41
 1023 0571 A6050000 		.4byte	0x5a6
 1024 0575 06       		.uleb128 0x6
 1025 0576 BF040000 		.4byte	.LASF90
 1026 057a 0C       		.byte	0xc
 1027 057b 42       		.byte	0x42
 1028 057c CA050000 		.4byte	0x5ca
 1029 0580 00       		.byte	0
 1030 0581 06       		.uleb128 0x6
 1031 0582 FB060000 		.4byte	.LASF91
 1032 0586 0C       		.byte	0xc
 1033 0587 42       		.byte	0x42
 1034 0588 E9050000 		.4byte	0x5e9
 1035 058c 04       		.byte	0x4
 1036 058d 07       		.uleb128 0x7
 1037 058e 70757400 		.ascii	"put\000"
 1038 0592 0C       		.byte	0xc
 1039 0593 42       		.byte	0x42
 1040 0594 03060000 		.4byte	0x603
 1041 0598 08       		.byte	0x8
 1042 0599 07       		.uleb128 0x7
 1043 059a 67657400 		.ascii	"get\000"
 1044 059e 0C       		.byte	0xc
 1045 059f 42       		.byte	0x42
 1046 05a0 9E040000 		.4byte	0x49e
 1047 05a4 0C       		.byte	0xc
 1048 05a5 00       		.byte	0
 1049 05a6 0F       		.uleb128 0xf
 1050 05a7 2C000000 		.4byte	0x2c
 1051 05ab BF050000 		.4byte	0x5bf
 1052 05af 10       		.uleb128 0x10
 1053 05b0 87020000 		.4byte	0x287
 1054 05b4 10       		.uleb128 0x10
 1055 05b5 BF050000 		.4byte	0x5bf
 1056 05b9 10       		.uleb128 0x10
 1057 05ba 2C000000 		.4byte	0x2c
 1058 05be 00       		.byte	0
 1059 05bf 09       		.uleb128 0x9
 1060 05c0 04       		.byte	0x4
 1061 05c1 C5050000 		.4byte	0x5c5
 1062 05c5 0E       		.uleb128 0xe
 1063 05c6 45000000 		.4byte	0x45
 1064 05ca 09       		.uleb128 0x9
 1065 05cb 04       		.byte	0x4
 1066 05cc A6050000 		.4byte	0x5a6
 1067 05d0 0F       		.uleb128 0xf
 1068 05d1 2C000000 		.4byte	0x2c
ARM GAS  /var/folders/qh/xwg3v3kj02qbxczjpdb8lzfr0000gn/T//cch5LI8o.s 			page 20


 1069 05d5 E9050000 		.4byte	0x5e9
 1070 05d9 10       		.uleb128 0x10
 1071 05da 87020000 		.4byte	0x287
 1072 05de 10       		.uleb128 0x10
 1073 05df 4D050000 		.4byte	0x54d
 1074 05e3 10       		.uleb128 0x10
 1075 05e4 2C000000 		.4byte	0x2c
 1076 05e8 00       		.byte	0
 1077 05e9 09       		.uleb128 0x9
 1078 05ea 04       		.byte	0x4
 1079 05eb D0050000 		.4byte	0x5d0
 1080 05ef 0F       		.uleb128 0xf
 1081 05f0 F6000000 		.4byte	0xf6
 1082 05f4 03060000 		.4byte	0x603
 1083 05f8 10       		.uleb128 0x10
 1084 05f9 87020000 		.4byte	0x287
 1085 05fd 10       		.uleb128 0x10
 1086 05fe 45000000 		.4byte	0x45
 1087 0602 00       		.byte	0
 1088 0603 09       		.uleb128 0x9
 1089 0604 04       		.byte	0x4
 1090 0605 EF050000 		.4byte	0x5ef
 1091 0609 08       		.uleb128 0x8
 1092 060a 04       		.byte	0x4
 1093 060b 0C       		.byte	0xc
 1094 060c 4A       		.byte	0x4a
 1095 060d 1E060000 		.4byte	0x61e
 1096 0611 07       		.uleb128 0x7
 1097 0612 766D7400 		.ascii	"vmt\000"
 1098 0616 0C       		.byte	0xc
 1099 0617 4C       		.byte	0x4c
 1100 0618 1E060000 		.4byte	0x61e
 1101 061c 00       		.byte	0
 1102 061d 00       		.byte	0
 1103 061e 09       		.uleb128 0x9
 1104 061f 04       		.byte	0x4
 1105 0620 24060000 		.4byte	0x624
 1106 0624 0E       		.uleb128 0xe
 1107 0625 69050000 		.4byte	0x569
 1108 0629 03       		.uleb128 0x3
 1109 062a C3030000 		.4byte	.LASF92
 1110 062e 0C       		.byte	0xc
 1111 062f 4E       		.byte	0x4e
 1112 0630 09060000 		.4byte	0x609
 1113 0634 12       		.uleb128 0x12
 1114 0635 44       		.byte	0x44
 1115 0636 0D       		.byte	0xd
 1116 0637 2B01     		.2byte	0x12b
 1117 0639 E4060000 		.4byte	0x6e4
 1118 063d 13       		.uleb128 0x13
 1119 063e 49535200 		.ascii	"ISR\000"
 1120 0642 0D       		.byte	0xd
 1121 0643 2D01     		.2byte	0x12d
 1122 0645 25030000 		.4byte	0x325
 1123 0649 00       		.byte	0
 1124 064a 13       		.uleb128 0x13
 1125 064b 49455200 		.ascii	"IER\000"
ARM GAS  /var/folders/qh/xwg3v3kj02qbxczjpdb8lzfr0000gn/T//cch5LI8o.s 			page 21


 1126 064f 0D       		.byte	0xd
 1127 0650 2E01     		.2byte	0x12e
 1128 0652 25030000 		.4byte	0x325
 1129 0656 04       		.byte	0x4
 1130 0657 13       		.uleb128 0x13
 1131 0658 435200   		.ascii	"CR\000"
 1132 065b 0D       		.byte	0xd
 1133 065c 2F01     		.2byte	0x12f
 1134 065e 25030000 		.4byte	0x325
 1135 0662 08       		.byte	0x8
 1136 0663 14       		.uleb128 0x14
 1137 0664 29050000 		.4byte	.LASF93
 1138 0668 0D       		.byte	0xd
 1139 0669 3001     		.2byte	0x130
 1140 066b 25030000 		.4byte	0x325
 1141 066f 0C       		.byte	0xc
 1142 0670 14       		.uleb128 0x14
 1143 0671 2F050000 		.4byte	.LASF94
 1144 0675 0D       		.byte	0xd
 1145 0676 3101     		.2byte	0x131
 1146 0678 25030000 		.4byte	0x325
 1147 067c 10       		.byte	0x10
 1148 067d 14       		.uleb128 0x14
 1149 067e 43030000 		.4byte	.LASF95
 1150 0682 0D       		.byte	0xd
 1151 0683 3201     		.2byte	0x132
 1152 0685 25030000 		.4byte	0x325
 1153 0689 14       		.byte	0x14
 1154 068a 14       		.uleb128 0x14
 1155 068b 27060000 		.4byte	.LASF96
 1156 068f 0D       		.byte	0xd
 1157 0690 3301     		.2byte	0x133
 1158 0692 82000000 		.4byte	0x82
 1159 0696 18       		.byte	0x18
 1160 0697 14       		.uleb128 0x14
 1161 0698 31060000 		.4byte	.LASF97
 1162 069c 0D       		.byte	0xd
 1163 069d 3401     		.2byte	0x134
 1164 069f 82000000 		.4byte	0x82
 1165 06a3 1C       		.byte	0x1c
 1166 06a4 13       		.uleb128 0x13
 1167 06a5 545200   		.ascii	"TR\000"
 1168 06a8 0D       		.byte	0xd
 1169 06a9 3501     		.2byte	0x135
 1170 06ab 25030000 		.4byte	0x325
 1171 06af 20       		.byte	0x20
 1172 06b0 14       		.uleb128 0x14
 1173 06b1 3B060000 		.4byte	.LASF98
 1174 06b5 0D       		.byte	0xd
 1175 06b6 3601     		.2byte	0x136
 1176 06b8 82000000 		.4byte	0x82
 1177 06bc 24       		.byte	0x24
 1178 06bd 14       		.uleb128 0x14
 1179 06be D1020000 		.4byte	.LASF99
 1180 06c2 0D       		.byte	0xd
 1181 06c3 3701     		.2byte	0x137
 1182 06c5 25030000 		.4byte	0x325
ARM GAS  /var/folders/qh/xwg3v3kj02qbxczjpdb8lzfr0000gn/T//cch5LI8o.s 			page 22


 1183 06c9 28       		.byte	0x28
 1184 06ca 14       		.uleb128 0x14
 1185 06cb 45060000 		.4byte	.LASF100
 1186 06cf 0D       		.byte	0xd
 1187 06d0 3801     		.2byte	0x138
 1188 06d2 E4060000 		.4byte	0x6e4
 1189 06d6 2C       		.byte	0x2c
 1190 06d7 13       		.uleb128 0x13
 1191 06d8 445200   		.ascii	"DR\000"
 1192 06db 0D       		.byte	0xd
 1193 06dc 3901     		.2byte	0x139
 1194 06de 25030000 		.4byte	0x325
 1195 06e2 40       		.byte	0x40
 1196 06e3 00       		.byte	0
 1197 06e4 15       		.uleb128 0x15
 1198 06e5 82000000 		.4byte	0x82
 1199 06e9 F4060000 		.4byte	0x6f4
 1200 06ed 16       		.uleb128 0x16
 1201 06ee 2A030000 		.4byte	0x32a
 1202 06f2 04       		.byte	0x4
 1203 06f3 00       		.byte	0
 1204 06f4 17       		.uleb128 0x17
 1205 06f5 10080000 		.4byte	.LASF101
 1206 06f9 0D       		.byte	0xd
 1207 06fa 3A01     		.2byte	0x13a
 1208 06fc 34060000 		.4byte	0x634
 1209 0700 12       		.uleb128 0x12
 1210 0701 10       		.byte	0x10
 1211 0702 0D       		.byte	0xd
 1212 0703 8A01     		.2byte	0x18a
 1213 0705 3E070000 		.4byte	0x73e
 1214 0709 13       		.uleb128 0x13
 1215 070a 43435200 		.ascii	"CCR\000"
 1216 070e 0D       		.byte	0xd
 1217 070f 8C01     		.2byte	0x18c
 1218 0711 25030000 		.4byte	0x325
 1219 0715 00       		.byte	0
 1220 0716 14       		.uleb128 0x14
 1221 0717 FA010000 		.4byte	.LASF102
 1222 071b 0D       		.byte	0xd
 1223 071c 8D01     		.2byte	0x18d
 1224 071e 25030000 		.4byte	0x325
 1225 0722 04       		.byte	0x4
 1226 0723 14       		.uleb128 0x14
 1227 0724 F0020000 		.4byte	.LASF103
 1228 0728 0D       		.byte	0xd
 1229 0729 8E01     		.2byte	0x18e
 1230 072b 25030000 		.4byte	0x325
 1231 072f 08       		.byte	0x8
 1232 0730 14       		.uleb128 0x14
 1233 0731 D1000000 		.4byte	.LASF104
 1234 0735 0D       		.byte	0xd
 1235 0736 8F01     		.2byte	0x18f
 1236 0738 25030000 		.4byte	0x325
 1237 073c 0C       		.byte	0xc
 1238 073d 00       		.byte	0
 1239 073e 17       		.uleb128 0x17
ARM GAS  /var/folders/qh/xwg3v3kj02qbxczjpdb8lzfr0000gn/T//cch5LI8o.s 			page 23


 1240 073f ED000000 		.4byte	.LASF105
 1241 0743 0D       		.byte	0xd
 1242 0744 9001     		.2byte	0x190
 1243 0746 00070000 		.4byte	0x700
 1244 074a 0B       		.uleb128 0xb
 1245 074b 5E000000 		.4byte	0x5e
 1246 074f 12       		.uleb128 0x12
 1247 0750 2C       		.byte	0x2c
 1248 0751 0D       		.byte	0xd
 1249 0752 AA02     		.2byte	0x2aa
 1250 0754 29080000 		.4byte	0x829
 1251 0758 13       		.uleb128 0x13
 1252 0759 43523100 		.ascii	"CR1\000"
 1253 075d 0D       		.byte	0xd
 1254 075e AC02     		.2byte	0x2ac
 1255 0760 25030000 		.4byte	0x325
 1256 0764 00       		.byte	0
 1257 0765 13       		.uleb128 0x13
 1258 0766 43523200 		.ascii	"CR2\000"
 1259 076a 0D       		.byte	0xd
 1260 076b AD02     		.2byte	0x2ad
 1261 076d 25030000 		.4byte	0x325
 1262 0771 04       		.byte	0x4
 1263 0772 13       		.uleb128 0x13
 1264 0773 43523300 		.ascii	"CR3\000"
 1265 0777 0D       		.byte	0xd
 1266 0778 AE02     		.2byte	0x2ae
 1267 077a 25030000 		.4byte	0x325
 1268 077e 08       		.byte	0x8
 1269 077f 13       		.uleb128 0x13
 1270 0780 42525200 		.ascii	"BRR\000"
 1271 0784 0D       		.byte	0xd
 1272 0785 AF02     		.2byte	0x2af
 1273 0787 4A070000 		.4byte	0x74a
 1274 078b 0C       		.byte	0xc
 1275 078c 14       		.uleb128 0x14
 1276 078d 27060000 		.4byte	.LASF96
 1277 0791 0D       		.byte	0xd
 1278 0792 B002     		.2byte	0x2b0
 1279 0794 5E000000 		.4byte	0x5e
 1280 0798 0E       		.byte	0xe
 1281 0799 14       		.uleb128 0x14
 1282 079a 00020000 		.4byte	.LASF106
 1283 079e 0D       		.byte	0xd
 1284 079f B102     		.2byte	0x2b1
 1285 07a1 4A070000 		.4byte	0x74a
 1286 07a5 10       		.byte	0x10
 1287 07a6 14       		.uleb128 0x14
 1288 07a7 31060000 		.4byte	.LASF97
 1289 07ab 0D       		.byte	0xd
 1290 07ac B202     		.2byte	0x2b2
 1291 07ae 5E000000 		.4byte	0x5e
 1292 07b2 12       		.byte	0x12
 1293 07b3 14       		.uleb128 0x14
 1294 07b4 77040000 		.4byte	.LASF107
 1295 07b8 0D       		.byte	0xd
 1296 07b9 B302     		.2byte	0x2b3
ARM GAS  /var/folders/qh/xwg3v3kj02qbxczjpdb8lzfr0000gn/T//cch5LI8o.s 			page 24


 1297 07bb 25030000 		.4byte	0x325
 1298 07bf 14       		.byte	0x14
 1299 07c0 13       		.uleb128 0x13
 1300 07c1 52515200 		.ascii	"RQR\000"
 1301 07c5 0D       		.byte	0xd
 1302 07c6 B402     		.2byte	0x2b4
 1303 07c8 4A070000 		.4byte	0x74a
 1304 07cc 18       		.byte	0x18
 1305 07cd 14       		.uleb128 0x14
 1306 07ce 3B060000 		.4byte	.LASF98
 1307 07d2 0D       		.byte	0xd
 1308 07d3 B502     		.2byte	0x2b5
 1309 07d5 5E000000 		.4byte	0x5e
 1310 07d9 1A       		.byte	0x1a
 1311 07da 13       		.uleb128 0x13
 1312 07db 49535200 		.ascii	"ISR\000"
 1313 07df 0D       		.byte	0xd
 1314 07e0 B602     		.2byte	0x2b6
 1315 07e2 25030000 		.4byte	0x325
 1316 07e6 1C       		.byte	0x1c
 1317 07e7 13       		.uleb128 0x13
 1318 07e8 49435200 		.ascii	"ICR\000"
 1319 07ec 0D       		.byte	0xd
 1320 07ed B702     		.2byte	0x2b7
 1321 07ef 25030000 		.4byte	0x325
 1322 07f3 20       		.byte	0x20
 1323 07f4 13       		.uleb128 0x13
 1324 07f5 52445200 		.ascii	"RDR\000"
 1325 07f9 0D       		.byte	0xd
 1326 07fa B802     		.2byte	0x2b8
 1327 07fc 4A070000 		.4byte	0x74a
 1328 0800 24       		.byte	0x24
 1329 0801 14       		.uleb128 0x14
 1330 0802 45060000 		.4byte	.LASF100
 1331 0806 0D       		.byte	0xd
 1332 0807 B902     		.2byte	0x2b9
 1333 0809 5E000000 		.4byte	0x5e
 1334 080d 26       		.byte	0x26
 1335 080e 13       		.uleb128 0x13
 1336 080f 54445200 		.ascii	"TDR\000"
 1337 0813 0D       		.byte	0xd
 1338 0814 BA02     		.2byte	0x2ba
 1339 0816 4A070000 		.4byte	0x74a
 1340 081a 28       		.byte	0x28
 1341 081b 14       		.uleb128 0x14
 1342 081c 4F060000 		.4byte	.LASF108
 1343 0820 0D       		.byte	0xd
 1344 0821 BB02     		.2byte	0x2bb
 1345 0823 5E000000 		.4byte	0x5e
 1346 0827 2A       		.byte	0x2a
 1347 0828 00       		.byte	0
 1348 0829 17       		.uleb128 0x17
 1349 082a 69030000 		.4byte	.LASF109
 1350 082e 0D       		.byte	0xd
 1351 082f BC02     		.2byte	0x2bc
 1352 0831 4F070000 		.4byte	0x74f
 1353 0835 08       		.uleb128 0x8
ARM GAS  /var/folders/qh/xwg3v3kj02qbxczjpdb8lzfr0000gn/T//cch5LI8o.s 			page 25


 1354 0836 0C       		.byte	0xc
 1355 0837 0E       		.byte	0xe
 1356 0838 B6       		.byte	0xb6
 1357 0839 7A080000 		.4byte	0x87a
 1358 083d 06       		.uleb128 0x6
 1359 083e D1050000 		.4byte	.LASF110
 1360 0842 0E       		.byte	0xe
 1361 0843 B7       		.byte	0xb7
 1362 0844 7A080000 		.4byte	0x87a
 1363 0848 00       		.byte	0
 1364 0849 06       		.uleb128 0x6
 1365 084a 54020000 		.4byte	.LASF111
 1366 084e 0E       		.byte	0xe
 1367 084f B8       		.byte	0xb8
 1368 0850 80080000 		.4byte	0x880
 1369 0854 04       		.byte	0x4
 1370 0855 06       		.uleb128 0x6
 1371 0856 0F040000 		.4byte	.LASF112
 1372 085a 0E       		.byte	0xe
 1373 085b B9       		.byte	0xb9
 1374 085c 45000000 		.4byte	0x45
 1375 0860 08       		.byte	0x8
 1376 0861 06       		.uleb128 0x6
 1377 0862 97080000 		.4byte	.LASF113
 1378 0866 0E       		.byte	0xe
 1379 0867 BB       		.byte	0xbb
 1380 0868 45000000 		.4byte	0x45
 1381 086c 09       		.byte	0x9
 1382 086d 06       		.uleb128 0x6
 1383 086e A6020000 		.4byte	.LASF114
 1384 0872 0E       		.byte	0xe
 1385 0873 BC       		.byte	0xbc
 1386 0874 45000000 		.4byte	0x45
 1387 0878 0A       		.byte	0xa
 1388 0879 00       		.byte	0
 1389 087a 09       		.uleb128 0x9
 1390 087b 04       		.byte	0x4
 1391 087c 3E070000 		.4byte	0x73e
 1392 0880 09       		.uleb128 0x9
 1393 0881 04       		.byte	0x4
 1394 0882 25030000 		.4byte	0x325
 1395 0886 03       		.uleb128 0x3
 1396 0887 40040000 		.4byte	.LASF115
 1397 088b 0E       		.byte	0xe
 1398 088c BD       		.byte	0xbd
 1399 088d 35080000 		.4byte	0x835
 1400 0891 0F       		.uleb128 0xf
 1401 0892 F6000000 		.4byte	0xf6
 1402 0896 AA080000 		.4byte	0x8aa
 1403 089a 10       		.uleb128 0x10
 1404 089b 87020000 		.4byte	0x287
 1405 089f 10       		.uleb128 0x10
 1406 08a0 45000000 		.4byte	0x45
 1407 08a4 10       		.uleb128 0x10
 1408 08a5 17010000 		.4byte	0x117
 1409 08a9 00       		.byte	0
 1410 08aa 09       		.uleb128 0x9
ARM GAS  /var/folders/qh/xwg3v3kj02qbxczjpdb8lzfr0000gn/T//cch5LI8o.s 			page 26


 1411 08ab 04       		.byte	0x4
 1412 08ac 91080000 		.4byte	0x891
 1413 08b0 0F       		.uleb128 0xf
 1414 08b1 F6000000 		.4byte	0xf6
 1415 08b5 C4080000 		.4byte	0x8c4
 1416 08b9 10       		.uleb128 0x10
 1417 08ba 87020000 		.4byte	0x287
 1418 08be 10       		.uleb128 0x10
 1419 08bf 17010000 		.4byte	0x117
 1420 08c3 00       		.byte	0
 1421 08c4 09       		.uleb128 0x9
 1422 08c5 04       		.byte	0x4
 1423 08c6 B0080000 		.4byte	0x8b0
 1424 08ca 0F       		.uleb128 0xf
 1425 08cb 2C000000 		.4byte	0x2c
 1426 08cf E8080000 		.4byte	0x8e8
 1427 08d3 10       		.uleb128 0x10
 1428 08d4 87020000 		.4byte	0x287
 1429 08d8 10       		.uleb128 0x10
 1430 08d9 BF050000 		.4byte	0x5bf
 1431 08dd 10       		.uleb128 0x10
 1432 08de 2C000000 		.4byte	0x2c
 1433 08e2 10       		.uleb128 0x10
 1434 08e3 17010000 		.4byte	0x117
 1435 08e7 00       		.byte	0
 1436 08e8 09       		.uleb128 0x9
 1437 08e9 04       		.byte	0x4
 1438 08ea CA080000 		.4byte	0x8ca
 1439 08ee 0F       		.uleb128 0xf
 1440 08ef 2C000000 		.4byte	0x2c
 1441 08f3 0C090000 		.4byte	0x90c
 1442 08f7 10       		.uleb128 0x10
 1443 08f8 87020000 		.4byte	0x287
 1444 08fc 10       		.uleb128 0x10
 1445 08fd 4D050000 		.4byte	0x54d
 1446 0901 10       		.uleb128 0x10
 1447 0902 2C000000 		.4byte	0x2c
 1448 0906 10       		.uleb128 0x10
 1449 0907 17010000 		.4byte	0x117
 1450 090b 00       		.byte	0
 1451 090c 09       		.uleb128 0x9
 1452 090d 04       		.byte	0x4
 1453 090e EE080000 		.4byte	0x8ee
 1454 0912 08       		.uleb128 0x8
 1455 0913 04       		.byte	0x4
 1456 0914 0F       		.byte	0xf
 1457 0915 96       		.byte	0x96
 1458 0916 33090000 		.4byte	0x933
 1459 091a 07       		.uleb128 0x7
 1460 091b 73657400 		.ascii	"set\000"
 1461 091f 0F       		.byte	0xf
 1462 0920 97       		.byte	0x97
 1463 0921 5E000000 		.4byte	0x5e
 1464 0925 00       		.byte	0
 1465 0926 06       		.uleb128 0x6
 1466 0927 E0020000 		.4byte	.LASF116
 1467 092b 0F       		.byte	0xf
ARM GAS  /var/folders/qh/xwg3v3kj02qbxczjpdb8lzfr0000gn/T//cch5LI8o.s 			page 27


 1468 092c 98       		.byte	0x98
 1469 092d 5E000000 		.4byte	0x5e
 1470 0931 02       		.byte	0x2
 1471 0932 00       		.byte	0
 1472 0933 0C       		.uleb128 0xc
 1473 0934 04       		.byte	0x4
 1474 0935 0F       		.byte	0xf
 1475 0936 94       		.byte	0x94
 1476 0937 4E090000 		.4byte	0x94e
 1477 093b 18       		.uleb128 0x18
 1478 093c 5700     		.ascii	"W\000"
 1479 093e 0F       		.byte	0xf
 1480 093f 95       		.byte	0x95
 1481 0940 82000000 		.4byte	0x82
 1482 0944 18       		.uleb128 0x18
 1483 0945 4800     		.ascii	"H\000"
 1484 0947 0F       		.byte	0xf
 1485 0948 99       		.byte	0x99
 1486 0949 12090000 		.4byte	0x912
 1487 094d 00       		.byte	0
 1488 094e 08       		.uleb128 0x8
 1489 094f 28       		.byte	0x28
 1490 0950 0F       		.byte	0xf
 1491 0951 8C       		.byte	0x8c
 1492 0952 CF090000 		.4byte	0x9cf
 1493 0956 06       		.uleb128 0x6
 1494 0957 B5020000 		.4byte	.LASF117
 1495 095b 0F       		.byte	0xf
 1496 095c 8E       		.byte	0x8e
 1497 095d 25030000 		.4byte	0x325
 1498 0961 00       		.byte	0
 1499 0962 06       		.uleb128 0x6
 1500 0963 C2060000 		.4byte	.LASF118
 1501 0967 0F       		.byte	0xf
 1502 0968 8F       		.byte	0x8f
 1503 0969 25030000 		.4byte	0x325
 1504 096d 04       		.byte	0x4
 1505 096e 06       		.uleb128 0x6
 1506 096f 8C050000 		.4byte	.LASF119
 1507 0973 0F       		.byte	0xf
 1508 0974 90       		.byte	0x90
 1509 0975 25030000 		.4byte	0x325
 1510 0979 08       		.byte	0x8
 1511 097a 06       		.uleb128 0x6
 1512 097b AC030000 		.4byte	.LASF120
 1513 097f 0F       		.byte	0xf
 1514 0980 91       		.byte	0x91
 1515 0981 25030000 		.4byte	0x325
 1516 0985 0C       		.byte	0xc
 1517 0986 07       		.uleb128 0x7
 1518 0987 49445200 		.ascii	"IDR\000"
 1519 098b 0F       		.byte	0xf
 1520 098c 92       		.byte	0x92
 1521 098d 25030000 		.4byte	0x325
 1522 0991 10       		.byte	0x10
 1523 0992 07       		.uleb128 0x7
 1524 0993 4F445200 		.ascii	"ODR\000"
ARM GAS  /var/folders/qh/xwg3v3kj02qbxczjpdb8lzfr0000gn/T//cch5LI8o.s 			page 28


 1525 0997 0F       		.byte	0xf
 1526 0998 93       		.byte	0x93
 1527 0999 25030000 		.4byte	0x325
 1528 099d 14       		.byte	0x14
 1529 099e 06       		.uleb128 0x6
 1530 099f 31000000 		.4byte	.LASF121
 1531 09a3 0F       		.byte	0xf
 1532 09a4 9A       		.byte	0x9a
 1533 09a5 CF090000 		.4byte	0x9cf
 1534 09a9 18       		.byte	0x18
 1535 09aa 06       		.uleb128 0x6
 1536 09ab A1080000 		.4byte	.LASF122
 1537 09af 0F       		.byte	0xf
 1538 09b0 9B       		.byte	0x9b
 1539 09b1 25030000 		.4byte	0x325
 1540 09b5 1C       		.byte	0x1c
 1541 09b6 06       		.uleb128 0x6
 1542 09b7 CC020000 		.4byte	.LASF123
 1543 09bb 0F       		.byte	0xf
 1544 09bc 9C       		.byte	0x9c
 1545 09bd 25030000 		.4byte	0x325
 1546 09c1 20       		.byte	0x20
 1547 09c2 06       		.uleb128 0x6
 1548 09c3 C7020000 		.4byte	.LASF124
 1549 09c7 0F       		.byte	0xf
 1550 09c8 9D       		.byte	0x9d
 1551 09c9 25030000 		.4byte	0x325
 1552 09cd 24       		.byte	0x24
 1553 09ce 00       		.byte	0
 1554 09cf 0B       		.uleb128 0xb
 1555 09d0 33090000 		.4byte	0x933
 1556 09d4 03       		.uleb128 0x3
 1557 09d5 16070000 		.4byte	.LASF125
 1558 09d9 0F       		.byte	0xf
 1559 09da 9E       		.byte	0x9e
 1560 09db 4E090000 		.4byte	0x94e
 1561 09df 03       		.uleb128 0x3
 1562 09e0 0A050000 		.4byte	.LASF126
 1563 09e4 0F       		.byte	0xf
 1564 09e5 F0       		.byte	0xf0
 1565 09e6 82000000 		.4byte	0x82
 1566 09ea 03       		.uleb128 0x3
 1567 09eb 2C080000 		.4byte	.LASF127
 1568 09ef 0F       		.byte	0xf
 1569 09f0 F5       		.byte	0xf5
 1570 09f1 82000000 		.4byte	0x82
 1571 09f5 03       		.uleb128 0x3
 1572 09f6 E5060000 		.4byte	.LASF128
 1573 09fa 0F       		.byte	0xf
 1574 09fb FD       		.byte	0xfd
 1575 09fc 000A0000 		.4byte	0xa00
 1576 0a00 09       		.uleb128 0x9
 1577 0a01 04       		.byte	0x4
 1578 0a02 D4090000 		.4byte	0x9d4
 1579 0a06 19       		.uleb128 0x19
 1580 0a07 01       		.byte	0x1
 1581 0a08 10       		.byte	0x10
ARM GAS  /var/folders/qh/xwg3v3kj02qbxczjpdb8lzfr0000gn/T//cch5LI8o.s 			page 29


 1582 0a09 4E       		.byte	0x4e
 1583 0a0a 330A0000 		.4byte	0xa33
 1584 0a0e 1A       		.uleb128 0x1a
 1585 0a0f F0060000 		.4byte	.LASF129
 1586 0a13 00       		.sleb128 0
 1587 0a14 1A       		.uleb128 0x1a
 1588 0a15 7C080000 		.4byte	.LASF130
 1589 0a19 01       		.sleb128 1
 1590 0a1a 1A       		.uleb128 0x1a
 1591 0a1b 8F070000 		.4byte	.LASF131
 1592 0a1f 02       		.sleb128 2
 1593 0a20 1A       		.uleb128 0x1a
 1594 0a21 E4050000 		.4byte	.LASF132
 1595 0a25 03       		.sleb128 3
 1596 0a26 1A       		.uleb128 0x1a
 1597 0a27 99030000 		.4byte	.LASF133
 1598 0a2b 04       		.sleb128 4
 1599 0a2c 1A       		.uleb128 0x1a
 1600 0a2d 7C040000 		.4byte	.LASF134
 1601 0a31 05       		.sleb128 5
 1602 0a32 00       		.byte	0
 1603 0a33 03       		.uleb128 0x3
 1604 0a34 A0070000 		.4byte	.LASF135
 1605 0a38 10       		.byte	0x10
 1606 0a39 55       		.byte	0x55
 1607 0a3a 060A0000 		.4byte	0xa06
 1608 0a3e 03       		.uleb128 0x3
 1609 0a3f 80050000 		.4byte	.LASF136
 1610 0a43 11       		.byte	0x11
 1611 0a44 8F       		.byte	0x8f
 1612 0a45 5E000000 		.4byte	0x5e
 1613 0a49 03       		.uleb128 0x3
 1614 0a4a 63060000 		.4byte	.LASF137
 1615 0a4e 11       		.byte	0x11
 1616 0a4f 94       		.byte	0x94
 1617 0a50 5E000000 		.4byte	0x5e
 1618 0a54 19       		.uleb128 0x19
 1619 0a55 01       		.byte	0x1
 1620 0a56 11       		.byte	0x11
 1621 0a57 9B       		.byte	0x9b
 1622 0a58 6F0A0000 		.4byte	0xa6f
 1623 0a5c 1A       		.uleb128 0x1a
 1624 0a5d 23070000 		.4byte	.LASF138
 1625 0a61 00       		.sleb128 0
 1626 0a62 1A       		.uleb128 0x1a
 1627 0a63 B8050000 		.4byte	.LASF139
 1628 0a67 01       		.sleb128 1
 1629 0a68 1A       		.uleb128 0x1a
 1630 0a69 5D030000 		.4byte	.LASF140
 1631 0a6d 02       		.sleb128 2
 1632 0a6e 00       		.byte	0
 1633 0a6f 03       		.uleb128 0x3
 1634 0a70 6B000000 		.4byte	.LASF141
 1635 0a74 11       		.byte	0x11
 1636 0a75 9F       		.byte	0x9f
 1637 0a76 540A0000 		.4byte	0xa54
 1638 0a7a 03       		.uleb128 0x3
ARM GAS  /var/folders/qh/xwg3v3kj02qbxczjpdb8lzfr0000gn/T//cch5LI8o.s 			page 30


 1639 0a7b B2030000 		.4byte	.LASF142
 1640 0a7f 11       		.byte	0x11
 1641 0a80 A4       		.byte	0xa4
 1642 0a81 850A0000 		.4byte	0xa85
 1643 0a85 05       		.uleb128 0x5
 1644 0a86 B2030000 		.4byte	.LASF142
 1645 0a8a 34       		.byte	0x34
 1646 0a8b 11       		.byte	0x11
 1647 0a8c F2       		.byte	0xf2
 1648 0a8d 110B0000 		.4byte	0xb11
 1649 0a91 06       		.uleb128 0x6
 1650 0a92 0A080000 		.4byte	.LASF143
 1651 0a96 11       		.byte	0x11
 1652 0a97 F6       		.byte	0xf6
 1653 0a98 330A0000 		.4byte	0xa33
 1654 0a9c 00       		.byte	0
 1655 0a9d 06       		.uleb128 0x6
 1656 0a9e 08060000 		.4byte	.LASF144
 1657 0aa2 11       		.byte	0x11
 1658 0aa3 FA       		.byte	0xfa
 1659 0aa4 F70B0000 		.4byte	0xbf7
 1660 0aa8 04       		.byte	0x4
 1661 0aa9 06       		.uleb128 0x6
 1662 0aaa A9040000 		.4byte	.LASF145
 1663 0aae 11       		.byte	0x11
 1664 0aaf FE       		.byte	0xfe
 1665 0ab0 3D0B0000 		.4byte	0xb3d
 1666 0ab4 08       		.byte	0x8
 1667 0ab5 14       		.uleb128 0x14
 1668 0ab6 D6040000 		.4byte	.LASF146
 1669 0aba 11       		.byte	0x11
 1670 0abb 0201     		.2byte	0x102
 1671 0abd 2C000000 		.4byte	0x2c
 1672 0ac1 0C       		.byte	0xc
 1673 0ac2 14       		.uleb128 0x14
 1674 0ac3 77080000 		.4byte	.LASF147
 1675 0ac7 11       		.byte	0x11
 1676 0ac8 0601     		.2byte	0x106
 1677 0aca 020C0000 		.4byte	0xc02
 1678 0ace 10       		.byte	0x10
 1679 0acf 14       		.uleb128 0x14
 1680 0ad0 B3070000 		.4byte	.LASF148
 1681 0ad4 11       		.byte	0x11
 1682 0ad5 0B01     		.2byte	0x10b
 1683 0ad7 4B020000 		.4byte	0x24b
 1684 0adb 14       		.byte	0x14
 1685 0adc 14       		.uleb128 0x14
 1686 0add 59020000 		.4byte	.LASF149
 1687 0ae1 11       		.byte	0x11
 1688 0ae2 1201     		.2byte	0x112
 1689 0ae4 C9030000 		.4byte	0x3c9
 1690 0ae8 18       		.byte	0x18
 1691 0ae9 13       		.uleb128 0x13
 1692 0aea 61646300 		.ascii	"adc\000"
 1693 0aee 11       		.byte	0x11
 1694 0aef 1E01     		.2byte	0x11e
 1695 0af1 0D0C0000 		.4byte	0xc0d
ARM GAS  /var/folders/qh/xwg3v3kj02qbxczjpdb8lzfr0000gn/T//cch5LI8o.s 			page 31


 1696 0af5 28       		.byte	0x28
 1697 0af6 14       		.uleb128 0x14
 1698 0af7 92030000 		.4byte	.LASF150
 1699 0afb 11       		.byte	0x11
 1700 0afc 2201     		.2byte	0x122
 1701 0afe 130C0000 		.4byte	0xc13
 1702 0b02 2C       		.byte	0x2c
 1703 0b03 14       		.uleb128 0x14
 1704 0b04 46000000 		.4byte	.LASF151
 1705 0b08 11       		.byte	0x11
 1706 0b09 2601     		.2byte	0x126
 1707 0b0b 82000000 		.4byte	0x82
 1708 0b0f 30       		.byte	0x30
 1709 0b10 00       		.byte	0
 1710 0b11 03       		.uleb128 0x3
 1711 0b12 F4040000 		.4byte	.LASF152
 1712 0b16 11       		.byte	0x11
 1713 0b17 AE       		.byte	0xae
 1714 0b18 1C0B0000 		.4byte	0xb1c
 1715 0b1c 09       		.uleb128 0x9
 1716 0b1d 04       		.byte	0x4
 1717 0b1e 220B0000 		.4byte	0xb22
 1718 0b22 11       		.uleb128 0x11
 1719 0b23 370B0000 		.4byte	0xb37
 1720 0b27 10       		.uleb128 0x10
 1721 0b28 370B0000 		.4byte	0xb37
 1722 0b2c 10       		.uleb128 0x10
 1723 0b2d 3D0B0000 		.4byte	0xb3d
 1724 0b31 10       		.uleb128 0x10
 1725 0b32 2C000000 		.4byte	0x2c
 1726 0b36 00       		.byte	0
 1727 0b37 09       		.uleb128 0x9
 1728 0b38 04       		.byte	0x4
 1729 0b39 7A0A0000 		.4byte	0xa7a
 1730 0b3d 09       		.uleb128 0x9
 1731 0b3e 04       		.byte	0x4
 1732 0b3f 3E0A0000 		.4byte	0xa3e
 1733 0b43 03       		.uleb128 0x3
 1734 0b44 15020000 		.4byte	.LASF153
 1735 0b48 11       		.byte	0x11
 1736 0b49 B7       		.byte	0xb7
 1737 0b4a 4E0B0000 		.4byte	0xb4e
 1738 0b4e 09       		.uleb128 0x9
 1739 0b4f 04       		.byte	0x4
 1740 0b50 540B0000 		.4byte	0xb54
 1741 0b54 11       		.uleb128 0x11
 1742 0b55 640B0000 		.4byte	0xb64
 1743 0b59 10       		.uleb128 0x10
 1744 0b5a 370B0000 		.4byte	0xb37
 1745 0b5e 10       		.uleb128 0x10
 1746 0b5f 6F0A0000 		.4byte	0xa6f
 1747 0b63 00       		.byte	0
 1748 0b64 08       		.uleb128 0x8
 1749 0b65 1C       		.byte	0x1c
 1750 0b66 11       		.byte	0x11
 1751 0b67 C1       		.byte	0xc1
 1752 0b68 CC0B0000 		.4byte	0xbcc
ARM GAS  /var/folders/qh/xwg3v3kj02qbxczjpdb8lzfr0000gn/T//cch5LI8o.s 			page 32


 1753 0b6c 06       		.uleb128 0x6
 1754 0b6d 86020000 		.4byte	.LASF154
 1755 0b71 11       		.byte	0x11
 1756 0b72 C5       		.byte	0xc5
 1757 0b73 AD000000 		.4byte	0xad
 1758 0b77 00       		.byte	0
 1759 0b78 06       		.uleb128 0x6
 1760 0b79 B5060000 		.4byte	.LASF155
 1761 0b7d 11       		.byte	0x11
 1762 0b7e C9       		.byte	0xc9
 1763 0b7f 490A0000 		.4byte	0xa49
 1764 0b83 02       		.byte	0x2
 1765 0b84 06       		.uleb128 0x6
 1766 0b85 77020000 		.4byte	.LASF156
 1767 0b89 11       		.byte	0x11
 1768 0b8a CD       		.byte	0xcd
 1769 0b8b 110B0000 		.4byte	0xb11
 1770 0b8f 04       		.byte	0x4
 1771 0b90 06       		.uleb128 0x6
 1772 0b91 D6000000 		.4byte	.LASF157
 1773 0b95 11       		.byte	0x11
 1774 0b96 D1       		.byte	0xd1
 1775 0b97 430B0000 		.4byte	0xb43
 1776 0b9b 08       		.byte	0x8
 1777 0b9c 06       		.uleb128 0x6
 1778 0b9d 80060000 		.4byte	.LASF158
 1779 0ba1 11       		.byte	0x11
 1780 0ba2 D6       		.byte	0xd6
 1781 0ba3 82000000 		.4byte	0x82
 1782 0ba7 0C       		.byte	0xc
 1783 0ba8 07       		.uleb128 0x7
 1784 0ba9 747200   		.ascii	"tr\000"
 1785 0bac 11       		.byte	0x11
 1786 0bad DA       		.byte	0xda
 1787 0bae 82000000 		.4byte	0x82
 1788 0bb2 10       		.byte	0x10
 1789 0bb3 06       		.uleb128 0x6
 1790 0bb4 01010000 		.4byte	.LASF159
 1791 0bb8 11       		.byte	0x11
 1792 0bb9 DE       		.byte	0xde
 1793 0bba 82000000 		.4byte	0x82
 1794 0bbe 14       		.byte	0x14
 1795 0bbf 06       		.uleb128 0x6
 1796 0bc0 99070000 		.4byte	.LASF160
 1797 0bc4 11       		.byte	0x11
 1798 0bc5 E4       		.byte	0xe4
 1799 0bc6 82000000 		.4byte	0x82
 1800 0bca 18       		.byte	0x18
 1801 0bcb 00       		.byte	0
 1802 0bcc 03       		.uleb128 0x3
 1803 0bcd A2060000 		.4byte	.LASF161
 1804 0bd1 11       		.byte	0x11
 1805 0bd2 E5       		.byte	0xe5
 1806 0bd3 640B0000 		.4byte	0xb64
 1807 0bd7 08       		.uleb128 0x8
 1808 0bd8 04       		.byte	0x4
 1809 0bd9 11       		.byte	0x11
ARM GAS  /var/folders/qh/xwg3v3kj02qbxczjpdb8lzfr0000gn/T//cch5LI8o.s 			page 33


 1810 0bda EB       		.byte	0xeb
 1811 0bdb EC0B0000 		.4byte	0xbec
 1812 0bdf 06       		.uleb128 0x6
 1813 0be0 CB000000 		.4byte	.LASF162
 1814 0be4 11       		.byte	0x11
 1815 0be5 EC       		.byte	0xec
 1816 0be6 82000000 		.4byte	0x82
 1817 0bea 00       		.byte	0
 1818 0beb 00       		.byte	0
 1819 0bec 03       		.uleb128 0x3
 1820 0bed EA040000 		.4byte	.LASF163
 1821 0bf1 11       		.byte	0x11
 1822 0bf2 ED       		.byte	0xed
 1823 0bf3 D70B0000 		.4byte	0xbd7
 1824 0bf7 09       		.uleb128 0x9
 1825 0bf8 04       		.byte	0x4
 1826 0bf9 FD0B0000 		.4byte	0xbfd
 1827 0bfd 0E       		.uleb128 0xe
 1828 0bfe EC0B0000 		.4byte	0xbec
 1829 0c02 09       		.uleb128 0x9
 1830 0c03 04       		.byte	0x4
 1831 0c04 080C0000 		.4byte	0xc08
 1832 0c08 0E       		.uleb128 0xe
 1833 0c09 CC0B0000 		.4byte	0xbcc
 1834 0c0d 09       		.uleb128 0x9
 1835 0c0e 04       		.byte	0x4
 1836 0c0f F4060000 		.4byte	0x6f4
 1837 0c13 09       		.uleb128 0x9
 1838 0c14 04       		.byte	0x4
 1839 0c15 190C0000 		.4byte	0xc19
 1840 0c19 0E       		.uleb128 0xe
 1841 0c1a 86080000 		.4byte	0x886
 1842 0c1e 19       		.uleb128 0x19
 1843 0c1f 01       		.byte	0x1
 1844 0c20 12       		.byte	0x12
 1845 0c21 5D       		.byte	0x5d
 1846 0c22 390C0000 		.4byte	0xc39
 1847 0c26 1A       		.uleb128 0x1a
 1848 0c27 0C070000 		.4byte	.LASF164
 1849 0c2b 00       		.sleb128 0
 1850 0c2c 1A       		.uleb128 0x1a
 1851 0c2d 55030000 		.4byte	.LASF165
 1852 0c31 01       		.sleb128 1
 1853 0c32 1A       		.uleb128 0x1a
 1854 0c33 EF050000 		.4byte	.LASF166
 1855 0c37 02       		.sleb128 2
 1856 0c38 00       		.byte	0
 1857 0c39 03       		.uleb128 0x3
 1858 0c3a 5F020000 		.4byte	.LASF167
 1859 0c3e 12       		.byte	0x12
 1860 0c3f 61       		.byte	0x61
 1861 0c40 1E0C0000 		.4byte	0xc1e
 1862 0c44 03       		.uleb128 0x3
 1863 0c45 16000000 		.4byte	.LASF168
 1864 0c49 12       		.byte	0x12
 1865 0c4a 66       		.byte	0x66
 1866 0c4b 4F0C0000 		.4byte	0xc4f
ARM GAS  /var/folders/qh/xwg3v3kj02qbxczjpdb8lzfr0000gn/T//cch5LI8o.s 			page 34


 1867 0c4f 05       		.uleb128 0x5
 1868 0c50 16000000 		.4byte	.LASF168
 1869 0c54 7C       		.byte	0x7c
 1870 0c55 12       		.byte	0x12
 1871 0c56 80       		.byte	0x80
 1872 0c57 C60C0000 		.4byte	0xcc6
 1873 0c5b 07       		.uleb128 0x7
 1874 0c5c 766D7400 		.ascii	"vmt\000"
 1875 0c60 12       		.byte	0x12
 1876 0c61 82       		.byte	0x82
 1877 0c62 770D0000 		.4byte	0xd77
 1878 0c66 00       		.byte	0
 1879 0c67 06       		.uleb128 0x6
 1880 0c68 69020000 		.4byte	.LASF169
 1881 0c6c 12       		.byte	0x12
 1882 0c6d 83       		.byte	0x83
 1883 0c6e 3B040000 		.4byte	0x43b
 1884 0c72 04       		.byte	0x4
 1885 0c73 06       		.uleb128 0x6
 1886 0c74 0A080000 		.4byte	.LASF143
 1887 0c78 12       		.byte	0x12
 1888 0c79 83       		.byte	0x83
 1889 0c7a 390C0000 		.4byte	0xc39
 1890 0c7e 08       		.byte	0x8
 1891 0c7f 06       		.uleb128 0x6
 1892 0c80 05020000 		.4byte	.LASF170
 1893 0c84 12       		.byte	0x12
 1894 0c85 83       		.byte	0x83
 1895 0c86 53050000 		.4byte	0x553
 1896 0c8a 0C       		.byte	0xc
 1897 0c8b 06       		.uleb128 0x6
 1898 0c8c A1050000 		.4byte	.LASF171
 1899 0c90 12       		.byte	0x12
 1900 0c91 83       		.byte	0x83
 1901 0c92 5E050000 		.4byte	0x55e
 1902 0c96 30       		.byte	0x30
 1903 0c97 07       		.uleb128 0x7
 1904 0c98 696200   		.ascii	"ib\000"
 1905 0c9b 12       		.byte	0x12
 1906 0c9c 83       		.byte	0x83
 1907 0c9d 820D0000 		.4byte	0xd82
 1908 0ca1 54       		.byte	0x54
 1909 0ca2 07       		.uleb128 0x7
 1910 0ca3 6F6200   		.ascii	"ob\000"
 1911 0ca6 12       		.byte	0x12
 1912 0ca7 83       		.byte	0x83
 1913 0ca8 820D0000 		.4byte	0xd82
 1914 0cac 64       		.byte	0x64
 1915 0cad 06       		.uleb128 0x6
 1916 0cae A3040000 		.4byte	.LASF172
 1917 0cb2 12       		.byte	0x12
 1918 0cb3 83       		.byte	0x83
 1919 0cb4 920D0000 		.4byte	0xd92
 1920 0cb8 74       		.byte	0x74
 1921 0cb9 06       		.uleb128 0x6
 1922 0cba A6030000 		.4byte	.LASF173
 1923 0cbe 12       		.byte	0x12
ARM GAS  /var/folders/qh/xwg3v3kj02qbxczjpdb8lzfr0000gn/T//cch5LI8o.s 			page 35


 1924 0cbf 83       		.byte	0x83
 1925 0cc0 82000000 		.4byte	0x82
 1926 0cc4 78       		.byte	0x78
 1927 0cc5 00       		.byte	0
 1928 0cc6 08       		.uleb128 0x8
 1929 0cc7 10       		.byte	0x10
 1930 0cc8 13       		.byte	0x13
 1931 0cc9 D7       		.byte	0xd7
 1932 0cca FF0C0000 		.4byte	0xcff
 1933 0cce 06       		.uleb128 0x6
 1934 0ccf ED010000 		.4byte	.LASF174
 1935 0cd3 13       		.byte	0x13
 1936 0cd4 DB       		.byte	0xdb
 1937 0cd5 82000000 		.4byte	0x82
 1938 0cd9 00       		.byte	0
 1939 0cda 07       		.uleb128 0x7
 1940 0cdb 63723100 		.ascii	"cr1\000"
 1941 0cdf 13       		.byte	0x13
 1942 0ce0 E0       		.byte	0xe0
 1943 0ce1 82000000 		.4byte	0x82
 1944 0ce5 04       		.byte	0x4
 1945 0ce6 07       		.uleb128 0x7
 1946 0ce7 63723200 		.ascii	"cr2\000"
 1947 0ceb 13       		.byte	0x13
 1948 0cec E4       		.byte	0xe4
 1949 0ced 82000000 		.4byte	0x82
 1950 0cf1 08       		.byte	0x8
 1951 0cf2 07       		.uleb128 0x7
 1952 0cf3 63723300 		.ascii	"cr3\000"
 1953 0cf7 13       		.byte	0x13
 1954 0cf8 E8       		.byte	0xe8
 1955 0cf9 82000000 		.4byte	0x82
 1956 0cfd 0C       		.byte	0xc
 1957 0cfe 00       		.byte	0
 1958 0cff 03       		.uleb128 0x3
 1959 0d00 47020000 		.4byte	.LASF175
 1960 0d04 13       		.byte	0x13
 1961 0d05 E9       		.byte	0xe9
 1962 0d06 C60C0000 		.4byte	0xcc6
 1963 0d0a 05       		.uleb128 0x5
 1964 0d0b F8050000 		.4byte	.LASF176
 1965 0d0f 20       		.byte	0x20
 1966 0d10 12       		.byte	0x12
 1967 0d11 75       		.byte	0x75
 1968 0d12 770D0000 		.4byte	0xd77
 1969 0d16 06       		.uleb128 0x6
 1970 0d17 BF040000 		.4byte	.LASF90
 1971 0d1b 12       		.byte	0x12
 1972 0d1c 76       		.byte	0x76
 1973 0d1d CA050000 		.4byte	0x5ca
 1974 0d21 00       		.byte	0
 1975 0d22 06       		.uleb128 0x6
 1976 0d23 FB060000 		.4byte	.LASF91
 1977 0d27 12       		.byte	0x12
 1978 0d28 76       		.byte	0x76
 1979 0d29 E9050000 		.4byte	0x5e9
 1980 0d2d 04       		.byte	0x4
ARM GAS  /var/folders/qh/xwg3v3kj02qbxczjpdb8lzfr0000gn/T//cch5LI8o.s 			page 36


 1981 0d2e 07       		.uleb128 0x7
 1982 0d2f 70757400 		.ascii	"put\000"
 1983 0d33 12       		.byte	0x12
 1984 0d34 76       		.byte	0x76
 1985 0d35 03060000 		.4byte	0x603
 1986 0d39 08       		.byte	0x8
 1987 0d3a 07       		.uleb128 0x7
 1988 0d3b 67657400 		.ascii	"get\000"
 1989 0d3f 12       		.byte	0x12
 1990 0d40 76       		.byte	0x76
 1991 0d41 9E040000 		.4byte	0x49e
 1992 0d45 0C       		.byte	0xc
 1993 0d46 06       		.uleb128 0x6
 1994 0d47 F5020000 		.4byte	.LASF177
 1995 0d4b 12       		.byte	0x12
 1996 0d4c 76       		.byte	0x76
 1997 0d4d AA080000 		.4byte	0x8aa
 1998 0d51 10       		.byte	0x10
 1999 0d52 06       		.uleb128 0x6
 2000 0d53 4C070000 		.4byte	.LASF178
 2001 0d57 12       		.byte	0x12
 2002 0d58 76       		.byte	0x76
 2003 0d59 C4080000 		.4byte	0x8c4
 2004 0d5d 14       		.byte	0x14
 2005 0d5e 06       		.uleb128 0x6
 2006 0d5f F3010000 		.4byte	.LASF179
 2007 0d63 12       		.byte	0x12
 2008 0d64 76       		.byte	0x76
 2009 0d65 E8080000 		.4byte	0x8e8
 2010 0d69 18       		.byte	0x18
 2011 0d6a 06       		.uleb128 0x6
 2012 0d6b 48080000 		.4byte	.LASF180
 2013 0d6f 12       		.byte	0x12
 2014 0d70 76       		.byte	0x76
 2015 0d71 0C090000 		.4byte	0x90c
 2016 0d75 1C       		.byte	0x1c
 2017 0d76 00       		.byte	0
 2018 0d77 09       		.uleb128 0x9
 2019 0d78 04       		.byte	0x4
 2020 0d79 7D0D0000 		.4byte	0xd7d
 2021 0d7d 0E       		.uleb128 0xe
 2022 0d7e 0A0D0000 		.4byte	0xd0a
 2023 0d82 15       		.uleb128 0x15
 2024 0d83 45000000 		.4byte	0x45
 2025 0d87 920D0000 		.4byte	0xd92
 2026 0d8b 16       		.uleb128 0x16
 2027 0d8c 2A030000 		.4byte	0x32a
 2028 0d90 0F       		.byte	0xf
 2029 0d91 00       		.byte	0
 2030 0d92 09       		.uleb128 0x9
 2031 0d93 04       		.byte	0x4
 2032 0d94 29080000 		.4byte	0x829
 2033 0d98 15       		.uleb128 0x15
 2034 0d99 89020000 		.4byte	0x289
 2035 0d9d A80D0000 		.4byte	0xda8
 2036 0da1 16       		.uleb128 0x16
 2037 0da2 2A030000 		.4byte	0x32a
ARM GAS  /var/folders/qh/xwg3v3kj02qbxczjpdb8lzfr0000gn/T//cch5LI8o.s 			page 37


 2038 0da6 25       		.byte	0x25
 2039 0da7 00       		.byte	0
 2040 0da8 03       		.uleb128 0x3
 2041 0da9 2E040000 		.4byte	.LASF181
 2042 0dad 14       		.byte	0x14
 2043 0dae 2D       		.byte	0x2d
 2044 0daf B30D0000 		.4byte	0xdb3
 2045 0db3 09       		.uleb128 0x9
 2046 0db4 04       		.byte	0x4
 2047 0db5 B90D0000 		.4byte	0xdb9
 2048 0db9 11       		.uleb128 0x11
 2049 0dba CE0D0000 		.4byte	0xdce
 2050 0dbe 10       		.uleb128 0x10
 2051 0dbf CE0D0000 		.4byte	0xdce
 2052 0dc3 10       		.uleb128 0x10
 2053 0dc4 25000000 		.4byte	0x25
 2054 0dc8 10       		.uleb128 0x10
 2055 0dc9 D40D0000 		.4byte	0xdd4
 2056 0dcd 00       		.byte	0
 2057 0dce 09       		.uleb128 0x9
 2058 0dcf 04       		.byte	0x4
 2059 0dd0 29060000 		.4byte	0x629
 2060 0dd4 09       		.uleb128 0x9
 2061 0dd5 04       		.byte	0x4
 2062 0dd6 DA0D0000 		.4byte	0xdda
 2063 0dda 09       		.uleb128 0x9
 2064 0ddb 04       		.byte	0x4
 2065 0ddc 86040000 		.4byte	0x486
 2066 0de0 08       		.uleb128 0x8
 2067 0de1 08       		.byte	0x8
 2068 0de2 14       		.byte	0x14
 2069 0de3 32       		.byte	0x32
 2070 0de4 010E0000 		.4byte	0xe01
 2071 0de8 06       		.uleb128 0x6
 2072 0de9 C9050000 		.4byte	.LASF182
 2073 0ded 14       		.byte	0x14
 2074 0dee 33       		.byte	0x33
 2075 0def 7B040000 		.4byte	0x47b
 2076 0df3 00       		.byte	0
 2077 0df4 06       		.uleb128 0x6
 2078 0df5 A6080000 		.4byte	.LASF183
 2079 0df9 14       		.byte	0x14
 2080 0dfa 34       		.byte	0x34
 2081 0dfb A80D0000 		.4byte	0xda8
 2082 0dff 04       		.byte	0x4
 2083 0e00 00       		.byte	0
 2084 0e01 03       		.uleb128 0x3
 2085 0e02 0F060000 		.4byte	.LASF184
 2086 0e06 14       		.byte	0x14
 2087 0e07 35       		.byte	0x35
 2088 0e08 E00D0000 		.4byte	0xde0
 2089 0e0c 08       		.uleb128 0x8
 2090 0e0d 08       		.byte	0x8
 2091 0e0e 14       		.byte	0x14
 2092 0e0f 3A       		.byte	0x3a
 2093 0e10 2D0E0000 		.4byte	0xe2d
 2094 0e14 06       		.uleb128 0x6
ARM GAS  /var/folders/qh/xwg3v3kj02qbxczjpdb8lzfr0000gn/T//cch5LI8o.s 			page 38


 2095 0e15 D9050000 		.4byte	.LASF185
 2096 0e19 14       		.byte	0x14
 2097 0e1a 3B       		.byte	0x3b
 2098 0e1b CE0D0000 		.4byte	0xdce
 2099 0e1f 00       		.byte	0
 2100 0e20 06       		.uleb128 0x6
 2101 0e21 36070000 		.4byte	.LASF186
 2102 0e25 14       		.byte	0x14
 2103 0e26 3D       		.byte	0x3d
 2104 0e27 2D0E0000 		.4byte	0xe2d
 2105 0e2b 04       		.byte	0x4
 2106 0e2c 00       		.byte	0
 2107 0e2d 09       		.uleb128 0x9
 2108 0e2e 04       		.byte	0x4
 2109 0e2f 330E0000 		.4byte	0xe33
 2110 0e33 0E       		.uleb128 0xe
 2111 0e34 010E0000 		.4byte	0xe01
 2112 0e38 03       		.uleb128 0x3
 2113 0e39 BB020000 		.4byte	.LASF187
 2114 0e3d 14       		.byte	0x14
 2115 0e3e 3F       		.byte	0x3f
 2116 0e3f 0C0E0000 		.4byte	0xe0c
 2117 0e43 1B       		.uleb128 0x1b
 2118 0e44 24080000 		.4byte	.LASF188
 2119 0e48 01       		.byte	0x1
 2120 0e49 3C       		.byte	0x3c
 2121 0e4a F6000000 		.4byte	0xf6
 2122 0e4e 00000000 		.4byte	.LFB42
 2123 0e52 30000000 		.4byte	.LFE42-.LFB42
 2124 0e56 01       		.uleb128 0x1
 2125 0e57 9C       		.byte	0x9c
 2126 0e58 900E0000 		.4byte	0xe90
 2127 0e5c 1C       		.uleb128 0x1c
 2128 0e5d 61726700 		.ascii	"arg\000"
 2129 0e61 01       		.byte	0x1
 2130 0e62 3C       		.byte	0x3c
 2131 0e63 87020000 		.4byte	0x287
 2132 0e67 00000000 		.4byte	.LLST0
 2133 0e6b 1D       		.uleb128 0x1d
 2134 0e6c 1A000000 		.4byte	.LVL2
 2135 0e70 D8100000 		.4byte	0x10d8
 2136 0e74 7F0E0000 		.4byte	0xe7f
 2137 0e78 1E       		.uleb128 0x1e
 2138 0e79 01       		.uleb128 0x1
 2139 0e7a 50       		.byte	0x50
 2140 0e7b 02       		.uleb128 0x2
 2141 0e7c 08       		.byte	0x8
 2142 0e7d FA       		.byte	0xfa
 2143 0e7e 00       		.byte	0
 2144 0e7f 1F       		.uleb128 0x1f
 2145 0e80 22000000 		.4byte	.LVL3
 2146 0e84 D8100000 		.4byte	0x10d8
 2147 0e88 1E       		.uleb128 0x1e
 2148 0e89 01       		.uleb128 0x1
 2149 0e8a 50       		.byte	0x50
 2150 0e8b 02       		.uleb128 0x2
 2151 0e8c 08       		.byte	0x8
ARM GAS  /var/folders/qh/xwg3v3kj02qbxczjpdb8lzfr0000gn/T//cch5LI8o.s 			page 39


 2152 0e8d FA       		.byte	0xfa
 2153 0e8e 00       		.byte	0
 2154 0e8f 00       		.byte	0
 2155 0e90 1B       		.uleb128 0x1b
 2156 0e91 1C080000 		.4byte	.LASF189
 2157 0e95 01       		.byte	0x1
 2158 0e96 2A       		.byte	0x2a
 2159 0e97 F6000000 		.4byte	0xf6
 2160 0e9b 00000000 		.4byte	.LFB41
 2161 0e9f 34000000 		.4byte	.LFE41-.LFB41
 2162 0ea3 01       		.uleb128 0x1
 2163 0ea4 9C       		.byte	0x9c
 2164 0ea5 DF0E0000 		.4byte	0xedf
 2165 0ea9 1C       		.uleb128 0x1c
 2166 0eaa 61726700 		.ascii	"arg\000"
 2167 0eae 01       		.byte	0x1
 2168 0eaf 2A       		.byte	0x2a
 2169 0eb0 87020000 		.4byte	0x287
 2170 0eb4 21000000 		.4byte	.LLST1
 2171 0eb8 1D       		.uleb128 0x1d
 2172 0eb9 1C000000 		.4byte	.LVL6
 2173 0ebd D8100000 		.4byte	0x10d8
 2174 0ec1 CD0E0000 		.4byte	0xecd
 2175 0ec5 1E       		.uleb128 0x1e
 2176 0ec6 01       		.uleb128 0x1
 2177 0ec7 50       		.byte	0x50
 2178 0ec8 03       		.uleb128 0x3
 2179 0ec9 0A       		.byte	0xa
 2180 0eca F401     		.2byte	0x1f4
 2181 0ecc 00       		.byte	0
 2182 0ecd 1F       		.uleb128 0x1f
 2183 0ece 26000000 		.4byte	.LVL7
 2184 0ed2 D8100000 		.4byte	0x10d8
 2185 0ed6 1E       		.uleb128 0x1e
 2186 0ed7 01       		.uleb128 0x1
 2187 0ed8 50       		.byte	0x50
 2188 0ed9 03       		.uleb128 0x3
 2189 0eda 0A       		.byte	0xa
 2190 0edb F401     		.2byte	0x1f4
 2191 0edd 00       		.byte	0
 2192 0ede 00       		.byte	0
 2193 0edf 20       		.uleb128 0x20
 2194 0ee0 72080000 		.4byte	.LASF207
 2195 0ee4 01       		.byte	0x1
 2196 0ee5 4B       		.byte	0x4b
 2197 0ee6 25000000 		.4byte	0x25
 2198 0eea 00000000 		.4byte	.LFB43
 2199 0eee AC000000 		.4byte	.LFE43-.LFB43
 2200 0ef2 01       		.uleb128 0x1
 2201 0ef3 9C       		.byte	0x9c
 2202 0ef4 48100000 		.4byte	0x1048
 2203 0ef8 21       		.uleb128 0x21
 2204 0ef9 736800   		.ascii	"sh\000"
 2205 0efc 01       		.byte	0x1
 2206 0efd 4D       		.byte	0x4d
 2207 0efe 4B020000 		.4byte	0x24b
 2208 0f02 42000000 		.4byte	.LLST2
ARM GAS  /var/folders/qh/xwg3v3kj02qbxczjpdb8lzfr0000gn/T//cch5LI8o.s 			page 40


 2209 0f06 22       		.uleb128 0x22
 2210 0f07 08000000 		.4byte	.LVL9
 2211 0f0b EA100000 		.4byte	0x10ea
 2212 0f0f 22       		.uleb128 0x22
 2213 0f10 0C000000 		.4byte	.LVL10
 2214 0f14 F1100000 		.4byte	0x10f1
 2215 0f18 1D       		.uleb128 0x1d
 2216 0f19 14000000 		.4byte	.LVL11
 2217 0f1d F8100000 		.4byte	0x10f8
 2218 0f21 2B0F0000 		.4byte	0xf2b
 2219 0f25 1E       		.uleb128 0x1e
 2220 0f26 01       		.uleb128 0x1
 2221 0f27 51       		.byte	0x51
 2222 0f28 01       		.uleb128 0x1
 2223 0f29 30       		.byte	0x30
 2224 0f2a 00       		.byte	0
 2225 0f2b 1D       		.uleb128 0x1d
 2226 0f2c 22000000 		.4byte	.LVL12
 2227 0f30 20110000 		.4byte	0x1120
 2228 0f34 4D0F0000 		.4byte	0xf4d
 2229 0f38 1E       		.uleb128 0x1e
 2230 0f39 01       		.uleb128 0x1
 2231 0f3a 52       		.byte	0x52
 2232 0f3b 02       		.uleb128 0x2
 2233 0f3c 08       		.byte	0x8
 2234 0f3d 82       		.byte	0x82
 2235 0f3e 1E       		.uleb128 0x1e
 2236 0f3f 01       		.uleb128 0x1
 2237 0f40 51       		.byte	0x51
 2238 0f41 03       		.uleb128 0x3
 2239 0f42 0A       		.byte	0xa
 2240 0f43 0002     		.2byte	0x200
 2241 0f45 1E       		.uleb128 0x1e
 2242 0f46 01       		.uleb128 0x1
 2243 0f47 50       		.byte	0x50
 2244 0f48 03       		.uleb128 0x3
 2245 0f49 42       		.byte	0x42
 2246 0f4a 4A       		.byte	0x4a
 2247 0f4b 24       		.byte	0x24
 2248 0f4c 00       		.byte	0
 2249 0f4d 1D       		.uleb128 0x1d
 2250 0f4e 30000000 		.4byte	.LVL13
 2251 0f52 20110000 		.4byte	0x1120
 2252 0f56 6F0F0000 		.4byte	0xf6f
 2253 0f5a 1E       		.uleb128 0x1e
 2254 0f5b 01       		.uleb128 0x1
 2255 0f5c 52       		.byte	0x52
 2256 0f5d 02       		.uleb128 0x2
 2257 0f5e 08       		.byte	0x8
 2258 0f5f 82       		.byte	0x82
 2259 0f60 1E       		.uleb128 0x1e
 2260 0f61 01       		.uleb128 0x1
 2261 0f62 51       		.byte	0x51
 2262 0f63 03       		.uleb128 0x3
 2263 0f64 0A       		.byte	0xa
 2264 0f65 0004     		.2byte	0x400
 2265 0f67 1E       		.uleb128 0x1e
ARM GAS  /var/folders/qh/xwg3v3kj02qbxczjpdb8lzfr0000gn/T//cch5LI8o.s 			page 41


 2266 0f68 01       		.uleb128 0x1
 2267 0f69 50       		.byte	0x50
 2268 0f6a 03       		.uleb128 0x3
 2269 0f6b 42       		.byte	0x42
 2270 0f6c 4A       		.byte	0x4a
 2271 0f6d 24       		.byte	0x24
 2272 0f6e 00       		.byte	0
 2273 0f6f 1D       		.uleb128 0x1d
 2274 0f70 3A000000 		.4byte	.LVL14
 2275 0f74 20110000 		.4byte	0x1120
 2276 0f78 900F0000 		.4byte	0xf90
 2277 0f7c 1E       		.uleb128 0x1e
 2278 0f7d 01       		.uleb128 0x1
 2279 0f7e 52       		.byte	0x52
 2280 0f7f 01       		.uleb128 0x1
 2281 0f80 33       		.byte	0x33
 2282 0f81 1E       		.uleb128 0x1e
 2283 0f82 01       		.uleb128 0x1
 2284 0f83 51       		.byte	0x51
 2285 0f84 01       		.uleb128 0x1
 2286 0f85 33       		.byte	0x33
 2287 0f86 1E       		.uleb128 0x1e
 2288 0f87 01       		.uleb128 0x1
 2289 0f88 50       		.byte	0x50
 2290 0f89 05       		.uleb128 0x5
 2291 0f8a 0C       		.byte	0xc
 2292 0f8b 00080048 		.4byte	0x48000800
 2293 0f8f 00       		.byte	0
 2294 0f90 1D       		.uleb128 0x1d
 2295 0f91 4C000000 		.4byte	.LVL15
 2296 0f95 3C110000 		.4byte	0x113c
 2297 0f99 C40F0000 		.4byte	0xfc4
 2298 0f9d 1E       		.uleb128 0x1e
 2299 0f9e 01       		.uleb128 0x1
 2300 0f9f 53       		.byte	0x53
 2301 0fa0 05       		.uleb128 0x5
 2302 0fa1 03       		.byte	0x3
 2303 0fa2 00000000 		.4byte	Thread1
 2304 0fa6 1E       		.uleb128 0x1e
 2305 0fa7 01       		.uleb128 0x1
 2306 0fa8 52       		.byte	0x52
 2307 0fa9 02       		.uleb128 0x2
 2308 0faa 08       		.byte	0x8
 2309 0fab 40       		.byte	0x40
 2310 0fac 1E       		.uleb128 0x1e
 2311 0fad 01       		.uleb128 0x1
 2312 0fae 51       		.byte	0x51
 2313 0faf 03       		.uleb128 0x3
 2314 0fb0 0A       		.byte	0xa
 2315 0fb1 3001     		.2byte	0x130
 2316 0fb3 1E       		.uleb128 0x1e
 2317 0fb4 01       		.uleb128 0x1
 2318 0fb5 50       		.byte	0x50
 2319 0fb6 05       		.uleb128 0x5
 2320 0fb7 03       		.byte	0x3
 2321 0fb8 00000000 		.4byte	.LANCHOR0
 2322 0fbc 1E       		.uleb128 0x1e
ARM GAS  /var/folders/qh/xwg3v3kj02qbxczjpdb8lzfr0000gn/T//cch5LI8o.s 			page 42


 2323 0fbd 02       		.uleb128 0x2
 2324 0fbe 7D       		.byte	0x7d
 2325 0fbf 00       		.sleb128 0
 2326 0fc0 02       		.uleb128 0x2
 2327 0fc1 74       		.byte	0x74
 2328 0fc2 00       		.sleb128 0
 2329 0fc3 00       		.byte	0
 2330 0fc4 1D       		.uleb128 0x1d
 2331 0fc5 5C000000 		.4byte	.LVL16
 2332 0fc9 3C110000 		.4byte	0x113c
 2333 0fcd F80F0000 		.4byte	0xff8
 2334 0fd1 1E       		.uleb128 0x1e
 2335 0fd2 01       		.uleb128 0x1
 2336 0fd3 53       		.byte	0x53
 2337 0fd4 05       		.uleb128 0x5
 2338 0fd5 03       		.byte	0x3
 2339 0fd6 00000000 		.4byte	Thread2
 2340 0fda 1E       		.uleb128 0x1e
 2341 0fdb 01       		.uleb128 0x1
 2342 0fdc 52       		.byte	0x52
 2343 0fdd 02       		.uleb128 0x2
 2344 0fde 08       		.byte	0x8
 2345 0fdf 40       		.byte	0x40
 2346 0fe0 1E       		.uleb128 0x1e
 2347 0fe1 01       		.uleb128 0x1
 2348 0fe2 51       		.byte	0x51
 2349 0fe3 03       		.uleb128 0x3
 2350 0fe4 0A       		.byte	0xa
 2351 0fe5 3001     		.2byte	0x130
 2352 0fe7 1E       		.uleb128 0x1e
 2353 0fe8 01       		.uleb128 0x1
 2354 0fe9 50       		.byte	0x50
 2355 0fea 05       		.uleb128 0x5
 2356 0feb 03       		.byte	0x3
 2357 0fec 00000000 		.4byte	.LANCHOR1
 2358 0ff0 1E       		.uleb128 0x1e
 2359 0ff1 02       		.uleb128 0x2
 2360 0ff2 7D       		.byte	0x7d
 2361 0ff3 00       		.sleb128 0
 2362 0ff4 02       		.uleb128 0x2
 2363 0ff5 74       		.byte	0x74
 2364 0ff6 00       		.sleb128 0
 2365 0ff7 00       		.byte	0
 2366 0ff8 22       		.uleb128 0x22
 2367 0ff9 60000000 		.4byte	.LVL17
 2368 0ffd 66110000 		.4byte	0x1166
 2369 1001 1D       		.uleb128 0x1d
 2370 1002 6C000000 		.4byte	.LVL19
 2371 1006 D8100000 		.4byte	0x10d8
 2372 100a 16100000 		.4byte	0x1016
 2373 100e 1E       		.uleb128 0x1e
 2374 100f 01       		.uleb128 0x1
 2375 1010 50       		.byte	0x50
 2376 1011 03       		.uleb128 0x3
 2377 1012 0A       		.byte	0xa
 2378 1013 E803     		.2byte	0x3e8
 2379 1015 00       		.byte	0
ARM GAS  /var/folders/qh/xwg3v3kj02qbxczjpdb8lzfr0000gn/T//cch5LI8o.s 			page 43


 2380 1016 1D       		.uleb128 0x1d
 2381 1017 7C000000 		.4byte	.LVL20
 2382 101b 6D110000 		.4byte	0x116d
 2383 101f 2A100000 		.4byte	0x102a
 2384 1023 1E       		.uleb128 0x1e
 2385 1024 01       		.uleb128 0x1
 2386 1025 50       		.byte	0x50
 2387 1026 02       		.uleb128 0x2
 2388 1027 74       		.byte	0x74
 2389 1028 00       		.sleb128 0
 2390 1029 00       		.byte	0
 2391 102a 1F       		.uleb128 0x1f
 2392 102b 8C000000 		.4byte	.LVL22
 2393 102f 7E110000 		.4byte	0x117e
 2394 1033 1E       		.uleb128 0x1e
 2395 1034 01       		.uleb128 0x1
 2396 1035 52       		.byte	0x52
 2397 1036 02       		.uleb128 0x2
 2398 1037 08       		.byte	0x8
 2399 1038 40       		.byte	0x40
 2400 1039 1E       		.uleb128 0x1e
 2401 103a 01       		.uleb128 0x1
 2402 103b 51       		.byte	0x51
 2403 103c 03       		.uleb128 0x3
 2404 103d 0A       		.byte	0xa
 2405 103e B004     		.2byte	0x4b0
 2406 1040 1E       		.uleb128 0x1e
 2407 1041 01       		.uleb128 0x1
 2408 1042 50       		.byte	0x50
 2409 1043 02       		.uleb128 0x2
 2410 1044 75       		.byte	0x75
 2411 1045 00       		.sleb128 0
 2412 1046 00       		.byte	0
 2413 1047 00       		.byte	0
 2414 1048 23       		.uleb128 0x23
 2415 1049 06010000 		.4byte	.LASF190
 2416 104d 15       		.byte	0x15
 2417 104e 0B       		.byte	0xb
 2418 104f 59100000 		.4byte	0x1059
 2419 1053 05       		.uleb128 0x5
 2420 1054 03       		.byte	0x3
 2421 1055 00000000 		.4byte	shCfg
 2422 1059 0E       		.uleb128 0xe
 2423 105a 380E0000 		.4byte	0xe38
 2424 105e 24       		.uleb128 0x24
 2425 105f 86040000 		.4byte	.LASF208
 2426 1063 19       		.byte	0x19
 2427 1064 15       		.byte	0x15
 2428 1065 080C0000 		.4byte	0xc08
 2429 1069 23       		.uleb128 0x23
 2430 106a BA070000 		.4byte	.LASF191
 2431 106e 01       		.byte	0x1
 2432 106f 29       		.byte	0x29
 2433 1070 980D0000 		.4byte	0xd98
 2434 1074 05       		.uleb128 0x5
 2435 1075 03       		.byte	0x3
 2436 1076 00000000 		.4byte	waThread1
ARM GAS  /var/folders/qh/xwg3v3kj02qbxczjpdb8lzfr0000gn/T//cch5LI8o.s 			page 44


 2437 107a 23       		.uleb128 0x23
 2438 107b C4070000 		.4byte	.LASF192
 2439 107f 01       		.byte	0x1
 2440 1080 3B       		.byte	0x3b
 2441 1081 980D0000 		.4byte	0xd98
 2442 1085 05       		.uleb128 0x5
 2443 1086 03       		.byte	0x3
 2444 1087 00000000 		.4byte	waThread2
 2445 108b 25       		.uleb128 0x25
 2446 108c DF060000 		.4byte	.LASF193
 2447 1090 08       		.byte	0x8
 2448 1091 68       		.byte	0x68
 2449 1092 87030000 		.4byte	0x387
 2450 1096 26       		.uleb128 0x26
 2451 1097 53443100 		.ascii	"SD1\000"
 2452 109b 13       		.byte	0x13
 2453 109c 1101     		.2byte	0x111
 2454 109e 440C0000 		.4byte	0xc44
 2455 10a2 15       		.uleb128 0x15
 2456 10a3 010E0000 		.4byte	0xe01
 2457 10a7 B2100000 		.4byte	0x10b2
 2458 10ab 16       		.uleb128 0x16
 2459 10ac 2A030000 		.4byte	0x32a
 2460 10b0 01       		.byte	0x1
 2461 10b1 00       		.byte	0
 2462 10b2 27       		.uleb128 0x27
 2463 10b3 39040000 		.4byte	.LASF194
 2464 10b7 15       		.byte	0x15
 2465 10b8 06       		.byte	0x6
 2466 10b9 C3100000 		.4byte	0x10c3
 2467 10bd 05       		.uleb128 0x5
 2468 10be 03       		.byte	0x3
 2469 10bf 00000000 		.4byte	shCmds
 2470 10c3 0E       		.uleb128 0xe
 2471 10c4 A2100000 		.4byte	0x10a2
 2472 10c8 28       		.uleb128 0x28
 2473 10c9 736800   		.ascii	"sh\000"
 2474 10cc 01       		.byte	0x1
 2475 10cd 23       		.byte	0x23
 2476 10ce 4B020000 		.4byte	0x24b
 2477 10d2 05       		.uleb128 0x5
 2478 10d3 03       		.byte	0x3
 2479 10d4 00000000 		.4byte	sh
 2480 10d8 29       		.uleb128 0x29
 2481 10d9 ED070000 		.4byte	.LASF197
 2482 10dd 06       		.byte	0x6
 2483 10de 6E01     		.2byte	0x16e
 2484 10e0 EA100000 		.4byte	0x10ea
 2485 10e4 10       		.uleb128 0x10
 2486 10e5 17010000 		.4byte	0x117
 2487 10e9 00       		.byte	0
 2488 10ea 2A       		.uleb128 0x2a
 2489 10eb 26040000 		.4byte	.LASF195
 2490 10ef 16       		.byte	0x16
 2491 10f0 CA       		.byte	0xca
 2492 10f1 2A       		.uleb128 0x2a
 2493 10f2 F5030000 		.4byte	.LASF196
ARM GAS  /var/folders/qh/xwg3v3kj02qbxczjpdb8lzfr0000gn/T//cch5LI8o.s 			page 45


 2494 10f6 17       		.byte	0x17
 2495 10f7 EF       		.byte	0xef
 2496 10f8 29       		.uleb128 0x29
 2497 10f9 AD020000 		.4byte	.LASF198
 2498 10fd 12       		.byte	0x12
 2499 10fe 3001     		.2byte	0x130
 2500 1100 0F110000 		.4byte	0x110f
 2501 1104 10       		.uleb128 0x10
 2502 1105 0F110000 		.4byte	0x110f
 2503 1109 10       		.uleb128 0x10
 2504 110a 15110000 		.4byte	0x1115
 2505 110e 00       		.byte	0
 2506 110f 09       		.uleb128 0x9
 2507 1110 04       		.byte	0x4
 2508 1111 440C0000 		.4byte	0xc44
 2509 1115 09       		.uleb128 0x9
 2510 1116 04       		.byte	0x4
 2511 1117 1B110000 		.4byte	0x111b
 2512 111b 0E       		.uleb128 0xe
 2513 111c FF0C0000 		.4byte	0xcff
 2514 1120 29       		.uleb128 0x29
 2515 1121 83000000 		.4byte	.LASF199
 2516 1125 0F       		.byte	0xf
 2517 1126 C201     		.2byte	0x1c2
 2518 1128 3C110000 		.4byte	0x113c
 2519 112c 10       		.uleb128 0x10
 2520 112d F5090000 		.4byte	0x9f5
 2521 1131 10       		.uleb128 0x10
 2522 1132 DF090000 		.4byte	0x9df
 2523 1136 10       		.uleb128 0x10
 2524 1137 EA090000 		.4byte	0x9ea
 2525 113b 00       		.byte	0
 2526 113c 2B       		.uleb128 0x2b
 2527 113d 4E050000 		.4byte	.LASF202
 2528 1141 06       		.byte	0x6
 2529 1142 6901     		.2byte	0x169
 2530 1144 4B020000 		.4byte	0x24b
 2531 1148 66110000 		.4byte	0x1166
 2532 114c 10       		.uleb128 0x10
 2533 114d 87020000 		.4byte	0x287
 2534 1151 10       		.uleb128 0x10
 2535 1152 2C000000 		.4byte	0x2c
 2536 1156 10       		.uleb128 0x10
 2537 1157 EB000000 		.4byte	0xeb
 2538 115b 10       		.uleb128 0x10
 2539 115c 93040000 		.4byte	0x493
 2540 1160 10       		.uleb128 0x10
 2541 1161 87020000 		.4byte	0x287
 2542 1165 00       		.byte	0
 2543 1166 2A       		.uleb128 0x2a
 2544 1167 76050000 		.4byte	.LASF200
 2545 116b 14       		.byte	0x14
 2546 116c 48       		.byte	0x48
 2547 116d 2C       		.uleb128 0x2c
 2548 116e 35050000 		.4byte	.LASF201
 2549 1172 18       		.byte	0x18
 2550 1173 33       		.byte	0x33
ARM GAS  /var/folders/qh/xwg3v3kj02qbxczjpdb8lzfr0000gn/T//cch5LI8o.s 			page 46


 2551 1174 7E110000 		.4byte	0x117e
 2552 1178 10       		.uleb128 0x10
 2553 1179 4B020000 		.4byte	0x24b
 2554 117d 00       		.byte	0
 2555 117e 2D       		.uleb128 0x2d
 2556 117f 28020000 		.4byte	.LASF203
 2557 1183 14       		.byte	0x14
 2558 1184 4A       		.byte	0x4a
 2559 1185 4B020000 		.4byte	0x24b
 2560 1189 9D110000 		.4byte	0x119d
 2561 118d 10       		.uleb128 0x10
 2562 118e 9D110000 		.4byte	0x119d
 2563 1192 10       		.uleb128 0x10
 2564 1193 2C000000 		.4byte	0x2c
 2565 1197 10       		.uleb128 0x10
 2566 1198 EB000000 		.4byte	0xeb
 2567 119c 00       		.byte	0
 2568 119d 09       		.uleb128 0x9
 2569 119e 04       		.byte	0x4
 2570 119f 59100000 		.4byte	0x1059
 2571 11a3 00       		.byte	0
 2572              		.section	.debug_abbrev,"",%progbits
 2573              	.Ldebug_abbrev0:
 2574 0000 01       		.uleb128 0x1
 2575 0001 11       		.uleb128 0x11
 2576 0002 01       		.byte	0x1
 2577 0003 25       		.uleb128 0x25
 2578 0004 0E       		.uleb128 0xe
 2579 0005 13       		.uleb128 0x13
 2580 0006 0B       		.uleb128 0xb
 2581 0007 03       		.uleb128 0x3
 2582 0008 0E       		.uleb128 0xe
 2583 0009 1B       		.uleb128 0x1b
 2584 000a 0E       		.uleb128 0xe
 2585 000b 55       		.uleb128 0x55
 2586 000c 17       		.uleb128 0x17
 2587 000d 11       		.uleb128 0x11
 2588 000e 01       		.uleb128 0x1
 2589 000f 10       		.uleb128 0x10
 2590 0010 17       		.uleb128 0x17
 2591 0011 00       		.byte	0
 2592 0012 00       		.byte	0
 2593 0013 02       		.uleb128 0x2
 2594 0014 24       		.uleb128 0x24
 2595 0015 00       		.byte	0
 2596 0016 0B       		.uleb128 0xb
 2597 0017 0B       		.uleb128 0xb
 2598 0018 3E       		.uleb128 0x3e
 2599 0019 0B       		.uleb128 0xb
 2600 001a 03       		.uleb128 0x3
 2601 001b 08       		.uleb128 0x8
 2602 001c 00       		.byte	0
 2603 001d 00       		.byte	0
 2604 001e 03       		.uleb128 0x3
 2605 001f 16       		.uleb128 0x16
 2606 0020 00       		.byte	0
 2607 0021 03       		.uleb128 0x3
ARM GAS  /var/folders/qh/xwg3v3kj02qbxczjpdb8lzfr0000gn/T//cch5LI8o.s 			page 47


 2608 0022 0E       		.uleb128 0xe
 2609 0023 3A       		.uleb128 0x3a
 2610 0024 0B       		.uleb128 0xb
 2611 0025 3B       		.uleb128 0x3b
 2612 0026 0B       		.uleb128 0xb
 2613 0027 49       		.uleb128 0x49
 2614 0028 13       		.uleb128 0x13
 2615 0029 00       		.byte	0
 2616 002a 00       		.byte	0
 2617 002b 04       		.uleb128 0x4
 2618 002c 24       		.uleb128 0x24
 2619 002d 00       		.byte	0
 2620 002e 0B       		.uleb128 0xb
 2621 002f 0B       		.uleb128 0xb
 2622 0030 3E       		.uleb128 0x3e
 2623 0031 0B       		.uleb128 0xb
 2624 0032 03       		.uleb128 0x3
 2625 0033 0E       		.uleb128 0xe
 2626 0034 00       		.byte	0
 2627 0035 00       		.byte	0
 2628 0036 05       		.uleb128 0x5
 2629 0037 13       		.uleb128 0x13
 2630 0038 01       		.byte	0x1
 2631 0039 03       		.uleb128 0x3
 2632 003a 0E       		.uleb128 0xe
 2633 003b 0B       		.uleb128 0xb
 2634 003c 0B       		.uleb128 0xb
 2635 003d 3A       		.uleb128 0x3a
 2636 003e 0B       		.uleb128 0xb
 2637 003f 3B       		.uleb128 0x3b
 2638 0040 0B       		.uleb128 0xb
 2639 0041 01       		.uleb128 0x1
 2640 0042 13       		.uleb128 0x13
 2641 0043 00       		.byte	0
 2642 0044 00       		.byte	0
 2643 0045 06       		.uleb128 0x6
 2644 0046 0D       		.uleb128 0xd
 2645 0047 00       		.byte	0
 2646 0048 03       		.uleb128 0x3
 2647 0049 0E       		.uleb128 0xe
 2648 004a 3A       		.uleb128 0x3a
 2649 004b 0B       		.uleb128 0xb
 2650 004c 3B       		.uleb128 0x3b
 2651 004d 0B       		.uleb128 0xb
 2652 004e 49       		.uleb128 0x49
 2653 004f 13       		.uleb128 0x13
 2654 0050 38       		.uleb128 0x38
 2655 0051 0B       		.uleb128 0xb
 2656 0052 00       		.byte	0
 2657 0053 00       		.byte	0
 2658 0054 07       		.uleb128 0x7
 2659 0055 0D       		.uleb128 0xd
 2660 0056 00       		.byte	0
 2661 0057 03       		.uleb128 0x3
 2662 0058 08       		.uleb128 0x8
 2663 0059 3A       		.uleb128 0x3a
 2664 005a 0B       		.uleb128 0xb
ARM GAS  /var/folders/qh/xwg3v3kj02qbxczjpdb8lzfr0000gn/T//cch5LI8o.s 			page 48


 2665 005b 3B       		.uleb128 0x3b
 2666 005c 0B       		.uleb128 0xb
 2667 005d 49       		.uleb128 0x49
 2668 005e 13       		.uleb128 0x13
 2669 005f 38       		.uleb128 0x38
 2670 0060 0B       		.uleb128 0xb
 2671 0061 00       		.byte	0
 2672 0062 00       		.byte	0
 2673 0063 08       		.uleb128 0x8
 2674 0064 13       		.uleb128 0x13
 2675 0065 01       		.byte	0x1
 2676 0066 0B       		.uleb128 0xb
 2677 0067 0B       		.uleb128 0xb
 2678 0068 3A       		.uleb128 0x3a
 2679 0069 0B       		.uleb128 0xb
 2680 006a 3B       		.uleb128 0x3b
 2681 006b 0B       		.uleb128 0xb
 2682 006c 01       		.uleb128 0x1
 2683 006d 13       		.uleb128 0x13
 2684 006e 00       		.byte	0
 2685 006f 00       		.byte	0
 2686 0070 09       		.uleb128 0x9
 2687 0071 0F       		.uleb128 0xf
 2688 0072 00       		.byte	0
 2689 0073 0B       		.uleb128 0xb
 2690 0074 0B       		.uleb128 0xb
 2691 0075 49       		.uleb128 0x49
 2692 0076 13       		.uleb128 0x13
 2693 0077 00       		.byte	0
 2694 0078 00       		.byte	0
 2695 0079 0A       		.uleb128 0xa
 2696 007a 0F       		.uleb128 0xf
 2697 007b 00       		.byte	0
 2698 007c 0B       		.uleb128 0xb
 2699 007d 0B       		.uleb128 0xb
 2700 007e 00       		.byte	0
 2701 007f 00       		.byte	0
 2702 0080 0B       		.uleb128 0xb
 2703 0081 35       		.uleb128 0x35
 2704 0082 00       		.byte	0
 2705 0083 49       		.uleb128 0x49
 2706 0084 13       		.uleb128 0x13
 2707 0085 00       		.byte	0
 2708 0086 00       		.byte	0
 2709 0087 0C       		.uleb128 0xc
 2710 0088 17       		.uleb128 0x17
 2711 0089 01       		.byte	0x1
 2712 008a 0B       		.uleb128 0xb
 2713 008b 0B       		.uleb128 0xb
 2714 008c 3A       		.uleb128 0x3a
 2715 008d 0B       		.uleb128 0xb
 2716 008e 3B       		.uleb128 0x3b
 2717 008f 0B       		.uleb128 0xb
 2718 0090 01       		.uleb128 0x1
 2719 0091 13       		.uleb128 0x13
 2720 0092 00       		.byte	0
 2721 0093 00       		.byte	0
ARM GAS  /var/folders/qh/xwg3v3kj02qbxczjpdb8lzfr0000gn/T//cch5LI8o.s 			page 49


 2722 0094 0D       		.uleb128 0xd
 2723 0095 0D       		.uleb128 0xd
 2724 0096 00       		.byte	0
 2725 0097 03       		.uleb128 0x3
 2726 0098 0E       		.uleb128 0xe
 2727 0099 3A       		.uleb128 0x3a
 2728 009a 0B       		.uleb128 0xb
 2729 009b 3B       		.uleb128 0x3b
 2730 009c 0B       		.uleb128 0xb
 2731 009d 49       		.uleb128 0x49
 2732 009e 13       		.uleb128 0x13
 2733 009f 00       		.byte	0
 2734 00a0 00       		.byte	0
 2735 00a1 0E       		.uleb128 0xe
 2736 00a2 26       		.uleb128 0x26
 2737 00a3 00       		.byte	0
 2738 00a4 49       		.uleb128 0x49
 2739 00a5 13       		.uleb128 0x13
 2740 00a6 00       		.byte	0
 2741 00a7 00       		.byte	0
 2742 00a8 0F       		.uleb128 0xf
 2743 00a9 15       		.uleb128 0x15
 2744 00aa 01       		.byte	0x1
 2745 00ab 27       		.uleb128 0x27
 2746 00ac 19       		.uleb128 0x19
 2747 00ad 49       		.uleb128 0x49
 2748 00ae 13       		.uleb128 0x13
 2749 00af 01       		.uleb128 0x1
 2750 00b0 13       		.uleb128 0x13
 2751 00b1 00       		.byte	0
 2752 00b2 00       		.byte	0
 2753 00b3 10       		.uleb128 0x10
 2754 00b4 05       		.uleb128 0x5
 2755 00b5 00       		.byte	0
 2756 00b6 49       		.uleb128 0x49
 2757 00b7 13       		.uleb128 0x13
 2758 00b8 00       		.byte	0
 2759 00b9 00       		.byte	0
 2760 00ba 11       		.uleb128 0x11
 2761 00bb 15       		.uleb128 0x15
 2762 00bc 01       		.byte	0x1
 2763 00bd 27       		.uleb128 0x27
 2764 00be 19       		.uleb128 0x19
 2765 00bf 01       		.uleb128 0x1
 2766 00c0 13       		.uleb128 0x13
 2767 00c1 00       		.byte	0
 2768 00c2 00       		.byte	0
 2769 00c3 12       		.uleb128 0x12
 2770 00c4 13       		.uleb128 0x13
 2771 00c5 01       		.byte	0x1
 2772 00c6 0B       		.uleb128 0xb
 2773 00c7 0B       		.uleb128 0xb
 2774 00c8 3A       		.uleb128 0x3a
 2775 00c9 0B       		.uleb128 0xb
 2776 00ca 3B       		.uleb128 0x3b
 2777 00cb 05       		.uleb128 0x5
 2778 00cc 01       		.uleb128 0x1
ARM GAS  /var/folders/qh/xwg3v3kj02qbxczjpdb8lzfr0000gn/T//cch5LI8o.s 			page 50


 2779 00cd 13       		.uleb128 0x13
 2780 00ce 00       		.byte	0
 2781 00cf 00       		.byte	0
 2782 00d0 13       		.uleb128 0x13
 2783 00d1 0D       		.uleb128 0xd
 2784 00d2 00       		.byte	0
 2785 00d3 03       		.uleb128 0x3
 2786 00d4 08       		.uleb128 0x8
 2787 00d5 3A       		.uleb128 0x3a
 2788 00d6 0B       		.uleb128 0xb
 2789 00d7 3B       		.uleb128 0x3b
 2790 00d8 05       		.uleb128 0x5
 2791 00d9 49       		.uleb128 0x49
 2792 00da 13       		.uleb128 0x13
 2793 00db 38       		.uleb128 0x38
 2794 00dc 0B       		.uleb128 0xb
 2795 00dd 00       		.byte	0
 2796 00de 00       		.byte	0
 2797 00df 14       		.uleb128 0x14
 2798 00e0 0D       		.uleb128 0xd
 2799 00e1 00       		.byte	0
 2800 00e2 03       		.uleb128 0x3
 2801 00e3 0E       		.uleb128 0xe
 2802 00e4 3A       		.uleb128 0x3a
 2803 00e5 0B       		.uleb128 0xb
 2804 00e6 3B       		.uleb128 0x3b
 2805 00e7 05       		.uleb128 0x5
 2806 00e8 49       		.uleb128 0x49
 2807 00e9 13       		.uleb128 0x13
 2808 00ea 38       		.uleb128 0x38
 2809 00eb 0B       		.uleb128 0xb
 2810 00ec 00       		.byte	0
 2811 00ed 00       		.byte	0
 2812 00ee 15       		.uleb128 0x15
 2813 00ef 01       		.uleb128 0x1
 2814 00f0 01       		.byte	0x1
 2815 00f1 49       		.uleb128 0x49
 2816 00f2 13       		.uleb128 0x13
 2817 00f3 01       		.uleb128 0x1
 2818 00f4 13       		.uleb128 0x13
 2819 00f5 00       		.byte	0
 2820 00f6 00       		.byte	0
 2821 00f7 16       		.uleb128 0x16
 2822 00f8 21       		.uleb128 0x21
 2823 00f9 00       		.byte	0
 2824 00fa 49       		.uleb128 0x49
 2825 00fb 13       		.uleb128 0x13
 2826 00fc 2F       		.uleb128 0x2f
 2827 00fd 0B       		.uleb128 0xb
 2828 00fe 00       		.byte	0
 2829 00ff 00       		.byte	0
 2830 0100 17       		.uleb128 0x17
 2831 0101 16       		.uleb128 0x16
 2832 0102 00       		.byte	0
 2833 0103 03       		.uleb128 0x3
 2834 0104 0E       		.uleb128 0xe
 2835 0105 3A       		.uleb128 0x3a
ARM GAS  /var/folders/qh/xwg3v3kj02qbxczjpdb8lzfr0000gn/T//cch5LI8o.s 			page 51


 2836 0106 0B       		.uleb128 0xb
 2837 0107 3B       		.uleb128 0x3b
 2838 0108 05       		.uleb128 0x5
 2839 0109 49       		.uleb128 0x49
 2840 010a 13       		.uleb128 0x13
 2841 010b 00       		.byte	0
 2842 010c 00       		.byte	0
 2843 010d 18       		.uleb128 0x18
 2844 010e 0D       		.uleb128 0xd
 2845 010f 00       		.byte	0
 2846 0110 03       		.uleb128 0x3
 2847 0111 08       		.uleb128 0x8
 2848 0112 3A       		.uleb128 0x3a
 2849 0113 0B       		.uleb128 0xb
 2850 0114 3B       		.uleb128 0x3b
 2851 0115 0B       		.uleb128 0xb
 2852 0116 49       		.uleb128 0x49
 2853 0117 13       		.uleb128 0x13
 2854 0118 00       		.byte	0
 2855 0119 00       		.byte	0
 2856 011a 19       		.uleb128 0x19
 2857 011b 04       		.uleb128 0x4
 2858 011c 01       		.byte	0x1
 2859 011d 0B       		.uleb128 0xb
 2860 011e 0B       		.uleb128 0xb
 2861 011f 3A       		.uleb128 0x3a
 2862 0120 0B       		.uleb128 0xb
 2863 0121 3B       		.uleb128 0x3b
 2864 0122 0B       		.uleb128 0xb
 2865 0123 01       		.uleb128 0x1
 2866 0124 13       		.uleb128 0x13
 2867 0125 00       		.byte	0
 2868 0126 00       		.byte	0
 2869 0127 1A       		.uleb128 0x1a
 2870 0128 28       		.uleb128 0x28
 2871 0129 00       		.byte	0
 2872 012a 03       		.uleb128 0x3
 2873 012b 0E       		.uleb128 0xe
 2874 012c 1C       		.uleb128 0x1c
 2875 012d 0D       		.uleb128 0xd
 2876 012e 00       		.byte	0
 2877 012f 00       		.byte	0
 2878 0130 1B       		.uleb128 0x1b
 2879 0131 2E       		.uleb128 0x2e
 2880 0132 01       		.byte	0x1
 2881 0133 03       		.uleb128 0x3
 2882 0134 0E       		.uleb128 0xe
 2883 0135 3A       		.uleb128 0x3a
 2884 0136 0B       		.uleb128 0xb
 2885 0137 3B       		.uleb128 0x3b
 2886 0138 0B       		.uleb128 0xb
 2887 0139 27       		.uleb128 0x27
 2888 013a 19       		.uleb128 0x19
 2889 013b 49       		.uleb128 0x49
 2890 013c 13       		.uleb128 0x13
 2891 013d 11       		.uleb128 0x11
 2892 013e 01       		.uleb128 0x1
ARM GAS  /var/folders/qh/xwg3v3kj02qbxczjpdb8lzfr0000gn/T//cch5LI8o.s 			page 52


 2893 013f 12       		.uleb128 0x12
 2894 0140 06       		.uleb128 0x6
 2895 0141 40       		.uleb128 0x40
 2896 0142 18       		.uleb128 0x18
 2897 0143 9742     		.uleb128 0x2117
 2898 0145 19       		.uleb128 0x19
 2899 0146 01       		.uleb128 0x1
 2900 0147 13       		.uleb128 0x13
 2901 0148 00       		.byte	0
 2902 0149 00       		.byte	0
 2903 014a 1C       		.uleb128 0x1c
 2904 014b 05       		.uleb128 0x5
 2905 014c 00       		.byte	0
 2906 014d 03       		.uleb128 0x3
 2907 014e 08       		.uleb128 0x8
 2908 014f 3A       		.uleb128 0x3a
 2909 0150 0B       		.uleb128 0xb
 2910 0151 3B       		.uleb128 0x3b
 2911 0152 0B       		.uleb128 0xb
 2912 0153 49       		.uleb128 0x49
 2913 0154 13       		.uleb128 0x13
 2914 0155 02       		.uleb128 0x2
 2915 0156 17       		.uleb128 0x17
 2916 0157 00       		.byte	0
 2917 0158 00       		.byte	0
 2918 0159 1D       		.uleb128 0x1d
 2919 015a 898201   		.uleb128 0x4109
 2920 015d 01       		.byte	0x1
 2921 015e 11       		.uleb128 0x11
 2922 015f 01       		.uleb128 0x1
 2923 0160 31       		.uleb128 0x31
 2924 0161 13       		.uleb128 0x13
 2925 0162 01       		.uleb128 0x1
 2926 0163 13       		.uleb128 0x13
 2927 0164 00       		.byte	0
 2928 0165 00       		.byte	0
 2929 0166 1E       		.uleb128 0x1e
 2930 0167 8A8201   		.uleb128 0x410a
 2931 016a 00       		.byte	0
 2932 016b 02       		.uleb128 0x2
 2933 016c 18       		.uleb128 0x18
 2934 016d 9142     		.uleb128 0x2111
 2935 016f 18       		.uleb128 0x18
 2936 0170 00       		.byte	0
 2937 0171 00       		.byte	0
 2938 0172 1F       		.uleb128 0x1f
 2939 0173 898201   		.uleb128 0x4109
 2940 0176 01       		.byte	0x1
 2941 0177 11       		.uleb128 0x11
 2942 0178 01       		.uleb128 0x1
 2943 0179 31       		.uleb128 0x31
 2944 017a 13       		.uleb128 0x13
 2945 017b 00       		.byte	0
 2946 017c 00       		.byte	0
 2947 017d 20       		.uleb128 0x20
 2948 017e 2E       		.uleb128 0x2e
 2949 017f 01       		.byte	0x1
ARM GAS  /var/folders/qh/xwg3v3kj02qbxczjpdb8lzfr0000gn/T//cch5LI8o.s 			page 53


 2950 0180 3F       		.uleb128 0x3f
 2951 0181 19       		.uleb128 0x19
 2952 0182 03       		.uleb128 0x3
 2953 0183 0E       		.uleb128 0xe
 2954 0184 3A       		.uleb128 0x3a
 2955 0185 0B       		.uleb128 0xb
 2956 0186 3B       		.uleb128 0x3b
 2957 0187 0B       		.uleb128 0xb
 2958 0188 27       		.uleb128 0x27
 2959 0189 19       		.uleb128 0x19
 2960 018a 49       		.uleb128 0x49
 2961 018b 13       		.uleb128 0x13
 2962 018c 11       		.uleb128 0x11
 2963 018d 01       		.uleb128 0x1
 2964 018e 12       		.uleb128 0x12
 2965 018f 06       		.uleb128 0x6
 2966 0190 40       		.uleb128 0x40
 2967 0191 18       		.uleb128 0x18
 2968 0192 9742     		.uleb128 0x2117
 2969 0194 19       		.uleb128 0x19
 2970 0195 01       		.uleb128 0x1
 2971 0196 13       		.uleb128 0x13
 2972 0197 00       		.byte	0
 2973 0198 00       		.byte	0
 2974 0199 21       		.uleb128 0x21
 2975 019a 34       		.uleb128 0x34
 2976 019b 00       		.byte	0
 2977 019c 03       		.uleb128 0x3
 2978 019d 08       		.uleb128 0x8
 2979 019e 3A       		.uleb128 0x3a
 2980 019f 0B       		.uleb128 0xb
 2981 01a0 3B       		.uleb128 0x3b
 2982 01a1 0B       		.uleb128 0xb
 2983 01a2 49       		.uleb128 0x49
 2984 01a3 13       		.uleb128 0x13
 2985 01a4 02       		.uleb128 0x2
 2986 01a5 17       		.uleb128 0x17
 2987 01a6 00       		.byte	0
 2988 01a7 00       		.byte	0
 2989 01a8 22       		.uleb128 0x22
 2990 01a9 898201   		.uleb128 0x4109
 2991 01ac 00       		.byte	0
 2992 01ad 11       		.uleb128 0x11
 2993 01ae 01       		.uleb128 0x1
 2994 01af 31       		.uleb128 0x31
 2995 01b0 13       		.uleb128 0x13
 2996 01b1 00       		.byte	0
 2997 01b2 00       		.byte	0
 2998 01b3 23       		.uleb128 0x23
 2999 01b4 34       		.uleb128 0x34
 3000 01b5 00       		.byte	0
 3001 01b6 03       		.uleb128 0x3
 3002 01b7 0E       		.uleb128 0xe
 3003 01b8 3A       		.uleb128 0x3a
 3004 01b9 0B       		.uleb128 0xb
 3005 01ba 3B       		.uleb128 0x3b
 3006 01bb 0B       		.uleb128 0xb
ARM GAS  /var/folders/qh/xwg3v3kj02qbxczjpdb8lzfr0000gn/T//cch5LI8o.s 			page 54


 3007 01bc 49       		.uleb128 0x49
 3008 01bd 13       		.uleb128 0x13
 3009 01be 02       		.uleb128 0x2
 3010 01bf 18       		.uleb128 0x18
 3011 01c0 00       		.byte	0
 3012 01c1 00       		.byte	0
 3013 01c2 24       		.uleb128 0x24
 3014 01c3 34       		.uleb128 0x34
 3015 01c4 00       		.byte	0
 3016 01c5 03       		.uleb128 0x3
 3017 01c6 0E       		.uleb128 0xe
 3018 01c7 3A       		.uleb128 0x3a
 3019 01c8 0B       		.uleb128 0xb
 3020 01c9 3B       		.uleb128 0x3b
 3021 01ca 0B       		.uleb128 0xb
 3022 01cb 49       		.uleb128 0x49
 3023 01cc 13       		.uleb128 0x13
 3024 01cd 00       		.byte	0
 3025 01ce 00       		.byte	0
 3026 01cf 25       		.uleb128 0x25
 3027 01d0 34       		.uleb128 0x34
 3028 01d1 00       		.byte	0
 3029 01d2 03       		.uleb128 0x3
 3030 01d3 0E       		.uleb128 0xe
 3031 01d4 3A       		.uleb128 0x3a
 3032 01d5 0B       		.uleb128 0xb
 3033 01d6 3B       		.uleb128 0x3b
 3034 01d7 0B       		.uleb128 0xb
 3035 01d8 49       		.uleb128 0x49
 3036 01d9 13       		.uleb128 0x13
 3037 01da 3F       		.uleb128 0x3f
 3038 01db 19       		.uleb128 0x19
 3039 01dc 3C       		.uleb128 0x3c
 3040 01dd 19       		.uleb128 0x19
 3041 01de 00       		.byte	0
 3042 01df 00       		.byte	0
 3043 01e0 26       		.uleb128 0x26
 3044 01e1 34       		.uleb128 0x34
 3045 01e2 00       		.byte	0
 3046 01e3 03       		.uleb128 0x3
 3047 01e4 08       		.uleb128 0x8
 3048 01e5 3A       		.uleb128 0x3a
 3049 01e6 0B       		.uleb128 0xb
 3050 01e7 3B       		.uleb128 0x3b
 3051 01e8 05       		.uleb128 0x5
 3052 01e9 49       		.uleb128 0x49
 3053 01ea 13       		.uleb128 0x13
 3054 01eb 3F       		.uleb128 0x3f
 3055 01ec 19       		.uleb128 0x19
 3056 01ed 3C       		.uleb128 0x3c
 3057 01ee 19       		.uleb128 0x19
 3058 01ef 00       		.byte	0
 3059 01f0 00       		.byte	0
 3060 01f1 27       		.uleb128 0x27
 3061 01f2 34       		.uleb128 0x34
 3062 01f3 00       		.byte	0
 3063 01f4 03       		.uleb128 0x3
ARM GAS  /var/folders/qh/xwg3v3kj02qbxczjpdb8lzfr0000gn/T//cch5LI8o.s 			page 55


 3064 01f5 0E       		.uleb128 0xe
 3065 01f6 3A       		.uleb128 0x3a
 3066 01f7 0B       		.uleb128 0xb
 3067 01f8 3B       		.uleb128 0x3b
 3068 01f9 0B       		.uleb128 0xb
 3069 01fa 49       		.uleb128 0x49
 3070 01fb 13       		.uleb128 0x13
 3071 01fc 3F       		.uleb128 0x3f
 3072 01fd 19       		.uleb128 0x19
 3073 01fe 02       		.uleb128 0x2
 3074 01ff 18       		.uleb128 0x18
 3075 0200 00       		.byte	0
 3076 0201 00       		.byte	0
 3077 0202 28       		.uleb128 0x28
 3078 0203 34       		.uleb128 0x34
 3079 0204 00       		.byte	0
 3080 0205 03       		.uleb128 0x3
 3081 0206 08       		.uleb128 0x8
 3082 0207 3A       		.uleb128 0x3a
 3083 0208 0B       		.uleb128 0xb
 3084 0209 3B       		.uleb128 0x3b
 3085 020a 0B       		.uleb128 0xb
 3086 020b 49       		.uleb128 0x49
 3087 020c 13       		.uleb128 0x13
 3088 020d 3F       		.uleb128 0x3f
 3089 020e 19       		.uleb128 0x19
 3090 020f 02       		.uleb128 0x2
 3091 0210 18       		.uleb128 0x18
 3092 0211 00       		.byte	0
 3093 0212 00       		.byte	0
 3094 0213 29       		.uleb128 0x29
 3095 0214 2E       		.uleb128 0x2e
 3096 0215 01       		.byte	0x1
 3097 0216 3F       		.uleb128 0x3f
 3098 0217 19       		.uleb128 0x19
 3099 0218 03       		.uleb128 0x3
 3100 0219 0E       		.uleb128 0xe
 3101 021a 3A       		.uleb128 0x3a
 3102 021b 0B       		.uleb128 0xb
 3103 021c 3B       		.uleb128 0x3b
 3104 021d 05       		.uleb128 0x5
 3105 021e 27       		.uleb128 0x27
 3106 021f 19       		.uleb128 0x19
 3107 0220 3C       		.uleb128 0x3c
 3108 0221 19       		.uleb128 0x19
 3109 0222 01       		.uleb128 0x1
 3110 0223 13       		.uleb128 0x13
 3111 0224 00       		.byte	0
 3112 0225 00       		.byte	0
 3113 0226 2A       		.uleb128 0x2a
 3114 0227 2E       		.uleb128 0x2e
 3115 0228 00       		.byte	0
 3116 0229 3F       		.uleb128 0x3f
 3117 022a 19       		.uleb128 0x19
 3118 022b 03       		.uleb128 0x3
 3119 022c 0E       		.uleb128 0xe
 3120 022d 3A       		.uleb128 0x3a
ARM GAS  /var/folders/qh/xwg3v3kj02qbxczjpdb8lzfr0000gn/T//cch5LI8o.s 			page 56


 3121 022e 0B       		.uleb128 0xb
 3122 022f 3B       		.uleb128 0x3b
 3123 0230 0B       		.uleb128 0xb
 3124 0231 27       		.uleb128 0x27
 3125 0232 19       		.uleb128 0x19
 3126 0233 3C       		.uleb128 0x3c
 3127 0234 19       		.uleb128 0x19
 3128 0235 00       		.byte	0
 3129 0236 00       		.byte	0
 3130 0237 2B       		.uleb128 0x2b
 3131 0238 2E       		.uleb128 0x2e
 3132 0239 01       		.byte	0x1
 3133 023a 3F       		.uleb128 0x3f
 3134 023b 19       		.uleb128 0x19
 3135 023c 03       		.uleb128 0x3
 3136 023d 0E       		.uleb128 0xe
 3137 023e 3A       		.uleb128 0x3a
 3138 023f 0B       		.uleb128 0xb
 3139 0240 3B       		.uleb128 0x3b
 3140 0241 05       		.uleb128 0x5
 3141 0242 27       		.uleb128 0x27
 3142 0243 19       		.uleb128 0x19
 3143 0244 49       		.uleb128 0x49
 3144 0245 13       		.uleb128 0x13
 3145 0246 3C       		.uleb128 0x3c
 3146 0247 19       		.uleb128 0x19
 3147 0248 01       		.uleb128 0x1
 3148 0249 13       		.uleb128 0x13
 3149 024a 00       		.byte	0
 3150 024b 00       		.byte	0
 3151 024c 2C       		.uleb128 0x2c
 3152 024d 2E       		.uleb128 0x2e
 3153 024e 01       		.byte	0x1
 3154 024f 3F       		.uleb128 0x3f
 3155 0250 19       		.uleb128 0x19
 3156 0251 03       		.uleb128 0x3
 3157 0252 0E       		.uleb128 0xe
 3158 0253 3A       		.uleb128 0x3a
 3159 0254 0B       		.uleb128 0xb
 3160 0255 3B       		.uleb128 0x3b
 3161 0256 0B       		.uleb128 0xb
 3162 0257 27       		.uleb128 0x27
 3163 0258 19       		.uleb128 0x19
 3164 0259 3C       		.uleb128 0x3c
 3165 025a 19       		.uleb128 0x19
 3166 025b 01       		.uleb128 0x1
 3167 025c 13       		.uleb128 0x13
 3168 025d 00       		.byte	0
 3169 025e 00       		.byte	0
 3170 025f 2D       		.uleb128 0x2d
 3171 0260 2E       		.uleb128 0x2e
 3172 0261 01       		.byte	0x1
 3173 0262 3F       		.uleb128 0x3f
 3174 0263 19       		.uleb128 0x19
 3175 0264 03       		.uleb128 0x3
 3176 0265 0E       		.uleb128 0xe
 3177 0266 3A       		.uleb128 0x3a
ARM GAS  /var/folders/qh/xwg3v3kj02qbxczjpdb8lzfr0000gn/T//cch5LI8o.s 			page 57


 3178 0267 0B       		.uleb128 0xb
 3179 0268 3B       		.uleb128 0x3b
 3180 0269 0B       		.uleb128 0xb
 3181 026a 27       		.uleb128 0x27
 3182 026b 19       		.uleb128 0x19
 3183 026c 49       		.uleb128 0x49
 3184 026d 13       		.uleb128 0x13
 3185 026e 3C       		.uleb128 0x3c
 3186 026f 19       		.uleb128 0x19
 3187 0270 01       		.uleb128 0x1
 3188 0271 13       		.uleb128 0x13
 3189 0272 00       		.byte	0
 3190 0273 00       		.byte	0
 3191 0274 00       		.byte	0
 3192              		.section	.debug_loc,"",%progbits
 3193              	.Ldebug_loc0:
 3194              	.LLST0:
 3195 0000 00000000 		.4byte	.LVL0
 3196 0004 12000000 		.4byte	.LVL1
 3197 0008 0100     		.2byte	0x1
 3198 000a 50       		.byte	0x50
 3199 000b 12000000 		.4byte	.LVL1
 3200 000f 30000000 		.4byte	.LFE42
 3201 0013 0400     		.2byte	0x4
 3202 0015 F3       		.byte	0xf3
 3203 0016 01       		.uleb128 0x1
 3204 0017 50       		.byte	0x50
 3205 0018 9F       		.byte	0x9f
 3206 0019 00000000 		.4byte	0
 3207 001d 00000000 		.4byte	0
 3208              	.LLST1:
 3209 0021 00000000 		.4byte	.LVL4
 3210 0025 12000000 		.4byte	.LVL5
 3211 0029 0100     		.2byte	0x1
 3212 002b 50       		.byte	0x50
 3213 002c 12000000 		.4byte	.LVL5
 3214 0030 34000000 		.4byte	.LFE41
 3215 0034 0400     		.2byte	0x4
 3216 0036 F3       		.byte	0xf3
 3217 0037 01       		.uleb128 0x1
 3218 0038 50       		.byte	0x50
 3219 0039 9F       		.byte	0x9f
 3220 003a 00000000 		.4byte	0
 3221 003e 00000000 		.4byte	0
 3222              	.LLST2:
 3223 0042 00000000 		.4byte	.LVL8
 3224 0046 64000000 		.4byte	.LVL18
 3225 004a 0200     		.2byte	0x2
 3226 004c 30       		.byte	0x30
 3227 004d 9F       		.byte	0x9f
 3228 004e 64000000 		.4byte	.LVL18
 3229 0052 7C000000 		.4byte	.LVL20
 3230 0056 0100     		.2byte	0x1
 3231 0058 54       		.byte	0x54
 3232 0059 7C000000 		.4byte	.LVL20
 3233 005d 8E000000 		.4byte	.LVL23
 3234 0061 0200     		.2byte	0x2
ARM GAS  /var/folders/qh/xwg3v3kj02qbxczjpdb8lzfr0000gn/T//cch5LI8o.s 			page 58


 3235 0063 30       		.byte	0x30
 3236 0064 9F       		.byte	0x9f
 3237 0065 8E000000 		.4byte	.LVL23
 3238 0069 AC000000 		.4byte	.LFE43
 3239 006d 0100     		.2byte	0x1
 3240 006f 50       		.byte	0x50
 3241 0070 00000000 		.4byte	0
 3242 0074 00000000 		.4byte	0
 3243              		.section	.debug_aranges,"",%progbits
 3244 0000 2C000000 		.4byte	0x2c
 3245 0004 0200     		.2byte	0x2
 3246 0006 00000000 		.4byte	.Ldebug_info0
 3247 000a 04       		.byte	0x4
 3248 000b 00       		.byte	0
 3249 000c 0000     		.2byte	0
 3250 000e 0000     		.2byte	0
 3251 0010 00000000 		.4byte	.LFB42
 3252 0014 30000000 		.4byte	.LFE42-.LFB42
 3253 0018 00000000 		.4byte	.LFB41
 3254 001c 34000000 		.4byte	.LFE41-.LFB41
 3255 0020 00000000 		.4byte	.LFB43
 3256 0024 AC000000 		.4byte	.LFE43-.LFB43
 3257 0028 00000000 		.4byte	0
 3258 002c 00000000 		.4byte	0
 3259              		.section	.debug_ranges,"",%progbits
 3260              	.Ldebug_ranges0:
 3261 0000 00000000 		.4byte	.LFB42
 3262 0004 30000000 		.4byte	.LFE42
 3263 0008 00000000 		.4byte	.LFB41
 3264 000c 34000000 		.4byte	.LFE41
 3265 0010 00000000 		.4byte	.LFB43
 3266 0014 AC000000 		.4byte	.LFE43
 3267 0018 00000000 		.4byte	0
 3268 001c 00000000 		.4byte	0
 3269              		.section	.debug_line,"",%progbits
 3270              	.Ldebug_line0:
 3271 0000 35030000 		.section	.debug_str,"MS",%progbits,1
 3271      0200AC02 
 3271      00000201 
 3271      FB0E0D00 
 3271      01010101 
 3272              	.LASF47:
 3273 0000 54687265 		.ascii	"ThreadsList\000"
 3273      6164734C 
 3273      69737400 
 3274              	.LASF39:
 3275 000c 705F7761 		.ascii	"p_waiting\000"
 3275      6974696E 
 3275      6700
 3276              	.LASF168:
 3277 0016 53657269 		.ascii	"SerialDriver\000"
 3277      616C4472 
 3277      69766572 
 3277      00
 3278              	.LASF205:
 3279 0023 6D61696E 		.ascii	"main.c\000"
 3279      2E6300
ARM GAS  /var/folders/qh/xwg3v3kj02qbxczjpdb8lzfr0000gn/T//cch5LI8o.s 			page 59


 3280              	.LASF38:
 3281 002a 705F7469 		.ascii	"p_time\000"
 3281      6D6500
 3282              	.LASF121:
 3283 0031 42535252 		.ascii	"BSRR\000"
 3283      00
 3284              	.LASF48:
 3285 0036 72656761 		.ascii	"regarm_t\000"
 3285      726D5F74 
 3285      00
 3286              	.LASF29:
 3287 003f 705F7072 		.ascii	"p_prio\000"
 3287      696F00
 3288              	.LASF151:
 3289 0046 646D616D 		.ascii	"dmamode\000"
 3289      6F646500 
 3290              	.LASF25:
 3291 004e 73797374 		.ascii	"systime_t\000"
 3291      696D655F 
 3291      7400
 3292              	.LASF62:
 3293 0058 6D5F6F77 		.ascii	"m_owner\000"
 3293      6E657200 
 3294              	.LASF40:
 3295 0060 705F6D73 		.ascii	"p_msgqueue\000"
 3295      67717565 
 3295      756500
 3296              	.LASF141:
 3297 006b 61646365 		.ascii	"adcerror_t\000"
 3297      72726F72 
 3297      5F7400
 3298              	.LASF0:
 3299 0076 756E7369 		.ascii	"unsigned int\000"
 3299      676E6564 
 3299      20696E74 
 3299      00
 3300              	.LASF199:
 3301 0083 5F70616C 		.ascii	"_pal_lld_setgroupmode\000"
 3301      5F6C6C64 
 3301      5F736574 
 3301      67726F75 
 3301      706D6F64 
 3302              	.LASF83:
 3303 0099 715F7264 		.ascii	"q_rdptr\000"
 3303      70747200 
 3304              	.LASF86:
 3305 00a1 716E6F74 		.ascii	"qnotify_t\000"
 3305      6966795F 
 3305      7400
 3306              	.LASF67:
 3307 00ab 656C5F6D 		.ascii	"el_mask\000"
 3307      61736B00 
 3308              	.LASF89:
 3309 00b3 42617365 		.ascii	"BaseSequentialStreamVMT\000"
 3309      53657175 
 3309      656E7469 
 3309      616C5374 
ARM GAS  /var/folders/qh/xwg3v3kj02qbxczjpdb8lzfr0000gn/T//cch5LI8o.s 			page 60


 3309      7265616D 
 3310              	.LASF162:
 3311 00cb 64756D6D 		.ascii	"dummy\000"
 3311      7900
 3312              	.LASF104:
 3313 00d1 434D4152 		.ascii	"CMAR\000"
 3313      00
 3314              	.LASF157:
 3315 00d6 6572726F 		.ascii	"error_cb\000"
 3315      725F6362 
 3315      00
 3316              	.LASF73:
 3317 00df 77746F62 		.ascii	"wtobjp\000"
 3317      6A7000
 3318              	.LASF85:
 3319 00e6 715F6C69 		.ascii	"q_link\000"
 3319      6E6B00
 3320              	.LASF105:
 3321 00ed 444D415F 		.ascii	"DMA_Channel_TypeDef\000"
 3321      4368616E 
 3321      6E656C5F 
 3321      54797065 
 3321      44656600 
 3322              	.LASF159:
 3323 0101 736D7072 		.ascii	"smpr\000"
 3323      00
 3324              	.LASF190:
 3325 0106 73684366 		.ascii	"shCfg\000"
 3325      6700
 3326              	.LASF204:
 3327 010c 474E5520 		.ascii	"GNU C 4.8.3 20131129 (release) [ARM/embedded-4_8-br"
 3327      4320342E 
 3327      382E3320 
 3327      32303133 
 3327      31313239 
 3328 013f 616E6368 		.ascii	"anch revision 205641] -mcpu=cortex-m0 -mno-thumb-in"
 3328      20726576 
 3328      6973696F 
 3328      6E203230 
 3328      35363431 
 3329 0172 74657277 		.ascii	"terwork -mthumb -ggdb -O2 -fomit-frame-pointer -fal"
 3329      6F726B20 
 3329      2D6D7468 
 3329      756D6220 
 3329      2D676764 
 3330 01a5 69676E2D 		.ascii	"ign-functions=16 -ffunction-sections -fdata-section"
 3330      66756E63 
 3330      74696F6E 
 3330      733D3136 
 3330      202D6666 
 3331 01d8 73202D66 		.ascii	"s -fno-common\000"
 3331      6E6F2D63 
 3331      6F6D6D6F 
 3331      6E00
 3332              	.LASF74:
 3333 01e6 65776D61 		.ascii	"ewmask\000"
 3333      736B00
ARM GAS  /var/folders/qh/xwg3v3kj02qbxczjpdb8lzfr0000gn/T//cch5LI8o.s 			page 61


 3334              	.LASF174:
 3335 01ed 73706565 		.ascii	"speed\000"
 3335      6400
 3336              	.LASF179:
 3337 01f3 77726974 		.ascii	"writet\000"
 3337      657400
 3338              	.LASF102:
 3339 01fa 434E4454 		.ascii	"CNDTR\000"
 3339      5200
 3340              	.LASF106:
 3341 0200 47545052 		.ascii	"GTPR\000"
 3341      00
 3342              	.LASF170:
 3343 0205 69717565 		.ascii	"iqueue\000"
 3343      756500
 3344              	.LASF10:
 3345 020c 75696E74 		.ascii	"uint32_t\000"
 3345      33325F74 
 3345      00
 3346              	.LASF153:
 3347 0215 61646365 		.ascii	"adcerrorcallback_t\000"
 3347      72726F72 
 3347      63616C6C 
 3347      6261636B 
 3347      5F7400
 3348              	.LASF203:
 3349 0228 7368656C 		.ascii	"shellCreate\000"
 3349      6C437265 
 3349      61746500 
 3350              	.LASF23:
 3351 0234 6576656E 		.ascii	"eventmask_t\000"
 3351      746D6173 
 3351      6B5F7400 
 3352              	.LASF54:
 3353 0240 725F7072 		.ascii	"r_prio\000"
 3353      696F00
 3354              	.LASF175:
 3355 0247 53657269 		.ascii	"SerialConfig\000"
 3355      616C436F 
 3355      6E666967 
 3355      00
 3356              	.LASF111:
 3357 0254 69666372 		.ascii	"ifcr\000"
 3357      00
 3358              	.LASF149:
 3359 0259 6D757465 		.ascii	"mutex\000"
 3359      7800
 3360              	.LASF167:
 3361 025f 73647374 		.ascii	"sdstate_t\000"
 3361      6174655F 
 3361      7400
 3362              	.LASF169:
 3363 0269 6576656E 		.ascii	"event\000"
 3363      7400
 3364              	.LASF21:
 3365 026f 74707269 		.ascii	"tprio_t\000"
 3365      6F5F7400 
ARM GAS  /var/folders/qh/xwg3v3kj02qbxczjpdb8lzfr0000gn/T//cch5LI8o.s 			page 62


 3366              	.LASF156:
 3367 0277 656E645F 		.ascii	"end_cb\000"
 3367      636200
 3368              	.LASF76:
 3369 027e 7466756E 		.ascii	"tfunc_t\000"
 3369      635F7400 
 3370              	.LASF154:
 3371 0286 63697263 		.ascii	"circular\000"
 3371      756C6172 
 3371      00
 3372              	.LASF14:
 3373 028f 6C6F6E67 		.ascii	"long long unsigned int\000"
 3373      206C6F6E 
 3373      6720756E 
 3373      7369676E 
 3373      65642069 
 3374              	.LASF114:
 3375 02a6 76656374 		.ascii	"vector\000"
 3375      6F7200
 3376              	.LASF198:
 3377 02ad 73645374 		.ascii	"sdStart\000"
 3377      61727400 
 3378              	.LASF117:
 3379 02b5 4D4F4445 		.ascii	"MODER\000"
 3379      5200
 3380              	.LASF187:
 3381 02bb 5368656C 		.ascii	"ShellConfig\000"
 3381      6C436F6E 
 3381      66696700 
 3382              	.LASF124:
 3383 02c7 41465248 		.ascii	"AFRH\000"
 3383      00
 3384              	.LASF123:
 3385 02cc 4146524C 		.ascii	"AFRL\000"
 3385      00
 3386              	.LASF99:
 3387 02d1 43485345 		.ascii	"CHSELR\000"
 3387      4C5200
 3388              	.LASF31:
 3389 02d8 705F6E65 		.ascii	"p_newer\000"
 3389      77657200 
 3390              	.LASF116:
 3391 02e0 636C6561 		.ascii	"clear\000"
 3391      7200
 3392              	.LASF78:
 3393 02e6 715F7761 		.ascii	"q_waiting\000"
 3393      6974696E 
 3393      6700
 3394              	.LASF103:
 3395 02f0 43504152 		.ascii	"CPAR\000"
 3395      00
 3396              	.LASF177:
 3397 02f5 70757474 		.ascii	"putt\000"
 3397      00
 3398              	.LASF206:
 3399 02fa 2F557365 		.ascii	"/Users/John/Development/embedded/ChibiOS-RT/BluC/ST"
 3399      72732F4A 
ARM GAS  /var/folders/qh/xwg3v3kj02qbxczjpdb8lzfr0000gn/T//cch5LI8o.s 			page 63


 3399      6F686E2F 
 3399      44657665 
 3399      6C6F706D 
 3400 032d 4D333246 		.ascii	"M32F051\000"
 3400      30353100 
 3401              	.LASF2:
 3402 0335 73697A65 		.ascii	"size_t\000"
 3402      5F7400
 3403              	.LASF71:
 3404 033c 7264796D 		.ascii	"rdymsg\000"
 3404      736700
 3405              	.LASF95:
 3406 0343 534D5052 		.ascii	"SMPR\000"
 3406      00
 3407              	.LASF15:
 3408 0348 626F6F6C 		.ascii	"bool_t\000"
 3408      5F7400
 3409              	.LASF16:
 3410 034f 5F426F6F 		.ascii	"_Bool\000"
 3410      6C00
 3411              	.LASF165:
 3412 0355 53445F53 		.ascii	"SD_STOP\000"
 3412      544F5000 
 3413              	.LASF140:
 3414 035d 4144435F 		.ascii	"ADC_ERR_AWD\000"
 3414      4552525F 
 3414      41574400 
 3415              	.LASF109:
 3416 0369 55534152 		.ascii	"USART_TypeDef\000"
 3416      545F5479 
 3416      70654465 
 3416      6600
 3417              	.LASF60:
 3418 0377 4D757465 		.ascii	"Mutex\000"
 3418      7800
 3419              	.LASF88:
 3420 037d 4F757470 		.ascii	"OutputQueue\000"
 3420      75745175 
 3420      65756500 
 3421              	.LASF84:
 3422 0389 715F6E6F 		.ascii	"q_notify\000"
 3422      74696679 
 3422      00
 3423              	.LASF150:
 3424 0392 646D6173 		.ascii	"dmastp\000"
 3424      747000
 3425              	.LASF133:
 3426 0399 4144435F 		.ascii	"ADC_COMPLETE\000"
 3426      434F4D50 
 3426      4C455445 
 3426      00
 3427              	.LASF173:
 3428 03a6 636C6F63 		.ascii	"clock\000"
 3428      6B00
 3429              	.LASF120:
 3430 03ac 50555044 		.ascii	"PUPDR\000"
 3430      5200
ARM GAS  /var/folders/qh/xwg3v3kj02qbxczjpdb8lzfr0000gn/T//cch5LI8o.s 			page 64


 3431              	.LASF142:
 3432 03b2 41444344 		.ascii	"ADCDriver\000"
 3432      72697665 
 3432      7200
 3433              	.LASF33:
 3434 03bc 705F6E61 		.ascii	"p_name\000"
 3434      6D6500
 3435              	.LASF92:
 3436 03c3 42617365 		.ascii	"BaseSequentialStream\000"
 3436      53657175 
 3436      656E7469 
 3436      616C5374 
 3436      7265616D 
 3437              	.LASF87:
 3438 03d8 496E7075 		.ascii	"InputQueue\000"
 3438      74517565 
 3438      756500
 3439              	.LASF46:
 3440 03e3 54687265 		.ascii	"ThreadsQueue\000"
 3440      61647351 
 3440      75657565 
 3440      00
 3441              	.LASF75:
 3442 03f0 63686172 		.ascii	"char\000"
 3442      00
 3443              	.LASF196:
 3444 03f5 63685379 		.ascii	"chSysInit\000"
 3444      73496E69 
 3444      7400
 3445              	.LASF56:
 3446 03ff 725F6E65 		.ascii	"r_newer\000"
 3446      77657200 
 3447              	.LASF82:
 3448 0407 715F7772 		.ascii	"q_wrptr\000"
 3448      70747200 
 3449              	.LASF112:
 3450 040f 69736869 		.ascii	"ishift\000"
 3450      667400
 3451              	.LASF26:
 3452 0416 54687265 		.ascii	"Thread\000"
 3452      616400
 3453              	.LASF18:
 3454 041d 74737461 		.ascii	"tstate_t\000"
 3454      74655F74 
 3454      00
 3455              	.LASF195:
 3456 0426 68616C49 		.ascii	"halInit\000"
 3456      6E697400 
 3457              	.LASF181:
 3458 042e 7368656C 		.ascii	"shellcmd_t\000"
 3458      6C636D64 
 3458      5F7400
 3459              	.LASF194:
 3460 0439 7368436D 		.ascii	"shCmds\000"
 3460      647300
 3461              	.LASF115:
 3462 0440 73746D33 		.ascii	"stm32_dma_stream_t\000"
ARM GAS  /var/folders/qh/xwg3v3kj02qbxczjpdb8lzfr0000gn/T//cch5LI8o.s 			page 65


 3462      325F646D 
 3462      615F7374 
 3462      7265616D 
 3462      5F7400
 3463              	.LASF32:
 3464 0453 705F6F6C 		.ascii	"p_older\000"
 3464      64657200 
 3465              	.LASF34:
 3466 045b 705F7374 		.ascii	"p_state\000"
 3466      61746500 
 3467              	.LASF3:
 3468 0463 75696E74 		.ascii	"uint8_t\000"
 3468      385F7400 
 3469              	.LASF24:
 3470 046b 666C6167 		.ascii	"flagsmask_t\000"
 3470      736D6173 
 3470      6B5F7400 
 3471              	.LASF107:
 3472 0477 52544F52 		.ascii	"RTOR\000"
 3472      00
 3473              	.LASF134:
 3474 047c 4144435F 		.ascii	"ADC_ERROR\000"
 3474      4552524F 
 3474      5200
 3475              	.LASF208:
 3476 0486 61646367 		.ascii	"adcgrpcfg1\000"
 3476      72706366 
 3476      673100
 3477              	.LASF45:
 3478 0491 705F6D70 		.ascii	"p_mpool\000"
 3478      6F6F6C00 
 3479              	.LASF43:
 3480 0499 705F6D74 		.ascii	"p_mtxlist\000"
 3480      786C6973 
 3480      7400
 3481              	.LASF172:
 3482 04a3 75736172 		.ascii	"usart\000"
 3482      7400
 3483              	.LASF145:
 3484 04a9 73616D70 		.ascii	"samples\000"
 3484      6C657300 
 3485              	.LASF12:
 3486 04b1 6C6F6E67 		.ascii	"long long int\000"
 3486      206C6F6E 
 3486      6720696E 
 3486      7400
 3487              	.LASF90:
 3488 04bf 77726974 		.ascii	"write\000"
 3488      6500
 3489              	.LASF80:
 3490 04c5 715F6275 		.ascii	"q_buffer\000"
 3490      66666572 
 3490      00
 3491              	.LASF53:
 3492 04ce 725F7175 		.ascii	"r_queue\000"
 3492      65756500 
 3493              	.LASF146:
ARM GAS  /var/folders/qh/xwg3v3kj02qbxczjpdb8lzfr0000gn/T//cch5LI8o.s 			page 66


 3494 04d6 64657074 		.ascii	"depth\000"
 3494      6800
 3495              	.LASF22:
 3496 04dc 6D73675F 		.ascii	"msg_t\000"
 3496      7400
 3497              	.LASF51:
 3498 04e2 636F6E74 		.ascii	"context\000"
 3498      65787400 
 3499              	.LASF163:
 3500 04ea 41444343 		.ascii	"ADCConfig\000"
 3500      6F6E6669 
 3500      6700
 3501              	.LASF152:
 3502 04f4 61646363 		.ascii	"adccallback_t\000"
 3502      616C6C62 
 3502      61636B5F 
 3502      7400
 3503              	.LASF35:
 3504 0502 705F666C 		.ascii	"p_flags\000"
 3504      61677300 
 3505              	.LASF126:
 3506 050a 696F706F 		.ascii	"ioportmask_t\000"
 3506      72746D61 
 3506      736B5F74 
 3506      00
 3507              	.LASF20:
 3508 0517 74736C69 		.ascii	"tslices_t\000"
 3508      6365735F 
 3508      7400
 3509              	.LASF57:
 3510 0521 725F6F6C 		.ascii	"r_older\000"
 3510      64657200 
 3511              	.LASF93:
 3512 0529 43464752 		.ascii	"CFGR1\000"
 3512      3100
 3513              	.LASF94:
 3514 052f 43464752 		.ascii	"CFGR2\000"
 3514      3200
 3515              	.LASF201:
 3516 0535 63685468 		.ascii	"chThdRelease\000"
 3516      6452656C 
 3516      65617365 
 3516      00
 3517              	.LASF69:
 3518 0542 4576656E 		.ascii	"EventSource\000"
 3518      74536F75 
 3518      72636500 
 3519              	.LASF202:
 3520 054e 63685468 		.ascii	"chThdCreateStatic\000"
 3520      64437265 
 3520      61746553 
 3520      74617469 
 3520      6300
 3521              	.LASF65:
 3522 0560 656C5F6E 		.ascii	"el_next\000"
 3522      65787400 
 3523              	.LASF41:
ARM GAS  /var/folders/qh/xwg3v3kj02qbxczjpdb8lzfr0000gn/T//cch5LI8o.s 			page 67


 3524 0568 705F6D73 		.ascii	"p_msg\000"
 3524      6700
 3525              	.LASF17:
 3526 056e 746D6F64 		.ascii	"tmode_t\000"
 3526      655F7400 
 3527              	.LASF200:
 3528 0576 7368656C 		.ascii	"shellInit\000"
 3528      6C496E69 
 3528      7400
 3529              	.LASF136:
 3530 0580 61646373 		.ascii	"adcsample_t\000"
 3530      616D706C 
 3530      655F7400 
 3531              	.LASF119:
 3532 058c 4F535045 		.ascii	"OSPEEDR\000"
 3532      45445200 
 3533              	.LASF77:
 3534 0594 47656E65 		.ascii	"GenericQueue\000"
 3534      72696351 
 3534      75657565 
 3534      00
 3535              	.LASF171:
 3536 05a1 6F717565 		.ascii	"oqueue\000"
 3536      756500
 3537              	.LASF6:
 3538 05a8 75696E74 		.ascii	"uint16_t\000"
 3538      31365F74 
 3538      00
 3539              	.LASF50:
 3540 05b1 696E7463 		.ascii	"intctx\000"
 3540      747800
 3541              	.LASF139:
 3542 05b8 4144435F 		.ascii	"ADC_ERR_OVERFLOW\000"
 3542      4552525F 
 3542      4F564552 
 3542      464C4F57 
 3542      00
 3543              	.LASF182:
 3544 05c9 73635F6E 		.ascii	"sc_name\000"
 3544      616D6500 
 3545              	.LASF110:
 3546 05d1 6368616E 		.ascii	"channel\000"
 3546      6E656C00 
 3547              	.LASF185:
 3548 05d9 73635F63 		.ascii	"sc_channel\000"
 3548      68616E6E 
 3548      656C00
 3549              	.LASF132:
 3550 05e4 4144435F 		.ascii	"ADC_ACTIVE\000"
 3550      41435449 
 3550      564500
 3551              	.LASF166:
 3552 05ef 53445F52 		.ascii	"SD_READY\000"
 3552      45414459 
 3552      00
 3553              	.LASF176:
 3554 05f8 53657269 		.ascii	"SerialDriverVMT\000"
ARM GAS  /var/folders/qh/xwg3v3kj02qbxczjpdb8lzfr0000gn/T//cch5LI8o.s 			page 68


 3554      616C4472 
 3554      69766572 
 3554      564D5400 
 3555              	.LASF144:
 3556 0608 636F6E66 		.ascii	"config\000"
 3556      696700
 3557              	.LASF184:
 3558 060f 5368656C 		.ascii	"ShellCommand\000"
 3558      6C436F6D 
 3558      6D616E64 
 3558      00
 3559              	.LASF44:
 3560 061c 705F7265 		.ascii	"p_realprio\000"
 3560      616C7072 
 3560      696F00
 3561              	.LASF96:
 3562 0627 52455345 		.ascii	"RESERVED1\000"
 3562      52564544 
 3562      3100
 3563              	.LASF97:
 3564 0631 52455345 		.ascii	"RESERVED2\000"
 3564      52564544 
 3564      3200
 3565              	.LASF98:
 3566 063b 52455345 		.ascii	"RESERVED3\000"
 3566      52564544 
 3566      3300
 3567              	.LASF100:
 3568 0645 52455345 		.ascii	"RESERVED4\000"
 3568      52564544 
 3568      3400
 3569              	.LASF108:
 3570 064f 52455345 		.ascii	"RESERVED5\000"
 3570      52564544 
 3570      3500
 3571              	.LASF5:
 3572 0659 73686F72 		.ascii	"short int\000"
 3572      7420696E 
 3572      7400
 3573              	.LASF137:
 3574 0663 6164635F 		.ascii	"adc_channels_num_t\000"
 3574      6368616E 
 3574      6E656C73 
 3574      5F6E756D 
 3574      5F7400
 3575              	.LASF58:
 3576 0676 725F6375 		.ascii	"r_current\000"
 3576      7272656E 
 3576      7400
 3577              	.LASF158:
 3578 0680 63666772 		.ascii	"cfgr1\000"
 3578      3100
 3579              	.LASF42:
 3580 0686 705F6570 		.ascii	"p_epending\000"
 3580      656E6469 
 3580      6E6700
 3581              	.LASF61:
ARM GAS  /var/folders/qh/xwg3v3kj02qbxczjpdb8lzfr0000gn/T//cch5LI8o.s 			page 69


 3582 0691 6D5F7175 		.ascii	"m_queue\000"
 3582      65756500 
 3583              	.LASF9:
 3584 0699 6C6F6E67 		.ascii	"long int\000"
 3584      20696E74 
 3584      00
 3585              	.LASF161:
 3586 06a2 41444343 		.ascii	"ADCConversionGroup\000"
 3586      6F6E7665 
 3586      7273696F 
 3586      6E47726F 
 3586      757000
 3587              	.LASF155:
 3588 06b5 6E756D5F 		.ascii	"num_channels\000"
 3588      6368616E 
 3588      6E656C73 
 3588      00
 3589              	.LASF118:
 3590 06c2 4F545950 		.ascii	"OTYPER\000"
 3590      455200
 3591              	.LASF27:
 3592 06c9 705F6E65 		.ascii	"p_next\000"
 3592      787400
 3593              	.LASF13:
 3594 06d0 75696E74 		.ascii	"uint64_t\000"
 3594      36345F74 
 3594      00
 3595              	.LASF30:
 3596 06d9 705F6374 		.ascii	"p_ctx\000"
 3596      7800
 3597              	.LASF193:
 3598 06df 726C6973 		.ascii	"rlist\000"
 3598      7400
 3599              	.LASF128:
 3600 06e5 696F706F 		.ascii	"ioportid_t\000"
 3600      72746964 
 3600      5F7400
 3601              	.LASF129:
 3602 06f0 4144435F 		.ascii	"ADC_UNINIT\000"
 3602      554E494E 
 3602      495400
 3603              	.LASF91:
 3604 06fb 72656164 		.ascii	"read\000"
 3604      00
 3605              	.LASF66:
 3606 0700 656C5F6C 		.ascii	"el_listener\000"
 3606      69737465 
 3606      6E657200 
 3607              	.LASF164:
 3608 070c 53445F55 		.ascii	"SD_UNINIT\000"
 3608      4E494E49 
 3608      5400
 3609              	.LASF125:
 3610 0716 4750494F 		.ascii	"GPIO_TypeDef\000"
 3610      5F547970 
 3610      65446566 
 3610      00
ARM GAS  /var/folders/qh/xwg3v3kj02qbxczjpdb8lzfr0000gn/T//cch5LI8o.s 			page 70


 3611              	.LASF138:
 3612 0723 4144435F 		.ascii	"ADC_ERR_DMAFAILURE\000"
 3612      4552525F 
 3612      444D4146 
 3612      41494C55 
 3612      524500
 3613              	.LASF186:
 3614 0736 73635F63 		.ascii	"sc_commands\000"
 3614      6F6D6D61 
 3614      6E647300 
 3615              	.LASF79:
 3616 0742 715F636F 		.ascii	"q_counter\000"
 3616      756E7465 
 3616      7200
 3617              	.LASF178:
 3618 074c 67657474 		.ascii	"gett\000"
 3618      00
 3619              	.LASF81:
 3620 0751 715F746F 		.ascii	"q_top\000"
 3620      7000
 3621              	.LASF28:
 3622 0757 705F7072 		.ascii	"p_prev\000"
 3622      657600
 3623              	.LASF52:
 3624 075e 73697A65 		.ascii	"sizetype\000"
 3624      74797065 
 3624      00
 3625              	.LASF19:
 3626 0767 74726566 		.ascii	"trefs_t\000"
 3626      735F7400 
 3627              	.LASF64:
 3628 076f 4576656E 		.ascii	"EventListener\000"
 3628      744C6973 
 3628      74656E65 
 3628      7200
 3629              	.LASF11:
 3630 077d 6C6F6E67 		.ascii	"long unsigned int\000"
 3630      20756E73 
 3630      69676E65 
 3630      6420696E 
 3630      7400
 3631              	.LASF131:
 3632 078f 4144435F 		.ascii	"ADC_READY\000"
 3632      52454144 
 3632      5900
 3633              	.LASF160:
 3634 0799 63687365 		.ascii	"chselr\000"
 3634      6C7200
 3635              	.LASF135:
 3636 07a0 61646373 		.ascii	"adcstate_t\000"
 3636      74617465 
 3636      5F7400
 3637              	.LASF8:
 3638 07ab 696E7433 		.ascii	"int32_t\000"
 3638      325F7400 
 3639              	.LASF148:
 3640 07b3 74687265 		.ascii	"thread\000"
ARM GAS  /var/folders/qh/xwg3v3kj02qbxczjpdb8lzfr0000gn/T//cch5LI8o.s 			page 71


 3640      616400
 3641              	.LASF191:
 3642 07ba 77615468 		.ascii	"waThread1\000"
 3642      72656164 
 3642      3100
 3643              	.LASF192:
 3644 07c4 77615468 		.ascii	"waThread2\000"
 3644      72656164 
 3644      3200
 3645              	.LASF4:
 3646 07ce 756E7369 		.ascii	"unsigned char\000"
 3646      676E6564 
 3646      20636861 
 3646      7200
 3647              	.LASF36:
 3648 07dc 705F7265 		.ascii	"p_refs\000"
 3648      667300
 3649              	.LASF59:
 3650 07e3 52656164 		.ascii	"ReadyList\000"
 3650      794C6973 
 3650      7400
 3651              	.LASF197:
 3652 07ed 63685468 		.ascii	"chThdSleep\000"
 3652      64536C65 
 3652      657000
 3653              	.LASF37:
 3654 07f8 705F7072 		.ascii	"p_preempt\000"
 3654      65656D70 
 3654      7400
 3655              	.LASF70:
 3656 0802 65735F6E 		.ascii	"es_next\000"
 3656      65787400 
 3657              	.LASF143:
 3658 080a 73746174 		.ascii	"state\000"
 3658      6500
 3659              	.LASF101:
 3660 0810 4144435F 		.ascii	"ADC_TypeDef\000"
 3660      54797065 
 3660      44656600 
 3661              	.LASF189:
 3662 081c 54687265 		.ascii	"Thread1\000"
 3662      61643100 
 3663              	.LASF188:
 3664 0824 54687265 		.ascii	"Thread2\000"
 3664      61643200 
 3665              	.LASF127:
 3666 082c 696F6D6F 		.ascii	"iomode_t\000"
 3666      64655F74 
 3666      00
 3667              	.LASF63:
 3668 0835 6D5F6E65 		.ascii	"m_next\000"
 3668      787400
 3669              	.LASF1:
 3670 083c 7369676E 		.ascii	"signed char\000"
 3670      65642063 
 3670      68617200 
 3671              	.LASF180:
ARM GAS  /var/folders/qh/xwg3v3kj02qbxczjpdb8lzfr0000gn/T//cch5LI8o.s 			page 72


 3672 0848 72656164 		.ascii	"readt\000"
 3672      7400
 3673              	.LASF7:
 3674 084e 73686F72 		.ascii	"short unsigned int\000"
 3674      7420756E 
 3674      7369676E 
 3674      65642069 
 3674      6E7400
 3675              	.LASF55:
 3676 0861 725F6374 		.ascii	"r_ctx\000"
 3676      7800
 3677              	.LASF49:
 3678 0867 73746B61 		.ascii	"stkalign_t\000"
 3678      6C69676E 
 3678      5F7400
 3679              	.LASF207:
 3680 0872 6D61696E 		.ascii	"main\000"
 3680      00
 3681              	.LASF147:
 3682 0877 67727070 		.ascii	"grpp\000"
 3682      00
 3683              	.LASF130:
 3684 087c 4144435F 		.ascii	"ADC_STOP\000"
 3684      53544F50 
 3684      00
 3685              	.LASF68:
 3686 0885 656C5F66 		.ascii	"el_flags\000"
 3686      6C616773 
 3686      00
 3687              	.LASF72:
 3688 088e 65786974 		.ascii	"exitcode\000"
 3688      636F6465 
 3688      00
 3689              	.LASF113:
 3690 0897 73656C66 		.ascii	"selfindex\000"
 3690      696E6465 
 3690      7800
 3691              	.LASF122:
 3692 08a1 4C434B52 		.ascii	"LCKR\000"
 3692      00
 3693              	.LASF183:
 3694 08a6 73635F66 		.ascii	"sc_function\000"
 3694      756E6374 
 3694      696F6E00 
 3695              		.ident	"GCC: (GNU Tools for ARM Embedded Processors) 4.8.3 20131129 (release) [ARM/embedded-4_8-br
ARM GAS  /var/folders/qh/xwg3v3kj02qbxczjpdb8lzfr0000gn/T//cch5LI8o.s 			page 73


DEFINED SYMBOLS
                            *ABS*:0000000000000000 main.c
/var/folders/qh/xwg3v3kj02qbxczjpdb8lzfr0000gn/T//cch5LI8o.s:18     .text.Thread2:0000000000000000 $t
/var/folders/qh/xwg3v3kj02qbxczjpdb8lzfr0000gn/T//cch5LI8o.s:23     .text.Thread2:0000000000000000 Thread2
/var/folders/qh/xwg3v3kj02qbxczjpdb8lzfr0000gn/T//cch5LI8o.s:67     .text.Thread2:0000000000000024 $d
/var/folders/qh/xwg3v3kj02qbxczjpdb8lzfr0000gn/T//cch5LI8o.s:74     .text.Thread1:0000000000000000 $t
/var/folders/qh/xwg3v3kj02qbxczjpdb8lzfr0000gn/T//cch5LI8o.s:79     .text.Thread1:0000000000000000 Thread1
/var/folders/qh/xwg3v3kj02qbxczjpdb8lzfr0000gn/T//cch5LI8o.s:126    .text.Thread1:0000000000000028 $d
/var/folders/qh/xwg3v3kj02qbxczjpdb8lzfr0000gn/T//cch5LI8o.s:133    .text.startup.main:0000000000000000 $t
/var/folders/qh/xwg3v3kj02qbxczjpdb8lzfr0000gn/T//cch5LI8o.s:139    .text.startup.main:0000000000000000 main
/var/folders/qh/xwg3v3kj02qbxczjpdb8lzfr0000gn/T//cch5LI8o.s:245    .text.startup.main:0000000000000090 $d
/var/folders/qh/xwg3v3kj02qbxczjpdb8lzfr0000gn/T//cch5LI8o.s:302    .bss.sh:0000000000000000 sh
/var/folders/qh/xwg3v3kj02qbxczjpdb8lzfr0000gn/T//cch5LI8o.s:275    .rodata.shCmds:0000000000000000 shCmds
/var/folders/qh/xwg3v3kj02qbxczjpdb8lzfr0000gn/T//cch5LI8o.s:258    .bss.waThread1:0000000000000000 $d
/var/folders/qh/xwg3v3kj02qbxczjpdb8lzfr0000gn/T//cch5LI8o.s:262    .bss.waThread1:0000000000000000 waThread1
/var/folders/qh/xwg3v3kj02qbxczjpdb8lzfr0000gn/T//cch5LI8o.s:265    .bss.waThread2:0000000000000000 $d
/var/folders/qh/xwg3v3kj02qbxczjpdb8lzfr0000gn/T//cch5LI8o.s:269    .bss.waThread2:0000000000000000 waThread2
/var/folders/qh/xwg3v3kj02qbxczjpdb8lzfr0000gn/T//cch5LI8o.s:272    .rodata.shCmds:0000000000000000 $d
/var/folders/qh/xwg3v3kj02qbxczjpdb8lzfr0000gn/T//cch5LI8o.s:281    .rodata.shCfg:0000000000000000 $d
/var/folders/qh/xwg3v3kj02qbxczjpdb8lzfr0000gn/T//cch5LI8o.s:285    .rodata.shCfg:0000000000000000 shCfg
/var/folders/qh/xwg3v3kj02qbxczjpdb8lzfr0000gn/T//cch5LI8o.s:289    .rodata.str1.4:0000000000000000 $d
/var/folders/qh/xwg3v3kj02qbxczjpdb8lzfr0000gn/T//cch5LI8o.s:299    .bss.sh:0000000000000000 $d
                     .debug_frame:0000000000000010 $d
/var/folders/qh/xwg3v3kj02qbxczjpdb8lzfr0000gn/T//cch5LI8o.s:132    .text.Thread1:0000000000000034 $t
/var/folders/qh/xwg3v3kj02qbxczjpdb8lzfr0000gn/T//cch5LI8o.s:257    .text.startup.main:00000000000000ac $t

UNDEFINED SYMBOLS
chThdSleep
rlist
halInit
chSysInit
sdStart
_pal_lld_setgroupmode
chThdCreateStatic
shellInit
chThdRelease
shellCreate
SD1
cmdGetTemp
