ARM GAS  /var/folders/qh/xwg3v3kj02qbxczjpdb8lzfr0000gn/T//cc6askpf.s 			page 1


   1              		.cpu cortex-m0
   2              		.fpu softvfp
   3              		.eabi_attribute 20, 1
   4              		.eabi_attribute 21, 1
   5              		.eabi_attribute 23, 3
   6              		.eabi_attribute 24, 1
   7              		.eabi_attribute 25, 1
   8              		.eabi_attribute 26, 1
   9              		.eabi_attribute 30, 2
  10              		.eabi_attribute 34, 0
  11              		.eabi_attribute 18, 4
  12              		.code	16
  13              		.file	"mmc_spi.c"
  14              		.text
  15              	.Ltext0:
  16              		.cfi_sections	.debug_frame
  17              		.section	.text.mmcGetInfo,"ax",%progbits
  18              		.align	2
  19              		.p2align 4,,15
  20              		.global	mmcGetInfo
  21              		.code	16
  22              		.thumb_func
  23              		.type	mmcGetInfo, %function
  24              	mmcGetInfo:
  25              	.LFB64:
  26              		.file 1 "../../os/hal/src/mmc_spi.c"
  27              		.loc 1 818 0
  28              		.cfi_startproc
  29              	.LVL0:
  30              		.loc 1 822 0
  31 0000 0279     		ldrb	r2, [r0, #4]
  32              		.loc 1 818 0
  33 0002 031C     		mov	r3, r0
  34              		.loc 1 823 0
  35 0004 0120     		mov	r0, #1
  36              	.LVL1:
  37              		.loc 1 822 0
  38 0006 052A     		cmp	r2, #5
  39 0008 05D1     		bne	.L2
  40              		.loc 1 825 0
  41 000a 9B6A     		ldr	r3, [r3, #40]
  42              	.LVL2:
  43              		.loc 1 828 0
  44 000c 0020     		mov	r0, #0
  45              		.loc 1 825 0
  46 000e 4B60     		str	r3, [r1, #4]
  47              		.loc 1 826 0
  48 0010 8023     		mov	r3, #128
  49 0012 9B00     		lsl	r3, r3, #2
  50 0014 0B60     		str	r3, [r1]
  51              	.L2:
  52              		.loc 1 829 0
  53              		@ sp needed
  54 0016 7047     		bx	lr
  55              		.cfi_endproc
  56              	.LFE64:
  57              		.size	mmcGetInfo, .-mmcGetInfo
ARM GAS  /var/folders/qh/xwg3v3kj02qbxczjpdb8lzfr0000gn/T//cc6askpf.s 			page 2


  58 0018 C046C046 		.section	.text.wait.isra.0,"ax",%progbits
  58      C046C046 
  59              		.align	2
  60              		.p2align 4,,15
  61              		.code	16
  62              		.thumb_func
  63              		.type	wait.isra.0, %function
  64              	wait.isra.0:
  65              	.LFB66:
  66              		.loc 1 157 0
  67              		.cfi_startproc
  68              	.LVL3:
  69 0000 70B5     		push	{r4, r5, r6, lr}
  70              		.cfi_def_cfa_offset 16
  71              		.cfi_offset 4, -16
  72              		.cfi_offset 5, -12
  73              		.cfi_offset 6, -8
  74              		.cfi_offset 14, -4
  75 0002 82B0     		sub	sp, sp, #8
  76              		.cfi_def_cfa_offset 24
  77              		.loc 1 157 0
  78 0004 061C     		mov	r6, r0
  79 0006 1025     		mov	r5, #16
  80 0008 01AC     		add	r4, sp, #4
  81              	.LVL4:
  82              	.L8:
  83              		.loc 1 162 0
  84 000a 3368     		ldr	r3, [r6]
  85 000c 0121     		mov	r1, #1
  86 000e 1868     		ldr	r0, [r3]
  87 0010 221C     		mov	r2, r4
  88 0012 FFF7FEFF 		bl	spiReceive
  89              	.LVL5:
  90              		.loc 1 163 0
  91 0016 2378     		ldrb	r3, [r4]
  92 0018 FF2B     		cmp	r3, #255
  93 001a 0FD0     		beq	.L5
  94              	.LVL6:
  95 001c 013D     		sub	r5, r5, #1
  96              	.LVL7:
  97              		.loc 1 161 0
  98 001e 002D     		cmp	r5, #0
  99 0020 F3D1     		bne	.L8
 100 0022 02E0     		b	.L10
 101              	.L19:
 102              		.loc 1 173 0
 103 0024 0120     		mov	r0, #1
 104 0026 FFF7FEFF 		bl	chThdSleep
 105              	.LVL8:
 106              	.L10:
 107              		.loc 1 168 0
 108 002a 3368     		ldr	r3, [r6]
 109 002c 0121     		mov	r1, #1
 110 002e 1868     		ldr	r0, [r3]
 111 0030 221C     		mov	r2, r4
 112 0032 FFF7FEFF 		bl	spiReceive
 113              	.LVL9:
ARM GAS  /var/folders/qh/xwg3v3kj02qbxczjpdb8lzfr0000gn/T//cc6askpf.s 			page 3


 114              		.loc 1 169 0
 115 0036 2378     		ldrb	r3, [r4]
 116 0038 FF2B     		cmp	r3, #255
 117 003a F3D1     		bne	.L19
 118              	.LVL10:
 119              	.L5:
 120              		.loc 1 176 0
 121 003c 02B0     		add	sp, sp, #8
 122              		@ sp needed
 123 003e 70BD     		pop	{r4, r5, r6, pc}
 124              		.cfi_endproc
 125              	.LFE66:
 126              		.size	wait.isra.0, .-wait.isra.0
 127              		.section	.text.send_hdr,"ax",%progbits
 128              		.align	2
 129              		.p2align 4,,15
 130              		.code	16
 131              		.thumb_func
 132              		.type	send_hdr, %function
 133              	send_hdr:
 134              	.LFB44:
 135              		.loc 1 187 0
 136              		.cfi_startproc
 137              	.LVL11:
 138 0000 70B5     		push	{r4, r5, r6, lr}
 139              		.cfi_def_cfa_offset 16
 140              		.cfi_offset 4, -16
 141              		.cfi_offset 5, -12
 142              		.cfi_offset 6, -8
 143              		.cfi_offset 14, -4
 144 0002 141C     		mov	r4, r2
 145 0004 82B0     		sub	sp, sp, #8
 146              		.cfi_def_cfa_offset 24
 147              		.loc 1 187 0
 148 0006 061C     		mov	r6, r0
 149 0008 2C30     		add	r0, r0, #44
 150              	.LVL12:
 151 000a 0D1C     		mov	r5, r1
 152              		.loc 1 191 0
 153 000c FFF7FEFF 		bl	wait.isra.0
 154              	.LVL13:
 155              		.loc 1 193 0
 156 0010 6A46     		mov	r2, sp
 157              		.loc 1 194 0
 158 0012 230E     		lsr	r3, r4, #24
 159 0014 5370     		strb	r3, [r2, #1]
 160              		.loc 1 195 0
 161 0016 230C     		lsr	r3, r4, #16
 162 0018 9370     		strb	r3, [r2, #2]
 163              		.loc 1 193 0
 164 001a 4021     		mov	r1, #64
 165              		.loc 1 196 0
 166 001c 230A     		lsr	r3, r4, #8
 167              		.loc 1 193 0
 168 001e 2943     		orr	r1, r5
 169              		.loc 1 196 0
 170 0020 D370     		strb	r3, [r2, #3]
ARM GAS  /var/folders/qh/xwg3v3kj02qbxczjpdb8lzfr0000gn/T//cc6askpf.s 			page 4


 171 0022 6D46     		mov	r5, sp
 172 0024 6B46     		mov	r3, sp
 173              		.loc 1 197 0
 174 0026 1471     		strb	r4, [r2, #4]
 175              	.LVL14:
 176              		.loc 1 193 0
 177 0028 1170     		strb	r1, [r2]
 178 002a 0133     		add	r3, r3, #1
 179 002c 0535     		add	r5, r5, #5
 180              		.loc 1 197 0
 181 002e 0022     		mov	r2, #0
 182              	.LVL15:
 183 0030 0A4C     		ldr	r4, .L24
 184              	.LVL16:
 185 0032 01E0     		b	.L22
 186              	.LVL17:
 187              	.L23:
 188 0034 1978     		ldrb	r1, [r3]
 189              	.LVL18:
 190 0036 0133     		add	r3, r3, #1
 191              	.LVL19:
 192              	.L22:
 193              	.LBB4:
 194              	.LBB5:
 195              		.loc 1 146 0
 196 0038 5200     		lsl	r2, r2, #1
 197              	.LVL20:
 198 003a 5140     		eor	r1, r2
 199 003c 625C     		ldrb	r2, [r4, r1]
 200              	.LVL21:
 201              		.loc 1 145 0
 202 003e AB42     		cmp	r3, r5
 203 0040 F8D1     		bne	.L23
 204              	.LBE5:
 205              	.LBE4:
 206              		.loc 1 199 0
 207 0042 0123     		mov	r3, #1
 208              	.LVL22:
 209 0044 5200     		lsl	r2, r2, #1
 210 0046 1A43     		orr	r2, r3
 211 0048 6B46     		mov	r3, sp
 212 004a 5A71     		strb	r2, [r3, #5]
 213              		.loc 1 201 0
 214 004c F36A     		ldr	r3, [r6, #44]
 215 004e 0621     		mov	r1, #6
 216              	.LVL23:
 217 0050 1868     		ldr	r0, [r3]
 218 0052 6A46     		mov	r2, sp
 219 0054 FFF7FEFF 		bl	spiSend
 220              	.LVL24:
 221              		.loc 1 202 0
 222 0058 02B0     		add	sp, sp, #8
 223              		@ sp needed
 224              	.LVL25:
 225 005a 70BD     		pop	{r4, r5, r6, pc}
 226              	.L25:
 227              		.align	2
ARM GAS  /var/folders/qh/xwg3v3kj02qbxczjpdb8lzfr0000gn/T//cc6askpf.s 			page 5


 228              	.L24:
 229 005c 00000000 		.word	.LANCHOR0
 230              		.cfi_endproc
 231              	.LFE44:
 232              		.size	send_hdr, .-send_hdr
 233              		.section	.text.recvr1.isra.1,"ax",%progbits
 234              		.align	2
 235              		.p2align 4,,15
 236              		.code	16
 237              		.thumb_func
 238              		.type	recvr1.isra.1, %function
 239              	recvr1.isra.1:
 240              	.LFB67:
 241              		.loc 1 213 0
 242              		.cfi_startproc
 243              	.LVL26:
 244 0000 70B5     		push	{r4, r5, r6, lr}
 245              		.cfi_def_cfa_offset 16
 246              		.cfi_offset 4, -16
 247              		.cfi_offset 5, -12
 248              		.cfi_offset 6, -8
 249              		.cfi_offset 14, -4
 250 0002 82B0     		sub	sp, sp, #8
 251              		.cfi_def_cfa_offset 24
 252              		.loc 1 213 0
 253 0004 061C     		mov	r6, r0
 254 0006 0924     		mov	r4, #9
 255 0008 01AD     		add	r5, sp, #4
 256              	.LVL27:
 257              	.L28:
 258              		.loc 1 218 0
 259 000a 3368     		ldr	r3, [r6]
 260 000c 0121     		mov	r1, #1
 261 000e 1868     		ldr	r0, [r3]
 262 0010 2A1C     		mov	r2, r5
 263 0012 FFF7FEFF 		bl	spiReceive
 264              	.LVL28:
 265              		.loc 1 219 0
 266 0016 2878     		ldrb	r0, [r5]
 267 0018 FF28     		cmp	r0, #255
 268 001a 02D1     		bne	.L27
 269              	.LVL29:
 270 001c 013C     		sub	r4, r4, #1
 271              	.LVL30:
 272              		.loc 1 217 0
 273 001e 002C     		cmp	r4, #0
 274 0020 F3D1     		bne	.L28
 275              	.LVL31:
 276              	.L27:
 277              		.loc 1 223 0
 278 0022 02B0     		add	sp, sp, #8
 279              		@ sp needed
 280 0024 70BD     		pop	{r4, r5, r6, pc}
 281              		.cfi_endproc
 282              	.LFE67:
 283              		.size	recvr1.isra.1, .-recvr1.isra.1
 284 0026 C046C046 		.section	.text.send_command_R3,"ax",%progbits
ARM GAS  /var/folders/qh/xwg3v3kj02qbxczjpdb8lzfr0000gn/T//cc6askpf.s 			page 6


 284      C046C046 
 284      C046
 285              		.align	2
 286              		.p2align 4,,15
 287              		.code	16
 288              		.thumb_func
 289              		.type	send_command_R3, %function
 290              	send_command_R3:
 291              	.LFB48:
 292              		.loc 1 279 0
 293              		.cfi_startproc
 294              	.LVL32:
 295 0000 F8B5     		push	{r3, r4, r5, r6, r7, lr}
 296              		.cfi_def_cfa_offset 24
 297              		.cfi_offset 3, -24
 298              		.cfi_offset 4, -20
 299              		.cfi_offset 5, -16
 300              		.cfi_offset 6, -12
 301              		.cfi_offset 7, -8
 302              		.cfi_offset 14, -4
 303              		.loc 1 279 0
 304 0002 1E1C     		mov	r6, r3
 305              		.loc 1 282 0
 306 0004 C36A     		ldr	r3, [r0, #44]
 307              	.LVL33:
 308              		.loc 1 279 0
 309 0006 041C     		mov	r4, r0
 310 0008 0F1C     		mov	r7, r1
 311              		.loc 1 282 0
 312 000a 1868     		ldr	r0, [r3]
 313              	.LVL34:
 314              		.loc 1 279 0
 315 000c 151C     		mov	r5, r2
 316              		.loc 1 282 0
 317 000e FFF7FEFF 		bl	spiSelect
 318              	.LVL35:
 319              		.loc 1 283 0
 320 0012 391C     		mov	r1, r7
 321 0014 2A1C     		mov	r2, r5
 322 0016 201C     		mov	r0, r4
 323 0018 FFF7FEFF 		bl	send_hdr
 324              	.LVL36:
 325 001c 201C     		mov	r0, r4
 326 001e 2C30     		add	r0, r0, #44
 327              	.LBB8:
 328              	.LBB9:
 329              		.loc 1 238 0
 330 0020 FFF7FEFF 		bl	recvr1.isra.1
 331              	.LVL37:
 332              		.loc 1 239 0
 333 0024 E36A     		ldr	r3, [r4, #44]
 334              		.loc 1 238 0
 335 0026 051C     		mov	r5, r0
 336              	.LVL38:
 337              		.loc 1 239 0
 338 0028 321C     		mov	r2, r6
 339 002a 1868     		ldr	r0, [r3]
ARM GAS  /var/folders/qh/xwg3v3kj02qbxczjpdb8lzfr0000gn/T//cc6askpf.s 			page 7


 340              	.LVL39:
 341 002c 0421     		mov	r1, #4
 342 002e FFF7FEFF 		bl	spiReceive
 343              	.LVL40:
 344              	.LBE9:
 345              	.LBE8:
 346              		.loc 1 285 0
 347 0032 E36A     		ldr	r3, [r4, #44]
 348              		.loc 1 287 0
 349              		@ sp needed
 350              		.loc 1 285 0
 351 0034 1868     		ldr	r0, [r3]
 352 0036 FFF7FEFF 		bl	spiUnselect
 353              	.LVL41:
 354              		.loc 1 287 0
 355 003a 281C     		mov	r0, r5
 356              	.LVL42:
 357              	.LVL43:
 358              	.LVL44:
 359 003c F8BD     		pop	{r3, r4, r5, r6, r7, pc}
 360              		.cfi_endproc
 361              	.LFE48:
 362              		.size	send_command_R3, .-send_command_R3
 363 003e C046     		.section	.text.send_command_R1,"ax",%progbits
 364              		.align	2
 365              		.p2align 4,,15
 366              		.code	16
 367              		.thumb_func
 368              		.type	send_command_R1, %function
 369              	send_command_R1:
 370              	.LFB47:
 371              		.loc 1 255 0
 372              		.cfi_startproc
 373              	.LVL45:
 374              		.loc 1 258 0
 375 0000 C36A     		ldr	r3, [r0, #44]
 376              		.loc 1 255 0
 377 0002 70B5     		push	{r4, r5, r6, lr}
 378              		.cfi_def_cfa_offset 16
 379              		.cfi_offset 4, -16
 380              		.cfi_offset 5, -12
 381              		.cfi_offset 6, -8
 382              		.cfi_offset 14, -4
 383              		.loc 1 255 0
 384 0004 041C     		mov	r4, r0
 385 0006 0E1C     		mov	r6, r1
 386              		.loc 1 258 0
 387 0008 1868     		ldr	r0, [r3]
 388              	.LVL46:
 389              		.loc 1 255 0
 390 000a 151C     		mov	r5, r2
 391              		.loc 1 258 0
 392 000c FFF7FEFF 		bl	spiSelect
 393              	.LVL47:
 394              		.loc 1 259 0
 395 0010 311C     		mov	r1, r6
 396 0012 2A1C     		mov	r2, r5
ARM GAS  /var/folders/qh/xwg3v3kj02qbxczjpdb8lzfr0000gn/T//cc6askpf.s 			page 8


 397 0014 201C     		mov	r0, r4
 398 0016 FFF7FEFF 		bl	send_hdr
 399              	.LVL48:
 400 001a 201C     		mov	r0, r4
 401 001c 2C30     		add	r0, r0, #44
 402              		.loc 1 260 0
 403 001e FFF7FEFF 		bl	recvr1.isra.1
 404              	.LVL49:
 405              		.loc 1 261 0
 406 0022 E36A     		ldr	r3, [r4, #44]
 407              		.loc 1 260 0
 408 0024 051C     		mov	r5, r0
 409              	.LVL50:
 410              		.loc 1 261 0
 411 0026 1868     		ldr	r0, [r3]
 412              	.LVL51:
 413 0028 FFF7FEFF 		bl	spiUnselect
 414              	.LVL52:
 415              		.loc 1 263 0
 416              		@ sp needed
 417 002c 281C     		mov	r0, r5
 418              	.LVL53:
 419              	.LVL54:
 420 002e 70BD     		pop	{r4, r5, r6, pc}
 421              		.cfi_endproc
 422              	.LFE47:
 423              		.size	send_command_R1, .-send_command_R1
 424              		.section	.text.read_CxD,"ax",%progbits
 425              		.align	2
 426              		.p2align 4,,15
 427              		.code	16
 428              		.thumb_func
 429              		.type	read_CxD, %function
 430              	read_CxD:
 431              	.LFB49:
 432              		.loc 1 301 0
 433              		.cfi_startproc
 434              	.LVL55:
 435 0000 70B5     		push	{r4, r5, r6, lr}
 436              		.cfi_def_cfa_offset 16
 437              		.cfi_offset 4, -16
 438              		.cfi_offset 5, -12
 439              		.cfi_offset 6, -8
 440              		.cfi_offset 14, -4
 441              		.loc 1 305 0
 442 0002 C36A     		ldr	r3, [r0, #44]
 443              		.loc 1 301 0
 444 0004 84B0     		sub	sp, sp, #16
 445              		.cfi_def_cfa_offset 32
 446              		.loc 1 301 0
 447 0006 051C     		mov	r5, r0
 448 0008 0C1C     		mov	r4, r1
 449              		.loc 1 305 0
 450 000a 1868     		ldr	r0, [r3]
 451              	.LVL56:
 452              		.loc 1 301 0
 453 000c 161C     		mov	r6, r2
ARM GAS  /var/folders/qh/xwg3v3kj02qbxczjpdb8lzfr0000gn/T//cc6askpf.s 			page 9


 454              		.loc 1 305 0
 455 000e FFF7FEFF 		bl	spiSelect
 456              	.LVL57:
 457              		.loc 1 306 0
 458 0012 281C     		mov	r0, r5
 459 0014 211C     		mov	r1, r4
 460 0016 0022     		mov	r2, #0
 461 0018 FFF7FEFF 		bl	send_hdr
 462              	.LVL58:
 463 001c 281C     		mov	r0, r5
 464 001e 2C30     		add	r0, r0, #44
 465              		.loc 1 307 0
 466 0020 FFF7FEFF 		bl	recvr1.isra.1
 467              	.LVL59:
 468 0024 0028     		cmp	r0, #0
 469 0026 32D1     		bne	.L42
 470 0028 1D4C     		ldr	r4, .L44
 471 002a 02E0     		b	.L40
 472              	.LVL60:
 473              	.L37:
 474 002c 013C     		sub	r4, r4, #1
 475              	.LVL61:
 476              		.loc 1 313 0
 477 002e 002C     		cmp	r4, #0
 478 0030 33D0     		beq	.L43
 479              	.LVL62:
 480              	.L40:
 481              		.loc 1 314 0
 482 0032 EB6A     		ldr	r3, [r5, #44]
 483 0034 6A46     		mov	r2, sp
 484 0036 1868     		ldr	r0, [r3]
 485 0038 0121     		mov	r1, #1
 486 003a FFF7FEFF 		bl	spiReceive
 487              	.LVL63:
 488              		.loc 1 315 0
 489 003e 6A46     		mov	r2, sp
 490 0040 1378     		ldrb	r3, [r2]
 491 0042 FE2B     		cmp	r3, #254
 492 0044 F2D1     		bne	.L37
 493              	.LBB10:
 494              		.loc 1 318 0
 495 0046 EB6A     		ldr	r3, [r5, #44]
 496 0048 1021     		mov	r1, #16
 497 004a 1868     		ldr	r0, [r3]
 498 004c FFF7FEFF 		bl	spiReceive
 499              	.LVL64:
 500              		.loc 1 320 0
 501 0050 311C     		mov	r1, r6
 502 0052 0C31     		add	r1, r1, #12
 503              	.LVL65:
 504 0054 321F     		sub	r2, r6, #4
 505              		.loc 1 319 0
 506 0056 6B46     		mov	r3, sp
 507              	.LVL66:
 508              	.L39:
 509              		.loc 1 321 0 discriminator 2
 510 0058 1C78     		ldrb	r4, [r3]
ARM GAS  /var/folders/qh/xwg3v3kj02qbxczjpdb8lzfr0000gn/T//cc6askpf.s 			page 10


 511 005a 5878     		ldrb	r0, [r3, #1]
 512 005c 2406     		lsl	r4, r4, #24
 513 005e 0004     		lsl	r0, r0, #16
 514 0060 2043     		orr	r0, r4
 515              		.loc 1 322 0 discriminator 2
 516 0062 DC78     		ldrb	r4, [r3, #3]
 517              		.loc 1 320 0 discriminator 2
 518 0064 0439     		sub	r1, r1, #4
 519              	.LVL67:
 520              		.loc 1 321 0 discriminator 2
 521 0066 2043     		orr	r0, r4
 522              		.loc 1 322 0 discriminator 2
 523 0068 9C78     		ldrb	r4, [r3, #2]
 524              		.loc 1 323 0 discriminator 2
 525 006a 0433     		add	r3, r3, #4
 526              	.LVL68:
 527              		.loc 1 322 0 discriminator 2
 528 006c 2402     		lsl	r4, r4, #8
 529 006e 2043     		orr	r0, r4
 530              		.loc 1 321 0 discriminator 2
 531 0070 4860     		str	r0, [r1, #4]
 532              	.LVL69:
 533              		.loc 1 320 0 discriminator 2
 534 0072 9142     		cmp	r1, r2
 535 0074 F0D1     		bne	.L39
 536              		.loc 1 327 0
 537 0076 EB6A     		ldr	r3, [r5, #44]
 538              	.LVL70:
 539 0078 0221     		mov	r1, #2
 540              	.LVL71:
 541 007a 1868     		ldr	r0, [r3]
 542 007c FFF7FEFF 		bl	spiIgnore
 543              	.LVL72:
 544              		.loc 1 328 0
 545 0080 EB6A     		ldr	r3, [r5, #44]
 546 0082 1868     		ldr	r0, [r3]
 547 0084 FFF7FEFF 		bl	spiUnselect
 548              	.LVL73:
 549              		.loc 1 330 0
 550 0088 0020     		mov	r0, #0
 551              	.L36:
 552              	.LBE10:
 553              		.loc 1 334 0
 554 008a 04B0     		add	sp, sp, #16
 555              		@ sp needed
 556              	.LVL74:
 557              	.LVL75:
 558 008c 70BD     		pop	{r4, r5, r6, pc}
 559              	.LVL76:
 560              	.L42:
 561              		.loc 1 308 0
 562 008e EB6A     		ldr	r3, [r5, #44]
 563 0090 1868     		ldr	r0, [r3]
 564 0092 FFF7FEFF 		bl	spiUnselect
 565              	.LVL77:
 566              		.loc 1 309 0
 567 0096 0120     		mov	r0, #1
ARM GAS  /var/folders/qh/xwg3v3kj02qbxczjpdb8lzfr0000gn/T//cc6askpf.s 			page 11


 568 0098 F7E7     		b	.L36
 569              	.LVL78:
 570              	.L43:
 571              		.loc 1 333 0
 572 009a 0120     		mov	r0, #1
 573 009c F5E7     		b	.L36
 574              	.L45:
 575 009e C046     		.align	2
 576              	.L44:
 577 00a0 10270000 		.word	10000
 578              		.cfi_endproc
 579              	.LFE49:
 580              		.size	read_CxD, .-read_CxD
 581 00a4 C046C046 		.section	.text.mmcConnect,"ax",%progbits
 581      C046C046 
 581      C046C046 
 582              		.align	2
 583              		.p2align 4,,15
 584              		.global	mmcConnect
 585              		.code	16
 586              		.thumb_func
 587              		.type	mmcConnect, %function
 588              	mmcConnect:
 589              	.LFB55:
 590              		.loc 1 440 0
 591              		.cfi_startproc
 592              	.LVL79:
 593 0000 70B5     		push	{r4, r5, r6, lr}
 594              		.cfi_def_cfa_offset 16
 595              		.cfi_offset 4, -16
 596              		.cfi_offset 5, -12
 597              		.cfi_offset 6, -8
 598              		.cfi_offset 14, -4
 599              		.loc 1 450 0
 600 0002 0323     		mov	r3, #3
 601 0004 0371     		strb	r3, [r0, #4]
 602              		.loc 1 453 0
 603 0006 C36A     		ldr	r3, [r0, #44]
 604              		.loc 1 440 0
 605 0008 82B0     		sub	sp, sp, #8
 606              		.cfi_def_cfa_offset 24
 607              		.loc 1 440 0
 608 000a 051C     		mov	r5, r0
 609              		.loc 1 453 0
 610 000c 03CB     		ldmia	r3!, {r0, r1}
 611              	.LVL80:
 612 000e FFF7FEFF 		bl	spiStart
 613              	.LVL81:
 614              		.loc 1 454 0
 615 0012 EB6A     		ldr	r3, [r5, #44]
 616 0014 1021     		mov	r1, #16
 617 0016 1868     		ldr	r0, [r3]
 618 0018 FFF7FEFF 		bl	spiIgnore
 619              	.LVL82:
 620 001c 0A24     		mov	r4, #10
 621 001e 02E0     		b	.L49
 622              	.LVL83:
ARM GAS  /var/folders/qh/xwg3v3kj02qbxczjpdb8lzfr0000gn/T//cc6askpf.s 			page 12


 623              	.L78:
 624              		.loc 1 463 0
 625 0020 0A20     		mov	r0, #10
 626 0022 FFF7FEFF 		bl	chThdSleep
 627              	.LVL84:
 628              	.L49:
 629              		.loc 1 459 0
 630 0026 281C     		mov	r0, r5
 631 0028 0021     		mov	r1, #0
 632 002a 0022     		mov	r2, #0
 633 002c FFF7FEFF 		bl	send_command_R1
 634              	.LVL85:
 635 0030 0128     		cmp	r0, #1
 636 0032 0BD0     		beq	.L47
 637              	.LVL86:
 638 0034 013C     		sub	r4, r4, #1
 639              	.LVL87:
 640              		.loc 1 461 0
 641 0036 002C     		cmp	r4, #0
 642 0038 F2D1     		bne	.L78
 643              	.LVL88:
 644              	.L48:
 645              	.LDL1:
 646              		.loc 1 530 0
 647 003a EB6A     		ldr	r3, [r5, #44]
 648 003c 1868     		ldr	r0, [r3]
 649 003e FFF7FEFF 		bl	spiStop
 650              	.LVL89:
 651              		.loc 1 531 0
 652 0042 0223     		mov	r3, #2
 653 0044 2B71     		strb	r3, [r5, #4]
 654              		.loc 1 532 0
 655 0046 0120     		mov	r0, #1
 656              	.L60:
 657              		.loc 1 533 0
 658 0048 02B0     		add	sp, sp, #8
 659              		@ sp needed
 660              	.LVL90:
 661 004a 70BD     		pop	{r4, r5, r6, pc}
 662              	.LVL91:
 663              	.L47:
 664              		.loc 1 470 0
 665 004c D522     		mov	r2, #213
 666 004e 281C     		mov	r0, r5
 667 0050 0821     		mov	r1, #8
 668 0052 5200     		lsl	r2, r2, #1
 669 0054 01AB     		add	r3, sp, #4
 670 0056 FFF7FEFF 		bl	send_command_R3
 671              	.LVL92:
 672 005a 6424     		mov	r4, #100
 673              	.LVL93:
 674 005c 0528     		cmp	r0, #5
 675 005e 06D1     		bne	.L76
 676 0060 1FE0     		b	.L51
 677              	.LVL94:
 678              	.L55:
 679 0062 013C     		sub	r4, r4, #1
ARM GAS  /var/folders/qh/xwg3v3kj02qbxczjpdb8lzfr0000gn/T//cc6askpf.s 			page 13


 680              	.LVL95:
 681              		.loc 1 481 0
 682 0064 002C     		cmp	r4, #0
 683 0066 E8D0     		beq	.L48
 684              		.loc 1 483 0
 685 0068 0A20     		mov	r0, #10
 686 006a FFF7FEFF 		bl	chThdSleep
 687              	.LVL96:
 688              	.L76:
 689              		.loc 1 476 0
 690 006e 281C     		mov	r0, r5
 691 0070 3721     		mov	r1, #55
 692 0072 0022     		mov	r2, #0
 693 0074 FFF7FEFF 		bl	send_command_R1
 694              	.LVL97:
 695 0078 061E     		sub	r6, r0, #0
 696 007a 012E     		cmp	r6, #1
 697 007c F1D1     		bne	.L55
 698              		.loc 1 477 0 discriminator 1
 699 007e 281C     		mov	r0, r5
 700 0080 2921     		mov	r1, #41
 701 0082 254A     		ldr	r2, .L81
 702 0084 01AB     		add	r3, sp, #4
 703 0086 FFF7FEFF 		bl	send_command_R3
 704              	.LVL98:
 705              		.loc 1 476 0 discriminator 1
 706 008a 0028     		cmp	r0, #0
 707 008c E9D1     		bne	.L55
 708              		.loc 1 487 0
 709 008e 0022     		mov	r2, #0
 710 0090 01AB     		add	r3, sp, #4
 711 0092 281C     		mov	r0, r5
 712 0094 3A21     		mov	r1, #58
 713 0096 FFF7FEFF 		bl	send_command_R3
 714              	.LVL99:
 715              		.loc 1 490 0
 716 009a 6A46     		mov	r2, sp
 717 009c 1379     		ldrb	r3, [r2, #4]
 718 009e 5A06     		lsl	r2, r3, #25
 719 00a0 37D4     		bmi	.L79
 720              	.LVL100:
 721              	.L51:
 722              		.loc 1 470 0
 723 00a2 6424     		mov	r4, #100
 724 00a4 07E0     		b	.L59
 725              	.LVL101:
 726              	.L80:
 727              	.LBB11:
 728              		.loc 1 500 0
 729 00a6 0128     		cmp	r0, #1
 730 00a8 C7D1     		bne	.L48
 731              	.LVL102:
 732 00aa 013C     		sub	r4, r4, #1
 733              	.LVL103:
 734              		.loc 1 502 0
 735 00ac 002C     		cmp	r4, #0
 736 00ae C4D0     		beq	.L48
ARM GAS  /var/folders/qh/xwg3v3kj02qbxczjpdb8lzfr0000gn/T//cc6askpf.s 			page 14


 737              		.loc 1 504 0
 738 00b0 0A20     		mov	r0, #10
 739              	.LVL104:
 740 00b2 FFF7FEFF 		bl	chThdSleep
 741              	.LVL105:
 742              	.L59:
 743              		.loc 1 497 0
 744 00b6 281C     		mov	r0, r5
 745 00b8 0121     		mov	r1, #1
 746 00ba 0022     		mov	r2, #0
 747 00bc FFF7FEFF 		bl	send_command_R1
 748              	.LVL106:
 749              		.loc 1 498 0
 750 00c0 0028     		cmp	r0, #0
 751 00c2 F0D1     		bne	.L80
 752              	.LBE11:
 753              		.loc 1 508 0
 754 00c4 EB6A     		ldr	r3, [r5, #44]
 755 00c6 1868     		ldr	r0, [r3]
 756              	.LVL107:
 757 00c8 9968     		ldr	r1, [r3, #8]
 758 00ca FFF7FEFF 		bl	spiStart
 759              	.LVL108:
 760              		.loc 1 511 0
 761 00ce 8022     		mov	r2, #128
 762 00d0 281C     		mov	r0, r5
 763 00d2 1021     		mov	r1, #16
 764 00d4 9200     		lsl	r2, r2, #2
 765 00d6 FFF7FEFF 		bl	send_command_R1
 766              	.LVL109:
 767 00da 0028     		cmp	r0, #0
 768 00dc ADD1     		bne	.L48
 769              		.loc 1 516 0
 770 00de 2C1C     		mov	r4, r5
 771              	.LVL110:
 772 00e0 1834     		add	r4, r4, #24
 773 00e2 281C     		mov	r0, r5
 774 00e4 0921     		mov	r1, #9
 775 00e6 221C     		mov	r2, r4
 776 00e8 FFF7FEFF 		bl	read_CxD
 777              	.LVL111:
 778 00ec 0028     		cmp	r0, #0
 779 00ee A4D1     		bne	.L48
 780              		.loc 1 518 0
 781 00f0 201C     		mov	r0, r4
 782 00f2 FFF7FEFF 		bl	mmcsdGetCapacity
 783              	.LVL112:
 784 00f6 A862     		str	r0, [r5, #40]
 785              		.loc 1 519 0
 786 00f8 0028     		cmp	r0, #0
 787 00fa 9ED0     		beq	.L48
 788              		.loc 1 522 0
 789 00fc 2A1C     		mov	r2, r5
 790 00fe 281C     		mov	r0, r5
 791 0100 0A21     		mov	r1, #10
 792 0102 0832     		add	r2, r2, #8
 793 0104 FFF7FEFF 		bl	read_CxD
ARM GAS  /var/folders/qh/xwg3v3kj02qbxczjpdb8lzfr0000gn/T//cc6askpf.s 			page 15


 794              	.LVL113:
 795 0108 0028     		cmp	r0, #0
 796 010a 96D1     		bne	.L48
 797              		.loc 1 525 0
 798 010c 0523     		mov	r3, #5
 799 010e 2B71     		strb	r3, [r5, #4]
 800              		.loc 1 526 0
 801 0110 9AE7     		b	.L60
 802              	.LVL114:
 803              	.L79:
 804              		.loc 1 491 0
 805 0112 3023     		mov	r3, #48
 806 0114 EE54     		strb	r6, [r5, r3]
 807 0116 C4E7     		b	.L51
 808              	.L82:
 809              		.align	2
 810              	.L81:
 811 0118 AA010040 		.word	1073742250
 812              		.cfi_endproc
 813              	.LFE55:
 814              		.size	mmcConnect, .-mmcConnect
 815 011c C046C046 		.section	.text.sync.isra.2,"ax",%progbits
 816              		.align	2
 817              		.p2align 4,,15
 818              		.code	16
 819              		.thumb_func
 820              		.type	sync.isra.2, %function
 821              	sync.isra.2:
 822              	.LFB68:
 823              		.loc 1 343 0
 824              		.cfi_startproc
 825              	.LVL115:
 826 0000 30B5     		push	{r4, r5, lr}
 827              		.cfi_def_cfa_offset 12
 828              		.cfi_offset 4, -12
 829              		.cfi_offset 5, -8
 830              		.cfi_offset 14, -4
 831              		.loc 1 346 0
 832 0002 0368     		ldr	r3, [r0]
 833              		.loc 1 343 0
 834 0004 83B0     		sub	sp, sp, #12
 835              		.cfi_def_cfa_offset 24
 836              		.loc 1 343 0
 837 0006 051C     		mov	r5, r0
 838              		.loc 1 346 0
 839 0008 1868     		ldr	r0, [r3]
 840 000a FFF7FEFF 		bl	spiSelect
 841              	.LVL116:
 842 000e 01AC     		add	r4, sp, #4
 843 0010 02E0     		b	.L85
 844              	.L86:
 845              		.loc 1 352 0
 846 0012 0120     		mov	r0, #1
 847 0014 FFF7FEFF 		bl	chThdSleep
 848              	.LVL117:
 849              	.L85:
 850              		.loc 1 348 0
ARM GAS  /var/folders/qh/xwg3v3kj02qbxczjpdb8lzfr0000gn/T//cc6askpf.s 			page 16


 851 0018 2B68     		ldr	r3, [r5]
 852 001a 0121     		mov	r1, #1
 853 001c 1868     		ldr	r0, [r3]
 854 001e 221C     		mov	r2, r4
 855 0020 FFF7FEFF 		bl	spiReceive
 856              	.LVL118:
 857              		.loc 1 349 0
 858 0024 2378     		ldrb	r3, [r4]
 859 0026 FF2B     		cmp	r3, #255
 860 0028 F3D1     		bne	.L86
 861              		.loc 1 355 0
 862 002a 2B68     		ldr	r3, [r5]
 863 002c 1868     		ldr	r0, [r3]
 864 002e FFF7FEFF 		bl	spiUnselect
 865              	.LVL119:
 866              		.loc 1 356 0
 867 0032 03B0     		add	sp, sp, #12
 868              		@ sp needed
 869 0034 30BD     		pop	{r4, r5, pc}
 870              		.cfi_endproc
 871              	.LFE68:
 872              		.size	sync.isra.2, .-sync.isra.2
 873 0036 C046C046 		.section	.text.mmcDisconnect,"ax",%progbits
 873      C046C046 
 873      C046
 874              		.align	2
 875              		.p2align 4,,15
 876              		.global	mmcDisconnect
 877              		.code	16
 878              		.thumb_func
 879              		.type	mmcDisconnect, %function
 880              	mmcDisconnect:
 881              	.LFB56:
 882              		.loc 1 547 0
 883              		.cfi_startproc
 884              	.LVL120:
 885 0000 10B5     		push	{r4, lr}
 886              		.cfi_def_cfa_offset 8
 887              		.cfi_offset 4, -8
 888              		.cfi_offset 14, -4
 889              		.loc 1 547 0
 890 0002 041C     		mov	r4, r0
 891              		.loc 1 551 0
 892              	@ 551 "../../os/hal/src/mmc_spi.c" 1
 893 0004 72B6     		cpsid   i
 894              	@ 0 "" 2
 895              		.code	16
 896 0006 FFF7FEFF 		bl	dbg_check_lock
 897              	.LVL121:
 898              		.loc 1 554 0
 899 000a 2379     		ldrb	r3, [r4, #4]
 900 000c 022B     		cmp	r3, #2
 901 000e 15D0     		beq	.L90
 902              		.loc 1 558 0
 903 0010 0423     		mov	r3, #4
 904 0012 2371     		strb	r3, [r4, #4]
 905              		.loc 1 559 0
ARM GAS  /var/folders/qh/xwg3v3kj02qbxczjpdb8lzfr0000gn/T//cc6askpf.s 			page 17


 906 0014 FFF7FEFF 		bl	dbg_check_unlock
 907              	.LVL122:
 908              	@ 559 "../../os/hal/src/mmc_spi.c" 1
 909 0018 62B6     		cpsie   i
 910              	@ 0 "" 2
 911              		.loc 1 562 0
 912              		.code	16
 913 001a E36A     		ldr	r3, [r4, #44]
 914 001c 1868     		ldr	r0, [r3]
 915 001e 9968     		ldr	r1, [r3, #8]
 916 0020 FFF7FEFF 		bl	spiStart
 917              	.LVL123:
 918 0024 201C     		mov	r0, r4
 919 0026 2C30     		add	r0, r0, #44
 920              		.loc 1 563 0
 921 0028 FFF7FEFF 		bl	sync.isra.2
 922              	.LVL124:
 923              		.loc 1 565 0
 924 002c E36A     		ldr	r3, [r4, #44]
 925 002e 1868     		ldr	r0, [r3]
 926 0030 FFF7FEFF 		bl	spiStop
 927              	.LVL125:
 928              		.loc 1 566 0
 929 0034 0223     		mov	r3, #2
 930 0036 2371     		strb	r3, [r4, #4]
 931              	.L89:
 932              		.loc 1 568 0
 933 0038 0020     		mov	r0, #0
 934              		@ sp needed
 935              	.LVL126:
 936 003a 10BD     		pop	{r4, pc}
 937              	.LVL127:
 938              	.L90:
 939              		.loc 1 555 0
 940 003c FFF7FEFF 		bl	dbg_check_unlock
 941              	.LVL128:
 942              	@ 555 "../../os/hal/src/mmc_spi.c" 1
 943 0040 62B6     		cpsie   i
 944              	@ 0 "" 2
 945              		.loc 1 556 0
 946              		.code	16
 947 0042 F9E7     		b	.L89
 948              		.cfi_endproc
 949              	.LFE56:
 950              		.size	mmcDisconnect, .-mmcDisconnect
 951 0044 C046C046 		.section	.text.mmcSync,"ax",%progbits
 951      C046C046 
 951      C046C046 
 952              		.align	2
 953              		.p2align 4,,15
 954              		.global	mmcSync
 955              		.code	16
 956              		.thumb_func
 957              		.type	mmcSync, %function
 958              	mmcSync:
 959              	.LFB63:
 960              		.loc 1 788 0
ARM GAS  /var/folders/qh/xwg3v3kj02qbxczjpdb8lzfr0000gn/T//cc6askpf.s 			page 18


 961              		.cfi_startproc
 962              	.LVL129:
 963 0000 38B5     		push	{r3, r4, r5, lr}
 964              		.cfi_def_cfa_offset 16
 965              		.cfi_offset 3, -16
 966              		.cfi_offset 4, -12
 967              		.cfi_offset 5, -8
 968              		.cfi_offset 14, -4
 969              		.loc 1 792 0
 970 0002 0579     		ldrb	r5, [r0, #4]
 971              		.loc 1 788 0
 972 0004 041C     		mov	r4, r0
 973              		.loc 1 793 0
 974 0006 0120     		mov	r0, #1
 975              	.LVL130:
 976              		.loc 1 792 0
 977 0008 052D     		cmp	r5, #5
 978 000a 00D0     		beq	.L94
 979              	.L92:
 980              		.loc 1 804 0
 981              		@ sp needed
 982              	.LVL131:
 983 000c 38BD     		pop	{r3, r4, r5, pc}
 984              	.LVL132:
 985              	.L94:
 986              	.LBB14:
 987              	.LBB15:
 988              		.loc 1 796 0
 989 000e 0823     		mov	r3, #8
 990 0010 2371     		strb	r3, [r4, #4]
 991              		.loc 1 798 0
 992 0012 E36A     		ldr	r3, [r4, #44]
 993 0014 1868     		ldr	r0, [r3]
 994 0016 9968     		ldr	r1, [r3, #8]
 995 0018 FFF7FEFF 		bl	spiStart
 996              	.LVL133:
 997 001c 201C     		mov	r0, r4
 998 001e 2C30     		add	r0, r0, #44
 999              		.loc 1 799 0
 1000 0020 FFF7FEFF 		bl	sync.isra.2
 1001              	.LVL134:
 1002              		.loc 1 802 0
 1003 0024 2571     		strb	r5, [r4, #4]
 1004 0026 0020     		mov	r0, #0
 1005 0028 F0E7     		b	.L92
 1006              	.LBE15:
 1007              	.LBE14:
 1008              		.cfi_endproc
 1009              	.LFE63:
 1010              		.size	mmcSync, .-mmcSync
 1011 002a C046C046 		.section	.text.mmcInit,"ax",%progbits
 1011      C046
 1012              		.align	2
 1013              		.p2align 4,,15
 1014              		.global	mmcInit
 1015              		.code	16
 1016              		.thumb_func
ARM GAS  /var/folders/qh/xwg3v3kj02qbxczjpdb8lzfr0000gn/T//cc6askpf.s 			page 19


 1017              		.type	mmcInit, %function
 1018              	mmcInit:
 1019              	.LFB51:
 1020              		.loc 1 369 0
 1021              		.cfi_startproc
 1022              		.loc 1 371 0
 1023              		@ sp needed
 1024 0000 7047     		bx	lr
 1025              		.cfi_endproc
 1026              	.LFE51:
 1027              		.size	mmcInit, .-mmcInit
 1028 0002 C046C046 		.section	.text.mmcObjectInit,"ax",%progbits
 1028      C046C046 
 1028      C046C046 
 1028      C046
 1029              		.align	2
 1030              		.p2align 4,,15
 1031              		.global	mmcObjectInit
 1032              		.code	16
 1033              		.thumb_func
 1034              		.type	mmcObjectInit, %function
 1035              	mmcObjectInit:
 1036              	.LFB52:
 1037              		.loc 1 380 0
 1038              		.cfi_startproc
 1039              	.LVL135:
 1040              		.loc 1 382 0
 1041 0000 044B     		ldr	r3, .L97
 1042              		.loc 1 385 0
 1043 0002 3022     		mov	r2, #48
 1044              		.loc 1 382 0
 1045 0004 0360     		str	r3, [r0]
 1046              		.loc 1 383 0
 1047 0006 0123     		mov	r3, #1
 1048 0008 0371     		strb	r3, [r0, #4]
 1049              		.loc 1 384 0
 1050 000a 0023     		mov	r3, #0
 1051 000c C362     		str	r3, [r0, #44]
 1052              		.loc 1 386 0
 1053              		@ sp needed
 1054              		.loc 1 385 0
 1055 000e 8354     		strb	r3, [r0, r2]
 1056              		.loc 1 386 0
 1057 0010 7047     		bx	lr
 1058              	.L98:
 1059 0012 C046     		.align	2
 1060              	.L97:
 1061 0014 00000000 		.word	.LANCHOR1
 1062              		.cfi_endproc
 1063              	.LFE52:
 1064              		.size	mmcObjectInit, .-mmcObjectInit
 1065 0018 C046C046 		.section	.text.mmcStart,"ax",%progbits
 1065      C046C046 
 1066              		.align	2
 1067              		.p2align 4,,15
 1068              		.global	mmcStart
 1069              		.code	16
ARM GAS  /var/folders/qh/xwg3v3kj02qbxczjpdb8lzfr0000gn/T//cc6askpf.s 			page 20


 1070              		.thumb_func
 1071              		.type	mmcStart, %function
 1072              	mmcStart:
 1073              	.LFB53:
 1074              		.loc 1 396 0
 1075              		.cfi_startproc
 1076              	.LVL136:
 1077              		.loc 1 403 0
 1078 0000 0223     		mov	r3, #2
 1079              		.loc 1 402 0
 1080 0002 C162     		str	r1, [r0, #44]
 1081              		.loc 1 403 0
 1082 0004 0371     		strb	r3, [r0, #4]
 1083              		.loc 1 404 0
 1084              		@ sp needed
 1085 0006 7047     		bx	lr
 1086              		.cfi_endproc
 1087              	.LFE53:
 1088              		.size	mmcStart, .-mmcStart
 1089              		.section	.text.mmcStop,"ax",%progbits
 1090              		.align	2
 1091              		.p2align 4,,15
 1092              		.global	mmcStop
 1093              		.code	16
 1094              		.thumb_func
 1095              		.type	mmcStop, %function
 1096              	mmcStop:
 1097              	.LFB54:
 1098              		.loc 1 413 0
 1099              		.cfi_startproc
 1100              	.LVL137:
 1101 0000 10B5     		push	{r4, lr}
 1102              		.cfi_def_cfa_offset 8
 1103              		.cfi_offset 4, -8
 1104              		.cfi_offset 14, -4
 1105              		.loc 1 419 0
 1106 0002 C36A     		ldr	r3, [r0, #44]
 1107              		.loc 1 413 0
 1108 0004 041C     		mov	r4, r0
 1109              		.loc 1 419 0
 1110 0006 1868     		ldr	r0, [r3]
 1111              	.LVL138:
 1112 0008 FFF7FEFF 		bl	spiStop
 1113              	.LVL139:
 1114              		.loc 1 420 0
 1115 000c 0123     		mov	r3, #1
 1116 000e 2371     		strb	r3, [r4, #4]
 1117              		.loc 1 421 0
 1118              		@ sp needed
 1119              	.LVL140:
 1120 0010 10BD     		pop	{r4, pc}
 1121              		.cfi_endproc
 1122              	.LFE54:
 1123              		.size	mmcStop, .-mmcStop
 1124 0012 C046C046 		.section	.text.mmcStartSequentialRead,"ax",%progbits
 1124      C046C046 
 1124      C046C046 
ARM GAS  /var/folders/qh/xwg3v3kj02qbxczjpdb8lzfr0000gn/T//cc6askpf.s 			page 21


 1124      C046
 1125              		.align	2
 1126              		.p2align 4,,15
 1127              		.global	mmcStartSequentialRead
 1128              		.code	16
 1129              		.thumb_func
 1130              		.type	mmcStartSequentialRead, %function
 1131              	mmcStartSequentialRead:
 1132              	.LFB57:
 1133              		.loc 1 582 0
 1134              		.cfi_startproc
 1135              	.LVL141:
 1136 0000 38B5     		push	{r3, r4, r5, lr}
 1137              		.cfi_def_cfa_offset 16
 1138              		.cfi_offset 3, -16
 1139              		.cfi_offset 4, -12
 1140              		.cfi_offset 5, -8
 1141              		.cfi_offset 14, -4
 1142              		.loc 1 589 0
 1143 0002 0623     		mov	r3, #6
 1144 0004 0371     		strb	r3, [r0, #4]
 1145              		.loc 1 593 0
 1146 0006 C36A     		ldr	r3, [r0, #44]
 1147              		.loc 1 582 0
 1148 0008 041C     		mov	r4, r0
 1149 000a 0D1C     		mov	r5, r1
 1150              		.loc 1 593 0
 1151 000c 1868     		ldr	r0, [r3]
 1152              	.LVL142:
 1153 000e 9968     		ldr	r1, [r3, #8]
 1154              	.LVL143:
 1155 0010 FFF7FEFF 		bl	spiStart
 1156              	.LVL144:
 1157              		.loc 1 594 0
 1158 0014 E36A     		ldr	r3, [r4, #44]
 1159 0016 1868     		ldr	r0, [r3]
 1160 0018 FFF7FEFF 		bl	spiSelect
 1161              	.LVL145:
 1162              		.loc 1 596 0
 1163 001c 3023     		mov	r3, #48
 1164 001e E35C     		ldrb	r3, [r4, r3]
 1165 0020 002B     		cmp	r3, #0
 1166 0022 14D0     		beq	.L102
 1167              		.loc 1 597 0
 1168 0024 201C     		mov	r0, r4
 1169 0026 1221     		mov	r1, #18
 1170 0028 2A1C     		mov	r2, r5
 1171 002a FFF7FEFF 		bl	send_hdr
 1172              	.LVL146:
 1173              	.L103:
 1174 002e 201C     		mov	r0, r4
 1175 0030 2C30     		add	r0, r0, #44
 1176              		.loc 1 601 0
 1177 0032 FFF7FEFF 		bl	recvr1.isra.1
 1178              	.LVL147:
 1179              		.loc 1 606 0
 1180 0036 0023     		mov	r3, #0
ARM GAS  /var/folders/qh/xwg3v3kj02qbxczjpdb8lzfr0000gn/T//cc6askpf.s 			page 22


 1181              		.loc 1 601 0
 1182 0038 0028     		cmp	r0, #0
 1183 003a 06D0     		beq	.L104
 1184              		.loc 1 602 0
 1185 003c E36A     		ldr	r3, [r4, #44]
 1186 003e 1868     		ldr	r0, [r3]
 1187 0040 FFF7FEFF 		bl	spiStop
 1188              	.LVL148:
 1189              		.loc 1 603 0
 1190 0044 0523     		mov	r3, #5
 1191 0046 2371     		strb	r3, [r4, #4]
 1192              		.loc 1 604 0
 1193 0048 0123     		mov	r3, #1
 1194              	.L104:
 1195              		.loc 1 607 0
 1196 004a 181C     		mov	r0, r3
 1197              		@ sp needed
 1198              	.LVL149:
 1199              	.LVL150:
 1200 004c 38BD     		pop	{r3, r4, r5, pc}
 1201              	.LVL151:
 1202              	.L102:
 1203              		.loc 1 599 0
 1204 004e 6A02     		lsl	r2, r5, #9
 1205 0050 201C     		mov	r0, r4
 1206 0052 1221     		mov	r1, #18
 1207 0054 FFF7FEFF 		bl	send_hdr
 1208              	.LVL152:
 1209 0058 E9E7     		b	.L103
 1210              		.cfi_endproc
 1211              	.LFE57:
 1212              		.size	mmcStartSequentialRead, .-mmcStartSequentialRead
 1213 005a C046C046 		.section	.text.mmcSequentialRead,"ax",%progbits
 1213      C046
 1214              		.align	2
 1215              		.p2align 4,,15
 1216              		.global	mmcSequentialRead
 1217              		.code	16
 1218              		.thumb_func
 1219              		.type	mmcSequentialRead, %function
 1220              	mmcSequentialRead:
 1221              	.LFB58:
 1222              		.loc 1 621 0
 1223              		.cfi_startproc
 1224              	.LVL153:
 1225              		.loc 1 626 0
 1226 0000 0379     		ldrb	r3, [r0, #4]
 1227              		.loc 1 621 0
 1228 0002 70B5     		push	{r4, r5, r6, lr}
 1229              		.cfi_def_cfa_offset 16
 1230              		.cfi_offset 4, -16
 1231              		.cfi_offset 5, -12
 1232              		.cfi_offset 6, -8
 1233              		.cfi_offset 14, -4
 1234              		.loc 1 621 0
 1235 0004 061C     		mov	r6, r0
 1236 0006 0D1C     		mov	r5, r1
ARM GAS  /var/folders/qh/xwg3v3kj02qbxczjpdb8lzfr0000gn/T//cc6askpf.s 			page 23


 1237              		.loc 1 627 0
 1238 0008 0120     		mov	r0, #1
 1239              	.LVL154:
 1240              		.loc 1 626 0
 1241 000a 062B     		cmp	r3, #6
 1242 000c 00D0     		beq	.L113
 1243              	.LVL155:
 1244              	.L108:
 1245              		.loc 1 643 0
 1246              		@ sp needed
 1247              	.LVL156:
 1248              	.LVL157:
 1249 000e 70BD     		pop	{r4, r5, r6, pc}
 1250              	.LVL158:
 1251              	.L113:
 1252              		.loc 1 626 0
 1253 0010 134C     		ldr	r4, .L115
 1254 0012 02E0     		b	.L111
 1255              	.LVL159:
 1256              	.L109:
 1257 0014 013C     		sub	r4, r4, #1
 1258              	.LVL160:
 1259              		.loc 1 629 0
 1260 0016 002C     		cmp	r4, #0
 1261 0018 16D0     		beq	.L114
 1262              	.LVL161:
 1263              	.L111:
 1264              		.loc 1 630 0
 1265 001a F36A     		ldr	r3, [r6, #44]
 1266 001c 0121     		mov	r1, #1
 1267 001e 1868     		ldr	r0, [r3]
 1268 0020 2A1C     		mov	r2, r5
 1269 0022 FFF7FEFF 		bl	spiReceive
 1270              	.LVL162:
 1271              		.loc 1 631 0
 1272 0026 2B78     		ldrb	r3, [r5]
 1273 0028 FE2B     		cmp	r3, #254
 1274 002a F3D1     		bne	.L109
 1275              		.loc 1 632 0
 1276 002c F36A     		ldr	r3, [r6, #44]
 1277 002e 8021     		mov	r1, #128
 1278 0030 1868     		ldr	r0, [r3]
 1279 0032 8900     		lsl	r1, r1, #2
 1280 0034 2A1C     		mov	r2, r5
 1281 0036 FFF7FEFF 		bl	spiReceive
 1282              	.LVL163:
 1283              		.loc 1 634 0
 1284 003a F36A     		ldr	r3, [r6, #44]
 1285 003c 0221     		mov	r1, #2
 1286 003e 1868     		ldr	r0, [r3]
 1287 0040 FFF7FEFF 		bl	spiIgnore
 1288              	.LVL164:
 1289              		.loc 1 635 0
 1290 0044 0020     		mov	r0, #0
 1291 0046 E2E7     		b	.L108
 1292              	.L114:
 1293              		.loc 1 639 0
ARM GAS  /var/folders/qh/xwg3v3kj02qbxczjpdb8lzfr0000gn/T//cc6askpf.s 			page 24


 1294 0048 F36A     		ldr	r3, [r6, #44]
 1295 004a 1868     		ldr	r0, [r3]
 1296 004c FFF7FEFF 		bl	spiUnselect
 1297              	.LVL165:
 1298              		.loc 1 640 0
 1299 0050 F36A     		ldr	r3, [r6, #44]
 1300 0052 1868     		ldr	r0, [r3]
 1301 0054 FFF7FEFF 		bl	spiStop
 1302              	.LVL166:
 1303              		.loc 1 641 0
 1304 0058 0523     		mov	r3, #5
 1305 005a 3371     		strb	r3, [r6, #4]
 1306              		.loc 1 642 0
 1307 005c 0120     		mov	r0, #1
 1308 005e D6E7     		b	.L108
 1309              	.L116:
 1310              		.align	2
 1311              	.L115:
 1312 0060 10270000 		.word	10000
 1313              		.cfi_endproc
 1314              	.LFE58:
 1315              		.size	mmcSequentialRead, .-mmcSequentialRead
 1316 0064 C046C046 		.section	.text.mmcStopSequentialRead,"ax",%progbits
 1316      C046C046 
 1316      C046C046 
 1317              		.align	2
 1318              		.p2align 4,,15
 1319              		.global	mmcStopSequentialRead
 1320              		.code	16
 1321              		.thumb_func
 1322              		.type	mmcStopSequentialRead, %function
 1323              	mmcStopSequentialRead:
 1324              	.LFB59:
 1325              		.loc 1 656 0
 1326              		.cfi_startproc
 1327              	.LVL167:
 1328              		.loc 1 662 0
 1329 0000 0379     		ldrb	r3, [r0, #4]
 1330              		.loc 1 656 0
 1331 0002 10B5     		push	{r4, lr}
 1332              		.cfi_def_cfa_offset 8
 1333              		.cfi_offset 4, -8
 1334              		.cfi_offset 14, -4
 1335              		.loc 1 656 0
 1336 0004 041C     		mov	r4, r0
 1337              		.loc 1 663 0
 1338 0006 0120     		mov	r0, #1
 1339              	.LVL168:
 1340              		.loc 1 662 0
 1341 0008 062B     		cmp	r3, #6
 1342 000a 00D0     		beq	.L120
 1343              	.L118:
 1344              		.loc 1 674 0
 1345              		@ sp needed
 1346              	.LVL169:
 1347 000c 10BD     		pop	{r4, pc}
 1348              	.LVL170:
ARM GAS  /var/folders/qh/xwg3v3kj02qbxczjpdb8lzfr0000gn/T//cc6askpf.s 			page 25


 1349              	.L120:
 1350              		.loc 1 665 0
 1351 000e E36A     		ldr	r3, [r4, #44]
 1352 0010 0721     		mov	r1, #7
 1353 0012 1868     		ldr	r0, [r3]
 1354 0014 074A     		ldr	r2, .L121
 1355 0016 FFF7FEFF 		bl	spiSend
 1356              	.LVL171:
 1357 001a 201C     		mov	r0, r4
 1358 001c 2C30     		add	r0, r0, #44
 1359              		.loc 1 668 0
 1360 001e FFF7FEFF 		bl	recvr1.isra.1
 1361              	.LVL172:
 1362              		.loc 1 671 0
 1363 0022 E36A     		ldr	r3, [r4, #44]
 1364 0024 1868     		ldr	r0, [r3]
 1365 0026 FFF7FEFF 		bl	spiUnselect
 1366              	.LVL173:
 1367              		.loc 1 672 0
 1368 002a 0523     		mov	r3, #5
 1369 002c 2371     		strb	r3, [r4, #4]
 1370              		.loc 1 673 0
 1371 002e 0020     		mov	r0, #0
 1372 0030 ECE7     		b	.L118
 1373              	.L122:
 1374 0032 C046     		.align	2
 1375              	.L121:
 1376 0034 00000000 		.word	.LANCHOR2
 1377              		.cfi_endproc
 1378              	.LFE59:
 1379              		.size	mmcStopSequentialRead, .-mmcStopSequentialRead
 1380 0038 C046C046 		.section	.text.mmc_read,"ax",%progbits
 1380      C046C046 
 1381              		.align	2
 1382              		.p2align 4,,15
 1383              		.code	16
 1384              		.thumb_func
 1385              		.type	mmc_read, %function
 1386              	mmc_read:
 1387              	.LFB40:
 1388              		.loc 1 104 0
 1389              		.cfi_startproc
 1390              	.LVL174:
 1391 0000 70B5     		push	{r4, r5, r6, lr}
 1392              		.cfi_def_cfa_offset 16
 1393              		.cfi_offset 4, -16
 1394              		.cfi_offset 5, -12
 1395              		.cfi_offset 6, -8
 1396              		.cfi_offset 14, -4
 1397              		.loc 1 104 0
 1398 0002 061C     		mov	r6, r0
 1399 0004 151C     		mov	r5, r2
 1400 0006 1C1C     		mov	r4, r3
 1401              		.loc 1 106 0
 1402 0008 FFF7FEFF 		bl	mmcStartSequentialRead
 1403              	.LVL175:
 1404 000c 0028     		cmp	r0, #0
ARM GAS  /var/folders/qh/xwg3v3kj02qbxczjpdb8lzfr0000gn/T//cc6askpf.s 			page 26


 1405 000e 0AD0     		beq	.L134
 1406 0010 0FE0     		b	.L127
 1407              	.LVL176:
 1408              	.L132:
 1409              		.loc 1 109 0
 1410 0012 301C     		mov	r0, r6
 1411 0014 291C     		mov	r1, r5
 1412 0016 FFF7FEFF 		bl	mmcSequentialRead
 1413              	.LVL177:
 1414 001a 0028     		cmp	r0, #0
 1415 001c 09D1     		bne	.L127
 1416              	.LVL178:
 1417              		.loc 1 111 0
 1418 001e 8023     		mov	r3, #128
 1419 0020 9B00     		lsl	r3, r3, #2
 1420 0022 ED18     		add	r5, r5, r3
 1421              	.LVL179:
 1422              		.loc 1 112 0
 1423 0024 013C     		sub	r4, r4, #1
 1424              	.LVL180:
 1425              	.L134:
 1426              		.loc 1 108 0
 1427 0026 002C     		cmp	r4, #0
 1428 0028 F3D1     		bne	.L132
 1429              	.LVL181:
 1430              	.LBB18:
 1431              	.LBB19:
 1432              		.loc 1 114 0
 1433 002a 301C     		mov	r0, r6
 1434 002c FFF7FEFF 		bl	mmcStopSequentialRead
 1435              	.LVL182:
 1436 0030 00E0     		b	.L125
 1437              	.LVL183:
 1438              	.L127:
 1439              	.LBE19:
 1440              	.LBE18:
 1441              		.loc 1 107 0
 1442 0032 0120     		mov	r0, #1
 1443              	.L125:
 1444              		.loc 1 117 0
 1445              		@ sp needed
 1446              	.LVL184:
 1447 0034 70BD     		pop	{r4, r5, r6, pc}
 1448              		.cfi_endproc
 1449              	.LFE40:
 1450              		.size	mmc_read, .-mmc_read
 1451 0036 C046C046 		.section	.text.mmcStartSequentialWrite,"ax",%progbits
 1451      C046C046 
 1451      C046
 1452              		.align	2
 1453              		.p2align 4,,15
 1454              		.global	mmcStartSequentialWrite
 1455              		.code	16
 1456              		.thumb_func
 1457              		.type	mmcStartSequentialWrite, %function
 1458              	mmcStartSequentialWrite:
 1459              	.LFB60:
ARM GAS  /var/folders/qh/xwg3v3kj02qbxczjpdb8lzfr0000gn/T//cc6askpf.s 			page 27


 1460              		.loc 1 688 0
 1461              		.cfi_startproc
 1462              	.LVL185:
 1463 0000 38B5     		push	{r3, r4, r5, lr}
 1464              		.cfi_def_cfa_offset 16
 1465              		.cfi_offset 3, -16
 1466              		.cfi_offset 4, -12
 1467              		.cfi_offset 5, -8
 1468              		.cfi_offset 14, -4
 1469              		.loc 1 695 0
 1470 0002 0723     		mov	r3, #7
 1471 0004 0371     		strb	r3, [r0, #4]
 1472              		.loc 1 697 0
 1473 0006 C36A     		ldr	r3, [r0, #44]
 1474              		.loc 1 688 0
 1475 0008 041C     		mov	r4, r0
 1476 000a 0D1C     		mov	r5, r1
 1477              		.loc 1 697 0
 1478 000c 1868     		ldr	r0, [r3]
 1479              	.LVL186:
 1480 000e 9968     		ldr	r1, [r3, #8]
 1481              	.LVL187:
 1482 0010 FFF7FEFF 		bl	spiStart
 1483              	.LVL188:
 1484              		.loc 1 698 0
 1485 0014 E36A     		ldr	r3, [r4, #44]
 1486 0016 1868     		ldr	r0, [r3]
 1487 0018 FFF7FEFF 		bl	spiSelect
 1488              	.LVL189:
 1489              		.loc 1 699 0
 1490 001c 3023     		mov	r3, #48
 1491 001e E35C     		ldrb	r3, [r4, r3]
 1492 0020 002B     		cmp	r3, #0
 1493 0022 14D0     		beq	.L136
 1494              		.loc 1 700 0
 1495 0024 201C     		mov	r0, r4
 1496 0026 1921     		mov	r1, #25
 1497 0028 2A1C     		mov	r2, r5
 1498 002a FFF7FEFF 		bl	send_hdr
 1499              	.LVL190:
 1500              	.L137:
 1501 002e 201C     		mov	r0, r4
 1502 0030 2C30     		add	r0, r0, #44
 1503              		.loc 1 705 0
 1504 0032 FFF7FEFF 		bl	recvr1.isra.1
 1505              	.LVL191:
 1506              		.loc 1 710 0
 1507 0036 0023     		mov	r3, #0
 1508              		.loc 1 705 0
 1509 0038 0028     		cmp	r0, #0
 1510 003a 06D0     		beq	.L138
 1511              		.loc 1 706 0
 1512 003c E36A     		ldr	r3, [r4, #44]
 1513 003e 1868     		ldr	r0, [r3]
 1514 0040 FFF7FEFF 		bl	spiStop
 1515              	.LVL192:
 1516              		.loc 1 707 0
ARM GAS  /var/folders/qh/xwg3v3kj02qbxczjpdb8lzfr0000gn/T//cc6askpf.s 			page 28


 1517 0044 0523     		mov	r3, #5
 1518 0046 2371     		strb	r3, [r4, #4]
 1519              		.loc 1 708 0
 1520 0048 0123     		mov	r3, #1
 1521              	.L138:
 1522              		.loc 1 711 0
 1523 004a 181C     		mov	r0, r3
 1524              		@ sp needed
 1525              	.LVL193:
 1526              	.LVL194:
 1527 004c 38BD     		pop	{r3, r4, r5, pc}
 1528              	.LVL195:
 1529              	.L136:
 1530              		.loc 1 702 0
 1531 004e 6A02     		lsl	r2, r5, #9
 1532 0050 201C     		mov	r0, r4
 1533 0052 1921     		mov	r1, #25
 1534 0054 FFF7FEFF 		bl	send_hdr
 1535              	.LVL196:
 1536 0058 E9E7     		b	.L137
 1537              		.cfi_endproc
 1538              	.LFE60:
 1539              		.size	mmcStartSequentialWrite, .-mmcStartSequentialWrite
 1540 005a C046C046 		.section	.text.mmcSequentialWrite,"ax",%progbits
 1540      C046
 1541              		.align	2
 1542              		.p2align 4,,15
 1543              		.global	mmcSequentialWrite
 1544              		.code	16
 1545              		.thumb_func
 1546              		.type	mmcSequentialWrite, %function
 1547              	mmcSequentialWrite:
 1548              	.LFB61:
 1549              		.loc 1 725 0
 1550              		.cfi_startproc
 1551              	.LVL197:
 1552 0000 70B5     		push	{r4, r5, r6, lr}
 1553              		.cfi_def_cfa_offset 16
 1554              		.cfi_offset 4, -16
 1555              		.cfi_offset 5, -12
 1556              		.cfi_offset 6, -8
 1557              		.cfi_offset 14, -4
 1558              		.loc 1 731 0
 1559 0002 0379     		ldrb	r3, [r0, #4]
 1560              		.loc 1 725 0
 1561 0004 82B0     		sub	sp, sp, #8
 1562              		.cfi_def_cfa_offset 24
 1563              		.loc 1 725 0
 1564 0006 041C     		mov	r4, r0
 1565 0008 0E1C     		mov	r6, r1
 1566              		.loc 1 732 0
 1567 000a 0125     		mov	r5, #1
 1568              		.loc 1 731 0
 1569 000c 072B     		cmp	r3, #7
 1570 000e 02D0     		beq	.L145
 1571              	.LVL198:
 1572              	.L142:
ARM GAS  /var/folders/qh/xwg3v3kj02qbxczjpdb8lzfr0000gn/T//cc6askpf.s 			page 29


 1573              		.loc 1 748 0
 1574 0010 281C     		mov	r0, r5
 1575 0012 02B0     		add	sp, sp, #8
 1576              		@ sp needed
 1577              	.LVL199:
 1578 0014 70BD     		pop	{r4, r5, r6, pc}
 1579              	.LVL200:
 1580              	.L145:
 1581              		.loc 1 734 0
 1582 0016 C36A     		ldr	r3, [r0, #44]
 1583 0018 0221     		mov	r1, #2
 1584              	.LVL201:
 1585 001a 1868     		ldr	r0, [r3]
 1586              	.LVL202:
 1587 001c 154A     		ldr	r2, .L147
 1588 001e FFF7FEFF 		bl	spiSend
 1589              	.LVL203:
 1590              		.loc 1 735 0
 1591 0022 E36A     		ldr	r3, [r4, #44]
 1592 0024 8021     		mov	r1, #128
 1593 0026 321C     		mov	r2, r6
 1594 0028 1868     		ldr	r0, [r3]
 1595 002a 8900     		lsl	r1, r1, #2
 1596 002c FFF7FEFF 		bl	spiSend
 1597              	.LVL204:
 1598              		.loc 1 736 0
 1599 0030 E36A     		ldr	r3, [r4, #44]
 1600 0032 0221     		mov	r1, #2
 1601 0034 1868     		ldr	r0, [r3]
 1602 0036 FFF7FEFF 		bl	spiIgnore
 1603              	.LVL205:
 1604              		.loc 1 737 0
 1605 003a E36A     		ldr	r3, [r4, #44]
 1606 003c 01AE     		add	r6, sp, #4
 1607              	.LVL206:
 1608 003e 1868     		ldr	r0, [r3]
 1609 0040 321C     		mov	r2, r6
 1610 0042 0121     		mov	r1, #1
 1611 0044 FFF7FEFF 		bl	spiReceive
 1612              	.LVL207:
 1613              		.loc 1 738 0
 1614 0048 3378     		ldrb	r3, [r6]
 1615 004a 1F22     		mov	r2, #31
 1616 004c 1340     		and	r3, r2
 1617 004e 052B     		cmp	r3, #5
 1618 0050 0AD0     		beq	.L146
 1619              		.loc 1 744 0
 1620 0052 E36A     		ldr	r3, [r4, #44]
 1621 0054 1868     		ldr	r0, [r3]
 1622 0056 FFF7FEFF 		bl	spiUnselect
 1623              	.LVL208:
 1624              		.loc 1 745 0
 1625 005a E36A     		ldr	r3, [r4, #44]
 1626 005c 1868     		ldr	r0, [r3]
 1627 005e FFF7FEFF 		bl	spiStop
 1628              	.LVL209:
 1629              		.loc 1 746 0
ARM GAS  /var/folders/qh/xwg3v3kj02qbxczjpdb8lzfr0000gn/T//cc6askpf.s 			page 30


 1630 0062 0523     		mov	r3, #5
 1631 0064 2371     		strb	r3, [r4, #4]
 1632              		.loc 1 747 0
 1633 0066 D3E7     		b	.L142
 1634              	.L146:
 1635 0068 201C     		mov	r0, r4
 1636 006a 2C30     		add	r0, r0, #44
 1637              		.loc 1 739 0
 1638 006c FFF7FEFF 		bl	wait.isra.0
 1639              	.LVL210:
 1640              		.loc 1 740 0
 1641 0070 0025     		mov	r5, #0
 1642 0072 CDE7     		b	.L142
 1643              	.L148:
 1644              		.align	2
 1645              	.L147:
 1646 0074 00000000 		.word	.LANCHOR3
 1647              		.cfi_endproc
 1648              	.LFE61:
 1649              		.size	mmcSequentialWrite, .-mmcSequentialWrite
 1650 0078 C046C046 		.section	.text.mmcStopSequentialWrite,"ax",%progbits
 1650      C046C046 
 1651              		.align	2
 1652              		.p2align 4,,15
 1653              		.global	mmcStopSequentialWrite
 1654              		.code	16
 1655              		.thumb_func
 1656              		.type	mmcStopSequentialWrite, %function
 1657              	mmcStopSequentialWrite:
 1658              	.LFB62:
 1659              		.loc 1 761 0
 1660              		.cfi_startproc
 1661              	.LVL211:
 1662              		.loc 1 766 0
 1663 0000 0379     		ldrb	r3, [r0, #4]
 1664              		.loc 1 761 0
 1665 0002 10B5     		push	{r4, lr}
 1666              		.cfi_def_cfa_offset 8
 1667              		.cfi_offset 4, -8
 1668              		.cfi_offset 14, -4
 1669              		.loc 1 761 0
 1670 0004 041C     		mov	r4, r0
 1671              		.loc 1 767 0
 1672 0006 0120     		mov	r0, #1
 1673              	.LVL212:
 1674              		.loc 1 766 0
 1675 0008 072B     		cmp	r3, #7
 1676 000a 00D0     		beq	.L152
 1677              	.L150:
 1678              		.loc 1 775 0
 1679              		@ sp needed
 1680              	.LVL213:
 1681 000c 10BD     		pop	{r4, pc}
 1682              	.LVL214:
 1683              	.L152:
 1684              		.loc 1 769 0
 1685 000e E36A     		ldr	r3, [r4, #44]
ARM GAS  /var/folders/qh/xwg3v3kj02qbxczjpdb8lzfr0000gn/T//cc6askpf.s 			page 31


 1686 0010 0221     		mov	r1, #2
 1687 0012 1868     		ldr	r0, [r3]
 1688 0014 054A     		ldr	r2, .L153
 1689 0016 FFF7FEFF 		bl	spiSend
 1690              	.LVL215:
 1691              		.loc 1 770 0
 1692 001a E36A     		ldr	r3, [r4, #44]
 1693 001c 1868     		ldr	r0, [r3]
 1694 001e FFF7FEFF 		bl	spiUnselect
 1695              	.LVL216:
 1696              		.loc 1 773 0
 1697 0022 0523     		mov	r3, #5
 1698 0024 2371     		strb	r3, [r4, #4]
 1699              		.loc 1 774 0
 1700 0026 0020     		mov	r0, #0
 1701 0028 F0E7     		b	.L150
 1702              	.L154:
 1703 002a C046     		.align	2
 1704              	.L153:
 1705 002c 00000000 		.word	.LANCHOR4
 1706              		.cfi_endproc
 1707              	.LFE62:
 1708              		.size	mmcStopSequentialWrite, .-mmcStopSequentialWrite
 1709              		.section	.text.mmc_write,"ax",%progbits
 1710              		.align	2
 1711              		.p2align 4,,15
 1712              		.code	16
 1713              		.thumb_func
 1714              		.type	mmc_write, %function
 1715              	mmc_write:
 1716              	.LFB41:
 1717              		.loc 1 120 0
 1718              		.cfi_startproc
 1719              	.LVL217:
 1720 0000 70B5     		push	{r4, r5, r6, lr}
 1721              		.cfi_def_cfa_offset 16
 1722              		.cfi_offset 4, -16
 1723              		.cfi_offset 5, -12
 1724              		.cfi_offset 6, -8
 1725              		.cfi_offset 14, -4
 1726              		.loc 1 120 0
 1727 0002 061C     		mov	r6, r0
 1728 0004 151C     		mov	r5, r2
 1729 0006 1C1C     		mov	r4, r3
 1730              		.loc 1 122 0
 1731 0008 FFF7FEFF 		bl	mmcStartSequentialWrite
 1732              	.LVL218:
 1733 000c 0028     		cmp	r0, #0
 1734 000e 0AD0     		beq	.L166
 1735 0010 0FE0     		b	.L159
 1736              	.LVL219:
 1737              	.L164:
 1738              		.loc 1 125 0
 1739 0012 301C     		mov	r0, r6
 1740 0014 291C     		mov	r1, r5
 1741 0016 FFF7FEFF 		bl	mmcSequentialWrite
 1742              	.LVL220:
ARM GAS  /var/folders/qh/xwg3v3kj02qbxczjpdb8lzfr0000gn/T//cc6askpf.s 			page 32


 1743 001a 0028     		cmp	r0, #0
 1744 001c 09D1     		bne	.L159
 1745              	.LVL221:
 1746              		.loc 1 127 0
 1747 001e 8023     		mov	r3, #128
 1748 0020 9B00     		lsl	r3, r3, #2
 1749 0022 ED18     		add	r5, r5, r3
 1750              	.LVL222:
 1751              		.loc 1 128 0
 1752 0024 013C     		sub	r4, r4, #1
 1753              	.LVL223:
 1754              	.L166:
 1755              		.loc 1 124 0
 1756 0026 002C     		cmp	r4, #0
 1757 0028 F3D1     		bne	.L164
 1758              	.LVL224:
 1759              	.LBB22:
 1760              	.LBB23:
 1761              		.loc 1 130 0
 1762 002a 301C     		mov	r0, r6
 1763 002c FFF7FEFF 		bl	mmcStopSequentialWrite
 1764              	.LVL225:
 1765 0030 00E0     		b	.L157
 1766              	.LVL226:
 1767              	.L159:
 1768              	.LBE23:
 1769              	.LBE22:
 1770              		.loc 1 123 0
 1771 0032 0120     		mov	r0, #1
 1772              	.L157:
 1773              		.loc 1 133 0
 1774              		@ sp needed
 1775              	.LVL227:
 1776 0034 70BD     		pop	{r4, r5, r6, pc}
 1777              		.cfi_endproc
 1778              	.LFE41:
 1779              		.size	mmc_write, .-mmc_write
 1780 0036 C046C046 		.section	.text.mmcErase,"ax",%progbits
 1780      C046C046 
 1780      C046
 1781              		.align	2
 1782              		.p2align 4,,15
 1783              		.global	mmcErase
 1784              		.code	16
 1785              		.thumb_func
 1786              		.type	mmcErase, %function
 1787              	mmcErase:
 1788              	.LFB65:
 1789              		.loc 1 844 0
 1790              		.cfi_startproc
 1791              	.LVL228:
 1792 0000 38B5     		push	{r3, r4, r5, lr}
 1793              		.cfi_def_cfa_offset 16
 1794              		.cfi_offset 3, -16
 1795              		.cfi_offset 4, -12
 1796              		.cfi_offset 5, -8
 1797              		.cfi_offset 14, -4
ARM GAS  /var/folders/qh/xwg3v3kj02qbxczjpdb8lzfr0000gn/T//cc6askpf.s 			page 33


 1798              		.loc 1 844 0
 1799 0002 151C     		mov	r5, r2
 1800              		.loc 1 849 0
 1801 0004 0722     		mov	r2, #7
 1802              	.LVL229:
 1803 0006 0271     		strb	r2, [r0, #4]
 1804              		.loc 1 852 0
 1805 0008 3022     		mov	r2, #48
 1806 000a 825C     		ldrb	r2, [r0, r2]
 1807              		.loc 1 844 0
 1808 000c 041C     		mov	r4, r0
 1809 000e 0B1C     		mov	r3, r1
 1810              		.loc 1 852 0
 1811 0010 002A     		cmp	r2, #0
 1812 0012 01D1     		bne	.L168
 1813              		.loc 1 853 0
 1814 0014 4B02     		lsl	r3, r1, #9
 1815              	.LVL230:
 1816              		.loc 1 854 0
 1817 0016 6D02     		lsl	r5, r5, #9
 1818              	.LVL231:
 1819              	.L168:
 1820              		.loc 1 857 0
 1821 0018 201C     		mov	r0, r4
 1822              	.LVL232:
 1823 001a 2021     		mov	r1, #32
 1824 001c 1A1C     		mov	r2, r3
 1825 001e FFF7FEFF 		bl	send_command_R1
 1826              	.LVL233:
 1827 0022 0028     		cmp	r0, #0
 1828 0024 06D1     		bne	.L169
 1829              		.loc 1 860 0
 1830 0026 201C     		mov	r0, r4
 1831 0028 2121     		mov	r1, #33
 1832 002a 2A1C     		mov	r2, r5
 1833 002c FFF7FEFF 		bl	send_command_R1
 1834              	.LVL234:
 1835 0030 0028     		cmp	r0, #0
 1836 0032 07D0     		beq	.L171
 1837              	.L169:
 1838              	.LDL2:
 1839              		.loc 1 871 0
 1840 0034 E36A     		ldr	r3, [r4, #44]
 1841 0036 1868     		ldr	r0, [r3]
 1842 0038 FFF7FEFF 		bl	spiStop
 1843              	.LVL235:
 1844              		.loc 1 872 0
 1845 003c 0523     		mov	r3, #5
 1846 003e 2371     		strb	r3, [r4, #4]
 1847              		.loc 1 873 0
 1848 0040 0120     		mov	r0, #1
 1849              	.L170:
 1850              		.loc 1 874 0
 1851              		@ sp needed
 1852              	.LVL236:
 1853              	.LVL237:
 1854 0042 38BD     		pop	{r3, r4, r5, pc}
ARM GAS  /var/folders/qh/xwg3v3kj02qbxczjpdb8lzfr0000gn/T//cc6askpf.s 			page 34


 1855              	.LVL238:
 1856              	.L171:
 1857              		.loc 1 863 0
 1858 0044 201C     		mov	r0, r4
 1859 0046 2621     		mov	r1, #38
 1860 0048 0022     		mov	r2, #0
 1861 004a FFF7FEFF 		bl	send_command_R1
 1862              	.LVL239:
 1863 004e 0028     		cmp	r0, #0
 1864 0050 F0D1     		bne	.L169
 1865              		.loc 1 866 0
 1866 0052 0523     		mov	r3, #5
 1867 0054 2371     		strb	r3, [r4, #4]
 1868              		.loc 1 867 0
 1869 0056 F4E7     		b	.L170
 1870              		.cfi_endproc
 1871              	.LFE65:
 1872              		.size	mmcErase, .-mmcErase
 1873 0058 C046C046 		.section	.rodata.stop.6600,"a",%progbits
 1873      C046C046 
 1874              		.align	2
 1875              		.set	.LANCHOR4,. + 0
 1876              		.type	stop.6600, %object
 1877              		.size	stop.6600, 2
 1878              	stop.6600:
 1879 0000 FD       		.byte	-3
 1880 0001 FF       		.byte	-1
 1881 0002 0000     		.section	.rodata.crc7_lookup_table,"a",%progbits
 1882              		.align	2
 1883              		.set	.LANCHOR0,. + 0
 1884              		.type	crc7_lookup_table, %object
 1885              		.size	crc7_lookup_table, 256
 1886              	crc7_lookup_table:
 1887 0000 00       		.byte	0
 1888 0001 09       		.byte	9
 1889 0002 12       		.byte	18
 1890 0003 1B       		.byte	27
 1891 0004 24       		.byte	36
 1892 0005 2D       		.byte	45
 1893 0006 36       		.byte	54
 1894 0007 3F       		.byte	63
 1895 0008 48       		.byte	72
 1896 0009 41       		.byte	65
 1897 000a 5A       		.byte	90
 1898 000b 53       		.byte	83
 1899 000c 6C       		.byte	108
 1900 000d 65       		.byte	101
 1901 000e 7E       		.byte	126
 1902 000f 77       		.byte	119
 1903 0010 19       		.byte	25
 1904 0011 10       		.byte	16
 1905 0012 0B       		.byte	11
 1906 0013 02       		.byte	2
 1907 0014 3D       		.byte	61
 1908 0015 34       		.byte	52
 1909 0016 2F       		.byte	47
 1910 0017 26       		.byte	38
ARM GAS  /var/folders/qh/xwg3v3kj02qbxczjpdb8lzfr0000gn/T//cc6askpf.s 			page 35


 1911 0018 51       		.byte	81
 1912 0019 58       		.byte	88
 1913 001a 43       		.byte	67
 1914 001b 4A       		.byte	74
 1915 001c 75       		.byte	117
 1916 001d 7C       		.byte	124
 1917 001e 67       		.byte	103
 1918 001f 6E       		.byte	110
 1919 0020 32       		.byte	50
 1920 0021 3B       		.byte	59
 1921 0022 20       		.byte	32
 1922 0023 29       		.byte	41
 1923 0024 16       		.byte	22
 1924 0025 1F       		.byte	31
 1925 0026 04       		.byte	4
 1926 0027 0D       		.byte	13
 1927 0028 7A       		.byte	122
 1928 0029 73       		.byte	115
 1929 002a 68       		.byte	104
 1930 002b 61       		.byte	97
 1931 002c 5E       		.byte	94
 1932 002d 57       		.byte	87
 1933 002e 4C       		.byte	76
 1934 002f 45       		.byte	69
 1935 0030 2B       		.byte	43
 1936 0031 22       		.byte	34
 1937 0032 39       		.byte	57
 1938 0033 30       		.byte	48
 1939 0034 0F       		.byte	15
 1940 0035 06       		.byte	6
 1941 0036 1D       		.byte	29
 1942 0037 14       		.byte	20
 1943 0038 63       		.byte	99
 1944 0039 6A       		.byte	106
 1945 003a 71       		.byte	113
 1946 003b 78       		.byte	120
 1947 003c 47       		.byte	71
 1948 003d 4E       		.byte	78
 1949 003e 55       		.byte	85
 1950 003f 5C       		.byte	92
 1951 0040 64       		.byte	100
 1952 0041 6D       		.byte	109
 1953 0042 76       		.byte	118
 1954 0043 7F       		.byte	127
 1955 0044 40       		.byte	64
 1956 0045 49       		.byte	73
 1957 0046 52       		.byte	82
 1958 0047 5B       		.byte	91
 1959 0048 2C       		.byte	44
 1960 0049 25       		.byte	37
 1961 004a 3E       		.byte	62
 1962 004b 37       		.byte	55
 1963 004c 08       		.byte	8
 1964 004d 01       		.byte	1
 1965 004e 1A       		.byte	26
 1966 004f 13       		.byte	19
 1967 0050 7D       		.byte	125
ARM GAS  /var/folders/qh/xwg3v3kj02qbxczjpdb8lzfr0000gn/T//cc6askpf.s 			page 36


 1968 0051 74       		.byte	116
 1969 0052 6F       		.byte	111
 1970 0053 66       		.byte	102
 1971 0054 59       		.byte	89
 1972 0055 50       		.byte	80
 1973 0056 4B       		.byte	75
 1974 0057 42       		.byte	66
 1975 0058 35       		.byte	53
 1976 0059 3C       		.byte	60
 1977 005a 27       		.byte	39
 1978 005b 2E       		.byte	46
 1979 005c 11       		.byte	17
 1980 005d 18       		.byte	24
 1981 005e 03       		.byte	3
 1982 005f 0A       		.byte	10
 1983 0060 56       		.byte	86
 1984 0061 5F       		.byte	95
 1985 0062 44       		.byte	68
 1986 0063 4D       		.byte	77
 1987 0064 72       		.byte	114
 1988 0065 7B       		.byte	123
 1989 0066 60       		.byte	96
 1990 0067 69       		.byte	105
 1991 0068 1E       		.byte	30
 1992 0069 17       		.byte	23
 1993 006a 0C       		.byte	12
 1994 006b 05       		.byte	5
 1995 006c 3A       		.byte	58
 1996 006d 33       		.byte	51
 1997 006e 28       		.byte	40
 1998 006f 21       		.byte	33
 1999 0070 4F       		.byte	79
 2000 0071 46       		.byte	70
 2001 0072 5D       		.byte	93
 2002 0073 54       		.byte	84
 2003 0074 6B       		.byte	107
 2004 0075 62       		.byte	98
 2005 0076 79       		.byte	121
 2006 0077 70       		.byte	112
 2007 0078 07       		.byte	7
 2008 0079 0E       		.byte	14
 2009 007a 15       		.byte	21
 2010 007b 1C       		.byte	28
 2011 007c 23       		.byte	35
 2012 007d 2A       		.byte	42
 2013 007e 31       		.byte	49
 2014 007f 38       		.byte	56
 2015 0080 41       		.byte	65
 2016 0081 48       		.byte	72
 2017 0082 53       		.byte	83
 2018 0083 5A       		.byte	90
 2019 0084 65       		.byte	101
 2020 0085 6C       		.byte	108
 2021 0086 77       		.byte	119
 2022 0087 7E       		.byte	126
 2023 0088 09       		.byte	9
 2024 0089 00       		.byte	0
ARM GAS  /var/folders/qh/xwg3v3kj02qbxczjpdb8lzfr0000gn/T//cc6askpf.s 			page 37


 2025 008a 1B       		.byte	27
 2026 008b 12       		.byte	18
 2027 008c 2D       		.byte	45
 2028 008d 24       		.byte	36
 2029 008e 3F       		.byte	63
 2030 008f 36       		.byte	54
 2031 0090 58       		.byte	88
 2032 0091 51       		.byte	81
 2033 0092 4A       		.byte	74
 2034 0093 43       		.byte	67
 2035 0094 7C       		.byte	124
 2036 0095 75       		.byte	117
 2037 0096 6E       		.byte	110
 2038 0097 67       		.byte	103
 2039 0098 10       		.byte	16
 2040 0099 19       		.byte	25
 2041 009a 02       		.byte	2
 2042 009b 0B       		.byte	11
 2043 009c 34       		.byte	52
 2044 009d 3D       		.byte	61
 2045 009e 26       		.byte	38
 2046 009f 2F       		.byte	47
 2047 00a0 73       		.byte	115
 2048 00a1 7A       		.byte	122
 2049 00a2 61       		.byte	97
 2050 00a3 68       		.byte	104
 2051 00a4 57       		.byte	87
 2052 00a5 5E       		.byte	94
 2053 00a6 45       		.byte	69
 2054 00a7 4C       		.byte	76
 2055 00a8 3B       		.byte	59
 2056 00a9 32       		.byte	50
 2057 00aa 29       		.byte	41
 2058 00ab 20       		.byte	32
 2059 00ac 1F       		.byte	31
 2060 00ad 16       		.byte	22
 2061 00ae 0D       		.byte	13
 2062 00af 04       		.byte	4
 2063 00b0 6A       		.byte	106
 2064 00b1 63       		.byte	99
 2065 00b2 78       		.byte	120
 2066 00b3 71       		.byte	113
 2067 00b4 4E       		.byte	78
 2068 00b5 47       		.byte	71
 2069 00b6 5C       		.byte	92
 2070 00b7 55       		.byte	85
 2071 00b8 22       		.byte	34
 2072 00b9 2B       		.byte	43
 2073 00ba 30       		.byte	48
 2074 00bb 39       		.byte	57
 2075 00bc 06       		.byte	6
 2076 00bd 0F       		.byte	15
 2077 00be 14       		.byte	20
 2078 00bf 1D       		.byte	29
 2079 00c0 25       		.byte	37
 2080 00c1 2C       		.byte	44
 2081 00c2 37       		.byte	55
ARM GAS  /var/folders/qh/xwg3v3kj02qbxczjpdb8lzfr0000gn/T//cc6askpf.s 			page 38


 2082 00c3 3E       		.byte	62
 2083 00c4 01       		.byte	1
 2084 00c5 08       		.byte	8
 2085 00c6 13       		.byte	19
 2086 00c7 1A       		.byte	26
 2087 00c8 6D       		.byte	109
 2088 00c9 64       		.byte	100
 2089 00ca 7F       		.byte	127
 2090 00cb 76       		.byte	118
 2091 00cc 49       		.byte	73
 2092 00cd 40       		.byte	64
 2093 00ce 5B       		.byte	91
 2094 00cf 52       		.byte	82
 2095 00d0 3C       		.byte	60
 2096 00d1 35       		.byte	53
 2097 00d2 2E       		.byte	46
 2098 00d3 27       		.byte	39
 2099 00d4 18       		.byte	24
 2100 00d5 11       		.byte	17
 2101 00d6 0A       		.byte	10
 2102 00d7 03       		.byte	3
 2103 00d8 74       		.byte	116
 2104 00d9 7D       		.byte	125
 2105 00da 66       		.byte	102
 2106 00db 6F       		.byte	111
 2107 00dc 50       		.byte	80
 2108 00dd 59       		.byte	89
 2109 00de 42       		.byte	66
 2110 00df 4B       		.byte	75
 2111 00e0 17       		.byte	23
 2112 00e1 1E       		.byte	30
 2113 00e2 05       		.byte	5
 2114 00e3 0C       		.byte	12
 2115 00e4 33       		.byte	51
 2116 00e5 3A       		.byte	58
 2117 00e6 21       		.byte	33
 2118 00e7 28       		.byte	40
 2119 00e8 5F       		.byte	95
 2120 00e9 56       		.byte	86
 2121 00ea 4D       		.byte	77
 2122 00eb 44       		.byte	68
 2123 00ec 7B       		.byte	123
 2124 00ed 72       		.byte	114
 2125 00ee 69       		.byte	105
 2126 00ef 60       		.byte	96
 2127 00f0 0E       		.byte	14
 2128 00f1 07       		.byte	7
 2129 00f2 1C       		.byte	28
 2130 00f3 15       		.byte	21
 2131 00f4 2A       		.byte	42
 2132 00f5 23       		.byte	35
 2133 00f6 38       		.byte	56
 2134 00f7 31       		.byte	49
 2135 00f8 46       		.byte	70
 2136 00f9 4F       		.byte	79
 2137 00fa 54       		.byte	84
 2138 00fb 5D       		.byte	93
ARM GAS  /var/folders/qh/xwg3v3kj02qbxczjpdb8lzfr0000gn/T//cc6askpf.s 			page 39


 2139 00fc 62       		.byte	98
 2140 00fd 6B       		.byte	107
 2141 00fe 70       		.byte	112
 2142 00ff 79       		.byte	121
 2143              		.section	.rodata.mmc_vmt,"a",%progbits
 2144              		.align	2
 2145              		.set	.LANCHOR1,. + 0
 2146              		.type	mmc_vmt, %object
 2147              		.size	mmc_vmt, 32
 2148              	mmc_vmt:
 2149 0000 00000000 		.word	mmc_lld_is_card_inserted
 2150 0004 00000000 		.word	mmc_lld_is_write_protected
 2151 0008 00000000 		.word	mmcConnect
 2152 000c 00000000 		.word	mmcDisconnect
 2153 0010 00000000 		.word	mmc_read
 2154 0014 00000000 		.word	mmc_write
 2155 0018 00000000 		.word	mmcSync
 2156 001c 00000000 		.word	mmcGetInfo
 2157              		.section	.rodata.start.6595,"a",%progbits
 2158              		.align	2
 2159              		.set	.LANCHOR3,. + 0
 2160              		.type	start.6595, %object
 2161              		.size	start.6595, 2
 2162              	start.6595:
 2163 0000 FF       		.byte	-1
 2164 0001 FC       		.byte	-4
 2165 0002 0000     		.section	.rodata.stopcmd.6586,"a",%progbits
 2166              		.align	2
 2167              		.set	.LANCHOR2,. + 0
 2168              		.type	stopcmd.6586, %object
 2169              		.size	stopcmd.6586, 7
 2170              	stopcmd.6586:
 2171 0000 4C       		.byte	76
 2172 0001 00       		.byte	0
 2173 0002 00       		.byte	0
 2174 0003 00       		.byte	0
 2175 0004 00       		.byte	0
 2176 0005 01       		.byte	1
 2177 0006 FF       		.byte	-1
 2178 0007 00       		.text
 2179              	.Letext0:
 2180              		.file 2 "/usr/local/Cellar/gcc-arm-none-eabi-48/20131218/lib/gcc/arm-none-eabi/4.8.3/include/stdde
 2181              		.file 3 "/usr/local/Cellar/gcc-arm-none-eabi-48/20131218/arm-none-eabi/include/stdint.h"
 2182              		.file 4 "../../os/ports/GCC/ARMCMx/chtypes.h"
 2183              		.file 5 "../../os/kernel/include/chlists.h"
 2184              		.file 6 "../../os/kernel/include/chthreads.h"
 2185              		.file 7 "../../os/ports/GCC/ARMCMx/chcore_v6m.h"
 2186              		.file 8 "../../os/kernel/include/chmtx.h"
 2187              		.file 9 "../../os/hal/platforms/STM32F0xx/stm32f0xx.h"
 2188              		.file 10 "../../os/hal/platforms/STM32F0xx/stm32_dma.h"
 2189              		.file 11 "../../os/hal/include/io_block.h"
 2190              		.file 12 "../../os/hal/platforms/STM32/GPIOv2/pal_lld.h"
 2191              		.file 13 "../../os/hal/include/spi.h"
 2192              		.file 14 "../../os/hal/platforms/STM32/SPIv2/spi_lld.h"
 2193              		.file 15 "../../os/hal/include/mmc_spi.h"
 2194              		.file 16 "../../os/hal/include/mmcsd.h"
 2195              		.file 17 "../../os/kernel/include/chdebug.h"
ARM GAS  /var/folders/qh/xwg3v3kj02qbxczjpdb8lzfr0000gn/T//cc6askpf.s 			page 40

