ARM GAS  /var/folders/qh/xwg3v3kj02qbxczjpdb8lzfr0000gn/T//ccOMYHGe.s 			page 1


   1              		.cpu cortex-m0
   2              		.fpu softvfp
   3              		.eabi_attribute 20, 1
   4              		.eabi_attribute 21, 1
   5              		.eabi_attribute 23, 3
   6              		.eabi_attribute 24, 1
   7              		.eabi_attribute 25, 1
   8              		.eabi_attribute 26, 1
   9              		.eabi_attribute 30, 2
  10              		.eabi_attribute 34, 0
  11              		.eabi_attribute 18, 4
  12              		.code	16
  13              		.file	"mmcsd.c"
  14              		.text
  15              	.Ltext0:
  16              		.cfi_sections	.debug_frame
  17              		.section	.text.mmcsdGetCapacity,"ax",%progbits
  18              		.align	2
  19              		.p2align 4,,15
  20              		.global	mmcsdGetCapacity
  21              		.code	16
  22              		.thumb_func
  23              		.type	mmcsdGetCapacity, %function
  24              	mmcsdGetCapacity:
  25              	.LFB41:
  26              		.file 1 "../../os/hal/src/mmcsd.c"
  27              		.loc 1 93 0
  28              		.cfi_startproc
  29              	.LVL0:
  30              		.loc 1 95 0
  31 0000 C268     		ldr	r2, [r0, #12]
  32 0002 930F     		lsr	r3, r2, #30
  33 0004 0DD0     		beq	.L3
  34 0006 012B     		cmp	r3, #1
  35 0008 01D0     		beq	.L4
  36              	.LBB11:
  37              		.loc 1 108 0
  38 000a 0020     		mov	r0, #0
  39              	.LVL1:
  40              	.L2:
  41              	.LBE11:
  42              		.loc 1 110 0
  43              		@ sp needed
  44 000c 7047     		bx	lr
  45              	.LVL2:
  46              	.L4:
  47              	.LBB26:
  48              	.LBB12:
  49              	.LBB13:
  50              		.loc 1 76 0
  51 000e 8368     		ldr	r3, [r0, #8]
  52 0010 3F22     		mov	r2, #63
  53 0012 1A40     		and	r2, r3
  54 0014 1204     		lsl	r2, r2, #16
  55              		.loc 1 75 0
  56 0016 C388     		ldrh	r3, [r0, #6]
  57 0018 101C     		mov	r0, r2
ARM GAS  /var/folders/qh/xwg3v3kj02qbxczjpdb8lzfr0000gn/T//ccOMYHGe.s 			page 2


  58              	.LVL3:
  59 001a 1843     		orr	r0, r3
  60              	.LBE13:
  61              	.LBE12:
  62              		.loc 1 105 0
  63 001c 0130     		add	r0, r0, #1
  64 001e 8002     		lsl	r0, r0, #10
  65 0020 F4E7     		b	.L2
  66              	.LVL4:
  67              	.L3:
  68              	.LBB14:
  69              	.LBB15:
  70              		.loc 1 76 0
  71 0022 8368     		ldr	r3, [r0, #8]
  72              	.LVL5:
  73              		.loc 1 75 0
  74 0024 4268     		ldr	r2, [r0, #4]
  75              		.loc 1 76 0
  76 0026 9805     		lsl	r0, r3, #22
  77              	.LVL6:
  78              		.loc 1 75 0
  79 0028 910F     		lsr	r1, r2, #30
  80              		.loc 1 76 0
  81 002a 000D     		lsr	r0, r0, #20
  82              	.LBE15:
  83              	.LBE14:
  84              	.LBB17:
  85              	.LBB18:
  86              		.loc 1 77 0
  87 002c 9203     		lsl	r2, r2, #14
  88              	.LBE18:
  89              	.LBE17:
  90              	.LBB20:
  91              	.LBB16:
  92              		.loc 1 75 0
  93 002e 0843     		orr	r0, r1
  94              	.LBE16:
  95              	.LBE20:
  96              	.LBB21:
  97              	.LBB19:
  98              		.loc 1 77 0
  99 0030 520F     		lsr	r2, r2, #29
 100              	.LBE19:
 101              	.LBE21:
 102              	.LBB22:
 103              	.LBB23:
 104 0032 1B03     		lsl	r3, r3, #12
 105              	.LBE23:
 106              	.LBE22:
 107              		.loc 1 102 0
 108 0034 0130     		add	r0, r0, #1
 109 0036 0232     		add	r2, r2, #2
 110              	.LBB25:
 111              	.LBB24:
 112              		.loc 1 77 0
 113 0038 1B0F     		lsr	r3, r3, #28
 114              	.LBE24:
ARM GAS  /var/folders/qh/xwg3v3kj02qbxczjpdb8lzfr0000gn/T//ccOMYHGe.s 			page 3


 115              	.LBE25:
 116              		.loc 1 102 0
 117 003a 9040     		lsl	r0, r0, r2
 118 003c 093B     		sub	r3, r3, #9
 119 003e 9840     		lsl	r0, r0, r3
 120 0040 E4E7     		b	.L2
 121              	.LBE26:
 122              		.cfi_endproc
 123              	.LFE41:
 124              		.size	mmcsdGetCapacity, .-mmcsdGetCapacity
 125 0042 C046C046 		.text
 125      C046C046 
 125      C046C046 
 125      C046
 126              	.Letext0:
 127              		.file 2 "/usr/local/Cellar/gcc-arm-none-eabi-48/20131218/arm-none-eabi/include/stdint.h"
 128              		.section	.debug_info,"",%progbits
 129              	.Ldebug_info0:
 130 0000 67020000 		.4byte	0x267
 131 0004 0400     		.2byte	0x4
 132 0006 00000000 		.4byte	.Ldebug_abbrev0
 133 000a 04       		.byte	0x4
 134 000b 01       		.uleb128 0x1
 135 000c 67000000 		.4byte	.LASF18
 136 0010 01       		.byte	0x1
 137 0011 D1010000 		.4byte	.LASF19
 138 0015 96010000 		.4byte	.LASF20
 139 0019 60000000 		.4byte	.Ldebug_ranges0+0x60
 140 001d 00000000 		.4byte	0
 141 0021 00000000 		.4byte	.Ldebug_line0
 142 0025 02       		.uleb128 0x2
 143 0026 04       		.byte	0x4
 144 0027 05       		.byte	0x5
 145 0028 696E7400 		.ascii	"int\000"
 146 002c 03       		.uleb128 0x3
 147 002d 04       		.byte	0x4
 148 002e 07       		.byte	0x7
 149 002f 17000000 		.4byte	.LASF0
 150 0033 03       		.uleb128 0x3
 151 0034 01       		.byte	0x1
 152 0035 06       		.byte	0x6
 153 0036 8A010000 		.4byte	.LASF1
 154 003a 03       		.uleb128 0x3
 155 003b 01       		.byte	0x1
 156 003c 08       		.byte	0x8
 157 003d 24000000 		.4byte	.LASF2
 158 0041 03       		.uleb128 0x3
 159 0042 02       		.byte	0x2
 160 0043 05       		.byte	0x5
 161 0044 01020000 		.4byte	.LASF3
 162 0048 03       		.uleb128 0x3
 163 0049 02       		.byte	0x2
 164 004a 07       		.byte	0x7
 165 004b 67010000 		.4byte	.LASF4
 166 004f 03       		.uleb128 0x3
 167 0050 04       		.byte	0x4
 168 0051 05       		.byte	0x5
ARM GAS  /var/folders/qh/xwg3v3kj02qbxczjpdb8lzfr0000gn/T//ccOMYHGe.s 			page 4


 169 0052 58010000 		.4byte	.LASF5
 170 0056 04       		.uleb128 0x4
 171 0057 4F010000 		.4byte	.LASF21
 172 005b 02       		.byte	0x2
 173 005c 50       		.byte	0x50
 174 005d 61000000 		.4byte	0x61
 175 0061 03       		.uleb128 0x3
 176 0062 04       		.byte	0x4
 177 0063 07       		.byte	0x7
 178 0064 32000000 		.4byte	.LASF6
 179 0068 03       		.uleb128 0x3
 180 0069 08       		.byte	0x8
 181 006a 05       		.byte	0x5
 182 006b 00000000 		.4byte	.LASF7
 183 006f 03       		.uleb128 0x3
 184 0070 08       		.byte	0x8
 185 0071 07       		.byte	0x7
 186 0072 44000000 		.4byte	.LASF8
 187 0076 03       		.uleb128 0x3
 188 0077 01       		.byte	0x1
 189 0078 02       		.byte	0x2
 190 0079 61010000 		.4byte	.LASF9
 191 007d 03       		.uleb128 0x3
 192 007e 04       		.byte	0x4
 193 007f 07       		.byte	0x7
 194 0080 0B020000 		.4byte	.LASF10
 195 0084 03       		.uleb128 0x3
 196 0085 01       		.byte	0x1
 197 0086 08       		.byte	0x8
 198 0087 4A010000 		.4byte	.LASF11
 199 008b 05       		.uleb128 0x5
 200 008c 7A010000 		.4byte	.LASF22
 201 0090 01       		.byte	0x1
 202 0091 3E       		.byte	0x3e
 203 0092 56000000 		.4byte	0x56
 204 0096 01       		.byte	0x1
 205 0097 E9000000 		.4byte	0xe9
 206 009b 06       		.uleb128 0x6
 207 009c 5B000000 		.4byte	.LASF12
 208 00a0 01       		.byte	0x1
 209 00a1 3E       		.byte	0x3e
 210 00a2 E9000000 		.4byte	0xe9
 211 00a6 07       		.uleb128 0x7
 212 00a7 656E6400 		.ascii	"end\000"
 213 00ab 01       		.byte	0x1
 214 00ac 3E       		.byte	0x3e
 215 00ad 56000000 		.4byte	0x56
 216 00b1 06       		.uleb128 0x6
 217 00b2 EA010000 		.4byte	.LASF13
 218 00b6 01       		.byte	0x1
 219 00b7 3E       		.byte	0x3e
 220 00b8 56000000 		.4byte	0x56
 221 00bc 08       		.uleb128 0x8
 222 00bd 0E000000 		.4byte	.LASF14
 223 00c1 01       		.byte	0x1
 224 00c2 3F       		.byte	0x3f
 225 00c3 2C000000 		.4byte	0x2c
ARM GAS  /var/folders/qh/xwg3v3kj02qbxczjpdb8lzfr0000gn/T//ccOMYHGe.s 			page 5


 226 00c7 08       		.uleb128 0x8
 227 00c8 60000000 		.4byte	.LASF15
 228 00cc 01       		.byte	0x1
 229 00cd 3F       		.byte	0x3f
 230 00ce 2C000000 		.4byte	0x2c
 231 00d2 08       		.uleb128 0x8
 232 00d3 41010000 		.4byte	.LASF16
 233 00d7 01       		.byte	0x1
 234 00d8 3F       		.byte	0x3f
 235 00d9 2C000000 		.4byte	0x2c
 236 00dd 08       		.uleb128 0x8
 237 00de 14020000 		.4byte	.LASF17
 238 00e2 01       		.byte	0x1
 239 00e3 40       		.byte	0x40
 240 00e4 56000000 		.4byte	0x56
 241 00e8 00       		.byte	0
 242 00e9 09       		.uleb128 0x9
 243 00ea 04       		.byte	0x4
 244 00eb 56000000 		.4byte	0x56
 245 00ef 0A       		.uleb128 0xa
 246 00f0 F0010000 		.4byte	.LASF23
 247 00f4 01       		.byte	0x1
 248 00f5 5D       		.byte	0x5d
 249 00f6 56000000 		.4byte	0x56
 250 00fa 00000000 		.4byte	.LFB41
 251 00fe 42000000 		.4byte	.LFE41-.LFB41
 252 0102 01       		.uleb128 0x1
 253 0103 9C       		.byte	0x9c
 254 0104 0B       		.uleb128 0xb
 255 0105 63736400 		.ascii	"csd\000"
 256 0109 01       		.byte	0x1
 257 010a 5D       		.byte	0x5d
 258 010b E9000000 		.4byte	0xe9
 259 010f 00000000 		.4byte	.LLST0
 260 0113 0C       		.uleb128 0xc
 261 0114 00000000 		.4byte	.Ldebug_ranges0+0
 262 0118 0D       		.uleb128 0xd
 263 0119 6100     		.ascii	"a\000"
 264 011b 01       		.byte	0x1
 265 011c 60       		.byte	0x60
 266 011d 56000000 		.4byte	0x56
 267 0121 0D       		.uleb128 0xd
 268 0122 6200     		.ascii	"b\000"
 269 0124 01       		.byte	0x1
 270 0125 60       		.byte	0x60
 271 0126 56000000 		.4byte	0x56
 272 012a 0D       		.uleb128 0xd
 273 012b 6300     		.ascii	"c\000"
 274 012d 01       		.byte	0x1
 275 012e 60       		.byte	0x60
 276 012f 56000000 		.4byte	0x56
 277 0133 0E       		.uleb128 0xe
 278 0134 8B000000 		.4byte	0x8b
 279 0138 0E000000 		.4byte	.LBB12
 280 013c 0E000000 		.4byte	.LBE12-.LBB12
 281 0140 01       		.byte	0x1
 282 0141 69       		.byte	0x69
ARM GAS  /var/folders/qh/xwg3v3kj02qbxczjpdb8lzfr0000gn/T//ccOMYHGe.s 			page 6


 283 0142 90010000 		.4byte	0x190
 284 0146 0F       		.uleb128 0xf
 285 0147 B1000000 		.4byte	0xb1
 286 014b 53000000 		.4byte	.LLST1
 287 014f 0F       		.uleb128 0xf
 288 0150 A6000000 		.4byte	0xa6
 289 0154 68000000 		.4byte	.LLST2
 290 0158 0F       		.uleb128 0xf
 291 0159 9B000000 		.4byte	0x9b
 292 015d 7D000000 		.4byte	.LLST3
 293 0161 10       		.uleb128 0x10
 294 0162 0E000000 		.4byte	.LBB13
 295 0166 0E000000 		.4byte	.LBE13-.LBB13
 296 016a 11       		.uleb128 0x11
 297 016b BC000000 		.4byte	0xbc
 298 016f 9E000000 		.4byte	.LLST4
 299 0173 11       		.uleb128 0x11
 300 0174 C7000000 		.4byte	0xc7
 301 0178 B2000000 		.4byte	.LLST5
 302 017c 11       		.uleb128 0x11
 303 017d D2000000 		.4byte	0xd2
 304 0181 C6000000 		.4byte	.LLST6
 305 0185 11       		.uleb128 0x11
 306 0186 DD000000 		.4byte	0xdd
 307 018a DA000000 		.4byte	.LLST7
 308 018e 00       		.byte	0
 309 018f 00       		.byte	0
 310 0190 12       		.uleb128 0x12
 311 0191 8B000000 		.4byte	0x8b
 312 0195 22000000 		.4byte	.LBB14
 313 0199 18000000 		.4byte	.Ldebug_ranges0+0x18
 314 019d 01       		.byte	0x1
 315 019e 63       		.byte	0x63
 316 019f D8010000 		.4byte	0x1d8
 317 01a3 13       		.uleb128 0x13
 318 01a4 B1000000 		.4byte	0xb1
 319 01a8 3E       		.byte	0x3e
 320 01a9 13       		.uleb128 0x13
 321 01aa A6000000 		.4byte	0xa6
 322 01ae 49       		.byte	0x49
 323 01af 0F       		.uleb128 0xf
 324 01b0 9B000000 		.4byte	0x9b
 325 01b4 EF000000 		.4byte	.LLST8
 326 01b8 0C       		.uleb128 0xc
 327 01b9 18000000 		.4byte	.Ldebug_ranges0+0x18
 328 01bd 14       		.uleb128 0x14
 329 01be BC000000 		.4byte	0xbc
 330 01c2 01       		.byte	0x1
 331 01c3 14       		.uleb128 0x14
 332 01c4 C7000000 		.4byte	0xc7
 333 01c8 02       		.byte	0x2
 334 01c9 14       		.uleb128 0x14
 335 01ca D2000000 		.4byte	0xd2
 336 01ce 1E       		.byte	0x1e
 337 01cf 15       		.uleb128 0x15
 338 01d0 DD000000 		.4byte	0xdd
 339 01d4 FF03     		.2byte	0x3ff
ARM GAS  /var/folders/qh/xwg3v3kj02qbxczjpdb8lzfr0000gn/T//ccOMYHGe.s 			page 7


 340 01d6 00       		.byte	0
 341 01d7 00       		.byte	0
 342 01d8 12       		.uleb128 0x12
 343 01d9 8B000000 		.4byte	0x8b
 344 01dd 2C000000 		.4byte	.LBB17
 345 01e1 30000000 		.4byte	.Ldebug_ranges0+0x30
 346 01e5 01       		.byte	0x1
 347 01e6 64       		.byte	0x64
 348 01e7 22020000 		.4byte	0x222
 349 01eb 13       		.uleb128 0x13
 350 01ec B1000000 		.4byte	0xb1
 351 01f0 2F       		.byte	0x2f
 352 01f1 13       		.uleb128 0x13
 353 01f2 A6000000 		.4byte	0xa6
 354 01f6 31       		.byte	0x31
 355 01f7 0F       		.uleb128 0xf
 356 01f8 9B000000 		.4byte	0x9b
 357 01fc 10010000 		.4byte	.LLST9
 358 0200 0C       		.uleb128 0xc
 359 0201 30000000 		.4byte	.Ldebug_ranges0+0x30
 360 0205 14       		.uleb128 0x14
 361 0206 BC000000 		.4byte	0xbc
 362 020a 01       		.byte	0x1
 363 020b 14       		.uleb128 0x14
 364 020c C7000000 		.4byte	0xc7
 365 0210 01       		.byte	0x1
 366 0211 14       		.uleb128 0x14
 367 0212 D2000000 		.4byte	0xd2
 368 0216 0F       		.byte	0xf
 369 0217 16       		.uleb128 0x16
 370 0218 DD000000 		.4byte	0xdd
 371 021c FFFF0300 		.4byte	0x3ffff
 372 0220 00       		.byte	0
 373 0221 00       		.byte	0
 374 0222 17       		.uleb128 0x17
 375 0223 8B000000 		.4byte	0x8b
 376 0227 32000000 		.4byte	.LBB22
 377 022b 48000000 		.4byte	.Ldebug_ranges0+0x48
 378 022f 01       		.byte	0x1
 379 0230 65       		.byte	0x65
 380 0231 13       		.uleb128 0x13
 381 0232 B1000000 		.4byte	0xb1
 382 0236 50       		.byte	0x50
 383 0237 13       		.uleb128 0x13
 384 0238 A6000000 		.4byte	0xa6
 385 023c 53       		.byte	0x53
 386 023d 0F       		.uleb128 0xf
 387 023e 9B000000 		.4byte	0x9b
 388 0242 10010000 		.4byte	.LLST9
 389 0246 0C       		.uleb128 0xc
 390 0247 48000000 		.4byte	.Ldebug_ranges0+0x48
 391 024b 14       		.uleb128 0x14
 392 024c BC000000 		.4byte	0xbc
 393 0250 02       		.byte	0x2
 394 0251 14       		.uleb128 0x14
 395 0252 C7000000 		.4byte	0xc7
 396 0256 02       		.byte	0x2
ARM GAS  /var/folders/qh/xwg3v3kj02qbxczjpdb8lzfr0000gn/T//ccOMYHGe.s 			page 8


 397 0257 14       		.uleb128 0x14
 398 0258 D2000000 		.4byte	0xd2
 399 025c 10       		.byte	0x10
 400 025d 16       		.uleb128 0x16
 401 025e DD000000 		.4byte	0xdd
 402 0262 FFFF0F00 		.4byte	0xfffff
 403 0266 00       		.byte	0
 404 0267 00       		.byte	0
 405 0268 00       		.byte	0
 406 0269 00       		.byte	0
 407 026a 00       		.byte	0
 408              		.section	.debug_abbrev,"",%progbits
 409              	.Ldebug_abbrev0:
 410 0000 01       		.uleb128 0x1
 411 0001 11       		.uleb128 0x11
 412 0002 01       		.byte	0x1
 413 0003 25       		.uleb128 0x25
 414 0004 0E       		.uleb128 0xe
 415 0005 13       		.uleb128 0x13
 416 0006 0B       		.uleb128 0xb
 417 0007 03       		.uleb128 0x3
 418 0008 0E       		.uleb128 0xe
 419 0009 1B       		.uleb128 0x1b
 420 000a 0E       		.uleb128 0xe
 421 000b 55       		.uleb128 0x55
 422 000c 17       		.uleb128 0x17
 423 000d 11       		.uleb128 0x11
 424 000e 01       		.uleb128 0x1
 425 000f 10       		.uleb128 0x10
 426 0010 17       		.uleb128 0x17
 427 0011 00       		.byte	0
 428 0012 00       		.byte	0
 429 0013 02       		.uleb128 0x2
 430 0014 24       		.uleb128 0x24
 431 0015 00       		.byte	0
 432 0016 0B       		.uleb128 0xb
 433 0017 0B       		.uleb128 0xb
 434 0018 3E       		.uleb128 0x3e
 435 0019 0B       		.uleb128 0xb
 436 001a 03       		.uleb128 0x3
 437 001b 08       		.uleb128 0x8
 438 001c 00       		.byte	0
 439 001d 00       		.byte	0
 440 001e 03       		.uleb128 0x3
 441 001f 24       		.uleb128 0x24
 442 0020 00       		.byte	0
 443 0021 0B       		.uleb128 0xb
 444 0022 0B       		.uleb128 0xb
 445 0023 3E       		.uleb128 0x3e
 446 0024 0B       		.uleb128 0xb
 447 0025 03       		.uleb128 0x3
 448 0026 0E       		.uleb128 0xe
 449 0027 00       		.byte	0
 450 0028 00       		.byte	0
 451 0029 04       		.uleb128 0x4
 452 002a 16       		.uleb128 0x16
 453 002b 00       		.byte	0
ARM GAS  /var/folders/qh/xwg3v3kj02qbxczjpdb8lzfr0000gn/T//ccOMYHGe.s 			page 9


 454 002c 03       		.uleb128 0x3
 455 002d 0E       		.uleb128 0xe
 456 002e 3A       		.uleb128 0x3a
 457 002f 0B       		.uleb128 0xb
 458 0030 3B       		.uleb128 0x3b
 459 0031 0B       		.uleb128 0xb
 460 0032 49       		.uleb128 0x49
 461 0033 13       		.uleb128 0x13
 462 0034 00       		.byte	0
 463 0035 00       		.byte	0
 464 0036 05       		.uleb128 0x5
 465 0037 2E       		.uleb128 0x2e
 466 0038 01       		.byte	0x1
 467 0039 03       		.uleb128 0x3
 468 003a 0E       		.uleb128 0xe
 469 003b 3A       		.uleb128 0x3a
 470 003c 0B       		.uleb128 0xb
 471 003d 3B       		.uleb128 0x3b
 472 003e 0B       		.uleb128 0xb
 473 003f 27       		.uleb128 0x27
 474 0040 19       		.uleb128 0x19
 475 0041 49       		.uleb128 0x49
 476 0042 13       		.uleb128 0x13
 477 0043 20       		.uleb128 0x20
 478 0044 0B       		.uleb128 0xb
 479 0045 01       		.uleb128 0x1
 480 0046 13       		.uleb128 0x13
 481 0047 00       		.byte	0
 482 0048 00       		.byte	0
 483 0049 06       		.uleb128 0x6
 484 004a 05       		.uleb128 0x5
 485 004b 00       		.byte	0
 486 004c 03       		.uleb128 0x3
 487 004d 0E       		.uleb128 0xe
 488 004e 3A       		.uleb128 0x3a
 489 004f 0B       		.uleb128 0xb
 490 0050 3B       		.uleb128 0x3b
 491 0051 0B       		.uleb128 0xb
 492 0052 49       		.uleb128 0x49
 493 0053 13       		.uleb128 0x13
 494 0054 00       		.byte	0
 495 0055 00       		.byte	0
 496 0056 07       		.uleb128 0x7
 497 0057 05       		.uleb128 0x5
 498 0058 00       		.byte	0
 499 0059 03       		.uleb128 0x3
 500 005a 08       		.uleb128 0x8
 501 005b 3A       		.uleb128 0x3a
 502 005c 0B       		.uleb128 0xb
 503 005d 3B       		.uleb128 0x3b
 504 005e 0B       		.uleb128 0xb
 505 005f 49       		.uleb128 0x49
 506 0060 13       		.uleb128 0x13
 507 0061 00       		.byte	0
 508 0062 00       		.byte	0
 509 0063 08       		.uleb128 0x8
 510 0064 34       		.uleb128 0x34
ARM GAS  /var/folders/qh/xwg3v3kj02qbxczjpdb8lzfr0000gn/T//ccOMYHGe.s 			page 10


 511 0065 00       		.byte	0
 512 0066 03       		.uleb128 0x3
 513 0067 0E       		.uleb128 0xe
 514 0068 3A       		.uleb128 0x3a
 515 0069 0B       		.uleb128 0xb
 516 006a 3B       		.uleb128 0x3b
 517 006b 0B       		.uleb128 0xb
 518 006c 49       		.uleb128 0x49
 519 006d 13       		.uleb128 0x13
 520 006e 00       		.byte	0
 521 006f 00       		.byte	0
 522 0070 09       		.uleb128 0x9
 523 0071 0F       		.uleb128 0xf
 524 0072 00       		.byte	0
 525 0073 0B       		.uleb128 0xb
 526 0074 0B       		.uleb128 0xb
 527 0075 49       		.uleb128 0x49
 528 0076 13       		.uleb128 0x13
 529 0077 00       		.byte	0
 530 0078 00       		.byte	0
 531 0079 0A       		.uleb128 0xa
 532 007a 2E       		.uleb128 0x2e
 533 007b 01       		.byte	0x1
 534 007c 3F       		.uleb128 0x3f
 535 007d 19       		.uleb128 0x19
 536 007e 03       		.uleb128 0x3
 537 007f 0E       		.uleb128 0xe
 538 0080 3A       		.uleb128 0x3a
 539 0081 0B       		.uleb128 0xb
 540 0082 3B       		.uleb128 0x3b
 541 0083 0B       		.uleb128 0xb
 542 0084 27       		.uleb128 0x27
 543 0085 19       		.uleb128 0x19
 544 0086 49       		.uleb128 0x49
 545 0087 13       		.uleb128 0x13
 546 0088 11       		.uleb128 0x11
 547 0089 01       		.uleb128 0x1
 548 008a 12       		.uleb128 0x12
 549 008b 06       		.uleb128 0x6
 550 008c 40       		.uleb128 0x40
 551 008d 18       		.uleb128 0x18
 552 008e 9742     		.uleb128 0x2117
 553 0090 19       		.uleb128 0x19
 554 0091 00       		.byte	0
 555 0092 00       		.byte	0
 556 0093 0B       		.uleb128 0xb
 557 0094 05       		.uleb128 0x5
 558 0095 00       		.byte	0
 559 0096 03       		.uleb128 0x3
 560 0097 08       		.uleb128 0x8
 561 0098 3A       		.uleb128 0x3a
 562 0099 0B       		.uleb128 0xb
 563 009a 3B       		.uleb128 0x3b
 564 009b 0B       		.uleb128 0xb
 565 009c 49       		.uleb128 0x49
 566 009d 13       		.uleb128 0x13
 567 009e 02       		.uleb128 0x2
ARM GAS  /var/folders/qh/xwg3v3kj02qbxczjpdb8lzfr0000gn/T//ccOMYHGe.s 			page 11


 568 009f 17       		.uleb128 0x17
 569 00a0 00       		.byte	0
 570 00a1 00       		.byte	0
 571 00a2 0C       		.uleb128 0xc
 572 00a3 0B       		.uleb128 0xb
 573 00a4 01       		.byte	0x1
 574 00a5 55       		.uleb128 0x55
 575 00a6 17       		.uleb128 0x17
 576 00a7 00       		.byte	0
 577 00a8 00       		.byte	0
 578 00a9 0D       		.uleb128 0xd
 579 00aa 34       		.uleb128 0x34
 580 00ab 00       		.byte	0
 581 00ac 03       		.uleb128 0x3
 582 00ad 08       		.uleb128 0x8
 583 00ae 3A       		.uleb128 0x3a
 584 00af 0B       		.uleb128 0xb
 585 00b0 3B       		.uleb128 0x3b
 586 00b1 0B       		.uleb128 0xb
 587 00b2 49       		.uleb128 0x49
 588 00b3 13       		.uleb128 0x13
 589 00b4 00       		.byte	0
 590 00b5 00       		.byte	0
 591 00b6 0E       		.uleb128 0xe
 592 00b7 1D       		.uleb128 0x1d
 593 00b8 01       		.byte	0x1
 594 00b9 31       		.uleb128 0x31
 595 00ba 13       		.uleb128 0x13
 596 00bb 11       		.uleb128 0x11
 597 00bc 01       		.uleb128 0x1
 598 00bd 12       		.uleb128 0x12
 599 00be 06       		.uleb128 0x6
 600 00bf 58       		.uleb128 0x58
 601 00c0 0B       		.uleb128 0xb
 602 00c1 59       		.uleb128 0x59
 603 00c2 0B       		.uleb128 0xb
 604 00c3 01       		.uleb128 0x1
 605 00c4 13       		.uleb128 0x13
 606 00c5 00       		.byte	0
 607 00c6 00       		.byte	0
 608 00c7 0F       		.uleb128 0xf
 609 00c8 05       		.uleb128 0x5
 610 00c9 00       		.byte	0
 611 00ca 31       		.uleb128 0x31
 612 00cb 13       		.uleb128 0x13
 613 00cc 02       		.uleb128 0x2
 614 00cd 17       		.uleb128 0x17
 615 00ce 00       		.byte	0
 616 00cf 00       		.byte	0
 617 00d0 10       		.uleb128 0x10
 618 00d1 0B       		.uleb128 0xb
 619 00d2 01       		.byte	0x1
 620 00d3 11       		.uleb128 0x11
 621 00d4 01       		.uleb128 0x1
 622 00d5 12       		.uleb128 0x12
 623 00d6 06       		.uleb128 0x6
 624 00d7 00       		.byte	0
ARM GAS  /var/folders/qh/xwg3v3kj02qbxczjpdb8lzfr0000gn/T//ccOMYHGe.s 			page 12


 625 00d8 00       		.byte	0
 626 00d9 11       		.uleb128 0x11
 627 00da 34       		.uleb128 0x34
 628 00db 00       		.byte	0
 629 00dc 31       		.uleb128 0x31
 630 00dd 13       		.uleb128 0x13
 631 00de 02       		.uleb128 0x2
 632 00df 17       		.uleb128 0x17
 633 00e0 00       		.byte	0
 634 00e1 00       		.byte	0
 635 00e2 12       		.uleb128 0x12
 636 00e3 1D       		.uleb128 0x1d
 637 00e4 01       		.byte	0x1
 638 00e5 31       		.uleb128 0x31
 639 00e6 13       		.uleb128 0x13
 640 00e7 52       		.uleb128 0x52
 641 00e8 01       		.uleb128 0x1
 642 00e9 55       		.uleb128 0x55
 643 00ea 17       		.uleb128 0x17
 644 00eb 58       		.uleb128 0x58
 645 00ec 0B       		.uleb128 0xb
 646 00ed 59       		.uleb128 0x59
 647 00ee 0B       		.uleb128 0xb
 648 00ef 01       		.uleb128 0x1
 649 00f0 13       		.uleb128 0x13
 650 00f1 00       		.byte	0
 651 00f2 00       		.byte	0
 652 00f3 13       		.uleb128 0x13
 653 00f4 05       		.uleb128 0x5
 654 00f5 00       		.byte	0
 655 00f6 31       		.uleb128 0x31
 656 00f7 13       		.uleb128 0x13
 657 00f8 1C       		.uleb128 0x1c
 658 00f9 0B       		.uleb128 0xb
 659 00fa 00       		.byte	0
 660 00fb 00       		.byte	0
 661 00fc 14       		.uleb128 0x14
 662 00fd 34       		.uleb128 0x34
 663 00fe 00       		.byte	0
 664 00ff 31       		.uleb128 0x31
 665 0100 13       		.uleb128 0x13
 666 0101 1C       		.uleb128 0x1c
 667 0102 0B       		.uleb128 0xb
 668 0103 00       		.byte	0
 669 0104 00       		.byte	0
 670 0105 15       		.uleb128 0x15
 671 0106 34       		.uleb128 0x34
 672 0107 00       		.byte	0
 673 0108 31       		.uleb128 0x31
 674 0109 13       		.uleb128 0x13
 675 010a 1C       		.uleb128 0x1c
 676 010b 05       		.uleb128 0x5
 677 010c 00       		.byte	0
 678 010d 00       		.byte	0
 679 010e 16       		.uleb128 0x16
 680 010f 34       		.uleb128 0x34
 681 0110 00       		.byte	0
ARM GAS  /var/folders/qh/xwg3v3kj02qbxczjpdb8lzfr0000gn/T//ccOMYHGe.s 			page 13


 682 0111 31       		.uleb128 0x31
 683 0112 13       		.uleb128 0x13
 684 0113 1C       		.uleb128 0x1c
 685 0114 06       		.uleb128 0x6
 686 0115 00       		.byte	0
 687 0116 00       		.byte	0
 688 0117 17       		.uleb128 0x17
 689 0118 1D       		.uleb128 0x1d
 690 0119 01       		.byte	0x1
 691 011a 31       		.uleb128 0x31
 692 011b 13       		.uleb128 0x13
 693 011c 52       		.uleb128 0x52
 694 011d 01       		.uleb128 0x1
 695 011e 55       		.uleb128 0x55
 696 011f 17       		.uleb128 0x17
 697 0120 58       		.uleb128 0x58
 698 0121 0B       		.uleb128 0xb
 699 0122 59       		.uleb128 0x59
 700 0123 0B       		.uleb128 0xb
 701 0124 00       		.byte	0
 702 0125 00       		.byte	0
 703 0126 00       		.byte	0
 704              		.section	.debug_loc,"",%progbits
 705              	.Ldebug_loc0:
 706              	.LLST0:
 707 0000 00000000 		.4byte	.LVL0
 708 0004 0C000000 		.4byte	.LVL1
 709 0008 0100     		.2byte	0x1
 710 000a 50       		.byte	0x50
 711 000b 0C000000 		.4byte	.LVL1
 712 000f 0E000000 		.4byte	.LVL2
 713 0013 0400     		.2byte	0x4
 714 0015 F3       		.byte	0xf3
 715 0016 01       		.uleb128 0x1
 716 0017 50       		.byte	0x50
 717 0018 9F       		.byte	0x9f
 718 0019 0E000000 		.4byte	.LVL2
 719 001d 1A000000 		.4byte	.LVL3
 720 0021 0100     		.2byte	0x1
 721 0023 50       		.byte	0x50
 722 0024 1A000000 		.4byte	.LVL3
 723 0028 22000000 		.4byte	.LVL4
 724 002c 0400     		.2byte	0x4
 725 002e F3       		.byte	0xf3
 726 002f 01       		.uleb128 0x1
 727 0030 50       		.byte	0x50
 728 0031 9F       		.byte	0x9f
 729 0032 22000000 		.4byte	.LVL4
 730 0036 28000000 		.4byte	.LVL6
 731 003a 0100     		.2byte	0x1
 732 003c 50       		.byte	0x50
 733 003d 28000000 		.4byte	.LVL6
 734 0041 42000000 		.4byte	.LFE41
 735 0045 0400     		.2byte	0x4
 736 0047 F3       		.byte	0xf3
 737 0048 01       		.uleb128 0x1
 738 0049 50       		.byte	0x50
ARM GAS  /var/folders/qh/xwg3v3kj02qbxczjpdb8lzfr0000gn/T//ccOMYHGe.s 			page 14


 739 004a 9F       		.byte	0x9f
 740 004b 00000000 		.4byte	0
 741 004f 00000000 		.4byte	0
 742              	.LLST1:
 743 0053 0E000000 		.4byte	.LVL2
 744 0057 22000000 		.4byte	.LVL4
 745 005b 0300     		.2byte	0x3
 746 005d 08       		.byte	0x8
 747 005e 30       		.byte	0x30
 748 005f 9F       		.byte	0x9f
 749 0060 00000000 		.4byte	0
 750 0064 00000000 		.4byte	0
 751              	.LLST2:
 752 0068 0E000000 		.4byte	.LVL2
 753 006c 22000000 		.4byte	.LVL4
 754 0070 0300     		.2byte	0x3
 755 0072 08       		.byte	0x8
 756 0073 45       		.byte	0x45
 757 0074 9F       		.byte	0x9f
 758 0075 00000000 		.4byte	0
 759 0079 00000000 		.4byte	0
 760              	.LLST3:
 761 007d 0E000000 		.4byte	.LVL2
 762 0081 1A000000 		.4byte	.LVL3
 763 0085 0100     		.2byte	0x1
 764 0087 50       		.byte	0x50
 765 0088 1A000000 		.4byte	.LVL3
 766 008c 22000000 		.4byte	.LVL4
 767 0090 0400     		.2byte	0x4
 768 0092 F3       		.byte	0xf3
 769 0093 01       		.uleb128 0x1
 770 0094 50       		.byte	0x50
 771 0095 9F       		.byte	0x9f
 772 0096 00000000 		.4byte	0
 773 009a 00000000 		.4byte	0
 774              	.LLST4:
 775 009e 0E000000 		.4byte	.LVL2
 776 00a2 22000000 		.4byte	.LVL4
 777 00a6 0200     		.2byte	0x2
 778 00a8 31       		.byte	0x31
 779 00a9 9F       		.byte	0x9f
 780 00aa 00000000 		.4byte	0
 781 00ae 00000000 		.4byte	0
 782              	.LLST5:
 783 00b2 0E000000 		.4byte	.LVL2
 784 00b6 22000000 		.4byte	.LVL4
 785 00ba 0200     		.2byte	0x2
 786 00bc 32       		.byte	0x32
 787 00bd 9F       		.byte	0x9f
 788 00be 00000000 		.4byte	0
 789 00c2 00000000 		.4byte	0
 790              	.LLST6:
 791 00c6 0E000000 		.4byte	.LVL2
 792 00ca 22000000 		.4byte	.LVL4
 793 00ce 0200     		.2byte	0x2
 794 00d0 40       		.byte	0x40
 795 00d1 9F       		.byte	0x9f
ARM GAS  /var/folders/qh/xwg3v3kj02qbxczjpdb8lzfr0000gn/T//ccOMYHGe.s 			page 15


 796 00d2 00000000 		.4byte	0
 797 00d6 00000000 		.4byte	0
 798              	.LLST7:
 799 00da 0E000000 		.4byte	.LVL2
 800 00de 22000000 		.4byte	.LVL4
 801 00e2 0300     		.2byte	0x3
 802 00e4 08       		.byte	0x8
 803 00e5 3F       		.byte	0x3f
 804 00e6 9F       		.byte	0x9f
 805 00e7 00000000 		.4byte	0
 806 00eb 00000000 		.4byte	0
 807              	.LLST8:
 808 00ef 22000000 		.4byte	.LVL4
 809 00f3 28000000 		.4byte	.LVL6
 810 00f7 0100     		.2byte	0x1
 811 00f9 50       		.byte	0x50
 812 00fa 28000000 		.4byte	.LVL6
 813 00fe 42000000 		.4byte	.LFE41
 814 0102 0400     		.2byte	0x4
 815 0104 F3       		.byte	0xf3
 816 0105 01       		.uleb128 0x1
 817 0106 50       		.byte	0x50
 818 0107 9F       		.byte	0x9f
 819 0108 00000000 		.4byte	0
 820 010c 00000000 		.4byte	0
 821              	.LLST9:
 822 0110 24000000 		.4byte	.LVL5
 823 0114 28000000 		.4byte	.LVL6
 824 0118 0100     		.2byte	0x1
 825 011a 50       		.byte	0x50
 826 011b 28000000 		.4byte	.LVL6
 827 011f 42000000 		.4byte	.LFE41
 828 0123 0400     		.2byte	0x4
 829 0125 F3       		.byte	0xf3
 830 0126 01       		.uleb128 0x1
 831 0127 50       		.byte	0x50
 832 0128 9F       		.byte	0x9f
 833 0129 00000000 		.4byte	0
 834 012d 00000000 		.4byte	0
 835              		.section	.debug_aranges,"",%progbits
 836 0000 1C000000 		.4byte	0x1c
 837 0004 0200     		.2byte	0x2
 838 0006 00000000 		.4byte	.Ldebug_info0
 839 000a 04       		.byte	0x4
 840 000b 00       		.byte	0
 841 000c 0000     		.2byte	0
 842 000e 0000     		.2byte	0
 843 0010 00000000 		.4byte	.LFB41
 844 0014 42000000 		.4byte	.LFE41-.LFB41
 845 0018 00000000 		.4byte	0
 846 001c 00000000 		.4byte	0
 847              		.section	.debug_ranges,"",%progbits
 848              	.Ldebug_ranges0:
 849 0000 0A000000 		.4byte	.LBB11
 850 0004 0C000000 		.4byte	.LBE11
 851 0008 0E000000 		.4byte	.LBB26
 852 000c 42000000 		.4byte	.LBE26
ARM GAS  /var/folders/qh/xwg3v3kj02qbxczjpdb8lzfr0000gn/T//ccOMYHGe.s 			page 16


 853 0010 00000000 		.4byte	0
 854 0014 00000000 		.4byte	0
 855 0018 22000000 		.4byte	.LBB14
 856 001c 2C000000 		.4byte	.LBE14
 857 0020 2E000000 		.4byte	.LBB20
 858 0024 30000000 		.4byte	.LBE20
 859 0028 00000000 		.4byte	0
 860 002c 00000000 		.4byte	0
 861 0030 2C000000 		.4byte	.LBB17
 862 0034 2E000000 		.4byte	.LBE17
 863 0038 30000000 		.4byte	.LBB21
 864 003c 32000000 		.4byte	.LBE21
 865 0040 00000000 		.4byte	0
 866 0044 00000000 		.4byte	0
 867 0048 32000000 		.4byte	.LBB22
 868 004c 34000000 		.4byte	.LBE22
 869 0050 38000000 		.4byte	.LBB25
 870 0054 3A000000 		.4byte	.LBE25
 871 0058 00000000 		.4byte	0
 872 005c 00000000 		.4byte	0
 873 0060 00000000 		.4byte	.LFB41
 874 0064 42000000 		.4byte	.LFE41
 875 0068 00000000 		.4byte	0
 876 006c 00000000 		.4byte	0
 877              		.section	.debug_line,"",%progbits
 878              	.Ldebug_line0:
 879 0000 B6000000 		.section	.debug_str,"MS",%progbits,1
 879      02008100 
 879      00000201 
 879      FB0E0D00 
 879      01010101 
 880              	.LASF7:
 881 0000 6C6F6E67 		.ascii	"long long int\000"
 881      206C6F6E 
 881      6720696E 
 881      7400
 882              	.LASF14:
 883 000e 73746172 		.ascii	"startidx\000"
 883      74696478 
 883      00
 884              	.LASF0:
 885 0017 756E7369 		.ascii	"unsigned int\000"
 885      676E6564 
 885      20696E74 
 885      00
 886              	.LASF2:
 887 0024 756E7369 		.ascii	"unsigned char\000"
 887      676E6564 
 887      20636861 
 887      7200
 888              	.LASF6:
 889 0032 6C6F6E67 		.ascii	"long unsigned int\000"
 889      20756E73 
 889      69676E65 
 889      6420696E 
 889      7400
 890              	.LASF8:
ARM GAS  /var/folders/qh/xwg3v3kj02qbxczjpdb8lzfr0000gn/T//ccOMYHGe.s 			page 17


 891 0044 6C6F6E67 		.ascii	"long long unsigned int\000"
 891      206C6F6E 
 891      6720756E 
 891      7369676E 
 891      65642069 
 892              	.LASF12:
 893 005b 64617461 		.ascii	"data\000"
 893      00
 894              	.LASF15:
 895 0060 656E6469 		.ascii	"endidx\000"
 895      647800
 896              	.LASF18:
 897 0067 474E5520 		.ascii	"GNU C 4.8.3 20131129 (release) [ARM/embedded-4_8-br"
 897      4320342E 
 897      382E3320 
 897      32303133 
 897      31313239 
 898 009a 616E6368 		.ascii	"anch revision 205641] -mcpu=cortex-m0 -mno-thumb-in"
 898      20726576 
 898      6973696F 
 898      6E203230 
 898      35363431 
 899 00cd 74657277 		.ascii	"terwork -mthumb -ggdb -O2 -fomit-frame-pointer -fal"
 899      6F726B20 
 899      2D6D7468 
 899      756D6220 
 899      2D676764 
 900 0100 69676E2D 		.ascii	"ign-functions=16 -ffunction-sections -fdata-section"
 900      66756E63 
 900      74696F6E 
 900      733D3136 
 900      202D6666 
 901 0133 73202D66 		.ascii	"s -fno-common\000"
 901      6E6F2D63 
 901      6F6D6D6F 
 901      6E00
 902              	.LASF16:
 903 0141 73746172 		.ascii	"startoff\000"
 903      746F6666 
 903      00
 904              	.LASF11:
 905 014a 63686172 		.ascii	"char\000"
 905      00
 906              	.LASF21:
 907 014f 75696E74 		.ascii	"uint32_t\000"
 907      33325F74 
 907      00
 908              	.LASF5:
 909 0158 6C6F6E67 		.ascii	"long int\000"
 909      20696E74 
 909      00
 910              	.LASF9:
 911 0161 5F426F6F 		.ascii	"_Bool\000"
 911      6C00
 912              	.LASF4:
 913 0167 73686F72 		.ascii	"short unsigned int\000"
 913      7420756E 
ARM GAS  /var/folders/qh/xwg3v3kj02qbxczjpdb8lzfr0000gn/T//ccOMYHGe.s 			page 18


 913      7369676E 
 913      65642069 
 913      6E7400
 914              	.LASF22:
 915 017a 6D6D6373 		.ascii	"mmcsd_get_slice\000"
 915      645F6765 
 915      745F736C 
 915      69636500 
 916              	.LASF1:
 917 018a 7369676E 		.ascii	"signed char\000"
 917      65642063 
 917      68617200 
 918              	.LASF20:
 919 0196 2F557365 		.ascii	"/Users/John/Development/embedded/ChibiOS-RT/BluC/ST"
 919      72732F4A 
 919      6F686E2F 
 919      44657665 
 919      6C6F706D 
 920 01c9 4D333246 		.ascii	"M32F051\000"
 920      30353100 
 921              	.LASF19:
 922 01d1 2E2E2F2E 		.ascii	"../../os/hal/src/mmcsd.c\000"
 922      2E2F6F73 
 922      2F68616C 
 922      2F737263 
 922      2F6D6D63 
 923              	.LASF13:
 924 01ea 73746172 		.ascii	"start\000"
 924      7400
 925              	.LASF23:
 926 01f0 6D6D6373 		.ascii	"mmcsdGetCapacity\000"
 926      64476574 
 926      43617061 
 926      63697479 
 926      00
 927              	.LASF3:
 928 0201 73686F72 		.ascii	"short int\000"
 928      7420696E 
 928      7400
 929              	.LASF10:
 930 020b 73697A65 		.ascii	"sizetype\000"
 930      74797065 
 930      00
 931              	.LASF17:
 932 0214 656E646D 		.ascii	"endmask\000"
 932      61736B00 
 933              		.ident	"GCC: (GNU Tools for ARM Embedded Processors) 4.8.3 20131129 (release) [ARM/embedded-4_8-br
ARM GAS  /var/folders/qh/xwg3v3kj02qbxczjpdb8lzfr0000gn/T//ccOMYHGe.s 			page 19


DEFINED SYMBOLS
                            *ABS*:0000000000000000 mmcsd.c
/var/folders/qh/xwg3v3kj02qbxczjpdb8lzfr0000gn/T//ccOMYHGe.s:18     .text.mmcsdGetCapacity:0000000000000000 $t
/var/folders/qh/xwg3v3kj02qbxczjpdb8lzfr0000gn/T//ccOMYHGe.s:24     .text.mmcsdGetCapacity:0000000000000000 mmcsdGetCapacity
                     .debug_frame:0000000000000010 $d

NO UNDEFINED SYMBOLS
