ARM GAS  /var/folders/qh/xwg3v3kj02qbxczjpdb8lzfr0000gn/T//cc0OtAQ0.s 			page 1


   1              		.cpu cortex-m0
   2              		.fpu softvfp
   3              		.eabi_attribute 20, 1
   4              		.eabi_attribute 21, 1
   5              		.eabi_attribute 23, 3
   6              		.eabi_attribute 24, 1
   7              		.eabi_attribute 25, 1
   8              		.eabi_attribute 26, 1
   9              		.eabi_attribute 30, 2
  10              		.eabi_attribute 34, 0
  11              		.eabi_attribute 18, 4
  12              		.code	16
  13              		.file	"pal.c"
  14              		.text
  15              	.Ltext0:
  16              		.cfi_sections	.debug_frame
  17              		.section	.text.palReadBus,"ax",%progbits
  18              		.align	2
  19              		.p2align 4,,15
  20              		.global	palReadBus
  21              		.code	16
  22              		.thumb_func
  23              		.type	palReadBus, %function
  24              	palReadBus:
  25              	.LFB40:
  26              		.file 1 "../../os/hal/src/pal.c"
  27              		.loc 1 70 0
  28              		.cfi_startproc
  29              	.LVL0:
  30              		.loc 1 75 0
  31 0000 0368     		ldr	r3, [r0]
  32 0002 8268     		ldr	r2, [r0, #8]
  33 0004 1B69     		ldr	r3, [r3, #16]
  34 0006 4068     		ldr	r0, [r0, #4]
  35              	.LVL1:
  36 0008 D340     		lsr	r3, r3, r2
  37 000a 1840     		and	r0, r3
  38              		.loc 1 76 0
  39              		@ sp needed
  40 000c 7047     		bx	lr
  41              		.cfi_endproc
  42              	.LFE40:
  43              		.size	palReadBus, .-palReadBus
  44 000e C046     		.section	.text.palWriteBus,"ax",%progbits
  45              		.align	2
  46              		.p2align 4,,15
  47              		.global	palWriteBus
  48              		.code	16
  49              		.thumb_func
  50              		.type	palWriteBus, %function
  51              	palWriteBus:
  52              	.LFB41:
  53              		.loc 1 96 0
  54              		.cfi_startproc
  55              	.LVL2:
  56              		.loc 1 101 0
  57 0000 4268     		ldr	r2, [r0, #4]
ARM GAS  /var/folders/qh/xwg3v3kj02qbxczjpdb8lzfr0000gn/T//cc0OtAQ0.s 			page 2


  58 0002 8368     		ldr	r3, [r0, #8]
  59              		.loc 1 96 0
  60 0004 30B5     		push	{r4, r5, lr}
  61              		.cfi_def_cfa_offset 12
  62              		.cfi_offset 4, -12
  63              		.cfi_offset 5, -8
  64              		.cfi_offset 14, -4
  65              		.loc 1 101 0
  66 0006 151C     		mov	r5, r2
  67 0008 0468     		ldr	r4, [r0]
  68 000a 8D43     		bic	r5, r1
  69 000c 181C     		mov	r0, r3
  70              	.LVL3:
  71 000e 1140     		and	r1, r2
  72              	.LVL4:
  73 0010 1030     		add	r0, r0, #16
  74 0012 9940     		lsl	r1, r1, r3
  75 0014 8540     		lsl	r5, r5, r0
  76 0016 0B1C     		mov	r3, r1
  77 0018 2B43     		orr	r3, r5
  78 001a A361     		str	r3, [r4, #24]
  79              		.loc 1 102 0
  80              		@ sp needed
  81 001c 30BD     		pop	{r4, r5, pc}
  82              		.cfi_endproc
  83              	.LFE41:
  84              		.size	palWriteBus, .-palWriteBus
  85 001e C046     		.section	.text.palSetBusMode,"ax",%progbits
  86              		.align	2
  87              		.p2align 4,,15
  88              		.global	palSetBusMode
  89              		.code	16
  90              		.thumb_func
  91              		.type	palSetBusMode, %function
  92              	palSetBusMode:
  93              	.LFB42:
  94              		.loc 1 120 0
  95              		.cfi_startproc
  96              	.LVL5:
  97 0000 08B5     		push	{r3, lr}
  98              		.cfi_def_cfa_offset 8
  99              		.cfi_offset 3, -8
 100              		.cfi_offset 14, -4
 101              		.loc 1 120 0
 102 0002 031C     		mov	r3, r0
 103 0004 0A1C     		mov	r2, r1
 104              		.loc 1 125 0
 105 0006 5968     		ldr	r1, [r3, #4]
 106              	.LVL6:
 107 0008 9B68     		ldr	r3, [r3, #8]
 108 000a 0068     		ldr	r0, [r0]
 109              	.LVL7:
 110 000c 9940     		lsl	r1, r1, r3
 111 000e FFF7FEFF 		bl	_pal_lld_setgroupmode
 112              	.LVL8:
 113              		.loc 1 126 0
 114              		@ sp needed
ARM GAS  /var/folders/qh/xwg3v3kj02qbxczjpdb8lzfr0000gn/T//cc0OtAQ0.s 			page 3


 115 0012 08BD     		pop	{r3, pc}
 116              		.cfi_endproc
 117              	.LFE42:
 118              		.size	palSetBusMode, .-palSetBusMode
 119 0014 C046C046 		.text
 119      C046C046 
 119      C046C046 
 120              	.Letext0:
 121              		.file 2 "/usr/local/Cellar/gcc-arm-none-eabi-48/20131218/arm-none-eabi/include/stdint.h"
 122              		.file 3 "../../os/hal/platforms/STM32/GPIOv2/pal_lld.h"
 123              		.file 4 "../../os/hal/include/pal.h"
 124              		.section	.debug_info,"",%progbits
 125              	.Ldebug_info0:
 126 0000 8F020000 		.4byte	0x28f
 127 0004 0400     		.2byte	0x4
 128 0006 00000000 		.4byte	.Ldebug_abbrev0
 129 000a 04       		.byte	0x4
 130 000b 01       		.uleb128 0x1
 131 000c 43000000 		.4byte	.LASF36
 132 0010 01       		.byte	0x1
 133 0011 89010000 		.4byte	.LASF37
 134 0015 08000000 		.4byte	.LASF38
 135 0019 00000000 		.4byte	.Ldebug_ranges0+0
 136 001d 00000000 		.4byte	0
 137 0021 00000000 		.4byte	.Ldebug_line0
 138 0025 02       		.uleb128 0x2
 139 0026 04       		.byte	0x4
 140 0027 05       		.byte	0x5
 141 0028 696E7400 		.ascii	"int\000"
 142 002c 03       		.uleb128 0x3
 143 002d 04       		.byte	0x4
 144 002e 07       		.byte	0x7
 145 002f F8010000 		.4byte	.LASF0
 146 0033 03       		.uleb128 0x3
 147 0034 01       		.byte	0x1
 148 0035 06       		.byte	0x6
 149 0036 8C020000 		.4byte	.LASF1
 150 003a 03       		.uleb128 0x3
 151 003b 01       		.byte	0x1
 152 003c 08       		.byte	0x8
 153 003d CA010000 		.4byte	.LASF2
 154 0041 03       		.uleb128 0x3
 155 0042 02       		.byte	0x2
 156 0043 05       		.byte	0x5
 157 0044 D8010000 		.4byte	.LASF3
 158 0048 04       		.uleb128 0x4
 159 0049 71020000 		.4byte	.LASF6
 160 004d 02       		.byte	0x2
 161 004e 36       		.byte	0x36
 162 004f 53000000 		.4byte	0x53
 163 0053 03       		.uleb128 0x3
 164 0054 02       		.byte	0x2
 165 0055 07       		.byte	0x7
 166 0056 B2010000 		.4byte	.LASF4
 167 005a 03       		.uleb128 0x3
 168 005b 04       		.byte	0x4
 169 005c 05       		.byte	0x5
ARM GAS  /var/folders/qh/xwg3v3kj02qbxczjpdb8lzfr0000gn/T//cc0OtAQ0.s 			page 4


 170 005d 83020000 		.4byte	.LASF5
 171 0061 04       		.uleb128 0x4
 172 0062 7A020000 		.4byte	.LASF7
 173 0066 02       		.byte	0x2
 174 0067 50       		.byte	0x50
 175 0068 6C000000 		.4byte	0x6c
 176 006c 03       		.uleb128 0x3
 177 006d 04       		.byte	0x4
 178 006e 07       		.byte	0x7
 179 006f A0010000 		.4byte	.LASF8
 180 0073 03       		.uleb128 0x3
 181 0074 08       		.byte	0x8
 182 0075 05       		.byte	0x5
 183 0076 3D020000 		.4byte	.LASF9
 184 007a 03       		.uleb128 0x3
 185 007b 08       		.byte	0x8
 186 007c 07       		.byte	0x7
 187 007d 12020000 		.4byte	.LASF10
 188 0081 04       		.uleb128 0x4
 189 0082 29010000 		.4byte	.LASF11
 190 0086 02       		.byte	0x2
 191 0087 A0       		.byte	0xa0
 192 0088 2C000000 		.4byte	0x2c
 193 008c 03       		.uleb128 0x3
 194 008d 01       		.byte	0x1
 195 008e 02       		.byte	0x2
 196 008f 98020000 		.4byte	.LASF12
 197 0093 05       		.uleb128 0x5
 198 0094 61000000 		.4byte	0x61
 199 0098 03       		.uleb128 0x3
 200 0099 04       		.byte	0x4
 201 009a 07       		.byte	0x7
 202 009b 2E020000 		.4byte	.LASF13
 203 009f 03       		.uleb128 0x3
 204 00a0 01       		.byte	0x1
 205 00a1 08       		.byte	0x8
 206 00a2 4B020000 		.4byte	.LASF14
 207 00a6 06       		.uleb128 0x6
 208 00a7 04       		.byte	0x4
 209 00a8 03       		.byte	0x3
 210 00a9 96       		.byte	0x96
 211 00aa C7000000 		.4byte	0xc7
 212 00ae 07       		.uleb128 0x7
 213 00af 73657400 		.ascii	"set\000"
 214 00b3 03       		.byte	0x3
 215 00b4 97       		.byte	0x97
 216 00b5 48000000 		.4byte	0x48
 217 00b9 00       		.byte	0
 218 00ba 08       		.uleb128 0x8
 219 00bb 1D010000 		.4byte	.LASF15
 220 00bf 03       		.byte	0x3
 221 00c0 98       		.byte	0x98
 222 00c1 48000000 		.4byte	0x48
 223 00c5 02       		.byte	0x2
 224 00c6 00       		.byte	0
 225 00c7 09       		.uleb128 0x9
 226 00c8 04       		.byte	0x4
ARM GAS  /var/folders/qh/xwg3v3kj02qbxczjpdb8lzfr0000gn/T//cc0OtAQ0.s 			page 5


 227 00c9 03       		.byte	0x3
 228 00ca 94       		.byte	0x94
 229 00cb E2000000 		.4byte	0xe2
 230 00cf 0A       		.uleb128 0xa
 231 00d0 5700     		.ascii	"W\000"
 232 00d2 03       		.byte	0x3
 233 00d3 95       		.byte	0x95
 234 00d4 61000000 		.4byte	0x61
 235 00d8 0A       		.uleb128 0xa
 236 00d9 4800     		.ascii	"H\000"
 237 00db 03       		.byte	0x3
 238 00dc 99       		.byte	0x99
 239 00dd A6000000 		.4byte	0xa6
 240 00e1 00       		.byte	0
 241 00e2 06       		.uleb128 0x6
 242 00e3 28       		.byte	0x28
 243 00e4 03       		.byte	0x3
 244 00e5 8C       		.byte	0x8c
 245 00e6 63010000 		.4byte	0x163
 246 00ea 08       		.uleb128 0x8
 247 00eb 23010000 		.4byte	.LASF16
 248 00ef 03       		.byte	0x3
 249 00f0 8E       		.byte	0x8e
 250 00f1 93000000 		.4byte	0x93
 251 00f5 00       		.byte	0
 252 00f6 08       		.uleb128 0x8
 253 00f7 6E010000 		.4byte	.LASF17
 254 00fb 03       		.byte	0x3
 255 00fc 8F       		.byte	0x8f
 256 00fd 93000000 		.4byte	0x93
 257 0101 04       		.byte	0x4
 258 0102 08       		.uleb128 0x8
 259 0103 00000000 		.4byte	.LASF18
 260 0107 03       		.byte	0x3
 261 0108 90       		.byte	0x90
 262 0109 93000000 		.4byte	0x93
 263 010d 08       		.byte	0x8
 264 010e 08       		.uleb128 0x8
 265 010f 37020000 		.4byte	.LASF19
 266 0113 03       		.byte	0x3
 267 0114 91       		.byte	0x91
 268 0115 93000000 		.4byte	0x93
 269 0119 0C       		.byte	0xc
 270 011a 07       		.uleb128 0x7
 271 011b 49445200 		.ascii	"IDR\000"
 272 011f 03       		.byte	0x3
 273 0120 92       		.byte	0x92
 274 0121 93000000 		.4byte	0x93
 275 0125 10       		.byte	0x10
 276 0126 07       		.uleb128 0x7
 277 0127 4F445200 		.ascii	"ODR\000"
 278 012b 03       		.byte	0x3
 279 012c 93       		.byte	0x93
 280 012d 93000000 		.4byte	0x93
 281 0131 14       		.byte	0x14
 282 0132 08       		.uleb128 0x8
 283 0133 3B010000 		.4byte	.LASF20
ARM GAS  /var/folders/qh/xwg3v3kj02qbxczjpdb8lzfr0000gn/T//cc0OtAQ0.s 			page 6


 284 0137 03       		.byte	0x3
 285 0138 9A       		.byte	0x9a
 286 0139 63010000 		.4byte	0x163
 287 013d 18       		.byte	0x18
 288 013e 08       		.uleb128 0x8
 289 013f 61020000 		.4byte	.LASF21
 290 0143 03       		.byte	0x3
 291 0144 9B       		.byte	0x9b
 292 0145 93000000 		.4byte	0x93
 293 0149 1C       		.byte	0x1c
 294 014a 08       		.uleb128 0x8
 295 014b C5010000 		.4byte	.LASF22
 296 014f 03       		.byte	0x3
 297 0150 9C       		.byte	0x9c
 298 0151 93000000 		.4byte	0x93
 299 0155 20       		.byte	0x20
 300 0156 08       		.uleb128 0x8
 301 0157 5C020000 		.4byte	.LASF23
 302 015b 03       		.byte	0x3
 303 015c 9D       		.byte	0x9d
 304 015d 93000000 		.4byte	0x93
 305 0161 24       		.byte	0x24
 306 0162 00       		.byte	0
 307 0163 05       		.uleb128 0x5
 308 0164 C7000000 		.4byte	0xc7
 309 0168 04       		.uleb128 0x4
 310 0169 05020000 		.4byte	.LASF24
 311 016d 03       		.byte	0x3
 312 016e 9E       		.byte	0x9e
 313 016f E2000000 		.4byte	0xe2
 314 0173 04       		.uleb128 0x4
 315 0174 61010000 		.4byte	.LASF25
 316 0178 03       		.byte	0x3
 317 0179 F0       		.byte	0xf0
 318 017a 61000000 		.4byte	0x61
 319 017e 04       		.uleb128 0x4
 320 017f 75010000 		.4byte	.LASF26
 321 0183 03       		.byte	0x3
 322 0184 F5       		.byte	0xf5
 323 0185 61000000 		.4byte	0x61
 324 0189 04       		.uleb128 0x4
 325 018a 66020000 		.4byte	.LASF27
 326 018e 03       		.byte	0x3
 327 018f FD       		.byte	0xfd
 328 0190 94010000 		.4byte	0x194
 329 0194 0B       		.uleb128 0xb
 330 0195 04       		.byte	0x4
 331 0196 68010000 		.4byte	0x168
 332 019a 06       		.uleb128 0x6
 333 019b 0C       		.byte	0xc
 334 019c 04       		.byte	0x4
 335 019d 7E       		.byte	0x7e
 336 019e C7010000 		.4byte	0x1c7
 337 01a2 08       		.uleb128 0x8
 338 01a3 5A010000 		.4byte	.LASF28
 339 01a7 04       		.byte	0x4
 340 01a8 82       		.byte	0x82
ARM GAS  /var/folders/qh/xwg3v3kj02qbxczjpdb8lzfr0000gn/T//cc0OtAQ0.s 			page 7


 341 01a9 89010000 		.4byte	0x189
 342 01ad 00       		.byte	0
 343 01ae 08       		.uleb128 0x8
 344 01af 36010000 		.4byte	.LASF29
 345 01b3 04       		.byte	0x4
 346 01b4 88       		.byte	0x88
 347 01b5 73010000 		.4byte	0x173
 348 01b9 04       		.byte	0x4
 349 01ba 08       		.uleb128 0x8
 350 01bb 55020000 		.4byte	.LASF30
 351 01bf 04       		.byte	0x4
 352 01c0 8C       		.byte	0x8c
 353 01c1 81000000 		.4byte	0x81
 354 01c5 08       		.byte	0x8
 355 01c6 00       		.byte	0
 356 01c7 04       		.uleb128 0x4
 357 01c8 9E020000 		.4byte	.LASF31
 358 01cc 04       		.byte	0x4
 359 01cd 8D       		.byte	0x8d
 360 01ce 9A010000 		.4byte	0x19a
 361 01d2 0C       		.uleb128 0xc
 362 01d3 7E010000 		.4byte	.LASF39
 363 01d7 01       		.byte	0x1
 364 01d8 46       		.byte	0x46
 365 01d9 73010000 		.4byte	0x173
 366 01dd 00000000 		.4byte	.LFB40
 367 01e1 0E000000 		.4byte	.LFE40-.LFB40
 368 01e5 01       		.uleb128 0x1
 369 01e6 9C       		.byte	0x9c
 370 01e7 FB010000 		.4byte	0x1fb
 371 01eb 0D       		.uleb128 0xd
 372 01ec 62757300 		.ascii	"bus\000"
 373 01f0 01       		.byte	0x1
 374 01f1 46       		.byte	0x46
 375 01f2 FB010000 		.4byte	0x1fb
 376 01f6 00000000 		.4byte	.LLST0
 377 01fa 00       		.byte	0
 378 01fb 0B       		.uleb128 0xb
 379 01fc 04       		.byte	0x4
 380 01fd C7010000 		.4byte	0x1c7
 381 0201 0E       		.uleb128 0xe
 382 0202 40010000 		.4byte	.LASF33
 383 0206 01       		.byte	0x1
 384 0207 60       		.byte	0x60
 385 0208 00000000 		.4byte	.LFB41
 386 020c 1E000000 		.4byte	.LFE41-.LFB41
 387 0210 01       		.uleb128 0x1
 388 0211 9C       		.byte	0x9c
 389 0212 35020000 		.4byte	0x235
 390 0216 0D       		.uleb128 0xd
 391 0217 62757300 		.ascii	"bus\000"
 392 021b 01       		.byte	0x1
 393 021c 60       		.byte	0x60
 394 021d FB010000 		.4byte	0x1fb
 395 0221 21000000 		.4byte	.LLST1
 396 0225 0F       		.uleb128 0xf
 397 0226 50020000 		.4byte	.LASF32
ARM GAS  /var/folders/qh/xwg3v3kj02qbxczjpdb8lzfr0000gn/T//cc0OtAQ0.s 			page 8


 398 022a 01       		.byte	0x1
 399 022b 60       		.byte	0x60
 400 022c 73010000 		.4byte	0x173
 401 0230 42000000 		.4byte	.LLST2
 402 0234 00       		.byte	0
 403 0235 0E       		.uleb128 0xe
 404 0236 4C010000 		.4byte	.LASF34
 405 023a 01       		.byte	0x1
 406 023b 78       		.byte	0x78
 407 023c 00000000 		.4byte	.LFB42
 408 0240 14000000 		.4byte	.LFE42-.LFB42
 409 0244 01       		.uleb128 0x1
 410 0245 9C       		.byte	0x9c
 411 0246 7A020000 		.4byte	0x27a
 412 024a 0D       		.uleb128 0xd
 413 024b 62757300 		.ascii	"bus\000"
 414 024f 01       		.byte	0x1
 415 0250 78       		.byte	0x78
 416 0251 FB010000 		.4byte	0x1fb
 417 0255 63000000 		.4byte	.LLST3
 418 0259 0F       		.uleb128 0xf
 419 025a 29020000 		.4byte	.LASF35
 420 025e 01       		.byte	0x1
 421 025f 78       		.byte	0x78
 422 0260 7E010000 		.4byte	0x17e
 423 0264 84000000 		.4byte	.LLST4
 424 0268 10       		.uleb128 0x10
 425 0269 12000000 		.4byte	.LVL8
 426 026d 7A020000 		.4byte	0x27a
 427 0271 11       		.uleb128 0x11
 428 0272 01       		.uleb128 0x1
 429 0273 52       		.byte	0x52
 430 0274 03       		.uleb128 0x3
 431 0275 F3       		.byte	0xf3
 432 0276 01       		.uleb128 0x1
 433 0277 51       		.byte	0x51
 434 0278 00       		.byte	0
 435 0279 00       		.byte	0
 436 027a 12       		.uleb128 0x12
 437 027b E2010000 		.4byte	.LASF40
 438 027f 03       		.byte	0x3
 439 0280 C201     		.2byte	0x1c2
 440 0282 13       		.uleb128 0x13
 441 0283 89010000 		.4byte	0x189
 442 0287 13       		.uleb128 0x13
 443 0288 73010000 		.4byte	0x173
 444 028c 13       		.uleb128 0x13
 445 028d 7E010000 		.4byte	0x17e
 446 0291 00       		.byte	0
 447 0292 00       		.byte	0
 448              		.section	.debug_abbrev,"",%progbits
 449              	.Ldebug_abbrev0:
 450 0000 01       		.uleb128 0x1
 451 0001 11       		.uleb128 0x11
 452 0002 01       		.byte	0x1
 453 0003 25       		.uleb128 0x25
 454 0004 0E       		.uleb128 0xe
ARM GAS  /var/folders/qh/xwg3v3kj02qbxczjpdb8lzfr0000gn/T//cc0OtAQ0.s 			page 9


 455 0005 13       		.uleb128 0x13
 456 0006 0B       		.uleb128 0xb
 457 0007 03       		.uleb128 0x3
 458 0008 0E       		.uleb128 0xe
 459 0009 1B       		.uleb128 0x1b
 460 000a 0E       		.uleb128 0xe
 461 000b 55       		.uleb128 0x55
 462 000c 17       		.uleb128 0x17
 463 000d 11       		.uleb128 0x11
 464 000e 01       		.uleb128 0x1
 465 000f 10       		.uleb128 0x10
 466 0010 17       		.uleb128 0x17
 467 0011 00       		.byte	0
 468 0012 00       		.byte	0
 469 0013 02       		.uleb128 0x2
 470 0014 24       		.uleb128 0x24
 471 0015 00       		.byte	0
 472 0016 0B       		.uleb128 0xb
 473 0017 0B       		.uleb128 0xb
 474 0018 3E       		.uleb128 0x3e
 475 0019 0B       		.uleb128 0xb
 476 001a 03       		.uleb128 0x3
 477 001b 08       		.uleb128 0x8
 478 001c 00       		.byte	0
 479 001d 00       		.byte	0
 480 001e 03       		.uleb128 0x3
 481 001f 24       		.uleb128 0x24
 482 0020 00       		.byte	0
 483 0021 0B       		.uleb128 0xb
 484 0022 0B       		.uleb128 0xb
 485 0023 3E       		.uleb128 0x3e
 486 0024 0B       		.uleb128 0xb
 487 0025 03       		.uleb128 0x3
 488 0026 0E       		.uleb128 0xe
 489 0027 00       		.byte	0
 490 0028 00       		.byte	0
 491 0029 04       		.uleb128 0x4
 492 002a 16       		.uleb128 0x16
 493 002b 00       		.byte	0
 494 002c 03       		.uleb128 0x3
 495 002d 0E       		.uleb128 0xe
 496 002e 3A       		.uleb128 0x3a
 497 002f 0B       		.uleb128 0xb
 498 0030 3B       		.uleb128 0x3b
 499 0031 0B       		.uleb128 0xb
 500 0032 49       		.uleb128 0x49
 501 0033 13       		.uleb128 0x13
 502 0034 00       		.byte	0
 503 0035 00       		.byte	0
 504 0036 05       		.uleb128 0x5
 505 0037 35       		.uleb128 0x35
 506 0038 00       		.byte	0
 507 0039 49       		.uleb128 0x49
 508 003a 13       		.uleb128 0x13
 509 003b 00       		.byte	0
 510 003c 00       		.byte	0
 511 003d 06       		.uleb128 0x6
ARM GAS  /var/folders/qh/xwg3v3kj02qbxczjpdb8lzfr0000gn/T//cc0OtAQ0.s 			page 10


 512 003e 13       		.uleb128 0x13
 513 003f 01       		.byte	0x1
 514 0040 0B       		.uleb128 0xb
 515 0041 0B       		.uleb128 0xb
 516 0042 3A       		.uleb128 0x3a
 517 0043 0B       		.uleb128 0xb
 518 0044 3B       		.uleb128 0x3b
 519 0045 0B       		.uleb128 0xb
 520 0046 01       		.uleb128 0x1
 521 0047 13       		.uleb128 0x13
 522 0048 00       		.byte	0
 523 0049 00       		.byte	0
 524 004a 07       		.uleb128 0x7
 525 004b 0D       		.uleb128 0xd
 526 004c 00       		.byte	0
 527 004d 03       		.uleb128 0x3
 528 004e 08       		.uleb128 0x8
 529 004f 3A       		.uleb128 0x3a
 530 0050 0B       		.uleb128 0xb
 531 0051 3B       		.uleb128 0x3b
 532 0052 0B       		.uleb128 0xb
 533 0053 49       		.uleb128 0x49
 534 0054 13       		.uleb128 0x13
 535 0055 38       		.uleb128 0x38
 536 0056 0B       		.uleb128 0xb
 537 0057 00       		.byte	0
 538 0058 00       		.byte	0
 539 0059 08       		.uleb128 0x8
 540 005a 0D       		.uleb128 0xd
 541 005b 00       		.byte	0
 542 005c 03       		.uleb128 0x3
 543 005d 0E       		.uleb128 0xe
 544 005e 3A       		.uleb128 0x3a
 545 005f 0B       		.uleb128 0xb
 546 0060 3B       		.uleb128 0x3b
 547 0061 0B       		.uleb128 0xb
 548 0062 49       		.uleb128 0x49
 549 0063 13       		.uleb128 0x13
 550 0064 38       		.uleb128 0x38
 551 0065 0B       		.uleb128 0xb
 552 0066 00       		.byte	0
 553 0067 00       		.byte	0
 554 0068 09       		.uleb128 0x9
 555 0069 17       		.uleb128 0x17
 556 006a 01       		.byte	0x1
 557 006b 0B       		.uleb128 0xb
 558 006c 0B       		.uleb128 0xb
 559 006d 3A       		.uleb128 0x3a
 560 006e 0B       		.uleb128 0xb
 561 006f 3B       		.uleb128 0x3b
 562 0070 0B       		.uleb128 0xb
 563 0071 01       		.uleb128 0x1
 564 0072 13       		.uleb128 0x13
 565 0073 00       		.byte	0
 566 0074 00       		.byte	0
 567 0075 0A       		.uleb128 0xa
 568 0076 0D       		.uleb128 0xd
ARM GAS  /var/folders/qh/xwg3v3kj02qbxczjpdb8lzfr0000gn/T//cc0OtAQ0.s 			page 11


 569 0077 00       		.byte	0
 570 0078 03       		.uleb128 0x3
 571 0079 08       		.uleb128 0x8
 572 007a 3A       		.uleb128 0x3a
 573 007b 0B       		.uleb128 0xb
 574 007c 3B       		.uleb128 0x3b
 575 007d 0B       		.uleb128 0xb
 576 007e 49       		.uleb128 0x49
 577 007f 13       		.uleb128 0x13
 578 0080 00       		.byte	0
 579 0081 00       		.byte	0
 580 0082 0B       		.uleb128 0xb
 581 0083 0F       		.uleb128 0xf
 582 0084 00       		.byte	0
 583 0085 0B       		.uleb128 0xb
 584 0086 0B       		.uleb128 0xb
 585 0087 49       		.uleb128 0x49
 586 0088 13       		.uleb128 0x13
 587 0089 00       		.byte	0
 588 008a 00       		.byte	0
 589 008b 0C       		.uleb128 0xc
 590 008c 2E       		.uleb128 0x2e
 591 008d 01       		.byte	0x1
 592 008e 3F       		.uleb128 0x3f
 593 008f 19       		.uleb128 0x19
 594 0090 03       		.uleb128 0x3
 595 0091 0E       		.uleb128 0xe
 596 0092 3A       		.uleb128 0x3a
 597 0093 0B       		.uleb128 0xb
 598 0094 3B       		.uleb128 0x3b
 599 0095 0B       		.uleb128 0xb
 600 0096 27       		.uleb128 0x27
 601 0097 19       		.uleb128 0x19
 602 0098 49       		.uleb128 0x49
 603 0099 13       		.uleb128 0x13
 604 009a 11       		.uleb128 0x11
 605 009b 01       		.uleb128 0x1
 606 009c 12       		.uleb128 0x12
 607 009d 06       		.uleb128 0x6
 608 009e 40       		.uleb128 0x40
 609 009f 18       		.uleb128 0x18
 610 00a0 9742     		.uleb128 0x2117
 611 00a2 19       		.uleb128 0x19
 612 00a3 01       		.uleb128 0x1
 613 00a4 13       		.uleb128 0x13
 614 00a5 00       		.byte	0
 615 00a6 00       		.byte	0
 616 00a7 0D       		.uleb128 0xd
 617 00a8 05       		.uleb128 0x5
 618 00a9 00       		.byte	0
 619 00aa 03       		.uleb128 0x3
 620 00ab 08       		.uleb128 0x8
 621 00ac 3A       		.uleb128 0x3a
 622 00ad 0B       		.uleb128 0xb
 623 00ae 3B       		.uleb128 0x3b
 624 00af 0B       		.uleb128 0xb
 625 00b0 49       		.uleb128 0x49
ARM GAS  /var/folders/qh/xwg3v3kj02qbxczjpdb8lzfr0000gn/T//cc0OtAQ0.s 			page 12


 626 00b1 13       		.uleb128 0x13
 627 00b2 02       		.uleb128 0x2
 628 00b3 17       		.uleb128 0x17
 629 00b4 00       		.byte	0
 630 00b5 00       		.byte	0
 631 00b6 0E       		.uleb128 0xe
 632 00b7 2E       		.uleb128 0x2e
 633 00b8 01       		.byte	0x1
 634 00b9 3F       		.uleb128 0x3f
 635 00ba 19       		.uleb128 0x19
 636 00bb 03       		.uleb128 0x3
 637 00bc 0E       		.uleb128 0xe
 638 00bd 3A       		.uleb128 0x3a
 639 00be 0B       		.uleb128 0xb
 640 00bf 3B       		.uleb128 0x3b
 641 00c0 0B       		.uleb128 0xb
 642 00c1 27       		.uleb128 0x27
 643 00c2 19       		.uleb128 0x19
 644 00c3 11       		.uleb128 0x11
 645 00c4 01       		.uleb128 0x1
 646 00c5 12       		.uleb128 0x12
 647 00c6 06       		.uleb128 0x6
 648 00c7 40       		.uleb128 0x40
 649 00c8 18       		.uleb128 0x18
 650 00c9 9742     		.uleb128 0x2117
 651 00cb 19       		.uleb128 0x19
 652 00cc 01       		.uleb128 0x1
 653 00cd 13       		.uleb128 0x13
 654 00ce 00       		.byte	0
 655 00cf 00       		.byte	0
 656 00d0 0F       		.uleb128 0xf
 657 00d1 05       		.uleb128 0x5
 658 00d2 00       		.byte	0
 659 00d3 03       		.uleb128 0x3
 660 00d4 0E       		.uleb128 0xe
 661 00d5 3A       		.uleb128 0x3a
 662 00d6 0B       		.uleb128 0xb
 663 00d7 3B       		.uleb128 0x3b
 664 00d8 0B       		.uleb128 0xb
 665 00d9 49       		.uleb128 0x49
 666 00da 13       		.uleb128 0x13
 667 00db 02       		.uleb128 0x2
 668 00dc 17       		.uleb128 0x17
 669 00dd 00       		.byte	0
 670 00de 00       		.byte	0
 671 00df 10       		.uleb128 0x10
 672 00e0 898201   		.uleb128 0x4109
 673 00e3 01       		.byte	0x1
 674 00e4 11       		.uleb128 0x11
 675 00e5 01       		.uleb128 0x1
 676 00e6 31       		.uleb128 0x31
 677 00e7 13       		.uleb128 0x13
 678 00e8 00       		.byte	0
 679 00e9 00       		.byte	0
 680 00ea 11       		.uleb128 0x11
 681 00eb 8A8201   		.uleb128 0x410a
 682 00ee 00       		.byte	0
ARM GAS  /var/folders/qh/xwg3v3kj02qbxczjpdb8lzfr0000gn/T//cc0OtAQ0.s 			page 13


 683 00ef 02       		.uleb128 0x2
 684 00f0 18       		.uleb128 0x18
 685 00f1 9142     		.uleb128 0x2111
 686 00f3 18       		.uleb128 0x18
 687 00f4 00       		.byte	0
 688 00f5 00       		.byte	0
 689 00f6 12       		.uleb128 0x12
 690 00f7 2E       		.uleb128 0x2e
 691 00f8 01       		.byte	0x1
 692 00f9 3F       		.uleb128 0x3f
 693 00fa 19       		.uleb128 0x19
 694 00fb 03       		.uleb128 0x3
 695 00fc 0E       		.uleb128 0xe
 696 00fd 3A       		.uleb128 0x3a
 697 00fe 0B       		.uleb128 0xb
 698 00ff 3B       		.uleb128 0x3b
 699 0100 05       		.uleb128 0x5
 700 0101 27       		.uleb128 0x27
 701 0102 19       		.uleb128 0x19
 702 0103 3C       		.uleb128 0x3c
 703 0104 19       		.uleb128 0x19
 704 0105 00       		.byte	0
 705 0106 00       		.byte	0
 706 0107 13       		.uleb128 0x13
 707 0108 05       		.uleb128 0x5
 708 0109 00       		.byte	0
 709 010a 49       		.uleb128 0x49
 710 010b 13       		.uleb128 0x13
 711 010c 00       		.byte	0
 712 010d 00       		.byte	0
 713 010e 00       		.byte	0
 714              		.section	.debug_loc,"",%progbits
 715              	.Ldebug_loc0:
 716              	.LLST0:
 717 0000 00000000 		.4byte	.LVL0
 718 0004 08000000 		.4byte	.LVL1
 719 0008 0100     		.2byte	0x1
 720 000a 50       		.byte	0x50
 721 000b 08000000 		.4byte	.LVL1
 722 000f 0E000000 		.4byte	.LFE40
 723 0013 0400     		.2byte	0x4
 724 0015 F3       		.byte	0xf3
 725 0016 01       		.uleb128 0x1
 726 0017 50       		.byte	0x50
 727 0018 9F       		.byte	0x9f
 728 0019 00000000 		.4byte	0
 729 001d 00000000 		.4byte	0
 730              	.LLST1:
 731 0021 00000000 		.4byte	.LVL2
 732 0025 0E000000 		.4byte	.LVL3
 733 0029 0100     		.2byte	0x1
 734 002b 50       		.byte	0x50
 735 002c 0E000000 		.4byte	.LVL3
 736 0030 1E000000 		.4byte	.LFE41
 737 0034 0400     		.2byte	0x4
 738 0036 F3       		.byte	0xf3
 739 0037 01       		.uleb128 0x1
ARM GAS  /var/folders/qh/xwg3v3kj02qbxczjpdb8lzfr0000gn/T//cc0OtAQ0.s 			page 14


 740 0038 50       		.byte	0x50
 741 0039 9F       		.byte	0x9f
 742 003a 00000000 		.4byte	0
 743 003e 00000000 		.4byte	0
 744              	.LLST2:
 745 0042 00000000 		.4byte	.LVL2
 746 0046 10000000 		.4byte	.LVL4
 747 004a 0100     		.2byte	0x1
 748 004c 51       		.byte	0x51
 749 004d 10000000 		.4byte	.LVL4
 750 0051 1E000000 		.4byte	.LFE41
 751 0055 0400     		.2byte	0x4
 752 0057 F3       		.byte	0xf3
 753 0058 01       		.uleb128 0x1
 754 0059 51       		.byte	0x51
 755 005a 9F       		.byte	0x9f
 756 005b 00000000 		.4byte	0
 757 005f 00000000 		.4byte	0
 758              	.LLST3:
 759 0063 00000000 		.4byte	.LVL5
 760 0067 0C000000 		.4byte	.LVL7
 761 006b 0100     		.2byte	0x1
 762 006d 50       		.byte	0x50
 763 006e 0C000000 		.4byte	.LVL7
 764 0072 14000000 		.4byte	.LFE42
 765 0076 0400     		.2byte	0x4
 766 0078 F3       		.byte	0xf3
 767 0079 01       		.uleb128 0x1
 768 007a 50       		.byte	0x50
 769 007b 9F       		.byte	0x9f
 770 007c 00000000 		.4byte	0
 771 0080 00000000 		.4byte	0
 772              	.LLST4:
 773 0084 00000000 		.4byte	.LVL5
 774 0088 08000000 		.4byte	.LVL6
 775 008c 0100     		.2byte	0x1
 776 008e 51       		.byte	0x51
 777 008f 08000000 		.4byte	.LVL6
 778 0093 11000000 		.4byte	.LVL8-1
 779 0097 0100     		.2byte	0x1
 780 0099 52       		.byte	0x52
 781 009a 11000000 		.4byte	.LVL8-1
 782 009e 14000000 		.4byte	.LFE42
 783 00a2 0400     		.2byte	0x4
 784 00a4 F3       		.byte	0xf3
 785 00a5 01       		.uleb128 0x1
 786 00a6 51       		.byte	0x51
 787 00a7 9F       		.byte	0x9f
 788 00a8 00000000 		.4byte	0
 789 00ac 00000000 		.4byte	0
 790              		.section	.debug_aranges,"",%progbits
 791 0000 2C000000 		.4byte	0x2c
 792 0004 0200     		.2byte	0x2
 793 0006 00000000 		.4byte	.Ldebug_info0
 794 000a 04       		.byte	0x4
 795 000b 00       		.byte	0
 796 000c 0000     		.2byte	0
ARM GAS  /var/folders/qh/xwg3v3kj02qbxczjpdb8lzfr0000gn/T//cc0OtAQ0.s 			page 15


 797 000e 0000     		.2byte	0
 798 0010 00000000 		.4byte	.LFB40
 799 0014 0E000000 		.4byte	.LFE40-.LFB40
 800 0018 00000000 		.4byte	.LFB41
 801 001c 1E000000 		.4byte	.LFE41-.LFB41
 802 0020 00000000 		.4byte	.LFB42
 803 0024 14000000 		.4byte	.LFE42-.LFB42
 804 0028 00000000 		.4byte	0
 805 002c 00000000 		.4byte	0
 806              		.section	.debug_ranges,"",%progbits
 807              	.Ldebug_ranges0:
 808 0000 00000000 		.4byte	.LFB40
 809 0004 0E000000 		.4byte	.LFE40
 810 0008 00000000 		.4byte	.LFB41
 811 000c 1E000000 		.4byte	.LFE41
 812 0010 00000000 		.4byte	.LFB42
 813 0014 14000000 		.4byte	.LFE42
 814 0018 00000000 		.4byte	0
 815 001c 00000000 		.4byte	0
 816              		.section	.debug_line,"",%progbits
 817              	.Ldebug_line0:
 818 0000 0D010000 		.section	.debug_str,"MS",%progbits,1
 818      0200CE00 
 818      00000201 
 818      FB0E0D00 
 818      01010101 
 819              	.LASF18:
 820 0000 4F535045 		.ascii	"OSPEEDR\000"
 820      45445200 
 821              	.LASF38:
 822 0008 2F557365 		.ascii	"/Users/John/Development/embedded/ChibiOS-RT/BluC/ST"
 822      72732F4A 
 822      6F686E2F 
 822      44657665 
 822      6C6F706D 
 823 003b 4D333246 		.ascii	"M32F051\000"
 823      30353100 
 824              	.LASF36:
 825 0043 474E5520 		.ascii	"GNU C 4.8.3 20131129 (release) [ARM/embedded-4_8-br"
 825      4320342E 
 825      382E3320 
 825      32303133 
 825      31313239 
 826 0076 616E6368 		.ascii	"anch revision 205641] -mcpu=cortex-m0 -mno-thumb-in"
 826      20726576 
 826      6973696F 
 826      6E203230 
 826      35363431 
 827 00a9 74657277 		.ascii	"terwork -mthumb -ggdb -O2 -fomit-frame-pointer -fal"
 827      6F726B20 
 827      2D6D7468 
 827      756D6220 
 827      2D676764 
 828 00dc 69676E2D 		.ascii	"ign-functions=16 -ffunction-sections -fdata-section"
 828      66756E63 
 828      74696F6E 
 828      733D3136 
ARM GAS  /var/folders/qh/xwg3v3kj02qbxczjpdb8lzfr0000gn/T//cc0OtAQ0.s 			page 16


 828      202D6666 
 829 010f 73202D66 		.ascii	"s -fno-common\000"
 829      6E6F2D63 
 829      6F6D6D6F 
 829      6E00
 830              	.LASF15:
 831 011d 636C6561 		.ascii	"clear\000"
 831      7200
 832              	.LASF16:
 833 0123 4D4F4445 		.ascii	"MODER\000"
 833      5200
 834              	.LASF11:
 835 0129 75696E74 		.ascii	"uint_fast8_t\000"
 835      5F666173 
 835      74385F74 
 835      00
 836              	.LASF29:
 837 0136 6D61736B 		.ascii	"mask\000"
 837      00
 838              	.LASF20:
 839 013b 42535252 		.ascii	"BSRR\000"
 839      00
 840              	.LASF33:
 841 0140 70616C57 		.ascii	"palWriteBus\000"
 841      72697465 
 841      42757300 
 842              	.LASF34:
 843 014c 70616C53 		.ascii	"palSetBusMode\000"
 843      65744275 
 843      734D6F64 
 843      6500
 844              	.LASF28:
 845 015a 706F7274 		.ascii	"portid\000"
 845      696400
 846              	.LASF25:
 847 0161 696F706F 		.ascii	"ioportmask_t\000"
 847      72746D61 
 847      736B5F74 
 847      00
 848              	.LASF17:
 849 016e 4F545950 		.ascii	"OTYPER\000"
 849      455200
 850              	.LASF26:
 851 0175 696F6D6F 		.ascii	"iomode_t\000"
 851      64655F74 
 851      00
 852              	.LASF39:
 853 017e 70616C52 		.ascii	"palReadBus\000"
 853      65616442 
 853      757300
 854              	.LASF37:
 855 0189 2E2E2F2E 		.ascii	"../../os/hal/src/pal.c\000"
 855      2E2F6F73 
 855      2F68616C 
 855      2F737263 
 855      2F70616C 
 856              	.LASF8:
ARM GAS  /var/folders/qh/xwg3v3kj02qbxczjpdb8lzfr0000gn/T//cc0OtAQ0.s 			page 17


 857 01a0 6C6F6E67 		.ascii	"long unsigned int\000"
 857      20756E73 
 857      69676E65 
 857      6420696E 
 857      7400
 858              	.LASF4:
 859 01b2 73686F72 		.ascii	"short unsigned int\000"
 859      7420756E 
 859      7369676E 
 859      65642069 
 859      6E7400
 860              	.LASF22:
 861 01c5 4146524C 		.ascii	"AFRL\000"
 861      00
 862              	.LASF2:
 863 01ca 756E7369 		.ascii	"unsigned char\000"
 863      676E6564 
 863      20636861 
 863      7200
 864              	.LASF3:
 865 01d8 73686F72 		.ascii	"short int\000"
 865      7420696E 
 865      7400
 866              	.LASF40:
 867 01e2 5F70616C 		.ascii	"_pal_lld_setgroupmode\000"
 867      5F6C6C64 
 867      5F736574 
 867      67726F75 
 867      706D6F64 
 868              	.LASF0:
 869 01f8 756E7369 		.ascii	"unsigned int\000"
 869      676E6564 
 869      20696E74 
 869      00
 870              	.LASF24:
 871 0205 4750494F 		.ascii	"GPIO_TypeDef\000"
 871      5F547970 
 871      65446566 
 871      00
 872              	.LASF10:
 873 0212 6C6F6E67 		.ascii	"long long unsigned int\000"
 873      206C6F6E 
 873      6720756E 
 873      7369676E 
 873      65642069 
 874              	.LASF35:
 875 0229 6D6F6465 		.ascii	"mode\000"
 875      00
 876              	.LASF13:
 877 022e 73697A65 		.ascii	"sizetype\000"
 877      74797065 
 877      00
 878              	.LASF19:
 879 0237 50555044 		.ascii	"PUPDR\000"
 879      5200
 880              	.LASF9:
 881 023d 6C6F6E67 		.ascii	"long long int\000"
ARM GAS  /var/folders/qh/xwg3v3kj02qbxczjpdb8lzfr0000gn/T//cc0OtAQ0.s 			page 18


 881      206C6F6E 
 881      6720696E 
 881      7400
 882              	.LASF14:
 883 024b 63686172 		.ascii	"char\000"
 883      00
 884              	.LASF32:
 885 0250 62697473 		.ascii	"bits\000"
 885      00
 886              	.LASF30:
 887 0255 6F666673 		.ascii	"offset\000"
 887      657400
 888              	.LASF23:
 889 025c 41465248 		.ascii	"AFRH\000"
 889      00
 890              	.LASF21:
 891 0261 4C434B52 		.ascii	"LCKR\000"
 891      00
 892              	.LASF27:
 893 0266 696F706F 		.ascii	"ioportid_t\000"
 893      72746964 
 893      5F7400
 894              	.LASF6:
 895 0271 75696E74 		.ascii	"uint16_t\000"
 895      31365F74 
 895      00
 896              	.LASF7:
 897 027a 75696E74 		.ascii	"uint32_t\000"
 897      33325F74 
 897      00
 898              	.LASF5:
 899 0283 6C6F6E67 		.ascii	"long int\000"
 899      20696E74 
 899      00
 900              	.LASF1:
 901 028c 7369676E 		.ascii	"signed char\000"
 901      65642063 
 901      68617200 
 902              	.LASF12:
 903 0298 5F426F6F 		.ascii	"_Bool\000"
 903      6C00
 904              	.LASF31:
 905 029e 494F4275 		.ascii	"IOBus\000"
 905      7300
 906              		.ident	"GCC: (GNU Tools for ARM Embedded Processors) 4.8.3 20131129 (release) [ARM/embedded-4_8-br
ARM GAS  /var/folders/qh/xwg3v3kj02qbxczjpdb8lzfr0000gn/T//cc0OtAQ0.s 			page 19


DEFINED SYMBOLS
                            *ABS*:0000000000000000 pal.c
/var/folders/qh/xwg3v3kj02qbxczjpdb8lzfr0000gn/T//cc0OtAQ0.s:18     .text.palReadBus:0000000000000000 $t
/var/folders/qh/xwg3v3kj02qbxczjpdb8lzfr0000gn/T//cc0OtAQ0.s:24     .text.palReadBus:0000000000000000 palReadBus
/var/folders/qh/xwg3v3kj02qbxczjpdb8lzfr0000gn/T//cc0OtAQ0.s:45     .text.palWriteBus:0000000000000000 $t
/var/folders/qh/xwg3v3kj02qbxczjpdb8lzfr0000gn/T//cc0OtAQ0.s:51     .text.palWriteBus:0000000000000000 palWriteBus
/var/folders/qh/xwg3v3kj02qbxczjpdb8lzfr0000gn/T//cc0OtAQ0.s:86     .text.palSetBusMode:0000000000000000 $t
/var/folders/qh/xwg3v3kj02qbxczjpdb8lzfr0000gn/T//cc0OtAQ0.s:92     .text.palSetBusMode:0000000000000000 palSetBusMode
                     .debug_frame:0000000000000010 $d

UNDEFINED SYMBOLS
_pal_lld_setgroupmode
