ARM GAS  /var/folders/qh/xwg3v3kj02qbxczjpdb8lzfr0000gn/T//ccWFpHtK.s 			page 1


   1              		.cpu cortex-m0
   2              		.fpu softvfp
   3              		.eabi_attribute 20, 1
   4              		.eabi_attribute 21, 1
   5              		.eabi_attribute 23, 3
   6              		.eabi_attribute 24, 1
   7              		.eabi_attribute 25, 1
   8              		.eabi_attribute 26, 1
   9              		.eabi_attribute 30, 2
  10              		.eabi_attribute 34, 0
  11              		.eabi_attribute 18, 4
  12              		.code	16
  13              		.file	"pal_lld.c"
  14              		.text
  15              	.Ltext0:
  16              		.cfi_sections	.debug_frame
  17              		.section	.text._pal_lld_init,"ax",%progbits
  18              		.align	2
  19              		.p2align 4,,15
  20              		.global	_pal_lld_init
  21              		.code	16
  22              		.thumb_func
  23              		.type	_pal_lld_init, %function
  24              	_pal_lld_init:
  25              	.LFB41:
  26              		.file 1 "../../os/hal/platforms/STM32/GPIOv2/pal_lld.c"
  27              		.loc 1 113 0
  28              		.cfi_startproc
  29              	.LVL0:
  30              		.loc 1 122 0
  31 0000 2A4B     		ldr	r3, .L2
  32 0002 BC22     		mov	r2, #188
  33 0004 5969     		ldr	r1, [r3, #20]
  34 0006 D203     		lsl	r2, r2, #15
  35 0008 0A43     		orr	r2, r1
  36 000a 5A61     		str	r2, [r3, #20]
  37              	.LVL1:
  38              	.LBB12:
  39              	.LBB13:
  40              		.loc 1 88 0
  41 000c 4268     		ldr	r2, [r0, #4]
  42 000e 9023     		mov	r3, #144
  43 0010 DB05     		lsl	r3, r3, #23
  44 0012 5A60     		str	r2, [r3, #4]
  45              		.loc 1 89 0
  46 0014 8268     		ldr	r2, [r0, #8]
  47              	.LBE13:
  48              	.LBE12:
  49              		.loc 1 160 0
  50              		@ sp needed
  51              	.LBB15:
  52              	.LBB14:
  53              		.loc 1 89 0
  54 0016 9A60     		str	r2, [r3, #8]
  55              		.loc 1 90 0
  56 0018 C268     		ldr	r2, [r0, #12]
  57 001a DA60     		str	r2, [r3, #12]
ARM GAS  /var/folders/qh/xwg3v3kj02qbxczjpdb8lzfr0000gn/T//ccWFpHtK.s 			page 2


  58              		.loc 1 91 0
  59 001c 0269     		ldr	r2, [r0, #16]
  60 001e 5A61     		str	r2, [r3, #20]
  61              		.loc 1 92 0
  62 0020 4269     		ldr	r2, [r0, #20]
  63 0022 1A62     		str	r2, [r3, #32]
  64              		.loc 1 93 0
  65 0024 8269     		ldr	r2, [r0, #24]
  66 0026 5A62     		str	r2, [r3, #36]
  67              		.loc 1 94 0
  68 0028 0268     		ldr	r2, [r0]
  69 002a 1A60     		str	r2, [r3]
  70              	.LVL2:
  71              	.LBE14:
  72              	.LBE15:
  73              	.LBB16:
  74              	.LBB17:
  75              		.loc 1 88 0
  76 002c 026A     		ldr	r2, [r0, #32]
  77 002e 204B     		ldr	r3, .L2+4
  78 0030 5A60     		str	r2, [r3, #4]
  79              		.loc 1 89 0
  80 0032 426A     		ldr	r2, [r0, #36]
  81 0034 9A60     		str	r2, [r3, #8]
  82              		.loc 1 90 0
  83 0036 826A     		ldr	r2, [r0, #40]
  84 0038 DA60     		str	r2, [r3, #12]
  85              		.loc 1 91 0
  86 003a C26A     		ldr	r2, [r0, #44]
  87 003c 5A61     		str	r2, [r3, #20]
  88              		.loc 1 92 0
  89 003e 026B     		ldr	r2, [r0, #48]
  90 0040 1A62     		str	r2, [r3, #32]
  91              		.loc 1 93 0
  92 0042 426B     		ldr	r2, [r0, #52]
  93 0044 5A62     		str	r2, [r3, #36]
  94              		.loc 1 94 0
  95 0046 C269     		ldr	r2, [r0, #28]
  96 0048 1A60     		str	r2, [r3]
  97              	.LVL3:
  98              	.LBE17:
  99              	.LBE16:
 100              	.LBB18:
 101              	.LBB19:
 102              		.loc 1 88 0
 103 004a C26B     		ldr	r2, [r0, #60]
 104 004c 194B     		ldr	r3, .L2+8
 105 004e 5A60     		str	r2, [r3, #4]
 106              		.loc 1 89 0
 107 0050 026C     		ldr	r2, [r0, #64]
 108 0052 9A60     		str	r2, [r3, #8]
 109              		.loc 1 90 0
 110 0054 426C     		ldr	r2, [r0, #68]
 111 0056 DA60     		str	r2, [r3, #12]
 112              		.loc 1 91 0
 113 0058 826C     		ldr	r2, [r0, #72]
 114 005a 5A61     		str	r2, [r3, #20]
ARM GAS  /var/folders/qh/xwg3v3kj02qbxczjpdb8lzfr0000gn/T//ccWFpHtK.s 			page 3


 115              		.loc 1 92 0
 116 005c C26C     		ldr	r2, [r0, #76]
 117 005e 1A62     		str	r2, [r3, #32]
 118              		.loc 1 93 0
 119 0060 026D     		ldr	r2, [r0, #80]
 120 0062 5A62     		str	r2, [r3, #36]
 121              		.loc 1 94 0
 122 0064 826B     		ldr	r2, [r0, #56]
 123 0066 1A60     		str	r2, [r3]
 124              	.LVL4:
 125              	.LBE19:
 126              	.LBE18:
 127              	.LBB20:
 128              	.LBB21:
 129              		.loc 1 88 0
 130 0068 826D     		ldr	r2, [r0, #88]
 131 006a 134B     		ldr	r3, .L2+12
 132 006c 5A60     		str	r2, [r3, #4]
 133              		.loc 1 89 0
 134 006e C26D     		ldr	r2, [r0, #92]
 135 0070 9A60     		str	r2, [r3, #8]
 136              		.loc 1 90 0
 137 0072 026E     		ldr	r2, [r0, #96]
 138 0074 DA60     		str	r2, [r3, #12]
 139              		.loc 1 91 0
 140 0076 426E     		ldr	r2, [r0, #100]
 141 0078 5A61     		str	r2, [r3, #20]
 142              		.loc 1 92 0
 143 007a 826E     		ldr	r2, [r0, #104]
 144 007c 1A62     		str	r2, [r3, #32]
 145              		.loc 1 93 0
 146 007e C26E     		ldr	r2, [r0, #108]
 147 0080 5A62     		str	r2, [r3, #36]
 148              		.loc 1 94 0
 149 0082 426D     		ldr	r2, [r0, #84]
 150 0084 1A60     		str	r2, [r3]
 151              	.LVL5:
 152              	.LBE21:
 153              	.LBE20:
 154              	.LBB22:
 155              	.LBB23:
 156              		.loc 1 88 0
 157 0086 426F     		ldr	r2, [r0, #116]
 158 0088 0C4B     		ldr	r3, .L2+16
 159 008a 5A60     		str	r2, [r3, #4]
 160              		.loc 1 89 0
 161 008c 826F     		ldr	r2, [r0, #120]
 162 008e 9A60     		str	r2, [r3, #8]
 163              		.loc 1 90 0
 164 0090 C26F     		ldr	r2, [r0, #124]
 165 0092 DA60     		str	r2, [r3, #12]
 166              		.loc 1 91 0
 167 0094 8022     		mov	r2, #128
 168 0096 8258     		ldr	r2, [r0, r2]
 169 0098 5A61     		str	r2, [r3, #20]
 170              		.loc 1 92 0
 171 009a 8422     		mov	r2, #132
ARM GAS  /var/folders/qh/xwg3v3kj02qbxczjpdb8lzfr0000gn/T//ccWFpHtK.s 			page 4


 172 009c 8258     		ldr	r2, [r0, r2]
 173 009e 1A62     		str	r2, [r3, #32]
 174              		.loc 1 93 0
 175 00a0 8822     		mov	r2, #136
 176 00a2 8258     		ldr	r2, [r0, r2]
 177 00a4 5A62     		str	r2, [r3, #36]
 178              		.loc 1 94 0
 179 00a6 026F     		ldr	r2, [r0, #112]
 180 00a8 1A60     		str	r2, [r3]
 181              	.LBE23:
 182              	.LBE22:
 183              		.loc 1 160 0
 184 00aa 7047     		bx	lr
 185              	.L3:
 186              		.align	2
 187              	.L2:
 188 00ac 00100240 		.word	1073876992
 189 00b0 00040048 		.word	1207960576
 190 00b4 00080048 		.word	1207961600
 191 00b8 000C0048 		.word	1207962624
 192 00bc 00140048 		.word	1207964672
 193              		.cfi_endproc
 194              	.LFE41:
 195              		.size	_pal_lld_init, .-_pal_lld_init
 196              		.section	.text._pal_lld_setgroupmode,"ax",%progbits
 197              		.align	2
 198              		.p2align 4,,15
 199              		.global	_pal_lld_setgroupmode
 200              		.code	16
 201              		.thumb_func
 202              		.type	_pal_lld_setgroupmode, %function
 203              	_pal_lld_setgroupmode:
 204              	.LFB42:
 205              		.loc 1 178 0
 206              		.cfi_startproc
 207              	.LVL6:
 208 0000 F0B5     		push	{r4, r5, r6, r7, lr}
 209              		.cfi_def_cfa_offset 20
 210              		.cfi_offset 4, -20
 211              		.cfi_offset 5, -16
 212              		.cfi_offset 6, -12
 213              		.cfi_offset 7, -8
 214              		.cfi_offset 14, -4
 215 0002 5646     		mov	r6, r10
 216 0004 4D46     		mov	r5, r9
 217 0006 5F46     		mov	r7, fp
 218 0008 4446     		mov	r4, r8
 219 000a F0B4     		push	{r4, r5, r6, r7}
 220              		.cfi_def_cfa_offset 36
 221              		.cfi_offset 8, -36
 222              		.cfi_offset 9, -32
 223              		.cfi_offset 10, -28
 224              		.cfi_offset 11, -24
 225              		.loc 1 180 0
 226 000c 0327     		mov	r7, #3
 227              		.loc 1 181 0
 228 000e 5607     		lsl	r6, r2, #29
ARM GAS  /var/folders/qh/xwg3v3kj02qbxczjpdb8lzfr0000gn/T//ccWFpHtK.s 			page 5


 229              		.loc 1 182 0
 230 0010 D506     		lsl	r5, r2, #27
 231              		.loc 1 183 0
 232 0012 5406     		lsl	r4, r2, #25
 233              		.loc 1 180 0
 234 0014 1740     		and	r7, r2
 235              	.LVL7:
 236              		.loc 1 184 0
 237 0016 5205     		lsl	r2, r2, #21
 238              	.LVL8:
 239 0018 120F     		lsr	r2, r2, #28
 240              	.LBB24:
 241              		.loc 1 190 0
 242 001a 0723     		mov	r3, #7
 243              	.LBE24:
 244              		.loc 1 178 0
 245 001c 83B0     		sub	sp, sp, #12
 246              		.cfi_def_cfa_offset 48
 247              		.loc 1 183 0
 248 001e A40F     		lsr	r4, r4, #30
 249              		.loc 1 184 0
 250 0020 9246     		mov	r10, r2
 251              		.loc 1 185 0
 252 0022 0022     		mov	r2, #0
 253              	.LBB25:
 254              		.loc 1 190 0
 255 0024 9946     		mov	r9, r3
 256              	.LBE25:
 257              		.loc 1 181 0
 258 0026 F60F     		lsr	r6, r6, #31
 259              	.LVL9:
 260              		.loc 1 182 0
 261 0028 AD0F     		lsr	r5, r5, #30
 262              	.LVL10:
 263              	.LBB26:
 264              		.loc 1 198 0
 265 002a 0194     		str	r4, [sp, #4]
 266 002c 131C     		mov	r3, r2
 267 002e 2BE0     		b	.L9
 268              	.LVL11:
 269              	.L14:
 270              		.loc 1 193 0
 271 0030 026A     		ldr	r2, [r0, #32]
 272 0032 A243     		bic	r2, r4
 273 0034 4446     		mov	r4, r8
 274              	.LVL12:
 275 0036 2243     		orr	r2, r4
 276 0038 0262     		str	r2, [r0, #32]
 277              	.L7:
 278              	.LVL13:
 279              		.loc 1 197 0
 280 003a 4468     		ldr	r4, [r0, #4]
 281              		.loc 1 196 0
 282 003c 0122     		mov	r2, #1
 283 003e 9A40     		lsl	r2, r2, r3
 284              	.LVL14:
 285              		.loc 1 197 0
ARM GAS  /var/folders/qh/xwg3v3kj02qbxczjpdb8lzfr0000gn/T//ccWFpHtK.s 			page 6


 286 0040 9443     		bic	r4, r2
 287 0042 3443     		orr	r4, r6
 288 0044 4460     		str	r4, [r0, #4]
 289              	.LVL15:
 290              		.loc 1 199 0
 291 0046 8268     		ldr	r2, [r0, #8]
 292              	.LVL16:
 293 0048 5C00     		lsl	r4, r3, #1
 294 004a 9046     		mov	r8, r2
 295              	.LVL17:
 296              		.loc 1 198 0
 297 004c 0322     		mov	r2, #3
 298 004e A240     		lsl	r2, r2, r4
 299              	.LVL18:
 300              		.loc 1 199 0
 301 0050 D243     		mvn	r2, r2
 302              	.LVL19:
 303 0052 4446     		mov	r4, r8
 304 0054 1440     		and	r4, r2
 305 0056 2C43     		orr	r4, r5
 306 0058 8460     		str	r4, [r0, #8]
 307 005a 9446     		mov	ip, r2
 308              	.LVL20:
 309              		.loc 1 200 0
 310 005c C268     		ldr	r2, [r0, #12]
 311              	.LVL21:
 312 005e 141C     		mov	r4, r2
 313 0060 6246     		mov	r2, ip
 314 0062 1440     		and	r4, r2
 315 0064 019A     		ldr	r2, [sp, #4]
 316 0066 1443     		orr	r4, r2
 317 0068 C460     		str	r4, [r0, #12]
 318              		.loc 1 201 0
 319 006a 0468     		ldr	r4, [r0]
 320 006c 221C     		mov	r2, r4
 321 006e 6446     		mov	r4, ip
 322 0070 2240     		and	r2, r4
 323 0072 3A43     		orr	r2, r7
 324 0074 0260     		str	r2, [r0]
 325              	.LVL22:
 326              	.L5:
 327              	.LBE26:
 328              		.loc 1 203 0
 329 0076 4908     		lsr	r1, r1, #1
 330              	.LVL23:
 331              		.loc 1 204 0
 332 0078 1CD0     		beq	.L4
 333              		.loc 1 208 0
 334 007a 019A     		ldr	r2, [sp, #4]
 335              		.loc 1 206 0
 336 007c 7600     		lsl	r6, r6, #1
 337              	.LVL24:
 338              		.loc 1 208 0
 339 007e 9200     		lsl	r2, r2, #2
 340              		.loc 1 207 0
 341 0080 AD00     		lsl	r5, r5, #2
 342              	.LVL25:
ARM GAS  /var/folders/qh/xwg3v3kj02qbxczjpdb8lzfr0000gn/T//ccWFpHtK.s 			page 7


 343              		.loc 1 208 0
 344 0082 0192     		str	r2, [sp, #4]
 345              	.LVL26:
 346              		.loc 1 209 0
 347 0084 BF00     		lsl	r7, r7, #2
 348              	.LVL27:
 349              		.loc 1 210 0
 350 0086 0133     		add	r3, r3, #1
 351              	.LVL28:
 352              	.L9:
 353              		.loc 1 187 0
 354 0088 0124     		mov	r4, #1
 355 008a 0C42     		tst	r4, r1
 356 008c F3D0     		beq	.L5
 357              	.LBB27:
 358              		.loc 1 190 0
 359 008e 4A46     		mov	r2, r9
 360 0090 1A40     		and	r2, r3
 361 0092 9200     		lsl	r2, r2, #2
 362 0094 5446     		mov	r4, r10
 363 0096 9440     		lsl	r4, r4, r2
 364 0098 A046     		mov	r8, r4
 365              	.LVL29:
 366              		.loc 1 191 0
 367 009a 0F24     		mov	r4, #15
 368              	.LVL30:
 369 009c 9440     		lsl	r4, r4, r2
 370 009e A446     		mov	ip, r4
 371              	.LVL31:
 372              		.loc 1 192 0
 373 00a0 072B     		cmp	r3, #7
 374 00a2 C5D9     		bls	.L14
 375              		.loc 1 195 0
 376 00a4 426A     		ldr	r2, [r0, #36]
 377 00a6 141C     		mov	r4, r2
 378              	.LVL32:
 379 00a8 6246     		mov	r2, ip
 380 00aa 9443     		bic	r4, r2
 381 00ac 4246     		mov	r2, r8
 382 00ae 1443     		orr	r4, r2
 383 00b0 4462     		str	r4, [r0, #36]
 384 00b2 C2E7     		b	.L7
 385              	.LVL33:
 386              	.L4:
 387              	.LBE27:
 388              		.loc 1 212 0
 389 00b4 03B0     		add	sp, sp, #12
 390              		@ sp needed
 391              	.LVL34:
 392              	.LVL35:
 393              	.LVL36:
 394              	.LVL37:
 395 00b6 3CBC     		pop	{r2, r3, r4, r5}
 396 00b8 9046     		mov	r8, r2
 397 00ba 9946     		mov	r9, r3
 398 00bc A246     		mov	r10, r4
 399 00be AB46     		mov	fp, r5
ARM GAS  /var/folders/qh/xwg3v3kj02qbxczjpdb8lzfr0000gn/T//ccWFpHtK.s 			page 8


 400 00c0 F0BD     		pop	{r4, r5, r6, r7, pc}
 401              		.cfi_endproc
 402              	.LFE42:
 403              		.size	_pal_lld_setgroupmode, .-_pal_lld_setgroupmode
 404 00c2 C046C046 		.text
 404      C046C046 
 404      C046C046 
 404      C046
 405              	.Letext0:
 406              		.file 2 "/usr/local/Cellar/gcc-arm-none-eabi-48/20131218/arm-none-eabi/include/stdint.h"
 407              		.file 3 "../../os/hal/platforms/STM32F0xx/stm32f0xx.h"
 408              		.file 4 "../../os/hal/platforms/STM32/GPIOv2/pal_lld.h"