ARM GAS  /var/folders/qh/xwg3v3kj02qbxczjpdb8lzfr0000gn/T//ccv3sC6i.s 			page 1


   1              		.cpu cortex-m0
   2              		.fpu softvfp
   3              		.eabi_attribute 20, 1
   4              		.eabi_attribute 21, 1
   5              		.eabi_attribute 23, 3
   6              		.eabi_attribute 24, 1
   7              		.eabi_attribute 25, 1
   8              		.eabi_attribute 26, 1
   9              		.eabi_attribute 30, 2
  10              		.eabi_attribute 34, 0
  11              		.eabi_attribute 18, 4
  12              		.code	16
  13              		.file	"pwm.c"
  14              		.text
  15              	.Ltext0:
  16              		.cfi_sections	.debug_frame
  17              		.section	.text.pwmInit,"ax",%progbits
  18              		.align	2
  19              		.p2align 4,,15
  20              		.global	pwmInit
  21              		.code	16
  22              		.thumb_func
  23              		.type	pwmInit, %function
  24              	pwmInit:
  25              	.LFB40:
  26              		.file 1 "../../os/hal/src/pwm.c"
  27              		.loc 1 61 0
  28              		.cfi_startproc
  29 0000 08B5     		push	{r3, lr}
  30              		.cfi_def_cfa_offset 8
  31              		.cfi_offset 3, -8
  32              		.cfi_offset 14, -4
  33              		.loc 1 63 0
  34 0002 FFF7FEFF 		bl	pwm_lld_init
  35              	.LVL0:
  36              		.loc 1 64 0
  37              		@ sp needed
  38 0006 08BD     		pop	{r3, pc}
  39              		.cfi_endproc
  40              	.LFE40:
  41              		.size	pwmInit, .-pwmInit
  42 0008 C046C046 		.section	.text.pwmObjectInit,"ax",%progbits
  42      C046C046 
  43              		.align	2
  44              		.p2align 4,,15
  45              		.global	pwmObjectInit
  46              		.code	16
  47              		.thumb_func
  48              		.type	pwmObjectInit, %function
  49              	pwmObjectInit:
  50              	.LFB41:
  51              		.loc 1 73 0
  52              		.cfi_startproc
  53              	.LVL1:
  54              		.loc 1 75 0
  55 0000 0123     		mov	r3, #1
  56 0002 0370     		strb	r3, [r0]
ARM GAS  /var/folders/qh/xwg3v3kj02qbxczjpdb8lzfr0000gn/T//ccv3sC6i.s 			page 2


  57              		.loc 1 76 0
  58 0004 0023     		mov	r3, #0
  59 0006 4360     		str	r3, [r0, #4]
  60              		.loc 1 80 0
  61              		@ sp needed
  62 0008 7047     		bx	lr
  63              		.cfi_endproc
  64              	.LFE41:
  65              		.size	pwmObjectInit, .-pwmObjectInit
  66 000a C046C046 		.section	.text.pwmStart,"ax",%progbits
  66      C046
  67              		.align	2
  68              		.p2align 4,,15
  69              		.global	pwmStart
  70              		.code	16
  71              		.thumb_func
  72              		.type	pwmStart, %function
  73              	pwmStart:
  74              	.LFB42:
  75              		.loc 1 92 0
  76              		.cfi_startproc
  77              	.LVL2:
  78 0000 38B5     		push	{r3, r4, r5, lr}
  79              		.cfi_def_cfa_offset 16
  80              		.cfi_offset 3, -16
  81              		.cfi_offset 4, -12
  82              		.cfi_offset 5, -8
  83              		.cfi_offset 14, -4
  84              		.loc 1 92 0
  85 0002 041C     		mov	r4, r0
  86 0004 0D1C     		mov	r5, r1
  87              		.loc 1 96 0
  88              	@ 96 "../../os/hal/src/pwm.c" 1
  89 0006 72B6     		cpsid   i
  90              	@ 0 "" 2
  91              		.code	16
  92 0008 FFF7FEFF 		bl	dbg_check_lock
  93              	.LVL3:
  94              		.loc 1 100 0
  95 000c AB88     		ldrh	r3, [r5, #4]
  96              		.loc 1 101 0
  97 000e 201C     		mov	r0, r4
  98              		.loc 1 100 0
  99 0010 2381     		strh	r3, [r4, #8]
 100              		.loc 1 99 0
 101 0012 6560     		str	r5, [r4, #4]
 102              		.loc 1 101 0
 103 0014 FFF7FEFF 		bl	pwm_lld_start
 104              	.LVL4:
 105              		.loc 1 102 0
 106 0018 0223     		mov	r3, #2
 107 001a 2370     		strb	r3, [r4]
 108              		.loc 1 103 0
 109 001c FFF7FEFF 		bl	dbg_check_unlock
 110              	.LVL5:
 111              	@ 103 "../../os/hal/src/pwm.c" 1
 112 0020 62B6     		cpsie   i
ARM GAS  /var/folders/qh/xwg3v3kj02qbxczjpdb8lzfr0000gn/T//ccv3sC6i.s 			page 3


 113              	@ 0 "" 2
 114              		.loc 1 104 0
 115              		.code	16
 116              		@ sp needed
 117              	.LVL6:
 118              	.LVL7:
 119 0022 38BD     		pop	{r3, r4, r5, pc}
 120              		.cfi_endproc
 121              	.LFE42:
 122              		.size	pwmStart, .-pwmStart
 123 0024 C046C046 		.section	.text.pwmStop,"ax",%progbits
 123      C046C046 
 123      C046C046 
 124              		.align	2
 125              		.p2align 4,,15
 126              		.global	pwmStop
 127              		.code	16
 128              		.thumb_func
 129              		.type	pwmStop, %function
 130              	pwmStop:
 131              	.LFB43:
 132              		.loc 1 113 0
 133              		.cfi_startproc
 134              	.LVL8:
 135 0000 10B5     		push	{r4, lr}
 136              		.cfi_def_cfa_offset 8
 137              		.cfi_offset 4, -8
 138              		.cfi_offset 14, -4
 139              		.loc 1 113 0
 140 0002 041C     		mov	r4, r0
 141              		.loc 1 117 0
 142              	@ 117 "../../os/hal/src/pwm.c" 1
 143 0004 72B6     		cpsid   i
 144              	@ 0 "" 2
 145              		.code	16
 146 0006 FFF7FEFF 		bl	dbg_check_lock
 147              	.LVL9:
 148              		.loc 1 120 0
 149 000a 201C     		mov	r0, r4
 150 000c FFF7FEFF 		bl	pwm_lld_stop
 151              	.LVL10:
 152              		.loc 1 121 0
 153 0010 0123     		mov	r3, #1
 154 0012 2370     		strb	r3, [r4]
 155              		.loc 1 122 0
 156 0014 FFF7FEFF 		bl	dbg_check_unlock
 157              	.LVL11:
 158              	@ 122 "../../os/hal/src/pwm.c" 1
 159 0018 62B6     		cpsie   i
 160              	@ 0 "" 2
 161              		.loc 1 123 0
 162              		.code	16
 163              		@ sp needed
 164              	.LVL12:
 165 001a 10BD     		pop	{r4, pc}
 166              		.cfi_endproc
 167              	.LFE43:
ARM GAS  /var/folders/qh/xwg3v3kj02qbxczjpdb8lzfr0000gn/T//ccv3sC6i.s 			page 4


 168              		.size	pwmStop, .-pwmStop
 169 001c C046C046 		.section	.text.pwmChangePeriod,"ax",%progbits
 170              		.align	2
 171              		.p2align 4,,15
 172              		.global	pwmChangePeriod
 173              		.code	16
 174              		.thumb_func
 175              		.type	pwmChangePeriod, %function
 176              	pwmChangePeriod:
 177              	.LFB44:
 178              		.loc 1 140 0
 179              		.cfi_startproc
 180              	.LVL13:
 181 0000 38B5     		push	{r3, r4, r5, lr}
 182              		.cfi_def_cfa_offset 16
 183              		.cfi_offset 3, -16
 184              		.cfi_offset 4, -12
 185              		.cfi_offset 5, -8
 186              		.cfi_offset 14, -4
 187              		.loc 1 140 0
 188 0002 051C     		mov	r5, r0
 189 0004 0C1C     		mov	r4, r1
 190              		.loc 1 144 0
 191              	@ 144 "../../os/hal/src/pwm.c" 1
 192 0006 72B6     		cpsid   i
 193              	@ 0 "" 2
 194              		.code	16
 195 0008 FFF7FEFF 		bl	dbg_check_lock
 196              	.LVL14:
 197              		.loc 1 147 0
 198 000c 2C81     		strh	r4, [r5, #8]
 199 000e 2B69     		ldr	r3, [r5, #16]
 200 0010 013C     		sub	r4, r4, #1
 201 0012 A4B2     		uxth	r4, r4
 202 0014 DC62     		str	r4, [r3, #44]
 203              		.loc 1 148 0
 204 0016 FFF7FEFF 		bl	dbg_check_unlock
 205              	.LVL15:
 206              	@ 148 "../../os/hal/src/pwm.c" 1
 207 001a 62B6     		cpsie   i
 208              	@ 0 "" 2
 209              		.loc 1 149 0
 210              		.code	16
 211              		@ sp needed
 212              	.LVL16:
 213 001c 38BD     		pop	{r3, r4, r5, pc}
 214              		.cfi_endproc
 215              	.LFE44:
 216              		.size	pwmChangePeriod, .-pwmChangePeriod
 217 001e C046     		.section	.text.pwmEnableChannel,"ax",%progbits
 218              		.align	2
 219              		.p2align 4,,15
 220              		.global	pwmEnableChannel
 221              		.code	16
 222              		.thumb_func
 223              		.type	pwmEnableChannel, %function
 224              	pwmEnableChannel:
ARM GAS  /var/folders/qh/xwg3v3kj02qbxczjpdb8lzfr0000gn/T//ccv3sC6i.s 			page 5


 225              	.LFB45:
 226              		.loc 1 167 0
 227              		.cfi_startproc
 228              	.LVL17:
 229 0000 70B5     		push	{r4, r5, r6, lr}
 230              		.cfi_def_cfa_offset 16
 231              		.cfi_offset 4, -16
 232              		.cfi_offset 5, -12
 233              		.cfi_offset 6, -8
 234              		.cfi_offset 14, -4
 235              		.loc 1 167 0
 236 0002 061C     		mov	r6, r0
 237 0004 0D1C     		mov	r5, r1
 238 0006 141C     		mov	r4, r2
 239              		.loc 1 172 0
 240              	@ 172 "../../os/hal/src/pwm.c" 1
 241 0008 72B6     		cpsid   i
 242              	@ 0 "" 2
 243              		.code	16
 244 000a FFF7FEFF 		bl	dbg_check_lock
 245              	.LVL18:
 246              		.loc 1 175 0
 247 000e 301C     		mov	r0, r6
 248 0010 291C     		mov	r1, r5
 249 0012 221C     		mov	r2, r4
 250 0014 FFF7FEFF 		bl	pwm_lld_enable_channel
 251              	.LVL19:
 252              		.loc 1 176 0
 253 0018 FFF7FEFF 		bl	dbg_check_unlock
 254              	.LVL20:
 255              	@ 176 "../../os/hal/src/pwm.c" 1
 256 001c 62B6     		cpsie   i
 257              	@ 0 "" 2
 258              		.loc 1 177 0
 259              		.code	16
 260              		@ sp needed
 261              	.LVL21:
 262 001e 70BD     		pop	{r4, r5, r6, pc}
 263              		.cfi_endproc
 264              	.LFE45:
 265              		.size	pwmEnableChannel, .-pwmEnableChannel
 266              		.section	.text.pwmDisableChannel,"ax",%progbits
 267              		.align	2
 268              		.p2align 4,,15
 269              		.global	pwmDisableChannel
 270              		.code	16
 271              		.thumb_func
 272              		.type	pwmDisableChannel, %function
 273              	pwmDisableChannel:
 274              	.LFB46:
 275              		.loc 1 193 0
 276              		.cfi_startproc
 277              	.LVL22:
 278 0000 38B5     		push	{r3, r4, r5, lr}
 279              		.cfi_def_cfa_offset 16
 280              		.cfi_offset 3, -16
 281              		.cfi_offset 4, -12
ARM GAS  /var/folders/qh/xwg3v3kj02qbxczjpdb8lzfr0000gn/T//ccv3sC6i.s 			page 6


 282              		.cfi_offset 5, -8
 283              		.cfi_offset 14, -4
 284              		.loc 1 193 0
 285 0002 051C     		mov	r5, r0
 286 0004 0C1C     		mov	r4, r1
 287              		.loc 1 198 0
 288              	@ 198 "../../os/hal/src/pwm.c" 1
 289 0006 72B6     		cpsid   i
 290              	@ 0 "" 2
 291              		.code	16
 292 0008 FFF7FEFF 		bl	dbg_check_lock
 293              	.LVL23:
 294              		.loc 1 201 0
 295 000c 281C     		mov	r0, r5
 296 000e 211C     		mov	r1, r4
 297 0010 FFF7FEFF 		bl	pwm_lld_disable_channel
 298              	.LVL24:
 299              		.loc 1 202 0
 300 0014 FFF7FEFF 		bl	dbg_check_unlock
 301              	.LVL25:
 302              	@ 202 "../../os/hal/src/pwm.c" 1
 303 0018 62B6     		cpsie   i
 304              	@ 0 "" 2
 305              		.loc 1 203 0
 306              		.code	16
 307              		@ sp needed
 308              	.LVL26:
 309 001a 38BD     		pop	{r3, r4, r5, pc}
 310              		.cfi_endproc
 311              	.LFE46:
 312              		.size	pwmDisableChannel, .-pwmDisableChannel
 313 001c C046C046 		.text
 314              	.Letext0:
 315              		.file 2 "/usr/local/Cellar/gcc-arm-none-eabi-48/20131218/arm-none-eabi/include/stdint.h"
 316              		.file 3 "../../os/hal/include/pwm.h"
 317              		.file 4 "../../os/hal/platforms/STM32/TIMv1/pwm_lld.h"
 318              		.file 5 "../../os/hal/platforms/STM32/TIMv1/stm32_tim.h"
 319              		.file 6 "../../os/kernel/include/chdebug.h"