ARM GAS  /var/folders/qh/xwg3v3kj02qbxczjpdb8lzfr0000gn/T//ccaxxSn2.s 			page 1


   1              		.cpu cortex-m0
   2              		.fpu softvfp
   3              		.eabi_attribute 20, 1
   4              		.eabi_attribute 21, 1
   5              		.eabi_attribute 23, 3
   6              		.eabi_attribute 24, 1
   7              		.eabi_attribute 25, 1
   8              		.eabi_attribute 26, 1
   9              		.eabi_attribute 30, 2
  10              		.eabi_attribute 34, 0
  11              		.eabi_attribute 18, 4
  12              		.code	16
  13              		.file	"pwm_lld.c"
  14              		.text
  15              	.Ltext0:
  16              		.cfi_sections	.debug_frame
  17              		.section	.text.Vector74,"ax",%progbits
  18              		.align	2
  19              		.p2align 4,,15
  20              		.global	Vector74
  21              		.code	16
  22              		.thumb_func
  23              		.type	Vector74, %function
  24              	Vector74:
  25              	.LFB40:
  26              		.file 1 "../../os/hal/platforms/STM32/TIMv1/pwm_lld.c"
  27              		.loc 1 147 0
  28              		.cfi_startproc
  29 0000 10B5     		push	{r4, lr}
  30              		.cfi_def_cfa_offset 8
  31              		.cfi_offset 4, -8
  32              		.cfi_offset 14, -4
  33              		.loc 1 149 0
  34              	@ 149 "../../os/hal/platforms/STM32/TIMv1/pwm_lld.c" 1
  35 0002 7446     		mov     r4, lr
  36              	@ 0 "" 2
  37              	.LVL0:
  38              		.code	16
  39 0004 FFF7FEFF 		bl	dbg_check_enter_isr
  40              	.LVL1:
  41              		.loc 1 151 0
  42 0008 064B     		ldr	r3, .L2
  43              		.loc 1 152 0
  44 000a 0748     		ldr	r0, .L2+4
  45              		.loc 1 151 0
  46 000c 0222     		mov	r2, #2
  47 000e 5242     		neg	r2, r2
  48 0010 1A61     		str	r2, [r3, #16]
  49              		.loc 1 152 0
  50 0012 4268     		ldr	r2, [r0, #4]
  51              		.loc 1 155 0
  52              		@ sp needed
  53              		.loc 1 152 0
  54 0014 9268     		ldr	r2, [r2, #8]
  55 0016 9047     		blx	r2
  56              	.LVL2:
  57              		.loc 1 154 0
ARM GAS  /var/folders/qh/xwg3v3kj02qbxczjpdb8lzfr0000gn/T//ccaxxSn2.s 			page 2


  58 0018 FFF7FEFF 		bl	dbg_check_leave_isr
  59              	.LVL3:
  60 001c 201C     		mov	r0, r4
  61 001e FFF7FEFF 		bl	_port_irq_epilogue
  62              	.LVL4:
  63              	.LVL5:
  64              		.loc 1 155 0
  65 0022 10BD     		pop	{r4, pc}
  66              	.L3:
  67              		.align	2
  68              	.L2:
  69 0024 002C0140 		.word	1073818624
  70 0028 00000000 		.word	.LANCHOR0
  71              		.cfi_endproc
  72              	.LFE40:
  73              		.size	Vector74, .-Vector74
  74 002c C046C046 		.section	.text.Vector78,"ax",%progbits
  75              		.align	2
  76              		.p2align 4,,15
  77              		.global	Vector78
  78              		.code	16
  79              		.thumb_func
  80              		.type	Vector78, %function
  81              	Vector78:
  82              	.LFB41:
  83              		.loc 1 168 0
  84              		.cfi_startproc
  85 0000 38B5     		push	{r3, r4, r5, lr}
  86              		.cfi_def_cfa_offset 16
  87              		.cfi_offset 3, -16
  88              		.cfi_offset 4, -12
  89              		.cfi_offset 5, -8
  90              		.cfi_offset 14, -4
  91              		.loc 1 171 0
  92              	@ 171 "../../os/hal/platforms/STM32/TIMv1/pwm_lld.c" 1
  93 0002 7546     		mov     r5, lr
  94              	@ 0 "" 2
  95              	.LVL6:
  96              		.code	16
  97 0004 FFF7FEFF 		bl	dbg_check_enter_isr
  98              	.LVL7:
  99              		.loc 1 173 0
 100 0008 144B     		ldr	r3, .L25
 101 000a 1C69     		ldr	r4, [r3, #16]
 102 000c DA68     		ldr	r2, [r3, #12]
 103 000e 1440     		and	r4, r2
 104 0010 A4B2     		uxth	r4, r4
 105              	.LVL8:
 106              		.loc 1 174 0
 107 0012 FF22     		mov	r2, #255
 108 0014 2240     		and	r2, r4
 109 0016 D243     		mvn	r2, r2
 110 0018 1A61     		str	r2, [r3, #16]
 111              		.loc 1 175 0
 112 001a A307     		lsl	r3, r4, #30
 113 001c 19D4     		bmi	.L22
 114              	.L5:
ARM GAS  /var/folders/qh/xwg3v3kj02qbxczjpdb8lzfr0000gn/T//ccaxxSn2.s 			page 3


 115              		.loc 1 177 0
 116 001e 6307     		lsl	r3, r4, #29
 117 0020 12D4     		bmi	.L23
 118              	.L6:
 119              		.loc 1 179 0
 120 0022 2307     		lsl	r3, r4, #28
 121 0024 0BD4     		bmi	.L24
 122              	.L7:
 123              		.loc 1 181 0
 124 0026 E306     		lsl	r3, r4, #27
 125 0028 03D5     		bpl	.L8
 126              		.loc 1 182 0
 127 002a 0D48     		ldr	r0, .L25+4
 128 002c 4368     		ldr	r3, [r0, #4]
 129 002e 9B6A     		ldr	r3, [r3, #40]
 130 0030 9847     		blx	r3
 131              	.LVL9:
 132              	.L8:
 133              		.loc 1 184 0
 134 0032 FFF7FEFF 		bl	dbg_check_leave_isr
 135              	.LVL10:
 136 0036 281C     		mov	r0, r5
 137 0038 FFF7FEFF 		bl	_port_irq_epilogue
 138              	.LVL11:
 139              		.loc 1 185 0
 140              		@ sp needed
 141              	.LVL12:
 142              	.LVL13:
 143 003c 38BD     		pop	{r3, r4, r5, pc}
 144              	.LVL14:
 145              	.L24:
 146              		.loc 1 180 0
 147 003e 0848     		ldr	r0, .L25+4
 148 0040 4368     		ldr	r3, [r0, #4]
 149 0042 1B6A     		ldr	r3, [r3, #32]
 150 0044 9847     		blx	r3
 151              	.LVL15:
 152 0046 EEE7     		b	.L7
 153              	.L23:
 154              		.loc 1 178 0
 155 0048 0548     		ldr	r0, .L25+4
 156 004a 4368     		ldr	r3, [r0, #4]
 157 004c 9B69     		ldr	r3, [r3, #24]
 158 004e 9847     		blx	r3
 159              	.LVL16:
 160 0050 E7E7     		b	.L6
 161              	.L22:
 162              		.loc 1 176 0
 163 0052 0348     		ldr	r0, .L25+4
 164 0054 4368     		ldr	r3, [r0, #4]
 165 0056 1B69     		ldr	r3, [r3, #16]
 166 0058 9847     		blx	r3
 167              	.LVL17:
 168 005a E0E7     		b	.L5
 169              	.L26:
 170              		.align	2
 171              	.L25:
ARM GAS  /var/folders/qh/xwg3v3kj02qbxczjpdb8lzfr0000gn/T//ccaxxSn2.s 			page 4


 172 005c 002C0140 		.word	1073818624
 173 0060 00000000 		.word	.LANCHOR0
 174              		.cfi_endproc
 175              	.LFE41:
 176              		.size	Vector78, .-Vector78
 177 0064 C046C046 		.section	.text.pwm_lld_init,"ax",%progbits
 177      C046C046 
 177      C046C046 
 178              		.align	2
 179              		.p2align 4,,15
 180              		.global	pwm_lld_init
 181              		.code	16
 182              		.thumb_func
 183              		.type	pwm_lld_init, %function
 184              	pwm_lld_init:
 185              	.LFB42:
 186              		.loc 1 345 0
 187              		.cfi_startproc
 188 0000 10B5     		push	{r4, lr}
 189              		.cfi_def_cfa_offset 8
 190              		.cfi_offset 4, -8
 191              		.cfi_offset 14, -4
 192              		.loc 1 349 0
 193 0002 034C     		ldr	r4, .L28
 194              		.loc 1 388 0
 195              		@ sp needed
 196              		.loc 1 349 0
 197 0004 201C     		mov	r0, r4
 198 0006 FFF7FEFF 		bl	pwmObjectInit
 199              	.LVL18:
 200              		.loc 1 350 0
 201 000a 024B     		ldr	r3, .L28+4
 202 000c 2361     		str	r3, [r4, #16]
 203              		.loc 1 388 0
 204 000e 10BD     		pop	{r4, pc}
 205              	.L29:
 206              		.align	2
 207              	.L28:
 208 0010 00000000 		.word	.LANCHOR0
 209 0014 002C0140 		.word	1073818624
 210              		.cfi_endproc
 211              	.LFE42:
 212              		.size	pwm_lld_init, .-pwm_lld_init
 213              		.global	__aeabi_uidiv
 214 0018 C046C046 		.section	.text.pwm_lld_start,"ax",%progbits
 214      C046C046 
 215              		.align	2
 216              		.p2align 4,,15
 217              		.global	pwm_lld_start
 218              		.code	16
 219              		.thumb_func
 220              		.type	pwm_lld_start, %function
 221              	pwm_lld_start:
 222              	.LFB43:
 223              		.loc 1 399 0
 224              		.cfi_startproc
 225              	.LVL19:
ARM GAS  /var/folders/qh/xwg3v3kj02qbxczjpdb8lzfr0000gn/T//ccaxxSn2.s 			page 5


 226 0000 F0B5     		push	{r4, r5, r6, r7, lr}
 227              		.cfi_def_cfa_offset 20
 228              		.cfi_offset 4, -20
 229              		.cfi_offset 5, -16
 230              		.cfi_offset 6, -12
 231              		.cfi_offset 7, -8
 232              		.cfi_offset 14, -4
 233              		.loc 1 403 0
 234 0002 0378     		ldrb	r3, [r0]
 235              		.loc 1 399 0
 236 0004 4746     		mov	r7, r8
 237 0006 80B4     		push	{r7}
 238              		.cfi_def_cfa_offset 24
 239              		.cfi_offset 8, -24
 240              		.loc 1 399 0
 241 0008 061C     		mov	r6, r0
 242              		.loc 1 403 0
 243 000a 012B     		cmp	r3, #1
 244 000c 00D1     		bne	.LCB191
 245 000e 99E0     		b	.L75	@long jump
 246              	.LCB191:
 247              		.loc 1 492 0
 248 0010 4568     		ldr	r5, [r0, #4]
 249              		.loc 1 491 0
 250 0012 0469     		ldr	r4, [r0, #16]
 251              		.loc 1 492 0
 252 0014 686B     		ldr	r0, [r5, #52]
 253              	.LVL20:
 254 0016 FF22     		mov	r2, #255
 255              		.loc 1 491 0
 256 0018 0023     		mov	r3, #0
 257              		.loc 1 492 0
 258 001a 9043     		bic	r0, r2
 259 001c 594F     		ldr	r7, .L83
 260              		.loc 1 491 0
 261 001e 2360     		str	r3, [r4]
 262              		.loc 1 492 0
 263 0020 E060     		str	r0, [r4, #12]
 264              		.loc 1 494 0
 265 0022 2361     		str	r3, [r4, #16]
 266              		.loc 1 495 0
 267 0024 6363     		str	r3, [r4, #52]
 268              		.loc 1 496 0
 269 0026 A363     		str	r3, [r4, #56]
 270              		.loc 1 497 0
 271 0028 E363     		str	r3, [r4, #60]
 272              		.loc 1 498 0
 273 002a 2364     		str	r3, [r4, #64]
 274              		.loc 1 499 0
 275 002c 6362     		str	r3, [r4, #36]
 276              	.L33:
 277              	.LVL21:
 278              		.loc 1 503 0
 279 002e 2968     		ldr	r1, [r5]
 280 0030 F068     		ldr	r0, [r6, #12]
 281 0032 FFF7FEFF 		bl	__aeabi_uidiv
 282              	.LVL22:
ARM GAS  /var/folders/qh/xwg3v3kj02qbxczjpdb8lzfr0000gn/T//ccaxxSn2.s 			page 6


 283              		.loc 1 508 0
 284 0036 3389     		ldrh	r3, [r6, #8]
 285              		.loc 1 503 0
 286 0038 0138     		sub	r0, r0, #1
 287              		.loc 1 509 0
 288 003a E96A     		ldr	r1, [r5, #44]
 289              		.loc 1 507 0
 290 003c 0004     		lsl	r0, r0, #16
 291              		.loc 1 508 0
 292 003e 013B     		sub	r3, r3, #1
 293              		.loc 1 507 0
 294 0040 000C     		lsr	r0, r0, #16
 295              		.loc 1 508 0
 296 0042 9BB2     		uxth	r3, r3
 297              		.loc 1 507 0
 298 0044 A062     		str	r0, [r4, #40]
 299              		.loc 1 508 0
 300 0046 E362     		str	r3, [r4, #44]
 301              		.loc 1 509 0
 302 0048 6160     		str	r1, [r4, #4]
 303              	.LVL23:
 304              		.loc 1 513 0
 305 004a E968     		ldr	r1, [r5, #12]
 306 004c 0F22     		mov	r2, #15
 307 004e 0A40     		and	r2, r1
 308 0050 012A     		cmp	r2, #1
 309 0052 00D1     		bne	.LCB233
 310 0054 74E0     		b	.L35	@long jump
 311              	.LCB233:
 312              		.loc 1 512 0
 313 0056 023A     		sub	r2, r2, #2
 314 0058 5042     		neg	r0, r2
 315 005a 4241     		adc	r2, r2, r0
 316              		.loc 1 513 0
 317 005c 0323     		mov	r3, #3
 318              		.loc 1 512 0
 319 005e 5242     		neg	r2, r2
 320 0060 1340     		and	r3, r2
 321              	.L34:
 322              	.LVL24:
 323              		.loc 1 521 0
 324 0062 6A69     		ldr	r2, [r5, #20]
 325 0064 9446     		mov	ip, r2
 326 0066 6046     		mov	r0, ip
 327 0068 0F22     		mov	r2, #15
 328 006a 0240     		and	r2, r0
 329 006c 012A     		cmp	r2, #1
 330 006e 5DD0     		beq	.L38
 331 0070 022A     		cmp	r2, #2
 332 0072 59D0     		beq	.L76
 333              	.LVL25:
 334              	.L37:
 335              		.loc 1 529 0
 336 0074 EA69     		ldr	r2, [r5, #28]
 337 0076 9046     		mov	r8, r2
 338 0078 4046     		mov	r0, r8
 339 007a 0F22     		mov	r2, #15
ARM GAS  /var/folders/qh/xwg3v3kj02qbxczjpdb8lzfr0000gn/T//ccaxxSn2.s 			page 7


 340 007c 0240     		and	r2, r0
 341 007e 012A     		cmp	r2, #1
 342 0080 22D0     		beq	.L41
 343 0082 022A     		cmp	r2, #2
 344 0084 1DD0     		beq	.L77
 345              		.loc 1 537 0
 346 0086 686A     		ldr	r0, [r5, #36]
 347 0088 0F22     		mov	r2, #15
 348 008a 0240     		and	r2, r0
 349 008c 012A     		cmp	r2, #1
 350 008e 23D0     		beq	.L44
 351              	.LVL26:
 352              	.L80:
 353 0090 022A     		cmp	r2, #2
 354 0092 4ED0     		beq	.L78
 355              	.LVL27:
 356              		.loc 1 547 0
 357 0094 BE42     		cmp	r6, r7
 358 0096 24D0     		beq	.L79
 359              	.LVL28:
 360              	.L46:
 361              		.loc 1 582 0
 362 0098 2362     		str	r3, [r4, #32]
 363              		.loc 1 583 0
 364 009a 0123     		mov	r3, #1
 365              	.LVL29:
 366              		.loc 1 584 0
 367 009c AA68     		ldr	r2, [r5, #8]
 368              		.loc 1 583 0
 369 009e 6361     		str	r3, [r4, #20]
 370              	.LVL30:
 371              		.loc 1 584 0
 372 00a0 E368     		ldr	r3, [r4, #12]
 373 00a2 511E     		sub	r1, r2, #1
 374 00a4 8A41     		sbc	r2, r2, r1
 375 00a6 1343     		orr	r3, r2
 376 00a8 E360     		str	r3, [r4, #12]
 377              		.loc 1 585 0
 378 00aa 0023     		mov	r3, #0
 379              		.loc 1 588 0
 380 00ac 2A6B     		ldr	r2, [r5, #48]
 381              		.loc 1 585 0
 382 00ae 2361     		str	r3, [r4, #16]
 383              		.loc 1 588 0
 384 00b0 8023     		mov	r3, #128
 385 00b2 1B02     		lsl	r3, r3, #8
 386 00b4 1343     		orr	r3, r2
 387 00b6 6364     		str	r3, [r4, #68]
 388              		.loc 1 594 0
 389 00b8 8523     		mov	r3, #133
 390 00ba 2360     		str	r3, [r4]
 391              		.loc 1 596 0
 392              		@ sp needed
 393              	.LVL31:
 394 00bc 04BC     		pop	{r2}
 395 00be 9046     		mov	r8, r2
 396 00c0 F0BD     		pop	{r4, r5, r6, r7, pc}
ARM GAS  /var/folders/qh/xwg3v3kj02qbxczjpdb8lzfr0000gn/T//ccaxxSn2.s 			page 8


 397              	.LVL32:
 398              	.L77:
 399              		.loc 1 531 0
 400 00c2 8022     		mov	r2, #128
 401 00c4 9200     		lsl	r2, r2, #2
 402 00c6 1343     		orr	r3, r2
 403              	.LVL33:
 404              	.L41:
 405              		.loc 1 533 0
 406 00c8 8022     		mov	r2, #128
 407 00ca 5200     		lsl	r2, r2, #1
 408              		.loc 1 537 0
 409 00cc 686A     		ldr	r0, [r5, #36]
 410              		.loc 1 533 0
 411 00ce 1343     		orr	r3, r2
 412              	.LVL34:
 413              		.loc 1 537 0
 414 00d0 0F22     		mov	r2, #15
 415 00d2 0240     		and	r2, r0
 416 00d4 012A     		cmp	r2, #1
 417 00d6 DBD1     		bne	.L80
 418              	.LVL35:
 419              	.L44:
 420              		.loc 1 541 0
 421 00d8 8022     		mov	r2, #128
 422 00da 5201     		lsl	r2, r2, #5
 423 00dc 1343     		orr	r3, r2
 424              	.LVL36:
 425              	.L81:
 426              		.loc 1 547 0
 427 00de BE42     		cmp	r6, r7
 428 00e0 DAD1     		bne	.L46
 429              	.LVL37:
 430              	.L79:
 431              		.loc 1 555 0
 432 00e2 F022     		mov	r2, #240
 433 00e4 1140     		and	r1, r2
 434 00e6 1029     		cmp	r1, #16
 435 00e8 03D0     		beq	.L48
 436 00ea 2029     		cmp	r1, #32
 437 00ec 03D1     		bne	.L47
 438              		.loc 1 557 0
 439 00ee 0822     		mov	r2, #8
 440 00f0 1343     		orr	r3, r2
 441              	.LVL38:
 442              	.L48:
 443              		.loc 1 559 0
 444 00f2 0422     		mov	r2, #4
 445 00f4 1343     		orr	r3, r2
 446              	.LVL39:
 447              	.L47:
 448              		.loc 1 563 0
 449 00f6 F022     		mov	r2, #240
 450 00f8 6146     		mov	r1, ip
 451 00fa 0A40     		and	r2, r1
 452 00fc 102A     		cmp	r2, #16
 453 00fe 03D0     		beq	.L51
ARM GAS  /var/folders/qh/xwg3v3kj02qbxczjpdb8lzfr0000gn/T//ccaxxSn2.s 			page 9


 454 0100 202A     		cmp	r2, #32
 455 0102 03D1     		bne	.L50
 456              		.loc 1 565 0
 457 0104 8022     		mov	r2, #128
 458 0106 1343     		orr	r3, r2
 459              	.LVL40:
 460              	.L51:
 461              		.loc 1 567 0
 462 0108 4022     		mov	r2, #64
 463 010a 1343     		orr	r3, r2
 464              	.LVL41:
 465              	.L50:
 466              		.loc 1 571 0
 467 010c F022     		mov	r2, #240
 468 010e 4046     		mov	r0, r8
 469 0110 1040     		and	r0, r2
 470 0112 1028     		cmp	r0, #16
 471 0114 04D0     		beq	.L53
 472 0116 2028     		cmp	r0, #32
 473 0118 BED1     		bne	.L46
 474              		.loc 1 573 0
 475 011a 8022     		mov	r2, #128
 476 011c 1201     		lsl	r2, r2, #4
 477 011e 1343     		orr	r3, r2
 478              	.LVL42:
 479              	.L53:
 480              		.loc 1 575 0
 481 0120 8022     		mov	r2, #128
 482 0122 D200     		lsl	r2, r2, #3
 483 0124 1343     		orr	r3, r2
 484              	.LVL43:
 485 0126 B7E7     		b	.L46
 486              	.L76:
 487              		.loc 1 523 0
 488 0128 2022     		mov	r2, #32
 489 012a 1343     		orr	r3, r2
 490              	.LVL44:
 491              	.L38:
 492              		.loc 1 525 0
 493 012c 1022     		mov	r2, #16
 494 012e 1343     		orr	r3, r2
 495              	.LVL45:
 496 0130 A0E7     		b	.L37
 497              	.LVL46:
 498              	.L78:
 499              		.loc 1 539 0
 500 0132 8022     		mov	r2, #128
 501 0134 9201     		lsl	r2, r2, #6
 502 0136 1343     		orr	r3, r2
 503              	.LVL47:
 504              		.loc 1 541 0
 505 0138 8022     		mov	r2, #128
 506 013a 5201     		lsl	r2, r2, #5
 507 013c 1343     		orr	r3, r2
 508              	.LVL48:
 509 013e CEE7     		b	.L81
 510              	.LVL49:
ARM GAS  /var/folders/qh/xwg3v3kj02qbxczjpdb8lzfr0000gn/T//ccaxxSn2.s 			page 10


 511              	.L35:
 512              		.loc 1 513 0
 513 0140 0123     		mov	r3, #1
 514 0142 8EE7     		b	.L34
 515              	.LVL50:
 516              	.L75:
 517              		.loc 1 406 0
 518 0144 0F4F     		ldr	r7, .L83
 519 0146 B842     		cmp	r0, r7
 520 0148 05D0     		beq	.L82
 521              	.LVL51:
 522              	.L32:
 523              		.loc 1 484 0
 524 014a 3469     		ldr	r4, [r6, #16]
 525 014c 0E4B     		ldr	r3, .L83+4
 526 014e 7568     		ldr	r5, [r6, #4]
 527 0150 A361     		str	r3, [r4, #24]
 528              		.loc 1 486 0
 529 0152 E361     		str	r3, [r4, #28]
 530 0154 6BE7     		b	.L33
 531              	.LVL52:
 532              	.L82:
 533              		.loc 1 407 0
 534 0156 0D4B     		ldr	r3, .L83+8
 535 0158 8022     		mov	r2, #128
 536 015a 9969     		ldr	r1, [r3, #24]
 537 015c 1201     		lsl	r2, r2, #4
 538 015e 1143     		orr	r1, r2
 539 0160 9961     		str	r1, [r3, #24]
 540              		.loc 1 408 0
 541 0162 D968     		ldr	r1, [r3, #12]
 542              		.loc 1 409 0
 543 0164 0D20     		mov	r0, #13
 544              	.LVL53:
 545              		.loc 1 408 0
 546 0166 0A43     		orr	r2, r1
 547 0168 DA60     		str	r2, [r3, #12]
 548 016a 0022     		mov	r2, #0
 549 016c DA60     		str	r2, [r3, #12]
 550              		.loc 1 409 0
 551 016e C021     		mov	r1, #192
 552 0170 FFF7FEFF 		bl	nvicEnableVector
 553              	.LVL54:
 554              		.loc 1 411 0
 555 0174 0E20     		mov	r0, #14
 556 0176 C021     		mov	r1, #192
 557 0178 FFF7FEFF 		bl	nvicEnableVector
 558              	.LVL55:
 559              		.loc 1 416 0
 560 017c 044B     		ldr	r3, .L83+12
 561 017e F360     		str	r3, [r6, #12]
 562 0180 E3E7     		b	.L32
 563              	.L84:
 564 0182 C046     		.align	2
 565              	.L83:
 566 0184 00000000 		.word	.LANCHOR0
 567 0188 68680000 		.word	26728
ARM GAS  /var/folders/qh/xwg3v3kj02qbxczjpdb8lzfr0000gn/T//ccaxxSn2.s 			page 11


 568 018c 00100240 		.word	1073876992
 569 0190 006CDC02 		.word	48000000
 570              		.cfi_endproc
 571              	.LFE43:
 572              		.size	pwm_lld_start, .-pwm_lld_start
 573 0194 C046C046 		.section	.text.pwm_lld_stop,"ax",%progbits
 573      C046C046 
 573      C046C046 
 574              		.align	2
 575              		.p2align 4,,15
 576              		.global	pwm_lld_stop
 577              		.code	16
 578              		.thumb_func
 579              		.type	pwm_lld_stop, %function
 580              	pwm_lld_stop:
 581              	.LFB44:
 582              		.loc 1 605 0
 583              		.cfi_startproc
 584              	.LVL56:
 585 0000 08B5     		push	{r3, lr}
 586              		.cfi_def_cfa_offset 8
 587              		.cfi_offset 3, -8
 588              		.cfi_offset 14, -4
 589              		.loc 1 608 0
 590 0002 0378     		ldrb	r3, [r0]
 591 0004 022B     		cmp	r3, #2
 592 0006 00D0     		beq	.L89
 593              	.LVL57:
 594              	.L85:
 595              		.loc 1 661 0
 596              		@ sp needed
 597 0008 08BD     		pop	{r3, pc}
 598              	.LVL58:
 599              	.L89:
 600              		.loc 1 609 0
 601 000a 0369     		ldr	r3, [r0, #16]
 602 000c 0022     		mov	r2, #0
 603 000e 1A60     		str	r2, [r3]
 604              		.loc 1 610 0
 605 0010 DA60     		str	r2, [r3, #12]
 606              		.loc 1 611 0
 607 0012 1A61     		str	r2, [r3, #16]
 608              		.loc 1 613 0
 609 0014 5A64     		str	r2, [r3, #68]
 610              		.loc 1 617 0
 611 0016 074B     		ldr	r3, .L90
 612 0018 9842     		cmp	r0, r3
 613 001a F5D1     		bne	.L85
 614              		.loc 1 618 0
 615 001c 0D20     		mov	r0, #13
 616              	.LVL59:
 617 001e FFF7FEFF 		bl	nvicDisableVector
 618              	.LVL60:
 619              		.loc 1 619 0
 620 0022 0E20     		mov	r0, #14
 621 0024 FFF7FEFF 		bl	nvicDisableVector
 622              	.LVL61:
ARM GAS  /var/folders/qh/xwg3v3kj02qbxczjpdb8lzfr0000gn/T//ccaxxSn2.s 			page 12


 623              		.loc 1 620 0
 624 0028 034B     		ldr	r3, .L90+4
 625 002a 044A     		ldr	r2, .L90+8
 626 002c 9969     		ldr	r1, [r3, #24]
 627 002e 0A40     		and	r2, r1
 628 0030 9A61     		str	r2, [r3, #24]
 629 0032 E9E7     		b	.L85
 630              	.L91:
 631              		.align	2
 632              	.L90:
 633 0034 00000000 		.word	.LANCHOR0
 634 0038 00100240 		.word	1073876992
 635 003c FFF7FFFF 		.word	-2049
 636              		.cfi_endproc
 637              	.LFE44:
 638              		.size	pwm_lld_stop, .-pwm_lld_stop
 639              		.section	.text.pwm_lld_enable_channel,"ax",%progbits
 640              		.align	2
 641              		.p2align 4,,15
 642              		.global	pwm_lld_enable_channel
 643              		.code	16
 644              		.thumb_func
 645              		.type	pwm_lld_enable_channel, %function
 646              	pwm_lld_enable_channel:
 647              	.LFB45:
 648              		.loc 1 677 0
 649              		.cfi_startproc
 650              	.LVL62:
 651 0000 10B5     		push	{r4, lr}
 652              		.cfi_def_cfa_offset 8
 653              		.cfi_offset 4, -8
 654              		.cfi_offset 14, -4
 655              		.loc 1 679 0
 656 0002 0C1C     		mov	r4, r1
 657 0004 0369     		ldr	r3, [r0, #16]
 658 0006 0C34     		add	r4, r4, #12
 659 0008 A400     		lsl	r4, r4, #2
 660 000a 1C19     		add	r4, r3, r4
 661 000c 6260     		str	r2, [r4, #4]
 662              		.loc 1 682 0
 663 000e 4068     		ldr	r0, [r0, #4]
 664              	.LVL63:
 665 0010 4A1C     		add	r2, r1, #1
 666              	.LVL64:
 667 0012 D200     		lsl	r2, r2, #3
 668 0014 8218     		add	r2, r0, r2
 669 0016 9268     		ldr	r2, [r2, #8]
 670 0018 002A     		cmp	r2, #0
 671 001a 08D0     		beq	.L92
 672              	.LBB2:
 673              		.loc 1 686 0
 674 001c 0220     		mov	r0, #2
 675              		.loc 1 683 0
 676 001e DA68     		ldr	r2, [r3, #12]
 677              	.LVL65:
 678              		.loc 1 686 0
 679 0020 8840     		lsl	r0, r0, r1
ARM GAS  /var/folders/qh/xwg3v3kj02qbxczjpdb8lzfr0000gn/T//ccaxxSn2.s 			page 13


 680 0022 0242     		tst	r2, r0
 681 0024 03D1     		bne	.L92
 682              		.loc 1 687 0
 683 0026 0243     		orr	r2, r0
 684              	.LVL66:
 685              		.loc 1 688 0
 686 0028 C143     		mvn	r1, r0
 687              	.LVL67:
 688              		.loc 1 687 0
 689 002a DA60     		str	r2, [r3, #12]
 690              		.loc 1 688 0
 691 002c 1961     		str	r1, [r3, #16]
 692              	.L92:
 693              	.LBE2:
 694              		.loc 1 691 0
 695              		@ sp needed
 696 002e 10BD     		pop	{r4, pc}
 697              		.cfi_endproc
 698              	.LFE45:
 699              		.size	pwm_lld_enable_channel, .-pwm_lld_enable_channel
 700              		.section	.text.pwm_lld_disable_channel,"ax",%progbits
 701              		.align	2
 702              		.p2align 4,,15
 703              		.global	pwm_lld_disable_channel
 704              		.code	16
 705              		.thumb_func
 706              		.type	pwm_lld_disable_channel, %function
 707              	pwm_lld_disable_channel:
 708              	.LFB46:
 709              		.loc 1 705 0
 710              		.cfi_startproc
 711              	.LVL68:
 712              		.loc 1 707 0
 713 0000 0A1C     		mov	r2, r1
 714 0002 0369     		ldr	r3, [r0, #16]
 715 0004 0C32     		add	r2, r2, #12
 716 0006 9200     		lsl	r2, r2, #2
 717 0008 9A18     		add	r2, r3, r2
 718 000a 0020     		mov	r0, #0
 719              	.LVL69:
 720 000c 5060     		str	r0, [r2, #4]
 721              		.loc 1 708 0
 722 000e DA68     		ldr	r2, [r3, #12]
 723 0010 0220     		mov	r0, #2
 724 0012 8840     		lsl	r0, r0, r1
 725 0014 8243     		bic	r2, r0
 726 0016 DA60     		str	r2, [r3, #12]
 727              		.loc 1 709 0
 728              		@ sp needed
 729 0018 7047     		bx	lr
 730              		.cfi_endproc
 731              	.LFE46:
 732              		.size	pwm_lld_disable_channel, .-pwm_lld_disable_channel
 733              		.global	PWMD1
 734 001a C046C046 		.section	.bss.PWMD1,"aw",%nobits
 734      C046
 735              		.align	2
ARM GAS  /var/folders/qh/xwg3v3kj02qbxczjpdb8lzfr0000gn/T//ccaxxSn2.s 			page 14


 736              		.set	.LANCHOR0,. + 0
 737              		.type	PWMD1, %object
 738              		.size	PWMD1, 20
 739              	PWMD1:
 740 0000 00000000 		.space	20
 740      00000000 
 740      00000000 
 740      00000000 
 740      00000000 
 741              		.text
 742              	.Letext0:
 743              		.file 2 "/usr/local/Cellar/gcc-arm-none-eabi-48/20131218/arm-none-eabi/include/stdint.h"
 744              		.file 3 "../../os/ports/GCC/ARMCMx/chcore_v6m.h"
 745              		.file 4 "../../os/hal/platforms/STM32F0xx/stm32f0xx.h"
 746              		.file 5 "../../os/hal/include/pwm.h"
 747              		.file 6 "../../os/hal/platforms/STM32/TIMv1/pwm_lld.h"
 748              		.file 7 "../../os/hal/platforms/STM32/TIMv1/stm32_tim.h"
 749              		.file 8 "../../os/kernel/include/chdebug.h"
 750              		.file 9 "../../os/ports/common/ARMCMx/nvic.h"
 751              		.section	.debug_info,"",%progbits
 752              	.Ldebug_info0:
 753 0000 1A070000 		.4byte	0x71a
 754 0004 0400     		.2byte	0x4
 755 0006 00000000 		.4byte	.Ldebug_abbrev0
 756 000a 04       		.byte	0x4
 757 000b 01       		.uleb128 0x1
 758 000c F0000000 		.4byte	.LASF76
 759 0010 01       		.byte	0x1
 760 0011 90000000 		.4byte	.LASF77
 761 0015 67020000 		.4byte	.LASF78
 762 0019 00000000 		.4byte	.Ldebug_ranges0+0
 763 001d 00000000 		.4byte	0
 764 0021 00000000 		.4byte	.Ldebug_line0
 765 0025 02       		.uleb128 0x2
 766 0026 04       		.byte	0x4
 767 0027 07       		.byte	0x7
 768 0028 FA020000 		.4byte	.LASF0
 769 002c 03       		.uleb128 0x3
 770 002d 04       		.byte	0x4
 771 002e 05       		.byte	0x5
 772 002f 696E7400 		.ascii	"int\000"
 773 0033 02       		.uleb128 0x2
 774 0034 01       		.byte	0x1
 775 0035 06       		.byte	0x6
 776 0036 D7020000 		.4byte	.LASF1
 777 003a 04       		.uleb128 0x4
 778 003b E0000000 		.4byte	.LASF4
 779 003f 02       		.byte	0x2
 780 0040 2A       		.byte	0x2a
 781 0041 45000000 		.4byte	0x45
 782 0045 02       		.uleb128 0x2
 783 0046 01       		.byte	0x1
 784 0047 08       		.byte	0x8
 785 0048 B2020000 		.4byte	.LASF2
 786 004c 02       		.uleb128 0x2
 787 004d 02       		.byte	0x2
 788 004e 05       		.byte	0x5
ARM GAS  /var/folders/qh/xwg3v3kj02qbxczjpdb8lzfr0000gn/T//ccaxxSn2.s 			page 15


 789 004f 4B000000 		.4byte	.LASF3
 790 0053 04       		.uleb128 0x4
 791 0054 4A030000 		.4byte	.LASF5
 792 0058 02       		.byte	0x2
 793 0059 36       		.byte	0x36
 794 005a 5E000000 		.4byte	0x5e
 795 005e 02       		.uleb128 0x2
 796 005f 02       		.byte	0x2
 797 0060 07       		.byte	0x7
 798 0061 2A030000 		.4byte	.LASF6
 799 0065 02       		.uleb128 0x2
 800 0066 04       		.byte	0x4
 801 0067 05       		.byte	0x5
 802 0068 1A040000 		.4byte	.LASF7
 803 006c 04       		.uleb128 0x4
 804 006d 00000000 		.4byte	.LASF8
 805 0071 02       		.byte	0x2
 806 0072 50       		.byte	0x50
 807 0073 77000000 		.4byte	0x77
 808 0077 02       		.uleb128 0x2
 809 0078 04       		.byte	0x4
 810 0079 07       		.byte	0x7
 811 007a 97030000 		.4byte	.LASF9
 812 007e 02       		.uleb128 0x2
 813 007f 08       		.byte	0x8
 814 0080 05       		.byte	0x5
 815 0081 F4010000 		.4byte	.LASF10
 816 0085 02       		.uleb128 0x2
 817 0086 08       		.byte	0x8
 818 0087 07       		.byte	0x7
 819 0088 E3020000 		.4byte	.LASF11
 820 008c 02       		.uleb128 0x2
 821 008d 01       		.byte	0x1
 822 008e 02       		.byte	0x2
 823 008f 69030000 		.4byte	.LASF12
 824 0093 04       		.uleb128 0x4
 825 0094 C9000000 		.4byte	.LASF13
 826 0098 03       		.byte	0x3
 827 0099 A0       		.byte	0xa0
 828 009a 9E000000 		.4byte	0x9e
 829 009e 05       		.uleb128 0x5
 830 009f 04       		.byte	0x4
 831 00a0 06       		.uleb128 0x6
 832 00a1 6C000000 		.4byte	0x6c
 833 00a5 02       		.uleb128 0x2
 834 00a6 04       		.byte	0x4
 835 00a7 07       		.byte	0x7
 836 00a8 E1030000 		.4byte	.LASF14
 837 00ac 02       		.uleb128 0x2
 838 00ad 01       		.byte	0x1
 839 00ae 08       		.byte	0x8
 840 00af 02020000 		.4byte	.LASF15
 841 00b3 07       		.uleb128 0x7
 842 00b4 6C000000 		.4byte	0x6c
 843 00b8 C3000000 		.4byte	0xc3
 844 00bc 08       		.uleb128 0x8
 845 00bd A5000000 		.4byte	0xa5
ARM GAS  /var/folders/qh/xwg3v3kj02qbxczjpdb8lzfr0000gn/T//ccaxxSn2.s 			page 16


 846 00c1 03       		.byte	0x3
 847 00c2 00       		.byte	0
 848 00c3 09       		.uleb128 0x9
 849 00c4 38       		.byte	0x38
 850 00c5 04       		.byte	0x4
 851 00c6 1702     		.2byte	0x217
 852 00c8 82010000 		.4byte	0x182
 853 00cc 0A       		.uleb128 0xa
 854 00cd 435200   		.ascii	"CR\000"
 855 00d0 04       		.byte	0x4
 856 00d1 1902     		.2byte	0x219
 857 00d3 A0000000 		.4byte	0xa0
 858 00d7 00       		.byte	0
 859 00d8 0B       		.uleb128 0xb
 860 00d9 C4000000 		.4byte	.LASF16
 861 00dd 04       		.byte	0x4
 862 00de 1A02     		.2byte	0x21a
 863 00e0 A0000000 		.4byte	0xa0
 864 00e4 04       		.byte	0x4
 865 00e5 0A       		.uleb128 0xa
 866 00e6 43495200 		.ascii	"CIR\000"
 867 00ea 04       		.byte	0x4
 868 00eb 1B02     		.2byte	0x21b
 869 00ed A0000000 		.4byte	0xa0
 870 00f1 08       		.byte	0x8
 871 00f2 0B       		.uleb128 0xb
 872 00f3 2D020000 		.4byte	.LASF17
 873 00f7 04       		.byte	0x4
 874 00f8 1C02     		.2byte	0x21c
 875 00fa A0000000 		.4byte	0xa0
 876 00fe 0C       		.byte	0xc
 877 00ff 0B       		.uleb128 0xb
 878 0100 0E000000 		.4byte	.LASF18
 879 0104 04       		.byte	0x4
 880 0105 1D02     		.2byte	0x21d
 881 0107 A0000000 		.4byte	0xa0
 882 010b 10       		.byte	0x10
 883 010c 0B       		.uleb128 0xb
 884 010d 26020000 		.4byte	.LASF19
 885 0111 04       		.byte	0x4
 886 0112 1E02     		.2byte	0x21e
 887 0114 A0000000 		.4byte	0xa0
 888 0118 14       		.byte	0x14
 889 0119 0B       		.uleb128 0xb
 890 011a DF010000 		.4byte	.LASF20
 891 011e 04       		.byte	0x4
 892 011f 1F02     		.2byte	0x21f
 893 0121 A0000000 		.4byte	0xa0
 894 0125 18       		.byte	0x18
 895 0126 0B       		.uleb128 0xb
 896 0127 E8000000 		.4byte	.LASF21
 897 012b 04       		.byte	0x4
 898 012c 2002     		.2byte	0x220
 899 012e A0000000 		.4byte	0xa0
 900 0132 1C       		.byte	0x1c
 901 0133 0B       		.uleb128 0xb
 902 0134 5E000000 		.4byte	.LASF22
ARM GAS  /var/folders/qh/xwg3v3kj02qbxczjpdb8lzfr0000gn/T//ccaxxSn2.s 			page 17


 903 0138 04       		.byte	0x4
 904 0139 2102     		.2byte	0x221
 905 013b A0000000 		.4byte	0xa0
 906 013f 20       		.byte	0x20
 907 0140 0A       		.uleb128 0xa
 908 0141 43535200 		.ascii	"CSR\000"
 909 0145 04       		.byte	0x4
 910 0146 2202     		.2byte	0x222
 911 0148 A0000000 		.4byte	0xa0
 912 014c 24       		.byte	0x24
 913 014d 0B       		.uleb128 0xb
 914 014e EC010000 		.4byte	.LASF23
 915 0152 04       		.byte	0x4
 916 0153 2302     		.2byte	0x223
 917 0155 A0000000 		.4byte	0xa0
 918 0159 28       		.byte	0x28
 919 015a 0B       		.uleb128 0xb
 920 015b 07030000 		.4byte	.LASF24
 921 015f 04       		.byte	0x4
 922 0160 2402     		.2byte	0x224
 923 0162 A0000000 		.4byte	0xa0
 924 0166 2C       		.byte	0x2c
 925 0167 0B       		.uleb128 0xb
 926 0168 0D030000 		.4byte	.LASF25
 927 016c 04       		.byte	0x4
 928 016d 2502     		.2byte	0x225
 929 016f A0000000 		.4byte	0xa0
 930 0173 30       		.byte	0x30
 931 0174 0A       		.uleb128 0xa
 932 0175 43523200 		.ascii	"CR2\000"
 933 0179 04       		.byte	0x4
 934 017a 2602     		.2byte	0x226
 935 017c A0000000 		.4byte	0xa0
 936 0180 34       		.byte	0x34
 937 0181 00       		.byte	0
 938 0182 0C       		.uleb128 0xc
 939 0183 1A020000 		.4byte	.LASF26
 940 0187 04       		.byte	0x4
 941 0188 2702     		.2byte	0x227
 942 018a C3000000 		.4byte	0xc3
 943 018e 0D       		.uleb128 0xd
 944 018f 01       		.byte	0x1
 945 0190 05       		.byte	0x5
 946 0191 4E       		.byte	0x4e
 947 0192 A9010000 		.4byte	0x1a9
 948 0196 0E       		.uleb128 0xe
 949 0197 A7020000 		.4byte	.LASF27
 950 019b 00       		.sleb128 0
 951 019c 0E       		.uleb128 0xe
 952 019d D3030000 		.4byte	.LASF28
 953 01a1 01       		.sleb128 1
 954 01a2 0E       		.uleb128 0xe
 955 01a3 C9030000 		.4byte	.LASF29
 956 01a7 02       		.sleb128 2
 957 01a8 00       		.byte	0
 958 01a9 04       		.uleb128 0x4
 959 01aa 23040000 		.4byte	.LASF30
ARM GAS  /var/folders/qh/xwg3v3kj02qbxczjpdb8lzfr0000gn/T//ccaxxSn2.s 			page 18


 960 01ae 05       		.byte	0x5
 961 01af 52       		.byte	0x52
 962 01b0 8E010000 		.4byte	0x18e
 963 01b4 04       		.uleb128 0x4
 964 01b5 5F030000 		.4byte	.LASF31
 965 01b9 05       		.byte	0x5
 966 01ba 57       		.byte	0x57
 967 01bb BF010000 		.4byte	0x1bf
 968 01bf 0F       		.uleb128 0xf
 969 01c0 5F030000 		.4byte	.LASF31
 970 01c4 14       		.byte	0x14
 971 01c5 06       		.byte	0x6
 972 01c6 6F01     		.2byte	0x16f
 973 01c8 0E020000 		.4byte	0x20e
 974 01cc 0B       		.uleb128 0xb
 975 01cd C3030000 		.4byte	.LASF32
 976 01d1 06       		.byte	0x6
 977 01d2 7301     		.2byte	0x173
 978 01d4 A9010000 		.4byte	0x1a9
 979 01d8 00       		.byte	0
 980 01d9 0B       		.uleb128 0xb
 981 01da BD000000 		.4byte	.LASF33
 982 01de 06       		.byte	0x6
 983 01df 7701     		.2byte	0x177
 984 01e1 2F040000 		.4byte	0x42f
 985 01e5 04       		.byte	0x4
 986 01e6 0B       		.uleb128 0xb
 987 01e7 7C030000 		.4byte	.LASF34
 988 01eb 06       		.byte	0x6
 989 01ec 7B01     		.2byte	0x17b
 990 01ee 72030000 		.4byte	0x372
 991 01f2 08       		.byte	0x8
 992 01f3 0B       		.uleb128 0xb
 993 01f4 A9030000 		.4byte	.LASF35
 994 01f8 06       		.byte	0x6
 995 01f9 8301     		.2byte	0x183
 996 01fb 6C000000 		.4byte	0x6c
 997 01ff 0C       		.byte	0xc
 998 0200 0A       		.uleb128 0xa
 999 0201 74696D00 		.ascii	"tim\000"
 1000 0205 06       		.byte	0x6
 1001 0206 8701     		.2byte	0x187
 1002 0208 3A040000 		.4byte	0x43a
 1003 020c 10       		.byte	0x10
 1004 020d 00       		.byte	0
 1005 020e 04       		.uleb128 0x4
 1006 020f 2E040000 		.4byte	.LASF36
 1007 0213 05       		.byte	0x5
 1008 0214 5E       		.byte	0x5e
 1009 0215 19020000 		.4byte	0x219
 1010 0219 10       		.uleb128 0x10
 1011 021a 04       		.byte	0x4
 1012 021b 1F020000 		.4byte	0x21f
 1013 021f 11       		.uleb128 0x11
 1014 0220 2A020000 		.4byte	0x22a
 1015 0224 12       		.uleb128 0x12
 1016 0225 2A020000 		.4byte	0x22a
ARM GAS  /var/folders/qh/xwg3v3kj02qbxczjpdb8lzfr0000gn/T//ccaxxSn2.s 			page 19


 1017 0229 00       		.byte	0
 1018 022a 10       		.uleb128 0x10
 1019 022b 04       		.byte	0x4
 1020 022c B4010000 		.4byte	0x1b4
 1021 0230 09       		.uleb128 0x9
 1022 0231 60       		.byte	0x60
 1023 0232 07       		.byte	0x7
 1024 0233 9E01     		.2byte	0x19e
 1025 0235 49030000 		.4byte	0x349
 1026 0239 0A       		.uleb128 0xa
 1027 023a 43523100 		.ascii	"CR1\000"
 1028 023e 07       		.byte	0x7
 1029 023f 9F01     		.2byte	0x19f
 1030 0241 A0000000 		.4byte	0xa0
 1031 0245 00       		.byte	0
 1032 0246 0A       		.uleb128 0xa
 1033 0247 43523200 		.ascii	"CR2\000"
 1034 024b 07       		.byte	0x7
 1035 024c A001     		.2byte	0x1a0
 1036 024e A0000000 		.4byte	0xa0
 1037 0252 04       		.byte	0x4
 1038 0253 0B       		.uleb128 0xb
 1039 0254 A2020000 		.4byte	.LASF37
 1040 0258 07       		.byte	0x7
 1041 0259 A101     		.2byte	0x1a1
 1042 025b A0000000 		.4byte	0xa0
 1043 025f 08       		.byte	0x8
 1044 0260 0B       		.uleb128 0xb
 1045 0261 25030000 		.4byte	.LASF38
 1046 0265 07       		.byte	0x7
 1047 0266 A201     		.2byte	0x1a2
 1048 0268 A0000000 		.4byte	0xa0
 1049 026c 0C       		.byte	0xc
 1050 026d 0A       		.uleb128 0xa
 1051 026e 535200   		.ascii	"SR\000"
 1052 0271 07       		.byte	0x7
 1053 0272 A301     		.2byte	0x1a3
 1054 0274 A0000000 		.4byte	0xa0
 1055 0278 10       		.byte	0x10
 1056 0279 0A       		.uleb128 0xa
 1057 027a 45475200 		.ascii	"EGR\000"
 1058 027e 07       		.byte	0x7
 1059 027f A401     		.2byte	0x1a4
 1060 0281 A0000000 		.4byte	0xa0
 1061 0285 14       		.byte	0x14
 1062 0286 0B       		.uleb128 0xb
 1063 0287 3F000000 		.4byte	.LASF39
 1064 028b 07       		.byte	0x7
 1065 028c A501     		.2byte	0x1a5
 1066 028e A0000000 		.4byte	0xa0
 1067 0292 18       		.byte	0x18
 1068 0293 0B       		.uleb128 0xb
 1069 0294 45000000 		.4byte	.LASF40
 1070 0298 07       		.byte	0x7
 1071 0299 A601     		.2byte	0x1a6
 1072 029b A0000000 		.4byte	0xa0
 1073 029f 1C       		.byte	0x1c
ARM GAS  /var/folders/qh/xwg3v3kj02qbxczjpdb8lzfr0000gn/T//ccaxxSn2.s 			page 20


 1074 02a0 0B       		.uleb128 0xb
 1075 02a1 09000000 		.4byte	.LASF41
 1076 02a5 07       		.byte	0x7
 1077 02a6 A701     		.2byte	0x1a7
 1078 02a8 A0000000 		.4byte	0xa0
 1079 02ac 20       		.byte	0x20
 1080 02ad 0A       		.uleb128 0xa
 1081 02ae 434E5400 		.ascii	"CNT\000"
 1082 02b2 07       		.byte	0x7
 1083 02b3 A801     		.2byte	0x1a8
 1084 02b5 A0000000 		.4byte	0xa0
 1085 02b9 24       		.byte	0x24
 1086 02ba 0A       		.uleb128 0xa
 1087 02bb 50534300 		.ascii	"PSC\000"
 1088 02bf 07       		.byte	0x7
 1089 02c0 A901     		.2byte	0x1a9
 1090 02c2 A0000000 		.4byte	0xa0
 1091 02c6 28       		.byte	0x28
 1092 02c7 0A       		.uleb128 0xa
 1093 02c8 41525200 		.ascii	"ARR\000"
 1094 02cc 07       		.byte	0x7
 1095 02cd AA01     		.2byte	0x1aa
 1096 02cf A0000000 		.4byte	0xa0
 1097 02d3 2C       		.byte	0x2c
 1098 02d4 0A       		.uleb128 0xa
 1099 02d5 52435200 		.ascii	"RCR\000"
 1100 02d9 07       		.byte	0x7
 1101 02da AB01     		.2byte	0x1ab
 1102 02dc A0000000 		.4byte	0xa0
 1103 02e0 30       		.byte	0x30
 1104 02e1 0A       		.uleb128 0xa
 1105 02e2 43435200 		.ascii	"CCR\000"
 1106 02e6 07       		.byte	0x7
 1107 02e7 AC01     		.2byte	0x1ac
 1108 02e9 49030000 		.4byte	0x349
 1109 02ed 34       		.byte	0x34
 1110 02ee 0B       		.uleb128 0xb
 1111 02ef 20030000 		.4byte	.LASF42
 1112 02f3 07       		.byte	0x7
 1113 02f4 AD01     		.2byte	0x1ad
 1114 02f6 A0000000 		.4byte	0xa0
 1115 02fa 44       		.byte	0x44
 1116 02fb 0A       		.uleb128 0xa
 1117 02fc 44435200 		.ascii	"DCR\000"
 1118 0300 07       		.byte	0x7
 1119 0301 AE01     		.2byte	0x1ae
 1120 0303 A0000000 		.4byte	0xa0
 1121 0307 48       		.byte	0x48
 1122 0308 0B       		.uleb128 0xb
 1123 0309 77030000 		.4byte	.LASF43
 1124 030d 07       		.byte	0x7
 1125 030e AF01     		.2byte	0x1af
 1126 0310 A0000000 		.4byte	0xa0
 1127 0314 4C       		.byte	0x4c
 1128 0315 0A       		.uleb128 0xa
 1129 0316 4F5200   		.ascii	"OR\000"
 1130 0319 07       		.byte	0x7
ARM GAS  /var/folders/qh/xwg3v3kj02qbxczjpdb8lzfr0000gn/T//ccaxxSn2.s 			page 21


 1131 031a B001     		.2byte	0x1b0
 1132 031c A0000000 		.4byte	0xa0
 1133 0320 50       		.byte	0x50
 1134 0321 0B       		.uleb128 0xb
 1135 0322 61020000 		.4byte	.LASF44
 1136 0326 07       		.byte	0x7
 1137 0327 B101     		.2byte	0x1b1
 1138 0329 A0000000 		.4byte	0xa0
 1139 032d 54       		.byte	0x54
 1140 032e 0B       		.uleb128 0xb
 1141 032f 15020000 		.4byte	.LASF45
 1142 0333 07       		.byte	0x7
 1143 0334 B201     		.2byte	0x1b2
 1144 0336 A0000000 		.4byte	0xa0
 1145 033a 58       		.byte	0x58
 1146 033b 0B       		.uleb128 0xb
 1147 033c D2020000 		.4byte	.LASF46
 1148 0340 07       		.byte	0x7
 1149 0341 B301     		.2byte	0x1b3
 1150 0343 A0000000 		.4byte	0xa0
 1151 0347 5C       		.byte	0x5c
 1152 0348 00       		.byte	0
 1153 0349 06       		.uleb128 0x6
 1154 034a B3000000 		.4byte	0xb3
 1155 034e 0C       		.uleb128 0xc
 1156 034f 53030000 		.4byte	.LASF47
 1157 0353 07       		.byte	0x7
 1158 0354 B401     		.2byte	0x1b4
 1159 0356 30020000 		.4byte	0x230
 1160 035a 0C       		.uleb128 0xc
 1161 035b 0B040000 		.4byte	.LASF48
 1162 035f 06       		.byte	0x6
 1163 0360 2001     		.2byte	0x120
 1164 0362 6C000000 		.4byte	0x6c
 1165 0366 0C       		.uleb128 0xc
 1166 0367 75000000 		.4byte	.LASF49
 1167 036b 06       		.byte	0x6
 1168 036c 2501     		.2byte	0x125
 1169 036e 3A000000 		.4byte	0x3a
 1170 0372 0C       		.uleb128 0xc
 1171 0373 55000000 		.4byte	.LASF50
 1172 0377 06       		.byte	0x6
 1173 0378 2A01     		.2byte	0x12a
 1174 037a 53000000 		.4byte	0x53
 1175 037e 09       		.uleb128 0x9
 1176 037f 08       		.byte	0x8
 1177 0380 06       		.byte	0x6
 1178 0381 2F01     		.2byte	0x12f
 1179 0383 A2030000 		.4byte	0x3a2
 1180 0387 0B       		.uleb128 0xb
 1181 0388 82000000 		.4byte	.LASF51
 1182 038c 06       		.byte	0x6
 1183 038d 3301     		.2byte	0x133
 1184 038f 5A030000 		.4byte	0x35a
 1185 0393 00       		.byte	0
 1186 0394 0B       		.uleb128 0xb
 1187 0395 3C040000 		.4byte	.LASF52
ARM GAS  /var/folders/qh/xwg3v3kj02qbxczjpdb8lzfr0000gn/T//ccaxxSn2.s 			page 22


 1188 0399 06       		.byte	0x6
 1189 039a 3901     		.2byte	0x139
 1190 039c 0E020000 		.4byte	0x20e
 1191 03a0 04       		.byte	0x4
 1192 03a1 00       		.byte	0
 1193 03a2 0C       		.uleb128 0xc
 1194 03a3 FA030000 		.4byte	.LASF53
 1195 03a7 06       		.byte	0x6
 1196 03a8 3B01     		.2byte	0x13b
 1197 03aa 7E030000 		.4byte	0x37e
 1198 03ae 09       		.uleb128 0x9
 1199 03af 38       		.byte	0x38
 1200 03b0 06       		.byte	0x6
 1201 03b1 4001     		.2byte	0x140
 1202 03b3 13040000 		.4byte	0x413
 1203 03b7 0B       		.uleb128 0xb
 1204 03b8 EA030000 		.4byte	.LASF54
 1205 03bc 06       		.byte	0x6
 1206 03bd 4601     		.2byte	0x146
 1207 03bf 6C000000 		.4byte	0x6c
 1208 03c3 00       		.byte	0
 1209 03c4 0B       		.uleb128 0xb
 1210 03c5 7C030000 		.4byte	.LASF34
 1211 03c9 06       		.byte	0x6
 1212 03ca 4C01     		.2byte	0x14c
 1213 03cc 72030000 		.4byte	0x372
 1214 03d0 04       		.byte	0x4
 1215 03d1 0B       		.uleb128 0xb
 1216 03d2 3C040000 		.4byte	.LASF52
 1217 03d6 06       		.byte	0x6
 1218 03d7 5201     		.2byte	0x152
 1219 03d9 0E020000 		.4byte	0x20e
 1220 03dd 08       		.byte	0x8
 1221 03de 0B       		.uleb128 0xb
 1222 03df 87000000 		.4byte	.LASF55
 1223 03e3 06       		.byte	0x6
 1224 03e4 5601     		.2byte	0x156
 1225 03e6 13040000 		.4byte	0x413
 1226 03ea 0C       		.byte	0xc
 1227 03eb 0A       		.uleb128 0xa
 1228 03ec 63723200 		.ascii	"cr2\000"
 1229 03f0 06       		.byte	0x6
 1230 03f1 5C01     		.2byte	0x15c
 1231 03f3 6C000000 		.4byte	0x6c
 1232 03f7 2C       		.byte	0x2c
 1233 03f8 0B       		.uleb128 0xb
 1234 03f9 15040000 		.4byte	.LASF56
 1235 03fd 06       		.byte	0x6
 1236 03fe 6201     		.2byte	0x162
 1237 0400 6C000000 		.4byte	0x6c
 1238 0404 30       		.byte	0x30
 1239 0405 0B       		.uleb128 0xb
 1240 0406 DC030000 		.4byte	.LASF57
 1241 040a 06       		.byte	0x6
 1242 040b 6901     		.2byte	0x169
 1243 040d 6C000000 		.4byte	0x6c
 1244 0411 34       		.byte	0x34
ARM GAS  /var/folders/qh/xwg3v3kj02qbxczjpdb8lzfr0000gn/T//ccaxxSn2.s 			page 23


 1245 0412 00       		.byte	0
 1246 0413 07       		.uleb128 0x7
 1247 0414 A2030000 		.4byte	0x3a2
 1248 0418 23040000 		.4byte	0x423
 1249 041c 08       		.uleb128 0x8
 1250 041d A5000000 		.4byte	0xa5
 1251 0421 03       		.byte	0x3
 1252 0422 00       		.byte	0
 1253 0423 0C       		.uleb128 0xc
 1254 0424 CA010000 		.4byte	.LASF58
 1255 0428 06       		.byte	0x6
 1256 0429 6A01     		.2byte	0x16a
 1257 042b AE030000 		.4byte	0x3ae
 1258 042f 10       		.uleb128 0x10
 1259 0430 04       		.byte	0x4
 1260 0431 35040000 		.4byte	0x435
 1261 0435 13       		.uleb128 0x13
 1262 0436 23040000 		.4byte	0x423
 1263 043a 10       		.uleb128 0x10
 1264 043b 04       		.byte	0x4
 1265 043c 4E030000 		.4byte	0x34e
 1266 0440 14       		.uleb128 0x14
 1267 0441 C0020000 		.4byte	.LASF59
 1268 0445 01       		.byte	0x1
 1269 0446 93       		.byte	0x93
 1270 0447 00000000 		.4byte	.LFB40
 1271 044b 2C000000 		.4byte	.LFE40-.LFB40
 1272 044f 01       		.uleb128 0x1
 1273 0450 9C       		.byte	0x9c
 1274 0451 9A040000 		.4byte	0x49a
 1275 0455 15       		.uleb128 0x15
 1276 0456 45040000 		.4byte	.LASF61
 1277 045a 01       		.byte	0x1
 1278 045b 95       		.byte	0x95
 1279 045c 93000000 		.4byte	0x93
 1280 0460 00000000 		.4byte	.LLST0
 1281 0464 16       		.uleb128 0x16
 1282 0465 08000000 		.4byte	.LVL1
 1283 0469 C7060000 		.4byte	0x6c7
 1284 046d 17       		.uleb128 0x17
 1285 046e 18000000 		.4byte	.LVL2
 1286 0472 80040000 		.4byte	0x480
 1287 0476 18       		.uleb128 0x18
 1288 0477 01       		.uleb128 0x1
 1289 0478 50       		.byte	0x50
 1290 0479 05       		.uleb128 0x5
 1291 047a 03       		.byte	0x3
 1292 047b 00000000 		.4byte	.LANCHOR0
 1293 047f 00       		.byte	0
 1294 0480 16       		.uleb128 0x16
 1295 0481 1C000000 		.4byte	.LVL3
 1296 0485 CE060000 		.4byte	0x6ce
 1297 0489 19       		.uleb128 0x19
 1298 048a 22000000 		.4byte	.LVL4
 1299 048e D5060000 		.4byte	0x6d5
 1300 0492 18       		.uleb128 0x18
 1301 0493 01       		.uleb128 0x1
ARM GAS  /var/folders/qh/xwg3v3kj02qbxczjpdb8lzfr0000gn/T//ccaxxSn2.s 			page 24


 1302 0494 50       		.byte	0x50
 1303 0495 02       		.uleb128 0x2
 1304 0496 74       		.byte	0x74
 1305 0497 00       		.sleb128 0
 1306 0498 00       		.byte	0
 1307 0499 00       		.byte	0
 1308 049a 14       		.uleb128 0x14
 1309 049b C9020000 		.4byte	.LASF60
 1310 049f 01       		.byte	0x1
 1311 04a0 A8       		.byte	0xa8
 1312 04a1 00000000 		.4byte	.LFB41
 1313 04a5 64000000 		.4byte	.LFE41-.LFB41
 1314 04a9 01       		.uleb128 0x1
 1315 04aa 9C       		.byte	0x9c
 1316 04ab 3B050000 		.4byte	0x53b
 1317 04af 1A       		.uleb128 0x1a
 1318 04b0 737200   		.ascii	"sr\000"
 1319 04b3 01       		.byte	0x1
 1320 04b4 A9       		.byte	0xa9
 1321 04b5 53000000 		.4byte	0x53
 1322 04b9 13000000 		.4byte	.LLST1
 1323 04bd 15       		.uleb128 0x15
 1324 04be 45040000 		.4byte	.LASF61
 1325 04c2 01       		.byte	0x1
 1326 04c3 AB       		.byte	0xab
 1327 04c4 93000000 		.4byte	0x93
 1328 04c8 3B000000 		.4byte	.LLST2
 1329 04cc 16       		.uleb128 0x16
 1330 04cd 08000000 		.4byte	.LVL7
 1331 04d1 C7060000 		.4byte	0x6c7
 1332 04d5 17       		.uleb128 0x17
 1333 04d6 32000000 		.4byte	.LVL9
 1334 04da E8040000 		.4byte	0x4e8
 1335 04de 18       		.uleb128 0x18
 1336 04df 01       		.uleb128 0x1
 1337 04e0 50       		.byte	0x50
 1338 04e1 05       		.uleb128 0x5
 1339 04e2 03       		.byte	0x3
 1340 04e3 00000000 		.4byte	.LANCHOR0
 1341 04e7 00       		.byte	0
 1342 04e8 16       		.uleb128 0x16
 1343 04e9 36000000 		.4byte	.LVL10
 1344 04ed CE060000 		.4byte	0x6ce
 1345 04f1 1B       		.uleb128 0x1b
 1346 04f2 3C000000 		.4byte	.LVL11
 1347 04f6 D5060000 		.4byte	0x6d5
 1348 04fa 05050000 		.4byte	0x505
 1349 04fe 18       		.uleb128 0x18
 1350 04ff 01       		.uleb128 0x1
 1351 0500 50       		.byte	0x50
 1352 0501 02       		.uleb128 0x2
 1353 0502 75       		.byte	0x75
 1354 0503 00       		.sleb128 0
 1355 0504 00       		.byte	0
 1356 0505 17       		.uleb128 0x17
 1357 0506 46000000 		.4byte	.LVL15
 1358 050a 18050000 		.4byte	0x518
ARM GAS  /var/folders/qh/xwg3v3kj02qbxczjpdb8lzfr0000gn/T//ccaxxSn2.s 			page 25


 1359 050e 18       		.uleb128 0x18
 1360 050f 01       		.uleb128 0x1
 1361 0510 50       		.byte	0x50
 1362 0511 05       		.uleb128 0x5
 1363 0512 03       		.byte	0x3
 1364 0513 00000000 		.4byte	.LANCHOR0
 1365 0517 00       		.byte	0
 1366 0518 17       		.uleb128 0x17
 1367 0519 50000000 		.4byte	.LVL16
 1368 051d 2B050000 		.4byte	0x52b
 1369 0521 18       		.uleb128 0x18
 1370 0522 01       		.uleb128 0x1
 1371 0523 50       		.byte	0x50
 1372 0524 05       		.uleb128 0x5
 1373 0525 03       		.byte	0x3
 1374 0526 00000000 		.4byte	.LANCHOR0
 1375 052a 00       		.byte	0
 1376 052b 1C       		.uleb128 0x1c
 1377 052c 5A000000 		.4byte	.LVL17
 1378 0530 18       		.uleb128 0x18
 1379 0531 01       		.uleb128 0x1
 1380 0532 50       		.byte	0x50
 1381 0533 05       		.uleb128 0x5
 1382 0534 03       		.byte	0x3
 1383 0535 00000000 		.4byte	.LANCHOR0
 1384 0539 00       		.byte	0
 1385 053a 00       		.byte	0
 1386 053b 1D       		.uleb128 0x1d
 1387 053c 3D030000 		.4byte	.LASF62
 1388 0540 01       		.byte	0x1
 1389 0541 5901     		.2byte	0x159
 1390 0543 00000000 		.4byte	.LFB42
 1391 0547 18000000 		.4byte	.LFE42-.LFB42
 1392 054b 01       		.uleb128 0x1
 1393 054c 9C       		.byte	0x9c
 1394 054d 62050000 		.4byte	0x562
 1395 0551 19       		.uleb128 0x19
 1396 0552 0A000000 		.4byte	.LVL18
 1397 0556 E7060000 		.4byte	0x6e7
 1398 055a 18       		.uleb128 0x18
 1399 055b 01       		.uleb128 0x1
 1400 055c 50       		.byte	0x50
 1401 055d 02       		.uleb128 0x2
 1402 055e 74       		.byte	0x74
 1403 055f 00       		.sleb128 0
 1404 0560 00       		.byte	0
 1405 0561 00       		.byte	0
 1406 0562 1E       		.uleb128 0x1e
 1407 0563 07020000 		.4byte	.LASF63
 1408 0567 01       		.byte	0x1
 1409 0568 8F01     		.2byte	0x18f
 1410 056a 00000000 		.4byte	.LFB43
 1411 056e 94010000 		.4byte	.LFE43-.LFB43
 1412 0572 01       		.uleb128 0x1
 1413 0573 9C       		.byte	0x9c
 1414 0574 D7050000 		.4byte	0x5d7
 1415 0578 1F       		.uleb128 0x1f
ARM GAS  /var/folders/qh/xwg3v3kj02qbxczjpdb8lzfr0000gn/T//ccaxxSn2.s 			page 26


 1416 0579 E7010000 		.4byte	.LASF66
 1417 057d 01       		.byte	0x1
 1418 057e 8F01     		.2byte	0x18f
 1419 0580 2A020000 		.4byte	0x22a
 1420 0584 59000000 		.4byte	.LLST3
 1421 0588 20       		.uleb128 0x20
 1422 0589 70736300 		.ascii	"psc\000"
 1423 058d 01       		.byte	0x1
 1424 058e 9001     		.2byte	0x190
 1425 0590 6C000000 		.4byte	0x6c
 1426 0594 BC000000 		.4byte	.LLST4
 1427 0598 21       		.uleb128 0x21
 1428 0599 D4010000 		.4byte	.LASF64
 1429 059d 01       		.byte	0x1
 1430 059e 9101     		.2byte	0x191
 1431 05a0 53000000 		.4byte	0x53
 1432 05a4 DE000000 		.4byte	.LLST5
 1433 05a8 1B       		.uleb128 0x1b
 1434 05a9 74010000 		.4byte	.LVL54
 1435 05ad F8060000 		.4byte	0x6f8
 1436 05b1 C1050000 		.4byte	0x5c1
 1437 05b5 18       		.uleb128 0x18
 1438 05b6 01       		.uleb128 0x1
 1439 05b7 51       		.byte	0x51
 1440 05b8 02       		.uleb128 0x2
 1441 05b9 08       		.byte	0x8
 1442 05ba C0       		.byte	0xc0
 1443 05bb 18       		.uleb128 0x18
 1444 05bc 01       		.uleb128 0x1
 1445 05bd 50       		.byte	0x50
 1446 05be 01       		.uleb128 0x1
 1447 05bf 3D       		.byte	0x3d
 1448 05c0 00       		.byte	0
 1449 05c1 19       		.uleb128 0x19
 1450 05c2 7C010000 		.4byte	.LVL55
 1451 05c6 F8060000 		.4byte	0x6f8
 1452 05ca 18       		.uleb128 0x18
 1453 05cb 01       		.uleb128 0x1
 1454 05cc 51       		.byte	0x51
 1455 05cd 02       		.uleb128 0x2
 1456 05ce 08       		.byte	0x8
 1457 05cf C0       		.byte	0xc0
 1458 05d0 18       		.uleb128 0x18
 1459 05d1 01       		.uleb128 0x1
 1460 05d2 50       		.byte	0x50
 1461 05d3 01       		.uleb128 0x1
 1462 05d4 3E       		.byte	0x3e
 1463 05d5 00       		.byte	0
 1464 05d6 00       		.byte	0
 1465 05d7 1D       		.uleb128 0x1d
 1466 05d8 13030000 		.4byte	.LASF65
 1467 05dc 01       		.byte	0x1
 1468 05dd 5D02     		.2byte	0x25d
 1469 05df 00000000 		.4byte	.LFB44
 1470 05e3 40000000 		.4byte	.LFE44-.LFB44
 1471 05e7 01       		.uleb128 0x1
 1472 05e8 9C       		.byte	0x9c
ARM GAS  /var/folders/qh/xwg3v3kj02qbxczjpdb8lzfr0000gn/T//ccaxxSn2.s 			page 27


 1473 05e9 20060000 		.4byte	0x620
 1474 05ed 1F       		.uleb128 0x1f
 1475 05ee E7010000 		.4byte	.LASF66
 1476 05f2 01       		.byte	0x1
 1477 05f3 5D02     		.2byte	0x25d
 1478 05f5 2A020000 		.4byte	0x22a
 1479 05f9 43010000 		.4byte	.LLST6
 1480 05fd 1B       		.uleb128 0x1b
 1481 05fe 22000000 		.4byte	.LVL60
 1482 0602 0F070000 		.4byte	0x70f
 1483 0606 10060000 		.4byte	0x610
 1484 060a 18       		.uleb128 0x18
 1485 060b 01       		.uleb128 0x1
 1486 060c 50       		.byte	0x50
 1487 060d 01       		.uleb128 0x1
 1488 060e 3D       		.byte	0x3d
 1489 060f 00       		.byte	0
 1490 0610 19       		.uleb128 0x19
 1491 0611 28000000 		.4byte	.LVL61
 1492 0615 0F070000 		.4byte	0x70f
 1493 0619 18       		.uleb128 0x18
 1494 061a 01       		.uleb128 0x1
 1495 061b 50       		.byte	0x50
 1496 061c 01       		.uleb128 0x1
 1497 061d 3E       		.byte	0x3e
 1498 061e 00       		.byte	0
 1499 061f 00       		.byte	0
 1500 0620 1D       		.uleb128 0x1d
 1501 0621 28000000 		.4byte	.LASF67
 1502 0625 01       		.byte	0x1
 1503 0626 A302     		.2byte	0x2a3
 1504 0628 00000000 		.4byte	.LFB45
 1505 062c 30000000 		.4byte	.LFE45-.LFB45
 1506 0630 01       		.uleb128 0x1
 1507 0631 9C       		.byte	0x9c
 1508 0632 81060000 		.4byte	0x681
 1509 0636 1F       		.uleb128 0x1f
 1510 0637 E7010000 		.4byte	.LASF66
 1511 063b 01       		.byte	0x1
 1512 063c A302     		.2byte	0x2a3
 1513 063e 2A020000 		.4byte	0x22a
 1514 0642 7D010000 		.4byte	.LLST7
 1515 0646 1F       		.uleb128 0x1f
 1516 0647 6F030000 		.4byte	.LASF68
 1517 064b 01       		.byte	0x1
 1518 064c A402     		.2byte	0x2a4
 1519 064e 66030000 		.4byte	0x366
 1520 0652 9E010000 		.4byte	.LLST8
 1521 0656 1F       		.uleb128 0x1f
 1522 0657 D9010000 		.4byte	.LASF69
 1523 065b 01       		.byte	0x1
 1524 065c A502     		.2byte	0x2a5
 1525 065e 72030000 		.4byte	0x372
 1526 0662 BF010000 		.4byte	.LLST9
 1527 0666 22       		.uleb128 0x22
 1528 0667 1C000000 		.4byte	.LBB2
 1529 066b 12000000 		.4byte	.LBE2-.LBB2
ARM GAS  /var/folders/qh/xwg3v3kj02qbxczjpdb8lzfr0000gn/T//ccaxxSn2.s 			page 28


 1530 066f 21       		.uleb128 0x21
 1531 0670 DC030000 		.4byte	.LASF57
 1532 0674 01       		.byte	0x1
 1533 0675 AB02     		.2byte	0x2ab
 1534 0677 6C000000 		.4byte	0x6c
 1535 067b E0010000 		.4byte	.LLST10
 1536 067f 00       		.byte	0
 1537 0680 00       		.byte	0
 1538 0681 1D       		.uleb128 0x1d
 1539 0682 49020000 		.4byte	.LASF70
 1540 0686 01       		.byte	0x1
 1541 0687 C102     		.2byte	0x2c1
 1542 0689 00000000 		.4byte	.LFB46
 1543 068d 1A000000 		.4byte	.LFE46-.LFB46
 1544 0691 01       		.uleb128 0x1
 1545 0692 9C       		.byte	0x9c
 1546 0693 B6060000 		.4byte	0x6b6
 1547 0697 1F       		.uleb128 0x1f
 1548 0698 E7010000 		.4byte	.LASF66
 1549 069c 01       		.byte	0x1
 1550 069d C102     		.2byte	0x2c1
 1551 069f 2A020000 		.4byte	0x22a
 1552 06a3 F3010000 		.4byte	.LLST11
 1553 06a7 23       		.uleb128 0x23
 1554 06a8 6F030000 		.4byte	.LASF68
 1555 06ac 01       		.byte	0x1
 1556 06ad C102     		.2byte	0x2c1
 1557 06af 66030000 		.4byte	0x366
 1558 06b3 01       		.uleb128 0x1
 1559 06b4 51       		.byte	0x51
 1560 06b5 00       		.byte	0
 1561 06b6 24       		.uleb128 0x24
 1562 06b7 F4030000 		.4byte	.LASF79
 1563 06bb 01       		.byte	0x1
 1564 06bc 2B       		.byte	0x2b
 1565 06bd B4010000 		.4byte	0x1b4
 1566 06c1 05       		.uleb128 0x5
 1567 06c2 03       		.byte	0x3
 1568 06c3 00000000 		.4byte	PWMD1
 1569 06c7 25       		.uleb128 0x25
 1570 06c8 AF030000 		.4byte	.LASF71
 1571 06cc 08       		.byte	0x8
 1572 06cd E4       		.byte	0xe4
 1573 06ce 25       		.uleb128 0x25
 1574 06cf 83030000 		.4byte	.LASF72
 1575 06d3 08       		.byte	0x8
 1576 06d4 E5       		.byte	0xe5
 1577 06d5 26       		.uleb128 0x26
 1578 06d6 36020000 		.4byte	.LASF73
 1579 06da 03       		.byte	0x3
 1580 06db 6B01     		.2byte	0x16b
 1581 06dd E7060000 		.4byte	0x6e7
 1582 06e1 12       		.uleb128 0x12
 1583 06e2 93000000 		.4byte	0x93
 1584 06e6 00       		.byte	0
 1585 06e7 27       		.uleb128 0x27
 1586 06e8 D2000000 		.4byte	.LASF74
ARM GAS  /var/folders/qh/xwg3v3kj02qbxczjpdb8lzfr0000gn/T//ccaxxSn2.s 			page 29


 1587 06ec 05       		.byte	0x5
 1588 06ed EC       		.byte	0xec
 1589 06ee F8060000 		.4byte	0x6f8
 1590 06f2 12       		.uleb128 0x12
 1591 06f3 2A020000 		.4byte	0x22a
 1592 06f7 00       		.byte	0
 1593 06f8 26       		.uleb128 0x26
 1594 06f9 17000000 		.4byte	.LASF75
 1595 06fd 09       		.byte	0x9
 1596 06fe 1C01     		.2byte	0x11c
 1597 0700 0F070000 		.4byte	0x70f
 1598 0704 12       		.uleb128 0x12
 1599 0705 6C000000 		.4byte	0x6c
 1600 0709 12       		.uleb128 0x12
 1601 070a 6C000000 		.4byte	0x6c
 1602 070e 00       		.byte	0
 1603 070f 28       		.uleb128 0x28
 1604 0710 63000000 		.4byte	.LASF80
 1605 0714 09       		.byte	0x9
 1606 0715 1D01     		.2byte	0x11d
 1607 0717 12       		.uleb128 0x12
 1608 0718 6C000000 		.4byte	0x6c
 1609 071c 00       		.byte	0
 1610 071d 00       		.byte	0
 1611              		.section	.debug_abbrev,"",%progbits
 1612              	.Ldebug_abbrev0:
 1613 0000 01       		.uleb128 0x1
 1614 0001 11       		.uleb128 0x11
 1615 0002 01       		.byte	0x1
 1616 0003 25       		.uleb128 0x25
 1617 0004 0E       		.uleb128 0xe
 1618 0005 13       		.uleb128 0x13
 1619 0006 0B       		.uleb128 0xb
 1620 0007 03       		.uleb128 0x3
 1621 0008 0E       		.uleb128 0xe
 1622 0009 1B       		.uleb128 0x1b
 1623 000a 0E       		.uleb128 0xe
 1624 000b 55       		.uleb128 0x55
 1625 000c 17       		.uleb128 0x17
 1626 000d 11       		.uleb128 0x11
 1627 000e 01       		.uleb128 0x1
 1628 000f 10       		.uleb128 0x10
 1629 0010 17       		.uleb128 0x17
 1630 0011 00       		.byte	0
 1631 0012 00       		.byte	0
 1632 0013 02       		.uleb128 0x2
 1633 0014 24       		.uleb128 0x24
 1634 0015 00       		.byte	0
 1635 0016 0B       		.uleb128 0xb
 1636 0017 0B       		.uleb128 0xb
 1637 0018 3E       		.uleb128 0x3e
 1638 0019 0B       		.uleb128 0xb
 1639 001a 03       		.uleb128 0x3
 1640 001b 0E       		.uleb128 0xe
 1641 001c 00       		.byte	0
 1642 001d 00       		.byte	0
 1643 001e 03       		.uleb128 0x3
ARM GAS  /var/folders/qh/xwg3v3kj02qbxczjpdb8lzfr0000gn/T//ccaxxSn2.s 			page 30


 1644 001f 24       		.uleb128 0x24
 1645 0020 00       		.byte	0
 1646 0021 0B       		.uleb128 0xb
 1647 0022 0B       		.uleb128 0xb
 1648 0023 3E       		.uleb128 0x3e
 1649 0024 0B       		.uleb128 0xb
 1650 0025 03       		.uleb128 0x3
 1651 0026 08       		.uleb128 0x8
 1652 0027 00       		.byte	0
 1653 0028 00       		.byte	0
 1654 0029 04       		.uleb128 0x4
 1655 002a 16       		.uleb128 0x16
 1656 002b 00       		.byte	0
 1657 002c 03       		.uleb128 0x3
 1658 002d 0E       		.uleb128 0xe
 1659 002e 3A       		.uleb128 0x3a
 1660 002f 0B       		.uleb128 0xb
 1661 0030 3B       		.uleb128 0x3b
 1662 0031 0B       		.uleb128 0xb
 1663 0032 49       		.uleb128 0x49
 1664 0033 13       		.uleb128 0x13
 1665 0034 00       		.byte	0
 1666 0035 00       		.byte	0
 1667 0036 05       		.uleb128 0x5
 1668 0037 0F       		.uleb128 0xf
 1669 0038 00       		.byte	0
 1670 0039 0B       		.uleb128 0xb
 1671 003a 0B       		.uleb128 0xb
 1672 003b 00       		.byte	0
 1673 003c 00       		.byte	0
 1674 003d 06       		.uleb128 0x6
 1675 003e 35       		.uleb128 0x35
 1676 003f 00       		.byte	0
 1677 0040 49       		.uleb128 0x49
 1678 0041 13       		.uleb128 0x13
 1679 0042 00       		.byte	0
 1680 0043 00       		.byte	0
 1681 0044 07       		.uleb128 0x7
 1682 0045 01       		.uleb128 0x1
 1683 0046 01       		.byte	0x1
 1684 0047 49       		.uleb128 0x49
 1685 0048 13       		.uleb128 0x13
 1686 0049 01       		.uleb128 0x1
 1687 004a 13       		.uleb128 0x13
 1688 004b 00       		.byte	0
 1689 004c 00       		.byte	0
 1690 004d 08       		.uleb128 0x8
 1691 004e 21       		.uleb128 0x21
 1692 004f 00       		.byte	0
 1693 0050 49       		.uleb128 0x49
 1694 0051 13       		.uleb128 0x13
 1695 0052 2F       		.uleb128 0x2f
 1696 0053 0B       		.uleb128 0xb
 1697 0054 00       		.byte	0
 1698 0055 00       		.byte	0
 1699 0056 09       		.uleb128 0x9
 1700 0057 13       		.uleb128 0x13
ARM GAS  /var/folders/qh/xwg3v3kj02qbxczjpdb8lzfr0000gn/T//ccaxxSn2.s 			page 31


 1701 0058 01       		.byte	0x1
 1702 0059 0B       		.uleb128 0xb
 1703 005a 0B       		.uleb128 0xb
 1704 005b 3A       		.uleb128 0x3a
 1705 005c 0B       		.uleb128 0xb
 1706 005d 3B       		.uleb128 0x3b
 1707 005e 05       		.uleb128 0x5
 1708 005f 01       		.uleb128 0x1
 1709 0060 13       		.uleb128 0x13
 1710 0061 00       		.byte	0
 1711 0062 00       		.byte	0
 1712 0063 0A       		.uleb128 0xa
 1713 0064 0D       		.uleb128 0xd
 1714 0065 00       		.byte	0
 1715 0066 03       		.uleb128 0x3
 1716 0067 08       		.uleb128 0x8
 1717 0068 3A       		.uleb128 0x3a
 1718 0069 0B       		.uleb128 0xb
 1719 006a 3B       		.uleb128 0x3b
 1720 006b 05       		.uleb128 0x5
 1721 006c 49       		.uleb128 0x49
 1722 006d 13       		.uleb128 0x13
 1723 006e 38       		.uleb128 0x38
 1724 006f 0B       		.uleb128 0xb
 1725 0070 00       		.byte	0
 1726 0071 00       		.byte	0
 1727 0072 0B       		.uleb128 0xb
 1728 0073 0D       		.uleb128 0xd
 1729 0074 00       		.byte	0
 1730 0075 03       		.uleb128 0x3
 1731 0076 0E       		.uleb128 0xe
 1732 0077 3A       		.uleb128 0x3a
 1733 0078 0B       		.uleb128 0xb
 1734 0079 3B       		.uleb128 0x3b
 1735 007a 05       		.uleb128 0x5
 1736 007b 49       		.uleb128 0x49
 1737 007c 13       		.uleb128 0x13
 1738 007d 38       		.uleb128 0x38
 1739 007e 0B       		.uleb128 0xb
 1740 007f 00       		.byte	0
 1741 0080 00       		.byte	0
 1742 0081 0C       		.uleb128 0xc
 1743 0082 16       		.uleb128 0x16
 1744 0083 00       		.byte	0
 1745 0084 03       		.uleb128 0x3
 1746 0085 0E       		.uleb128 0xe
 1747 0086 3A       		.uleb128 0x3a
 1748 0087 0B       		.uleb128 0xb
 1749 0088 3B       		.uleb128 0x3b
 1750 0089 05       		.uleb128 0x5
 1751 008a 49       		.uleb128 0x49
 1752 008b 13       		.uleb128 0x13
 1753 008c 00       		.byte	0
 1754 008d 00       		.byte	0
 1755 008e 0D       		.uleb128 0xd
 1756 008f 04       		.uleb128 0x4
 1757 0090 01       		.byte	0x1
ARM GAS  /var/folders/qh/xwg3v3kj02qbxczjpdb8lzfr0000gn/T//ccaxxSn2.s 			page 32


 1758 0091 0B       		.uleb128 0xb
 1759 0092 0B       		.uleb128 0xb
 1760 0093 3A       		.uleb128 0x3a
 1761 0094 0B       		.uleb128 0xb
 1762 0095 3B       		.uleb128 0x3b
 1763 0096 0B       		.uleb128 0xb
 1764 0097 01       		.uleb128 0x1
 1765 0098 13       		.uleb128 0x13
 1766 0099 00       		.byte	0
 1767 009a 00       		.byte	0
 1768 009b 0E       		.uleb128 0xe
 1769 009c 28       		.uleb128 0x28
 1770 009d 00       		.byte	0
 1771 009e 03       		.uleb128 0x3
 1772 009f 0E       		.uleb128 0xe
 1773 00a0 1C       		.uleb128 0x1c
 1774 00a1 0D       		.uleb128 0xd
 1775 00a2 00       		.byte	0
 1776 00a3 00       		.byte	0
 1777 00a4 0F       		.uleb128 0xf
 1778 00a5 13       		.uleb128 0x13
 1779 00a6 01       		.byte	0x1
 1780 00a7 03       		.uleb128 0x3
 1781 00a8 0E       		.uleb128 0xe
 1782 00a9 0B       		.uleb128 0xb
 1783 00aa 0B       		.uleb128 0xb
 1784 00ab 3A       		.uleb128 0x3a
 1785 00ac 0B       		.uleb128 0xb
 1786 00ad 3B       		.uleb128 0x3b
 1787 00ae 05       		.uleb128 0x5
 1788 00af 01       		.uleb128 0x1
 1789 00b0 13       		.uleb128 0x13
 1790 00b1 00       		.byte	0
 1791 00b2 00       		.byte	0
 1792 00b3 10       		.uleb128 0x10
 1793 00b4 0F       		.uleb128 0xf
 1794 00b5 00       		.byte	0
 1795 00b6 0B       		.uleb128 0xb
 1796 00b7 0B       		.uleb128 0xb
 1797 00b8 49       		.uleb128 0x49
 1798 00b9 13       		.uleb128 0x13
 1799 00ba 00       		.byte	0
 1800 00bb 00       		.byte	0
 1801 00bc 11       		.uleb128 0x11
 1802 00bd 15       		.uleb128 0x15
 1803 00be 01       		.byte	0x1
 1804 00bf 27       		.uleb128 0x27
 1805 00c0 19       		.uleb128 0x19
 1806 00c1 01       		.uleb128 0x1
 1807 00c2 13       		.uleb128 0x13
 1808 00c3 00       		.byte	0
 1809 00c4 00       		.byte	0
 1810 00c5 12       		.uleb128 0x12
 1811 00c6 05       		.uleb128 0x5
 1812 00c7 00       		.byte	0
 1813 00c8 49       		.uleb128 0x49
 1814 00c9 13       		.uleb128 0x13
ARM GAS  /var/folders/qh/xwg3v3kj02qbxczjpdb8lzfr0000gn/T//ccaxxSn2.s 			page 33


 1815 00ca 00       		.byte	0
 1816 00cb 00       		.byte	0
 1817 00cc 13       		.uleb128 0x13
 1818 00cd 26       		.uleb128 0x26
 1819 00ce 00       		.byte	0
 1820 00cf 49       		.uleb128 0x49
 1821 00d0 13       		.uleb128 0x13
 1822 00d1 00       		.byte	0
 1823 00d2 00       		.byte	0
 1824 00d3 14       		.uleb128 0x14
 1825 00d4 2E       		.uleb128 0x2e
 1826 00d5 01       		.byte	0x1
 1827 00d6 3F       		.uleb128 0x3f
 1828 00d7 19       		.uleb128 0x19
 1829 00d8 03       		.uleb128 0x3
 1830 00d9 0E       		.uleb128 0xe
 1831 00da 3A       		.uleb128 0x3a
 1832 00db 0B       		.uleb128 0xb
 1833 00dc 3B       		.uleb128 0x3b
 1834 00dd 0B       		.uleb128 0xb
 1835 00de 27       		.uleb128 0x27
 1836 00df 19       		.uleb128 0x19
 1837 00e0 11       		.uleb128 0x11
 1838 00e1 01       		.uleb128 0x1
 1839 00e2 12       		.uleb128 0x12
 1840 00e3 06       		.uleb128 0x6
 1841 00e4 40       		.uleb128 0x40
 1842 00e5 18       		.uleb128 0x18
 1843 00e6 9742     		.uleb128 0x2117
 1844 00e8 19       		.uleb128 0x19
 1845 00e9 01       		.uleb128 0x1
 1846 00ea 13       		.uleb128 0x13
 1847 00eb 00       		.byte	0
 1848 00ec 00       		.byte	0
 1849 00ed 15       		.uleb128 0x15
 1850 00ee 34       		.uleb128 0x34
 1851 00ef 00       		.byte	0
 1852 00f0 03       		.uleb128 0x3
 1853 00f1 0E       		.uleb128 0xe
 1854 00f2 3A       		.uleb128 0x3a
 1855 00f3 0B       		.uleb128 0xb
 1856 00f4 3B       		.uleb128 0x3b
 1857 00f5 0B       		.uleb128 0xb
 1858 00f6 49       		.uleb128 0x49
 1859 00f7 13       		.uleb128 0x13
 1860 00f8 02       		.uleb128 0x2
 1861 00f9 17       		.uleb128 0x17
 1862 00fa 00       		.byte	0
 1863 00fb 00       		.byte	0
 1864 00fc 16       		.uleb128 0x16
 1865 00fd 898201   		.uleb128 0x4109
 1866 0100 00       		.byte	0
 1867 0101 11       		.uleb128 0x11
 1868 0102 01       		.uleb128 0x1
 1869 0103 31       		.uleb128 0x31
 1870 0104 13       		.uleb128 0x13
 1871 0105 00       		.byte	0
ARM GAS  /var/folders/qh/xwg3v3kj02qbxczjpdb8lzfr0000gn/T//ccaxxSn2.s 			page 34


 1872 0106 00       		.byte	0
 1873 0107 17       		.uleb128 0x17
 1874 0108 898201   		.uleb128 0x4109
 1875 010b 01       		.byte	0x1
 1876 010c 11       		.uleb128 0x11
 1877 010d 01       		.uleb128 0x1
 1878 010e 01       		.uleb128 0x1
 1879 010f 13       		.uleb128 0x13
 1880 0110 00       		.byte	0
 1881 0111 00       		.byte	0
 1882 0112 18       		.uleb128 0x18
 1883 0113 8A8201   		.uleb128 0x410a
 1884 0116 00       		.byte	0
 1885 0117 02       		.uleb128 0x2
 1886 0118 18       		.uleb128 0x18
 1887 0119 9142     		.uleb128 0x2111
 1888 011b 18       		.uleb128 0x18
 1889 011c 00       		.byte	0
 1890 011d 00       		.byte	0
 1891 011e 19       		.uleb128 0x19
 1892 011f 898201   		.uleb128 0x4109
 1893 0122 01       		.byte	0x1
 1894 0123 11       		.uleb128 0x11
 1895 0124 01       		.uleb128 0x1
 1896 0125 31       		.uleb128 0x31
 1897 0126 13       		.uleb128 0x13
 1898 0127 00       		.byte	0
 1899 0128 00       		.byte	0
 1900 0129 1A       		.uleb128 0x1a
 1901 012a 34       		.uleb128 0x34
 1902 012b 00       		.byte	0
 1903 012c 03       		.uleb128 0x3
 1904 012d 08       		.uleb128 0x8
 1905 012e 3A       		.uleb128 0x3a
 1906 012f 0B       		.uleb128 0xb
 1907 0130 3B       		.uleb128 0x3b
 1908 0131 0B       		.uleb128 0xb
 1909 0132 49       		.uleb128 0x49
 1910 0133 13       		.uleb128 0x13
 1911 0134 02       		.uleb128 0x2
 1912 0135 17       		.uleb128 0x17
 1913 0136 00       		.byte	0
 1914 0137 00       		.byte	0
 1915 0138 1B       		.uleb128 0x1b
 1916 0139 898201   		.uleb128 0x4109
 1917 013c 01       		.byte	0x1
 1918 013d 11       		.uleb128 0x11
 1919 013e 01       		.uleb128 0x1
 1920 013f 31       		.uleb128 0x31
 1921 0140 13       		.uleb128 0x13
 1922 0141 01       		.uleb128 0x1
 1923 0142 13       		.uleb128 0x13
 1924 0143 00       		.byte	0
 1925 0144 00       		.byte	0
 1926 0145 1C       		.uleb128 0x1c
 1927 0146 898201   		.uleb128 0x4109
 1928 0149 01       		.byte	0x1
ARM GAS  /var/folders/qh/xwg3v3kj02qbxczjpdb8lzfr0000gn/T//ccaxxSn2.s 			page 35


 1929 014a 11       		.uleb128 0x11
 1930 014b 01       		.uleb128 0x1
 1931 014c 00       		.byte	0
 1932 014d 00       		.byte	0
 1933 014e 1D       		.uleb128 0x1d
 1934 014f 2E       		.uleb128 0x2e
 1935 0150 01       		.byte	0x1
 1936 0151 3F       		.uleb128 0x3f
 1937 0152 19       		.uleb128 0x19
 1938 0153 03       		.uleb128 0x3
 1939 0154 0E       		.uleb128 0xe
 1940 0155 3A       		.uleb128 0x3a
 1941 0156 0B       		.uleb128 0xb
 1942 0157 3B       		.uleb128 0x3b
 1943 0158 05       		.uleb128 0x5
 1944 0159 27       		.uleb128 0x27
 1945 015a 19       		.uleb128 0x19
 1946 015b 11       		.uleb128 0x11
 1947 015c 01       		.uleb128 0x1
 1948 015d 12       		.uleb128 0x12
 1949 015e 06       		.uleb128 0x6
 1950 015f 40       		.uleb128 0x40
 1951 0160 18       		.uleb128 0x18
 1952 0161 9742     		.uleb128 0x2117
 1953 0163 19       		.uleb128 0x19
 1954 0164 01       		.uleb128 0x1
 1955 0165 13       		.uleb128 0x13
 1956 0166 00       		.byte	0
 1957 0167 00       		.byte	0
 1958 0168 1E       		.uleb128 0x1e
 1959 0169 2E       		.uleb128 0x2e
 1960 016a 01       		.byte	0x1
 1961 016b 3F       		.uleb128 0x3f
 1962 016c 19       		.uleb128 0x19
 1963 016d 03       		.uleb128 0x3
 1964 016e 0E       		.uleb128 0xe
 1965 016f 3A       		.uleb128 0x3a
 1966 0170 0B       		.uleb128 0xb
 1967 0171 3B       		.uleb128 0x3b
 1968 0172 05       		.uleb128 0x5
 1969 0173 27       		.uleb128 0x27
 1970 0174 19       		.uleb128 0x19
 1971 0175 11       		.uleb128 0x11
 1972 0176 01       		.uleb128 0x1
 1973 0177 12       		.uleb128 0x12
 1974 0178 06       		.uleb128 0x6
 1975 0179 40       		.uleb128 0x40
 1976 017a 18       		.uleb128 0x18
 1977 017b 9642     		.uleb128 0x2116
 1978 017d 19       		.uleb128 0x19
 1979 017e 01       		.uleb128 0x1
 1980 017f 13       		.uleb128 0x13
 1981 0180 00       		.byte	0
 1982 0181 00       		.byte	0
 1983 0182 1F       		.uleb128 0x1f
 1984 0183 05       		.uleb128 0x5
 1985 0184 00       		.byte	0
ARM GAS  /var/folders/qh/xwg3v3kj02qbxczjpdb8lzfr0000gn/T//ccaxxSn2.s 			page 36


 1986 0185 03       		.uleb128 0x3
 1987 0186 0E       		.uleb128 0xe
 1988 0187 3A       		.uleb128 0x3a
 1989 0188 0B       		.uleb128 0xb
 1990 0189 3B       		.uleb128 0x3b
 1991 018a 05       		.uleb128 0x5
 1992 018b 49       		.uleb128 0x49
 1993 018c 13       		.uleb128 0x13
 1994 018d 02       		.uleb128 0x2
 1995 018e 17       		.uleb128 0x17
 1996 018f 00       		.byte	0
 1997 0190 00       		.byte	0
 1998 0191 20       		.uleb128 0x20
 1999 0192 34       		.uleb128 0x34
 2000 0193 00       		.byte	0
 2001 0194 03       		.uleb128 0x3
 2002 0195 08       		.uleb128 0x8
 2003 0196 3A       		.uleb128 0x3a
 2004 0197 0B       		.uleb128 0xb
 2005 0198 3B       		.uleb128 0x3b
 2006 0199 05       		.uleb128 0x5
 2007 019a 49       		.uleb128 0x49
 2008 019b 13       		.uleb128 0x13
 2009 019c 02       		.uleb128 0x2
 2010 019d 17       		.uleb128 0x17
 2011 019e 00       		.byte	0
 2012 019f 00       		.byte	0
 2013 01a0 21       		.uleb128 0x21
 2014 01a1 34       		.uleb128 0x34
 2015 01a2 00       		.byte	0
 2016 01a3 03       		.uleb128 0x3
 2017 01a4 0E       		.uleb128 0xe
 2018 01a5 3A       		.uleb128 0x3a
 2019 01a6 0B       		.uleb128 0xb
 2020 01a7 3B       		.uleb128 0x3b
 2021 01a8 05       		.uleb128 0x5
 2022 01a9 49       		.uleb128 0x49
 2023 01aa 13       		.uleb128 0x13
 2024 01ab 02       		.uleb128 0x2
 2025 01ac 17       		.uleb128 0x17
 2026 01ad 00       		.byte	0
 2027 01ae 00       		.byte	0
 2028 01af 22       		.uleb128 0x22
 2029 01b0 0B       		.uleb128 0xb
 2030 01b1 01       		.byte	0x1
 2031 01b2 11       		.uleb128 0x11
 2032 01b3 01       		.uleb128 0x1
 2033 01b4 12       		.uleb128 0x12
 2034 01b5 06       		.uleb128 0x6
 2035 01b6 00       		.byte	0
 2036 01b7 00       		.byte	0
 2037 01b8 23       		.uleb128 0x23
 2038 01b9 05       		.uleb128 0x5
 2039 01ba 00       		.byte	0
 2040 01bb 03       		.uleb128 0x3
 2041 01bc 0E       		.uleb128 0xe
 2042 01bd 3A       		.uleb128 0x3a
ARM GAS  /var/folders/qh/xwg3v3kj02qbxczjpdb8lzfr0000gn/T//ccaxxSn2.s 			page 37


 2043 01be 0B       		.uleb128 0xb
 2044 01bf 3B       		.uleb128 0x3b
 2045 01c0 05       		.uleb128 0x5
 2046 01c1 49       		.uleb128 0x49
 2047 01c2 13       		.uleb128 0x13
 2048 01c3 02       		.uleb128 0x2
 2049 01c4 18       		.uleb128 0x18
 2050 01c5 00       		.byte	0
 2051 01c6 00       		.byte	0
 2052 01c7 24       		.uleb128 0x24
 2053 01c8 34       		.uleb128 0x34
 2054 01c9 00       		.byte	0
 2055 01ca 03       		.uleb128 0x3
 2056 01cb 0E       		.uleb128 0xe
 2057 01cc 3A       		.uleb128 0x3a
 2058 01cd 0B       		.uleb128 0xb
 2059 01ce 3B       		.uleb128 0x3b
 2060 01cf 0B       		.uleb128 0xb
 2061 01d0 49       		.uleb128 0x49
 2062 01d1 13       		.uleb128 0x13
 2063 01d2 3F       		.uleb128 0x3f
 2064 01d3 19       		.uleb128 0x19
 2065 01d4 02       		.uleb128 0x2
 2066 01d5 18       		.uleb128 0x18
 2067 01d6 00       		.byte	0
 2068 01d7 00       		.byte	0
 2069 01d8 25       		.uleb128 0x25
 2070 01d9 2E       		.uleb128 0x2e
 2071 01da 00       		.byte	0
 2072 01db 3F       		.uleb128 0x3f
 2073 01dc 19       		.uleb128 0x19
 2074 01dd 03       		.uleb128 0x3
 2075 01de 0E       		.uleb128 0xe
 2076 01df 3A       		.uleb128 0x3a
 2077 01e0 0B       		.uleb128 0xb
 2078 01e1 3B       		.uleb128 0x3b
 2079 01e2 0B       		.uleb128 0xb
 2080 01e3 27       		.uleb128 0x27
 2081 01e4 19       		.uleb128 0x19
 2082 01e5 3C       		.uleb128 0x3c
 2083 01e6 19       		.uleb128 0x19
 2084 01e7 00       		.byte	0
 2085 01e8 00       		.byte	0
 2086 01e9 26       		.uleb128 0x26
 2087 01ea 2E       		.uleb128 0x2e
 2088 01eb 01       		.byte	0x1
 2089 01ec 3F       		.uleb128 0x3f
 2090 01ed 19       		.uleb128 0x19
 2091 01ee 03       		.uleb128 0x3
 2092 01ef 0E       		.uleb128 0xe
 2093 01f0 3A       		.uleb128 0x3a
 2094 01f1 0B       		.uleb128 0xb
 2095 01f2 3B       		.uleb128 0x3b
 2096 01f3 05       		.uleb128 0x5
 2097 01f4 27       		.uleb128 0x27
 2098 01f5 19       		.uleb128 0x19
 2099 01f6 3C       		.uleb128 0x3c
ARM GAS  /var/folders/qh/xwg3v3kj02qbxczjpdb8lzfr0000gn/T//ccaxxSn2.s 			page 38


 2100 01f7 19       		.uleb128 0x19
 2101 01f8 01       		.uleb128 0x1
 2102 01f9 13       		.uleb128 0x13
 2103 01fa 00       		.byte	0
 2104 01fb 00       		.byte	0
 2105 01fc 27       		.uleb128 0x27
 2106 01fd 2E       		.uleb128 0x2e
 2107 01fe 01       		.byte	0x1
 2108 01ff 3F       		.uleb128 0x3f
 2109 0200 19       		.uleb128 0x19
 2110 0201 03       		.uleb128 0x3
 2111 0202 0E       		.uleb128 0xe
 2112 0203 3A       		.uleb128 0x3a
 2113 0204 0B       		.uleb128 0xb
 2114 0205 3B       		.uleb128 0x3b
 2115 0206 0B       		.uleb128 0xb
 2116 0207 27       		.uleb128 0x27
 2117 0208 19       		.uleb128 0x19
 2118 0209 3C       		.uleb128 0x3c
 2119 020a 19       		.uleb128 0x19
 2120 020b 01       		.uleb128 0x1
 2121 020c 13       		.uleb128 0x13
 2122 020d 00       		.byte	0
 2123 020e 00       		.byte	0
 2124 020f 28       		.uleb128 0x28
 2125 0210 2E       		.uleb128 0x2e
 2126 0211 01       		.byte	0x1
 2127 0212 3F       		.uleb128 0x3f
 2128 0213 19       		.uleb128 0x19
 2129 0214 03       		.uleb128 0x3
 2130 0215 0E       		.uleb128 0xe
 2131 0216 3A       		.uleb128 0x3a
 2132 0217 0B       		.uleb128 0xb
 2133 0218 3B       		.uleb128 0x3b
 2134 0219 05       		.uleb128 0x5
 2135 021a 27       		.uleb128 0x27
 2136 021b 19       		.uleb128 0x19
 2137 021c 3C       		.uleb128 0x3c
 2138 021d 19       		.uleb128 0x19
 2139 021e 00       		.byte	0
 2140 021f 00       		.byte	0
 2141 0220 00       		.byte	0
 2142              		.section	.debug_loc,"",%progbits
 2143              	.Ldebug_loc0:
 2144              	.LLST0:
 2145 0000 04000000 		.4byte	.LVL0
 2146 0004 22000000 		.4byte	.LVL5
 2147 0008 0100     		.2byte	0x1
 2148 000a 54       		.byte	0x54
 2149 000b 00000000 		.4byte	0
 2150 000f 00000000 		.4byte	0
 2151              	.LLST1:
 2152 0013 12000000 		.4byte	.LVL8
 2153 0017 3C000000 		.4byte	.LVL12
 2154 001b 0600     		.2byte	0x6
 2155 001d 74       		.byte	0x74
 2156 001e 00       		.sleb128 0
ARM GAS  /var/folders/qh/xwg3v3kj02qbxczjpdb8lzfr0000gn/T//ccaxxSn2.s 			page 39


 2157 001f 08       		.byte	0x8
 2158 0020 FF       		.byte	0xff
 2159 0021 1A       		.byte	0x1a
 2160 0022 9F       		.byte	0x9f
 2161 0023 3E000000 		.4byte	.LVL14
 2162 0027 64000000 		.4byte	.LFE41
 2163 002b 0600     		.2byte	0x6
 2164 002d 74       		.byte	0x74
 2165 002e 00       		.sleb128 0
 2166 002f 08       		.byte	0x8
 2167 0030 FF       		.byte	0xff
 2168 0031 1A       		.byte	0x1a
 2169 0032 9F       		.byte	0x9f
 2170 0033 00000000 		.4byte	0
 2171 0037 00000000 		.4byte	0
 2172              	.LLST2:
 2173 003b 04000000 		.4byte	.LVL6
 2174 003f 3C000000 		.4byte	.LVL13
 2175 0043 0100     		.2byte	0x1
 2176 0045 55       		.byte	0x55
 2177 0046 3E000000 		.4byte	.LVL14
 2178 004a 64000000 		.4byte	.LFE41
 2179 004e 0100     		.2byte	0x1
 2180 0050 55       		.byte	0x55
 2181 0051 00000000 		.4byte	0
 2182 0055 00000000 		.4byte	0
 2183              	.LLST3:
 2184 0059 00000000 		.4byte	.LVL19
 2185 005d 16000000 		.4byte	.LVL20
 2186 0061 0100     		.2byte	0x1
 2187 0063 50       		.byte	0x50
 2188 0064 16000000 		.4byte	.LVL20
 2189 0068 BC000000 		.4byte	.LVL31
 2190 006c 0100     		.2byte	0x1
 2191 006e 56       		.byte	0x56
 2192 006f BC000000 		.4byte	.LVL31
 2193 0073 C2000000 		.4byte	.LVL32
 2194 0077 0400     		.2byte	0x4
 2195 0079 F3       		.byte	0xf3
 2196 007a 01       		.uleb128 0x1
 2197 007b 50       		.byte	0x50
 2198 007c 9F       		.byte	0x9f
 2199 007d C2000000 		.4byte	.LVL32
 2200 0081 44010000 		.4byte	.LVL50
 2201 0085 0100     		.2byte	0x1
 2202 0087 56       		.byte	0x56
 2203 0088 44010000 		.4byte	.LVL50
 2204 008c 4A010000 		.4byte	.LVL51
 2205 0090 0100     		.2byte	0x1
 2206 0092 50       		.byte	0x50
 2207 0093 4A010000 		.4byte	.LVL51
 2208 0097 56010000 		.4byte	.LVL52
 2209 009b 0100     		.2byte	0x1
 2210 009d 56       		.byte	0x56
 2211 009e 56010000 		.4byte	.LVL52
 2212 00a2 66010000 		.4byte	.LVL53
 2213 00a6 0100     		.2byte	0x1
ARM GAS  /var/folders/qh/xwg3v3kj02qbxczjpdb8lzfr0000gn/T//ccaxxSn2.s 			page 40


 2214 00a8 50       		.byte	0x50
 2215 00a9 66010000 		.4byte	.LVL53
 2216 00ad 94010000 		.4byte	.LFE43
 2217 00b1 0100     		.2byte	0x1
 2218 00b3 56       		.byte	0x56
 2219 00b4 00000000 		.4byte	0
 2220 00b8 00000000 		.4byte	0
 2221              	.LLST4:
 2222 00bc 2E000000 		.4byte	.LVL21
 2223 00c0 35000000 		.4byte	.LVL22-1
 2224 00c4 1000     		.2byte	0x10
 2225 00c6 76       		.byte	0x76
 2226 00c7 0C       		.sleb128 12
 2227 00c8 06       		.byte	0x6
 2228 00c9 F7       		.byte	0xf7
 2229 00ca 25       		.uleb128 0x25
 2230 00cb 75       		.byte	0x75
 2231 00cc 00       		.sleb128 0
 2232 00cd 06       		.byte	0x6
 2233 00ce F7       		.byte	0xf7
 2234 00cf 25       		.uleb128 0x25
 2235 00d0 1B       		.byte	0x1b
 2236 00d1 F7       		.byte	0xf7
 2237 00d2 00       		.uleb128 0
 2238 00d3 31       		.byte	0x31
 2239 00d4 1C       		.byte	0x1c
 2240 00d5 9F       		.byte	0x9f
 2241 00d6 00000000 		.4byte	0
 2242 00da 00000000 		.4byte	0
 2243              	.LLST5:
 2244 00de 4A000000 		.4byte	.LVL23
 2245 00e2 62000000 		.4byte	.LVL24
 2246 00e6 0200     		.2byte	0x2
 2247 00e8 30       		.byte	0x30
 2248 00e9 9F       		.byte	0x9f
 2249 00ea 62000000 		.4byte	.LVL24
 2250 00ee 90000000 		.4byte	.LVL26
 2251 00f2 0100     		.2byte	0x1
 2252 00f4 53       		.byte	0x53
 2253 00f5 94000000 		.4byte	.LVL27
 2254 00f9 9C000000 		.4byte	.LVL29
 2255 00fd 0100     		.2byte	0x1
 2256 00ff 53       		.byte	0x53
 2257 0100 9C000000 		.4byte	.LVL29
 2258 0104 A0000000 		.4byte	.LVL30
 2259 0108 0400     		.2byte	0x4
 2260 010a 74       		.byte	0x74
 2261 010b 20       		.sleb128 32
 2262 010c 06       		.byte	0x6
 2263 010d 9F       		.byte	0x9f
 2264 010e C2000000 		.4byte	.LVL32
 2265 0112 E2000000 		.4byte	.LVL37
 2266 0116 0100     		.2byte	0x1
 2267 0118 53       		.byte	0x53
 2268 0119 F2000000 		.4byte	.LVL38
 2269 011d 32010000 		.4byte	.LVL46
 2270 0121 0100     		.2byte	0x1
ARM GAS  /var/folders/qh/xwg3v3kj02qbxczjpdb8lzfr0000gn/T//ccaxxSn2.s 			page 41


 2271 0123 53       		.byte	0x53
 2272 0124 38010000 		.4byte	.LVL47
 2273 0128 40010000 		.4byte	.LVL49
 2274 012c 0100     		.2byte	0x1
 2275 012e 53       		.byte	0x53
 2276 012f 40010000 		.4byte	.LVL49
 2277 0133 44010000 		.4byte	.LVL50
 2278 0137 0200     		.2byte	0x2
 2279 0139 30       		.byte	0x30
 2280 013a 9F       		.byte	0x9f
 2281 013b 00000000 		.4byte	0
 2282 013f 00000000 		.4byte	0
 2283              	.LLST6:
 2284 0143 00000000 		.4byte	.LVL56
 2285 0147 08000000 		.4byte	.LVL57
 2286 014b 0100     		.2byte	0x1
 2287 014d 50       		.byte	0x50
 2288 014e 08000000 		.4byte	.LVL57
 2289 0152 0A000000 		.4byte	.LVL58
 2290 0156 0400     		.2byte	0x4
 2291 0158 F3       		.byte	0xf3
 2292 0159 01       		.uleb128 0x1
 2293 015a 50       		.byte	0x50
 2294 015b 9F       		.byte	0x9f
 2295 015c 0A000000 		.4byte	.LVL58
 2296 0160 1E000000 		.4byte	.LVL59
 2297 0164 0100     		.2byte	0x1
 2298 0166 50       		.byte	0x50
 2299 0167 1E000000 		.4byte	.LVL59
 2300 016b 40000000 		.4byte	.LFE44
 2301 016f 0400     		.2byte	0x4
 2302 0171 F3       		.byte	0xf3
 2303 0172 01       		.uleb128 0x1
 2304 0173 50       		.byte	0x50
 2305 0174 9F       		.byte	0x9f
 2306 0175 00000000 		.4byte	0
 2307 0179 00000000 		.4byte	0
 2308              	.LLST7:
 2309 017d 00000000 		.4byte	.LVL62
 2310 0181 10000000 		.4byte	.LVL63
 2311 0185 0100     		.2byte	0x1
 2312 0187 50       		.byte	0x50
 2313 0188 10000000 		.4byte	.LVL63
 2314 018c 30000000 		.4byte	.LFE45
 2315 0190 0400     		.2byte	0x4
 2316 0192 F3       		.byte	0xf3
 2317 0193 01       		.uleb128 0x1
 2318 0194 50       		.byte	0x50
 2319 0195 9F       		.byte	0x9f
 2320 0196 00000000 		.4byte	0
 2321 019a 00000000 		.4byte	0
 2322              	.LLST8:
 2323 019e 00000000 		.4byte	.LVL62
 2324 01a2 2A000000 		.4byte	.LVL67
 2325 01a6 0100     		.2byte	0x1
 2326 01a8 51       		.byte	0x51
 2327 01a9 2A000000 		.4byte	.LVL67
ARM GAS  /var/folders/qh/xwg3v3kj02qbxczjpdb8lzfr0000gn/T//ccaxxSn2.s 			page 42


 2328 01ad 30000000 		.4byte	.LFE45
 2329 01b1 0400     		.2byte	0x4
 2330 01b3 F3       		.byte	0xf3
 2331 01b4 01       		.uleb128 0x1
 2332 01b5 51       		.byte	0x51
 2333 01b6 9F       		.byte	0x9f
 2334 01b7 00000000 		.4byte	0
 2335 01bb 00000000 		.4byte	0
 2336              	.LLST9:
 2337 01bf 00000000 		.4byte	.LVL62
 2338 01c3 12000000 		.4byte	.LVL64
 2339 01c7 0100     		.2byte	0x1
 2340 01c9 52       		.byte	0x52
 2341 01ca 12000000 		.4byte	.LVL64
 2342 01ce 30000000 		.4byte	.LFE45
 2343 01d2 0400     		.2byte	0x4
 2344 01d4 F3       		.byte	0xf3
 2345 01d5 01       		.uleb128 0x1
 2346 01d6 52       		.byte	0x52
 2347 01d7 9F       		.byte	0x9f
 2348 01d8 00000000 		.4byte	0
 2349 01dc 00000000 		.4byte	0
 2350              	.LLST10:
 2351 01e0 20000000 		.4byte	.LVL65
 2352 01e4 28000000 		.4byte	.LVL66
 2353 01e8 0100     		.2byte	0x1
 2354 01ea 52       		.byte	0x52
 2355 01eb 00000000 		.4byte	0
 2356 01ef 00000000 		.4byte	0
 2357              	.LLST11:
 2358 01f3 00000000 		.4byte	.LVL68
 2359 01f7 0C000000 		.4byte	.LVL69
 2360 01fb 0100     		.2byte	0x1
 2361 01fd 50       		.byte	0x50
 2362 01fe 0C000000 		.4byte	.LVL69
 2363 0202 1A000000 		.4byte	.LFE46
 2364 0206 0400     		.2byte	0x4
 2365 0208 F3       		.byte	0xf3
 2366 0209 01       		.uleb128 0x1
 2367 020a 50       		.byte	0x50
 2368 020b 9F       		.byte	0x9f
 2369 020c 00000000 		.4byte	0
 2370 0210 00000000 		.4byte	0
 2371              		.section	.debug_aranges,"",%progbits
 2372 0000 4C000000 		.4byte	0x4c
 2373 0004 0200     		.2byte	0x2
 2374 0006 00000000 		.4byte	.Ldebug_info0
 2375 000a 04       		.byte	0x4
 2376 000b 00       		.byte	0
 2377 000c 0000     		.2byte	0
 2378 000e 0000     		.2byte	0
 2379 0010 00000000 		.4byte	.LFB40
 2380 0014 2C000000 		.4byte	.LFE40-.LFB40
 2381 0018 00000000 		.4byte	.LFB41
 2382 001c 64000000 		.4byte	.LFE41-.LFB41
 2383 0020 00000000 		.4byte	.LFB42
 2384 0024 18000000 		.4byte	.LFE42-.LFB42
ARM GAS  /var/folders/qh/xwg3v3kj02qbxczjpdb8lzfr0000gn/T//ccaxxSn2.s 			page 43


 2385 0028 00000000 		.4byte	.LFB43
 2386 002c 94010000 		.4byte	.LFE43-.LFB43
 2387 0030 00000000 		.4byte	.LFB44
 2388 0034 40000000 		.4byte	.LFE44-.LFB44
 2389 0038 00000000 		.4byte	.LFB45
 2390 003c 30000000 		.4byte	.LFE45-.LFB45
 2391 0040 00000000 		.4byte	.LFB46
 2392 0044 1A000000 		.4byte	.LFE46-.LFB46
 2393 0048 00000000 		.4byte	0
 2394 004c 00000000 		.4byte	0
 2395              		.section	.debug_ranges,"",%progbits
 2396              	.Ldebug_ranges0:
 2397 0000 00000000 		.4byte	.LFB40
 2398 0004 2C000000 		.4byte	.LFE40
 2399 0008 00000000 		.4byte	.LFB41
 2400 000c 64000000 		.4byte	.LFE41
 2401 0010 00000000 		.4byte	.LFB42
 2402 0014 18000000 		.4byte	.LFE42
 2403 0018 00000000 		.4byte	.LFB43
 2404 001c 94010000 		.4byte	.LFE43
 2405 0020 00000000 		.4byte	.LFB44
 2406 0024 40000000 		.4byte	.LFE44
 2407 0028 00000000 		.4byte	.LFB45
 2408 002c 30000000 		.4byte	.LFE45
 2409 0030 00000000 		.4byte	.LFB46
 2410 0034 1A000000 		.4byte	.LFE46
 2411 0038 00000000 		.4byte	0
 2412 003c 00000000 		.4byte	0
 2413              		.section	.debug_line,"",%progbits
 2414              	.Ldebug_line0:
 2415 0000 90020000 		.section	.debug_str,"MS",%progbits,1
 2415      02007501 
 2415      00000201 
 2415      FB0E0D00 
 2415      01010101 
 2416              	.LASF8:
 2417 0000 75696E74 		.ascii	"uint32_t\000"
 2417      33325F74 
 2417      00
 2418              	.LASF41:
 2419 0009 43434552 		.ascii	"CCER\000"
 2419      00
 2420              	.LASF18:
 2421 000e 41504231 		.ascii	"APB1RSTR\000"
 2421      52535452 
 2421      00
 2422              	.LASF75:
 2423 0017 6E766963 		.ascii	"nvicEnableVector\000"
 2423      456E6162 
 2423      6C655665 
 2423      63746F72 
 2423      00
 2424              	.LASF67:
 2425 0028 70776D5F 		.ascii	"pwm_lld_enable_channel\000"
 2425      6C6C645F 
 2425      656E6162 
 2425      6C655F63 
ARM GAS  /var/folders/qh/xwg3v3kj02qbxczjpdb8lzfr0000gn/T//ccaxxSn2.s 			page 44


 2425      68616E6E 
 2426              	.LASF39:
 2427 003f 43434D52 		.ascii	"CCMR1\000"
 2427      3100
 2428              	.LASF40:
 2429 0045 43434D52 		.ascii	"CCMR2\000"
 2429      3200
 2430              	.LASF3:
 2431 004b 73686F72 		.ascii	"short int\000"
 2431      7420696E 
 2431      7400
 2432              	.LASF50:
 2433 0055 70776D63 		.ascii	"pwmcnt_t\000"
 2433      6E745F74 
 2433      00
 2434              	.LASF22:
 2435 005e 42444352 		.ascii	"BDCR\000"
 2435      00
 2436              	.LASF80:
 2437 0063 6E766963 		.ascii	"nvicDisableVector\000"
 2437      44697361 
 2437      626C6556 
 2437      6563746F 
 2437      7200
 2438              	.LASF49:
 2439 0075 70776D63 		.ascii	"pwmchannel_t\000"
 2439      68616E6E 
 2439      656C5F74 
 2439      00
 2440              	.LASF51:
 2441 0082 6D6F6465 		.ascii	"mode\000"
 2441      00
 2442              	.LASF55:
 2443 0087 6368616E 		.ascii	"channels\000"
 2443      6E656C73 
 2443      00
 2444              	.LASF77:
 2445 0090 2E2E2F2E 		.ascii	"../../os/hal/platforms/STM32/TIMv1/pwm_lld.c\000"
 2445      2E2F6F73 
 2445      2F68616C 
 2445      2F706C61 
 2445      74666F72 
 2446              	.LASF33:
 2447 00bd 636F6E66 		.ascii	"config\000"
 2447      696700
 2448              	.LASF16:
 2449 00c4 43464752 		.ascii	"CFGR\000"
 2449      00
 2450              	.LASF13:
 2451 00c9 72656761 		.ascii	"regarm_t\000"
 2451      726D5F74 
 2451      00
 2452              	.LASF74:
 2453 00d2 70776D4F 		.ascii	"pwmObjectInit\000"
 2453      626A6563 
 2453      74496E69 
 2453      7400
ARM GAS  /var/folders/qh/xwg3v3kj02qbxczjpdb8lzfr0000gn/T//ccaxxSn2.s 			page 45


 2454              	.LASF4:
 2455 00e0 75696E74 		.ascii	"uint8_t\000"
 2455      385F7400 
 2456              	.LASF21:
 2457 00e8 41504231 		.ascii	"APB1ENR\000"
 2457      454E5200 
 2458              	.LASF76:
 2459 00f0 474E5520 		.ascii	"GNU C 4.8.3 20131129 (release) [ARM/embedded-4_8-br"
 2459      4320342E 
 2459      382E3320 
 2459      32303133 
 2459      31313239 
 2460 0123 616E6368 		.ascii	"anch revision 205641] -mcpu=cortex-m0 -mno-thumb-in"
 2460      20726576 
 2460      6973696F 
 2460      6E203230 
 2460      35363431 
 2461 0156 74657277 		.ascii	"terwork -mthumb -ggdb -O2 -fomit-frame-pointer -fal"
 2461      6F726B20 
 2461      2D6D7468 
 2461      756D6220 
 2461      2D676764 
 2462 0189 69676E2D 		.ascii	"ign-functions=16 -ffunction-sections -fdata-section"
 2462      66756E63 
 2462      74696F6E 
 2462      733D3136 
 2462      202D6666 
 2463 01bc 73202D66 		.ascii	"s -fno-common\000"
 2463      6E6F2D63 
 2463      6F6D6D6F 
 2463      6E00
 2464              	.LASF58:
 2465 01ca 50574D43 		.ascii	"PWMConfig\000"
 2465      6F6E6669 
 2465      6700
 2466              	.LASF64:
 2467 01d4 63636572 		.ascii	"ccer\000"
 2467      00
 2468              	.LASF69:
 2469 01d9 77696474 		.ascii	"width\000"
 2469      6800
 2470              	.LASF20:
 2471 01df 41504232 		.ascii	"APB2ENR\000"
 2471      454E5200 
 2472              	.LASF66:
 2473 01e7 70776D70 		.ascii	"pwmp\000"
 2473      00
 2474              	.LASF23:
 2475 01ec 41484252 		.ascii	"AHBRSTR\000"
 2475      53545200 
 2476              	.LASF10:
 2477 01f4 6C6F6E67 		.ascii	"long long int\000"
 2477      206C6F6E 
 2477      6720696E 
 2477      7400
 2478              	.LASF15:
 2479 0202 63686172 		.ascii	"char\000"
ARM GAS  /var/folders/qh/xwg3v3kj02qbxczjpdb8lzfr0000gn/T//ccaxxSn2.s 			page 46


 2479      00
 2480              	.LASF63:
 2481 0207 70776D5F 		.ascii	"pwm_lld_start\000"
 2481      6C6C645F 
 2481      73746172 
 2481      7400
 2482              	.LASF45:
 2483 0215 43435235 		.ascii	"CCR5\000"
 2483      00
 2484              	.LASF26:
 2485 021a 5243435F 		.ascii	"RCC_TypeDef\000"
 2485      54797065 
 2485      44656600 
 2486              	.LASF19:
 2487 0226 41484245 		.ascii	"AHBENR\000"
 2487      4E5200
 2488              	.LASF17:
 2489 022d 41504232 		.ascii	"APB2RSTR\000"
 2489      52535452 
 2489      00
 2490              	.LASF73:
 2491 0236 5F706F72 		.ascii	"_port_irq_epilogue\000"
 2491      745F6972 
 2491      715F6570 
 2491      696C6F67 
 2491      756500
 2492              	.LASF70:
 2493 0249 70776D5F 		.ascii	"pwm_lld_disable_channel\000"
 2493      6C6C645F 
 2493      64697361 
 2493      626C655F 
 2493      6368616E 
 2494              	.LASF44:
 2495 0261 43434D52 		.ascii	"CCMR3\000"
 2495      3300
 2496              	.LASF78:
 2497 0267 2F557365 		.ascii	"/Users/John/Development/embedded/ChibiOS-RT/BluC/ST"
 2497      72732F4A 
 2497      6F686E2F 
 2497      44657665 
 2497      6C6F706D 
 2498 029a 4D333246 		.ascii	"M32F051\000"
 2498      30353100 
 2499              	.LASF37:
 2500 02a2 534D4352 		.ascii	"SMCR\000"
 2500      00
 2501              	.LASF27:
 2502 02a7 50574D5F 		.ascii	"PWM_UNINIT\000"
 2502      554E494E 
 2502      495400
 2503              	.LASF2:
 2504 02b2 756E7369 		.ascii	"unsigned char\000"
 2504      676E6564 
 2504      20636861 
 2504      7200
 2505              	.LASF59:
 2506 02c0 56656374 		.ascii	"Vector74\000"
ARM GAS  /var/folders/qh/xwg3v3kj02qbxczjpdb8lzfr0000gn/T//ccaxxSn2.s 			page 47


 2506      6F723734 
 2506      00
 2507              	.LASF60:
 2508 02c9 56656374 		.ascii	"Vector78\000"
 2508      6F723738 
 2508      00
 2509              	.LASF46:
 2510 02d2 43435236 		.ascii	"CCR6\000"
 2510      00
 2511              	.LASF1:
 2512 02d7 7369676E 		.ascii	"signed char\000"
 2512      65642063 
 2512      68617200 
 2513              	.LASF11:
 2514 02e3 6C6F6E67 		.ascii	"long long unsigned int\000"
 2514      206C6F6E 
 2514      6720756E 
 2514      7369676E 
 2514      65642069 
 2515              	.LASF0:
 2516 02fa 756E7369 		.ascii	"unsigned int\000"
 2516      676E6564 
 2516      20696E74 
 2516      00
 2517              	.LASF24:
 2518 0307 43464752 		.ascii	"CFGR2\000"
 2518      3200
 2519              	.LASF25:
 2520 030d 43464752 		.ascii	"CFGR3\000"
 2520      3300
 2521              	.LASF65:
 2522 0313 70776D5F 		.ascii	"pwm_lld_stop\000"
 2522      6C6C645F 
 2522      73746F70 
 2522      00
 2523              	.LASF42:
 2524 0320 42445452 		.ascii	"BDTR\000"
 2524      00
 2525              	.LASF38:
 2526 0325 44494552 		.ascii	"DIER\000"
 2526      00
 2527              	.LASF6:
 2528 032a 73686F72 		.ascii	"short unsigned int\000"
 2528      7420756E 
 2528      7369676E 
 2528      65642069 
 2528      6E7400
 2529              	.LASF62:
 2530 033d 70776D5F 		.ascii	"pwm_lld_init\000"
 2530      6C6C645F 
 2530      696E6974 
 2530      00
 2531              	.LASF5:
 2532 034a 75696E74 		.ascii	"uint16_t\000"
 2532      31365F74 
 2532      00
 2533              	.LASF47:
ARM GAS  /var/folders/qh/xwg3v3kj02qbxczjpdb8lzfr0000gn/T//ccaxxSn2.s 			page 48


 2534 0353 73746D33 		.ascii	"stm32_tim_t\000"
 2534      325F7469 
 2534      6D5F7400 
 2535              	.LASF31:
 2536 035f 50574D44 		.ascii	"PWMDriver\000"
 2536      72697665 
 2536      7200
 2537              	.LASF12:
 2538 0369 5F426F6F 		.ascii	"_Bool\000"
 2538      6C00
 2539              	.LASF68:
 2540 036f 6368616E 		.ascii	"channel\000"
 2540      6E656C00 
 2541              	.LASF43:
 2542 0377 444D4152 		.ascii	"DMAR\000"
 2542      00
 2543              	.LASF34:
 2544 037c 70657269 		.ascii	"period\000"
 2544      6F6400
 2545              	.LASF72:
 2546 0383 6462675F 		.ascii	"dbg_check_leave_isr\000"
 2546      63686563 
 2546      6B5F6C65 
 2546      6176655F 
 2546      69737200 
 2547              	.LASF9:
 2548 0397 6C6F6E67 		.ascii	"long unsigned int\000"
 2548      20756E73 
 2548      69676E65 
 2548      6420696E 
 2548      7400
 2549              	.LASF35:
 2550 03a9 636C6F63 		.ascii	"clock\000"
 2550      6B00
 2551              	.LASF71:
 2552 03af 6462675F 		.ascii	"dbg_check_enter_isr\000"
 2552      63686563 
 2552      6B5F656E 
 2552      7465725F 
 2552      69737200 
 2553              	.LASF32:
 2554 03c3 73746174 		.ascii	"state\000"
 2554      6500
 2555              	.LASF29:
 2556 03c9 50574D5F 		.ascii	"PWM_READY\000"
 2556      52454144 
 2556      5900
 2557              	.LASF28:
 2558 03d3 50574D5F 		.ascii	"PWM_STOP\000"
 2558      53544F50 
 2558      00
 2559              	.LASF57:
 2560 03dc 64696572 		.ascii	"dier\000"
 2560      00
 2561              	.LASF14:
 2562 03e1 73697A65 		.ascii	"sizetype\000"
 2562      74797065 
ARM GAS  /var/folders/qh/xwg3v3kj02qbxczjpdb8lzfr0000gn/T//ccaxxSn2.s 			page 49


 2562      00
 2563              	.LASF54:
 2564 03ea 66726571 		.ascii	"frequency\000"
 2564      75656E63 
 2564      7900
 2565              	.LASF79:
 2566 03f4 50574D44 		.ascii	"PWMD1\000"
 2566      3100
 2567              	.LASF53:
 2568 03fa 50574D43 		.ascii	"PWMChannelConfig\000"
 2568      68616E6E 
 2568      656C436F 
 2568      6E666967 
 2568      00
 2569              	.LASF48:
 2570 040b 70776D6D 		.ascii	"pwmmode_t\000"
 2570      6F64655F 
 2570      7400
 2571              	.LASF56:
 2572 0415 62647472 		.ascii	"bdtr\000"
 2572      00
 2573              	.LASF7:
 2574 041a 6C6F6E67 		.ascii	"long int\000"
 2574      20696E74 
 2574      00
 2575              	.LASF30:
 2576 0423 70776D73 		.ascii	"pwmstate_t\000"
 2576      74617465 
 2576      5F7400
 2577              	.LASF36:
 2578 042e 70776D63 		.ascii	"pwmcallback_t\000"
 2578      616C6C62 
 2578      61636B5F 
 2578      7400
 2579              	.LASF52:
 2580 043c 63616C6C 		.ascii	"callback\000"
 2580      6261636B 
 2580      00
 2581              	.LASF61:
 2582 0445 5F736176 		.ascii	"_saved_lr\000"
 2582      65645F6C 
 2582      7200
 2583              		.ident	"GCC: (GNU Tools for ARM Embedded Processors) 4.8.3 20131129 (release) [ARM/embedded-4_8-br
ARM GAS  /var/folders/qh/xwg3v3kj02qbxczjpdb8lzfr0000gn/T//ccaxxSn2.s 			page 50


DEFINED SYMBOLS
                            *ABS*:0000000000000000 pwm_lld.c
/var/folders/qh/xwg3v3kj02qbxczjpdb8lzfr0000gn/T//ccaxxSn2.s:18     .text.Vector74:0000000000000000 $t
/var/folders/qh/xwg3v3kj02qbxczjpdb8lzfr0000gn/T//ccaxxSn2.s:24     .text.Vector74:0000000000000000 Vector74
/var/folders/qh/xwg3v3kj02qbxczjpdb8lzfr0000gn/T//ccaxxSn2.s:69     .text.Vector74:0000000000000024 $d
/var/folders/qh/xwg3v3kj02qbxczjpdb8lzfr0000gn/T//ccaxxSn2.s:75     .text.Vector78:0000000000000000 $t
/var/folders/qh/xwg3v3kj02qbxczjpdb8lzfr0000gn/T//ccaxxSn2.s:81     .text.Vector78:0000000000000000 Vector78
/var/folders/qh/xwg3v3kj02qbxczjpdb8lzfr0000gn/T//ccaxxSn2.s:172    .text.Vector78:000000000000005c $d
/var/folders/qh/xwg3v3kj02qbxczjpdb8lzfr0000gn/T//ccaxxSn2.s:178    .text.pwm_lld_init:0000000000000000 $t
/var/folders/qh/xwg3v3kj02qbxczjpdb8lzfr0000gn/T//ccaxxSn2.s:184    .text.pwm_lld_init:0000000000000000 pwm_lld_init
/var/folders/qh/xwg3v3kj02qbxczjpdb8lzfr0000gn/T//ccaxxSn2.s:208    .text.pwm_lld_init:0000000000000010 $d
/var/folders/qh/xwg3v3kj02qbxczjpdb8lzfr0000gn/T//ccaxxSn2.s:215    .text.pwm_lld_start:0000000000000000 $t
/var/folders/qh/xwg3v3kj02qbxczjpdb8lzfr0000gn/T//ccaxxSn2.s:221    .text.pwm_lld_start:0000000000000000 pwm_lld_start
/var/folders/qh/xwg3v3kj02qbxczjpdb8lzfr0000gn/T//ccaxxSn2.s:566    .text.pwm_lld_start:0000000000000184 $d
/var/folders/qh/xwg3v3kj02qbxczjpdb8lzfr0000gn/T//ccaxxSn2.s:574    .text.pwm_lld_stop:0000000000000000 $t
/var/folders/qh/xwg3v3kj02qbxczjpdb8lzfr0000gn/T//ccaxxSn2.s:580    .text.pwm_lld_stop:0000000000000000 pwm_lld_stop
/var/folders/qh/xwg3v3kj02qbxczjpdb8lzfr0000gn/T//ccaxxSn2.s:633    .text.pwm_lld_stop:0000000000000034 $d
/var/folders/qh/xwg3v3kj02qbxczjpdb8lzfr0000gn/T//ccaxxSn2.s:640    .text.pwm_lld_enable_channel:0000000000000000 $t
/var/folders/qh/xwg3v3kj02qbxczjpdb8lzfr0000gn/T//ccaxxSn2.s:646    .text.pwm_lld_enable_channel:0000000000000000 pwm_lld_enable_channel
/var/folders/qh/xwg3v3kj02qbxczjpdb8lzfr0000gn/T//ccaxxSn2.s:701    .text.pwm_lld_disable_channel:0000000000000000 $t
/var/folders/qh/xwg3v3kj02qbxczjpdb8lzfr0000gn/T//ccaxxSn2.s:707    .text.pwm_lld_disable_channel:0000000000000000 pwm_lld_disable_channel
/var/folders/qh/xwg3v3kj02qbxczjpdb8lzfr0000gn/T//ccaxxSn2.s:739    .bss.PWMD1:0000000000000000 PWMD1
/var/folders/qh/xwg3v3kj02qbxczjpdb8lzfr0000gn/T//ccaxxSn2.s:735    .bss.PWMD1:0000000000000000 $d
                     .debug_frame:0000000000000010 $d
/var/folders/qh/xwg3v3kj02qbxczjpdb8lzfr0000gn/T//ccaxxSn2.s:74     .text.Vector74:000000000000002c $t
/var/folders/qh/xwg3v3kj02qbxczjpdb8lzfr0000gn/T//ccaxxSn2.s:177    .text.Vector78:0000000000000064 $t
/var/folders/qh/xwg3v3kj02qbxczjpdb8lzfr0000gn/T//ccaxxSn2.s:214    .text.pwm_lld_init:0000000000000018 $t
/var/folders/qh/xwg3v3kj02qbxczjpdb8lzfr0000gn/T//ccaxxSn2.s:573    .text.pwm_lld_start:0000000000000194 $t

UNDEFINED SYMBOLS
dbg_check_enter_isr
dbg_check_leave_isr
_port_irq_epilogue
pwmObjectInit
__aeabi_uidiv
nvicEnableVector
nvicDisableVector
