ARM GAS  /var/folders/qh/xwg3v3kj02qbxczjpdb8lzfr0000gn/T//ccaxxSn2.s 			page 1


   1              		.cpu cortex-m0
   2              		.fpu softvfp
   3              		.eabi_attribute 20, 1
   4              		.eabi_attribute 21, 1
   5              		.eabi_attribute 23, 3
   6              		.eabi_attribute 24, 1
   7              		.eabi_attribute 25, 1
   8              		.eabi_attribute 26, 1
   9              		.eabi_attribute 30, 2
  10              		.eabi_attribute 34, 0
  11              		.eabi_attribute 18, 4
  12              		.code	16
  13              		.file	"pwm_lld.c"
  14              		.text
  15              	.Ltext0:
  16              		.cfi_sections	.debug_frame
  17              		.section	.text.Vector74,"ax",%progbits
  18              		.align	2
  19              		.p2align 4,,15
  20              		.global	Vector74
  21              		.code	16
  22              		.thumb_func
  23              		.type	Vector74, %function
  24              	Vector74:
  25              	.LFB40:
  26              		.file 1 "../../os/hal/platforms/STM32/TIMv1/pwm_lld.c"
  27              		.loc 1 147 0
  28              		.cfi_startproc
  29 0000 10B5     		push	{r4, lr}
  30              		.cfi_def_cfa_offset 8
  31              		.cfi_offset 4, -8
  32              		.cfi_offset 14, -4
  33              		.loc 1 149 0
  34              	@ 149 "../../os/hal/platforms/STM32/TIMv1/pwm_lld.c" 1
  35 0002 7446     		mov     r4, lr
  36              	@ 0 "" 2
  37              	.LVL0:
  38              		.code	16
  39 0004 FFF7FEFF 		bl	dbg_check_enter_isr
  40              	.LVL1:
  41              		.loc 1 151 0
  42 0008 064B     		ldr	r3, .L2
  43              		.loc 1 152 0
  44 000a 0748     		ldr	r0, .L2+4
  45              		.loc 1 151 0
  46 000c 0222     		mov	r2, #2
  47 000e 5242     		neg	r2, r2
  48 0010 1A61     		str	r2, [r3, #16]
  49              		.loc 1 152 0
  50 0012 4268     		ldr	r2, [r0, #4]
  51              		.loc 1 155 0
  52              		@ sp needed
  53              		.loc 1 152 0
  54 0014 9268     		ldr	r2, [r2, #8]
  55 0016 9047     		blx	r2
  56              	.LVL2:
  57              		.loc 1 154 0
ARM GAS  /var/folders/qh/xwg3v3kj02qbxczjpdb8lzfr0000gn/T//ccaxxSn2.s 			page 2


  58 0018 FFF7FEFF 		bl	dbg_check_leave_isr
  59              	.LVL3:
  60 001c 201C     		mov	r0, r4
  61 001e FFF7FEFF 		bl	_port_irq_epilogue
  62              	.LVL4:
  63              	.LVL5:
  64              		.loc 1 155 0
  65 0022 10BD     		pop	{r4, pc}
  66              	.L3:
  67              		.align	2
  68              	.L2:
  69 0024 002C0140 		.word	1073818624
  70 0028 00000000 		.word	.LANCHOR0
  71              		.cfi_endproc
  72              	.LFE40:
  73              		.size	Vector74, .-Vector74
  74 002c C046C046 		.section	.text.Vector78,"ax",%progbits
  75              		.align	2
  76              		.p2align 4,,15
  77              		.global	Vector78
  78              		.code	16
  79              		.thumb_func
  80              		.type	Vector78, %function
  81              	Vector78:
  82              	.LFB41:
  83              		.loc 1 168 0
  84              		.cfi_startproc
  85 0000 38B5     		push	{r3, r4, r5, lr}
  86              		.cfi_def_cfa_offset 16
  87              		.cfi_offset 3, -16
  88              		.cfi_offset 4, -12
  89              		.cfi_offset 5, -8
  90              		.cfi_offset 14, -4
  91              		.loc 1 171 0
  92              	@ 171 "../../os/hal/platforms/STM32/TIMv1/pwm_lld.c" 1
  93 0002 7546     		mov     r5, lr
  94              	@ 0 "" 2
  95              	.LVL6:
  96              		.code	16
  97 0004 FFF7FEFF 		bl	dbg_check_enter_isr
  98              	.LVL7:
  99              		.loc 1 173 0
 100 0008 144B     		ldr	r3, .L25
 101 000a 1C69     		ldr	r4, [r3, #16]
 102 000c DA68     		ldr	r2, [r3, #12]
 103 000e 1440     		and	r4, r2
 104 0010 A4B2     		uxth	r4, r4
 105              	.LVL8:
 106              		.loc 1 174 0
 107 0012 FF22     		mov	r2, #255
 108 0014 2240     		and	r2, r4
 109 0016 D243     		mvn	r2, r2
 110 0018 1A61     		str	r2, [r3, #16]
 111              		.loc 1 175 0
 112 001a A307     		lsl	r3, r4, #30
 113 001c 19D4     		bmi	.L22
 114              	.L5:
ARM GAS  /var/folders/qh/xwg3v3kj02qbxczjpdb8lzfr0000gn/T//ccaxxSn2.s 			page 3


 115              		.loc 1 177 0
 116 001e 6307     		lsl	r3, r4, #29
 117 0020 12D4     		bmi	.L23
 118              	.L6:
 119              		.loc 1 179 0
 120 0022 2307     		lsl	r3, r4, #28
 121 0024 0BD4     		bmi	.L24
 122              	.L7:
 123              		.loc 1 181 0
 124 0026 E306     		lsl	r3, r4, #27
 125 0028 03D5     		bpl	.L8
 126              		.loc 1 182 0
 127 002a 0D48     		ldr	r0, .L25+4
 128 002c 4368     		ldr	r3, [r0, #4]
 129 002e 9B6A     		ldr	r3, [r3, #40]
 130 0030 9847     		blx	r3
 131              	.LVL9:
 132              	.L8:
 133              		.loc 1 184 0
 134 0032 FFF7FEFF 		bl	dbg_check_leave_isr
 135              	.LVL10:
 136 0036 281C     		mov	r0, r5
 137 0038 FFF7FEFF 		bl	_port_irq_epilogue
 138              	.LVL11:
 139              		.loc 1 185 0
 140              		@ sp needed
 141              	.LVL12:
 142              	.LVL13:
 143 003c 38BD     		pop	{r3, r4, r5, pc}
 144              	.LVL14:
 145              	.L24:
 146              		.loc 1 180 0
 147 003e 0848     		ldr	r0, .L25+4
 148 0040 4368     		ldr	r3, [r0, #4]
 149 0042 1B6A     		ldr	r3, [r3, #32]
 150 0044 9847     		blx	r3
 151              	.LVL15:
 152 0046 EEE7     		b	.L7
 153              	.L23:
 154              		.loc 1 178 0
 155 0048 0548     		ldr	r0, .L25+4
 156 004a 4368     		ldr	r3, [r0, #4]
 157 004c 9B69     		ldr	r3, [r3, #24]
 158 004e 9847     		blx	r3
 159              	.LVL16:
 160 0050 E7E7     		b	.L6
 161              	.L22:
 162              		.loc 1 176 0
 163 0052 0348     		ldr	r0, .L25+4
 164 0054 4368     		ldr	r3, [r0, #4]
 165 0056 1B69     		ldr	r3, [r3, #16]
 166 0058 9847     		blx	r3
 167              	.LVL17:
 168 005a E0E7     		b	.L5
 169              	.L26:
 170              		.align	2
 171              	.L25:
ARM GAS  /var/folders/qh/xwg3v3kj02qbxczjpdb8lzfr0000gn/T//ccaxxSn2.s 			page 4


 172 005c 002C0140 		.word	1073818624
 173 0060 00000000 		.word	.LANCHOR0
 174              		.cfi_endproc
 175              	.LFE41:
 176              		.size	Vector78, .-Vector78
 177 0064 C046C046 		.section	.text.pwm_lld_init,"ax",%progbits
 177      C046C046 
 177      C046C046 
 178              		.align	2
 179              		.p2align 4,,15
 180              		.global	pwm_lld_init
 181              		.code	16
 182              		.thumb_func
 183              		.type	pwm_lld_init, %function
 184              	pwm_lld_init:
 185              	.LFB42:
 186              		.loc 1 345 0
 187              		.cfi_startproc
 188 0000 10B5     		push	{r4, lr}
 189              		.cfi_def_cfa_offset 8
 190              		.cfi_offset 4, -8
 191              		.cfi_offset 14, -4
 192              		.loc 1 349 0
 193 0002 034C     		ldr	r4, .L28
 194              		.loc 1 388 0
 195              		@ sp needed
 196              		.loc 1 349 0
 197 0004 201C     		mov	r0, r4
 198 0006 FFF7FEFF 		bl	pwmObjectInit
 199              	.LVL18:
 200              		.loc 1 350 0
 201 000a 024B     		ldr	r3, .L28+4
 202 000c 2361     		str	r3, [r4, #16]
 203              		.loc 1 388 0
 204 000e 10BD     		pop	{r4, pc}
 205              	.L29:
 206              		.align	2
 207              	.L28:
 208 0010 00000000 		.word	.LANCHOR0
 209 0014 002C0140 		.word	1073818624
 210              		.cfi_endproc
 211              	.LFE42:
 212              		.size	pwm_lld_init, .-pwm_lld_init
 213              		.global	__aeabi_uidiv
 214 0018 C046C046 		.section	.text.pwm_lld_start,"ax",%progbits
 214      C046C046 
 215              		.align	2
 216              		.p2align 4,,15
 217              		.global	pwm_lld_start
 218              		.code	16
 219              		.thumb_func
 220              		.type	pwm_lld_start, %function
 221              	pwm_lld_start:
 222              	.LFB43:
 223              		.loc 1 399 0
 224              		.cfi_startproc
 225              	.LVL19:
ARM GAS  /var/folders/qh/xwg3v3kj02qbxczjpdb8lzfr0000gn/T//ccaxxSn2.s 			page 5


 226 0000 F0B5     		push	{r4, r5, r6, r7, lr}
 227              		.cfi_def_cfa_offset 20
 228              		.cfi_offset 4, -20
 229              		.cfi_offset 5, -16
 230              		.cfi_offset 6, -12
 231              		.cfi_offset 7, -8
 232              		.cfi_offset 14, -4
 233              		.loc 1 403 0
 234 0002 0378     		ldrb	r3, [r0]
 235              		.loc 1 399 0
 236 0004 4746     		mov	r7, r8
 237 0006 80B4     		push	{r7}
 238              		.cfi_def_cfa_offset 24
 239              		.cfi_offset 8, -24
 240              		.loc 1 399 0
 241 0008 061C     		mov	r6, r0
 242              		.loc 1 403 0
 243 000a 012B     		cmp	r3, #1
 244 000c 00D1     		bne	.LCB191
 245 000e 99E0     		b	.L75	@long jump
 246              	.LCB191:
 247              		.loc 1 492 0
 248 0010 4568     		ldr	r5, [r0, #4]
 249              		.loc 1 491 0
 250 0012 0469     		ldr	r4, [r0, #16]
 251              		.loc 1 492 0
 252 0014 686B     		ldr	r0, [r5, #52]
 253              	.LVL20:
 254 0016 FF22     		mov	r2, #255
 255              		.loc 1 491 0
 256 0018 0023     		mov	r3, #0
 257              		.loc 1 492 0
 258 001a 9043     		bic	r0, r2
 259 001c 594F     		ldr	r7, .L83
 260              		.loc 1 491 0
 261 001e 2360     		str	r3, [r4]
 262              		.loc 1 492 0
 263 0020 E060     		str	r0, [r4, #12]
 264              		.loc 1 494 0
 265 0022 2361     		str	r3, [r4, #16]
 266              		.loc 1 495 0
 267 0024 6363     		str	r3, [r4, #52]
 268              		.loc 1 496 0
 269 0026 A363     		str	r3, [r4, #56]
 270              		.loc 1 497 0
 271 0028 E363     		str	r3, [r4, #60]
 272              		.loc 1 498 0
 273 002a 2364     		str	r3, [r4, #64]
 274              		.loc 1 499 0
 275 002c 6362     		str	r3, [r4, #36]
 276              	.L33:
 277              	.LVL21:
 278              		.loc 1 503 0
 279 002e 2968     		ldr	r1, [r5]
 280 0030 F068     		ldr	r0, [r6, #12]
 281 0032 FFF7FEFF 		bl	__aeabi_uidiv
 282              	.LVL22:
ARM GAS  /var/folders/qh/xwg3v3kj02qbxczjpdb8lzfr0000gn/T//ccaxxSn2.s 			page 6


 283              		.loc 1 508 0
 284 0036 3389     		ldrh	r3, [r6, #8]
 285              		.loc 1 503 0
 286 0038 0138     		sub	r0, r0, #1
 287              		.loc 1 509 0
 288 003a E96A     		ldr	r1, [r5, #44]
 289              		.loc 1 507 0
 290 003c 0004     		lsl	r0, r0, #16
 291              		.loc 1 508 0
 292 003e 013B     		sub	r3, r3, #1
 293              		.loc 1 507 0
 294 0040 000C     		lsr	r0, r0, #16
 295              		.loc 1 508 0
 296 0042 9BB2     		uxth	r3, r3
 297              		.loc 1 507 0
 298 0044 A062     		str	r0, [r4, #40]
 299              		.loc 1 508 0
 300 0046 E362     		str	r3, [r4, #44]
 301              		.loc 1 509 0
 302 0048 6160     		str	r1, [r4, #4]
 303              	.LVL23:
 304              		.loc 1 513 0
 305 004a E968     		ldr	r1, [r5, #12]
 306 004c 0F22     		mov	r2, #15
 307 004e 0A40     		and	r2, r1
 308 0050 012A     		cmp	r2, #1
 309 0052 00D1     		bne	.LCB233
 310 0054 74E0     		b	.L35	@long jump
 311              	.LCB233:
 312              		.loc 1 512 0
 313 0056 023A     		sub	r2, r2, #2
 314 0058 5042     		neg	r0, r2
 315 005a 4241     		adc	r2, r2, r0
 316              		.loc 1 513 0
 317 005c 0323     		mov	r3, #3
 318              		.loc 1 512 0
 319 005e 5242     		neg	r2, r2
 320 0060 1340     		and	r3, r2
 321              	.L34:
 322              	.LVL24:
 323              		.loc 1 521 0
 324 0062 6A69     		ldr	r2, [r5, #20]
 325 0064 9446     		mov	ip, r2
 326 0066 6046     		mov	r0, ip
 327 0068 0F22     		mov	r2, #15
 328 006a 0240     		and	r2, r0
 329 006c 012A     		cmp	r2, #1
 330 006e 5DD0     		beq	.L38
 331 0070 022A     		cmp	r2, #2
 332 0072 59D0     		beq	.L76
 333              	.LVL25:
 334              	.L37:
 335              		.loc 1 529 0
 336 0074 EA69     		ldr	r2, [r5, #28]
 337 0076 9046     		mov	r8, r2
 338 0078 4046     		mov	r0, r8
 339 007a 0F22     		mov	r2, #15
ARM GAS  /var/folders/qh/xwg3v3kj02qbxczjpdb8lzfr0000gn/T//ccaxxSn2.s 			page 7


 340 007c 0240     		and	r2, r0
 341 007e 012A     		cmp	r2, #1
 342 0080 22D0     		beq	.L41
 343 0082 022A     		cmp	r2, #2
 344 0084 1DD0     		beq	.L77
 345              		.loc 1 537 0
 346 0086 686A     		ldr	r0, [r5, #36]
 347 0088 0F22     		mov	r2, #15
 348 008a 0240     		and	r2, r0
 349 008c 012A     		cmp	r2, #1
 350 008e 23D0     		beq	.L44
 351              	.LVL26:
 352              	.L80:
 353 0090 022A     		cmp	r2, #2
 354 0092 4ED0     		beq	.L78
 355              	.LVL27:
 356              		.loc 1 547 0
 357 0094 BE42     		cmp	r6, r7
 358 0096 24D0     		beq	.L79
 359              	.LVL28:
 360              	.L46:
 361              		.loc 1 582 0
 362 0098 2362     		str	r3, [r4, #32]
 363              		.loc 1 583 0
 364 009a 0123     		mov	r3, #1
 365              	.LVL29:
 366              		.loc 1 584 0
 367 009c AA68     		ldr	r2, [r5, #8]
 368              		.loc 1 583 0
 369 009e 6361     		str	r3, [r4, #20]
 370              	.LVL30:
 371              		.loc 1 584 0
 372 00a0 E368     		ldr	r3, [r4, #12]
 373 00a2 511E     		sub	r1, r2, #1
 374 00a4 8A41     		sbc	r2, r2, r1
 375 00a6 1343     		orr	r3, r2
 376 00a8 E360     		str	r3, [r4, #12]
 377              		.loc 1 585 0
 378 00aa 0023     		mov	r3, #0
 379              		.loc 1 588 0
 380 00ac 2A6B     		ldr	r2, [r5, #48]
 381              		.loc 1 585 0
 382 00ae 2361     		str	r3, [r4, #16]
 383              		.loc 1 588 0
 384 00b0 8023     		mov	r3, #128
 385 00b2 1B02     		lsl	r3, r3, #8
 386 00b4 1343     		orr	r3, r2
 387 00b6 6364     		str	r3, [r4, #68]
 388              		.loc 1 594 0
 389 00b8 8523     		mov	r3, #133
 390 00ba 2360     		str	r3, [r4]
 391              		.loc 1 596 0
 392              		@ sp needed
 393              	.LVL31:
 394 00bc 04BC     		pop	{r2}
 395 00be 9046     		mov	r8, r2
 396 00c0 F0BD     		pop	{r4, r5, r6, r7, pc}
ARM GAS  /var/folders/qh/xwg3v3kj02qbxczjpdb8lzfr0000gn/T//ccaxxSn2.s 			page 8


 397              	.LVL32:
 398              	.L77:
 399              		.loc 1 531 0
 400 00c2 8022     		mov	r2, #128
 401 00c4 9200     		lsl	r2, r2, #2
 402 00c6 1343     		orr	r3, r2
 403              	.LVL33:
 404              	.L41:
 405              		.loc 1 533 0
 406 00c8 8022     		mov	r2, #128
 407 00ca 5200     		lsl	r2, r2, #1
 408              		.loc 1 537 0
 409 00cc 686A     		ldr	r0, [r5, #36]
 410              		.loc 1 533 0
 411 00ce 1343     		orr	r3, r2
 412              	.LVL34:
 413              		.loc 1 537 0
 414 00d0 0F22     		mov	r2, #15
 415 00d2 0240     		and	r2, r0
 416 00d4 012A     		cmp	r2, #1
 417 00d6 DBD1     		bne	.L80
 418              	.LVL35:
 419              	.L44:
 420              		.loc 1 541 0
 421 00d8 8022     		mov	r2, #128
 422 00da 5201     		lsl	r2, r2, #5
 423 00dc 1343     		orr	r3, r2
 424              	.LVL36:
 425              	.L81:
 426              		.loc 1 547 0
 427 00de BE42     		cmp	r6, r7
 428 00e0 DAD1     		bne	.L46
 429              	.LVL37:
 430              	.L79:
 431              		.loc 1 555 0
 432 00e2 F022     		mov	r2, #240
 433 00e4 1140     		and	r1, r2
 434 00e6 1029     		cmp	r1, #16
 435 00e8 03D0     		beq	.L48
 436 00ea 2029     		cmp	r1, #32
 437 00ec 03D1     		bne	.L47
 438              		.loc 1 557 0
 439 00ee 0822     		mov	r2, #8
 440 00f0 1343     		orr	r3, r2
 441              	.LVL38:
 442              	.L48:
 443              		.loc 1 559 0
 444 00f2 0422     		mov	r2, #4
 445 00f4 1343     		orr	r3, r2
 446              	.LVL39:
 447              	.L47:
 448              		.loc 1 563 0
 449 00f6 F022     		mov	r2, #240
 450 00f8 6146     		mov	r1, ip
 451 00fa 0A40     		and	r2, r1
 452 00fc 102A     		cmp	r2, #16
 453 00fe 03D0     		beq	.L51
ARM GAS  /var/folders/qh/xwg3v3kj02qbxczjpdb8lzfr0000gn/T//ccaxxSn2.s 			page 9


 454 0100 202A     		cmp	r2, #32
 455 0102 03D1     		bne	.L50
 456              		.loc 1 565 0
 457 0104 8022     		mov	r2, #128
 458 0106 1343     		orr	r3, r2
 459              	.LVL40:
 460              	.L51:
 461              		.loc 1 567 0
 462 0108 4022     		mov	r2, #64
 463 010a 1343     		orr	r3, r2
 464              	.LVL41:
 465              	.L50:
 466              		.loc 1 571 0
 467 010c F022     		mov	r2, #240
 468 010e 4046     		mov	r0, r8
 469 0110 1040     		and	r0, r2
 470 0112 1028     		cmp	r0, #16
 471 0114 04D0     		beq	.L53
 472 0116 2028     		cmp	r0, #32
 473 0118 BED1     		bne	.L46
 474              		.loc 1 573 0
 475 011a 8022     		mov	r2, #128
 476 011c 1201     		lsl	r2, r2, #4
 477 011e 1343     		orr	r3, r2
 478              	.LVL42:
 479              	.L53:
 480              		.loc 1 575 0
 481 0120 8022     		mov	r2, #128
 482 0122 D200     		lsl	r2, r2, #3
 483 0124 1343     		orr	r3, r2
 484              	.LVL43:
 485 0126 B7E7     		b	.L46
 486              	.L76:
 487              		.loc 1 523 0
 488 0128 2022     		mov	r2, #32
 489 012a 1343     		orr	r3, r2
 490              	.LVL44:
 491              	.L38:
 492              		.loc 1 525 0
 493 012c 1022     		mov	r2, #16
 494 012e 1343     		orr	r3, r2
 495              	.LVL45:
 496 0130 A0E7     		b	.L37
 497              	.LVL46:
 498              	.L78:
 499              		.loc 1 539 0
 500 0132 8022     		mov	r2, #128
 501 0134 9201     		lsl	r2, r2, #6
 502 0136 1343     		orr	r3, r2
 503              	.LVL47:
 504              		.loc 1 541 0
 505 0138 8022     		mov	r2, #128
 506 013a 5201     		lsl	r2, r2, #5
 507 013c 1343     		orr	r3, r2
 508              	.LVL48:
 509 013e CEE7     		b	.L81
 510              	.LVL49:
ARM GAS  /var/folders/qh/xwg3v3kj02qbxczjpdb8lzfr0000gn/T//ccaxxSn2.s 			page 10


 511              	.L35:
 512              		.loc 1 513 0
 513 0140 0123     		mov	r3, #1
 514 0142 8EE7     		b	.L34
 515              	.LVL50:
 516              	.L75:
 517              		.loc 1 406 0
 518 0144 0F4F     		ldr	r7, .L83
 519 0146 B842     		cmp	r0, r7
 520 0148 05D0     		beq	.L82
 521              	.LVL51:
 522              	.L32:
 523              		.loc 1 484 0
 524 014a 3469     		ldr	r4, [r6, #16]
 525 014c 0E4B     		ldr	r3, .L83+4
 526 014e 7568     		ldr	r5, [r6, #4]
 527 0150 A361     		str	r3, [r4, #24]
 528              		.loc 1 486 0
 529 0152 E361     		str	r3, [r4, #28]
 530 0154 6BE7     		b	.L33
 531              	.LVL52:
 532              	.L82:
 533              		.loc 1 407 0
 534 0156 0D4B     		ldr	r3, .L83+8
 535 0158 8022     		mov	r2, #128
 536 015a 9969     		ldr	r1, [r3, #24]
 537 015c 1201     		lsl	r2, r2, #4
 538 015e 1143     		orr	r1, r2
 539 0160 9961     		str	r1, [r3, #24]
 540              		.loc 1 408 0
 541 0162 D968     		ldr	r1, [r3, #12]
 542              		.loc 1 409 0
 543 0164 0D20     		mov	r0, #13
 544              	.LVL53:
 545              		.loc 1 408 0
 546 0166 0A43     		orr	r2, r1
 547 0168 DA60     		str	r2, [r3, #12]
 548 016a 0022     		mov	r2, #0
 549 016c DA60     		str	r2, [r3, #12]
 550              		.loc 1 409 0
 551 016e C021     		mov	r1, #192
 552 0170 FFF7FEFF 		bl	nvicEnableVector
 553              	.LVL54:
 554              		.loc 1 411 0
 555 0174 0E20     		mov	r0, #14
 556 0176 C021     		mov	r1, #192
 557 0178 FFF7FEFF 		bl	nvicEnableVector
 558              	.LVL55:
 559              		.loc 1 416 0
 560 017c 044B     		ldr	r3, .L83+12
 561 017e F360     		str	r3, [r6, #12]
 562 0180 E3E7     		b	.L32
 563              	.L84:
 564 0182 C046     		.align	2
 565              	.L83:
 566 0184 00000000 		.word	.LANCHOR0
 567 0188 68680000 		.word	26728
ARM GAS  /var/folders/qh/xwg3v3kj02qbxczjpdb8lzfr0000gn/T//ccaxxSn2.s 			page 11


 568 018c 00100240 		.word	1073876992
 569 0190 006CDC02 		.word	48000000
 570              		.cfi_endproc
 571              	.LFE43:
 572              		.size	pwm_lld_start, .-pwm_lld_start
 573 0194 C046C046 		.section	.text.pwm_lld_stop,"ax",%progbits
 573      C046C046 
 573      C046C046 
 574              		.align	2
 575              		.p2align 4,,15
 576              		.global	pwm_lld_stop
 577              		.code	16
 578              		.thumb_func
 579              		.type	pwm_lld_stop, %function
 580              	pwm_lld_stop:
 581              	.LFB44:
 582              		.loc 1 605 0
 583              		.cfi_startproc
 584              	.LVL56:
 585 0000 08B5     		push	{r3, lr}
 586              		.cfi_def_cfa_offset 8
 587              		.cfi_offset 3, -8
 588              		.cfi_offset 14, -4
 589              		.loc 1 608 0
 590 0002 0378     		ldrb	r3, [r0]
 591 0004 022B     		cmp	r3, #2
 592 0006 00D0     		beq	.L89
 593              	.LVL57:
 594              	.L85:
 595              		.loc 1 661 0
 596              		@ sp needed
 597 0008 08BD     		pop	{r3, pc}
 598              	.LVL58:
 599              	.L89:
 600              		.loc 1 609 0
 601 000a 0369     		ldr	r3, [r0, #16]
 602 000c 0022     		mov	r2, #0
 603 000e 1A60     		str	r2, [r3]
 604              		.loc 1 610 0
 605 0010 DA60     		str	r2, [r3, #12]
 606              		.loc 1 611 0
 607 0012 1A61     		str	r2, [r3, #16]
 608              		.loc 1 613 0
 609 0014 5A64     		str	r2, [r3, #68]
 610              		.loc 1 617 0
 611 0016 074B     		ldr	r3, .L90
 612 0018 9842     		cmp	r0, r3
 613 001a F5D1     		bne	.L85
 614              		.loc 1 618 0
 615 001c 0D20     		mov	r0, #13
 616              	.LVL59:
 617 001e FFF7FEFF 		bl	nvicDisableVector
 618              	.LVL60:
 619              		.loc 1 619 0
 620 0022 0E20     		mov	r0, #14
 621 0024 FFF7FEFF 		bl	nvicDisableVector
 622              	.LVL61:
ARM GAS  /var/folders/qh/xwg3v3kj02qbxczjpdb8lzfr0000gn/T//ccaxxSn2.s 			page 12


 623              		.loc 1 620 0
 624 0028 034B     		ldr	r3, .L90+4
 625 002a 044A     		ldr	r2, .L90+8
 626 002c 9969     		ldr	r1, [r3, #24]
 627 002e 0A40     		and	r2, r1
 628 0030 9A61     		str	r2, [r3, #24]
 629 0032 E9E7     		b	.L85
 630              	.L91:
 631              		.align	2
 632              	.L90:
 633 0034 00000000 		.word	.LANCHOR0
 634 0038 00100240 		.word	1073876992
 635 003c FFF7FFFF 		.word	-2049
 636              		.cfi_endproc
 637              	.LFE44:
 638              		.size	pwm_lld_stop, .-pwm_lld_stop
 639              		.section	.text.pwm_lld_enable_channel,"ax",%progbits
 640              		.align	2
 641              		.p2align 4,,15
 642              		.global	pwm_lld_enable_channel
 643              		.code	16
 644              		.thumb_func
 645              		.type	pwm_lld_enable_channel, %function
 646              	pwm_lld_enable_channel:
 647              	.LFB45:
 648              		.loc 1 677 0
 649              		.cfi_startproc
 650              	.LVL62:
 651 0000 10B5     		push	{r4, lr}
 652              		.cfi_def_cfa_offset 8
 653              		.cfi_offset 4, -8
 654              		.cfi_offset 14, -4
 655              		.loc 1 679 0
 656 0002 0C1C     		mov	r4, r1
 657 0004 0369     		ldr	r3, [r0, #16]
 658 0006 0C34     		add	r4, r4, #12
 659 0008 A400     		lsl	r4, r4, #2
 660 000a 1C19     		add	r4, r3, r4
 661 000c 6260     		str	r2, [r4, #4]
 662              		.loc 1 682 0
 663 000e 4068     		ldr	r0, [r0, #4]
 664              	.LVL63:
 665 0010 4A1C     		add	r2, r1, #1
 666              	.LVL64:
 667 0012 D200     		lsl	r2, r2, #3
 668 0014 8218     		add	r2, r0, r2
 669 0016 9268     		ldr	r2, [r2, #8]
 670 0018 002A     		cmp	r2, #0
 671 001a 08D0     		beq	.L92
 672              	.LBB2:
 673              		.loc 1 686 0
 674 001c 0220     		mov	r0, #2
 675              		.loc 1 683 0
 676 001e DA68     		ldr	r2, [r3, #12]
 677              	.LVL65:
 678              		.loc 1 686 0
 679 0020 8840     		lsl	r0, r0, r1
ARM GAS  /var/folders/qh/xwg3v3kj02qbxczjpdb8lzfr0000gn/T//ccaxxSn2.s 			page 13


 680 0022 0242     		tst	r2, r0
 681 0024 03D1     		bne	.L92
 682              		.loc 1 687 0
 683 0026 0243     		orr	r2, r0
 684              	.LVL66:
 685              		.loc 1 688 0
 686 0028 C143     		mvn	r1, r0
 687              	.LVL67:
 688              		.loc 1 687 0
 689 002a DA60     		str	r2, [r3, #12]
 690              		.loc 1 688 0
 691 002c 1961     		str	r1, [r3, #16]
 692              	.L92:
 693              	.LBE2:
 694              		.loc 1 691 0
 695              		@ sp needed
 696 002e 10BD     		pop	{r4, pc}
 697              		.cfi_endproc
 698              	.LFE45:
 699              		.size	pwm_lld_enable_channel, .-pwm_lld_enable_channel
 700              		.section	.text.pwm_lld_disable_channel,"ax",%progbits
 701              		.align	2
 702              		.p2align 4,,15
 703              		.global	pwm_lld_disable_channel
 704              		.code	16
 705              		.thumb_func
 706              		.type	pwm_lld_disable_channel, %function
 707              	pwm_lld_disable_channel:
 708              	.LFB46:
 709              		.loc 1 705 0
 710              		.cfi_startproc
 711              	.LVL68:
 712              		.loc 1 707 0
 713 0000 0A1C     		mov	r2, r1
 714 0002 0369     		ldr	r3, [r0, #16]
 715 0004 0C32     		add	r2, r2, #12
 716 0006 9200     		lsl	r2, r2, #2
 717 0008 9A18     		add	r2, r3, r2
 718 000a 0020     		mov	r0, #0
 719              	.LVL69:
 720 000c 5060     		str	r0, [r2, #4]
 721              		.loc 1 708 0
 722 000e DA68     		ldr	r2, [r3, #12]
 723 0010 0220     		mov	r0, #2
 724 0012 8840     		lsl	r0, r0, r1
 725 0014 8243     		bic	r2, r0
 726 0016 DA60     		str	r2, [r3, #12]
 727              		.loc 1 709 0
 728              		@ sp needed
 729 0018 7047     		bx	lr
 730              		.cfi_endproc
 731              	.LFE46:
 732              		.size	pwm_lld_disable_channel, .-pwm_lld_disable_channel
 733              		.global	PWMD1
 734 001a C046C046 		.section	.bss.PWMD1,"aw",%nobits
 734      C046
 735              		.align	2
ARM GAS  /var/folders/qh/xwg3v3kj02qbxczjpdb8lzfr0000gn/T//ccaxxSn2.s 			page 14


 736              		.set	.LANCHOR0,. + 0
 737              		.type	PWMD1, %object
 738              		.size	PWMD1, 20
 739              	PWMD1:
 740 0000 00000000 		.space	20
 740      00000000 
 740      00000000 
 740      00000000 
 740      00000000 
 741              		.text
 742              	.Letext0:
 743              		.file 2 "/usr/local/Cellar/gcc-arm-none-eabi-48/20131218/arm-none-eabi/include/stdint.h"
 744              		.file 3 "../../os/ports/GCC/ARMCMx/chcore_v6m.h"
 745              		.file 4 "../../os/hal/platforms/STM32F0xx/stm32f0xx.h"
 746              		.file 5 "../../os/hal/include/pwm.h"
 747              		.file 6 "../../os/hal/platforms/STM32/TIMv1/pwm_lld.h"
 748              		.file 7 "../../os/hal/platforms/STM32/TIMv1/stm32_tim.h"
 749              		.file 8 "../../os/kernel/include/chdebug.h"
 750              		.file 9 "../../os/ports/common/ARMCMx/nvic.h"