ARM GAS  /var/folders/qh/xwg3v3kj02qbxczjpdb8lzfr0000gn/T//ccDZQuo0.s 			page 1


   1              		.cpu cortex-m0
   2              		.fpu softvfp
   3              		.eabi_attribute 20, 1
   4              		.eabi_attribute 21, 1
   5              		.eabi_attribute 23, 3
   6              		.eabi_attribute 24, 1
   7              		.eabi_attribute 25, 1
   8              		.eabi_attribute 26, 1
   9              		.eabi_attribute 30, 2
  10              		.eabi_attribute 34, 0
  11              		.eabi_attribute 18, 4
  12              		.code	16
  13              		.file	"serial_lld.c"
  14              		.text
  15              	.Ltext0:
  16              		.cfi_sections	.debug_frame
  17              		.section	.text.notify1,"ax",%progbits
  18              		.align	2
  19              		.p2align 4,,15
  20              		.code	16
  21              		.thumb_func
  22              		.type	notify1, %function
  23              	notify1:
  24              	.LFB44:
  25              		.file 1 "../../os/hal/platforms/STM32/USARTv2/serial_lld.c"
  26              		.loc 1 198 0
  27              		.cfi_startproc
  28              	.LVL0:
  29              		.loc 1 201 0
  30 0000 024B     		ldr	r3, .L2
  31 0002 8022     		mov	r2, #128
  32 0004 1968     		ldr	r1, [r3]
  33              		.loc 1 202 0
  34              		@ sp needed
  35              		.loc 1 201 0
  36 0006 0A43     		orr	r2, r1
  37 0008 1A60     		str	r2, [r3]
  38              		.loc 1 202 0
  39 000a 7047     		bx	lr
  40              	.L3:
  41              		.align	2
  42              	.L2:
  43 000c 00380140 		.word	1073821696
  44              		.cfi_endproc
  45              	.LFE44:
  46              		.size	notify1, .-notify1
  47              		.section	.text.VectorAC,"ax",%progbits
  48              		.align	2
  49              		.p2align 4,,15
  50              		.global	VectorAC
  51              		.code	16
  52              		.thumb_func
  53              		.type	VectorAC, %function
  54              	VectorAC:
  55              	.LFB45:
  56              		.loc 1 258 0
  57              		.cfi_startproc
ARM GAS  /var/folders/qh/xwg3v3kj02qbxczjpdb8lzfr0000gn/T//ccDZQuo0.s 			page 2


  58 0000 F8B5     		push	{r3, r4, r5, r6, r7, lr}
  59              		.cfi_def_cfa_offset 24
  60              		.cfi_offset 3, -24
  61              		.cfi_offset 4, -20
  62              		.cfi_offset 5, -16
  63              		.cfi_offset 6, -12
  64              		.cfi_offset 7, -8
  65              		.cfi_offset 14, -4
  66 0002 4F46     		mov	r7, r9
  67 0004 4646     		mov	r6, r8
  68 0006 C0B4     		push	{r6, r7}
  69              		.cfi_def_cfa_offset 32
  70              		.cfi_offset 8, -32
  71              		.cfi_offset 9, -28
  72              		.loc 1 260 0
  73              	@ 260 "../../os/hal/platforms/STM32/USARTv2/serial_lld.c" 1
  74 0008 F046     		mov     r8, lr
  75              	@ 0 "" 2
  76              	.LVL1:
  77              		.code	16
  78 000a FFF7FEFF 		bl	dbg_check_enter_isr
  79              	.LVL2:
  80              	.LBB12:
  81              	.LBB13:
  82              		.loc 1 148 0
  83 000e 3F4E     		ldr	r6, .L50
  84 0010 AA23     		mov	r3, #170
  85 0012 5B00     		lsl	r3, r3, #1
  86 0014 F558     		ldr	r5, [r6, r3]
  87              	.LVL3:
  88              		.loc 1 149 0
  89 0016 2F68     		ldr	r7, [r5]
  90              	.LVL4:
  91              		.loc 1 153 0
  92 0018 EC69     		ldr	r4, [r5, #28]
  93              	.LVL5:
  94              		.loc 1 154 0
  95 001a 2C62     		str	r4, [r5, #32]
  96              		.loc 1 157 0
  97 001c 2207     		lsl	r2, r4, #28
  98 001e 38D1     		bne	.L45
  99              	.L5:
 100              		.loc 1 161 0
 101 0020 E305     		lsl	r3, r4, #23
 102 0022 2AD4     		bmi	.L46
 103              	.L10:
 104              		.loc 1 168 0
 105 0024 A206     		lsl	r2, r4, #26
 106 0026 1CD4     		bmi	.L47
 107              	.L11:
 108              		.loc 1 175 0
 109 0028 8023     		mov	r3, #128
 110 002a 3B42     		tst	r3, r7
 111 002c 01D0     		beq	.L12
 112 002e 2342     		tst	r3, r4
 113 0030 51D1     		bne	.L48
 114              	.L12:
ARM GAS  /var/folders/qh/xwg3v3kj02qbxczjpdb8lzfr0000gn/T//ccDZQuo0.s 			page 3


 115              		.loc 1 189 0
 116 0032 6306     		lsl	r3, r4, #25
 117 0034 0CD5     		bpl	.L15
 118              		.loc 1 190 0
 119              	@ 190 "../../os/hal/platforms/STM32/USARTv2/serial_lld.c" 1
 120 0036 72B6     		cpsid   i
 121              	@ 0 "" 2
 122              		.code	16
 123 0038 FFF7FEFF 		bl	dbg_check_lock_from_isr
 124              	.LVL6:
 125              		.loc 1 191 0
 126 003c 301D     		add	r0, r6, #4
 127 003e 1021     		mov	r1, #16
 128 0040 FFF7FEFF 		bl	chEvtBroadcastFlagsI
 129              	.LVL7:
 130              		.loc 1 192 0
 131 0044 FFF7FEFF 		bl	dbg_check_unlock_from_isr
 132              	.LVL8:
 133              	@ 192 "../../os/hal/platforms/STM32/USARTv2/serial_lld.c" 1
 134 0048 62B6     		cpsie   i
 135              	@ 0 "" 2
 136              		.loc 1 193 0
 137              		.code	16
 138 004a 4023     		mov	r3, #64
 139 004c 9F43     		bic	r7, r3
 140              	.LVL9:
 141 004e 2F60     		str	r7, [r5]
 142              	.L15:
 143              	.LBE13:
 144              	.LBE12:
 145              		.loc 1 264 0
 146 0050 FFF7FEFF 		bl	dbg_check_leave_isr
 147              	.LVL10:
 148 0054 4046     		mov	r0, r8
 149 0056 FFF7FEFF 		bl	_port_irq_epilogue
 150              	.LVL11:
 151              		.loc 1 265 0
 152              		@ sp needed
 153              	.LVL12:
 154              	.LVL13:
 155              	.LVL14:
 156 005a 0CBC     		pop	{r2, r3}
 157 005c 9046     		mov	r8, r2
 158 005e 9946     		mov	r9, r3
 159 0060 F8BD     		pop	{r3, r4, r5, r6, r7, pc}
 160              	.LVL15:
 161              	.L47:
 162              	.LBB18:
 163              	.LBB17:
 164              		.loc 1 169 0
 165              	@ 169 "../../os/hal/platforms/STM32/USARTv2/serial_lld.c" 1
 166 0062 72B6     		cpsid   i
 167              	@ 0 "" 2
 168              		.code	16
 169 0064 FFF7FEFF 		bl	dbg_check_lock_from_isr
 170              	.LVL16:
 171              		.loc 1 170 0
ARM GAS  /var/folders/qh/xwg3v3kj02qbxczjpdb8lzfr0000gn/T//ccDZQuo0.s 			page 4


 172 0068 696A     		ldr	r1, [r5, #36]
 173 006a 301C     		mov	r0, r6
 174 006c C9B2     		uxtb	r1, r1
 175 006e FFF7FEFF 		bl	sdIncomingDataI
 176              	.LVL17:
 177              		.loc 1 171 0
 178 0072 FFF7FEFF 		bl	dbg_check_unlock_from_isr
 179              	.LVL18:
 180              	@ 171 "../../os/hal/platforms/STM32/USARTv2/serial_lld.c" 1
 181 0076 62B6     		cpsie   i
 182              	@ 0 "" 2
 183              		.code	16
 184 0078 D6E7     		b	.L11
 185              	.L46:
 186              		.loc 1 162 0
 187              	@ 162 "../../os/hal/platforms/STM32/USARTv2/serial_lld.c" 1
 188 007a 72B6     		cpsid   i
 189              	@ 0 "" 2
 190              		.code	16
 191 007c FFF7FEFF 		bl	dbg_check_lock_from_isr
 192              	.LVL19:
 193              		.loc 1 163 0
 194 0080 8021     		mov	r1, #128
 195 0082 301D     		add	r0, r6, #4
 196 0084 8900     		lsl	r1, r1, #2
 197 0086 FFF7FEFF 		bl	chEvtBroadcastFlagsI
 198              	.LVL20:
 199              		.loc 1 164 0
 200 008a FFF7FEFF 		bl	dbg_check_unlock_from_isr
 201              	.LVL21:
 202              	@ 164 "../../os/hal/platforms/STM32/USARTv2/serial_lld.c" 1
 203 008e 62B6     		cpsie   i
 204              	@ 0 "" 2
 205              		.code	16
 206 0090 C8E7     		b	.L10
 207              	.L45:
 208              	.LVL22:
 209              	.LBB14:
 210              	.LBB15:
 211              		.loc 1 129 0
 212 0092 2307     		lsl	r3, r4, #28
 213              		.loc 1 127 0
 214 0094 DB0F     		lsr	r3, r3, #31
 215 0096 DB01     		lsl	r3, r3, #7
 216 0098 9946     		mov	r9, r3
 217              	.LVL23:
 218              		.loc 1 131 0
 219 009a E307     		lsl	r3, r4, #31
 220 009c 03D5     		bpl	.L7
 221              	.LVL24:
 222              		.loc 1 132 0
 223 009e 4A46     		mov	r2, r9
 224 00a0 2023     		mov	r3, #32
 225 00a2 1A43     		orr	r2, r3
 226 00a4 9146     		mov	r9, r2
 227              	.LVL25:
 228              	.L7:
ARM GAS  /var/folders/qh/xwg3v3kj02qbxczjpdb8lzfr0000gn/T//ccDZQuo0.s 			page 5


 229              		.loc 1 133 0
 230 00a6 A307     		lsl	r3, r4, #30
 231 00a8 03D5     		bpl	.L8
 232              		.loc 1 134 0
 233 00aa 4A46     		mov	r2, r9
 234 00ac 4023     		mov	r3, #64
 235 00ae 1A43     		orr	r2, r3
 236 00b0 9146     		mov	r9, r2
 237              	.LVL26:
 238              	.L8:
 239              		.loc 1 135 0
 240 00b2 6307     		lsl	r3, r4, #29
 241 00b4 04D5     		bpl	.L9
 242              		.loc 1 136 0
 243 00b6 8023     		mov	r3, #128
 244 00b8 4A46     		mov	r2, r9
 245 00ba 5B00     		lsl	r3, r3, #1
 246 00bc 1A43     		orr	r2, r3
 247 00be 9146     		mov	r9, r2
 248              	.LVL27:
 249              	.L9:
 250              		.loc 1 137 0
 251              	@ 137 "../../os/hal/platforms/STM32/USARTv2/serial_lld.c" 1
 252 00c0 72B6     		cpsid   i
 253              	@ 0 "" 2
 254              		.code	16
 255 00c2 FFF7FEFF 		bl	dbg_check_lock_from_isr
 256              	.LVL28:
 257              		.loc 1 138 0
 258 00c6 301D     		add	r0, r6, #4
 259 00c8 4946     		mov	r1, r9
 260 00ca FFF7FEFF 		bl	chEvtBroadcastFlagsI
 261              	.LVL29:
 262              		.loc 1 139 0
 263 00ce FFF7FEFF 		bl	dbg_check_unlock_from_isr
 264              	.LVL30:
 265              	@ 139 "../../os/hal/platforms/STM32/USARTv2/serial_lld.c" 1
 266 00d2 62B6     		cpsie   i
 267              	@ 0 "" 2
 268              		.code	16
 269 00d4 A4E7     		b	.L5
 270              	.LVL31:
 271              	.L48:
 272              	.LBE15:
 273              	.LBE14:
 274              	.LBB16:
 275              		.loc 1 177 0
 276              	@ 177 "../../os/hal/platforms/STM32/USARTv2/serial_lld.c" 1
 277 00d6 72B6     		cpsid   i
 278              	@ 0 "" 2
 279              		.code	16
 280 00d8 FFF7FEFF 		bl	dbg_check_lock_from_isr
 281              	.LVL32:
 282              		.loc 1 178 0
 283 00dc 301C     		mov	r0, r6
 284 00de 3030     		add	r0, r0, #48
 285 00e0 FFF7FEFF 		bl	chOQGetI
ARM GAS  /var/folders/qh/xwg3v3kj02qbxczjpdb8lzfr0000gn/T//ccDZQuo0.s 			page 6


 286              	.LVL33:
 287              		.loc 1 179 0
 288 00e4 0028     		cmp	r0, #0
 289 00e6 05DB     		blt	.L49
 290              		.loc 1 184 0
 291 00e8 80B2     		uxth	r0, r0
 292              	.LVL34:
 293 00ea 2885     		strh	r0, [r5, #40]
 294              	.L14:
 295              		.loc 1 185 0
 296 00ec FFF7FEFF 		bl	dbg_check_unlock_from_isr
 297              	.LVL35:
 298              	@ 185 "../../os/hal/platforms/STM32/USARTv2/serial_lld.c" 1
 299 00f0 62B6     		cpsie   i
 300              	@ 0 "" 2
 301              		.code	16
 302 00f2 9EE7     		b	.L12
 303              	.LVL36:
 304              	.L49:
 305              		.loc 1 180 0
 306 00f4 301D     		add	r0, r6, #4
 307              	.LVL37:
 308 00f6 0821     		mov	r1, #8
 309 00f8 FFF7FEFF 		bl	chEvtBroadcastFlagsI
 310              	.LVL38:
 311              		.loc 1 181 0
 312 00fc C023     		mov	r3, #192
 313 00fe 3A1C     		mov	r2, r7
 314 0100 9A43     		bic	r2, r3
 315 0102 4023     		mov	r3, #64
 316 0104 1343     		orr	r3, r2
 317 0106 2B60     		str	r3, [r5]
 318 0108 F0E7     		b	.L14
 319              	.L51:
 320 010a C046     		.align	2
 321              	.L50:
 322 010c 00000000 		.word	.LANCHOR0
 323              	.LBE16:
 324              	.LBE17:
 325              	.LBE18:
 326              		.cfi_endproc
 327              	.LFE45:
 328              		.size	VectorAC, .-VectorAC
 329              		.section	.text.sd_lld_init,"ax",%progbits
 330              		.align	2
 331              		.p2align 4,,15
 332              		.global	sd_lld_init
 333              		.code	16
 334              		.thumb_func
 335              		.type	sd_lld_init, %function
 336              	sd_lld_init:
 337              	.LFB46:
 338              		.loc 1 372 0
 339              		.cfi_startproc
 340 0000 10B5     		push	{r4, lr}
 341              		.cfi_def_cfa_offset 8
 342              		.cfi_offset 4, -8
ARM GAS  /var/folders/qh/xwg3v3kj02qbxczjpdb8lzfr0000gn/T//ccDZQuo0.s 			page 7


 343              		.cfi_offset 14, -4
 344              		.loc 1 375 0
 345 0002 074C     		ldr	r4, .L53
 346 0004 0021     		mov	r1, #0
 347 0006 201C     		mov	r0, r4
 348 0008 064A     		ldr	r2, .L53+4
 349 000a FFF7FEFF 		bl	sdObjectInit
 350              	.LVL39:
 351              		.loc 1 376 0
 352 000e 064A     		ldr	r2, .L53+8
 353 0010 AA23     		mov	r3, #170
 354 0012 5B00     		lsl	r3, r3, #1
 355 0014 E250     		str	r2, [r4, r3]
 356              		.loc 1 377 0
 357 0016 054A     		ldr	r2, .L53+12
 358 0018 AC23     		mov	r3, #172
 359 001a 5B00     		lsl	r3, r3, #1
 360 001c E250     		str	r2, [r4, r3]
 361              		.loc 1 409 0
 362              		@ sp needed
 363 001e 10BD     		pop	{r4, pc}
 364              	.L54:
 365              		.align	2
 366              	.L53:
 367 0020 00000000 		.word	.LANCHOR0
 368 0024 00000000 		.word	notify1
 369 0028 00380140 		.word	1073821696
 370 002c 006CDC02 		.word	48000000
 371              		.cfi_endproc
 372              	.LFE46:
 373              		.size	sd_lld_init, .-sd_lld_init
 374              		.global	__aeabi_uidiv
 375              		.section	.text.sd_lld_start,"ax",%progbits
 376              		.align	2
 377              		.p2align 4,,15
 378              		.global	sd_lld_start
 379              		.code	16
 380              		.thumb_func
 381              		.type	sd_lld_start, %function
 382              	sd_lld_start:
 383              	.LFB47:
 384              		.loc 1 421 0
 385              		.cfi_startproc
 386              	.LVL40:
 387 0000 70B5     		push	{r4, r5, r6, lr}
 388              		.cfi_def_cfa_offset 16
 389              		.cfi_offset 4, -16
 390              		.cfi_offset 5, -12
 391              		.cfi_offset 6, -8
 392              		.cfi_offset 14, -4
 393              		.loc 1 421 0
 394 0002 061C     		mov	r6, r0
 395 0004 0C1E     		sub	r4, r1, #0
 396              		.loc 1 423 0
 397 0006 2CD0     		beq	.L59
 398              	.L56:
 399              	.LVL41:
ARM GAS  /var/folders/qh/xwg3v3kj02qbxczjpdb8lzfr0000gn/T//ccDZQuo0.s 			page 8


 400              		.loc 1 426 0
 401 0008 337A     		ldrb	r3, [r6, #8]
 402 000a 012B     		cmp	r3, #1
 403 000c 1BD0     		beq	.L60
 404              	.LVL42:
 405              	.L57:
 406              		.loc 1 421 0
 407 000e AA23     		mov	r3, #170
 408 0010 5B00     		lsl	r3, r3, #1
 409 0012 F558     		ldr	r5, [r6, r3]
 410              	.LVL43:
 411 0014 AC23     		mov	r3, #172
 412 0016 5B00     		lsl	r3, r3, #1
 413              	.LBB19:
 414              	.LBB20:
 415              		.loc 1 96 0
 416 0018 F058     		ldr	r0, [r6, r3]
 417 001a 2168     		ldr	r1, [r4]
 418 001c FFF7FEFF 		bl	__aeabi_uidiv
 419              	.LVL44:
 420              		.loc 1 99 0
 421 0020 A268     		ldr	r2, [r4, #8]
 422 0022 4023     		mov	r3, #64
 423 0024 1343     		orr	r3, r2
 424              		.loc 1 96 0
 425 0026 80B2     		uxth	r0, r0
 426              		.loc 1 100 0
 427 0028 E268     		ldr	r2, [r4, #12]
 428              		.loc 1 96 0
 429 002a A881     		strh	r0, [r5, #12]
 430              		.loc 1 99 0
 431 002c 6B60     		str	r3, [r5, #4]
 432              		.loc 1 100 0
 433 002e 0123     		mov	r3, #1
 434 0030 1343     		orr	r3, r2
 435 0032 AB60     		str	r3, [r5, #8]
 436              		.loc 1 102 0
 437 0034 6268     		ldr	r2, [r4, #4]
 438 0036 2E23     		mov	r3, #46
 439 0038 FF33     		add	r3, r3, #255
 440 003a 1343     		orr	r3, r2
 441              		.loc 1 101 0
 442 003c 2B60     		str	r3, [r5]
 443              		.loc 1 104 0
 444 003e 0123     		mov	r3, #1
 445 0040 5B42     		neg	r3, r3
 446 0042 2B62     		str	r3, [r5, #32]
 447              	.LBE20:
 448              	.LBE19:
 449              		.loc 1 471 0
 450              		@ sp needed
 451              	.LVL45:
 452              	.LVL46:
 453              	.LVL47:
 454 0044 70BD     		pop	{r4, r5, r6, pc}
 455              	.LVL48:
 456              	.L60:
ARM GAS  /var/folders/qh/xwg3v3kj02qbxczjpdb8lzfr0000gn/T//ccDZQuo0.s 			page 9


 457              		.loc 1 428 0
 458 0046 084B     		ldr	r3, .L61
 459 0048 9E42     		cmp	r6, r3
 460 004a E0D1     		bne	.L57
 461              		.loc 1 429 0
 462 004c 074B     		ldr	r3, .L61+4
 463 004e 8022     		mov	r2, #128
 464 0050 9969     		ldr	r1, [r3, #24]
 465 0052 D201     		lsl	r2, r2, #7
 466 0054 0A43     		orr	r2, r1
 467 0056 9A61     		str	r2, [r3, #24]
 468              		.loc 1 430 0
 469 0058 1B20     		mov	r0, #27
 470              	.LVL49:
 471 005a C021     		mov	r1, #192
 472 005c FFF7FEFF 		bl	nvicEnableVector
 473              	.LVL50:
 474 0060 D5E7     		b	.L57
 475              	.LVL51:
 476              	.L59:
 477              		.loc 1 424 0
 478 0062 034C     		ldr	r4, .L61+8
 479 0064 D0E7     		b	.L56
 480              	.L62:
 481 0066 C046     		.align	2
 482              	.L61:
 483 0068 00000000 		.word	.LANCHOR0
 484 006c 00100240 		.word	1073876992
 485 0070 00000000 		.word	.LANCHOR1
 486              		.cfi_endproc
 487              	.LFE47:
 488              		.size	sd_lld_start, .-sd_lld_start
 489 0074 C046C046 		.section	.text.sd_lld_stop,"ax",%progbits
 489      C046C046 
 489      C046C046 
 490              		.align	2
 491              		.p2align 4,,15
 492              		.global	sd_lld_stop
 493              		.code	16
 494              		.thumb_func
 495              		.type	sd_lld_stop, %function
 496              	sd_lld_stop:
 497              	.LFB48:
 498              		.loc 1 482 0
 499              		.cfi_startproc
 500              	.LVL52:
 501 0000 08B5     		push	{r3, lr}
 502              		.cfi_def_cfa_offset 8
 503              		.cfi_offset 3, -8
 504              		.cfi_offset 14, -4
 505              		.loc 1 484 0
 506 0002 037A     		ldrb	r3, [r0, #8]
 507 0004 022B     		cmp	r3, #2
 508 0006 00D0     		beq	.L67
 509              	.LVL53:
 510              	.L63:
 511              		.loc 1 529 0
ARM GAS  /var/folders/qh/xwg3v3kj02qbxczjpdb8lzfr0000gn/T//ccDZQuo0.s 			page 10


 512              		@ sp needed
 513 0008 08BD     		pop	{r3, pc}
 514              	.LVL54:
 515              	.L67:
 516              		.loc 1 485 0
 517 000a AA23     		mov	r3, #170
 518 000c 5B00     		lsl	r3, r3, #1
 519 000e C358     		ldr	r3, [r0, r3]
 520              	.LVL55:
 521              	.LBB21:
 522              	.LBB22:
 523              		.loc 1 115 0
 524 0010 0022     		mov	r2, #0
 525 0012 1A60     		str	r2, [r3]
 526              		.loc 1 116 0
 527 0014 5A60     		str	r2, [r3, #4]
 528              		.loc 1 117 0
 529 0016 9A60     		str	r2, [r3, #8]
 530              	.LBE22:
 531              	.LBE21:
 532              		.loc 1 487 0
 533 0018 054B     		ldr	r3, .L68
 534              	.LVL56:
 535 001a 9842     		cmp	r0, r3
 536 001c F4D1     		bne	.L63
 537              		.loc 1 488 0
 538 001e 054B     		ldr	r3, .L68+4
 539 0020 054A     		ldr	r2, .L68+8
 540 0022 9969     		ldr	r1, [r3, #24]
 541              		.loc 1 489 0
 542 0024 1B20     		mov	r0, #27
 543              	.LVL57:
 544              		.loc 1 488 0
 545 0026 0A40     		and	r2, r1
 546 0028 9A61     		str	r2, [r3, #24]
 547              		.loc 1 489 0
 548 002a FFF7FEFF 		bl	nvicDisableVector
 549              	.LVL58:
 550              		.loc 1 490 0
 551 002e EBE7     		b	.L63
 552              	.L69:
 553              		.align	2
 554              	.L68:
 555 0030 00000000 		.word	.LANCHOR0
 556 0034 00100240 		.word	1073876992
 557 0038 FFBFFFFF 		.word	-16385
 558              		.cfi_endproc
 559              	.LFE48:
 560              		.size	sd_lld_stop, .-sd_lld_stop
 561              		.global	SD1
 562 003c C046C046 		.section	.rodata.default_config,"a",%progbits
 563              		.align	2
 564              		.set	.LANCHOR1,. + 0
 565              		.type	default_config, %object
 566              		.size	default_config, 16
 567              	default_config:
 568 0000 00C20100 		.word	115200
ARM GAS  /var/folders/qh/xwg3v3kj02qbxczjpdb8lzfr0000gn/T//ccDZQuo0.s 			page 11


 569 0004 00000000 		.word	0
 570 0008 00400000 		.word	16384
 571 000c 00000000 		.word	0
 572              		.section	.bss.SD1,"aw",%nobits
 573              		.align	2
 574              		.set	.LANCHOR0,. + 0
 575              		.type	SD1, %object
 576              		.size	SD1, 348
 577              	SD1:
 578 0000 00000000 		.space	348
 578      00000000 
 578      00000000 
 578      00000000 
 578      00000000 
 579              		.text
 580              	.Letext0:
 581              		.file 2 "/usr/local/Cellar/gcc-arm-none-eabi-48/20131218/lib/gcc/arm-none-eabi/4.8.3/include/stdde
 582              		.file 3 "/usr/local/Cellar/gcc-arm-none-eabi-48/20131218/arm-none-eabi/include/stdint.h"
 583              		.file 4 "../../os/ports/GCC/ARMCMx/chtypes.h"
 584              		.file 5 "../../os/kernel/include/chlists.h"
 585              		.file 6 "../../os/kernel/include/chthreads.h"
 586              		.file 7 "../../os/ports/GCC/ARMCMx/chcore_v6m.h"
 587              		.file 8 "../../os/kernel/include/chmtx.h"
 588              		.file 9 "../../os/kernel/include/chevents.h"
 589              		.file 10 "../../os/kernel/include/chqueues.h"
 590              		.file 11 "../../os/hal/platforms/STM32F0xx/stm32f0xx.h"
 591              		.file 12 "../../os/hal/include/serial.h"
 592              		.file 13 "../../os/hal/platforms/STM32/USARTv2/serial_lld.h"
 593              		.file 14 "../../os/kernel/include/chdebug.h"
 594              		.file 15 "../../os/ports/common/ARMCMx/nvic.h"