ARM GAS  /var/folders/qh/xwg3v3kj02qbxczjpdb8lzfr0000gn/T//ccyr4Fqq.s 			page 1


   1              		.cpu cortex-m0
   2              		.fpu softvfp
   3              		.eabi_attribute 20, 1
   4              		.eabi_attribute 21, 1
   5              		.eabi_attribute 23, 3
   6              		.eabi_attribute 24, 1
   7              		.eabi_attribute 25, 1
   8              		.eabi_attribute 26, 1
   9              		.eabi_attribute 30, 2
  10              		.eabi_attribute 34, 0
  11              		.eabi_attribute 18, 4
  12              		.code	16
  13              		.file	"serial.c"
  14              		.text
  15              	.Ltext0:
  16              		.cfi_sections	.debug_frame
  17              		.section	.text.readt,"ax",%progbits
  18              		.align	2
  19              		.p2align 4,,15
  20              		.code	16
  21              		.thumb_func
  22              		.type	readt, %function
  23              	readt:
  24              	.LFB47:
  25              		.file 1 "../../os/hal/src/serial.c"
  26              		.loc 1 92 0
  27              		.cfi_startproc
  28              	.LVL0:
  29 0000 08B5     		push	{r3, lr}
  30              		.cfi_def_cfa_offset 8
  31              		.cfi_offset 3, -8
  32              		.cfi_offset 14, -4
  33              		.loc 1 94 0
  34 0002 0C30     		add	r0, r0, #12
  35              	.LVL1:
  36 0004 FFF7FEFF 		bl	chIQReadTimeout
  37              	.LVL2:
  38              		.loc 1 95 0
  39              		@ sp needed
  40 0008 08BD     		pop	{r3, pc}
  41              		.cfi_endproc
  42              	.LFE47:
  43              		.size	readt, .-readt
  44 000a C046C046 		.section	.text.read,"ax",%progbits
  44      C046
  45              		.align	2
  46              		.p2align 4,,15
  47              		.code	16
  48              		.thumb_func
  49              		.type	read, %function
  50              	read:
  51              	.LFB41:
  52              		.loc 1 61 0
  53              		.cfi_startproc
  54              	.LVL3:
  55 0000 08B5     		push	{r3, lr}
  56              		.cfi_def_cfa_offset 8
ARM GAS  /var/folders/qh/xwg3v3kj02qbxczjpdb8lzfr0000gn/T//ccyr4Fqq.s 			page 2


  57              		.cfi_offset 3, -8
  58              		.cfi_offset 14, -4
  59              		.loc 1 63 0
  60 0002 0123     		mov	r3, #1
  61 0004 0C30     		add	r0, r0, #12
  62              	.LVL4:
  63 0006 5B42     		neg	r3, r3
  64 0008 FFF7FEFF 		bl	chIQReadTimeout
  65              	.LVL5:
  66              		.loc 1 65 0
  67              		@ sp needed
  68 000c 08BD     		pop	{r3, pc}
  69              		.cfi_endproc
  70              	.LFE41:
  71              		.size	read, .-read
  72 000e C046     		.section	.text.writet,"ax",%progbits
  73              		.align	2
  74              		.p2align 4,,15
  75              		.code	16
  76              		.thumb_func
  77              		.type	writet, %function
  78              	writet:
  79              	.LFB46:
  80              		.loc 1 87 0
  81              		.cfi_startproc
  82              	.LVL6:
  83 0000 08B5     		push	{r3, lr}
  84              		.cfi_def_cfa_offset 8
  85              		.cfi_offset 3, -8
  86              		.cfi_offset 14, -4
  87              		.loc 1 89 0
  88 0002 3030     		add	r0, r0, #48
  89              	.LVL7:
  90 0004 FFF7FEFF 		bl	chOQWriteTimeout
  91              	.LVL8:
  92              		.loc 1 90 0
  93              		@ sp needed
  94 0008 08BD     		pop	{r3, pc}
  95              		.cfi_endproc
  96              	.LFE46:
  97              		.size	writet, .-writet
  98 000a C046C046 		.section	.text.write,"ax",%progbits
  98      C046
  99              		.align	2
 100              		.p2align 4,,15
 101              		.code	16
 102              		.thumb_func
 103              		.type	write, %function
 104              	write:
 105              	.LFB40:
 106              		.loc 1 55 0
 107              		.cfi_startproc
 108              	.LVL9:
 109 0000 08B5     		push	{r3, lr}
 110              		.cfi_def_cfa_offset 8
 111              		.cfi_offset 3, -8
 112              		.cfi_offset 14, -4
ARM GAS  /var/folders/qh/xwg3v3kj02qbxczjpdb8lzfr0000gn/T//ccyr4Fqq.s 			page 3


 113              		.loc 1 57 0
 114 0002 0123     		mov	r3, #1
 115 0004 3030     		add	r0, r0, #48
 116              	.LVL10:
 117 0006 5B42     		neg	r3, r3
 118 0008 FFF7FEFF 		bl	chOQWriteTimeout
 119              	.LVL11:
 120              		.loc 1 59 0
 121              		@ sp needed
 122 000c 08BD     		pop	{r3, pc}
 123              		.cfi_endproc
 124              	.LFE40:
 125              		.size	write, .-write
 126 000e C046     		.section	.text.gett,"ax",%progbits
 127              		.align	2
 128              		.p2align 4,,15
 129              		.code	16
 130              		.thumb_func
 131              		.type	gett, %function
 132              	gett:
 133              	.LFB45:
 134              		.loc 1 82 0
 135              		.cfi_startproc
 136              	.LVL12:
 137 0000 08B5     		push	{r3, lr}
 138              		.cfi_def_cfa_offset 8
 139              		.cfi_offset 3, -8
 140              		.cfi_offset 14, -4
 141              		.loc 1 84 0
 142 0002 0C30     		add	r0, r0, #12
 143              	.LVL13:
 144 0004 FFF7FEFF 		bl	chIQGetTimeout
 145              	.LVL14:
 146              		.loc 1 85 0
 147              		@ sp needed
 148 0008 08BD     		pop	{r3, pc}
 149              		.cfi_endproc
 150              	.LFE45:
 151              		.size	gett, .-gett
 152 000a C046C046 		.section	.text.get,"ax",%progbits
 152      C046
 153              		.align	2
 154              		.p2align 4,,15
 155              		.code	16
 156              		.thumb_func
 157              		.type	get, %function
 158              	get:
 159              	.LFB43:
 160              		.loc 1 72 0
 161              		.cfi_startproc
 162              	.LVL15:
 163 0000 08B5     		push	{r3, lr}
 164              		.cfi_def_cfa_offset 8
 165              		.cfi_offset 3, -8
 166              		.cfi_offset 14, -4
 167              		.loc 1 74 0
 168 0002 0121     		mov	r1, #1
ARM GAS  /var/folders/qh/xwg3v3kj02qbxczjpdb8lzfr0000gn/T//ccyr4Fqq.s 			page 4


 169 0004 0C30     		add	r0, r0, #12
 170              	.LVL16:
 171 0006 4942     		neg	r1, r1
 172 0008 FFF7FEFF 		bl	chIQGetTimeout
 173              	.LVL17:
 174              		.loc 1 75 0
 175              		@ sp needed
 176 000c 08BD     		pop	{r3, pc}
 177              		.cfi_endproc
 178              	.LFE43:
 179              		.size	get, .-get
 180 000e C046     		.section	.text.putt,"ax",%progbits
 181              		.align	2
 182              		.p2align 4,,15
 183              		.code	16
 184              		.thumb_func
 185              		.type	putt, %function
 186              	putt:
 187              	.LFB44:
 188              		.loc 1 77 0
 189              		.cfi_startproc
 190              	.LVL18:
 191 0000 08B5     		push	{r3, lr}
 192              		.cfi_def_cfa_offset 8
 193              		.cfi_offset 3, -8
 194              		.cfi_offset 14, -4
 195              		.loc 1 79 0
 196 0002 3030     		add	r0, r0, #48
 197              	.LVL19:
 198 0004 FFF7FEFF 		bl	chOQPutTimeout
 199              	.LVL20:
 200              		.loc 1 80 0
 201              		@ sp needed
 202 0008 08BD     		pop	{r3, pc}
 203              		.cfi_endproc
 204              	.LFE44:
 205              		.size	putt, .-putt
 206 000a C046C046 		.section	.text.put,"ax",%progbits
 206      C046
 207              		.align	2
 208              		.p2align 4,,15
 209              		.code	16
 210              		.thumb_func
 211              		.type	put, %function
 212              	put:
 213              	.LFB42:
 214              		.loc 1 67 0
 215              		.cfi_startproc
 216              	.LVL21:
 217 0000 08B5     		push	{r3, lr}
 218              		.cfi_def_cfa_offset 8
 219              		.cfi_offset 3, -8
 220              		.cfi_offset 14, -4
 221              		.loc 1 69 0
 222 0002 0122     		mov	r2, #1
 223 0004 3030     		add	r0, r0, #48
 224              	.LVL22:
ARM GAS  /var/folders/qh/xwg3v3kj02qbxczjpdb8lzfr0000gn/T//ccyr4Fqq.s 			page 5


 225 0006 5242     		neg	r2, r2
 226 0008 FFF7FEFF 		bl	chOQPutTimeout
 227              	.LVL23:
 228              		.loc 1 70 0
 229              		@ sp needed
 230 000c 08BD     		pop	{r3, pc}
 231              		.cfi_endproc
 232              	.LFE42:
 233              		.size	put, .-put
 234 000e C046     		.section	.text.sdInit,"ax",%progbits
 235              		.align	2
 236              		.p2align 4,,15
 237              		.global	sdInit
 238              		.code	16
 239              		.thumb_func
 240              		.type	sdInit, %function
 241              	sdInit:
 242              	.LFB48:
 243              		.loc 1 113 0
 244              		.cfi_startproc
 245 0000 08B5     		push	{r3, lr}
 246              		.cfi_def_cfa_offset 8
 247              		.cfi_offset 3, -8
 248              		.cfi_offset 14, -4
 249              		.loc 1 115 0
 250 0002 FFF7FEFF 		bl	sd_lld_init
 251              	.LVL24:
 252              		.loc 1 116 0
 253              		@ sp needed
 254 0006 08BD     		pop	{r3, pc}
 255              		.cfi_endproc
 256              	.LFE48:
 257              		.size	sdInit, .-sdInit
 258 0008 C046C046 		.section	.text.sdObjectInit,"ax",%progbits
 258      C046C046 
 259              		.align	2
 260              		.p2align 4,,15
 261              		.global	sdObjectInit
 262              		.code	16
 263              		.thumb_func
 264              		.type	sdObjectInit, %function
 265              	sdObjectInit:
 266              	.LFB49:
 267              		.loc 1 133 0
 268              		.cfi_startproc
 269              	.LVL25:
 270 0000 30B5     		push	{r4, r5, lr}
 271              		.cfi_def_cfa_offset 12
 272              		.cfi_offset 4, -12
 273              		.cfi_offset 5, -8
 274              		.cfi_offset 14, -4
 275 0002 151C     		mov	r5, r2
 276              		.loc 1 135 0
 277 0004 0D4A     		ldr	r2, .L11
 278              	.LVL26:
 279              		.loc 1 133 0
 280 0006 041C     		mov	r4, r0
ARM GAS  /var/folders/qh/xwg3v3kj02qbxczjpdb8lzfr0000gn/T//ccyr4Fqq.s 			page 6


 281              		.loc 1 135 0
 282 0008 04C0     		stmia	r0!, {r2}
 283              	.LVL27:
 284              		.loc 1 133 0
 285 000a 83B0     		sub	sp, sp, #12
 286              		.cfi_def_cfa_offset 24
 287              		.loc 1 133 0
 288 000c 0B1C     		mov	r3, r1
 289              		.loc 1 136 0
 290 000e 6060     		str	r0, [r4, #4]
 291              		.loc 1 137 0
 292 0010 0122     		mov	r2, #1
 293              		.loc 1 138 0
 294 0012 201C     		mov	r0, r4
 295 0014 211C     		mov	r1, r4
 296              	.LVL28:
 297              		.loc 1 137 0
 298 0016 2272     		strb	r2, [r4, #8]
 299              		.loc 1 138 0
 300 0018 0C30     		add	r0, r0, #12
 301 001a 5431     		add	r1, r1, #84
 302 001c 0094     		str	r4, [sp]
 303 001e 8022     		mov	r2, #128
 304 0020 FFF7FEFF 		bl	chIQInit
 305              	.LVL29:
 306              		.loc 1 139 0
 307 0024 201C     		mov	r0, r4
 308 0026 211C     		mov	r1, r4
 309 0028 3030     		add	r0, r0, #48
 310 002a D431     		add	r1, r1, #212
 311 002c 0094     		str	r4, [sp]
 312 002e 8022     		mov	r2, #128
 313 0030 2B1C     		mov	r3, r5
 314 0032 FFF7FEFF 		bl	chOQInit
 315              	.LVL30:
 316              		.loc 1 140 0
 317 0036 03B0     		add	sp, sp, #12
 318              		@ sp needed
 319              	.LVL31:
 320              	.LVL32:
 321 0038 30BD     		pop	{r4, r5, pc}
 322              	.L12:
 323 003a C046     		.align	2
 324              	.L11:
 325 003c 00000000 		.word	.LANCHOR0
 326              		.cfi_endproc
 327              	.LFE49:
 328              		.size	sdObjectInit, .-sdObjectInit
 329              		.section	.text.sdStart,"ax",%progbits
 330              		.align	2
 331              		.p2align 4,,15
 332              		.global	sdStart
 333              		.code	16
 334              		.thumb_func
 335              		.type	sdStart, %function
 336              	sdStart:
 337              	.LFB50:
ARM GAS  /var/folders/qh/xwg3v3kj02qbxczjpdb8lzfr0000gn/T//ccyr4Fqq.s 			page 7


 338              		.loc 1 152 0
 339              		.cfi_startproc
 340              	.LVL33:
 341 0000 38B5     		push	{r3, r4, r5, lr}
 342              		.cfi_def_cfa_offset 16
 343              		.cfi_offset 3, -16
 344              		.cfi_offset 4, -12
 345              		.cfi_offset 5, -8
 346              		.cfi_offset 14, -4
 347              		.loc 1 152 0
 348 0002 041C     		mov	r4, r0
 349 0004 0D1C     		mov	r5, r1
 350              		.loc 1 156 0
 351              	@ 156 "../../os/hal/src/serial.c" 1
 352 0006 72B6     		cpsid   i
 353              	@ 0 "" 2
 354              		.code	16
 355 0008 FFF7FEFF 		bl	dbg_check_lock
 356              	.LVL34:
 357              		.loc 1 160 0
 358 000c 201C     		mov	r0, r4
 359 000e 291C     		mov	r1, r5
 360 0010 FFF7FEFF 		bl	sd_lld_start
 361              	.LVL35:
 362              		.loc 1 161 0
 363 0014 0223     		mov	r3, #2
 364 0016 2372     		strb	r3, [r4, #8]
 365              		.loc 1 162 0
 366 0018 FFF7FEFF 		bl	dbg_check_unlock
 367              	.LVL36:
 368              	@ 162 "../../os/hal/src/serial.c" 1
 369 001c 62B6     		cpsie   i
 370              	@ 0 "" 2
 371              		.loc 1 163 0
 372              		.code	16
 373              		@ sp needed
 374              	.LVL37:
 375              	.LVL38:
 376 001e 38BD     		pop	{r3, r4, r5, pc}
 377              		.cfi_endproc
 378              	.LFE50:
 379              		.size	sdStart, .-sdStart
 380              		.section	.text.sdStop,"ax",%progbits
 381              		.align	2
 382              		.p2align 4,,15
 383              		.global	sdStop
 384              		.code	16
 385              		.thumb_func
 386              		.type	sdStop, %function
 387              	sdStop:
 388              	.LFB51:
 389              		.loc 1 174 0
 390              		.cfi_startproc
 391              	.LVL39:
 392 0000 10B5     		push	{r4, lr}
 393              		.cfi_def_cfa_offset 8
 394              		.cfi_offset 4, -8
ARM GAS  /var/folders/qh/xwg3v3kj02qbxczjpdb8lzfr0000gn/T//ccyr4Fqq.s 			page 8


 395              		.cfi_offset 14, -4
 396              		.loc 1 174 0
 397 0002 041C     		mov	r4, r0
 398              		.loc 1 178 0
 399              	@ 178 "../../os/hal/src/serial.c" 1
 400 0004 72B6     		cpsid   i
 401              	@ 0 "" 2
 402              		.code	16
 403 0006 FFF7FEFF 		bl	dbg_check_lock
 404              	.LVL40:
 405              		.loc 1 182 0
 406 000a 201C     		mov	r0, r4
 407 000c FFF7FEFF 		bl	sd_lld_stop
 408              	.LVL41:
 409              		.loc 1 183 0
 410 0010 0123     		mov	r3, #1
 411              		.loc 1 184 0
 412 0012 201C     		mov	r0, r4
 413              		.loc 1 183 0
 414 0014 2372     		strb	r3, [r4, #8]
 415              		.loc 1 184 0
 416 0016 3030     		add	r0, r0, #48
 417 0018 FFF7FEFF 		bl	chOQResetI
 418              	.LVL42:
 419              		.loc 1 185 0
 420 001c 201C     		mov	r0, r4
 421 001e 0C30     		add	r0, r0, #12
 422 0020 FFF7FEFF 		bl	chIQResetI
 423              	.LVL43:
 424              		.loc 1 186 0
 425 0024 FFF7FEFF 		bl	chSchRescheduleS
 426              	.LVL44:
 427              		.loc 1 187 0
 428 0028 FFF7FEFF 		bl	dbg_check_unlock
 429              	.LVL45:
 430              	@ 187 "../../os/hal/src/serial.c" 1
 431 002c 62B6     		cpsie   i
 432              	@ 0 "" 2
 433              		.loc 1 188 0
 434              		.code	16
 435              		@ sp needed
 436              	.LVL46:
 437 002e 10BD     		pop	{r4, pc}
 438              		.cfi_endproc
 439              	.LFE51:
 440              		.size	sdStop, .-sdStop
 441              		.section	.text.sdIncomingDataI,"ax",%progbits
 442              		.align	2
 443              		.p2align 4,,15
 444              		.global	sdIncomingDataI
 445              		.code	16
 446              		.thumb_func
 447              		.type	sdIncomingDataI, %function
 448              	sdIncomingDataI:
 449              	.LFB52:
 450              		.loc 1 206 0
 451              		.cfi_startproc
ARM GAS  /var/folders/qh/xwg3v3kj02qbxczjpdb8lzfr0000gn/T//ccyr4Fqq.s 			page 9


 452              	.LVL47:
 453 0000 38B5     		push	{r3, r4, r5, lr}
 454              		.cfi_def_cfa_offset 16
 455              		.cfi_offset 3, -16
 456              		.cfi_offset 4, -12
 457              		.cfi_offset 5, -8
 458              		.cfi_offset 14, -4
 459              		.loc 1 206 0
 460 0002 041C     		mov	r4, r0
 461 0004 0D1C     		mov	r5, r1
 462              		.loc 1 208 0
 463 0006 FFF7FEFF 		bl	chDbgCheckClassI
 464              	.LVL48:
 465              		.loc 1 211 0
 466 000a 6369     		ldr	r3, [r4, #20]
 467 000c 002B     		cmp	r3, #0
 468 000e 07D0     		beq	.L19
 469              		.loc 1 213 0
 470 0010 201C     		mov	r0, r4
 471 0012 0C30     		add	r0, r0, #12
 472 0014 291C     		mov	r1, r5
 473 0016 FFF7FEFF 		bl	chIQPutI
 474              	.LVL49:
 475 001a 0028     		cmp	r0, #0
 476 001c 0BDB     		blt	.L20
 477              	.L15:
 478              		.loc 1 215 0
 479              		@ sp needed
 480              	.LVL50:
 481 001e 38BD     		pop	{r3, r4, r5, pc}
 482              	.LVL51:
 483              	.L19:
 484              		.loc 1 212 0
 485 0020 201D     		add	r0, r4, #4
 486 0022 0421     		mov	r1, #4
 487 0024 FFF7FEFF 		bl	chEvtBroadcastFlagsI
 488              	.LVL52:
 489              		.loc 1 213 0
 490 0028 201C     		mov	r0, r4
 491 002a 0C30     		add	r0, r0, #12
 492 002c 291C     		mov	r1, r5
 493 002e FFF7FEFF 		bl	chIQPutI
 494              	.LVL53:
 495 0032 0028     		cmp	r0, #0
 496 0034 F3DA     		bge	.L15
 497              	.L20:
 498              		.loc 1 214 0
 499 0036 201D     		add	r0, r4, #4
 500 0038 8021     		mov	r1, #128
 501 003a FFF7FEFF 		bl	chEvtBroadcastFlagsI
 502              	.LVL54:
 503 003e EEE7     		b	.L15
 504              		.cfi_endproc
 505              	.LFE52:
 506              		.size	sdIncomingDataI, .-sdIncomingDataI
 507              		.section	.text.sdRequestDataI,"ax",%progbits
 508              		.align	2
ARM GAS  /var/folders/qh/xwg3v3kj02qbxczjpdb8lzfr0000gn/T//ccyr4Fqq.s 			page 10


 509              		.p2align 4,,15
 510              		.global	sdRequestDataI
 511              		.code	16
 512              		.thumb_func
 513              		.type	sdRequestDataI, %function
 514              	sdRequestDataI:
 515              	.LFB53:
 516              		.loc 1 232 0
 517              		.cfi_startproc
 518              	.LVL55:
 519 0000 38B5     		push	{r3, r4, r5, lr}
 520              		.cfi_def_cfa_offset 16
 521              		.cfi_offset 3, -16
 522              		.cfi_offset 4, -12
 523              		.cfi_offset 5, -8
 524              		.cfi_offset 14, -4
 525              		.loc 1 232 0
 526 0002 051C     		mov	r5, r0
 527              		.loc 1 235 0
 528 0004 FFF7FEFF 		bl	chDbgCheckClassI
 529              	.LVL56:
 530              		.loc 1 238 0
 531 0008 281C     		mov	r0, r5
 532 000a 3030     		add	r0, r0, #48
 533 000c FFF7FEFF 		bl	chOQGetI
 534              	.LVL57:
 535 0010 041E     		sub	r4, r0, #0
 536              	.LVL58:
 537              		.loc 1 239 0
 538 0012 01DB     		blt	.L23
 539              	.LVL59:
 540              	.L22:
 541              		.loc 1 242 0
 542 0014 201C     		mov	r0, r4
 543              		@ sp needed
 544              	.LVL60:
 545              	.LVL61:
 546 0016 38BD     		pop	{r3, r4, r5, pc}
 547              	.LVL62:
 548              	.L23:
 549              		.loc 1 240 0
 550 0018 281D     		add	r0, r5, #4
 551              	.LVL63:
 552 001a 0821     		mov	r1, #8
 553 001c FFF7FEFF 		bl	chEvtBroadcastFlagsI
 554              	.LVL64:
 555 0020 F8E7     		b	.L22
 556              		.cfi_endproc
 557              	.LFE53:
 558              		.size	sdRequestDataI, .-sdRequestDataI
 559 0022 C046C046 		.section	.rodata.vmt,"a",%progbits
 559      C046C046 
 559      C046C046 
 559      C046
 560              		.align	2
 561              		.set	.LANCHOR0,. + 0
 562              		.type	vmt, %object
ARM GAS  /var/folders/qh/xwg3v3kj02qbxczjpdb8lzfr0000gn/T//ccyr4Fqq.s 			page 11


 563              		.size	vmt, 32
 564              	vmt:
 565 0000 00000000 		.word	write
 566 0004 00000000 		.word	read
 567 0008 00000000 		.word	put
 568 000c 00000000 		.word	get
 569 0010 00000000 		.word	putt
 570 0014 00000000 		.word	gett
 571 0018 00000000 		.word	writet
 572 001c 00000000 		.word	readt
 573              		.text
 574              	.Letext0:
 575              		.file 2 "/usr/local/Cellar/gcc-arm-none-eabi-48/20131218/lib/gcc/arm-none-eabi/4.8.3/include/stdde
 576              		.file 3 "/usr/local/Cellar/gcc-arm-none-eabi-48/20131218/arm-none-eabi/include/stdint.h"
 577              		.file 4 "../../os/ports/GCC/ARMCMx/chtypes.h"
 578              		.file 5 "../../os/kernel/include/chlists.h"
 579              		.file 6 "../../os/kernel/include/chthreads.h"
 580              		.file 7 "../../os/ports/GCC/ARMCMx/chcore_v6m.h"
 581              		.file 8 "../../os/kernel/include/chmtx.h"
 582              		.file 9 "../../os/kernel/include/chevents.h"
 583              		.file 10 "../../os/kernel/include/chqueues.h"
 584              		.file 11 "../../os/hal/platforms/STM32F0xx/stm32f0xx.h"
 585              		.file 12 "../../os/hal/include/serial.h"
 586              		.file 13 "../../os/hal/platforms/STM32/USARTv2/serial_lld.h"
 587              		.file 14 "../../os/kernel/include/chdebug.h"
 588              		.file 15 "../../os/kernel/include/chschd.h"