ARM GAS  /var/folders/qh/xwg3v3kj02qbxczjpdb8lzfr0000gn/T//cc4kpae7.s 			page 1


   1              		.cpu cortex-m0
   2              		.fpu softvfp
   3              		.eabi_attribute 20, 1
   4              		.eabi_attribute 21, 1
   5              		.eabi_attribute 23, 3
   6              		.eabi_attribute 24, 1
   7              		.eabi_attribute 25, 1
   8              		.eabi_attribute 26, 1
   9              		.eabi_attribute 30, 2
  10              		.eabi_attribute 34, 0
  11              		.eabi_attribute 18, 4
  12              		.code	16
  13              		.file	"serial_lld.c"
  14              		.text
  15              	.Ltext0:
  16              		.cfi_sections	.debug_frame
  17              		.section	.text.notify1,"ax",%progbits
  18              		.align	2
  19              		.p2align 4,,15
  20              		.code	16
  21              		.thumb_func
  22              		.type	notify1, %function
  23              	notify1:
  24              	.LFB44:
  25              		.file 1 "../../os/hal/platforms/STM32/USARTv2/serial_lld.c"
  26              		.loc 1 198 0
  27              		.cfi_startproc
  28              	.LVL0:
  29              		.loc 1 201 0
  30 0000 024B     		ldr	r3, .L2
  31 0002 8022     		mov	r2, #128
  32 0004 1968     		ldr	r1, [r3]
  33              		.loc 1 202 0
  34              		@ sp needed
  35              		.loc 1 201 0
  36 0006 0A43     		orr	r2, r1
  37 0008 1A60     		str	r2, [r3]
  38              		.loc 1 202 0
  39 000a 7047     		bx	lr
  40              	.L3:
  41              		.align	2
  42              	.L2:
  43 000c 00380140 		.word	1073821696
  44              		.cfi_endproc
  45              	.LFE44:
  46              		.size	notify1, .-notify1
  47              		.section	.text.VectorAC,"ax",%progbits
  48              		.align	2
  49              		.p2align 4,,15
  50              		.global	VectorAC
  51              		.code	16
  52              		.thumb_func
  53              		.type	VectorAC, %function
  54              	VectorAC:
  55              	.LFB45:
  56              		.loc 1 258 0
  57              		.cfi_startproc
ARM GAS  /var/folders/qh/xwg3v3kj02qbxczjpdb8lzfr0000gn/T//cc4kpae7.s 			page 2


  58 0000 F8B5     		push	{r3, r4, r5, r6, r7, lr}
  59              		.cfi_def_cfa_offset 24
  60              		.cfi_offset 3, -24
  61              		.cfi_offset 4, -20
  62              		.cfi_offset 5, -16
  63              		.cfi_offset 6, -12
  64              		.cfi_offset 7, -8
  65              		.cfi_offset 14, -4
  66 0002 4F46     		mov	r7, r9
  67 0004 4646     		mov	r6, r8
  68 0006 C0B4     		push	{r6, r7}
  69              		.cfi_def_cfa_offset 32
  70              		.cfi_offset 8, -32
  71              		.cfi_offset 9, -28
  72              		.loc 1 260 0
  73              	@ 260 "../../os/hal/platforms/STM32/USARTv2/serial_lld.c" 1
  74 0008 F046     		mov     r8, lr
  75              	@ 0 "" 2
  76              	.LVL1:
  77              		.code	16
  78 000a FFF7FEFF 		bl	dbg_check_enter_isr
  79              	.LVL2:
  80              	.LBB12:
  81              	.LBB13:
  82              		.loc 1 148 0
  83 000e 3E4E     		ldr	r6, .L50
  84 0010 756F     		ldr	r5, [r6, #116]
  85              	.LVL3:
  86              		.loc 1 149 0
  87 0012 2F68     		ldr	r7, [r5]
  88              	.LVL4:
  89              		.loc 1 153 0
  90 0014 EC69     		ldr	r4, [r5, #28]
  91              	.LVL5:
  92              		.loc 1 154 0
  93 0016 2C62     		str	r4, [r5, #32]
  94              		.loc 1 157 0
  95 0018 2207     		lsl	r2, r4, #28
  96 001a 38D1     		bne	.L45
  97              	.L5:
  98              		.loc 1 161 0
  99 001c E305     		lsl	r3, r4, #23
 100 001e 2AD4     		bmi	.L46
 101              	.L10:
 102              		.loc 1 168 0
 103 0020 A206     		lsl	r2, r4, #26
 104 0022 1CD4     		bmi	.L47
 105              	.L11:
 106              		.loc 1 175 0
 107 0024 8023     		mov	r3, #128
 108 0026 3B42     		tst	r3, r7
 109 0028 01D0     		beq	.L12
 110 002a 2342     		tst	r3, r4
 111 002c 51D1     		bne	.L48
 112              	.L12:
 113              		.loc 1 189 0
 114 002e 6306     		lsl	r3, r4, #25
ARM GAS  /var/folders/qh/xwg3v3kj02qbxczjpdb8lzfr0000gn/T//cc4kpae7.s 			page 3


 115 0030 0CD5     		bpl	.L15
 116              		.loc 1 190 0
 117              	@ 190 "../../os/hal/platforms/STM32/USARTv2/serial_lld.c" 1
 118 0032 72B6     		cpsid   i
 119              	@ 0 "" 2
 120              		.code	16
 121 0034 FFF7FEFF 		bl	dbg_check_lock_from_isr
 122              	.LVL6:
 123              		.loc 1 191 0
 124 0038 301D     		add	r0, r6, #4
 125 003a 1021     		mov	r1, #16
 126 003c FFF7FEFF 		bl	chEvtBroadcastFlagsI
 127              	.LVL7:
 128              		.loc 1 192 0
 129 0040 FFF7FEFF 		bl	dbg_check_unlock_from_isr
 130              	.LVL8:
 131              	@ 192 "../../os/hal/platforms/STM32/USARTv2/serial_lld.c" 1
 132 0044 62B6     		cpsie   i
 133              	@ 0 "" 2
 134              		.loc 1 193 0
 135              		.code	16
 136 0046 4023     		mov	r3, #64
 137 0048 9F43     		bic	r7, r3
 138              	.LVL9:
 139 004a 2F60     		str	r7, [r5]
 140              	.L15:
 141              	.LBE13:
 142              	.LBE12:
 143              		.loc 1 264 0
 144 004c FFF7FEFF 		bl	dbg_check_leave_isr
 145              	.LVL10:
 146 0050 4046     		mov	r0, r8
 147 0052 FFF7FEFF 		bl	_port_irq_epilogue
 148              	.LVL11:
 149              		.loc 1 265 0
 150              		@ sp needed
 151              	.LVL12:
 152              	.LVL13:
 153              	.LVL14:
 154 0056 0CBC     		pop	{r2, r3}
 155 0058 9046     		mov	r8, r2
 156 005a 9946     		mov	r9, r3
 157 005c F8BD     		pop	{r3, r4, r5, r6, r7, pc}
 158              	.LVL15:
 159              	.L47:
 160              	.LBB18:
 161              	.LBB17:
 162              		.loc 1 169 0
 163              	@ 169 "../../os/hal/platforms/STM32/USARTv2/serial_lld.c" 1
 164 005e 72B6     		cpsid   i
 165              	@ 0 "" 2
 166              		.code	16
 167 0060 FFF7FEFF 		bl	dbg_check_lock_from_isr
 168              	.LVL16:
 169              		.loc 1 170 0
 170 0064 696A     		ldr	r1, [r5, #36]
 171 0066 301C     		mov	r0, r6
ARM GAS  /var/folders/qh/xwg3v3kj02qbxczjpdb8lzfr0000gn/T//cc4kpae7.s 			page 4


 172 0068 C9B2     		uxtb	r1, r1
 173 006a FFF7FEFF 		bl	sdIncomingDataI
 174              	.LVL17:
 175              		.loc 1 171 0
 176 006e FFF7FEFF 		bl	dbg_check_unlock_from_isr
 177              	.LVL18:
 178              	@ 171 "../../os/hal/platforms/STM32/USARTv2/serial_lld.c" 1
 179 0072 62B6     		cpsie   i
 180              	@ 0 "" 2
 181              		.code	16
 182 0074 D6E7     		b	.L11
 183              	.L46:
 184              		.loc 1 162 0
 185              	@ 162 "../../os/hal/platforms/STM32/USARTv2/serial_lld.c" 1
 186 0076 72B6     		cpsid   i
 187              	@ 0 "" 2
 188              		.code	16
 189 0078 FFF7FEFF 		bl	dbg_check_lock_from_isr
 190              	.LVL19:
 191              		.loc 1 163 0
 192 007c 8021     		mov	r1, #128
 193 007e 301D     		add	r0, r6, #4
 194 0080 8900     		lsl	r1, r1, #2
 195 0082 FFF7FEFF 		bl	chEvtBroadcastFlagsI
 196              	.LVL20:
 197              		.loc 1 164 0
 198 0086 FFF7FEFF 		bl	dbg_check_unlock_from_isr
 199              	.LVL21:
 200              	@ 164 "../../os/hal/platforms/STM32/USARTv2/serial_lld.c" 1
 201 008a 62B6     		cpsie   i
 202              	@ 0 "" 2
 203              		.code	16
 204 008c C8E7     		b	.L10
 205              	.L45:
 206              	.LVL22:
 207              	.LBB14:
 208              	.LBB15:
 209              		.loc 1 129 0
 210 008e 2307     		lsl	r3, r4, #28
 211              		.loc 1 127 0
 212 0090 DB0F     		lsr	r3, r3, #31
 213 0092 DB01     		lsl	r3, r3, #7
 214 0094 9946     		mov	r9, r3
 215              	.LVL23:
 216              		.loc 1 131 0
 217 0096 E307     		lsl	r3, r4, #31
 218 0098 03D5     		bpl	.L7
 219              	.LVL24:
 220              		.loc 1 132 0
 221 009a 4A46     		mov	r2, r9
 222 009c 2023     		mov	r3, #32
 223 009e 1A43     		orr	r2, r3
 224 00a0 9146     		mov	r9, r2
 225              	.LVL25:
 226              	.L7:
 227              		.loc 1 133 0
 228 00a2 A307     		lsl	r3, r4, #30
ARM GAS  /var/folders/qh/xwg3v3kj02qbxczjpdb8lzfr0000gn/T//cc4kpae7.s 			page 5


 229 00a4 03D5     		bpl	.L8
 230              		.loc 1 134 0
 231 00a6 4A46     		mov	r2, r9
 232 00a8 4023     		mov	r3, #64
 233 00aa 1A43     		orr	r2, r3
 234 00ac 9146     		mov	r9, r2
 235              	.LVL26:
 236              	.L8:
 237              		.loc 1 135 0
 238 00ae 6307     		lsl	r3, r4, #29
 239 00b0 04D5     		bpl	.L9
 240              		.loc 1 136 0
 241 00b2 8023     		mov	r3, #128
 242 00b4 4A46     		mov	r2, r9
 243 00b6 5B00     		lsl	r3, r3, #1
 244 00b8 1A43     		orr	r2, r3
 245 00ba 9146     		mov	r9, r2
 246              	.LVL27:
 247              	.L9:
 248              		.loc 1 137 0
 249              	@ 137 "../../os/hal/platforms/STM32/USARTv2/serial_lld.c" 1
 250 00bc 72B6     		cpsid   i
 251              	@ 0 "" 2
 252              		.code	16
 253 00be FFF7FEFF 		bl	dbg_check_lock_from_isr
 254              	.LVL28:
 255              		.loc 1 138 0
 256 00c2 301D     		add	r0, r6, #4
 257 00c4 4946     		mov	r1, r9
 258 00c6 FFF7FEFF 		bl	chEvtBroadcastFlagsI
 259              	.LVL29:
 260              		.loc 1 139 0
 261 00ca FFF7FEFF 		bl	dbg_check_unlock_from_isr
 262              	.LVL30:
 263              	@ 139 "../../os/hal/platforms/STM32/USARTv2/serial_lld.c" 1
 264 00ce 62B6     		cpsie   i
 265              	@ 0 "" 2
 266              		.code	16
 267 00d0 A4E7     		b	.L5
 268              	.LVL31:
 269              	.L48:
 270              	.LBE15:
 271              	.LBE14:
 272              	.LBB16:
 273              		.loc 1 177 0
 274              	@ 177 "../../os/hal/platforms/STM32/USARTv2/serial_lld.c" 1
 275 00d2 72B6     		cpsid   i
 276              	@ 0 "" 2
 277              		.code	16
 278 00d4 FFF7FEFF 		bl	dbg_check_lock_from_isr
 279              	.LVL32:
 280              		.loc 1 178 0
 281 00d8 301C     		mov	r0, r6
 282 00da 3030     		add	r0, r0, #48
 283 00dc FFF7FEFF 		bl	chOQGetI
 284              	.LVL33:
 285              		.loc 1 179 0
ARM GAS  /var/folders/qh/xwg3v3kj02qbxczjpdb8lzfr0000gn/T//cc4kpae7.s 			page 6


 286 00e0 0028     		cmp	r0, #0
 287 00e2 05DB     		blt	.L49
 288              		.loc 1 184 0
 289 00e4 80B2     		uxth	r0, r0
 290              	.LVL34:
 291 00e6 2885     		strh	r0, [r5, #40]
 292              	.L14:
 293              		.loc 1 185 0
 294 00e8 FFF7FEFF 		bl	dbg_check_unlock_from_isr
 295              	.LVL35:
 296              	@ 185 "../../os/hal/platforms/STM32/USARTv2/serial_lld.c" 1
 297 00ec 62B6     		cpsie   i
 298              	@ 0 "" 2
 299              		.code	16
 300 00ee 9EE7     		b	.L12
 301              	.LVL36:
 302              	.L49:
 303              		.loc 1 180 0
 304 00f0 301D     		add	r0, r6, #4
 305              	.LVL37:
 306 00f2 0821     		mov	r1, #8
 307 00f4 FFF7FEFF 		bl	chEvtBroadcastFlagsI
 308              	.LVL38:
 309              		.loc 1 181 0
 310 00f8 C023     		mov	r3, #192
 311 00fa 3A1C     		mov	r2, r7
 312 00fc 9A43     		bic	r2, r3
 313 00fe 4023     		mov	r3, #64
 314 0100 1343     		orr	r3, r2
 315 0102 2B60     		str	r3, [r5]
 316 0104 F0E7     		b	.L14
 317              	.L51:
 318 0106 C046     		.align	2
 319              	.L50:
 320 0108 00000000 		.word	.LANCHOR0
 321              	.LBE16:
 322              	.LBE17:
 323              	.LBE18:
 324              		.cfi_endproc
 325              	.LFE45:
 326              		.size	VectorAC, .-VectorAC
 327 010c C046C046 		.section	.text.sd_lld_init,"ax",%progbits
 328              		.align	2
 329              		.p2align 4,,15
 330              		.global	sd_lld_init
 331              		.code	16
 332              		.thumb_func
 333              		.type	sd_lld_init, %function
 334              	sd_lld_init:
 335              	.LFB46:
 336              		.loc 1 372 0
 337              		.cfi_startproc
 338 0000 10B5     		push	{r4, lr}
 339              		.cfi_def_cfa_offset 8
 340              		.cfi_offset 4, -8
 341              		.cfi_offset 14, -4
 342              		.loc 1 375 0
ARM GAS  /var/folders/qh/xwg3v3kj02qbxczjpdb8lzfr0000gn/T//cc4kpae7.s 			page 7


 343 0002 054C     		ldr	r4, .L53
 344 0004 0021     		mov	r1, #0
 345 0006 201C     		mov	r0, r4
 346 0008 044A     		ldr	r2, .L53+4
 347 000a FFF7FEFF 		bl	sdObjectInit
 348              	.LVL39:
 349              		.loc 1 376 0
 350 000e 044B     		ldr	r3, .L53+8
 351              		.loc 1 409 0
 352              		@ sp needed
 353              		.loc 1 376 0
 354 0010 6367     		str	r3, [r4, #116]
 355              		.loc 1 377 0
 356 0012 044B     		ldr	r3, .L53+12
 357 0014 A367     		str	r3, [r4, #120]
 358              		.loc 1 409 0
 359 0016 10BD     		pop	{r4, pc}
 360              	.L54:
 361              		.align	2
 362              	.L53:
 363 0018 00000000 		.word	.LANCHOR0
 364 001c 00000000 		.word	notify1
 365 0020 00380140 		.word	1073821696
 366 0024 006CDC02 		.word	48000000
 367              		.cfi_endproc
 368              	.LFE46:
 369              		.size	sd_lld_init, .-sd_lld_init
 370              		.global	__aeabi_uidiv
 371 0028 C046C046 		.section	.text.sd_lld_start,"ax",%progbits
 371      C046C046 
 372              		.align	2
 373              		.p2align 4,,15
 374              		.global	sd_lld_start
 375              		.code	16
 376              		.thumb_func
 377              		.type	sd_lld_start, %function
 378              	sd_lld_start:
 379              	.LFB47:
 380              		.loc 1 421 0
 381              		.cfi_startproc
 382              	.LVL40:
 383 0000 70B5     		push	{r4, r5, r6, lr}
 384              		.cfi_def_cfa_offset 16
 385              		.cfi_offset 4, -16
 386              		.cfi_offset 5, -12
 387              		.cfi_offset 6, -8
 388              		.cfi_offset 14, -4
 389              		.loc 1 421 0
 390 0002 061C     		mov	r6, r0
 391 0004 0C1E     		sub	r4, r1, #0
 392              		.loc 1 423 0
 393 0006 28D0     		beq	.L59
 394              	.L56:
 395              	.LVL41:
 396              		.loc 1 426 0
 397 0008 337A     		ldrb	r3, [r6, #8]
 398 000a 012B     		cmp	r3, #1
ARM GAS  /var/folders/qh/xwg3v3kj02qbxczjpdb8lzfr0000gn/T//cc4kpae7.s 			page 8


 399 000c 17D0     		beq	.L60
 400              	.LVL42:
 401              	.L57:
 402              	.LBB19:
 403              	.LBB20:
 404              		.loc 1 96 0
 405 000e B06F     		ldr	r0, [r6, #120]
 406 0010 2168     		ldr	r1, [r4]
 407 0012 FFF7FEFF 		bl	__aeabi_uidiv
 408              	.LVL43:
 409              		.loc 1 99 0
 410 0016 A268     		ldr	r2, [r4, #8]
 411              	.LBE20:
 412              	.LBE19:
 413              		.loc 1 421 0
 414 0018 756F     		ldr	r5, [r6, #116]
 415              	.LVL44:
 416              	.LBB22:
 417              	.LBB21:
 418              		.loc 1 99 0
 419 001a 4023     		mov	r3, #64
 420 001c 1343     		orr	r3, r2
 421              		.loc 1 96 0
 422 001e 80B2     		uxth	r0, r0
 423              		.loc 1 100 0
 424 0020 E268     		ldr	r2, [r4, #12]
 425              		.loc 1 96 0
 426 0022 A881     		strh	r0, [r5, #12]
 427              		.loc 1 99 0
 428 0024 6B60     		str	r3, [r5, #4]
 429              		.loc 1 100 0
 430 0026 0123     		mov	r3, #1
 431 0028 1343     		orr	r3, r2
 432 002a AB60     		str	r3, [r5, #8]
 433              		.loc 1 102 0
 434 002c 6268     		ldr	r2, [r4, #4]
 435 002e 2E23     		mov	r3, #46
 436 0030 FF33     		add	r3, r3, #255
 437 0032 1343     		orr	r3, r2
 438              		.loc 1 101 0
 439 0034 2B60     		str	r3, [r5]
 440              		.loc 1 104 0
 441 0036 0123     		mov	r3, #1
 442 0038 5B42     		neg	r3, r3
 443 003a 2B62     		str	r3, [r5, #32]
 444              	.LBE21:
 445              	.LBE22:
 446              		.loc 1 471 0
 447              		@ sp needed
 448              	.LVL45:
 449              	.LVL46:
 450              	.LVL47:
 451 003c 70BD     		pop	{r4, r5, r6, pc}
 452              	.LVL48:
 453              	.L60:
 454              		.loc 1 428 0
 455 003e 084B     		ldr	r3, .L61
ARM GAS  /var/folders/qh/xwg3v3kj02qbxczjpdb8lzfr0000gn/T//cc4kpae7.s 			page 9


 456 0040 9E42     		cmp	r6, r3
 457 0042 E4D1     		bne	.L57
 458              		.loc 1 429 0
 459 0044 074B     		ldr	r3, .L61+4
 460 0046 8022     		mov	r2, #128
 461 0048 9969     		ldr	r1, [r3, #24]
 462 004a D201     		lsl	r2, r2, #7
 463 004c 0A43     		orr	r2, r1
 464 004e 9A61     		str	r2, [r3, #24]
 465              		.loc 1 430 0
 466 0050 1B20     		mov	r0, #27
 467              	.LVL49:
 468 0052 C021     		mov	r1, #192
 469 0054 FFF7FEFF 		bl	nvicEnableVector
 470              	.LVL50:
 471 0058 D9E7     		b	.L57
 472              	.LVL51:
 473              	.L59:
 474              		.loc 1 424 0
 475 005a 034C     		ldr	r4, .L61+8
 476 005c D4E7     		b	.L56
 477              	.L62:
 478 005e C046     		.align	2
 479              	.L61:
 480 0060 00000000 		.word	.LANCHOR0
 481 0064 00100240 		.word	1073876992
 482 0068 00000000 		.word	.LANCHOR1
 483              		.cfi_endproc
 484              	.LFE47:
 485              		.size	sd_lld_start, .-sd_lld_start
 486 006c C046C046 		.section	.text.sd_lld_stop,"ax",%progbits
 487              		.align	2
 488              		.p2align 4,,15
 489              		.global	sd_lld_stop
 490              		.code	16
 491              		.thumb_func
 492              		.type	sd_lld_stop, %function
 493              	sd_lld_stop:
 494              	.LFB48:
 495              		.loc 1 482 0
 496              		.cfi_startproc
 497              	.LVL52:
 498 0000 08B5     		push	{r3, lr}
 499              		.cfi_def_cfa_offset 8
 500              		.cfi_offset 3, -8
 501              		.cfi_offset 14, -4
 502              		.loc 1 484 0
 503 0002 037A     		ldrb	r3, [r0, #8]
 504 0004 022B     		cmp	r3, #2
 505 0006 00D0     		beq	.L67
 506              	.LVL53:
 507              	.L63:
 508              		.loc 1 529 0
 509              		@ sp needed
 510 0008 08BD     		pop	{r3, pc}
 511              	.LVL54:
 512              	.L67:
ARM GAS  /var/folders/qh/xwg3v3kj02qbxczjpdb8lzfr0000gn/T//cc4kpae7.s 			page 10


 513              		.loc 1 485 0
 514 000a 436F     		ldr	r3, [r0, #116]
 515              	.LVL55:
 516              	.LBB23:
 517              	.LBB24:
 518              		.loc 1 115 0
 519 000c 0022     		mov	r2, #0
 520 000e 1A60     		str	r2, [r3]
 521              		.loc 1 116 0
 522 0010 5A60     		str	r2, [r3, #4]
 523              		.loc 1 117 0
 524 0012 9A60     		str	r2, [r3, #8]
 525              	.LBE24:
 526              	.LBE23:
 527              		.loc 1 487 0
 528 0014 054B     		ldr	r3, .L68
 529              	.LVL56:
 530 0016 9842     		cmp	r0, r3
 531 0018 F6D1     		bne	.L63
 532              		.loc 1 488 0
 533 001a 054B     		ldr	r3, .L68+4
 534 001c 054A     		ldr	r2, .L68+8
 535 001e 9969     		ldr	r1, [r3, #24]
 536              		.loc 1 489 0
 537 0020 1B20     		mov	r0, #27
 538              	.LVL57:
 539              		.loc 1 488 0
 540 0022 0A40     		and	r2, r1
 541 0024 9A61     		str	r2, [r3, #24]
 542              		.loc 1 489 0
 543 0026 FFF7FEFF 		bl	nvicDisableVector
 544              	.LVL58:
 545              		.loc 1 490 0
 546 002a EDE7     		b	.L63
 547              	.L69:
 548              		.align	2
 549              	.L68:
 550 002c 00000000 		.word	.LANCHOR0
 551 0030 00100240 		.word	1073876992
 552 0034 FFBFFFFF 		.word	-16385
 553              		.cfi_endproc
 554              	.LFE48:
 555              		.size	sd_lld_stop, .-sd_lld_stop
 556              		.global	SD1
 557 0038 C046C046 		.section	.rodata.default_config,"a",%progbits
 557      C046C046 
 558              		.align	2
 559              		.set	.LANCHOR1,. + 0
 560              		.type	default_config, %object
 561              		.size	default_config, 16
 562              	default_config:
 563 0000 00960000 		.word	38400
 564 0004 00000000 		.word	0
 565 0008 00400000 		.word	16384
 566 000c 00000000 		.word	0
 567              		.section	.bss.SD1,"aw",%nobits
 568              		.align	2
ARM GAS  /var/folders/qh/xwg3v3kj02qbxczjpdb8lzfr0000gn/T//cc4kpae7.s 			page 11


 569              		.set	.LANCHOR0,. + 0
 570              		.type	SD1, %object
 571              		.size	SD1, 124
 572              	SD1:
 573 0000 00000000 		.space	124
 573      00000000 
 573      00000000 
 573      00000000 
 573      00000000 
 574              		.text
 575              	.Letext0:
 576              		.file 2 "/usr/local/Cellar/gcc-arm-none-eabi-48/20131218/lib/gcc/arm-none-eabi/4.8.3/include/stdde
 577              		.file 3 "/usr/local/Cellar/gcc-arm-none-eabi-48/20131218/arm-none-eabi/include/stdint.h"
 578              		.file 4 "../../os/ports/GCC/ARMCMx/chtypes.h"
 579              		.file 5 "../../os/kernel/include/chlists.h"
 580              		.file 6 "../../os/kernel/include/chthreads.h"
 581              		.file 7 "../../os/ports/GCC/ARMCMx/chcore_v6m.h"
 582              		.file 8 "../../os/kernel/include/chmtx.h"
 583              		.file 9 "../../os/kernel/include/chevents.h"
 584              		.file 10 "../../os/kernel/include/chqueues.h"
 585              		.file 11 "../../os/hal/platforms/STM32F0xx/stm32f0xx.h"
 586              		.file 12 "../../os/hal/include/serial.h"
 587              		.file 13 "../../os/hal/platforms/STM32/USARTv2/serial_lld.h"
 588              		.file 14 "../../os/kernel/include/chdebug.h"
 589              		.file 15 "../../os/ports/common/ARMCMx/nvic.h"
 590              		.section	.debug_info,"",%progbits
 591              	.Ldebug_info0:
 592 0000 8B0D0000 		.4byte	0xd8b
 593 0004 0400     		.2byte	0x4
 594 0006 00000000 		.4byte	.Ldebug_abbrev0
 595 000a 04       		.byte	0x4
 596 000b 01       		.uleb128 0x1
 597 000c EA000000 		.4byte	.LASF137
 598 0010 01       		.byte	0x1
 599 0011 B1000000 		.4byte	.LASF138
 600 0015 B7020000 		.4byte	.LASF139
 601 0019 30000000 		.4byte	.Ldebug_ranges0+0x30
 602 001d 00000000 		.4byte	0
 603 0021 00000000 		.4byte	.Ldebug_line0
 604 0025 02       		.uleb128 0x2
 605 0026 04       		.byte	0x4
 606 0027 05       		.byte	0x5
 607 0028 696E7400 		.ascii	"int\000"
 608 002c 03       		.uleb128 0x3
 609 002d F2020000 		.4byte	.LASF2
 610 0031 02       		.byte	0x2
 611 0032 D4       		.byte	0xd4
 612 0033 37000000 		.4byte	0x37
 613 0037 04       		.uleb128 0x4
 614 0038 04       		.byte	0x4
 615 0039 07       		.byte	0x7
 616 003a 77000000 		.4byte	.LASF0
 617 003e 04       		.uleb128 0x4
 618 003f 01       		.byte	0x1
 619 0040 06       		.byte	0x6
 620 0041 2B060000 		.4byte	.LASF1
 621 0045 03       		.uleb128 0x3
ARM GAS  /var/folders/qh/xwg3v3kj02qbxczjpdb8lzfr0000gn/T//cc4kpae7.s 			page 12


 622 0046 D5030000 		.4byte	.LASF3
 623 004a 03       		.byte	0x3
 624 004b 2A       		.byte	0x2a
 625 004c 50000000 		.4byte	0x50
 626 0050 04       		.uleb128 0x4
 627 0051 01       		.byte	0x1
 628 0052 08       		.byte	0x8
 629 0053 E4050000 		.4byte	.LASF4
 630 0057 04       		.uleb128 0x4
 631 0058 02       		.byte	0x2
 632 0059 05       		.byte	0x5
 633 005a 33050000 		.4byte	.LASF5
 634 005e 03       		.uleb128 0x3
 635 005f AC040000 		.4byte	.LASF6
 636 0063 03       		.byte	0x3
 637 0064 36       		.byte	0x36
 638 0065 69000000 		.4byte	0x69
 639 0069 04       		.uleb128 0x4
 640 006a 02       		.byte	0x2
 641 006b 07       		.byte	0x7
 642 006c 3D060000 		.4byte	.LASF7
 643 0070 03       		.uleb128 0x3
 644 0071 DC050000 		.4byte	.LASF8
 645 0075 03       		.byte	0x3
 646 0076 4F       		.byte	0x4f
 647 0077 7B000000 		.4byte	0x7b
 648 007b 04       		.uleb128 0x4
 649 007c 04       		.byte	0x4
 650 007d 05       		.byte	0x5
 651 007e 50050000 		.4byte	.LASF9
 652 0082 03       		.uleb128 0x3
 653 0083 13020000 		.4byte	.LASF10
 654 0087 03       		.byte	0x3
 655 0088 50       		.byte	0x50
 656 0089 8D000000 		.4byte	0x8d
 657 008d 04       		.uleb128 0x4
 658 008e 04       		.byte	0x4
 659 008f 07       		.byte	0x7
 660 0090 CA050000 		.4byte	.LASF11
 661 0094 04       		.uleb128 0x4
 662 0095 08       		.byte	0x8
 663 0096 05       		.byte	0x5
 664 0097 06040000 		.4byte	.LASF12
 665 009b 04       		.uleb128 0x4
 666 009c 08       		.byte	0x8
 667 009d 07       		.byte	0x7
 668 009e 5E020000 		.4byte	.LASF13
 669 00a2 04       		.uleb128 0x4
 670 00a3 01       		.byte	0x1
 671 00a4 02       		.byte	0x2
 672 00a5 00030000 		.4byte	.LASF14
 673 00a9 03       		.uleb128 0x3
 674 00aa 90040000 		.4byte	.LASF15
 675 00ae 04       		.byte	0x4
 676 00af 25       		.byte	0x25
 677 00b0 45000000 		.4byte	0x45
 678 00b4 03       		.uleb128 0x3
ARM GAS  /var/folders/qh/xwg3v3kj02qbxczjpdb8lzfr0000gn/T//cc4kpae7.s 			page 13


 679 00b5 A0030000 		.4byte	.LASF16
 680 00b9 04       		.byte	0x4
 681 00ba 26       		.byte	0x26
 682 00bb 45000000 		.4byte	0x45
 683 00bf 03       		.uleb128 0x3
 684 00c0 B4050000 		.4byte	.LASF17
 685 00c4 04       		.byte	0x4
 686 00c5 27       		.byte	0x27
 687 00c6 45000000 		.4byte	0x45
 688 00ca 03       		.uleb128 0x3
 689 00cb 45040000 		.4byte	.LASF18
 690 00cf 04       		.byte	0x4
 691 00d0 28       		.byte	0x28
 692 00d1 45000000 		.4byte	0x45
 693 00d5 03       		.uleb128 0x3
 694 00d6 4D020000 		.4byte	.LASF19
 695 00da 04       		.byte	0x4
 696 00db 29       		.byte	0x29
 697 00dc 82000000 		.4byte	0x82
 698 00e0 03       		.uleb128 0x3
 699 00e1 23040000 		.4byte	.LASF20
 700 00e5 04       		.byte	0x4
 701 00e6 2A       		.byte	0x2a
 702 00e7 70000000 		.4byte	0x70
 703 00eb 03       		.uleb128 0x3
 704 00ec 1C020000 		.4byte	.LASF21
 705 00f0 04       		.byte	0x4
 706 00f1 2C       		.byte	0x2c
 707 00f2 82000000 		.4byte	0x82
 708 00f6 03       		.uleb128 0x3
 709 00f7 DD030000 		.4byte	.LASF22
 710 00fb 04       		.byte	0x4
 711 00fc 2D       		.byte	0x2d
 712 00fd 82000000 		.4byte	0x82
 713 0101 03       		.uleb128 0x3
 714 0102 5A000000 		.4byte	.LASF23
 715 0106 04       		.byte	0x4
 716 0107 2E       		.byte	0x2e
 717 0108 82000000 		.4byte	0x82
 718 010c 03       		.uleb128 0x3
 719 010d 99030000 		.4byte	.LASF24
 720 0111 05       		.byte	0x5
 721 0112 23       		.byte	0x23
 722 0113 17010000 		.4byte	0x117
 723 0117 05       		.uleb128 0x5
 724 0118 99030000 		.4byte	.LASF24
 725 011c 48       		.byte	0x48
 726 011d 06       		.byte	0x6
 727 011e 57       		.byte	0x57
 728 011f 14020000 		.4byte	0x214
 729 0123 06       		.uleb128 0x6
 730 0124 59050000 		.4byte	.LASF25
 731 0128 06       		.byte	0x6
 732 0129 58       		.byte	0x58
 733 012a 35020000 		.4byte	0x235
 734 012e 00       		.byte	0
 735 012f 06       		.uleb128 0x6
ARM GAS  /var/folders/qh/xwg3v3kj02qbxczjpdb8lzfr0000gn/T//cc4kpae7.s 			page 14


 736 0130 A4050000 		.4byte	.LASF26
 737 0134 06       		.byte	0x6
 738 0135 5A       		.byte	0x5a
 739 0136 35020000 		.4byte	0x235
 740 013a 04       		.byte	0x4
 741 013b 06       		.uleb128 0x6
 742 013c 40000000 		.4byte	.LASF27
 743 0140 06       		.byte	0x6
 744 0141 5C       		.byte	0x5c
 745 0142 D5000000 		.4byte	0xd5
 746 0146 08       		.byte	0x8
 747 0147 06       		.uleb128 0x6
 748 0148 60050000 		.4byte	.LASF28
 749 014c 06       		.byte	0x6
 750 014d 5D       		.byte	0x5d
 751 014e E5020000 		.4byte	0x2e5
 752 0152 0C       		.byte	0xc
 753 0153 06       		.uleb128 0x6
 754 0154 A0020000 		.4byte	.LASF29
 755 0158 06       		.byte	0x6
 756 0159 5F       		.byte	0x5f
 757 015a 35020000 		.4byte	0x235
 758 015e 10       		.byte	0x10
 759 015f 06       		.uleb128 0x6
 760 0160 C5030000 		.4byte	.LASF30
 761 0164 06       		.byte	0x6
 762 0165 60       		.byte	0x60
 763 0166 35020000 		.4byte	0x235
 764 016a 14       		.byte	0x14
 765 016b 06       		.uleb128 0x6
 766 016c 55030000 		.4byte	.LASF31
 767 0170 06       		.byte	0x6
 768 0171 67       		.byte	0x67
 769 0172 FE030000 		.4byte	0x3fe
 770 0176 18       		.byte	0x18
 771 0177 06       		.uleb128 0x6
 772 0178 CD030000 		.4byte	.LASF32
 773 017c 06       		.byte	0x6
 774 017d 72       		.byte	0x72
 775 017e B4000000 		.4byte	0xb4
 776 0182 1C       		.byte	0x1c
 777 0183 06       		.uleb128 0x6
 778 0184 3D040000 		.4byte	.LASF33
 779 0188 06       		.byte	0x6
 780 0189 76       		.byte	0x76
 781 018a A9000000 		.4byte	0xa9
 782 018e 1D       		.byte	0x1d
 783 018f 06       		.uleb128 0x6
 784 0190 F2050000 		.4byte	.LASF34
 785 0194 06       		.byte	0x6
 786 0195 7B       		.byte	0x7b
 787 0196 BF000000 		.4byte	0xbf
 788 019a 1E       		.byte	0x1e
 789 019b 06       		.uleb128 0x6
 790 019c 0C060000 		.4byte	.LASF35
 791 01a0 06       		.byte	0x6
 792 01a1 81       		.byte	0x81
ARM GAS  /var/folders/qh/xwg3v3kj02qbxczjpdb8lzfr0000gn/T//cc4kpae7.s 			page 15


 793 01a2 CA000000 		.4byte	0xca
 794 01a6 1F       		.byte	0x1f
 795 01a7 06       		.uleb128 0x6
 796 01a8 30000000 		.4byte	.LASF36
 797 01ac 06       		.byte	0x6
 798 01ad 88       		.byte	0x88
 799 01ae 10030000 		.4byte	0x310
 800 01b2 20       		.byte	0x20
 801 01b3 07       		.uleb128 0x7
 802 01b4 705F7500 		.ascii	"p_u\000"
 803 01b8 06       		.byte	0x6
 804 01b9 AD       		.byte	0xad
 805 01ba C9030000 		.4byte	0x3c9
 806 01be 24       		.byte	0x24
 807 01bf 06       		.uleb128 0x6
 808 01c0 11000000 		.4byte	.LASF37
 809 01c4 06       		.byte	0x6
 810 01c5 B2       		.byte	0xb2
 811 01c6 5B020000 		.4byte	0x25b
 812 01ca 28       		.byte	0x28
 813 01cb 06       		.uleb128 0x6
 814 01cc 6C000000 		.4byte	.LASF38
 815 01d0 06       		.byte	0x6
 816 01d1 B8       		.byte	0xb8
 817 01d2 3B020000 		.4byte	0x23b
 818 01d6 2C       		.byte	0x2c
 819 01d7 06       		.uleb128 0x6
 820 01d8 8A040000 		.4byte	.LASF39
 821 01dc 06       		.byte	0x6
 822 01dd BC       		.byte	0xbc
 823 01de E0000000 		.4byte	0xe0
 824 01e2 34       		.byte	0x34
 825 01e3 06       		.uleb128 0x6
 826 01e4 3D050000 		.4byte	.LASF40
 827 01e8 06       		.byte	0x6
 828 01e9 C2       		.byte	0xc2
 829 01ea EB000000 		.4byte	0xeb
 830 01ee 38       		.byte	0x38
 831 01ef 06       		.uleb128 0x6
 832 01f0 F6030000 		.4byte	.LASF41
 833 01f4 06       		.byte	0x6
 834 01f5 C9       		.byte	0xc9
 835 01f6 10040000 		.4byte	0x410
 836 01fa 3C       		.byte	0x3c
 837 01fb 06       		.uleb128 0x6
 838 01fc F6040000 		.4byte	.LASF42
 839 0200 06       		.byte	0x6
 840 0201 CD       		.byte	0xcd
 841 0202 D5000000 		.4byte	0xd5
 842 0206 40       		.byte	0x40
 843 0207 06       		.uleb128 0x6
 844 0208 EE030000 		.4byte	.LASF43
 845 020c 06       		.byte	0x6
 846 020d D3       		.byte	0xd3
 847 020e 71020000 		.4byte	0x271
 848 0212 44       		.byte	0x44
 849 0213 00       		.byte	0
ARM GAS  /var/folders/qh/xwg3v3kj02qbxczjpdb8lzfr0000gn/T//cc4kpae7.s 			page 16


 850 0214 08       		.uleb128 0x8
 851 0215 08       		.byte	0x8
 852 0216 05       		.byte	0x5
 853 0217 5A       		.byte	0x5a
 854 0218 35020000 		.4byte	0x235
 855 021c 06       		.uleb128 0x6
 856 021d 59050000 		.4byte	.LASF25
 857 0221 05       		.byte	0x5
 858 0222 5B       		.byte	0x5b
 859 0223 35020000 		.4byte	0x235
 860 0227 00       		.byte	0
 861 0228 06       		.uleb128 0x6
 862 0229 A4050000 		.4byte	.LASF26
 863 022d 05       		.byte	0x5
 864 022e 5D       		.byte	0x5d
 865 022f 35020000 		.4byte	0x235
 866 0233 04       		.byte	0x4
 867 0234 00       		.byte	0
 868 0235 09       		.uleb128 0x9
 869 0236 04       		.byte	0x4
 870 0237 0C010000 		.4byte	0x10c
 871 023b 03       		.uleb128 0x3
 872 023c 7F030000 		.4byte	.LASF44
 873 0240 05       		.byte	0x5
 874 0241 5F       		.byte	0x5f
 875 0242 14020000 		.4byte	0x214
 876 0246 08       		.uleb128 0x8
 877 0247 04       		.byte	0x4
 878 0248 05       		.byte	0x5
 879 0249 64       		.byte	0x64
 880 024a 5B020000 		.4byte	0x25b
 881 024e 06       		.uleb128 0x6
 882 024f 59050000 		.4byte	.LASF25
 883 0253 05       		.byte	0x5
 884 0254 66       		.byte	0x66
 885 0255 35020000 		.4byte	0x235
 886 0259 00       		.byte	0
 887 025a 00       		.byte	0
 888 025b 03       		.uleb128 0x3
 889 025c 05000000 		.4byte	.LASF45
 890 0260 05       		.byte	0x5
 891 0261 69       		.byte	0x69
 892 0262 46020000 		.4byte	0x246
 893 0266 03       		.uleb128 0x3
 894 0267 37000000 		.4byte	.LASF46
 895 026b 07       		.byte	0x7
 896 026c A0       		.byte	0xa0
 897 026d 71020000 		.4byte	0x271
 898 0271 0A       		.uleb128 0xa
 899 0272 04       		.byte	0x4
 900 0273 05       		.uleb128 0x5
 901 0274 C2040000 		.4byte	.LASF47
 902 0278 24       		.byte	0x24
 903 0279 07       		.byte	0x7
 904 027a B3       		.byte	0xb3
 905 027b E5020000 		.4byte	0x2e5
 906 027f 07       		.uleb128 0x7
ARM GAS  /var/folders/qh/xwg3v3kj02qbxczjpdb8lzfr0000gn/T//cc4kpae7.s 			page 17


 907 0280 723800   		.ascii	"r8\000"
 908 0283 07       		.byte	0x7
 909 0284 B4       		.byte	0xb4
 910 0285 66020000 		.4byte	0x266
 911 0289 00       		.byte	0
 912 028a 07       		.uleb128 0x7
 913 028b 723900   		.ascii	"r9\000"
 914 028e 07       		.byte	0x7
 915 028f B5       		.byte	0xb5
 916 0290 66020000 		.4byte	0x266
 917 0294 04       		.byte	0x4
 918 0295 07       		.uleb128 0x7
 919 0296 72313000 		.ascii	"r10\000"
 920 029a 07       		.byte	0x7
 921 029b B6       		.byte	0xb6
 922 029c 66020000 		.4byte	0x266
 923 02a0 08       		.byte	0x8
 924 02a1 07       		.uleb128 0x7
 925 02a2 72313100 		.ascii	"r11\000"
 926 02a6 07       		.byte	0x7
 927 02a7 B7       		.byte	0xb7
 928 02a8 66020000 		.4byte	0x266
 929 02ac 0C       		.byte	0xc
 930 02ad 07       		.uleb128 0x7
 931 02ae 723400   		.ascii	"r4\000"
 932 02b1 07       		.byte	0x7
 933 02b2 B8       		.byte	0xb8
 934 02b3 66020000 		.4byte	0x266
 935 02b7 10       		.byte	0x10
 936 02b8 07       		.uleb128 0x7
 937 02b9 723500   		.ascii	"r5\000"
 938 02bc 07       		.byte	0x7
 939 02bd B9       		.byte	0xb9
 940 02be 66020000 		.4byte	0x266
 941 02c2 14       		.byte	0x14
 942 02c3 07       		.uleb128 0x7
 943 02c4 723600   		.ascii	"r6\000"
 944 02c7 07       		.byte	0x7
 945 02c8 BA       		.byte	0xba
 946 02c9 66020000 		.4byte	0x266
 947 02cd 18       		.byte	0x18
 948 02ce 07       		.uleb128 0x7
 949 02cf 723700   		.ascii	"r7\000"
 950 02d2 07       		.byte	0x7
 951 02d3 BB       		.byte	0xbb
 952 02d4 66020000 		.4byte	0x266
 953 02d8 1C       		.byte	0x1c
 954 02d9 07       		.uleb128 0x7
 955 02da 6C7200   		.ascii	"lr\000"
 956 02dd 07       		.byte	0x7
 957 02de BC       		.byte	0xbc
 958 02df 66020000 		.4byte	0x266
 959 02e3 20       		.byte	0x20
 960 02e4 00       		.byte	0
 961 02e5 05       		.uleb128 0x5
 962 02e6 35040000 		.4byte	.LASF48
 963 02ea 04       		.byte	0x4
ARM GAS  /var/folders/qh/xwg3v3kj02qbxczjpdb8lzfr0000gn/T//cc4kpae7.s 			page 18


 964 02eb 07       		.byte	0x7
 965 02ec C6       		.byte	0xc6
 966 02ed FE020000 		.4byte	0x2fe
 967 02f1 07       		.uleb128 0x7
 968 02f2 72313300 		.ascii	"r13\000"
 969 02f6 07       		.byte	0x7
 970 02f7 C7       		.byte	0xc7
 971 02f8 FE020000 		.4byte	0x2fe
 972 02fc 00       		.byte	0
 973 02fd 00       		.byte	0
 974 02fe 09       		.uleb128 0x9
 975 02ff 04       		.byte	0x4
 976 0300 73020000 		.4byte	0x273
 977 0304 0B       		.uleb128 0xb
 978 0305 82000000 		.4byte	0x82
 979 0309 04       		.uleb128 0x4
 980 030a 04       		.byte	0x4
 981 030b 07       		.byte	0x7
 982 030c AB050000 		.4byte	.LASF49
 983 0310 0B       		.uleb128 0xb
 984 0311 01010000 		.4byte	0x101
 985 0315 05       		.uleb128 0x5
 986 0316 34030000 		.4byte	.LASF50
 987 031a 10       		.byte	0x10
 988 031b 08       		.byte	0x8
 989 031c 25       		.byte	0x25
 990 031d 46030000 		.4byte	0x346
 991 0321 06       		.uleb128 0x6
 992 0322 48050000 		.4byte	.LASF51
 993 0326 08       		.byte	0x8
 994 0327 26       		.byte	0x26
 995 0328 3B020000 		.4byte	0x23b
 996 032c 00       		.byte	0
 997 032d 06       		.uleb128 0x6
 998 032e 64000000 		.4byte	.LASF52
 999 0332 08       		.byte	0x8
 1000 0333 28       		.byte	0x28
 1001 0334 35020000 		.4byte	0x235
 1002 0338 08       		.byte	0x8
 1003 0339 06       		.uleb128 0x6
 1004 033a 24060000 		.4byte	.LASF53
 1005 033e 08       		.byte	0x8
 1006 033f 2A       		.byte	0x2a
 1007 0340 46030000 		.4byte	0x346
 1008 0344 0C       		.byte	0xc
 1009 0345 00       		.byte	0
 1010 0346 09       		.uleb128 0x9
 1011 0347 04       		.byte	0x4
 1012 0348 15030000 		.4byte	0x315
 1013 034c 03       		.uleb128 0x3
 1014 034d 34030000 		.4byte	.LASF50
 1015 0351 08       		.byte	0x8
 1016 0352 2C       		.byte	0x2c
 1017 0353 15030000 		.4byte	0x315
 1018 0357 03       		.uleb128 0x3
 1019 0358 BC050000 		.4byte	.LASF54
 1020 035c 09       		.byte	0x9
ARM GAS  /var/folders/qh/xwg3v3kj02qbxczjpdb8lzfr0000gn/T//cc4kpae7.s 			page 19


 1021 035d 25       		.byte	0x25
 1022 035e 62030000 		.4byte	0x362
 1023 0362 05       		.uleb128 0x5
 1024 0363 BC050000 		.4byte	.LASF54
 1025 0367 10       		.byte	0x10
 1026 0368 09       		.byte	0x9
 1027 0369 2A       		.byte	0x2a
 1028 036a 9F030000 		.4byte	0x39f
 1029 036e 06       		.uleb128 0x6
 1030 036f 82040000 		.4byte	.LASF55
 1031 0373 09       		.byte	0x9
 1032 0374 2B       		.byte	0x2b
 1033 0375 9F030000 		.4byte	0x39f
 1034 0379 00       		.byte	0
 1035 037a 06       		.uleb128 0x6
 1036 037b 70050000 		.4byte	.LASF56
 1037 037f 09       		.byte	0x9
 1038 0380 2E       		.byte	0x2e
 1039 0381 35020000 		.4byte	0x235
 1040 0385 04       		.byte	0x4
 1041 0386 06       		.uleb128 0x6
 1042 0387 96000000 		.4byte	.LASF57
 1043 038b 09       		.byte	0x9
 1044 038c 30       		.byte	0x30
 1045 038d EB000000 		.4byte	0xeb
 1046 0391 08       		.byte	0x8
 1047 0392 06       		.uleb128 0x6
 1048 0393 8E060000 		.4byte	.LASF58
 1049 0397 09       		.byte	0x9
 1050 0398 33       		.byte	0x33
 1051 0399 F6000000 		.4byte	0xf6
 1052 039d 0C       		.byte	0xc
 1053 039e 00       		.byte	0
 1054 039f 09       		.uleb128 0x9
 1055 03a0 04       		.byte	0x4
 1056 03a1 57030000 		.4byte	0x357
 1057 03a5 05       		.uleb128 0x5
 1058 03a6 76040000 		.4byte	.LASF59
 1059 03aa 04       		.byte	0x4
 1060 03ab 09       		.byte	0x9
 1061 03ac 3A       		.byte	0x3a
 1062 03ad BE030000 		.4byte	0x3be
 1063 03b1 06       		.uleb128 0x6
 1064 03b2 16060000 		.4byte	.LASF60
 1065 03b6 09       		.byte	0x9
 1066 03b7 3B       		.byte	0x3b
 1067 03b8 9F030000 		.4byte	0x39f
 1068 03bc 00       		.byte	0
 1069 03bd 00       		.byte	0
 1070 03be 03       		.uleb128 0x3
 1071 03bf 76040000 		.4byte	.LASF59
 1072 03c3 09       		.byte	0x9
 1073 03c4 3E       		.byte	0x3e
 1074 03c5 A5030000 		.4byte	0x3a5
 1075 03c9 0C       		.uleb128 0xc
 1076 03ca 04       		.byte	0x4
 1077 03cb 06       		.byte	0x6
ARM GAS  /var/folders/qh/xwg3v3kj02qbxczjpdb8lzfr0000gn/T//cc4kpae7.s 			page 20


 1078 03cc 8F       		.byte	0x8f
 1079 03cd FE030000 		.4byte	0x3fe
 1080 03d1 0D       		.uleb128 0xd
 1081 03d2 F9020000 		.4byte	.LASF61
 1082 03d6 06       		.byte	0x6
 1083 03d7 96       		.byte	0x96
 1084 03d8 E0000000 		.4byte	0xe0
 1085 03dc 0D       		.uleb128 0xd
 1086 03dd 97060000 		.4byte	.LASF62
 1087 03e1 06       		.byte	0x6
 1088 03e2 9D       		.byte	0x9d
 1089 03e3 E0000000 		.4byte	0xe0
 1090 03e7 0D       		.uleb128 0xd
 1091 03e8 AA000000 		.4byte	.LASF63
 1092 03ec 06       		.byte	0x6
 1093 03ed A4       		.byte	0xa4
 1094 03ee 71020000 		.4byte	0x271
 1095 03f2 0D       		.uleb128 0xd
 1096 03f3 D1010000 		.4byte	.LASF64
 1097 03f7 06       		.byte	0x6
 1098 03f8 AB       		.byte	0xab
 1099 03f9 EB000000 		.4byte	0xeb
 1100 03fd 00       		.byte	0
 1101 03fe 09       		.uleb128 0x9
 1102 03ff 04       		.byte	0x4
 1103 0400 04040000 		.4byte	0x404
 1104 0404 0E       		.uleb128 0xe
 1105 0405 09040000 		.4byte	0x409
 1106 0409 04       		.uleb128 0x4
 1107 040a 01       		.byte	0x1
 1108 040b 08       		.byte	0x8
 1109 040c 8C030000 		.4byte	.LASF65
 1110 0410 09       		.uleb128 0x9
 1111 0411 04       		.byte	0x4
 1112 0412 4C030000 		.4byte	0x34c
 1113 0416 09       		.uleb128 0x9
 1114 0417 04       		.byte	0x4
 1115 0418 1C040000 		.4byte	0x41c
 1116 041c 0F       		.uleb128 0xf
 1117 041d E0000000 		.4byte	0xe0
 1118 0421 2B040000 		.4byte	0x42b
 1119 0425 10       		.uleb128 0x10
 1120 0426 71020000 		.4byte	0x271
 1121 042a 00       		.byte	0
 1122 042b 03       		.uleb128 0x3
 1123 042c 98040000 		.4byte	.LASF66
 1124 0430 0A       		.byte	0xa
 1125 0431 30       		.byte	0x30
 1126 0432 36040000 		.4byte	0x436
 1127 0436 05       		.uleb128 0x5
 1128 0437 98040000 		.4byte	.LASF66
 1129 043b 24       		.byte	0x24
 1130 043c 0A       		.byte	0xa
 1131 043d 3E       		.byte	0x3e
 1132 043e A3040000 		.4byte	0x4a3
 1133 0442 06       		.uleb128 0x6
 1134 0443 A8020000 		.4byte	.LASF67
ARM GAS  /var/folders/qh/xwg3v3kj02qbxczjpdb8lzfr0000gn/T//cc4kpae7.s 			page 21


 1135 0447 0A       		.byte	0xa
 1136 0448 3F       		.byte	0x3f
 1137 0449 3B020000 		.4byte	0x23b
 1138 044d 00       		.byte	0
 1139 044e 06       		.uleb128 0x6
 1140 044f 8F050000 		.4byte	.LASF68
 1141 0453 0A       		.byte	0xa
 1142 0454 40       		.byte	0x40
 1143 0455 2C000000 		.4byte	0x2c
 1144 0459 08       		.byte	0x8
 1145 045a 06       		.uleb128 0x6
 1146 045b 1A040000 		.4byte	.LASF69
 1147 045f 0A       		.byte	0xa
 1148 0460 41       		.byte	0x41
 1149 0461 C5040000 		.4byte	0x4c5
 1150 0465 0C       		.byte	0xc
 1151 0466 06       		.uleb128 0x6
 1152 0467 9E050000 		.4byte	.LASF70
 1153 046b 0A       		.byte	0xa
 1154 046c 42       		.byte	0x42
 1155 046d C5040000 		.4byte	0x4c5
 1156 0471 10       		.byte	0x10
 1157 0472 06       		.uleb128 0x6
 1158 0473 91030000 		.4byte	.LASF71
 1159 0477 0A       		.byte	0xa
 1160 0478 44       		.byte	0x44
 1161 0479 C5040000 		.4byte	0x4c5
 1162 047d 14       		.byte	0x14
 1163 047e 06       		.uleb128 0x6
 1164 047f 84000000 		.4byte	.LASF72
 1165 0483 0A       		.byte	0xa
 1166 0484 45       		.byte	0x45
 1167 0485 C5040000 		.4byte	0x4c5
 1168 0489 18       		.byte	0x18
 1169 048a 06       		.uleb128 0x6
 1170 048b 46030000 		.4byte	.LASF73
 1171 048f 0A       		.byte	0xa
 1172 0490 46       		.byte	0x46
 1173 0491 A3040000 		.4byte	0x4a3
 1174 0495 1C       		.byte	0x1c
 1175 0496 06       		.uleb128 0x6
 1176 0497 E3000000 		.4byte	.LASF74
 1177 049b 0A       		.byte	0xa
 1178 049c 47       		.byte	0x47
 1179 049d 71020000 		.4byte	0x271
 1180 04a1 20       		.byte	0x20
 1181 04a2 00       		.byte	0
 1182 04a3 03       		.uleb128 0x3
 1183 04a4 8C000000 		.4byte	.LASF75
 1184 04a8 0A       		.byte	0xa
 1185 04a9 33       		.byte	0x33
 1186 04aa AE040000 		.4byte	0x4ae
 1187 04ae 09       		.uleb128 0x9
 1188 04af 04       		.byte	0x4
 1189 04b0 B4040000 		.4byte	0x4b4
 1190 04b4 11       		.uleb128 0x11
 1191 04b5 BF040000 		.4byte	0x4bf
ARM GAS  /var/folders/qh/xwg3v3kj02qbxczjpdb8lzfr0000gn/T//cc4kpae7.s 			page 22


 1192 04b9 10       		.uleb128 0x10
 1193 04ba BF040000 		.4byte	0x4bf
 1194 04be 00       		.byte	0
 1195 04bf 09       		.uleb128 0x9
 1196 04c0 04       		.byte	0x4
 1197 04c1 2B040000 		.4byte	0x42b
 1198 04c5 09       		.uleb128 0x9
 1199 04c6 04       		.byte	0x4
 1200 04c7 45000000 		.4byte	0x45
 1201 04cb 03       		.uleb128 0x3
 1202 04cc 74030000 		.4byte	.LASF76
 1203 04d0 0A       		.byte	0xa
 1204 04d1 7B       		.byte	0x7b
 1205 04d2 2B040000 		.4byte	0x42b
 1206 04d6 03       		.uleb128 0x3
 1207 04d7 3A030000 		.4byte	.LASF77
 1208 04db 0A       		.byte	0xa
 1209 04dc EE       		.byte	0xee
 1210 04dd 2B040000 		.4byte	0x42b
 1211 04e1 0F       		.uleb128 0xf
 1212 04e2 2C000000 		.4byte	0x2c
 1213 04e6 FA040000 		.4byte	0x4fa
 1214 04ea 10       		.uleb128 0x10
 1215 04eb 71020000 		.4byte	0x271
 1216 04ef 10       		.uleb128 0x10
 1217 04f0 FA040000 		.4byte	0x4fa
 1218 04f4 10       		.uleb128 0x10
 1219 04f5 2C000000 		.4byte	0x2c
 1220 04f9 00       		.byte	0
 1221 04fa 09       		.uleb128 0x9
 1222 04fb 04       		.byte	0x4
 1223 04fc 00050000 		.4byte	0x500
 1224 0500 0E       		.uleb128 0xe
 1225 0501 45000000 		.4byte	0x45
 1226 0505 09       		.uleb128 0x9
 1227 0506 04       		.byte	0x4
 1228 0507 E1040000 		.4byte	0x4e1
 1229 050b 0F       		.uleb128 0xf
 1230 050c 2C000000 		.4byte	0x2c
 1231 0510 24050000 		.4byte	0x524
 1232 0514 10       		.uleb128 0x10
 1233 0515 71020000 		.4byte	0x271
 1234 0519 10       		.uleb128 0x10
 1235 051a C5040000 		.4byte	0x4c5
 1236 051e 10       		.uleb128 0x10
 1237 051f 2C000000 		.4byte	0x2c
 1238 0523 00       		.byte	0
 1239 0524 09       		.uleb128 0x9
 1240 0525 04       		.byte	0x4
 1241 0526 0B050000 		.4byte	0x50b
 1242 052a 0F       		.uleb128 0xf
 1243 052b E0000000 		.4byte	0xe0
 1244 052f 3E050000 		.4byte	0x53e
 1245 0533 10       		.uleb128 0x10
 1246 0534 71020000 		.4byte	0x271
 1247 0538 10       		.uleb128 0x10
 1248 0539 45000000 		.4byte	0x45
ARM GAS  /var/folders/qh/xwg3v3kj02qbxczjpdb8lzfr0000gn/T//cc4kpae7.s 			page 23


 1249 053d 00       		.byte	0
 1250 053e 09       		.uleb128 0x9
 1251 053f 04       		.byte	0x4
 1252 0540 2A050000 		.4byte	0x52a
 1253 0544 0B       		.uleb128 0xb
 1254 0545 5E000000 		.4byte	0x5e
 1255 0549 12       		.uleb128 0x12
 1256 054a 38       		.byte	0x38
 1257 054b 0B       		.byte	0xb
 1258 054c 1702     		.2byte	0x217
 1259 054e 08060000 		.4byte	0x608
 1260 0552 13       		.uleb128 0x13
 1261 0553 435200   		.ascii	"CR\000"
 1262 0556 0B       		.byte	0xb
 1263 0557 1902     		.2byte	0x219
 1264 0559 04030000 		.4byte	0x304
 1265 055d 00       		.byte	0
 1266 055e 14       		.uleb128 0x14
 1267 055f 66050000 		.4byte	.LASF78
 1268 0563 0B       		.byte	0xb
 1269 0564 1A02     		.2byte	0x21a
 1270 0566 04030000 		.4byte	0x304
 1271 056a 04       		.byte	0x4
 1272 056b 13       		.uleb128 0x13
 1273 056c 43495200 		.ascii	"CIR\000"
 1274 0570 0B       		.byte	0xb
 1275 0571 1B02     		.2byte	0x21b
 1276 0573 04030000 		.4byte	0x304
 1277 0577 08       		.byte	0x8
 1278 0578 14       		.uleb128 0x14
 1279 0579 51000000 		.4byte	.LASF79
 1280 057d 0B       		.byte	0xb
 1281 057e 1C02     		.2byte	0x21c
 1282 0580 04030000 		.4byte	0x304
 1283 0584 0C       		.byte	0xc
 1284 0585 14       		.uleb128 0x14
 1285 0586 6B030000 		.4byte	.LASF80
 1286 058a 0B       		.byte	0xb
 1287 058b 1D02     		.2byte	0x21d
 1288 058d 04030000 		.4byte	0x304
 1289 0591 10       		.byte	0x10
 1290 0592 14       		.uleb128 0x14
 1291 0593 BE030000 		.4byte	.LASF81
 1292 0597 0B       		.byte	0xb
 1293 0598 1E02     		.2byte	0x21e
 1294 059a 04030000 		.4byte	0x304
 1295 059e 14       		.byte	0x14
 1296 059f 14       		.uleb128 0x14
 1297 05a0 6E040000 		.4byte	.LASF82
 1298 05a4 0B       		.byte	0xb
 1299 05a5 1F02     		.2byte	0x21f
 1300 05a7 04030000 		.4byte	0x304
 1301 05ab 18       		.byte	0x18
 1302 05ac 14       		.uleb128 0x14
 1303 05ad 28000000 		.4byte	.LASF83
 1304 05b1 0B       		.byte	0xb
 1305 05b2 2002     		.2byte	0x220
ARM GAS  /var/folders/qh/xwg3v3kj02qbxczjpdb8lzfr0000gn/T//cc4kpae7.s 			page 24


 1306 05b4 04030000 		.4byte	0x304
 1307 05b8 1C       		.byte	0x1c
 1308 05b9 14       		.uleb128 0x14
 1309 05ba 00000000 		.4byte	.LASF84
 1310 05be 0B       		.byte	0xb
 1311 05bf 2102     		.2byte	0x221
 1312 05c1 04030000 		.4byte	0x304
 1313 05c5 20       		.byte	0x20
 1314 05c6 13       		.uleb128 0x13
 1315 05c7 43535200 		.ascii	"CSR\000"
 1316 05cb 0B       		.byte	0xb
 1317 05cc 2202     		.2byte	0x222
 1318 05ce 04030000 		.4byte	0x304
 1319 05d2 24       		.byte	0x24
 1320 05d3 14       		.uleb128 0x14
 1321 05d4 28020000 		.4byte	.LASF85
 1322 05d8 0B       		.byte	0xb
 1323 05d9 2302     		.2byte	0x223
 1324 05db 04030000 		.4byte	0x304
 1325 05df 28       		.byte	0x28
 1326 05e0 14       		.uleb128 0x14
 1327 05e1 62040000 		.4byte	.LASF86
 1328 05e5 0B       		.byte	0xb
 1329 05e6 2402     		.2byte	0x224
 1330 05e8 04030000 		.4byte	0x304
 1331 05ec 2C       		.byte	0x2c
 1332 05ed 14       		.uleb128 0x14
 1333 05ee 68040000 		.4byte	.LASF87
 1334 05f2 0B       		.byte	0xb
 1335 05f3 2502     		.2byte	0x225
 1336 05f5 04030000 		.4byte	0x304
 1337 05f9 30       		.byte	0x30
 1338 05fa 13       		.uleb128 0x13
 1339 05fb 43523200 		.ascii	"CR2\000"
 1340 05ff 0B       		.byte	0xb
 1341 0600 2602     		.2byte	0x226
 1342 0602 04030000 		.4byte	0x304
 1343 0606 34       		.byte	0x34
 1344 0607 00       		.byte	0
 1345 0608 15       		.uleb128 0x15
 1346 0609 9E000000 		.4byte	.LASF88
 1347 060d 0B       		.byte	0xb
 1348 060e 2702     		.2byte	0x227
 1349 0610 49050000 		.4byte	0x549
 1350 0614 12       		.uleb128 0x12
 1351 0615 2C       		.byte	0x2c
 1352 0616 0B       		.byte	0xb
 1353 0617 AA02     		.2byte	0x2aa
 1354 0619 EE060000 		.4byte	0x6ee
 1355 061d 13       		.uleb128 0x13
 1356 061e 43523100 		.ascii	"CR1\000"
 1357 0622 0B       		.byte	0xb
 1358 0623 AC02     		.2byte	0x2ac
 1359 0625 04030000 		.4byte	0x304
 1360 0629 00       		.byte	0
 1361 062a 13       		.uleb128 0x13
 1362 062b 43523200 		.ascii	"CR2\000"
ARM GAS  /var/folders/qh/xwg3v3kj02qbxczjpdb8lzfr0000gn/T//cc4kpae7.s 			page 25


 1363 062f 0B       		.byte	0xb
 1364 0630 AD02     		.2byte	0x2ad
 1365 0632 04030000 		.4byte	0x304
 1366 0636 04       		.byte	0x4
 1367 0637 13       		.uleb128 0x13
 1368 0638 43523300 		.ascii	"CR3\000"
 1369 063c 0B       		.byte	0xb
 1370 063d AE02     		.2byte	0x2ae
 1371 063f 04030000 		.4byte	0x304
 1372 0643 08       		.byte	0x8
 1373 0644 13       		.uleb128 0x13
 1374 0645 42525200 		.ascii	"BRR\000"
 1375 0649 0B       		.byte	0xb
 1376 064a AF02     		.2byte	0x2af
 1377 064c 44050000 		.4byte	0x544
 1378 0650 0C       		.byte	0xc
 1379 0651 14       		.uleb128 0x14
 1380 0652 01050000 		.4byte	.LASF89
 1381 0656 0B       		.byte	0xb
 1382 0657 B002     		.2byte	0x2b0
 1383 0659 5E000000 		.4byte	0x5e
 1384 065d 0E       		.byte	0xe
 1385 065e 14       		.uleb128 0x14
 1386 065f 07020000 		.4byte	.LASF90
 1387 0663 0B       		.byte	0xb
 1388 0664 B102     		.2byte	0x2b1
 1389 0666 44050000 		.4byte	0x544
 1390 066a 10       		.byte	0x10
 1391 066b 14       		.uleb128 0x14
 1392 066c 0B050000 		.4byte	.LASF91
 1393 0670 0B       		.byte	0xb
 1394 0671 B202     		.2byte	0x2b2
 1395 0673 5E000000 		.4byte	0x5e
 1396 0677 12       		.byte	0x12
 1397 0678 14       		.uleb128 0x14
 1398 0679 E9030000 		.4byte	.LASF92
 1399 067d 0B       		.byte	0xb
 1400 067e B302     		.2byte	0x2b3
 1401 0680 04030000 		.4byte	0x304
 1402 0684 14       		.byte	0x14
 1403 0685 13       		.uleb128 0x13
 1404 0686 52515200 		.ascii	"RQR\000"
 1405 068a 0B       		.byte	0xb
 1406 068b B402     		.2byte	0x2b4
 1407 068d 44050000 		.4byte	0x544
 1408 0691 18       		.byte	0x18
 1409 0692 14       		.uleb128 0x14
 1410 0693 15050000 		.4byte	.LASF93
 1411 0697 0B       		.byte	0xb
 1412 0698 B502     		.2byte	0x2b5
 1413 069a 5E000000 		.4byte	0x5e
 1414 069e 1A       		.byte	0x1a
 1415 069f 13       		.uleb128 0x13
 1416 06a0 49535200 		.ascii	"ISR\000"
 1417 06a4 0B       		.byte	0xb
 1418 06a5 B602     		.2byte	0x2b6
 1419 06a7 04030000 		.4byte	0x304
ARM GAS  /var/folders/qh/xwg3v3kj02qbxczjpdb8lzfr0000gn/T//cc4kpae7.s 			page 26


 1420 06ab 1C       		.byte	0x1c
 1421 06ac 13       		.uleb128 0x13
 1422 06ad 49435200 		.ascii	"ICR\000"
 1423 06b1 0B       		.byte	0xb
 1424 06b2 B702     		.2byte	0x2b7
 1425 06b4 04030000 		.4byte	0x304
 1426 06b8 20       		.byte	0x20
 1427 06b9 13       		.uleb128 0x13
 1428 06ba 52445200 		.ascii	"RDR\000"
 1429 06be 0B       		.byte	0xb
 1430 06bf B802     		.2byte	0x2b8
 1431 06c1 44050000 		.4byte	0x544
 1432 06c5 24       		.byte	0x24
 1433 06c6 14       		.uleb128 0x14
 1434 06c7 1F050000 		.4byte	.LASF94
 1435 06cb 0B       		.byte	0xb
 1436 06cc B902     		.2byte	0x2b9
 1437 06ce 5E000000 		.4byte	0x5e
 1438 06d2 26       		.byte	0x26
 1439 06d3 13       		.uleb128 0x13
 1440 06d4 54445200 		.ascii	"TDR\000"
 1441 06d8 0B       		.byte	0xb
 1442 06d9 BA02     		.2byte	0x2ba
 1443 06db 44050000 		.4byte	0x544
 1444 06df 28       		.byte	0x28
 1445 06e0 14       		.uleb128 0x14
 1446 06e1 29050000 		.4byte	.LASF95
 1447 06e5 0B       		.byte	0xb
 1448 06e6 BB02     		.2byte	0x2bb
 1449 06e8 5E000000 		.4byte	0x5e
 1450 06ec 2A       		.byte	0x2a
 1451 06ed 00       		.byte	0
 1452 06ee 15       		.uleb128 0x15
 1453 06ef 26030000 		.4byte	.LASF96
 1454 06f3 0B       		.byte	0xb
 1455 06f4 BC02     		.2byte	0x2bc
 1456 06f6 14060000 		.4byte	0x614
 1457 06fa 0F       		.uleb128 0xf
 1458 06fb E0000000 		.4byte	0xe0
 1459 06ff 13070000 		.4byte	0x713
 1460 0703 10       		.uleb128 0x10
 1461 0704 71020000 		.4byte	0x271
 1462 0708 10       		.uleb128 0x10
 1463 0709 45000000 		.4byte	0x45
 1464 070d 10       		.uleb128 0x10
 1465 070e 01010000 		.4byte	0x101
 1466 0712 00       		.byte	0
 1467 0713 09       		.uleb128 0x9
 1468 0714 04       		.byte	0x4
 1469 0715 FA060000 		.4byte	0x6fa
 1470 0719 0F       		.uleb128 0xf
 1471 071a E0000000 		.4byte	0xe0
 1472 071e 2D070000 		.4byte	0x72d
 1473 0722 10       		.uleb128 0x10
 1474 0723 71020000 		.4byte	0x271
 1475 0727 10       		.uleb128 0x10
 1476 0728 01010000 		.4byte	0x101
ARM GAS  /var/folders/qh/xwg3v3kj02qbxczjpdb8lzfr0000gn/T//cc4kpae7.s 			page 27


 1477 072c 00       		.byte	0
 1478 072d 09       		.uleb128 0x9
 1479 072e 04       		.byte	0x4
 1480 072f 19070000 		.4byte	0x719
 1481 0733 0F       		.uleb128 0xf
 1482 0734 2C000000 		.4byte	0x2c
 1483 0738 51070000 		.4byte	0x751
 1484 073c 10       		.uleb128 0x10
 1485 073d 71020000 		.4byte	0x271
 1486 0741 10       		.uleb128 0x10
 1487 0742 FA040000 		.4byte	0x4fa
 1488 0746 10       		.uleb128 0x10
 1489 0747 2C000000 		.4byte	0x2c
 1490 074b 10       		.uleb128 0x10
 1491 074c 01010000 		.4byte	0x101
 1492 0750 00       		.byte	0
 1493 0751 09       		.uleb128 0x9
 1494 0752 04       		.byte	0x4
 1495 0753 33070000 		.4byte	0x733
 1496 0757 0F       		.uleb128 0xf
 1497 0758 2C000000 		.4byte	0x2c
 1498 075c 75070000 		.4byte	0x775
 1499 0760 10       		.uleb128 0x10
 1500 0761 71020000 		.4byte	0x271
 1501 0765 10       		.uleb128 0x10
 1502 0766 C5040000 		.4byte	0x4c5
 1503 076a 10       		.uleb128 0x10
 1504 076b 2C000000 		.4byte	0x2c
 1505 076f 10       		.uleb128 0x10
 1506 0770 01010000 		.4byte	0x101
 1507 0774 00       		.byte	0
 1508 0775 09       		.uleb128 0x9
 1509 0776 04       		.byte	0x4
 1510 0777 57070000 		.4byte	0x757
 1511 077b 16       		.uleb128 0x16
 1512 077c 01       		.byte	0x1
 1513 077d 0C       		.byte	0xc
 1514 077e 5D       		.byte	0x5d
 1515 077f 96070000 		.4byte	0x796
 1516 0783 17       		.uleb128 0x17
 1517 0784 7C050000 		.4byte	.LASF97
 1518 0788 00       		.sleb128 0
 1519 0789 17       		.uleb128 0x17
 1520 078a 06030000 		.4byte	.LASF98
 1521 078e 01       		.sleb128 1
 1522 078f 17       		.uleb128 0x17
 1523 0790 D6040000 		.4byte	.LASF99
 1524 0794 02       		.sleb128 2
 1525 0795 00       		.byte	0
 1526 0796 03       		.uleb128 0x3
 1527 0797 3D020000 		.4byte	.LASF100
 1528 079b 0C       		.byte	0xc
 1529 079c 61       		.byte	0x61
 1530 079d 7B070000 		.4byte	0x77b
 1531 07a1 03       		.uleb128 0x3
 1532 07a2 1B000000 		.4byte	.LASF101
 1533 07a6 0C       		.byte	0xc
ARM GAS  /var/folders/qh/xwg3v3kj02qbxczjpdb8lzfr0000gn/T//cc4kpae7.s 			page 28


 1534 07a7 66       		.byte	0x66
 1535 07a8 AC070000 		.4byte	0x7ac
 1536 07ac 05       		.uleb128 0x5
 1537 07ad 1B000000 		.4byte	.LASF101
 1538 07b1 7C       		.byte	0x7c
 1539 07b2 0C       		.byte	0xc
 1540 07b3 80       		.byte	0x80
 1541 07b4 23080000 		.4byte	0x823
 1542 07b8 07       		.uleb128 0x7
 1543 07b9 766D7400 		.ascii	"vmt\000"
 1544 07bd 0C       		.byte	0xc
 1545 07be 82       		.byte	0x82
 1546 07bf D4080000 		.4byte	0x8d4
 1547 07c3 00       		.byte	0
 1548 07c4 06       		.uleb128 0x6
 1549 07c5 47020000 		.4byte	.LASF102
 1550 07c9 0C       		.byte	0xc
 1551 07ca 83       		.byte	0x83
 1552 07cb BE030000 		.4byte	0x3be
 1553 07cf 04       		.byte	0x4
 1554 07d0 06       		.uleb128 0x6
 1555 07d1 1E060000 		.4byte	.LASF103
 1556 07d5 0C       		.byte	0xc
 1557 07d6 83       		.byte	0x83
 1558 07d7 96070000 		.4byte	0x796
 1559 07db 08       		.byte	0x8
 1560 07dc 06       		.uleb128 0x6
 1561 07dd 0C020000 		.4byte	.LASF104
 1562 07e1 0C       		.byte	0xc
 1563 07e2 83       		.byte	0x83
 1564 07e3 CB040000 		.4byte	0x4cb
 1565 07e7 0C       		.byte	0xc
 1566 07e8 06       		.uleb128 0x6
 1567 07e9 A5040000 		.4byte	.LASF105
 1568 07ed 0C       		.byte	0xc
 1569 07ee 83       		.byte	0x83
 1570 07ef D6040000 		.4byte	0x4d6
 1571 07f3 30       		.byte	0x30
 1572 07f4 07       		.uleb128 0x7
 1573 07f5 696200   		.ascii	"ib\000"
 1574 07f8 0C       		.byte	0xc
 1575 07f9 83       		.byte	0x83
 1576 07fa DF080000 		.4byte	0x8df
 1577 07fe 54       		.byte	0x54
 1578 07ff 07       		.uleb128 0x7
 1579 0800 6F6200   		.ascii	"ob\000"
 1580 0803 0C       		.byte	0xc
 1581 0804 83       		.byte	0x83
 1582 0805 DF080000 		.4byte	0x8df
 1583 0809 64       		.byte	0x64
 1584 080a 06       		.uleb128 0x6
 1585 080b 00040000 		.4byte	.LASF106
 1586 080f 0C       		.byte	0xc
 1587 0810 83       		.byte	0x83
 1588 0811 EF080000 		.4byte	0x8ef
 1589 0815 74       		.byte	0x74
 1590 0816 06       		.uleb128 0x6
ARM GAS  /var/folders/qh/xwg3v3kj02qbxczjpdb8lzfr0000gn/T//cc4kpae7.s 			page 29


 1591 0817 4F030000 		.4byte	.LASF107
 1592 081b 0C       		.byte	0xc
 1593 081c 83       		.byte	0x83
 1594 081d 82000000 		.4byte	0x82
 1595 0821 78       		.byte	0x78
 1596 0822 00       		.byte	0
 1597 0823 08       		.uleb128 0x8
 1598 0824 10       		.byte	0x10
 1599 0825 0D       		.byte	0xd
 1600 0826 D7       		.byte	0xd7
 1601 0827 5C080000 		.4byte	0x85c
 1602 082b 06       		.uleb128 0x6
 1603 082c FA010000 		.4byte	.LASF108
 1604 0830 0D       		.byte	0xd
 1605 0831 DB       		.byte	0xdb
 1606 0832 82000000 		.4byte	0x82
 1607 0836 00       		.byte	0
 1608 0837 07       		.uleb128 0x7
 1609 0838 63723100 		.ascii	"cr1\000"
 1610 083c 0D       		.byte	0xd
 1611 083d E0       		.byte	0xe0
 1612 083e 82000000 		.4byte	0x82
 1613 0842 04       		.byte	0x4
 1614 0843 07       		.uleb128 0x7
 1615 0844 63723200 		.ascii	"cr2\000"
 1616 0848 0D       		.byte	0xd
 1617 0849 E4       		.byte	0xe4
 1618 084a 82000000 		.4byte	0x82
 1619 084e 08       		.byte	0x8
 1620 084f 07       		.uleb128 0x7
 1621 0850 63723300 		.ascii	"cr3\000"
 1622 0854 0D       		.byte	0xd
 1623 0855 E8       		.byte	0xe8
 1624 0856 82000000 		.4byte	0x82
 1625 085a 0C       		.byte	0xc
 1626 085b 00       		.byte	0
 1627 085c 03       		.uleb128 0x3
 1628 085d 30020000 		.4byte	.LASF109
 1629 0861 0D       		.byte	0xd
 1630 0862 E9       		.byte	0xe9
 1631 0863 23080000 		.4byte	0x823
 1632 0867 05       		.uleb128 0x5
 1633 0868 DF040000 		.4byte	.LASF110
 1634 086c 20       		.byte	0x20
 1635 086d 0C       		.byte	0xc
 1636 086e 75       		.byte	0x75
 1637 086f D4080000 		.4byte	0x8d4
 1638 0873 06       		.uleb128 0x6
 1639 0874 14040000 		.4byte	.LASF111
 1640 0878 0C       		.byte	0xc
 1641 0879 76       		.byte	0x76
 1642 087a 05050000 		.4byte	0x505
 1643 087e 00       		.byte	0
 1644 087f 06       		.uleb128 0x6
 1645 0880 6B050000 		.4byte	.LASF112
 1646 0884 0C       		.byte	0xc
 1647 0885 76       		.byte	0x76
ARM GAS  /var/folders/qh/xwg3v3kj02qbxczjpdb8lzfr0000gn/T//cc4kpae7.s 			page 30


 1648 0886 24050000 		.4byte	0x524
 1649 088a 04       		.byte	0x4
 1650 088b 07       		.uleb128 0x7
 1651 088c 70757400 		.ascii	"put\000"
 1652 0890 0C       		.byte	0xc
 1653 0891 76       		.byte	0x76
 1654 0892 3E050000 		.4byte	0x53e
 1655 0896 08       		.byte	0x8
 1656 0897 07       		.uleb128 0x7
 1657 0898 67657400 		.ascii	"get\000"
 1658 089c 0C       		.byte	0xc
 1659 089d 76       		.byte	0x76
 1660 089e 16040000 		.4byte	0x416
 1661 08a2 0C       		.byte	0xc
 1662 08a3 06       		.uleb128 0x6
 1663 08a4 B2020000 		.4byte	.LASF113
 1664 08a8 0C       		.byte	0xc
 1665 08a9 76       		.byte	0x76
 1666 08aa 13070000 		.4byte	0x713
 1667 08ae 10       		.byte	0x10
 1668 08af 06       		.uleb128 0x6
 1669 08b0 99050000 		.4byte	.LASF114
 1670 08b4 0C       		.byte	0xc
 1671 08b5 76       		.byte	0x76
 1672 08b6 2D070000 		.4byte	0x72d
 1673 08ba 14       		.byte	0x14
 1674 08bb 06       		.uleb128 0x6
 1675 08bc 00020000 		.4byte	.LASF115
 1676 08c0 0C       		.byte	0xc
 1677 08c1 76       		.byte	0x76
 1678 08c2 51070000 		.4byte	0x751
 1679 08c6 18       		.byte	0x18
 1680 08c7 06       		.uleb128 0x6
 1681 08c8 37060000 		.4byte	.LASF116
 1682 08cc 0C       		.byte	0xc
 1683 08cd 76       		.byte	0x76
 1684 08ce 75070000 		.4byte	0x775
 1685 08d2 1C       		.byte	0x1c
 1686 08d3 00       		.byte	0
 1687 08d4 09       		.uleb128 0x9
 1688 08d5 04       		.byte	0x4
 1689 08d6 DA080000 		.4byte	0x8da
 1690 08da 0E       		.uleb128 0xe
 1691 08db 67080000 		.4byte	0x867
 1692 08df 18       		.uleb128 0x18
 1693 08e0 45000000 		.4byte	0x45
 1694 08e4 EF080000 		.4byte	0x8ef
 1695 08e8 19       		.uleb128 0x19
 1696 08e9 09030000 		.4byte	0x309
 1697 08ed 0F       		.byte	0xf
 1698 08ee 00       		.byte	0
 1699 08ef 09       		.uleb128 0x9
 1700 08f0 04       		.byte	0x4
 1701 08f1 EE060000 		.4byte	0x6ee
 1702 08f5 1A       		.uleb128 0x1a
 1703 08f6 57040000 		.4byte	.LASF118
 1704 08fa 01       		.byte	0x1
ARM GAS  /var/folders/qh/xwg3v3kj02qbxczjpdb8lzfr0000gn/T//cc4kpae7.s 			page 31


 1705 08fb 5C       		.byte	0x5c
 1706 08fc 01       		.byte	0x1
 1707 08fd 21090000 		.4byte	0x921
 1708 0901 1B       		.uleb128 0x1b
 1709 0902 73647000 		.ascii	"sdp\000"
 1710 0906 01       		.byte	0x1
 1711 0907 5C       		.byte	0x5c
 1712 0908 21090000 		.4byte	0x921
 1713 090c 1C       		.uleb128 0x1c
 1714 090d EF040000 		.4byte	.LASF117
 1715 0911 01       		.byte	0x1
 1716 0912 5C       		.byte	0x5c
 1717 0913 27090000 		.4byte	0x927
 1718 0917 1D       		.uleb128 0x1d
 1719 0918 7500     		.ascii	"u\000"
 1720 091a 01       		.byte	0x1
 1721 091b 5D       		.byte	0x5d
 1722 091c EF080000 		.4byte	0x8ef
 1723 0920 00       		.byte	0
 1724 0921 09       		.uleb128 0x9
 1725 0922 04       		.byte	0x4
 1726 0923 A1070000 		.4byte	0x7a1
 1727 0927 09       		.uleb128 0x9
 1728 0928 04       		.byte	0x4
 1729 0929 2D090000 		.4byte	0x92d
 1730 092d 0E       		.uleb128 0xe
 1731 092e 5C080000 		.4byte	0x85c
 1732 0932 1A       		.uleb128 0x1a
 1733 0933 B5040000 		.4byte	.LASF119
 1734 0937 01       		.byte	0x1
 1735 0938 71       		.byte	0x71
 1736 0939 01       		.byte	0x1
 1737 093a 48090000 		.4byte	0x948
 1738 093e 1B       		.uleb128 0x1b
 1739 093f 7500     		.ascii	"u\000"
 1740 0941 01       		.byte	0x1
 1741 0942 71       		.byte	0x71
 1742 0943 EF080000 		.4byte	0x8ef
 1743 0947 00       		.byte	0
 1744 0948 1A       		.uleb128 0x1a
 1745 0949 47000000 		.4byte	.LASF120
 1746 094d 01       		.byte	0x1
 1747 094e 7E       		.byte	0x7e
 1748 094f 01       		.byte	0x1
 1749 0950 76090000 		.4byte	0x976
 1750 0954 1B       		.uleb128 0x1b
 1751 0955 73647000 		.ascii	"sdp\000"
 1752 0959 01       		.byte	0x1
 1753 095a 7E       		.byte	0x7e
 1754 095b 21090000 		.4byte	0x921
 1755 095f 1B       		.uleb128 0x1b
 1756 0960 69737200 		.ascii	"isr\000"
 1757 0964 01       		.byte	0x1
 1758 0965 7E       		.byte	0x7e
 1759 0966 82000000 		.4byte	0x82
 1760 096a 1D       		.uleb128 0x1d
 1761 096b 73747300 		.ascii	"sts\000"
ARM GAS  /var/folders/qh/xwg3v3kj02qbxczjpdb8lzfr0000gn/T//cc4kpae7.s 			page 32


 1762 096f 01       		.byte	0x1
 1763 0970 7F       		.byte	0x7f
 1764 0971 F6000000 		.4byte	0xf6
 1765 0975 00       		.byte	0
 1766 0976 1A       		.uleb128 0x1a
 1767 0977 A0060000 		.4byte	.LASF121
 1768 097b 01       		.byte	0x1
 1769 097c 93       		.byte	0x93
 1770 097d 01       		.byte	0x1
 1771 097e B8090000 		.4byte	0x9b8
 1772 0982 1B       		.uleb128 0x1b
 1773 0983 73647000 		.ascii	"sdp\000"
 1774 0987 01       		.byte	0x1
 1775 0988 93       		.byte	0x93
 1776 0989 21090000 		.4byte	0x921
 1777 098d 1D       		.uleb128 0x1d
 1778 098e 7500     		.ascii	"u\000"
 1779 0990 01       		.byte	0x1
 1780 0991 94       		.byte	0x94
 1781 0992 EF080000 		.4byte	0x8ef
 1782 0996 1D       		.uleb128 0x1d
 1783 0997 63723100 		.ascii	"cr1\000"
 1784 099b 01       		.byte	0x1
 1785 099c 95       		.byte	0x95
 1786 099d 82000000 		.4byte	0x82
 1787 09a1 1D       		.uleb128 0x1d
 1788 09a2 69737200 		.ascii	"isr\000"
 1789 09a6 01       		.byte	0x1
 1790 09a7 96       		.byte	0x96
 1791 09a8 82000000 		.4byte	0x82
 1792 09ac 1E       		.uleb128 0x1e
 1793 09ad 1D       		.uleb128 0x1d
 1794 09ae 6200     		.ascii	"b\000"
 1795 09b0 01       		.byte	0x1
 1796 09b1 B0       		.byte	0xb0
 1797 09b2 E0000000 		.4byte	0xe0
 1798 09b6 00       		.byte	0
 1799 09b7 00       		.byte	0
 1800 09b8 1F       		.uleb128 0x1f
 1801 09b9 4F040000 		.4byte	.LASF140
 1802 09bd 01       		.byte	0x1
 1803 09be C6       		.byte	0xc6
 1804 09bf 00000000 		.4byte	.LFB44
 1805 09c3 10000000 		.4byte	.LFE44-.LFB44
 1806 09c7 01       		.uleb128 0x1
 1807 09c8 9C       		.byte	0x9c
 1808 09c9 DA090000 		.4byte	0x9da
 1809 09cd 20       		.uleb128 0x20
 1810 09ce 717000   		.ascii	"qp\000"
 1811 09d1 01       		.byte	0x1
 1812 09d2 C6       		.byte	0xc6
 1813 09d3 BF040000 		.4byte	0x4bf
 1814 09d7 01       		.uleb128 0x1
 1815 09d8 50       		.byte	0x50
 1816 09d9 00       		.byte	0
 1817 09da 21       		.uleb128 0x21
 1818 09db 55020000 		.4byte	.LASF122
ARM GAS  /var/folders/qh/xwg3v3kj02qbxczjpdb8lzfr0000gn/T//cc4kpae7.s 			page 33


 1819 09df 01       		.byte	0x1
 1820 09e0 0201     		.2byte	0x102
 1821 09e2 00000000 		.4byte	.LFB45
 1822 09e6 0C010000 		.4byte	.LFE45-.LFB45
 1823 09ea 01       		.uleb128 0x1
 1824 09eb 9C       		.byte	0x9c
 1825 09ec 9A0B0000 		.4byte	0xb9a
 1826 09f0 22       		.uleb128 0x22
 1827 09f1 78060000 		.4byte	.LASF126
 1828 09f5 01       		.byte	0x1
 1829 09f6 0401     		.2byte	0x104
 1830 09f8 66020000 		.4byte	0x266
 1831 09fc 00000000 		.4byte	.LLST0
 1832 0a00 23       		.uleb128 0x23
 1833 0a01 76090000 		.4byte	0x976
 1834 0a05 0E000000 		.4byte	.LBB12
 1835 0a09 00000000 		.4byte	.Ldebug_ranges0+0
 1836 0a0d 01       		.byte	0x1
 1837 0a0e 0601     		.2byte	0x106
 1838 0a10 770B0000 		.4byte	0xb77
 1839 0a14 24       		.uleb128 0x24
 1840 0a15 82090000 		.4byte	0x982
 1841 0a19 06       		.uleb128 0x6
 1842 0a1a 03       		.byte	0x3
 1843 0a1b 00000000 		.4byte	SD1
 1844 0a1f 9F       		.byte	0x9f
 1845 0a20 25       		.uleb128 0x25
 1846 0a21 00000000 		.4byte	.Ldebug_ranges0+0
 1847 0a25 26       		.uleb128 0x26
 1848 0a26 8D090000 		.4byte	0x98d
 1849 0a2a 1E000000 		.4byte	.LLST1
 1850 0a2e 26       		.uleb128 0x26
 1851 0a2f 96090000 		.4byte	0x996
 1852 0a33 3C000000 		.4byte	.LLST2
 1853 0a37 26       		.uleb128 0x26
 1854 0a38 A1090000 		.4byte	0x9a1
 1855 0a3c 5A000000 		.4byte	.LLST3
 1856 0a40 27       		.uleb128 0x27
 1857 0a41 48090000 		.4byte	0x948
 1858 0a45 8E000000 		.4byte	.LBB14
 1859 0a49 44000000 		.4byte	.LBE14-.LBB14
 1860 0a4d 01       		.byte	0x1
 1861 0a4e 9E       		.byte	0x9e
 1862 0a4f A50A0000 		.4byte	0xaa5
 1863 0a53 28       		.uleb128 0x28
 1864 0a54 54090000 		.4byte	0x954
 1865 0a58 78000000 		.4byte	.LLST4
 1866 0a5c 28       		.uleb128 0x28
 1867 0a5d 5F090000 		.4byte	0x95f
 1868 0a61 90000000 		.4byte	.LLST5
 1869 0a65 29       		.uleb128 0x29
 1870 0a66 8E000000 		.4byte	.LBB15
 1871 0a6a 44000000 		.4byte	.LBE15-.LBB15
 1872 0a6e 26       		.uleb128 0x26
 1873 0a6f 6A090000 		.4byte	0x96a
 1874 0a73 A3000000 		.4byte	.LLST6
 1875 0a77 2A       		.uleb128 0x2a
ARM GAS  /var/folders/qh/xwg3v3kj02qbxczjpdb8lzfr0000gn/T//cc4kpae7.s 			page 34


 1876 0a78 C2000000 		.4byte	.LVL28
 1877 0a7c D00C0000 		.4byte	0xcd0
 1878 0a80 2B       		.uleb128 0x2b
 1879 0a81 CA000000 		.4byte	.LVL29
 1880 0a85 D70C0000 		.4byte	0xcd7
 1881 0a89 9A0A0000 		.4byte	0xa9a
 1882 0a8d 2C       		.uleb128 0x2c
 1883 0a8e 01       		.uleb128 0x1
 1884 0a8f 51       		.byte	0x51
 1885 0a90 02       		.uleb128 0x2
 1886 0a91 79       		.byte	0x79
 1887 0a92 00       		.sleb128 0
 1888 0a93 2C       		.uleb128 0x2c
 1889 0a94 01       		.uleb128 0x1
 1890 0a95 50       		.byte	0x50
 1891 0a96 02       		.uleb128 0x2
 1892 0a97 76       		.byte	0x76
 1893 0a98 04       		.sleb128 4
 1894 0a99 00       		.byte	0
 1895 0a9a 2A       		.uleb128 0x2a
 1896 0a9b CE000000 		.4byte	.LVL30
 1897 0a9f F30C0000 		.4byte	0xcf3
 1898 0aa3 00       		.byte	0
 1899 0aa4 00       		.byte	0
 1900 0aa5 2D       		.uleb128 0x2d
 1901 0aa6 D2000000 		.4byte	.LBB16
 1902 0aaa 3A000000 		.4byte	.LBE16-.LBB16
 1903 0aae F70A0000 		.4byte	0xaf7
 1904 0ab2 26       		.uleb128 0x26
 1905 0ab3 AD090000 		.4byte	0x9ad
 1906 0ab7 CD000000 		.4byte	.LLST7
 1907 0abb 2A       		.uleb128 0x2a
 1908 0abc D8000000 		.4byte	.LVL32
 1909 0ac0 D00C0000 		.4byte	0xcd0
 1910 0ac4 2B       		.uleb128 0x2b
 1911 0ac5 E0000000 		.4byte	.LVL33
 1912 0ac9 FA0C0000 		.4byte	0xcfa
 1913 0acd D80A0000 		.4byte	0xad8
 1914 0ad1 2C       		.uleb128 0x2c
 1915 0ad2 01       		.uleb128 0x1
 1916 0ad3 50       		.byte	0x50
 1917 0ad4 02       		.uleb128 0x2
 1918 0ad5 76       		.byte	0x76
 1919 0ad6 30       		.sleb128 48
 1920 0ad7 00       		.byte	0
 1921 0ad8 2A       		.uleb128 0x2a
 1922 0ad9 EC000000 		.4byte	.LVL35
 1923 0add F30C0000 		.4byte	0xcf3
 1924 0ae1 2E       		.uleb128 0x2e
 1925 0ae2 F8000000 		.4byte	.LVL38
 1926 0ae6 D70C0000 		.4byte	0xcd7
 1927 0aea 2C       		.uleb128 0x2c
 1928 0aeb 01       		.uleb128 0x1
 1929 0aec 51       		.byte	0x51
 1930 0aed 01       		.uleb128 0x1
 1931 0aee 38       		.byte	0x38
 1932 0aef 2C       		.uleb128 0x2c
ARM GAS  /var/folders/qh/xwg3v3kj02qbxczjpdb8lzfr0000gn/T//cc4kpae7.s 			page 35


 1933 0af0 01       		.uleb128 0x1
 1934 0af1 50       		.byte	0x50
 1935 0af2 02       		.uleb128 0x2
 1936 0af3 76       		.byte	0x76
 1937 0af4 04       		.sleb128 4
 1938 0af5 00       		.byte	0
 1939 0af6 00       		.byte	0
 1940 0af7 2A       		.uleb128 0x2a
 1941 0af8 38000000 		.4byte	.LVL6
 1942 0afc D00C0000 		.4byte	0xcd0
 1943 0b00 2B       		.uleb128 0x2b
 1944 0b01 40000000 		.4byte	.LVL7
 1945 0b05 D70C0000 		.4byte	0xcd7
 1946 0b09 190B0000 		.4byte	0xb19
 1947 0b0d 2C       		.uleb128 0x2c
 1948 0b0e 01       		.uleb128 0x1
 1949 0b0f 51       		.byte	0x51
 1950 0b10 01       		.uleb128 0x1
 1951 0b11 40       		.byte	0x40
 1952 0b12 2C       		.uleb128 0x2c
 1953 0b13 01       		.uleb128 0x1
 1954 0b14 50       		.byte	0x50
 1955 0b15 02       		.uleb128 0x2
 1956 0b16 76       		.byte	0x76
 1957 0b17 04       		.sleb128 4
 1958 0b18 00       		.byte	0
 1959 0b19 2A       		.uleb128 0x2a
 1960 0b1a 44000000 		.4byte	.LVL8
 1961 0b1e F30C0000 		.4byte	0xcf3
 1962 0b22 2A       		.uleb128 0x2a
 1963 0b23 64000000 		.4byte	.LVL16
 1964 0b27 D00C0000 		.4byte	0xcd0
 1965 0b2b 2B       		.uleb128 0x2b
 1966 0b2c 6E000000 		.4byte	.LVL17
 1967 0b30 160D0000 		.4byte	0xd16
 1968 0b34 3F0B0000 		.4byte	0xb3f
 1969 0b38 2C       		.uleb128 0x2c
 1970 0b39 01       		.uleb128 0x1
 1971 0b3a 50       		.byte	0x50
 1972 0b3b 02       		.uleb128 0x2
 1973 0b3c 76       		.byte	0x76
 1974 0b3d 00       		.sleb128 0
 1975 0b3e 00       		.byte	0
 1976 0b3f 2A       		.uleb128 0x2a
 1977 0b40 72000000 		.4byte	.LVL18
 1978 0b44 F30C0000 		.4byte	0xcf3
 1979 0b48 2A       		.uleb128 0x2a
 1980 0b49 7C000000 		.4byte	.LVL19
 1981 0b4d D00C0000 		.4byte	0xcd0
 1982 0b51 2B       		.uleb128 0x2b
 1983 0b52 86000000 		.4byte	.LVL20
 1984 0b56 D70C0000 		.4byte	0xcd7
 1985 0b5a 6C0B0000 		.4byte	0xb6c
 1986 0b5e 2C       		.uleb128 0x2c
 1987 0b5f 01       		.uleb128 0x1
 1988 0b60 51       		.byte	0x51
 1989 0b61 03       		.uleb128 0x3
ARM GAS  /var/folders/qh/xwg3v3kj02qbxczjpdb8lzfr0000gn/T//cc4kpae7.s 			page 36


 1990 0b62 0A       		.byte	0xa
 1991 0b63 0002     		.2byte	0x200
 1992 0b65 2C       		.uleb128 0x2c
 1993 0b66 01       		.uleb128 0x1
 1994 0b67 50       		.byte	0x50
 1995 0b68 02       		.uleb128 0x2
 1996 0b69 76       		.byte	0x76
 1997 0b6a 04       		.sleb128 4
 1998 0b6b 00       		.byte	0
 1999 0b6c 2A       		.uleb128 0x2a
 2000 0b6d 8A000000 		.4byte	.LVL21
 2001 0b71 F30C0000 		.4byte	0xcf3
 2002 0b75 00       		.byte	0
 2003 0b76 00       		.byte	0
 2004 0b77 2A       		.uleb128 0x2a
 2005 0b78 0E000000 		.4byte	.LVL2
 2006 0b7c 2D0D0000 		.4byte	0xd2d
 2007 0b80 2A       		.uleb128 0x2a
 2008 0b81 50000000 		.4byte	.LVL10
 2009 0b85 340D0000 		.4byte	0xd34
 2010 0b89 2E       		.uleb128 0x2e
 2011 0b8a 56000000 		.4byte	.LVL11
 2012 0b8e 3B0D0000 		.4byte	0xd3b
 2013 0b92 2C       		.uleb128 0x2c
 2014 0b93 01       		.uleb128 0x1
 2015 0b94 50       		.byte	0x50
 2016 0b95 02       		.uleb128 0x2
 2017 0b96 78       		.byte	0x78
 2018 0b97 00       		.sleb128 0
 2019 0b98 00       		.byte	0
 2020 0b99 00       		.byte	0
 2021 0b9a 21       		.uleb128 0x21
 2022 0b9b 82060000 		.4byte	.LASF123
 2023 0b9f 01       		.byte	0x1
 2024 0ba0 7401     		.2byte	0x174
 2025 0ba2 00000000 		.4byte	.LFB46
 2026 0ba6 28000000 		.4byte	.LFE46-.LFB46
 2027 0baa 01       		.uleb128 0x1
 2028 0bab 9C       		.byte	0x9c
 2029 0bac CF0B0000 		.4byte	0xbcf
 2030 0bb0 2E       		.uleb128 0x2e
 2031 0bb1 0E000000 		.4byte	.LVL39
 2032 0bb5 4D0D0000 		.4byte	0xd4d
 2033 0bb9 2C       		.uleb128 0x2c
 2034 0bba 01       		.uleb128 0x1
 2035 0bbb 52       		.byte	0x52
 2036 0bbc 05       		.uleb128 0x5
 2037 0bbd 03       		.byte	0x3
 2038 0bbe 00000000 		.4byte	notify1
 2039 0bc2 2C       		.uleb128 0x2c
 2040 0bc3 01       		.uleb128 0x1
 2041 0bc4 51       		.byte	0x51
 2042 0bc5 01       		.uleb128 0x1
 2043 0bc6 30       		.byte	0x30
 2044 0bc7 2C       		.uleb128 0x2c
 2045 0bc8 01       		.uleb128 0x1
 2046 0bc9 50       		.byte	0x50
ARM GAS  /var/folders/qh/xwg3v3kj02qbxczjpdb8lzfr0000gn/T//cc4kpae7.s 			page 37


 2047 0bca 02       		.uleb128 0x2
 2048 0bcb 74       		.byte	0x74
 2049 0bcc 00       		.sleb128 0
 2050 0bcd 00       		.byte	0
 2051 0bce 00       		.byte	0
 2052 0bcf 2F       		.uleb128 0x2f
 2053 0bd0 C9040000 		.4byte	.LASF124
 2054 0bd4 01       		.byte	0x1
 2055 0bd5 A501     		.2byte	0x1a5
 2056 0bd7 00000000 		.4byte	.LFB47
 2057 0bdb 6C000000 		.4byte	.LFE47-.LFB47
 2058 0bdf 01       		.uleb128 0x1
 2059 0be0 9C       		.byte	0x9c
 2060 0be1 5A0C0000 		.4byte	0xc5a
 2061 0be5 30       		.uleb128 0x30
 2062 0be6 73647000 		.ascii	"sdp\000"
 2063 0bea 01       		.byte	0x1
 2064 0beb A501     		.2byte	0x1a5
 2065 0bed 21090000 		.4byte	0x921
 2066 0bf1 EB000000 		.4byte	.LLST8
 2067 0bf5 31       		.uleb128 0x31
 2068 0bf6 EF040000 		.4byte	.LASF117
 2069 0bfa 01       		.byte	0x1
 2070 0bfb A501     		.2byte	0x1a5
 2071 0bfd 27090000 		.4byte	0x927
 2072 0c01 38010000 		.4byte	.LLST9
 2073 0c05 23       		.uleb128 0x23
 2074 0c06 F5080000 		.4byte	0x8f5
 2075 0c0a 0E000000 		.4byte	.LBB19
 2076 0c0e 18000000 		.4byte	.Ldebug_ranges0+0x18
 2077 0c12 01       		.byte	0x1
 2078 0c13 D601     		.2byte	0x1d6
 2079 0c15 440C0000 		.4byte	0xc44
 2080 0c19 28       		.uleb128 0x28
 2081 0c1a 01090000 		.4byte	0x901
 2082 0c1e 6C010000 		.4byte	.LLST10
 2083 0c22 28       		.uleb128 0x28
 2084 0c23 01090000 		.4byte	0x901
 2085 0c27 6C010000 		.4byte	.LLST10
 2086 0c2b 28       		.uleb128 0x28
 2087 0c2c 0C090000 		.4byte	0x90c
 2088 0c30 8D010000 		.4byte	.LLST12
 2089 0c34 25       		.uleb128 0x25
 2090 0c35 18000000 		.4byte	.Ldebug_ranges0+0x18
 2091 0c39 26       		.uleb128 0x26
 2092 0c3a 17090000 		.4byte	0x917
 2093 0c3e A0010000 		.4byte	.LLST13
 2094 0c42 00       		.byte	0
 2095 0c43 00       		.byte	0
 2096 0c44 2E       		.uleb128 0x2e
 2097 0c45 58000000 		.4byte	.LVL50
 2098 0c49 690D0000 		.4byte	0xd69
 2099 0c4d 2C       		.uleb128 0x2c
 2100 0c4e 01       		.uleb128 0x1
 2101 0c4f 51       		.byte	0x51
 2102 0c50 02       		.uleb128 0x2
 2103 0c51 08       		.byte	0x8
ARM GAS  /var/folders/qh/xwg3v3kj02qbxczjpdb8lzfr0000gn/T//cc4kpae7.s 			page 38


 2104 0c52 C0       		.byte	0xc0
 2105 0c53 2C       		.uleb128 0x2c
 2106 0c54 01       		.uleb128 0x1
 2107 0c55 50       		.byte	0x50
 2108 0c56 01       		.uleb128 0x1
 2109 0c57 4B       		.byte	0x4b
 2110 0c58 00       		.byte	0
 2111 0c59 00       		.byte	0
 2112 0c5a 21       		.uleb128 0x21
 2113 0c5b 29040000 		.4byte	.LASF125
 2114 0c5f 01       		.byte	0x1
 2115 0c60 E201     		.2byte	0x1e2
 2116 0c62 00000000 		.4byte	.LFB48
 2117 0c66 38000000 		.4byte	.LFE48-.LFB48
 2118 0c6a 01       		.uleb128 0x1
 2119 0c6b 9C       		.byte	0x9c
 2120 0c6c AE0C0000 		.4byte	0xcae
 2121 0c70 30       		.uleb128 0x30
 2122 0c71 73647000 		.ascii	"sdp\000"
 2123 0c75 01       		.byte	0x1
 2124 0c76 E201     		.2byte	0x1e2
 2125 0c78 21090000 		.4byte	0x921
 2126 0c7c B3010000 		.4byte	.LLST14
 2127 0c80 32       		.uleb128 0x32
 2128 0c81 32090000 		.4byte	0x932
 2129 0c85 0C000000 		.4byte	.LBB23
 2130 0c89 08000000 		.4byte	.LBE23-.LBB23
 2131 0c8d 01       		.byte	0x1
 2132 0c8e E501     		.2byte	0x1e5
 2133 0c90 9E0C0000 		.4byte	0xc9e
 2134 0c94 28       		.uleb128 0x28
 2135 0c95 3E090000 		.4byte	0x93e
 2136 0c99 ED010000 		.4byte	.LLST15
 2137 0c9d 00       		.byte	0
 2138 0c9e 2E       		.uleb128 0x2e
 2139 0c9f 2A000000 		.4byte	.LVL58
 2140 0ca3 800D0000 		.4byte	0xd80
 2141 0ca7 2C       		.uleb128 0x2c
 2142 0ca8 01       		.uleb128 0x1
 2143 0ca9 50       		.byte	0x50
 2144 0caa 01       		.uleb128 0x1
 2145 0cab 4B       		.byte	0x4b
 2146 0cac 00       		.byte	0
 2147 0cad 00       		.byte	0
 2148 0cae 33       		.uleb128 0x33
 2149 0caf 5C030000 		.4byte	.LASF127
 2150 0cb3 01       		.byte	0x1
 2151 0cb4 49       		.byte	0x49
 2152 0cb5 2D090000 		.4byte	0x92d
 2153 0cb9 05       		.uleb128 0x5
 2154 0cba 03       		.byte	0x3
 2155 0cbb 00000000 		.4byte	default_config
 2156 0cbf 34       		.uleb128 0x34
 2157 0cc0 53443100 		.ascii	"SD1\000"
 2158 0cc4 01       		.byte	0x1
 2159 0cc5 28       		.byte	0x28
 2160 0cc6 A1070000 		.4byte	0x7a1
ARM GAS  /var/folders/qh/xwg3v3kj02qbxczjpdb8lzfr0000gn/T//cc4kpae7.s 			page 39


 2161 0cca 05       		.uleb128 0x5
 2162 0ccb 03       		.byte	0x3
 2163 0ccc 00000000 		.4byte	SD1
 2164 0cd0 35       		.uleb128 0x35
 2165 0cd1 0E030000 		.4byte	.LASF128
 2166 0cd5 0E       		.byte	0xe
 2167 0cd6 E2       		.byte	0xe2
 2168 0cd7 36       		.uleb128 0x36
 2169 0cd8 A9030000 		.4byte	.LASF130
 2170 0cdc 09       		.byte	0x9
 2171 0cdd B3       		.byte	0xb3
 2172 0cde ED0C0000 		.4byte	0xced
 2173 0ce2 10       		.uleb128 0x10
 2174 0ce3 ED0C0000 		.4byte	0xced
 2175 0ce7 10       		.uleb128 0x10
 2176 0ce8 F6000000 		.4byte	0xf6
 2177 0cec 00       		.byte	0
 2178 0ced 09       		.uleb128 0x9
 2179 0cee 04       		.byte	0x4
 2180 0cef BE030000 		.4byte	0x3be
 2181 0cf3 35       		.uleb128 0x35
 2182 0cf4 75020000 		.4byte	.LASF129
 2183 0cf8 0E       		.byte	0xe
 2184 0cf9 E3       		.byte	0xe3
 2185 0cfa 37       		.uleb128 0x37
 2186 0cfb 86050000 		.4byte	.LASF141
 2187 0cff 0A       		.byte	0xa
 2188 0d00 6701     		.2byte	0x167
 2189 0d02 E0000000 		.4byte	0xe0
 2190 0d06 100D0000 		.4byte	0xd10
 2191 0d0a 10       		.uleb128 0x10
 2192 0d0b 100D0000 		.4byte	0xd10
 2193 0d0f 00       		.byte	0
 2194 0d10 09       		.uleb128 0x9
 2195 0d11 04       		.byte	0x4
 2196 0d12 D6040000 		.4byte	0x4d6
 2197 0d16 38       		.uleb128 0x38
 2198 0d17 D8010000 		.4byte	.LASF131
 2199 0d1b 0C       		.byte	0xc
 2200 0d1c 3201     		.2byte	0x132
 2201 0d1e 2D0D0000 		.4byte	0xd2d
 2202 0d22 10       		.uleb128 0x10
 2203 0d23 21090000 		.4byte	0x921
 2204 0d27 10       		.uleb128 0x10
 2205 0d28 45000000 		.4byte	0x45
 2206 0d2c 00       		.byte	0
 2207 0d2d 35       		.uleb128 0x35
 2208 0d2e 64060000 		.4byte	.LASF132
 2209 0d32 0E       		.byte	0xe
 2210 0d33 E4       		.byte	0xe4
 2211 0d34 35       		.uleb128 0x35
 2212 0d35 50060000 		.4byte	.LASF133
 2213 0d39 0E       		.byte	0xe
 2214 0d3a E5       		.byte	0xe5
 2215 0d3b 38       		.uleb128 0x38
 2216 0d3c F9050000 		.4byte	.LASF134
 2217 0d40 07       		.byte	0x7
ARM GAS  /var/folders/qh/xwg3v3kj02qbxczjpdb8lzfr0000gn/T//cc4kpae7.s 			page 40


 2218 0d41 6B01     		.2byte	0x16b
 2219 0d43 4D0D0000 		.4byte	0xd4d
 2220 0d47 10       		.uleb128 0x10
 2221 0d48 66020000 		.4byte	0x266
 2222 0d4c 00       		.byte	0
 2223 0d4d 38       		.uleb128 0x38
 2224 0d4e C4010000 		.4byte	.LASF135
 2225 0d52 0C       		.byte	0xc
 2226 0d53 2F01     		.2byte	0x12f
 2227 0d55 690D0000 		.4byte	0xd69
 2228 0d59 10       		.uleb128 0x10
 2229 0d5a 21090000 		.4byte	0x921
 2230 0d5e 10       		.uleb128 0x10
 2231 0d5f A3040000 		.4byte	0x4a3
 2232 0d63 10       		.uleb128 0x10
 2233 0d64 A3040000 		.4byte	0x4a3
 2234 0d68 00       		.byte	0
 2235 0d69 38       		.uleb128 0x38
 2236 0d6a 8F020000 		.4byte	.LASF136
 2237 0d6e 0F       		.byte	0xf
 2238 0d6f 1C01     		.2byte	0x11c
 2239 0d71 800D0000 		.4byte	0xd80
 2240 0d75 10       		.uleb128 0x10
 2241 0d76 82000000 		.4byte	0x82
 2242 0d7a 10       		.uleb128 0x10
 2243 0d7b 82000000 		.4byte	0x82
 2244 0d7f 00       		.byte	0
 2245 0d80 39       		.uleb128 0x39
 2246 0d81 E8010000 		.4byte	.LASF142
 2247 0d85 0F       		.byte	0xf
 2248 0d86 1D01     		.2byte	0x11d
 2249 0d88 10       		.uleb128 0x10
 2250 0d89 82000000 		.4byte	0x82
 2251 0d8d 00       		.byte	0
 2252 0d8e 00       		.byte	0
 2253              		.section	.debug_abbrev,"",%progbits
 2254              	.Ldebug_abbrev0:
 2255 0000 01       		.uleb128 0x1
 2256 0001 11       		.uleb128 0x11
 2257 0002 01       		.byte	0x1
 2258 0003 25       		.uleb128 0x25
 2259 0004 0E       		.uleb128 0xe
 2260 0005 13       		.uleb128 0x13
 2261 0006 0B       		.uleb128 0xb
 2262 0007 03       		.uleb128 0x3
 2263 0008 0E       		.uleb128 0xe
 2264 0009 1B       		.uleb128 0x1b
 2265 000a 0E       		.uleb128 0xe
 2266 000b 55       		.uleb128 0x55
 2267 000c 17       		.uleb128 0x17
 2268 000d 11       		.uleb128 0x11
 2269 000e 01       		.uleb128 0x1
 2270 000f 10       		.uleb128 0x10
 2271 0010 17       		.uleb128 0x17
 2272 0011 00       		.byte	0
 2273 0012 00       		.byte	0
 2274 0013 02       		.uleb128 0x2
ARM GAS  /var/folders/qh/xwg3v3kj02qbxczjpdb8lzfr0000gn/T//cc4kpae7.s 			page 41


 2275 0014 24       		.uleb128 0x24
 2276 0015 00       		.byte	0
 2277 0016 0B       		.uleb128 0xb
 2278 0017 0B       		.uleb128 0xb
 2279 0018 3E       		.uleb128 0x3e
 2280 0019 0B       		.uleb128 0xb
 2281 001a 03       		.uleb128 0x3
 2282 001b 08       		.uleb128 0x8
 2283 001c 00       		.byte	0
 2284 001d 00       		.byte	0
 2285 001e 03       		.uleb128 0x3
 2286 001f 16       		.uleb128 0x16
 2287 0020 00       		.byte	0
 2288 0021 03       		.uleb128 0x3
 2289 0022 0E       		.uleb128 0xe
 2290 0023 3A       		.uleb128 0x3a
 2291 0024 0B       		.uleb128 0xb
 2292 0025 3B       		.uleb128 0x3b
 2293 0026 0B       		.uleb128 0xb
 2294 0027 49       		.uleb128 0x49
 2295 0028 13       		.uleb128 0x13
 2296 0029 00       		.byte	0
 2297 002a 00       		.byte	0
 2298 002b 04       		.uleb128 0x4
 2299 002c 24       		.uleb128 0x24
 2300 002d 00       		.byte	0
 2301 002e 0B       		.uleb128 0xb
 2302 002f 0B       		.uleb128 0xb
 2303 0030 3E       		.uleb128 0x3e
 2304 0031 0B       		.uleb128 0xb
 2305 0032 03       		.uleb128 0x3
 2306 0033 0E       		.uleb128 0xe
 2307 0034 00       		.byte	0
 2308 0035 00       		.byte	0
 2309 0036 05       		.uleb128 0x5
 2310 0037 13       		.uleb128 0x13
 2311 0038 01       		.byte	0x1
 2312 0039 03       		.uleb128 0x3
 2313 003a 0E       		.uleb128 0xe
 2314 003b 0B       		.uleb128 0xb
 2315 003c 0B       		.uleb128 0xb
 2316 003d 3A       		.uleb128 0x3a
 2317 003e 0B       		.uleb128 0xb
 2318 003f 3B       		.uleb128 0x3b
 2319 0040 0B       		.uleb128 0xb
 2320 0041 01       		.uleb128 0x1
 2321 0042 13       		.uleb128 0x13
 2322 0043 00       		.byte	0
 2323 0044 00       		.byte	0
 2324 0045 06       		.uleb128 0x6
 2325 0046 0D       		.uleb128 0xd
 2326 0047 00       		.byte	0
 2327 0048 03       		.uleb128 0x3
 2328 0049 0E       		.uleb128 0xe
 2329 004a 3A       		.uleb128 0x3a
 2330 004b 0B       		.uleb128 0xb
 2331 004c 3B       		.uleb128 0x3b
ARM GAS  /var/folders/qh/xwg3v3kj02qbxczjpdb8lzfr0000gn/T//cc4kpae7.s 			page 42


 2332 004d 0B       		.uleb128 0xb
 2333 004e 49       		.uleb128 0x49
 2334 004f 13       		.uleb128 0x13
 2335 0050 38       		.uleb128 0x38
 2336 0051 0B       		.uleb128 0xb
 2337 0052 00       		.byte	0
 2338 0053 00       		.byte	0
 2339 0054 07       		.uleb128 0x7
 2340 0055 0D       		.uleb128 0xd
 2341 0056 00       		.byte	0
 2342 0057 03       		.uleb128 0x3
 2343 0058 08       		.uleb128 0x8
 2344 0059 3A       		.uleb128 0x3a
 2345 005a 0B       		.uleb128 0xb
 2346 005b 3B       		.uleb128 0x3b
 2347 005c 0B       		.uleb128 0xb
 2348 005d 49       		.uleb128 0x49
 2349 005e 13       		.uleb128 0x13
 2350 005f 38       		.uleb128 0x38
 2351 0060 0B       		.uleb128 0xb
 2352 0061 00       		.byte	0
 2353 0062 00       		.byte	0
 2354 0063 08       		.uleb128 0x8
 2355 0064 13       		.uleb128 0x13
 2356 0065 01       		.byte	0x1
 2357 0066 0B       		.uleb128 0xb
 2358 0067 0B       		.uleb128 0xb
 2359 0068 3A       		.uleb128 0x3a
 2360 0069 0B       		.uleb128 0xb
 2361 006a 3B       		.uleb128 0x3b
 2362 006b 0B       		.uleb128 0xb
 2363 006c 01       		.uleb128 0x1
 2364 006d 13       		.uleb128 0x13
 2365 006e 00       		.byte	0
 2366 006f 00       		.byte	0
 2367 0070 09       		.uleb128 0x9
 2368 0071 0F       		.uleb128 0xf
 2369 0072 00       		.byte	0
 2370 0073 0B       		.uleb128 0xb
 2371 0074 0B       		.uleb128 0xb
 2372 0075 49       		.uleb128 0x49
 2373 0076 13       		.uleb128 0x13
 2374 0077 00       		.byte	0
 2375 0078 00       		.byte	0
 2376 0079 0A       		.uleb128 0xa
 2377 007a 0F       		.uleb128 0xf
 2378 007b 00       		.byte	0
 2379 007c 0B       		.uleb128 0xb
 2380 007d 0B       		.uleb128 0xb
 2381 007e 00       		.byte	0
 2382 007f 00       		.byte	0
 2383 0080 0B       		.uleb128 0xb
 2384 0081 35       		.uleb128 0x35
 2385 0082 00       		.byte	0
 2386 0083 49       		.uleb128 0x49
 2387 0084 13       		.uleb128 0x13
 2388 0085 00       		.byte	0
ARM GAS  /var/folders/qh/xwg3v3kj02qbxczjpdb8lzfr0000gn/T//cc4kpae7.s 			page 43


 2389 0086 00       		.byte	0
 2390 0087 0C       		.uleb128 0xc
 2391 0088 17       		.uleb128 0x17
 2392 0089 01       		.byte	0x1
 2393 008a 0B       		.uleb128 0xb
 2394 008b 0B       		.uleb128 0xb
 2395 008c 3A       		.uleb128 0x3a
 2396 008d 0B       		.uleb128 0xb
 2397 008e 3B       		.uleb128 0x3b
 2398 008f 0B       		.uleb128 0xb
 2399 0090 01       		.uleb128 0x1
 2400 0091 13       		.uleb128 0x13
 2401 0092 00       		.byte	0
 2402 0093 00       		.byte	0
 2403 0094 0D       		.uleb128 0xd
 2404 0095 0D       		.uleb128 0xd
 2405 0096 00       		.byte	0
 2406 0097 03       		.uleb128 0x3
 2407 0098 0E       		.uleb128 0xe
 2408 0099 3A       		.uleb128 0x3a
 2409 009a 0B       		.uleb128 0xb
 2410 009b 3B       		.uleb128 0x3b
 2411 009c 0B       		.uleb128 0xb
 2412 009d 49       		.uleb128 0x49
 2413 009e 13       		.uleb128 0x13
 2414 009f 00       		.byte	0
 2415 00a0 00       		.byte	0
 2416 00a1 0E       		.uleb128 0xe
 2417 00a2 26       		.uleb128 0x26
 2418 00a3 00       		.byte	0
 2419 00a4 49       		.uleb128 0x49
 2420 00a5 13       		.uleb128 0x13
 2421 00a6 00       		.byte	0
 2422 00a7 00       		.byte	0
 2423 00a8 0F       		.uleb128 0xf
 2424 00a9 15       		.uleb128 0x15
 2425 00aa 01       		.byte	0x1
 2426 00ab 27       		.uleb128 0x27
 2427 00ac 19       		.uleb128 0x19
 2428 00ad 49       		.uleb128 0x49
 2429 00ae 13       		.uleb128 0x13
 2430 00af 01       		.uleb128 0x1
 2431 00b0 13       		.uleb128 0x13
 2432 00b1 00       		.byte	0
 2433 00b2 00       		.byte	0
 2434 00b3 10       		.uleb128 0x10
 2435 00b4 05       		.uleb128 0x5
 2436 00b5 00       		.byte	0
 2437 00b6 49       		.uleb128 0x49
 2438 00b7 13       		.uleb128 0x13
 2439 00b8 00       		.byte	0
 2440 00b9 00       		.byte	0
 2441 00ba 11       		.uleb128 0x11
 2442 00bb 15       		.uleb128 0x15
 2443 00bc 01       		.byte	0x1
 2444 00bd 27       		.uleb128 0x27
 2445 00be 19       		.uleb128 0x19
ARM GAS  /var/folders/qh/xwg3v3kj02qbxczjpdb8lzfr0000gn/T//cc4kpae7.s 			page 44


 2446 00bf 01       		.uleb128 0x1
 2447 00c0 13       		.uleb128 0x13
 2448 00c1 00       		.byte	0
 2449 00c2 00       		.byte	0
 2450 00c3 12       		.uleb128 0x12
 2451 00c4 13       		.uleb128 0x13
 2452 00c5 01       		.byte	0x1
 2453 00c6 0B       		.uleb128 0xb
 2454 00c7 0B       		.uleb128 0xb
 2455 00c8 3A       		.uleb128 0x3a
 2456 00c9 0B       		.uleb128 0xb
 2457 00ca 3B       		.uleb128 0x3b
 2458 00cb 05       		.uleb128 0x5
 2459 00cc 01       		.uleb128 0x1
 2460 00cd 13       		.uleb128 0x13
 2461 00ce 00       		.byte	0
 2462 00cf 00       		.byte	0
 2463 00d0 13       		.uleb128 0x13
 2464 00d1 0D       		.uleb128 0xd
 2465 00d2 00       		.byte	0
 2466 00d3 03       		.uleb128 0x3
 2467 00d4 08       		.uleb128 0x8
 2468 00d5 3A       		.uleb128 0x3a
 2469 00d6 0B       		.uleb128 0xb
 2470 00d7 3B       		.uleb128 0x3b
 2471 00d8 05       		.uleb128 0x5
 2472 00d9 49       		.uleb128 0x49
 2473 00da 13       		.uleb128 0x13
 2474 00db 38       		.uleb128 0x38
 2475 00dc 0B       		.uleb128 0xb
 2476 00dd 00       		.byte	0
 2477 00de 00       		.byte	0
 2478 00df 14       		.uleb128 0x14
 2479 00e0 0D       		.uleb128 0xd
 2480 00e1 00       		.byte	0
 2481 00e2 03       		.uleb128 0x3
 2482 00e3 0E       		.uleb128 0xe
 2483 00e4 3A       		.uleb128 0x3a
 2484 00e5 0B       		.uleb128 0xb
 2485 00e6 3B       		.uleb128 0x3b
 2486 00e7 05       		.uleb128 0x5
 2487 00e8 49       		.uleb128 0x49
 2488 00e9 13       		.uleb128 0x13
 2489 00ea 38       		.uleb128 0x38
 2490 00eb 0B       		.uleb128 0xb
 2491 00ec 00       		.byte	0
 2492 00ed 00       		.byte	0
 2493 00ee 15       		.uleb128 0x15
 2494 00ef 16       		.uleb128 0x16
 2495 00f0 00       		.byte	0
 2496 00f1 03       		.uleb128 0x3
 2497 00f2 0E       		.uleb128 0xe
 2498 00f3 3A       		.uleb128 0x3a
 2499 00f4 0B       		.uleb128 0xb
 2500 00f5 3B       		.uleb128 0x3b
 2501 00f6 05       		.uleb128 0x5
 2502 00f7 49       		.uleb128 0x49
ARM GAS  /var/folders/qh/xwg3v3kj02qbxczjpdb8lzfr0000gn/T//cc4kpae7.s 			page 45


 2503 00f8 13       		.uleb128 0x13
 2504 00f9 00       		.byte	0
 2505 00fa 00       		.byte	0
 2506 00fb 16       		.uleb128 0x16
 2507 00fc 04       		.uleb128 0x4
 2508 00fd 01       		.byte	0x1
 2509 00fe 0B       		.uleb128 0xb
 2510 00ff 0B       		.uleb128 0xb
 2511 0100 3A       		.uleb128 0x3a
 2512 0101 0B       		.uleb128 0xb
 2513 0102 3B       		.uleb128 0x3b
 2514 0103 0B       		.uleb128 0xb
 2515 0104 01       		.uleb128 0x1
 2516 0105 13       		.uleb128 0x13
 2517 0106 00       		.byte	0
 2518 0107 00       		.byte	0
 2519 0108 17       		.uleb128 0x17
 2520 0109 28       		.uleb128 0x28
 2521 010a 00       		.byte	0
 2522 010b 03       		.uleb128 0x3
 2523 010c 0E       		.uleb128 0xe
 2524 010d 1C       		.uleb128 0x1c
 2525 010e 0D       		.uleb128 0xd
 2526 010f 00       		.byte	0
 2527 0110 00       		.byte	0
 2528 0111 18       		.uleb128 0x18
 2529 0112 01       		.uleb128 0x1
 2530 0113 01       		.byte	0x1
 2531 0114 49       		.uleb128 0x49
 2532 0115 13       		.uleb128 0x13
 2533 0116 01       		.uleb128 0x1
 2534 0117 13       		.uleb128 0x13
 2535 0118 00       		.byte	0
 2536 0119 00       		.byte	0
 2537 011a 19       		.uleb128 0x19
 2538 011b 21       		.uleb128 0x21
 2539 011c 00       		.byte	0
 2540 011d 49       		.uleb128 0x49
 2541 011e 13       		.uleb128 0x13
 2542 011f 2F       		.uleb128 0x2f
 2543 0120 0B       		.uleb128 0xb
 2544 0121 00       		.byte	0
 2545 0122 00       		.byte	0
 2546 0123 1A       		.uleb128 0x1a
 2547 0124 2E       		.uleb128 0x2e
 2548 0125 01       		.byte	0x1
 2549 0126 03       		.uleb128 0x3
 2550 0127 0E       		.uleb128 0xe
 2551 0128 3A       		.uleb128 0x3a
 2552 0129 0B       		.uleb128 0xb
 2553 012a 3B       		.uleb128 0x3b
 2554 012b 0B       		.uleb128 0xb
 2555 012c 27       		.uleb128 0x27
 2556 012d 19       		.uleb128 0x19
 2557 012e 20       		.uleb128 0x20
 2558 012f 0B       		.uleb128 0xb
 2559 0130 01       		.uleb128 0x1
ARM GAS  /var/folders/qh/xwg3v3kj02qbxczjpdb8lzfr0000gn/T//cc4kpae7.s 			page 46


 2560 0131 13       		.uleb128 0x13
 2561 0132 00       		.byte	0
 2562 0133 00       		.byte	0
 2563 0134 1B       		.uleb128 0x1b
 2564 0135 05       		.uleb128 0x5
 2565 0136 00       		.byte	0
 2566 0137 03       		.uleb128 0x3
 2567 0138 08       		.uleb128 0x8
 2568 0139 3A       		.uleb128 0x3a
 2569 013a 0B       		.uleb128 0xb
 2570 013b 3B       		.uleb128 0x3b
 2571 013c 0B       		.uleb128 0xb
 2572 013d 49       		.uleb128 0x49
 2573 013e 13       		.uleb128 0x13
 2574 013f 00       		.byte	0
 2575 0140 00       		.byte	0
 2576 0141 1C       		.uleb128 0x1c
 2577 0142 05       		.uleb128 0x5
 2578 0143 00       		.byte	0
 2579 0144 03       		.uleb128 0x3
 2580 0145 0E       		.uleb128 0xe
 2581 0146 3A       		.uleb128 0x3a
 2582 0147 0B       		.uleb128 0xb
 2583 0148 3B       		.uleb128 0x3b
 2584 0149 0B       		.uleb128 0xb
 2585 014a 49       		.uleb128 0x49
 2586 014b 13       		.uleb128 0x13
 2587 014c 00       		.byte	0
 2588 014d 00       		.byte	0
 2589 014e 1D       		.uleb128 0x1d
 2590 014f 34       		.uleb128 0x34
 2591 0150 00       		.byte	0
 2592 0151 03       		.uleb128 0x3
 2593 0152 08       		.uleb128 0x8
 2594 0153 3A       		.uleb128 0x3a
 2595 0154 0B       		.uleb128 0xb
 2596 0155 3B       		.uleb128 0x3b
 2597 0156 0B       		.uleb128 0xb
 2598 0157 49       		.uleb128 0x49
 2599 0158 13       		.uleb128 0x13
 2600 0159 00       		.byte	0
 2601 015a 00       		.byte	0
 2602 015b 1E       		.uleb128 0x1e
 2603 015c 0B       		.uleb128 0xb
 2604 015d 01       		.byte	0x1
 2605 015e 00       		.byte	0
 2606 015f 00       		.byte	0
 2607 0160 1F       		.uleb128 0x1f
 2608 0161 2E       		.uleb128 0x2e
 2609 0162 01       		.byte	0x1
 2610 0163 03       		.uleb128 0x3
 2611 0164 0E       		.uleb128 0xe
 2612 0165 3A       		.uleb128 0x3a
 2613 0166 0B       		.uleb128 0xb
 2614 0167 3B       		.uleb128 0x3b
 2615 0168 0B       		.uleb128 0xb
 2616 0169 27       		.uleb128 0x27
ARM GAS  /var/folders/qh/xwg3v3kj02qbxczjpdb8lzfr0000gn/T//cc4kpae7.s 			page 47


 2617 016a 19       		.uleb128 0x19
 2618 016b 11       		.uleb128 0x11
 2619 016c 01       		.uleb128 0x1
 2620 016d 12       		.uleb128 0x12
 2621 016e 06       		.uleb128 0x6
 2622 016f 40       		.uleb128 0x40
 2623 0170 18       		.uleb128 0x18
 2624 0171 9742     		.uleb128 0x2117
 2625 0173 19       		.uleb128 0x19
 2626 0174 01       		.uleb128 0x1
 2627 0175 13       		.uleb128 0x13
 2628 0176 00       		.byte	0
 2629 0177 00       		.byte	0
 2630 0178 20       		.uleb128 0x20
 2631 0179 05       		.uleb128 0x5
 2632 017a 00       		.byte	0
 2633 017b 03       		.uleb128 0x3
 2634 017c 08       		.uleb128 0x8
 2635 017d 3A       		.uleb128 0x3a
 2636 017e 0B       		.uleb128 0xb
 2637 017f 3B       		.uleb128 0x3b
 2638 0180 0B       		.uleb128 0xb
 2639 0181 49       		.uleb128 0x49
 2640 0182 13       		.uleb128 0x13
 2641 0183 02       		.uleb128 0x2
 2642 0184 18       		.uleb128 0x18
 2643 0185 00       		.byte	0
 2644 0186 00       		.byte	0
 2645 0187 21       		.uleb128 0x21
 2646 0188 2E       		.uleb128 0x2e
 2647 0189 01       		.byte	0x1
 2648 018a 3F       		.uleb128 0x3f
 2649 018b 19       		.uleb128 0x19
 2650 018c 03       		.uleb128 0x3
 2651 018d 0E       		.uleb128 0xe
 2652 018e 3A       		.uleb128 0x3a
 2653 018f 0B       		.uleb128 0xb
 2654 0190 3B       		.uleb128 0x3b
 2655 0191 05       		.uleb128 0x5
 2656 0192 27       		.uleb128 0x27
 2657 0193 19       		.uleb128 0x19
 2658 0194 11       		.uleb128 0x11
 2659 0195 01       		.uleb128 0x1
 2660 0196 12       		.uleb128 0x12
 2661 0197 06       		.uleb128 0x6
 2662 0198 40       		.uleb128 0x40
 2663 0199 18       		.uleb128 0x18
 2664 019a 9742     		.uleb128 0x2117
 2665 019c 19       		.uleb128 0x19
 2666 019d 01       		.uleb128 0x1
 2667 019e 13       		.uleb128 0x13
 2668 019f 00       		.byte	0
 2669 01a0 00       		.byte	0
 2670 01a1 22       		.uleb128 0x22
 2671 01a2 34       		.uleb128 0x34
 2672 01a3 00       		.byte	0
 2673 01a4 03       		.uleb128 0x3
ARM GAS  /var/folders/qh/xwg3v3kj02qbxczjpdb8lzfr0000gn/T//cc4kpae7.s 			page 48


 2674 01a5 0E       		.uleb128 0xe
 2675 01a6 3A       		.uleb128 0x3a
 2676 01a7 0B       		.uleb128 0xb
 2677 01a8 3B       		.uleb128 0x3b
 2678 01a9 05       		.uleb128 0x5
 2679 01aa 49       		.uleb128 0x49
 2680 01ab 13       		.uleb128 0x13
 2681 01ac 02       		.uleb128 0x2
 2682 01ad 17       		.uleb128 0x17
 2683 01ae 00       		.byte	0
 2684 01af 00       		.byte	0
 2685 01b0 23       		.uleb128 0x23
 2686 01b1 1D       		.uleb128 0x1d
 2687 01b2 01       		.byte	0x1
 2688 01b3 31       		.uleb128 0x31
 2689 01b4 13       		.uleb128 0x13
 2690 01b5 52       		.uleb128 0x52
 2691 01b6 01       		.uleb128 0x1
 2692 01b7 55       		.uleb128 0x55
 2693 01b8 17       		.uleb128 0x17
 2694 01b9 58       		.uleb128 0x58
 2695 01ba 0B       		.uleb128 0xb
 2696 01bb 59       		.uleb128 0x59
 2697 01bc 05       		.uleb128 0x5
 2698 01bd 01       		.uleb128 0x1
 2699 01be 13       		.uleb128 0x13
 2700 01bf 00       		.byte	0
 2701 01c0 00       		.byte	0
 2702 01c1 24       		.uleb128 0x24
 2703 01c2 05       		.uleb128 0x5
 2704 01c3 00       		.byte	0
 2705 01c4 31       		.uleb128 0x31
 2706 01c5 13       		.uleb128 0x13
 2707 01c6 02       		.uleb128 0x2
 2708 01c7 18       		.uleb128 0x18
 2709 01c8 00       		.byte	0
 2710 01c9 00       		.byte	0
 2711 01ca 25       		.uleb128 0x25
 2712 01cb 0B       		.uleb128 0xb
 2713 01cc 01       		.byte	0x1
 2714 01cd 55       		.uleb128 0x55
 2715 01ce 17       		.uleb128 0x17
 2716 01cf 00       		.byte	0
 2717 01d0 00       		.byte	0
 2718 01d1 26       		.uleb128 0x26
 2719 01d2 34       		.uleb128 0x34
 2720 01d3 00       		.byte	0
 2721 01d4 31       		.uleb128 0x31
 2722 01d5 13       		.uleb128 0x13
 2723 01d6 02       		.uleb128 0x2
 2724 01d7 17       		.uleb128 0x17
 2725 01d8 00       		.byte	0
 2726 01d9 00       		.byte	0
 2727 01da 27       		.uleb128 0x27
 2728 01db 1D       		.uleb128 0x1d
 2729 01dc 01       		.byte	0x1
 2730 01dd 31       		.uleb128 0x31
ARM GAS  /var/folders/qh/xwg3v3kj02qbxczjpdb8lzfr0000gn/T//cc4kpae7.s 			page 49


 2731 01de 13       		.uleb128 0x13
 2732 01df 11       		.uleb128 0x11
 2733 01e0 01       		.uleb128 0x1
 2734 01e1 12       		.uleb128 0x12
 2735 01e2 06       		.uleb128 0x6
 2736 01e3 58       		.uleb128 0x58
 2737 01e4 0B       		.uleb128 0xb
 2738 01e5 59       		.uleb128 0x59
 2739 01e6 0B       		.uleb128 0xb
 2740 01e7 01       		.uleb128 0x1
 2741 01e8 13       		.uleb128 0x13
 2742 01e9 00       		.byte	0
 2743 01ea 00       		.byte	0
 2744 01eb 28       		.uleb128 0x28
 2745 01ec 05       		.uleb128 0x5
 2746 01ed 00       		.byte	0
 2747 01ee 31       		.uleb128 0x31
 2748 01ef 13       		.uleb128 0x13
 2749 01f0 02       		.uleb128 0x2
 2750 01f1 17       		.uleb128 0x17
 2751 01f2 00       		.byte	0
 2752 01f3 00       		.byte	0
 2753 01f4 29       		.uleb128 0x29
 2754 01f5 0B       		.uleb128 0xb
 2755 01f6 01       		.byte	0x1
 2756 01f7 11       		.uleb128 0x11
 2757 01f8 01       		.uleb128 0x1
 2758 01f9 12       		.uleb128 0x12
 2759 01fa 06       		.uleb128 0x6
 2760 01fb 00       		.byte	0
 2761 01fc 00       		.byte	0
 2762 01fd 2A       		.uleb128 0x2a
 2763 01fe 898201   		.uleb128 0x4109
 2764 0201 00       		.byte	0
 2765 0202 11       		.uleb128 0x11
 2766 0203 01       		.uleb128 0x1
 2767 0204 31       		.uleb128 0x31
 2768 0205 13       		.uleb128 0x13
 2769 0206 00       		.byte	0
 2770 0207 00       		.byte	0
 2771 0208 2B       		.uleb128 0x2b
 2772 0209 898201   		.uleb128 0x4109
 2773 020c 01       		.byte	0x1
 2774 020d 11       		.uleb128 0x11
 2775 020e 01       		.uleb128 0x1
 2776 020f 31       		.uleb128 0x31
 2777 0210 13       		.uleb128 0x13
 2778 0211 01       		.uleb128 0x1
 2779 0212 13       		.uleb128 0x13
 2780 0213 00       		.byte	0
 2781 0214 00       		.byte	0
 2782 0215 2C       		.uleb128 0x2c
 2783 0216 8A8201   		.uleb128 0x410a
 2784 0219 00       		.byte	0
 2785 021a 02       		.uleb128 0x2
 2786 021b 18       		.uleb128 0x18
 2787 021c 9142     		.uleb128 0x2111
ARM GAS  /var/folders/qh/xwg3v3kj02qbxczjpdb8lzfr0000gn/T//cc4kpae7.s 			page 50


 2788 021e 18       		.uleb128 0x18
 2789 021f 00       		.byte	0
 2790 0220 00       		.byte	0
 2791 0221 2D       		.uleb128 0x2d
 2792 0222 0B       		.uleb128 0xb
 2793 0223 01       		.byte	0x1
 2794 0224 11       		.uleb128 0x11
 2795 0225 01       		.uleb128 0x1
 2796 0226 12       		.uleb128 0x12
 2797 0227 06       		.uleb128 0x6
 2798 0228 01       		.uleb128 0x1
 2799 0229 13       		.uleb128 0x13
 2800 022a 00       		.byte	0
 2801 022b 00       		.byte	0
 2802 022c 2E       		.uleb128 0x2e
 2803 022d 898201   		.uleb128 0x4109
 2804 0230 01       		.byte	0x1
 2805 0231 11       		.uleb128 0x11
 2806 0232 01       		.uleb128 0x1
 2807 0233 31       		.uleb128 0x31
 2808 0234 13       		.uleb128 0x13
 2809 0235 00       		.byte	0
 2810 0236 00       		.byte	0
 2811 0237 2F       		.uleb128 0x2f
 2812 0238 2E       		.uleb128 0x2e
 2813 0239 01       		.byte	0x1
 2814 023a 3F       		.uleb128 0x3f
 2815 023b 19       		.uleb128 0x19
 2816 023c 03       		.uleb128 0x3
 2817 023d 0E       		.uleb128 0xe
 2818 023e 3A       		.uleb128 0x3a
 2819 023f 0B       		.uleb128 0xb
 2820 0240 3B       		.uleb128 0x3b
 2821 0241 05       		.uleb128 0x5
 2822 0242 27       		.uleb128 0x27
 2823 0243 19       		.uleb128 0x19
 2824 0244 11       		.uleb128 0x11
 2825 0245 01       		.uleb128 0x1
 2826 0246 12       		.uleb128 0x12
 2827 0247 06       		.uleb128 0x6
 2828 0248 40       		.uleb128 0x40
 2829 0249 18       		.uleb128 0x18
 2830 024a 9642     		.uleb128 0x2116
 2831 024c 19       		.uleb128 0x19
 2832 024d 01       		.uleb128 0x1
 2833 024e 13       		.uleb128 0x13
 2834 024f 00       		.byte	0
 2835 0250 00       		.byte	0
 2836 0251 30       		.uleb128 0x30
 2837 0252 05       		.uleb128 0x5
 2838 0253 00       		.byte	0
 2839 0254 03       		.uleb128 0x3
 2840 0255 08       		.uleb128 0x8
 2841 0256 3A       		.uleb128 0x3a
 2842 0257 0B       		.uleb128 0xb
 2843 0258 3B       		.uleb128 0x3b
 2844 0259 05       		.uleb128 0x5
ARM GAS  /var/folders/qh/xwg3v3kj02qbxczjpdb8lzfr0000gn/T//cc4kpae7.s 			page 51


 2845 025a 49       		.uleb128 0x49
 2846 025b 13       		.uleb128 0x13
 2847 025c 02       		.uleb128 0x2
 2848 025d 17       		.uleb128 0x17
 2849 025e 00       		.byte	0
 2850 025f 00       		.byte	0
 2851 0260 31       		.uleb128 0x31
 2852 0261 05       		.uleb128 0x5
 2853 0262 00       		.byte	0
 2854 0263 03       		.uleb128 0x3
 2855 0264 0E       		.uleb128 0xe
 2856 0265 3A       		.uleb128 0x3a
 2857 0266 0B       		.uleb128 0xb
 2858 0267 3B       		.uleb128 0x3b
 2859 0268 05       		.uleb128 0x5
 2860 0269 49       		.uleb128 0x49
 2861 026a 13       		.uleb128 0x13
 2862 026b 02       		.uleb128 0x2
 2863 026c 17       		.uleb128 0x17
 2864 026d 00       		.byte	0
 2865 026e 00       		.byte	0
 2866 026f 32       		.uleb128 0x32
 2867 0270 1D       		.uleb128 0x1d
 2868 0271 01       		.byte	0x1
 2869 0272 31       		.uleb128 0x31
 2870 0273 13       		.uleb128 0x13
 2871 0274 11       		.uleb128 0x11
 2872 0275 01       		.uleb128 0x1
 2873 0276 12       		.uleb128 0x12
 2874 0277 06       		.uleb128 0x6
 2875 0278 58       		.uleb128 0x58
 2876 0279 0B       		.uleb128 0xb
 2877 027a 59       		.uleb128 0x59
 2878 027b 05       		.uleb128 0x5
 2879 027c 01       		.uleb128 0x1
 2880 027d 13       		.uleb128 0x13
 2881 027e 00       		.byte	0
 2882 027f 00       		.byte	0
 2883 0280 33       		.uleb128 0x33
 2884 0281 34       		.uleb128 0x34
 2885 0282 00       		.byte	0
 2886 0283 03       		.uleb128 0x3
 2887 0284 0E       		.uleb128 0xe
 2888 0285 3A       		.uleb128 0x3a
 2889 0286 0B       		.uleb128 0xb
 2890 0287 3B       		.uleb128 0x3b
 2891 0288 0B       		.uleb128 0xb
 2892 0289 49       		.uleb128 0x49
 2893 028a 13       		.uleb128 0x13
 2894 028b 02       		.uleb128 0x2
 2895 028c 18       		.uleb128 0x18
 2896 028d 00       		.byte	0
 2897 028e 00       		.byte	0
 2898 028f 34       		.uleb128 0x34
 2899 0290 34       		.uleb128 0x34
 2900 0291 00       		.byte	0
 2901 0292 03       		.uleb128 0x3
ARM GAS  /var/folders/qh/xwg3v3kj02qbxczjpdb8lzfr0000gn/T//cc4kpae7.s 			page 52


 2902 0293 08       		.uleb128 0x8
 2903 0294 3A       		.uleb128 0x3a
 2904 0295 0B       		.uleb128 0xb
 2905 0296 3B       		.uleb128 0x3b
 2906 0297 0B       		.uleb128 0xb
 2907 0298 49       		.uleb128 0x49
 2908 0299 13       		.uleb128 0x13
 2909 029a 3F       		.uleb128 0x3f
 2910 029b 19       		.uleb128 0x19
 2911 029c 02       		.uleb128 0x2
 2912 029d 18       		.uleb128 0x18
 2913 029e 00       		.byte	0
 2914 029f 00       		.byte	0
 2915 02a0 35       		.uleb128 0x35
 2916 02a1 2E       		.uleb128 0x2e
 2917 02a2 00       		.byte	0
 2918 02a3 3F       		.uleb128 0x3f
 2919 02a4 19       		.uleb128 0x19
 2920 02a5 03       		.uleb128 0x3
 2921 02a6 0E       		.uleb128 0xe
 2922 02a7 3A       		.uleb128 0x3a
 2923 02a8 0B       		.uleb128 0xb
 2924 02a9 3B       		.uleb128 0x3b
 2925 02aa 0B       		.uleb128 0xb
 2926 02ab 27       		.uleb128 0x27
 2927 02ac 19       		.uleb128 0x19
 2928 02ad 3C       		.uleb128 0x3c
 2929 02ae 19       		.uleb128 0x19
 2930 02af 00       		.byte	0
 2931 02b0 00       		.byte	0
 2932 02b1 36       		.uleb128 0x36
 2933 02b2 2E       		.uleb128 0x2e
 2934 02b3 01       		.byte	0x1
 2935 02b4 3F       		.uleb128 0x3f
 2936 02b5 19       		.uleb128 0x19
 2937 02b6 03       		.uleb128 0x3
 2938 02b7 0E       		.uleb128 0xe
 2939 02b8 3A       		.uleb128 0x3a
 2940 02b9 0B       		.uleb128 0xb
 2941 02ba 3B       		.uleb128 0x3b
 2942 02bb 0B       		.uleb128 0xb
 2943 02bc 27       		.uleb128 0x27
 2944 02bd 19       		.uleb128 0x19
 2945 02be 3C       		.uleb128 0x3c
 2946 02bf 19       		.uleb128 0x19
 2947 02c0 01       		.uleb128 0x1
 2948 02c1 13       		.uleb128 0x13
 2949 02c2 00       		.byte	0
 2950 02c3 00       		.byte	0
 2951 02c4 37       		.uleb128 0x37
 2952 02c5 2E       		.uleb128 0x2e
 2953 02c6 01       		.byte	0x1
 2954 02c7 3F       		.uleb128 0x3f
 2955 02c8 19       		.uleb128 0x19
 2956 02c9 03       		.uleb128 0x3
 2957 02ca 0E       		.uleb128 0xe
 2958 02cb 3A       		.uleb128 0x3a
ARM GAS  /var/folders/qh/xwg3v3kj02qbxczjpdb8lzfr0000gn/T//cc4kpae7.s 			page 53


 2959 02cc 0B       		.uleb128 0xb
 2960 02cd 3B       		.uleb128 0x3b
 2961 02ce 05       		.uleb128 0x5
 2962 02cf 27       		.uleb128 0x27
 2963 02d0 19       		.uleb128 0x19
 2964 02d1 49       		.uleb128 0x49
 2965 02d2 13       		.uleb128 0x13
 2966 02d3 3C       		.uleb128 0x3c
 2967 02d4 19       		.uleb128 0x19
 2968 02d5 01       		.uleb128 0x1
 2969 02d6 13       		.uleb128 0x13
 2970 02d7 00       		.byte	0
 2971 02d8 00       		.byte	0
 2972 02d9 38       		.uleb128 0x38
 2973 02da 2E       		.uleb128 0x2e
 2974 02db 01       		.byte	0x1
 2975 02dc 3F       		.uleb128 0x3f
 2976 02dd 19       		.uleb128 0x19
 2977 02de 03       		.uleb128 0x3
 2978 02df 0E       		.uleb128 0xe
 2979 02e0 3A       		.uleb128 0x3a
 2980 02e1 0B       		.uleb128 0xb
 2981 02e2 3B       		.uleb128 0x3b
 2982 02e3 05       		.uleb128 0x5
 2983 02e4 27       		.uleb128 0x27
 2984 02e5 19       		.uleb128 0x19
 2985 02e6 3C       		.uleb128 0x3c
 2986 02e7 19       		.uleb128 0x19
 2987 02e8 01       		.uleb128 0x1
 2988 02e9 13       		.uleb128 0x13
 2989 02ea 00       		.byte	0
 2990 02eb 00       		.byte	0
 2991 02ec 39       		.uleb128 0x39
 2992 02ed 2E       		.uleb128 0x2e
 2993 02ee 01       		.byte	0x1
 2994 02ef 3F       		.uleb128 0x3f
 2995 02f0 19       		.uleb128 0x19
 2996 02f1 03       		.uleb128 0x3
 2997 02f2 0E       		.uleb128 0xe
 2998 02f3 3A       		.uleb128 0x3a
 2999 02f4 0B       		.uleb128 0xb
 3000 02f5 3B       		.uleb128 0x3b
 3001 02f6 05       		.uleb128 0x5
 3002 02f7 27       		.uleb128 0x27
 3003 02f8 19       		.uleb128 0x19
 3004 02f9 3C       		.uleb128 0x3c
 3005 02fa 19       		.uleb128 0x19
 3006 02fb 00       		.byte	0
 3007 02fc 00       		.byte	0
 3008 02fd 00       		.byte	0
 3009              		.section	.debug_loc,"",%progbits
 3010              	.Ldebug_loc0:
 3011              	.LLST0:
 3012 0000 0A000000 		.4byte	.LVL1
 3013 0004 56000000 		.4byte	.LVL14
 3014 0008 0100     		.2byte	0x1
 3015 000a 58       		.byte	0x58
ARM GAS  /var/folders/qh/xwg3v3kj02qbxczjpdb8lzfr0000gn/T//cc4kpae7.s 			page 54


 3016 000b 5E000000 		.4byte	.LVL15
 3017 000f 0C010000 		.4byte	.LFE45
 3018 0013 0100     		.2byte	0x1
 3019 0015 58       		.byte	0x58
 3020 0016 00000000 		.4byte	0
 3021 001a 00000000 		.4byte	0
 3022              	.LLST1:
 3023 001e 12000000 		.4byte	.LVL3
 3024 0022 56000000 		.4byte	.LVL13
 3025 0026 0100     		.2byte	0x1
 3026 0028 55       		.byte	0x55
 3027 0029 5E000000 		.4byte	.LVL15
 3028 002d 0C010000 		.4byte	.LFE45
 3029 0031 0100     		.2byte	0x1
 3030 0033 55       		.byte	0x55
 3031 0034 00000000 		.4byte	0
 3032 0038 00000000 		.4byte	0
 3033              	.LLST2:
 3034 003c 14000000 		.4byte	.LVL4
 3035 0040 4A000000 		.4byte	.LVL9
 3036 0044 0100     		.2byte	0x1
 3037 0046 57       		.byte	0x57
 3038 0047 5E000000 		.4byte	.LVL15
 3039 004b 0C010000 		.4byte	.LFE45
 3040 004f 0100     		.2byte	0x1
 3041 0051 57       		.byte	0x57
 3042 0052 00000000 		.4byte	0
 3043 0056 00000000 		.4byte	0
 3044              	.LLST3:
 3045 005a 16000000 		.4byte	.LVL5
 3046 005e 56000000 		.4byte	.LVL12
 3047 0062 0100     		.2byte	0x1
 3048 0064 54       		.byte	0x54
 3049 0065 5E000000 		.4byte	.LVL15
 3050 0069 0C010000 		.4byte	.LFE45
 3051 006d 0100     		.2byte	0x1
 3052 006f 54       		.byte	0x54
 3053 0070 00000000 		.4byte	0
 3054 0074 00000000 		.4byte	0
 3055              	.LLST4:
 3056 0078 8E000000 		.4byte	.LVL22
 3057 007c D2000000 		.4byte	.LVL31
 3058 0080 0600     		.2byte	0x6
 3059 0082 03       		.byte	0x3
 3060 0083 00000000 		.4byte	SD1
 3061 0087 9F       		.byte	0x9f
 3062 0088 00000000 		.4byte	0
 3063 008c 00000000 		.4byte	0
 3064              	.LLST5:
 3065 0090 8E000000 		.4byte	.LVL22
 3066 0094 D2000000 		.4byte	.LVL31
 3067 0098 0100     		.2byte	0x1
 3068 009a 54       		.byte	0x54
 3069 009b 00000000 		.4byte	0
 3070 009f 00000000 		.4byte	0
 3071              	.LLST6:
 3072 00a3 8E000000 		.4byte	.LVL22
ARM GAS  /var/folders/qh/xwg3v3kj02qbxczjpdb8lzfr0000gn/T//cc4kpae7.s 			page 55


 3073 00a7 96000000 		.4byte	.LVL23
 3074 00ab 0200     		.2byte	0x2
 3075 00ad 30       		.byte	0x30
 3076 00ae 9F       		.byte	0x9f
 3077 00af 96000000 		.4byte	.LVL23
 3078 00b3 9A000000 		.4byte	.LVL24
 3079 00b7 0100     		.2byte	0x1
 3080 00b9 53       		.byte	0x53
 3081 00ba 9A000000 		.4byte	.LVL24
 3082 00be D2000000 		.4byte	.LVL31
 3083 00c2 0100     		.2byte	0x1
 3084 00c4 59       		.byte	0x59
 3085 00c5 00000000 		.4byte	0
 3086 00c9 00000000 		.4byte	0
 3087              	.LLST7:
 3088 00cd E0000000 		.4byte	.LVL33
 3089 00d1 E6000000 		.4byte	.LVL34
 3090 00d5 0100     		.2byte	0x1
 3091 00d7 50       		.byte	0x50
 3092 00d8 F0000000 		.4byte	.LVL36
 3093 00dc F2000000 		.4byte	.LVL37
 3094 00e0 0100     		.2byte	0x1
 3095 00e2 50       		.byte	0x50
 3096 00e3 00000000 		.4byte	0
 3097 00e7 00000000 		.4byte	0
 3098              	.LLST8:
 3099 00eb 00000000 		.4byte	.LVL40
 3100 00ef 0E000000 		.4byte	.LVL42
 3101 00f3 0100     		.2byte	0x1
 3102 00f5 50       		.byte	0x50
 3103 00f6 0E000000 		.4byte	.LVL42
 3104 00fa 3C000000 		.4byte	.LVL47
 3105 00fe 0100     		.2byte	0x1
 3106 0100 56       		.byte	0x56
 3107 0101 3C000000 		.4byte	.LVL47
 3108 0105 3E000000 		.4byte	.LVL48
 3109 0109 0400     		.2byte	0x4
 3110 010b F3       		.byte	0xf3
 3111 010c 01       		.uleb128 0x1
 3112 010d 50       		.byte	0x50
 3113 010e 9F       		.byte	0x9f
 3114 010f 3E000000 		.4byte	.LVL48
 3115 0113 52000000 		.4byte	.LVL49
 3116 0117 0100     		.2byte	0x1
 3117 0119 50       		.byte	0x50
 3118 011a 52000000 		.4byte	.LVL49
 3119 011e 5A000000 		.4byte	.LVL51
 3120 0122 0100     		.2byte	0x1
 3121 0124 56       		.byte	0x56
 3122 0125 5A000000 		.4byte	.LVL51
 3123 0129 6C000000 		.4byte	.LFE47
 3124 012d 0100     		.2byte	0x1
 3125 012f 50       		.byte	0x50
 3126 0130 00000000 		.4byte	0
 3127 0134 00000000 		.4byte	0
 3128              	.LLST9:
 3129 0138 00000000 		.4byte	.LVL40
ARM GAS  /var/folders/qh/xwg3v3kj02qbxczjpdb8lzfr0000gn/T//cc4kpae7.s 			page 56


 3130 013c 08000000 		.4byte	.LVL41
 3131 0140 0100     		.2byte	0x1
 3132 0142 51       		.byte	0x51
 3133 0143 08000000 		.4byte	.LVL41
 3134 0147 3C000000 		.4byte	.LVL45
 3135 014b 0100     		.2byte	0x1
 3136 014d 54       		.byte	0x54
 3137 014e 3E000000 		.4byte	.LVL48
 3138 0152 5A000000 		.4byte	.LVL51
 3139 0156 0100     		.2byte	0x1
 3140 0158 54       		.byte	0x54
 3141 0159 5A000000 		.4byte	.LVL51
 3142 015d 6C000000 		.4byte	.LFE47
 3143 0161 0100     		.2byte	0x1
 3144 0163 51       		.byte	0x51
 3145 0164 00000000 		.4byte	0
 3146 0168 00000000 		.4byte	0
 3147              	.LLST10:
 3148 016c 1A000000 		.4byte	.LVL44
 3149 0170 3C000000 		.4byte	.LVL47
 3150 0174 0100     		.2byte	0x1
 3151 0176 56       		.byte	0x56
 3152 0177 3C000000 		.4byte	.LVL47
 3153 017b 3E000000 		.4byte	.LVL48
 3154 017f 0400     		.2byte	0x4
 3155 0181 F3       		.byte	0xf3
 3156 0182 01       		.uleb128 0x1
 3157 0183 50       		.byte	0x50
 3158 0184 9F       		.byte	0x9f
 3159 0185 00000000 		.4byte	0
 3160 0189 00000000 		.4byte	0
 3161              	.LLST12:
 3162 018d 1A000000 		.4byte	.LVL44
 3163 0191 3C000000 		.4byte	.LVL45
 3164 0195 0100     		.2byte	0x1
 3165 0197 54       		.byte	0x54
 3166 0198 00000000 		.4byte	0
 3167 019c 00000000 		.4byte	0
 3168              	.LLST13:
 3169 01a0 1A000000 		.4byte	.LVL44
 3170 01a4 3C000000 		.4byte	.LVL46
 3171 01a8 0100     		.2byte	0x1
 3172 01aa 55       		.byte	0x55
 3173 01ab 00000000 		.4byte	0
 3174 01af 00000000 		.4byte	0
 3175              	.LLST14:
 3176 01b3 00000000 		.4byte	.LVL52
 3177 01b7 08000000 		.4byte	.LVL53
 3178 01bb 0100     		.2byte	0x1
 3179 01bd 50       		.byte	0x50
 3180 01be 08000000 		.4byte	.LVL53
 3181 01c2 0A000000 		.4byte	.LVL54
 3182 01c6 0400     		.2byte	0x4
 3183 01c8 F3       		.byte	0xf3
 3184 01c9 01       		.uleb128 0x1
 3185 01ca 50       		.byte	0x50
 3186 01cb 9F       		.byte	0x9f
ARM GAS  /var/folders/qh/xwg3v3kj02qbxczjpdb8lzfr0000gn/T//cc4kpae7.s 			page 57


 3187 01cc 0A000000 		.4byte	.LVL54
 3188 01d0 22000000 		.4byte	.LVL57
 3189 01d4 0100     		.2byte	0x1
 3190 01d6 50       		.byte	0x50
 3191 01d7 22000000 		.4byte	.LVL57
 3192 01db 38000000 		.4byte	.LFE48
 3193 01df 0400     		.2byte	0x4
 3194 01e1 F3       		.byte	0xf3
 3195 01e2 01       		.uleb128 0x1
 3196 01e3 50       		.byte	0x50
 3197 01e4 9F       		.byte	0x9f
 3198 01e5 00000000 		.4byte	0
 3199 01e9 00000000 		.4byte	0
 3200              	.LLST15:
 3201 01ed 0C000000 		.4byte	.LVL55
 3202 01f1 16000000 		.4byte	.LVL56
 3203 01f5 0100     		.2byte	0x1
 3204 01f7 53       		.byte	0x53
 3205 01f8 16000000 		.4byte	.LVL56
 3206 01fc 22000000 		.4byte	.LVL57
 3207 0200 0300     		.2byte	0x3
 3208 0202 70       		.byte	0x70
 3209 0203 F400     		.sleb128 116
 3210 0205 22000000 		.4byte	.LVL57
 3211 0209 29000000 		.4byte	.LVL58-1
 3212 020d 0500     		.2byte	0x5
 3213 020f F3       		.byte	0xf3
 3214 0210 01       		.uleb128 0x1
 3215 0211 50       		.byte	0x50
 3216 0212 23       		.byte	0x23
 3217 0213 74       		.uleb128 0x74
 3218 0214 00000000 		.4byte	0
 3219 0218 00000000 		.4byte	0
 3220              		.section	.debug_aranges,"",%progbits
 3221 0000 3C000000 		.4byte	0x3c
 3222 0004 0200     		.2byte	0x2
 3223 0006 00000000 		.4byte	.Ldebug_info0
 3224 000a 04       		.byte	0x4
 3225 000b 00       		.byte	0
 3226 000c 0000     		.2byte	0
 3227 000e 0000     		.2byte	0
 3228 0010 00000000 		.4byte	.LFB44
 3229 0014 10000000 		.4byte	.LFE44-.LFB44
 3230 0018 00000000 		.4byte	.LFB45
 3231 001c 0C010000 		.4byte	.LFE45-.LFB45
 3232 0020 00000000 		.4byte	.LFB46
 3233 0024 28000000 		.4byte	.LFE46-.LFB46
 3234 0028 00000000 		.4byte	.LFB47
 3235 002c 6C000000 		.4byte	.LFE47-.LFB47
 3236 0030 00000000 		.4byte	.LFB48
 3237 0034 38000000 		.4byte	.LFE48-.LFB48
 3238 0038 00000000 		.4byte	0
 3239 003c 00000000 		.4byte	0
 3240              		.section	.debug_ranges,"",%progbits
 3241              	.Ldebug_ranges0:
 3242 0000 0E000000 		.4byte	.LBB12
 3243 0004 4C000000 		.4byte	.LBE12
ARM GAS  /var/folders/qh/xwg3v3kj02qbxczjpdb8lzfr0000gn/T//cc4kpae7.s 			page 58


 3244 0008 5E000000 		.4byte	.LBB18
 3245 000c 0C010000 		.4byte	.LBE18
 3246 0010 00000000 		.4byte	0
 3247 0014 00000000 		.4byte	0
 3248 0018 0E000000 		.4byte	.LBB19
 3249 001c 18000000 		.4byte	.LBE19
 3250 0020 1A000000 		.4byte	.LBB22
 3251 0024 3C000000 		.4byte	.LBE22
 3252 0028 00000000 		.4byte	0
 3253 002c 00000000 		.4byte	0
 3254 0030 00000000 		.4byte	.LFB44
 3255 0034 10000000 		.4byte	.LFE44
 3256 0038 00000000 		.4byte	.LFB45
 3257 003c 0C010000 		.4byte	.LFE45
 3258 0040 00000000 		.4byte	.LFB46
 3259 0044 28000000 		.4byte	.LFE46
 3260 0048 00000000 		.4byte	.LFB47
 3261 004c 6C000000 		.4byte	.LFE47
 3262 0050 00000000 		.4byte	.LFB48
 3263 0054 38000000 		.4byte	.LFE48
 3264 0058 00000000 		.4byte	0
 3265 005c 00000000 		.4byte	0
 3266              		.section	.debug_line,"",%progbits
 3267              	.Ldebug_line0:
 3268 0000 FA020000 		.section	.debug_str,"MS",%progbits,1
 3268      02002102 
 3268      00000201 
 3268      FB0E0D00 
 3268      01010101 
 3269              	.LASF84:
 3270 0000 42444352 		.ascii	"BDCR\000"
 3270      00
 3271              	.LASF45:
 3272 0005 54687265 		.ascii	"ThreadsList\000"
 3272      6164734C 
 3272      69737400 
 3273              	.LASF37:
 3274 0011 705F7761 		.ascii	"p_waiting\000"
 3274      6974696E 
 3274      6700
 3275              	.LASF101:
 3276 001b 53657269 		.ascii	"SerialDriver\000"
 3276      616C4472 
 3276      69766572 
 3276      00
 3277              	.LASF83:
 3278 0028 41504231 		.ascii	"APB1ENR\000"
 3278      454E5200 
 3279              	.LASF36:
 3280 0030 705F7469 		.ascii	"p_time\000"
 3280      6D6500
 3281              	.LASF46:
 3282 0037 72656761 		.ascii	"regarm_t\000"
 3282      726D5F74 
 3282      00
 3283              	.LASF27:
 3284 0040 705F7072 		.ascii	"p_prio\000"
ARM GAS  /var/folders/qh/xwg3v3kj02qbxczjpdb8lzfr0000gn/T//cc4kpae7.s 			page 59


 3284      696F00
 3285              	.LASF120:
 3286 0047 7365745F 		.ascii	"set_error\000"
 3286      6572726F 
 3286      7200
 3287              	.LASF79:
 3288 0051 41504232 		.ascii	"APB2RSTR\000"
 3288      52535452 
 3288      00
 3289              	.LASF23:
 3290 005a 73797374 		.ascii	"systime_t\000"
 3290      696D655F 
 3290      7400
 3291              	.LASF52:
 3292 0064 6D5F6F77 		.ascii	"m_owner\000"
 3292      6E657200 
 3293              	.LASF38:
 3294 006c 705F6D73 		.ascii	"p_msgqueue\000"
 3294      67717565 
 3294      756500
 3295              	.LASF0:
 3296 0077 756E7369 		.ascii	"unsigned int\000"
 3296      676E6564 
 3296      20696E74 
 3296      00
 3297              	.LASF72:
 3298 0084 715F7264 		.ascii	"q_rdptr\000"
 3298      70747200 
 3299              	.LASF75:
 3300 008c 716E6F74 		.ascii	"qnotify_t\000"
 3300      6966795F 
 3300      7400
 3301              	.LASF57:
 3302 0096 656C5F6D 		.ascii	"el_mask\000"
 3302      61736B00 
 3303              	.LASF88:
 3304 009e 5243435F 		.ascii	"RCC_TypeDef\000"
 3304      54797065 
 3304      44656600 
 3305              	.LASF63:
 3306 00aa 77746F62 		.ascii	"wtobjp\000"
 3306      6A7000
 3307              	.LASF138:
 3308 00b1 2E2E2F2E 		.ascii	"../../os/hal/platforms/STM32/USARTv2/serial_lld.c\000"
 3308      2E2F6F73 
 3308      2F68616C 
 3308      2F706C61 
 3308      74666F72 
 3309              	.LASF74:
 3310 00e3 715F6C69 		.ascii	"q_link\000"
 3310      6E6B00
 3311              	.LASF137:
 3312 00ea 474E5520 		.ascii	"GNU C 4.8.3 20131129 (release) [ARM/embedded-4_8-br"
 3312      4320342E 
 3312      382E3320 
 3312      32303133 
 3312      31313239 
ARM GAS  /var/folders/qh/xwg3v3kj02qbxczjpdb8lzfr0000gn/T//cc4kpae7.s 			page 60


 3313 011d 616E6368 		.ascii	"anch revision 205641] -mcpu=cortex-m0 -mno-thumb-in"
 3313      20726576 
 3313      6973696F 
 3313      6E203230 
 3313      35363431 
 3314 0150 74657277 		.ascii	"terwork -mthumb -ggdb -O2 -fomit-frame-pointer -fal"
 3314      6F726B20 
 3314      2D6D7468 
 3314      756D6220 
 3314      2D676764 
 3315 0183 69676E2D 		.ascii	"ign-functions=16 -ffunction-sections -fdata-section"
 3315      66756E63 
 3315      74696F6E 
 3315      733D3136 
 3315      202D6666 
 3316 01b6 73202D66 		.ascii	"s -fno-common\000"
 3316      6E6F2D63 
 3316      6F6D6D6F 
 3316      6E00
 3317              	.LASF135:
 3318 01c4 73644F62 		.ascii	"sdObjectInit\000"
 3318      6A656374 
 3318      496E6974 
 3318      00
 3319              	.LASF64:
 3320 01d1 65776D61 		.ascii	"ewmask\000"
 3320      736B00
 3321              	.LASF131:
 3322 01d8 7364496E 		.ascii	"sdIncomingDataI\000"
 3322      636F6D69 
 3322      6E674461 
 3322      74614900 
 3323              	.LASF142:
 3324 01e8 6E766963 		.ascii	"nvicDisableVector\000"
 3324      44697361 
 3324      626C6556 
 3324      6563746F 
 3324      7200
 3325              	.LASF108:
 3326 01fa 73706565 		.ascii	"speed\000"
 3326      6400
 3327              	.LASF115:
 3328 0200 77726974 		.ascii	"writet\000"
 3328      657400
 3329              	.LASF90:
 3330 0207 47545052 		.ascii	"GTPR\000"
 3330      00
 3331              	.LASF104:
 3332 020c 69717565 		.ascii	"iqueue\000"
 3332      756500
 3333              	.LASF10:
 3334 0213 75696E74 		.ascii	"uint32_t\000"
 3334      33325F74 
 3334      00
 3335              	.LASF21:
 3336 021c 6576656E 		.ascii	"eventmask_t\000"
 3336      746D6173 
ARM GAS  /var/folders/qh/xwg3v3kj02qbxczjpdb8lzfr0000gn/T//cc4kpae7.s 			page 61


 3336      6B5F7400 
 3337              	.LASF85:
 3338 0228 41484252 		.ascii	"AHBRSTR\000"
 3338      53545200 
 3339              	.LASF109:
 3340 0230 53657269 		.ascii	"SerialConfig\000"
 3340      616C436F 
 3340      6E666967 
 3340      00
 3341              	.LASF100:
 3342 023d 73647374 		.ascii	"sdstate_t\000"
 3342      6174655F 
 3342      7400
 3343              	.LASF102:
 3344 0247 6576656E 		.ascii	"event\000"
 3344      7400
 3345              	.LASF19:
 3346 024d 74707269 		.ascii	"tprio_t\000"
 3346      6F5F7400 
 3347              	.LASF122:
 3348 0255 56656374 		.ascii	"VectorAC\000"
 3348      6F724143 
 3348      00
 3349              	.LASF13:
 3350 025e 6C6F6E67 		.ascii	"long long unsigned int\000"
 3350      206C6F6E 
 3350      6720756E 
 3350      7369676E 
 3350      65642069 
 3351              	.LASF129:
 3352 0275 6462675F 		.ascii	"dbg_check_unlock_from_isr\000"
 3352      63686563 
 3352      6B5F756E 
 3352      6C6F636B 
 3352      5F66726F 
 3353              	.LASF136:
 3354 028f 6E766963 		.ascii	"nvicEnableVector\000"
 3354      456E6162 
 3354      6C655665 
 3354      63746F72 
 3354      00
 3355              	.LASF29:
 3356 02a0 705F6E65 		.ascii	"p_newer\000"
 3356      77657200 
 3357              	.LASF67:
 3358 02a8 715F7761 		.ascii	"q_waiting\000"
 3358      6974696E 
 3358      6700
 3359              	.LASF113:
 3360 02b2 70757474 		.ascii	"putt\000"
 3360      00
 3361              	.LASF139:
 3362 02b7 2F557365 		.ascii	"/Users/John/Development/embedded/ChibiOS-RT/BluC/ST"
 3362      72732F4A 
 3362      6F686E2F 
 3362      44657665 
 3362      6C6F706D 
ARM GAS  /var/folders/qh/xwg3v3kj02qbxczjpdb8lzfr0000gn/T//cc4kpae7.s 			page 62


 3363 02ea 4D333246 		.ascii	"M32F051\000"
 3363      30353100 
 3364              	.LASF2:
 3365 02f2 73697A65 		.ascii	"size_t\000"
 3365      5F7400
 3366              	.LASF61:
 3367 02f9 7264796D 		.ascii	"rdymsg\000"
 3367      736700
 3368              	.LASF14:
 3369 0300 5F426F6F 		.ascii	"_Bool\000"
 3369      6C00
 3370              	.LASF98:
 3371 0306 53445F53 		.ascii	"SD_STOP\000"
 3371      544F5000 
 3372              	.LASF128:
 3373 030e 6462675F 		.ascii	"dbg_check_lock_from_isr\000"
 3373      63686563 
 3373      6B5F6C6F 
 3373      636B5F66 
 3373      726F6D5F 
 3374              	.LASF96:
 3375 0326 55534152 		.ascii	"USART_TypeDef\000"
 3375      545F5479 
 3375      70654465 
 3375      6600
 3376              	.LASF50:
 3377 0334 4D757465 		.ascii	"Mutex\000"
 3377      7800
 3378              	.LASF77:
 3379 033a 4F757470 		.ascii	"OutputQueue\000"
 3379      75745175 
 3379      65756500 
 3380              	.LASF73:
 3381 0346 715F6E6F 		.ascii	"q_notify\000"
 3381      74696679 
 3381      00
 3382              	.LASF107:
 3383 034f 636C6F63 		.ascii	"clock\000"
 3383      6B00
 3384              	.LASF31:
 3385 0355 705F6E61 		.ascii	"p_name\000"
 3385      6D6500
 3386              	.LASF127:
 3387 035c 64656661 		.ascii	"default_config\000"
 3387      756C745F 
 3387      636F6E66 
 3387      696700
 3388              	.LASF80:
 3389 036b 41504231 		.ascii	"APB1RSTR\000"
 3389      52535452 
 3389      00
 3390              	.LASF76:
 3391 0374 496E7075 		.ascii	"InputQueue\000"
 3391      74517565 
 3391      756500
 3392              	.LASF44:
 3393 037f 54687265 		.ascii	"ThreadsQueue\000"
ARM GAS  /var/folders/qh/xwg3v3kj02qbxczjpdb8lzfr0000gn/T//cc4kpae7.s 			page 63


 3393      61647351 
 3393      75657565 
 3393      00
 3394              	.LASF65:
 3395 038c 63686172 		.ascii	"char\000"
 3395      00
 3396              	.LASF71:
 3397 0391 715F7772 		.ascii	"q_wrptr\000"
 3397      70747200 
 3398              	.LASF24:
 3399 0399 54687265 		.ascii	"Thread\000"
 3399      616400
 3400              	.LASF16:
 3401 03a0 74737461 		.ascii	"tstate_t\000"
 3401      74655F74 
 3401      00
 3402              	.LASF130:
 3403 03a9 63684576 		.ascii	"chEvtBroadcastFlagsI\000"
 3403      7442726F 
 3403      61646361 
 3403      7374466C 
 3403      61677349 
 3404              	.LASF81:
 3405 03be 41484245 		.ascii	"AHBENR\000"
 3405      4E5200
 3406              	.LASF30:
 3407 03c5 705F6F6C 		.ascii	"p_older\000"
 3407      64657200 
 3408              	.LASF32:
 3409 03cd 705F7374 		.ascii	"p_state\000"
 3409      61746500 
 3410              	.LASF3:
 3411 03d5 75696E74 		.ascii	"uint8_t\000"
 3411      385F7400 
 3412              	.LASF22:
 3413 03dd 666C6167 		.ascii	"flagsmask_t\000"
 3413      736D6173 
 3413      6B5F7400 
 3414              	.LASF92:
 3415 03e9 52544F52 		.ascii	"RTOR\000"
 3415      00
 3416              	.LASF43:
 3417 03ee 705F6D70 		.ascii	"p_mpool\000"
 3417      6F6F6C00 
 3418              	.LASF41:
 3419 03f6 705F6D74 		.ascii	"p_mtxlist\000"
 3419      786C6973 
 3419      7400
 3420              	.LASF106:
 3421 0400 75736172 		.ascii	"usart\000"
 3421      7400
 3422              	.LASF12:
 3423 0406 6C6F6E67 		.ascii	"long long int\000"
 3423      206C6F6E 
 3423      6720696E 
 3423      7400
 3424              	.LASF111:
ARM GAS  /var/folders/qh/xwg3v3kj02qbxczjpdb8lzfr0000gn/T//cc4kpae7.s 			page 64


 3425 0414 77726974 		.ascii	"write\000"
 3425      6500
 3426              	.LASF69:
 3427 041a 715F6275 		.ascii	"q_buffer\000"
 3427      66666572 
 3427      00
 3428              	.LASF20:
 3429 0423 6D73675F 		.ascii	"msg_t\000"
 3429      7400
 3430              	.LASF125:
 3431 0429 73645F6C 		.ascii	"sd_lld_stop\000"
 3431      6C645F73 
 3431      746F7000 
 3432              	.LASF48:
 3433 0435 636F6E74 		.ascii	"context\000"
 3433      65787400 
 3434              	.LASF33:
 3435 043d 705F666C 		.ascii	"p_flags\000"
 3435      61677300 
 3436              	.LASF18:
 3437 0445 74736C69 		.ascii	"tslices_t\000"
 3437      6365735F 
 3437      7400
 3438              	.LASF140:
 3439 044f 6E6F7469 		.ascii	"notify1\000"
 3439      66793100 
 3440              	.LASF118:
 3441 0457 75736172 		.ascii	"usart_init\000"
 3441      745F696E 
 3441      697400
 3442              	.LASF86:
 3443 0462 43464752 		.ascii	"CFGR2\000"
 3443      3200
 3444              	.LASF87:
 3445 0468 43464752 		.ascii	"CFGR3\000"
 3445      3300
 3446              	.LASF82:
 3447 046e 41504232 		.ascii	"APB2ENR\000"
 3447      454E5200 
 3448              	.LASF59:
 3449 0476 4576656E 		.ascii	"EventSource\000"
 3449      74536F75 
 3449      72636500 
 3450              	.LASF55:
 3451 0482 656C5F6E 		.ascii	"el_next\000"
 3451      65787400 
 3452              	.LASF39:
 3453 048a 705F6D73 		.ascii	"p_msg\000"
 3453      6700
 3454              	.LASF15:
 3455 0490 746D6F64 		.ascii	"tmode_t\000"
 3455      655F7400 
 3456              	.LASF66:
 3457 0498 47656E65 		.ascii	"GenericQueue\000"
 3457      72696351 
 3457      75657565 
 3457      00
ARM GAS  /var/folders/qh/xwg3v3kj02qbxczjpdb8lzfr0000gn/T//cc4kpae7.s 			page 65


 3458              	.LASF105:
 3459 04a5 6F717565 		.ascii	"oqueue\000"
 3459      756500
 3460              	.LASF6:
 3461 04ac 75696E74 		.ascii	"uint16_t\000"
 3461      31365F74 
 3461      00
 3462              	.LASF119:
 3463 04b5 75736172 		.ascii	"usart_deinit\000"
 3463      745F6465 
 3463      696E6974 
 3463      00
 3464              	.LASF47:
 3465 04c2 696E7463 		.ascii	"intctx\000"
 3465      747800
 3466              	.LASF124:
 3467 04c9 73645F6C 		.ascii	"sd_lld_start\000"
 3467      6C645F73 
 3467      74617274 
 3467      00
 3468              	.LASF99:
 3469 04d6 53445F52 		.ascii	"SD_READY\000"
 3469      45414459 
 3469      00
 3470              	.LASF110:
 3471 04df 53657269 		.ascii	"SerialDriverVMT\000"
 3471      616C4472 
 3471      69766572 
 3471      564D5400 
 3472              	.LASF117:
 3473 04ef 636F6E66 		.ascii	"config\000"
 3473      696700
 3474              	.LASF42:
 3475 04f6 705F7265 		.ascii	"p_realprio\000"
 3475      616C7072 
 3475      696F00
 3476              	.LASF89:
 3477 0501 52455345 		.ascii	"RESERVED1\000"
 3477      52564544 
 3477      3100
 3478              	.LASF91:
 3479 050b 52455345 		.ascii	"RESERVED2\000"
 3479      52564544 
 3479      3200
 3480              	.LASF93:
 3481 0515 52455345 		.ascii	"RESERVED3\000"
 3481      52564544 
 3481      3300
 3482              	.LASF94:
 3483 051f 52455345 		.ascii	"RESERVED4\000"
 3483      52564544 
 3483      3400
 3484              	.LASF95:
 3485 0529 52455345 		.ascii	"RESERVED5\000"
 3485      52564544 
 3485      3500
 3486              	.LASF5:
ARM GAS  /var/folders/qh/xwg3v3kj02qbxczjpdb8lzfr0000gn/T//cc4kpae7.s 			page 66


 3487 0533 73686F72 		.ascii	"short int\000"
 3487      7420696E 
 3487      7400
 3488              	.LASF40:
 3489 053d 705F6570 		.ascii	"p_epending\000"
 3489      656E6469 
 3489      6E6700
 3490              	.LASF51:
 3491 0548 6D5F7175 		.ascii	"m_queue\000"
 3491      65756500 
 3492              	.LASF9:
 3493 0550 6C6F6E67 		.ascii	"long int\000"
 3493      20696E74 
 3493      00
 3494              	.LASF25:
 3495 0559 705F6E65 		.ascii	"p_next\000"
 3495      787400
 3496              	.LASF28:
 3497 0560 705F6374 		.ascii	"p_ctx\000"
 3497      7800
 3498              	.LASF78:
 3499 0566 43464752 		.ascii	"CFGR\000"
 3499      00
 3500              	.LASF112:
 3501 056b 72656164 		.ascii	"read\000"
 3501      00
 3502              	.LASF56:
 3503 0570 656C5F6C 		.ascii	"el_listener\000"
 3503      69737465 
 3503      6E657200 
 3504              	.LASF97:
 3505 057c 53445F55 		.ascii	"SD_UNINIT\000"
 3505      4E494E49 
 3505      5400
 3506              	.LASF141:
 3507 0586 63684F51 		.ascii	"chOQGetI\000"
 3507      47657449 
 3507      00
 3508              	.LASF68:
 3509 058f 715F636F 		.ascii	"q_counter\000"
 3509      756E7465 
 3509      7200
 3510              	.LASF114:
 3511 0599 67657474 		.ascii	"gett\000"
 3511      00
 3512              	.LASF70:
 3513 059e 715F746F 		.ascii	"q_top\000"
 3513      7000
 3514              	.LASF26:
 3515 05a4 705F7072 		.ascii	"p_prev\000"
 3515      657600
 3516              	.LASF49:
 3517 05ab 73697A65 		.ascii	"sizetype\000"
 3517      74797065 
 3517      00
 3518              	.LASF17:
 3519 05b4 74726566 		.ascii	"trefs_t\000"
ARM GAS  /var/folders/qh/xwg3v3kj02qbxczjpdb8lzfr0000gn/T//cc4kpae7.s 			page 67


 3519      735F7400 
 3520              	.LASF54:
 3521 05bc 4576656E 		.ascii	"EventListener\000"
 3521      744C6973 
 3521      74656E65 
 3521      7200
 3522              	.LASF11:
 3523 05ca 6C6F6E67 		.ascii	"long unsigned int\000"
 3523      20756E73 
 3523      69676E65 
 3523      6420696E 
 3523      7400
 3524              	.LASF8:
 3525 05dc 696E7433 		.ascii	"int32_t\000"
 3525      325F7400 
 3526              	.LASF4:
 3527 05e4 756E7369 		.ascii	"unsigned char\000"
 3527      676E6564 
 3527      20636861 
 3527      7200
 3528              	.LASF34:
 3529 05f2 705F7265 		.ascii	"p_refs\000"
 3529      667300
 3530              	.LASF134:
 3531 05f9 5F706F72 		.ascii	"_port_irq_epilogue\000"
 3531      745F6972 
 3531      715F6570 
 3531      696C6F67 
 3531      756500
 3532              	.LASF35:
 3533 060c 705F7072 		.ascii	"p_preempt\000"
 3533      65656D70 
 3533      7400
 3534              	.LASF60:
 3535 0616 65735F6E 		.ascii	"es_next\000"
 3535      65787400 
 3536              	.LASF103:
 3537 061e 73746174 		.ascii	"state\000"
 3537      6500
 3538              	.LASF53:
 3539 0624 6D5F6E65 		.ascii	"m_next\000"
 3539      787400
 3540              	.LASF1:
 3541 062b 7369676E 		.ascii	"signed char\000"
 3541      65642063 
 3541      68617200 
 3542              	.LASF116:
 3543 0637 72656164 		.ascii	"readt\000"
 3543      7400
 3544              	.LASF7:
 3545 063d 73686F72 		.ascii	"short unsigned int\000"
 3545      7420756E 
 3545      7369676E 
 3545      65642069 
 3545      6E7400
 3546              	.LASF133:
 3547 0650 6462675F 		.ascii	"dbg_check_leave_isr\000"
ARM GAS  /var/folders/qh/xwg3v3kj02qbxczjpdb8lzfr0000gn/T//cc4kpae7.s 			page 68


 3547      63686563 
 3547      6B5F6C65 
 3547      6176655F 
 3547      69737200 
 3548              	.LASF132:
 3549 0664 6462675F 		.ascii	"dbg_check_enter_isr\000"
 3549      63686563 
 3549      6B5F656E 
 3549      7465725F 
 3549      69737200 
 3550              	.LASF126:
 3551 0678 5F736176 		.ascii	"_saved_lr\000"
 3551      65645F6C 
 3551      7200
 3552              	.LASF123:
 3553 0682 73645F6C 		.ascii	"sd_lld_init\000"
 3553      6C645F69 
 3553      6E697400 
 3554              	.LASF58:
 3555 068e 656C5F66 		.ascii	"el_flags\000"
 3555      6C616773 
 3555      00
 3556              	.LASF62:
 3557 0697 65786974 		.ascii	"exitcode\000"
 3557      636F6465 
 3557      00
 3558              	.LASF121:
 3559 06a0 73657276 		.ascii	"serve_interrupt\000"
 3559      655F696E 
 3559      74657272 
 3559      75707400 
 3560              		.ident	"GCC: (GNU Tools for ARM Embedded Processors) 4.8.3 20131129 (release) [ARM/embedded-4_8-br
ARM GAS  /var/folders/qh/xwg3v3kj02qbxczjpdb8lzfr0000gn/T//cc4kpae7.s 			page 69


DEFINED SYMBOLS
                            *ABS*:0000000000000000 serial_lld.c
/var/folders/qh/xwg3v3kj02qbxczjpdb8lzfr0000gn/T//cc4kpae7.s:18     .text.notify1:0000000000000000 $t
/var/folders/qh/xwg3v3kj02qbxczjpdb8lzfr0000gn/T//cc4kpae7.s:23     .text.notify1:0000000000000000 notify1
/var/folders/qh/xwg3v3kj02qbxczjpdb8lzfr0000gn/T//cc4kpae7.s:43     .text.notify1:000000000000000c $d
/var/folders/qh/xwg3v3kj02qbxczjpdb8lzfr0000gn/T//cc4kpae7.s:48     .text.VectorAC:0000000000000000 $t
/var/folders/qh/xwg3v3kj02qbxczjpdb8lzfr0000gn/T//cc4kpae7.s:54     .text.VectorAC:0000000000000000 VectorAC
/var/folders/qh/xwg3v3kj02qbxczjpdb8lzfr0000gn/T//cc4kpae7.s:320    .text.VectorAC:0000000000000108 $d
/var/folders/qh/xwg3v3kj02qbxczjpdb8lzfr0000gn/T//cc4kpae7.s:328    .text.sd_lld_init:0000000000000000 $t
/var/folders/qh/xwg3v3kj02qbxczjpdb8lzfr0000gn/T//cc4kpae7.s:334    .text.sd_lld_init:0000000000000000 sd_lld_init
/var/folders/qh/xwg3v3kj02qbxczjpdb8lzfr0000gn/T//cc4kpae7.s:363    .text.sd_lld_init:0000000000000018 $d
/var/folders/qh/xwg3v3kj02qbxczjpdb8lzfr0000gn/T//cc4kpae7.s:372    .text.sd_lld_start:0000000000000000 $t
/var/folders/qh/xwg3v3kj02qbxczjpdb8lzfr0000gn/T//cc4kpae7.s:378    .text.sd_lld_start:0000000000000000 sd_lld_start
/var/folders/qh/xwg3v3kj02qbxczjpdb8lzfr0000gn/T//cc4kpae7.s:480    .text.sd_lld_start:0000000000000060 $d
/var/folders/qh/xwg3v3kj02qbxczjpdb8lzfr0000gn/T//cc4kpae7.s:487    .text.sd_lld_stop:0000000000000000 $t
/var/folders/qh/xwg3v3kj02qbxczjpdb8lzfr0000gn/T//cc4kpae7.s:493    .text.sd_lld_stop:0000000000000000 sd_lld_stop
/var/folders/qh/xwg3v3kj02qbxczjpdb8lzfr0000gn/T//cc4kpae7.s:550    .text.sd_lld_stop:000000000000002c $d
/var/folders/qh/xwg3v3kj02qbxczjpdb8lzfr0000gn/T//cc4kpae7.s:572    .bss.SD1:0000000000000000 SD1
/var/folders/qh/xwg3v3kj02qbxczjpdb8lzfr0000gn/T//cc4kpae7.s:558    .rodata.default_config:0000000000000000 $d
/var/folders/qh/xwg3v3kj02qbxczjpdb8lzfr0000gn/T//cc4kpae7.s:562    .rodata.default_config:0000000000000000 default_config
/var/folders/qh/xwg3v3kj02qbxczjpdb8lzfr0000gn/T//cc4kpae7.s:568    .bss.SD1:0000000000000000 $d
                     .debug_frame:0000000000000010 $d
/var/folders/qh/xwg3v3kj02qbxczjpdb8lzfr0000gn/T//cc4kpae7.s:327    .text.VectorAC:000000000000010c $t
/var/folders/qh/xwg3v3kj02qbxczjpdb8lzfr0000gn/T//cc4kpae7.s:371    .text.sd_lld_init:0000000000000028 $t
/var/folders/qh/xwg3v3kj02qbxczjpdb8lzfr0000gn/T//cc4kpae7.s:486    .text.sd_lld_start:000000000000006c $t
/var/folders/qh/xwg3v3kj02qbxczjpdb8lzfr0000gn/T//cc4kpae7.s:557    .text.sd_lld_stop:0000000000000038 $t

UNDEFINED SYMBOLS
dbg_check_enter_isr
dbg_check_lock_from_isr
chEvtBroadcastFlagsI
dbg_check_unlock_from_isr
dbg_check_leave_isr
_port_irq_epilogue
sdIncomingDataI
chOQGetI
sdObjectInit
__aeabi_uidiv
nvicEnableVector
nvicDisableVector
