ARM GAS  /var/folders/qh/xwg3v3kj02qbxczjpdb8lzfr0000gn/T//ccu5ZTbw.s 			page 1


   1              		.cpu cortex-m0
   2              		.fpu softvfp
   3              		.eabi_attribute 20, 1
   4              		.eabi_attribute 21, 1
   5              		.eabi_attribute 23, 3
   6              		.eabi_attribute 24, 1
   7              		.eabi_attribute 25, 1
   8              		.eabi_attribute 26, 1
   9              		.eabi_attribute 30, 2
  10              		.eabi_attribute 34, 0
  11              		.eabi_attribute 18, 4
  12              		.code	16
  13              		.file	"serial.c"
  14              		.text
  15              	.Ltext0:
  16              		.cfi_sections	.debug_frame
  17              		.section	.text.readt,"ax",%progbits
  18              		.align	2
  19              		.p2align 4,,15
  20              		.code	16
  21              		.thumb_func
  22              		.type	readt, %function
  23              	readt:
  24              	.LFB47:
  25              		.file 1 "../../os/hal/src/serial.c"
  26              		.loc 1 92 0
  27              		.cfi_startproc
  28              	.LVL0:
  29 0000 08B5     		push	{r3, lr}
  30              		.cfi_def_cfa_offset 8
  31              		.cfi_offset 3, -8
  32              		.cfi_offset 14, -4
  33              		.loc 1 94 0
  34 0002 0C30     		add	r0, r0, #12
  35              	.LVL1:
  36 0004 FFF7FEFF 		bl	chIQReadTimeout
  37              	.LVL2:
  38              		.loc 1 95 0
  39              		@ sp needed
  40 0008 08BD     		pop	{r3, pc}
  41              		.cfi_endproc
  42              	.LFE47:
  43              		.size	readt, .-readt
  44 000a C046C046 		.section	.text.read,"ax",%progbits
  44      C046
  45              		.align	2
  46              		.p2align 4,,15
  47              		.code	16
  48              		.thumb_func
  49              		.type	read, %function
  50              	read:
  51              	.LFB41:
  52              		.loc 1 61 0
  53              		.cfi_startproc
  54              	.LVL3:
  55 0000 08B5     		push	{r3, lr}
  56              		.cfi_def_cfa_offset 8
ARM GAS  /var/folders/qh/xwg3v3kj02qbxczjpdb8lzfr0000gn/T//ccu5ZTbw.s 			page 2


  57              		.cfi_offset 3, -8
  58              		.cfi_offset 14, -4
  59              		.loc 1 63 0
  60 0002 0123     		mov	r3, #1
  61 0004 0C30     		add	r0, r0, #12
  62              	.LVL4:
  63 0006 5B42     		neg	r3, r3
  64 0008 FFF7FEFF 		bl	chIQReadTimeout
  65              	.LVL5:
  66              		.loc 1 65 0
  67              		@ sp needed
  68 000c 08BD     		pop	{r3, pc}
  69              		.cfi_endproc
  70              	.LFE41:
  71              		.size	read, .-read
  72 000e C046     		.section	.text.writet,"ax",%progbits
  73              		.align	2
  74              		.p2align 4,,15
  75              		.code	16
  76              		.thumb_func
  77              		.type	writet, %function
  78              	writet:
  79              	.LFB46:
  80              		.loc 1 87 0
  81              		.cfi_startproc
  82              	.LVL6:
  83 0000 08B5     		push	{r3, lr}
  84              		.cfi_def_cfa_offset 8
  85              		.cfi_offset 3, -8
  86              		.cfi_offset 14, -4
  87              		.loc 1 89 0
  88 0002 3030     		add	r0, r0, #48
  89              	.LVL7:
  90 0004 FFF7FEFF 		bl	chOQWriteTimeout
  91              	.LVL8:
  92              		.loc 1 90 0
  93              		@ sp needed
  94 0008 08BD     		pop	{r3, pc}
  95              		.cfi_endproc
  96              	.LFE46:
  97              		.size	writet, .-writet
  98 000a C046C046 		.section	.text.write,"ax",%progbits
  98      C046
  99              		.align	2
 100              		.p2align 4,,15
 101              		.code	16
 102              		.thumb_func
 103              		.type	write, %function
 104              	write:
 105              	.LFB40:
 106              		.loc 1 55 0
 107              		.cfi_startproc
 108              	.LVL9:
 109 0000 08B5     		push	{r3, lr}
 110              		.cfi_def_cfa_offset 8
 111              		.cfi_offset 3, -8
 112              		.cfi_offset 14, -4
ARM GAS  /var/folders/qh/xwg3v3kj02qbxczjpdb8lzfr0000gn/T//ccu5ZTbw.s 			page 3


 113              		.loc 1 57 0
 114 0002 0123     		mov	r3, #1
 115 0004 3030     		add	r0, r0, #48
 116              	.LVL10:
 117 0006 5B42     		neg	r3, r3
 118 0008 FFF7FEFF 		bl	chOQWriteTimeout
 119              	.LVL11:
 120              		.loc 1 59 0
 121              		@ sp needed
 122 000c 08BD     		pop	{r3, pc}
 123              		.cfi_endproc
 124              	.LFE40:
 125              		.size	write, .-write
 126 000e C046     		.section	.text.gett,"ax",%progbits
 127              		.align	2
 128              		.p2align 4,,15
 129              		.code	16
 130              		.thumb_func
 131              		.type	gett, %function
 132              	gett:
 133              	.LFB45:
 134              		.loc 1 82 0
 135              		.cfi_startproc
 136              	.LVL12:
 137 0000 08B5     		push	{r3, lr}
 138              		.cfi_def_cfa_offset 8
 139              		.cfi_offset 3, -8
 140              		.cfi_offset 14, -4
 141              		.loc 1 84 0
 142 0002 0C30     		add	r0, r0, #12
 143              	.LVL13:
 144 0004 FFF7FEFF 		bl	chIQGetTimeout
 145              	.LVL14:
 146              		.loc 1 85 0
 147              		@ sp needed
 148 0008 08BD     		pop	{r3, pc}
 149              		.cfi_endproc
 150              	.LFE45:
 151              		.size	gett, .-gett
 152 000a C046C046 		.section	.text.get,"ax",%progbits
 152      C046
 153              		.align	2
 154              		.p2align 4,,15
 155              		.code	16
 156              		.thumb_func
 157              		.type	get, %function
 158              	get:
 159              	.LFB43:
 160              		.loc 1 72 0
 161              		.cfi_startproc
 162              	.LVL15:
 163 0000 08B5     		push	{r3, lr}
 164              		.cfi_def_cfa_offset 8
 165              		.cfi_offset 3, -8
 166              		.cfi_offset 14, -4
 167              		.loc 1 74 0
 168 0002 0121     		mov	r1, #1
ARM GAS  /var/folders/qh/xwg3v3kj02qbxczjpdb8lzfr0000gn/T//ccu5ZTbw.s 			page 4


 169 0004 0C30     		add	r0, r0, #12
 170              	.LVL16:
 171 0006 4942     		neg	r1, r1
 172 0008 FFF7FEFF 		bl	chIQGetTimeout
 173              	.LVL17:
 174              		.loc 1 75 0
 175              		@ sp needed
 176 000c 08BD     		pop	{r3, pc}
 177              		.cfi_endproc
 178              	.LFE43:
 179              		.size	get, .-get
 180 000e C046     		.section	.text.putt,"ax",%progbits
 181              		.align	2
 182              		.p2align 4,,15
 183              		.code	16
 184              		.thumb_func
 185              		.type	putt, %function
 186              	putt:
 187              	.LFB44:
 188              		.loc 1 77 0
 189              		.cfi_startproc
 190              	.LVL18:
 191 0000 08B5     		push	{r3, lr}
 192              		.cfi_def_cfa_offset 8
 193              		.cfi_offset 3, -8
 194              		.cfi_offset 14, -4
 195              		.loc 1 79 0
 196 0002 3030     		add	r0, r0, #48
 197              	.LVL19:
 198 0004 FFF7FEFF 		bl	chOQPutTimeout
 199              	.LVL20:
 200              		.loc 1 80 0
 201              		@ sp needed
 202 0008 08BD     		pop	{r3, pc}
 203              		.cfi_endproc
 204              	.LFE44:
 205              		.size	putt, .-putt
 206 000a C046C046 		.section	.text.put,"ax",%progbits
 206      C046
 207              		.align	2
 208              		.p2align 4,,15
 209              		.code	16
 210              		.thumb_func
 211              		.type	put, %function
 212              	put:
 213              	.LFB42:
 214              		.loc 1 67 0
 215              		.cfi_startproc
 216              	.LVL21:
 217 0000 08B5     		push	{r3, lr}
 218              		.cfi_def_cfa_offset 8
 219              		.cfi_offset 3, -8
 220              		.cfi_offset 14, -4
 221              		.loc 1 69 0
 222 0002 0122     		mov	r2, #1
 223 0004 3030     		add	r0, r0, #48
 224              	.LVL22:
ARM GAS  /var/folders/qh/xwg3v3kj02qbxczjpdb8lzfr0000gn/T//ccu5ZTbw.s 			page 5


 225 0006 5242     		neg	r2, r2
 226 0008 FFF7FEFF 		bl	chOQPutTimeout
 227              	.LVL23:
 228              		.loc 1 70 0
 229              		@ sp needed
 230 000c 08BD     		pop	{r3, pc}
 231              		.cfi_endproc
 232              	.LFE42:
 233              		.size	put, .-put
 234 000e C046     		.section	.text.sdInit,"ax",%progbits
 235              		.align	2
 236              		.p2align 4,,15
 237              		.global	sdInit
 238              		.code	16
 239              		.thumb_func
 240              		.type	sdInit, %function
 241              	sdInit:
 242              	.LFB48:
 243              		.loc 1 113 0
 244              		.cfi_startproc
 245 0000 08B5     		push	{r3, lr}
 246              		.cfi_def_cfa_offset 8
 247              		.cfi_offset 3, -8
 248              		.cfi_offset 14, -4
 249              		.loc 1 115 0
 250 0002 FFF7FEFF 		bl	sd_lld_init
 251              	.LVL24:
 252              		.loc 1 116 0
 253              		@ sp needed
 254 0006 08BD     		pop	{r3, pc}
 255              		.cfi_endproc
 256              	.LFE48:
 257              		.size	sdInit, .-sdInit
 258 0008 C046C046 		.section	.text.sdObjectInit,"ax",%progbits
 258      C046C046 
 259              		.align	2
 260              		.p2align 4,,15
 261              		.global	sdObjectInit
 262              		.code	16
 263              		.thumb_func
 264              		.type	sdObjectInit, %function
 265              	sdObjectInit:
 266              	.LFB49:
 267              		.loc 1 133 0
 268              		.cfi_startproc
 269              	.LVL25:
 270 0000 30B5     		push	{r4, r5, lr}
 271              		.cfi_def_cfa_offset 12
 272              		.cfi_offset 4, -12
 273              		.cfi_offset 5, -8
 274              		.cfi_offset 14, -4
 275 0002 151C     		mov	r5, r2
 276              		.loc 1 135 0
 277 0004 0D4A     		ldr	r2, .L11
 278              	.LVL26:
 279              		.loc 1 133 0
 280 0006 041C     		mov	r4, r0
ARM GAS  /var/folders/qh/xwg3v3kj02qbxczjpdb8lzfr0000gn/T//ccu5ZTbw.s 			page 6


 281              		.loc 1 135 0
 282 0008 04C0     		stmia	r0!, {r2}
 283              	.LVL27:
 284              		.loc 1 133 0
 285 000a 83B0     		sub	sp, sp, #12
 286              		.cfi_def_cfa_offset 24
 287              		.loc 1 133 0
 288 000c 0B1C     		mov	r3, r1
 289              		.loc 1 136 0
 290 000e 6060     		str	r0, [r4, #4]
 291              		.loc 1 137 0
 292 0010 0122     		mov	r2, #1
 293              		.loc 1 138 0
 294 0012 201C     		mov	r0, r4
 295 0014 211C     		mov	r1, r4
 296              	.LVL28:
 297              		.loc 1 137 0
 298 0016 2272     		strb	r2, [r4, #8]
 299              		.loc 1 138 0
 300 0018 0C30     		add	r0, r0, #12
 301 001a 5431     		add	r1, r1, #84
 302 001c 0094     		str	r4, [sp]
 303 001e 1022     		mov	r2, #16
 304 0020 FFF7FEFF 		bl	chIQInit
 305              	.LVL29:
 306              		.loc 1 139 0
 307 0024 201C     		mov	r0, r4
 308 0026 211C     		mov	r1, r4
 309 0028 3030     		add	r0, r0, #48
 310 002a 6431     		add	r1, r1, #100
 311 002c 0094     		str	r4, [sp]
 312 002e 1022     		mov	r2, #16
 313 0030 2B1C     		mov	r3, r5
 314 0032 FFF7FEFF 		bl	chOQInit
 315              	.LVL30:
 316              		.loc 1 140 0
 317 0036 03B0     		add	sp, sp, #12
 318              		@ sp needed
 319              	.LVL31:
 320              	.LVL32:
 321 0038 30BD     		pop	{r4, r5, pc}
 322              	.L12:
 323 003a C046     		.align	2
 324              	.L11:
 325 003c 00000000 		.word	.LANCHOR0
 326              		.cfi_endproc
 327              	.LFE49:
 328              		.size	sdObjectInit, .-sdObjectInit
 329              		.section	.text.sdStart,"ax",%progbits
 330              		.align	2
 331              		.p2align 4,,15
 332              		.global	sdStart
 333              		.code	16
 334              		.thumb_func
 335              		.type	sdStart, %function
 336              	sdStart:
 337              	.LFB50:
ARM GAS  /var/folders/qh/xwg3v3kj02qbxczjpdb8lzfr0000gn/T//ccu5ZTbw.s 			page 7


 338              		.loc 1 152 0
 339              		.cfi_startproc
 340              	.LVL33:
 341 0000 38B5     		push	{r3, r4, r5, lr}
 342              		.cfi_def_cfa_offset 16
 343              		.cfi_offset 3, -16
 344              		.cfi_offset 4, -12
 345              		.cfi_offset 5, -8
 346              		.cfi_offset 14, -4
 347              		.loc 1 152 0
 348 0002 041C     		mov	r4, r0
 349 0004 0D1C     		mov	r5, r1
 350              		.loc 1 156 0
 351              	@ 156 "../../os/hal/src/serial.c" 1
 352 0006 72B6     		cpsid   i
 353              	@ 0 "" 2
 354              		.code	16
 355 0008 FFF7FEFF 		bl	dbg_check_lock
 356              	.LVL34:
 357              		.loc 1 160 0
 358 000c 201C     		mov	r0, r4
 359 000e 291C     		mov	r1, r5
 360 0010 FFF7FEFF 		bl	sd_lld_start
 361              	.LVL35:
 362              		.loc 1 161 0
 363 0014 0223     		mov	r3, #2
 364 0016 2372     		strb	r3, [r4, #8]
 365              		.loc 1 162 0
 366 0018 FFF7FEFF 		bl	dbg_check_unlock
 367              	.LVL36:
 368              	@ 162 "../../os/hal/src/serial.c" 1
 369 001c 62B6     		cpsie   i
 370              	@ 0 "" 2
 371              		.loc 1 163 0
 372              		.code	16
 373              		@ sp needed
 374              	.LVL37:
 375              	.LVL38:
 376 001e 38BD     		pop	{r3, r4, r5, pc}
 377              		.cfi_endproc
 378              	.LFE50:
 379              		.size	sdStart, .-sdStart
 380              		.section	.text.sdStop,"ax",%progbits
 381              		.align	2
 382              		.p2align 4,,15
 383              		.global	sdStop
 384              		.code	16
 385              		.thumb_func
 386              		.type	sdStop, %function
 387              	sdStop:
 388              	.LFB51:
 389              		.loc 1 174 0
 390              		.cfi_startproc
 391              	.LVL39:
 392 0000 10B5     		push	{r4, lr}
 393              		.cfi_def_cfa_offset 8
 394              		.cfi_offset 4, -8
ARM GAS  /var/folders/qh/xwg3v3kj02qbxczjpdb8lzfr0000gn/T//ccu5ZTbw.s 			page 8


 395              		.cfi_offset 14, -4
 396              		.loc 1 174 0
 397 0002 041C     		mov	r4, r0
 398              		.loc 1 178 0
 399              	@ 178 "../../os/hal/src/serial.c" 1
 400 0004 72B6     		cpsid   i
 401              	@ 0 "" 2
 402              		.code	16
 403 0006 FFF7FEFF 		bl	dbg_check_lock
 404              	.LVL40:
 405              		.loc 1 182 0
 406 000a 201C     		mov	r0, r4
 407 000c FFF7FEFF 		bl	sd_lld_stop
 408              	.LVL41:
 409              		.loc 1 183 0
 410 0010 0123     		mov	r3, #1
 411              		.loc 1 184 0
 412 0012 201C     		mov	r0, r4
 413              		.loc 1 183 0
 414 0014 2372     		strb	r3, [r4, #8]
 415              		.loc 1 184 0
 416 0016 3030     		add	r0, r0, #48
 417 0018 FFF7FEFF 		bl	chOQResetI
 418              	.LVL42:
 419              		.loc 1 185 0
 420 001c 201C     		mov	r0, r4
 421 001e 0C30     		add	r0, r0, #12
 422 0020 FFF7FEFF 		bl	chIQResetI
 423              	.LVL43:
 424              		.loc 1 186 0
 425 0024 FFF7FEFF 		bl	chSchRescheduleS
 426              	.LVL44:
 427              		.loc 1 187 0
 428 0028 FFF7FEFF 		bl	dbg_check_unlock
 429              	.LVL45:
 430              	@ 187 "../../os/hal/src/serial.c" 1
 431 002c 62B6     		cpsie   i
 432              	@ 0 "" 2
 433              		.loc 1 188 0
 434              		.code	16
 435              		@ sp needed
 436              	.LVL46:
 437 002e 10BD     		pop	{r4, pc}
 438              		.cfi_endproc
 439              	.LFE51:
 440              		.size	sdStop, .-sdStop
 441              		.section	.text.sdIncomingDataI,"ax",%progbits
 442              		.align	2
 443              		.p2align 4,,15
 444              		.global	sdIncomingDataI
 445              		.code	16
 446              		.thumb_func
 447              		.type	sdIncomingDataI, %function
 448              	sdIncomingDataI:
 449              	.LFB52:
 450              		.loc 1 206 0
 451              		.cfi_startproc
ARM GAS  /var/folders/qh/xwg3v3kj02qbxczjpdb8lzfr0000gn/T//ccu5ZTbw.s 			page 9


 452              	.LVL47:
 453 0000 38B5     		push	{r3, r4, r5, lr}
 454              		.cfi_def_cfa_offset 16
 455              		.cfi_offset 3, -16
 456              		.cfi_offset 4, -12
 457              		.cfi_offset 5, -8
 458              		.cfi_offset 14, -4
 459              		.loc 1 206 0
 460 0002 041C     		mov	r4, r0
 461 0004 0D1C     		mov	r5, r1
 462              		.loc 1 208 0
 463 0006 FFF7FEFF 		bl	chDbgCheckClassI
 464              	.LVL48:
 465              		.loc 1 211 0
 466 000a 6369     		ldr	r3, [r4, #20]
 467 000c 002B     		cmp	r3, #0
 468 000e 07D0     		beq	.L19
 469              		.loc 1 213 0
 470 0010 201C     		mov	r0, r4
 471 0012 0C30     		add	r0, r0, #12
 472 0014 291C     		mov	r1, r5
 473 0016 FFF7FEFF 		bl	chIQPutI
 474              	.LVL49:
 475 001a 0028     		cmp	r0, #0
 476 001c 0BDB     		blt	.L20
 477              	.L15:
 478              		.loc 1 215 0
 479              		@ sp needed
 480              	.LVL50:
 481 001e 38BD     		pop	{r3, r4, r5, pc}
 482              	.LVL51:
 483              	.L19:
 484              		.loc 1 212 0
 485 0020 201D     		add	r0, r4, #4
 486 0022 0421     		mov	r1, #4
 487 0024 FFF7FEFF 		bl	chEvtBroadcastFlagsI
 488              	.LVL52:
 489              		.loc 1 213 0
 490 0028 201C     		mov	r0, r4
 491 002a 0C30     		add	r0, r0, #12
 492 002c 291C     		mov	r1, r5
 493 002e FFF7FEFF 		bl	chIQPutI
 494              	.LVL53:
 495 0032 0028     		cmp	r0, #0
 496 0034 F3DA     		bge	.L15
 497              	.L20:
 498              		.loc 1 214 0
 499 0036 201D     		add	r0, r4, #4
 500 0038 8021     		mov	r1, #128
 501 003a FFF7FEFF 		bl	chEvtBroadcastFlagsI
 502              	.LVL54:
 503 003e EEE7     		b	.L15
 504              		.cfi_endproc
 505              	.LFE52:
 506              		.size	sdIncomingDataI, .-sdIncomingDataI
 507              		.section	.text.sdRequestDataI,"ax",%progbits
 508              		.align	2
ARM GAS  /var/folders/qh/xwg3v3kj02qbxczjpdb8lzfr0000gn/T//ccu5ZTbw.s 			page 10


 509              		.p2align 4,,15
 510              		.global	sdRequestDataI
 511              		.code	16
 512              		.thumb_func
 513              		.type	sdRequestDataI, %function
 514              	sdRequestDataI:
 515              	.LFB53:
 516              		.loc 1 232 0
 517              		.cfi_startproc
 518              	.LVL55:
 519 0000 38B5     		push	{r3, r4, r5, lr}
 520              		.cfi_def_cfa_offset 16
 521              		.cfi_offset 3, -16
 522              		.cfi_offset 4, -12
 523              		.cfi_offset 5, -8
 524              		.cfi_offset 14, -4
 525              		.loc 1 232 0
 526 0002 051C     		mov	r5, r0
 527              		.loc 1 235 0
 528 0004 FFF7FEFF 		bl	chDbgCheckClassI
 529              	.LVL56:
 530              		.loc 1 238 0
 531 0008 281C     		mov	r0, r5
 532 000a 3030     		add	r0, r0, #48
 533 000c FFF7FEFF 		bl	chOQGetI
 534              	.LVL57:
 535 0010 041E     		sub	r4, r0, #0
 536              	.LVL58:
 537              		.loc 1 239 0
 538 0012 01DB     		blt	.L23
 539              	.LVL59:
 540              	.L22:
 541              		.loc 1 242 0
 542 0014 201C     		mov	r0, r4
 543              		@ sp needed
 544              	.LVL60:
 545              	.LVL61:
 546 0016 38BD     		pop	{r3, r4, r5, pc}
 547              	.LVL62:
 548              	.L23:
 549              		.loc 1 240 0
 550 0018 281D     		add	r0, r5, #4
 551              	.LVL63:
 552 001a 0821     		mov	r1, #8
 553 001c FFF7FEFF 		bl	chEvtBroadcastFlagsI
 554              	.LVL64:
 555 0020 F8E7     		b	.L22
 556              		.cfi_endproc
 557              	.LFE53:
 558              		.size	sdRequestDataI, .-sdRequestDataI
 559 0022 C046C046 		.section	.rodata.vmt,"a",%progbits
 559      C046C046 
 559      C046C046 
 559      C046
 560              		.align	2
 561              		.set	.LANCHOR0,. + 0
 562              		.type	vmt, %object
ARM GAS  /var/folders/qh/xwg3v3kj02qbxczjpdb8lzfr0000gn/T//ccu5ZTbw.s 			page 11


 563              		.size	vmt, 32
 564              	vmt:
 565 0000 00000000 		.word	write
 566 0004 00000000 		.word	read
 567 0008 00000000 		.word	put
 568 000c 00000000 		.word	get
 569 0010 00000000 		.word	putt
 570 0014 00000000 		.word	gett
 571 0018 00000000 		.word	writet
 572 001c 00000000 		.word	readt
 573              		.text
 574              	.Letext0:
 575              		.file 2 "/usr/local/Cellar/gcc-arm-none-eabi-48/20131218/lib/gcc/arm-none-eabi/4.8.3/include/stdde
 576              		.file 3 "/usr/local/Cellar/gcc-arm-none-eabi-48/20131218/arm-none-eabi/include/stdint.h"
 577              		.file 4 "../../os/ports/GCC/ARMCMx/chtypes.h"
 578              		.file 5 "../../os/kernel/include/chlists.h"
 579              		.file 6 "../../os/kernel/include/chthreads.h"
 580              		.file 7 "../../os/ports/GCC/ARMCMx/chcore_v6m.h"
 581              		.file 8 "../../os/kernel/include/chmtx.h"
 582              		.file 9 "../../os/kernel/include/chevents.h"
 583              		.file 10 "../../os/kernel/include/chqueues.h"
 584              		.file 11 "../../os/hal/platforms/STM32F0xx/stm32f0xx.h"
 585              		.file 12 "../../os/hal/include/serial.h"
 586              		.file 13 "../../os/hal/platforms/STM32/USARTv2/serial_lld.h"
 587              		.file 14 "../../os/kernel/include/chdebug.h"
 588              		.file 15 "../../os/kernel/include/chschd.h"
 589              		.section	.debug_info,"",%progbits
 590              	.Ldebug_info0:
 591 0000 8C0F0000 		.4byte	0xf8c
 592 0004 0400     		.2byte	0x4
 593 0006 00000000 		.4byte	.Ldebug_abbrev0
 594 000a 04       		.byte	0x4
 595 000b 01       		.uleb128 0x1
 596 000c CC000000 		.4byte	.LASF135
 597 0010 01       		.byte	0x1
 598 0011 4E020000 		.4byte	.LASF136
 599 0015 9D020000 		.4byte	.LASF137
 600 0019 00000000 		.4byte	.Ldebug_ranges0+0
 601 001d 00000000 		.4byte	0
 602 0021 00000000 		.4byte	.Ldebug_line0
 603 0025 02       		.uleb128 0x2
 604 0026 04       		.byte	0x4
 605 0027 05       		.byte	0x5
 606 0028 696E7400 		.ascii	"int\000"
 607 002c 03       		.uleb128 0x3
 608 002d D8020000 		.4byte	.LASF2
 609 0031 02       		.byte	0x2
 610 0032 D4       		.byte	0xd4
 611 0033 37000000 		.4byte	0x37
 612 0037 04       		.uleb128 0x4
 613 0038 04       		.byte	0x4
 614 0039 07       		.byte	0x7
 615 003a 7E000000 		.4byte	.LASF0
 616 003e 04       		.uleb128 0x4
 617 003f 01       		.byte	0x1
 618 0040 06       		.byte	0x6
 619 0041 06060000 		.4byte	.LASF1
ARM GAS  /var/folders/qh/xwg3v3kj02qbxczjpdb8lzfr0000gn/T//ccu5ZTbw.s 			page 12


 620 0045 03       		.uleb128 0x3
 621 0046 B5030000 		.4byte	.LASF3
 622 004a 03       		.byte	0x3
 623 004b 2A       		.byte	0x2a
 624 004c 50000000 		.4byte	0x50
 625 0050 04       		.uleb128 0x4
 626 0051 01       		.byte	0x1
 627 0052 08       		.byte	0x8
 628 0053 BB050000 		.4byte	.LASF4
 629 0057 04       		.uleb128 0x4
 630 0058 02       		.byte	0x2
 631 0059 05       		.byte	0x5
 632 005a FE040000 		.4byte	.LASF5
 633 005e 03       		.uleb128 0x3
 634 005f 84040000 		.4byte	.LASF6
 635 0063 03       		.byte	0x3
 636 0064 36       		.byte	0x36
 637 0065 69000000 		.4byte	0x69
 638 0069 04       		.uleb128 0x4
 639 006a 02       		.byte	0x2
 640 006b 07       		.byte	0x7
 641 006c 18060000 		.4byte	.LASF7
 642 0070 03       		.uleb128 0x3
 643 0071 AA050000 		.4byte	.LASF8
 644 0075 03       		.byte	0x3
 645 0076 4F       		.byte	0x4f
 646 0077 7B000000 		.4byte	0x7b
 647 007b 04       		.uleb128 0x4
 648 007c 04       		.byte	0x4
 649 007d 05       		.byte	0x5
 650 007e 1B050000 		.4byte	.LASF9
 651 0082 03       		.uleb128 0x3
 652 0083 E3010000 		.4byte	.LASF10
 653 0087 03       		.byte	0x3
 654 0088 50       		.byte	0x50
 655 0089 8D000000 		.4byte	0x8d
 656 008d 04       		.uleb128 0x4
 657 008e 04       		.byte	0x4
 658 008f 07       		.byte	0x7
 659 0090 98050000 		.4byte	.LASF11
 660 0094 04       		.uleb128 0x4
 661 0095 08       		.byte	0x8
 662 0096 05       		.byte	0x5
 663 0097 E6030000 		.4byte	.LASF12
 664 009b 04       		.uleb128 0x4
 665 009c 08       		.byte	0x8
 666 009d 07       		.byte	0x7
 667 009e 37020000 		.4byte	.LASF13
 668 00a2 03       		.uleb128 0x3
 669 00a3 EE020000 		.4byte	.LASF14
 670 00a7 04       		.byte	0x4
 671 00a8 24       		.byte	0x24
 672 00a9 AD000000 		.4byte	0xad
 673 00ad 04       		.uleb128 0x4
 674 00ae 01       		.byte	0x1
 675 00af 02       		.byte	0x2
 676 00b0 F5020000 		.4byte	.LASF15
ARM GAS  /var/folders/qh/xwg3v3kj02qbxczjpdb8lzfr0000gn/T//ccu5ZTbw.s 			page 13


 677 00b4 03       		.uleb128 0x3
 678 00b5 68040000 		.4byte	.LASF16
 679 00b9 04       		.byte	0x4
 680 00ba 25       		.byte	0x25
 681 00bb 45000000 		.4byte	0x45
 682 00bf 03       		.uleb128 0x3
 683 00c0 76030000 		.4byte	.LASF17
 684 00c4 04       		.byte	0x4
 685 00c5 26       		.byte	0x26
 686 00c6 45000000 		.4byte	0x45
 687 00ca 03       		.uleb128 0x3
 688 00cb 82050000 		.4byte	.LASF18
 689 00cf 04       		.byte	0x4
 690 00d0 27       		.byte	0x27
 691 00d1 45000000 		.4byte	0x45
 692 00d5 03       		.uleb128 0x3
 693 00d6 3B040000 		.4byte	.LASF19
 694 00da 04       		.byte	0x4
 695 00db 28       		.byte	0x28
 696 00dc 45000000 		.4byte	0x45
 697 00e0 03       		.uleb128 0x3
 698 00e1 2F020000 		.4byte	.LASF20
 699 00e5 04       		.byte	0x4
 700 00e6 29       		.byte	0x29
 701 00e7 82000000 		.4byte	0x82
 702 00eb 03       		.uleb128 0x3
 703 00ec 03040000 		.4byte	.LASF21
 704 00f0 04       		.byte	0x4
 705 00f1 2A       		.byte	0x2a
 706 00f2 70000000 		.4byte	0x70
 707 00f6 03       		.uleb128 0x3
 708 00f7 06020000 		.4byte	.LASF22
 709 00fb 04       		.byte	0x4
 710 00fc 2C       		.byte	0x2c
 711 00fd 82000000 		.4byte	0x82
 712 0101 03       		.uleb128 0x3
 713 0102 BD030000 		.4byte	.LASF23
 714 0106 04       		.byte	0x4
 715 0107 2D       		.byte	0x2d
 716 0108 82000000 		.4byte	0x82
 717 010c 03       		.uleb128 0x3
 718 010d 61000000 		.4byte	.LASF24
 719 0111 04       		.byte	0x4
 720 0112 2E       		.byte	0x2e
 721 0113 82000000 		.4byte	0x82
 722 0117 03       		.uleb128 0x3
 723 0118 6F030000 		.4byte	.LASF25
 724 011c 05       		.byte	0x5
 725 011d 23       		.byte	0x23
 726 011e 22010000 		.4byte	0x122
 727 0122 05       		.uleb128 0x5
 728 0123 6F030000 		.4byte	.LASF25
 729 0127 48       		.byte	0x48
 730 0128 06       		.byte	0x6
 731 0129 57       		.byte	0x57
 732 012a 1F020000 		.4byte	0x21f
 733 012e 06       		.uleb128 0x6
ARM GAS  /var/folders/qh/xwg3v3kj02qbxczjpdb8lzfr0000gn/T//ccu5ZTbw.s 			page 14


 734 012f 2C050000 		.4byte	.LASF26
 735 0133 06       		.byte	0x6
 736 0134 58       		.byte	0x58
 737 0135 40020000 		.4byte	0x240
 738 0139 00       		.byte	0
 739 013a 06       		.uleb128 0x6
 740 013b 72050000 		.4byte	.LASF27
 741 013f 06       		.byte	0x6
 742 0140 5A       		.byte	0x5a
 743 0141 40020000 		.4byte	0x240
 744 0145 04       		.byte	0x4
 745 0146 06       		.uleb128 0x6
 746 0147 5A000000 		.4byte	.LASF28
 747 014b 06       		.byte	0x6
 748 014c 5C       		.byte	0x5c
 749 014d E0000000 		.4byte	0xe0
 750 0151 08       		.byte	0x8
 751 0152 06       		.uleb128 0x6
 752 0153 33050000 		.4byte	.LASF29
 753 0157 06       		.byte	0x6
 754 0158 5D       		.byte	0x5d
 755 0159 F0020000 		.4byte	0x2f0
 756 015d 0C       		.byte	0xc
 757 015e 06       		.uleb128 0x6
 758 015f 86020000 		.4byte	.LASF30
 759 0163 06       		.byte	0x6
 760 0164 5F       		.byte	0x5f
 761 0165 40020000 		.4byte	0x240
 762 0169 10       		.byte	0x10
 763 016a 06       		.uleb128 0x6
 764 016b 94030000 		.4byte	.LASF31
 765 016f 06       		.byte	0x6
 766 0170 60       		.byte	0x60
 767 0171 40020000 		.4byte	0x240
 768 0175 14       		.byte	0x14
 769 0176 06       		.uleb128 0x6
 770 0177 43030000 		.4byte	.LASF32
 771 017b 06       		.byte	0x6
 772 017c 67       		.byte	0x67
 773 017d 09040000 		.4byte	0x409
 774 0181 18       		.byte	0x18
 775 0182 06       		.uleb128 0x6
 776 0183 AD030000 		.4byte	.LASF33
 777 0187 06       		.byte	0x6
 778 0188 72       		.byte	0x72
 779 0189 BF000000 		.4byte	0xbf
 780 018d 1C       		.byte	0x1c
 781 018e 06       		.uleb128 0x6
 782 018f 2C040000 		.4byte	.LASF34
 783 0193 06       		.byte	0x6
 784 0194 76       		.byte	0x76
 785 0195 B4000000 		.4byte	0xb4
 786 0199 1D       		.byte	0x1d
 787 019a 06       		.uleb128 0x6
 788 019b C9050000 		.4byte	.LASF35
 789 019f 06       		.byte	0x6
 790 01a0 7B       		.byte	0x7b
ARM GAS  /var/folders/qh/xwg3v3kj02qbxczjpdb8lzfr0000gn/T//ccu5ZTbw.s 			page 15


 791 01a1 CA000000 		.4byte	0xca
 792 01a5 1E       		.byte	0x1e
 793 01a6 06       		.uleb128 0x6
 794 01a7 E7050000 		.4byte	.LASF36
 795 01ab 06       		.byte	0x6
 796 01ac 81       		.byte	0x81
 797 01ad D5000000 		.4byte	0xd5
 798 01b1 1F       		.byte	0x1f
 799 01b2 06       		.uleb128 0x6
 800 01b3 3B000000 		.4byte	.LASF37
 801 01b7 06       		.byte	0x6
 802 01b8 88       		.byte	0x88
 803 01b9 1B030000 		.4byte	0x31b
 804 01bd 20       		.byte	0x20
 805 01be 07       		.uleb128 0x7
 806 01bf 705F7500 		.ascii	"p_u\000"
 807 01c3 06       		.byte	0x6
 808 01c4 AD       		.byte	0xad
 809 01c5 D4030000 		.4byte	0x3d4
 810 01c9 24       		.byte	0x24
 811 01ca 06       		.uleb128 0x6
 812 01cb 1D000000 		.4byte	.LASF38
 813 01cf 06       		.byte	0x6
 814 01d0 B2       		.byte	0xb2
 815 01d1 66020000 		.4byte	0x266
 816 01d5 28       		.byte	0x28
 817 01d6 06       		.uleb128 0x6
 818 01d7 73000000 		.4byte	.LASF39
 819 01db 06       		.byte	0x6
 820 01dc B8       		.byte	0xb8
 821 01dd 46020000 		.4byte	0x246
 822 01e1 2C       		.byte	0x2c
 823 01e2 06       		.uleb128 0x6
 824 01e3 62040000 		.4byte	.LASF40
 825 01e7 06       		.byte	0x6
 826 01e8 BC       		.byte	0xbc
 827 01e9 EB000000 		.4byte	0xeb
 828 01ed 34       		.byte	0x34
 829 01ee 06       		.uleb128 0x6
 830 01ef 08050000 		.4byte	.LASF41
 831 01f3 06       		.byte	0x6
 832 01f4 C2       		.byte	0xc2
 833 01f5 F6000000 		.4byte	0xf6
 834 01f9 38       		.byte	0x38
 835 01fa 06       		.uleb128 0x6
 836 01fb D6030000 		.4byte	.LASF42
 837 01ff 06       		.byte	0x6
 838 0200 C9       		.byte	0xc9
 839 0201 1B040000 		.4byte	0x41b
 840 0205 3C       		.byte	0x3c
 841 0206 06       		.uleb128 0x6
 842 0207 C1040000 		.4byte	.LASF43
 843 020b 06       		.byte	0x6
 844 020c CD       		.byte	0xcd
 845 020d E0000000 		.4byte	0xe0
 846 0211 40       		.byte	0x40
 847 0212 06       		.uleb128 0x6
ARM GAS  /var/folders/qh/xwg3v3kj02qbxczjpdb8lzfr0000gn/T//ccu5ZTbw.s 			page 16


 848 0213 CE030000 		.4byte	.LASF44
 849 0217 06       		.byte	0x6
 850 0218 D3       		.byte	0xd3
 851 0219 7C020000 		.4byte	0x27c
 852 021d 44       		.byte	0x44
 853 021e 00       		.byte	0
 854 021f 08       		.uleb128 0x8
 855 0220 08       		.byte	0x8
 856 0221 05       		.byte	0x5
 857 0222 5A       		.byte	0x5a
 858 0223 40020000 		.4byte	0x240
 859 0227 06       		.uleb128 0x6
 860 0228 2C050000 		.4byte	.LASF26
 861 022c 05       		.byte	0x5
 862 022d 5B       		.byte	0x5b
 863 022e 40020000 		.4byte	0x240
 864 0232 00       		.byte	0
 865 0233 06       		.uleb128 0x6
 866 0234 72050000 		.4byte	.LASF27
 867 0238 05       		.byte	0x5
 868 0239 5D       		.byte	0x5d
 869 023a 40020000 		.4byte	0x240
 870 023e 04       		.byte	0x4
 871 023f 00       		.byte	0
 872 0240 09       		.uleb128 0x9
 873 0241 04       		.byte	0x4
 874 0242 17010000 		.4byte	0x117
 875 0246 03       		.uleb128 0x3
 876 0247 55030000 		.4byte	.LASF45
 877 024b 05       		.byte	0x5
 878 024c 5F       		.byte	0x5f
 879 024d 1F020000 		.4byte	0x21f
 880 0251 08       		.uleb128 0x8
 881 0252 04       		.byte	0x4
 882 0253 05       		.byte	0x5
 883 0254 64       		.byte	0x64
 884 0255 66020000 		.4byte	0x266
 885 0259 06       		.uleb128 0x6
 886 025a 2C050000 		.4byte	.LASF26
 887 025e 05       		.byte	0x5
 888 025f 66       		.byte	0x66
 889 0260 40020000 		.4byte	0x240
 890 0264 00       		.byte	0
 891 0265 00       		.byte	0
 892 0266 03       		.uleb128 0x3
 893 0267 11000000 		.4byte	.LASF46
 894 026b 05       		.byte	0x5
 895 026c 69       		.byte	0x69
 896 026d 51020000 		.4byte	0x251
 897 0271 03       		.uleb128 0x3
 898 0272 51000000 		.4byte	.LASF47
 899 0276 07       		.byte	0x7
 900 0277 A0       		.byte	0xa0
 901 0278 7C020000 		.4byte	0x27c
 902 027c 0A       		.uleb128 0xa
 903 027d 04       		.byte	0x4
 904 027e 05       		.uleb128 0x5
ARM GAS  /var/folders/qh/xwg3v3kj02qbxczjpdb8lzfr0000gn/T//ccu5ZTbw.s 			page 17


 905 027f 8D040000 		.4byte	.LASF48
 906 0283 24       		.byte	0x24
 907 0284 07       		.byte	0x7
 908 0285 B3       		.byte	0xb3
 909 0286 F0020000 		.4byte	0x2f0
 910 028a 07       		.uleb128 0x7
 911 028b 723800   		.ascii	"r8\000"
 912 028e 07       		.byte	0x7
 913 028f B4       		.byte	0xb4
 914 0290 71020000 		.4byte	0x271
 915 0294 00       		.byte	0
 916 0295 07       		.uleb128 0x7
 917 0296 723900   		.ascii	"r9\000"
 918 0299 07       		.byte	0x7
 919 029a B5       		.byte	0xb5
 920 029b 71020000 		.4byte	0x271
 921 029f 04       		.byte	0x4
 922 02a0 07       		.uleb128 0x7
 923 02a1 72313000 		.ascii	"r10\000"
 924 02a5 07       		.byte	0x7
 925 02a6 B6       		.byte	0xb6
 926 02a7 71020000 		.4byte	0x271
 927 02ab 08       		.byte	0x8
 928 02ac 07       		.uleb128 0x7
 929 02ad 72313100 		.ascii	"r11\000"
 930 02b1 07       		.byte	0x7
 931 02b2 B7       		.byte	0xb7
 932 02b3 71020000 		.4byte	0x271
 933 02b7 0C       		.byte	0xc
 934 02b8 07       		.uleb128 0x7
 935 02b9 723400   		.ascii	"r4\000"
 936 02bc 07       		.byte	0x7
 937 02bd B8       		.byte	0xb8
 938 02be 71020000 		.4byte	0x271
 939 02c2 10       		.byte	0x10
 940 02c3 07       		.uleb128 0x7
 941 02c4 723500   		.ascii	"r5\000"
 942 02c7 07       		.byte	0x7
 943 02c8 B9       		.byte	0xb9
 944 02c9 71020000 		.4byte	0x271
 945 02cd 14       		.byte	0x14
 946 02ce 07       		.uleb128 0x7
 947 02cf 723600   		.ascii	"r6\000"
 948 02d2 07       		.byte	0x7
 949 02d3 BA       		.byte	0xba
 950 02d4 71020000 		.4byte	0x271
 951 02d8 18       		.byte	0x18
 952 02d9 07       		.uleb128 0x7
 953 02da 723700   		.ascii	"r7\000"
 954 02dd 07       		.byte	0x7
 955 02de BB       		.byte	0xbb
 956 02df 71020000 		.4byte	0x271
 957 02e3 1C       		.byte	0x1c
 958 02e4 07       		.uleb128 0x7
 959 02e5 6C7200   		.ascii	"lr\000"
 960 02e8 07       		.byte	0x7
 961 02e9 BC       		.byte	0xbc
ARM GAS  /var/folders/qh/xwg3v3kj02qbxczjpdb8lzfr0000gn/T//ccu5ZTbw.s 			page 18


 962 02ea 71020000 		.4byte	0x271
 963 02ee 20       		.byte	0x20
 964 02ef 00       		.byte	0
 965 02f0 05       		.uleb128 0x5
 966 02f1 15040000 		.4byte	.LASF49
 967 02f5 04       		.byte	0x4
 968 02f6 07       		.byte	0x7
 969 02f7 C6       		.byte	0xc6
 970 02f8 09030000 		.4byte	0x309
 971 02fc 07       		.uleb128 0x7
 972 02fd 72313300 		.ascii	"r13\000"
 973 0301 07       		.byte	0x7
 974 0302 C7       		.byte	0xc7
 975 0303 09030000 		.4byte	0x309
 976 0307 00       		.byte	0
 977 0308 00       		.byte	0
 978 0309 09       		.uleb128 0x9
 979 030a 04       		.byte	0x4
 980 030b 7E020000 		.4byte	0x27e
 981 030f 0B       		.uleb128 0xb
 982 0310 82000000 		.4byte	0x82
 983 0314 04       		.uleb128 0x4
 984 0315 04       		.byte	0x4
 985 0316 07       		.byte	0x7
 986 0317 79050000 		.4byte	.LASF50
 987 031b 0B       		.uleb128 0xb
 988 031c 0C010000 		.4byte	0x10c
 989 0320 05       		.uleb128 0x5
 990 0321 22030000 		.4byte	.LASF51
 991 0325 10       		.byte	0x10
 992 0326 08       		.byte	0x8
 993 0327 25       		.byte	0x25
 994 0328 51030000 		.4byte	0x351
 995 032c 06       		.uleb128 0x6
 996 032d 13050000 		.4byte	.LASF52
 997 0331 08       		.byte	0x8
 998 0332 26       		.byte	0x26
 999 0333 46020000 		.4byte	0x246
 1000 0337 00       		.byte	0
 1001 0338 06       		.uleb128 0x6
 1002 0339 6B000000 		.4byte	.LASF53
 1003 033d 08       		.byte	0x8
 1004 033e 28       		.byte	0x28
 1005 033f 40020000 		.4byte	0x240
 1006 0343 08       		.byte	0x8
 1007 0344 06       		.uleb128 0x6
 1008 0345 FF050000 		.4byte	.LASF54
 1009 0349 08       		.byte	0x8
 1010 034a 2A       		.byte	0x2a
 1011 034b 51030000 		.4byte	0x351
 1012 034f 0C       		.byte	0xc
 1013 0350 00       		.byte	0
 1014 0351 09       		.uleb128 0x9
 1015 0352 04       		.byte	0x4
 1016 0353 20030000 		.4byte	0x320
 1017 0357 03       		.uleb128 0x3
 1018 0358 22030000 		.4byte	.LASF51
ARM GAS  /var/folders/qh/xwg3v3kj02qbxczjpdb8lzfr0000gn/T//ccu5ZTbw.s 			page 19


 1019 035c 08       		.byte	0x8
 1020 035d 2C       		.byte	0x2c
 1021 035e 20030000 		.4byte	0x320
 1022 0362 03       		.uleb128 0x3
 1023 0363 8A050000 		.4byte	.LASF55
 1024 0367 09       		.byte	0x9
 1025 0368 25       		.byte	0x25
 1026 0369 6D030000 		.4byte	0x36d
 1027 036d 05       		.uleb128 0x5
 1028 036e 8A050000 		.4byte	.LASF55
 1029 0372 10       		.byte	0x10
 1030 0373 09       		.byte	0x9
 1031 0374 2A       		.byte	0x2a
 1032 0375 AA030000 		.4byte	0x3aa
 1033 0379 06       		.uleb128 0x6
 1034 037a 5A040000 		.4byte	.LASF56
 1035 037e 09       		.byte	0x9
 1036 037f 2B       		.byte	0x2b
 1037 0380 AA030000 		.4byte	0x3aa
 1038 0384 00       		.byte	0
 1039 0385 06       		.uleb128 0x6
 1040 0386 3E050000 		.4byte	.LASF57
 1041 038a 09       		.byte	0x9
 1042 038b 2E       		.byte	0x2e
 1043 038c 40020000 		.4byte	0x240
 1044 0390 04       		.byte	0x4
 1045 0391 06       		.uleb128 0x6
 1046 0392 B6000000 		.4byte	.LASF58
 1047 0396 09       		.byte	0x9
 1048 0397 30       		.byte	0x30
 1049 0398 F6000000 		.4byte	0xf6
 1050 039c 08       		.byte	0x8
 1051 039d 06       		.uleb128 0x6
 1052 039e 42060000 		.4byte	.LASF59
 1053 03a2 09       		.byte	0x9
 1054 03a3 33       		.byte	0x33
 1055 03a4 01010000 		.4byte	0x101
 1056 03a8 0C       		.byte	0xc
 1057 03a9 00       		.byte	0
 1058 03aa 09       		.uleb128 0x9
 1059 03ab 04       		.byte	0x4
 1060 03ac 62030000 		.4byte	0x362
 1061 03b0 05       		.uleb128 0x5
 1062 03b1 4E040000 		.4byte	.LASF60
 1063 03b5 04       		.byte	0x4
 1064 03b6 09       		.byte	0x9
 1065 03b7 3A       		.byte	0x3a
 1066 03b8 C9030000 		.4byte	0x3c9
 1067 03bc 06       		.uleb128 0x6
 1068 03bd F1050000 		.4byte	.LASF61
 1069 03c1 09       		.byte	0x9
 1070 03c2 3B       		.byte	0x3b
 1071 03c3 AA030000 		.4byte	0x3aa
 1072 03c7 00       		.byte	0
 1073 03c8 00       		.byte	0
 1074 03c9 03       		.uleb128 0x3
 1075 03ca 4E040000 		.4byte	.LASF60
ARM GAS  /var/folders/qh/xwg3v3kj02qbxczjpdb8lzfr0000gn/T//ccu5ZTbw.s 			page 20


 1076 03ce 09       		.byte	0x9
 1077 03cf 3E       		.byte	0x3e
 1078 03d0 B0030000 		.4byte	0x3b0
 1079 03d4 0C       		.uleb128 0xc
 1080 03d5 04       		.byte	0x4
 1081 03d6 06       		.byte	0x6
 1082 03d7 8F       		.byte	0x8f
 1083 03d8 09040000 		.4byte	0x409
 1084 03dc 0D       		.uleb128 0xd
 1085 03dd DF020000 		.4byte	.LASF62
 1086 03e1 06       		.byte	0x6
 1087 03e2 96       		.byte	0x96
 1088 03e3 EB000000 		.4byte	0xeb
 1089 03e7 0D       		.uleb128 0xd
 1090 03e8 4B060000 		.4byte	.LASF63
 1091 03ec 06       		.byte	0x6
 1092 03ed 9D       		.byte	0x9d
 1093 03ee EB000000 		.4byte	0xeb
 1094 03f2 0D       		.uleb128 0xd
 1095 03f3 BE000000 		.4byte	.LASF64
 1096 03f7 06       		.byte	0x6
 1097 03f8 A4       		.byte	0xa4
 1098 03f9 7C020000 		.4byte	0x27c
 1099 03fd 0D       		.uleb128 0xd
 1100 03fe B3010000 		.4byte	.LASF65
 1101 0402 06       		.byte	0x6
 1102 0403 AB       		.byte	0xab
 1103 0404 F6000000 		.4byte	0xf6
 1104 0408 00       		.byte	0
 1105 0409 09       		.uleb128 0x9
 1106 040a 04       		.byte	0x4
 1107 040b 0F040000 		.4byte	0x40f
 1108 040f 0E       		.uleb128 0xe
 1109 0410 14040000 		.4byte	0x414
 1110 0414 04       		.uleb128 0x4
 1111 0415 01       		.byte	0x1
 1112 0416 08       		.byte	0x8
 1113 0417 62030000 		.4byte	.LASF66
 1114 041b 09       		.uleb128 0x9
 1115 041c 04       		.byte	0x4
 1116 041d 57030000 		.4byte	0x357
 1117 0421 09       		.uleb128 0x9
 1118 0422 04       		.byte	0x4
 1119 0423 27040000 		.4byte	0x427
 1120 0427 0F       		.uleb128 0xf
 1121 0428 EB000000 		.4byte	0xeb
 1122 042c 36040000 		.4byte	0x436
 1123 0430 10       		.uleb128 0x10
 1124 0431 7C020000 		.4byte	0x27c
 1125 0435 00       		.byte	0
 1126 0436 03       		.uleb128 0x3
 1127 0437 70040000 		.4byte	.LASF67
 1128 043b 0A       		.byte	0xa
 1129 043c 30       		.byte	0x30
 1130 043d 41040000 		.4byte	0x441
 1131 0441 05       		.uleb128 0x5
 1132 0442 70040000 		.4byte	.LASF67
ARM GAS  /var/folders/qh/xwg3v3kj02qbxczjpdb8lzfr0000gn/T//ccu5ZTbw.s 			page 21


 1133 0446 24       		.byte	0x24
 1134 0447 0A       		.byte	0xa
 1135 0448 3E       		.byte	0x3e
 1136 0449 AE040000 		.4byte	0x4ae
 1137 044d 06       		.uleb128 0x6
 1138 044e 8E020000 		.4byte	.LASF68
 1139 0452 0A       		.byte	0xa
 1140 0453 3F       		.byte	0x3f
 1141 0454 46020000 		.4byte	0x246
 1142 0458 00       		.byte	0
 1143 0459 06       		.uleb128 0x6
 1144 045a 5D050000 		.4byte	.LASF69
 1145 045e 0A       		.byte	0xa
 1146 045f 40       		.byte	0x40
 1147 0460 2C000000 		.4byte	0x2c
 1148 0464 08       		.byte	0x8
 1149 0465 06       		.uleb128 0x6
 1150 0466 FA030000 		.4byte	.LASF70
 1151 046a 0A       		.byte	0xa
 1152 046b 41       		.byte	0x41
 1153 046c D0040000 		.4byte	0x4d0
 1154 0470 0C       		.byte	0xc
 1155 0471 06       		.uleb128 0x6
 1156 0472 6C050000 		.4byte	.LASF71
 1157 0476 0A       		.byte	0xa
 1158 0477 42       		.byte	0x42
 1159 0478 D0040000 		.4byte	0x4d0
 1160 047c 10       		.byte	0x10
 1161 047d 06       		.uleb128 0x6
 1162 047e 67030000 		.4byte	.LASF72
 1163 0482 0A       		.byte	0xa
 1164 0483 44       		.byte	0x44
 1165 0484 D0040000 		.4byte	0x4d0
 1166 0488 14       		.byte	0x14
 1167 0489 06       		.uleb128 0x6
 1168 048a A4000000 		.4byte	.LASF73
 1169 048e 0A       		.byte	0xa
 1170 048f 45       		.byte	0x45
 1171 0490 D0040000 		.4byte	0x4d0
 1172 0494 18       		.byte	0x18
 1173 0495 06       		.uleb128 0x6
 1174 0496 34030000 		.4byte	.LASF74
 1175 049a 0A       		.byte	0xa
 1176 049b 46       		.byte	0x46
 1177 049c AE040000 		.4byte	0x4ae
 1178 04a0 1C       		.byte	0x1c
 1179 04a1 06       		.uleb128 0x6
 1180 04a2 C5000000 		.4byte	.LASF75
 1181 04a6 0A       		.byte	0xa
 1182 04a7 47       		.byte	0x47
 1183 04a8 7C020000 		.4byte	0x27c
 1184 04ac 20       		.byte	0x20
 1185 04ad 00       		.byte	0
 1186 04ae 03       		.uleb128 0x3
 1187 04af AC000000 		.4byte	.LASF76
 1188 04b3 0A       		.byte	0xa
 1189 04b4 33       		.byte	0x33
ARM GAS  /var/folders/qh/xwg3v3kj02qbxczjpdb8lzfr0000gn/T//ccu5ZTbw.s 			page 22


 1190 04b5 B9040000 		.4byte	0x4b9
 1191 04b9 09       		.uleb128 0x9
 1192 04ba 04       		.byte	0x4
 1193 04bb BF040000 		.4byte	0x4bf
 1194 04bf 11       		.uleb128 0x11
 1195 04c0 CA040000 		.4byte	0x4ca
 1196 04c4 10       		.uleb128 0x10
 1197 04c5 CA040000 		.4byte	0x4ca
 1198 04c9 00       		.byte	0
 1199 04ca 09       		.uleb128 0x9
 1200 04cb 04       		.byte	0x4
 1201 04cc 36040000 		.4byte	0x436
 1202 04d0 09       		.uleb128 0x9
 1203 04d1 04       		.byte	0x4
 1204 04d2 45000000 		.4byte	0x45
 1205 04d6 03       		.uleb128 0x3
 1206 04d7 4A030000 		.4byte	.LASF77
 1207 04db 0A       		.byte	0xa
 1208 04dc 7B       		.byte	0x7b
 1209 04dd 36040000 		.4byte	0x436
 1210 04e1 03       		.uleb128 0x3
 1211 04e2 28030000 		.4byte	.LASF78
 1212 04e6 0A       		.byte	0xa
 1213 04e7 EE       		.byte	0xee
 1214 04e8 36040000 		.4byte	0x436
 1215 04ec 0F       		.uleb128 0xf
 1216 04ed 2C000000 		.4byte	0x2c
 1217 04f1 05050000 		.4byte	0x505
 1218 04f5 10       		.uleb128 0x10
 1219 04f6 7C020000 		.4byte	0x27c
 1220 04fa 10       		.uleb128 0x10
 1221 04fb 05050000 		.4byte	0x505
 1222 04ff 10       		.uleb128 0x10
 1223 0500 2C000000 		.4byte	0x2c
 1224 0504 00       		.byte	0
 1225 0505 09       		.uleb128 0x9
 1226 0506 04       		.byte	0x4
 1227 0507 0B050000 		.4byte	0x50b
 1228 050b 0E       		.uleb128 0xe
 1229 050c 45000000 		.4byte	0x45
 1230 0510 09       		.uleb128 0x9
 1231 0511 04       		.byte	0x4
 1232 0512 EC040000 		.4byte	0x4ec
 1233 0516 0F       		.uleb128 0xf
 1234 0517 2C000000 		.4byte	0x2c
 1235 051b 2F050000 		.4byte	0x52f
 1236 051f 10       		.uleb128 0x10
 1237 0520 7C020000 		.4byte	0x27c
 1238 0524 10       		.uleb128 0x10
 1239 0525 D0040000 		.4byte	0x4d0
 1240 0529 10       		.uleb128 0x10
 1241 052a 2C000000 		.4byte	0x2c
 1242 052e 00       		.byte	0
 1243 052f 09       		.uleb128 0x9
 1244 0530 04       		.byte	0x4
 1245 0531 16050000 		.4byte	0x516
 1246 0535 0F       		.uleb128 0xf
ARM GAS  /var/folders/qh/xwg3v3kj02qbxczjpdb8lzfr0000gn/T//ccu5ZTbw.s 			page 23


 1247 0536 EB000000 		.4byte	0xeb
 1248 053a 49050000 		.4byte	0x549
 1249 053e 10       		.uleb128 0x10
 1250 053f 7C020000 		.4byte	0x27c
 1251 0543 10       		.uleb128 0x10
 1252 0544 45000000 		.4byte	0x45
 1253 0548 00       		.byte	0
 1254 0549 09       		.uleb128 0x9
 1255 054a 04       		.byte	0x4
 1256 054b 35050000 		.4byte	0x535
 1257 054f 0B       		.uleb128 0xb
 1258 0550 5E000000 		.4byte	0x5e
 1259 0554 12       		.uleb128 0x12
 1260 0555 2C       		.byte	0x2c
 1261 0556 0B       		.byte	0xb
 1262 0557 AA02     		.2byte	0x2aa
 1263 0559 2E060000 		.4byte	0x62e
 1264 055d 13       		.uleb128 0x13
 1265 055e 43523100 		.ascii	"CR1\000"
 1266 0562 0B       		.byte	0xb
 1267 0563 AC02     		.2byte	0x2ac
 1268 0565 0F030000 		.4byte	0x30f
 1269 0569 00       		.byte	0
 1270 056a 13       		.uleb128 0x13
 1271 056b 43523200 		.ascii	"CR2\000"
 1272 056f 0B       		.byte	0xb
 1273 0570 AD02     		.2byte	0x2ad
 1274 0572 0F030000 		.4byte	0x30f
 1275 0576 04       		.byte	0x4
 1276 0577 13       		.uleb128 0x13
 1277 0578 43523300 		.ascii	"CR3\000"
 1278 057c 0B       		.byte	0xb
 1279 057d AE02     		.2byte	0x2ae
 1280 057f 0F030000 		.4byte	0x30f
 1281 0583 08       		.byte	0x8
 1282 0584 13       		.uleb128 0x13
 1283 0585 42525200 		.ascii	"BRR\000"
 1284 0589 0B       		.byte	0xb
 1285 058a AF02     		.2byte	0x2af
 1286 058c 4F050000 		.4byte	0x54f
 1287 0590 0C       		.byte	0xc
 1288 0591 14       		.uleb128 0x14
 1289 0592 CC040000 		.4byte	.LASF79
 1290 0596 0B       		.byte	0xb
 1291 0597 B002     		.2byte	0x2b0
 1292 0599 5E000000 		.4byte	0x5e
 1293 059d 0E       		.byte	0xe
 1294 059e 14       		.uleb128 0x14
 1295 059f D7010000 		.4byte	.LASF80
 1296 05a3 0B       		.byte	0xb
 1297 05a4 B102     		.2byte	0x2b1
 1298 05a6 4F050000 		.4byte	0x54f
 1299 05aa 10       		.byte	0x10
 1300 05ab 14       		.uleb128 0x14
 1301 05ac D6040000 		.4byte	.LASF81
 1302 05b0 0B       		.byte	0xb
 1303 05b1 B202     		.2byte	0x2b2
ARM GAS  /var/folders/qh/xwg3v3kj02qbxczjpdb8lzfr0000gn/T//ccu5ZTbw.s 			page 24


 1304 05b3 5E000000 		.4byte	0x5e
 1305 05b7 12       		.byte	0x12
 1306 05b8 14       		.uleb128 0x14
 1307 05b9 C9030000 		.4byte	.LASF82
 1308 05bd 0B       		.byte	0xb
 1309 05be B302     		.2byte	0x2b3
 1310 05c0 0F030000 		.4byte	0x30f
 1311 05c4 14       		.byte	0x14
 1312 05c5 13       		.uleb128 0x13
 1313 05c6 52515200 		.ascii	"RQR\000"
 1314 05ca 0B       		.byte	0xb
 1315 05cb B402     		.2byte	0x2b4
 1316 05cd 4F050000 		.4byte	0x54f
 1317 05d1 18       		.byte	0x18
 1318 05d2 14       		.uleb128 0x14
 1319 05d3 E0040000 		.4byte	.LASF83
 1320 05d7 0B       		.byte	0xb
 1321 05d8 B502     		.2byte	0x2b5
 1322 05da 5E000000 		.4byte	0x5e
 1323 05de 1A       		.byte	0x1a
 1324 05df 13       		.uleb128 0x13
 1325 05e0 49535200 		.ascii	"ISR\000"
 1326 05e4 0B       		.byte	0xb
 1327 05e5 B602     		.2byte	0x2b6
 1328 05e7 0F030000 		.4byte	0x30f
 1329 05eb 1C       		.byte	0x1c
 1330 05ec 13       		.uleb128 0x13
 1331 05ed 49435200 		.ascii	"ICR\000"
 1332 05f1 0B       		.byte	0xb
 1333 05f2 B702     		.2byte	0x2b7
 1334 05f4 0F030000 		.4byte	0x30f
 1335 05f8 20       		.byte	0x20
 1336 05f9 13       		.uleb128 0x13
 1337 05fa 52445200 		.ascii	"RDR\000"
 1338 05fe 0B       		.byte	0xb
 1339 05ff B802     		.2byte	0x2b8
 1340 0601 4F050000 		.4byte	0x54f
 1341 0605 24       		.byte	0x24
 1342 0606 14       		.uleb128 0x14
 1343 0607 EA040000 		.4byte	.LASF84
 1344 060b 0B       		.byte	0xb
 1345 060c B902     		.2byte	0x2b9
 1346 060e 5E000000 		.4byte	0x5e
 1347 0612 26       		.byte	0x26
 1348 0613 13       		.uleb128 0x13
 1349 0614 54445200 		.ascii	"TDR\000"
 1350 0618 0B       		.byte	0xb
 1351 0619 BA02     		.2byte	0x2ba
 1352 061b 4F050000 		.4byte	0x54f
 1353 061f 28       		.byte	0x28
 1354 0620 14       		.uleb128 0x14
 1355 0621 F4040000 		.4byte	.LASF85
 1356 0625 0B       		.byte	0xb
 1357 0626 BB02     		.2byte	0x2bb
 1358 0628 5E000000 		.4byte	0x5e
 1359 062c 2A       		.byte	0x2a
 1360 062d 00       		.byte	0
ARM GAS  /var/folders/qh/xwg3v3kj02qbxczjpdb8lzfr0000gn/T//ccu5ZTbw.s 			page 25


 1361 062e 15       		.uleb128 0x15
 1362 062f 03030000 		.4byte	.LASF86
 1363 0633 0B       		.byte	0xb
 1364 0634 BC02     		.2byte	0x2bc
 1365 0636 54050000 		.4byte	0x554
 1366 063a 0F       		.uleb128 0xf
 1367 063b EB000000 		.4byte	0xeb
 1368 063f 53060000 		.4byte	0x653
 1369 0643 10       		.uleb128 0x10
 1370 0644 7C020000 		.4byte	0x27c
 1371 0648 10       		.uleb128 0x10
 1372 0649 45000000 		.4byte	0x45
 1373 064d 10       		.uleb128 0x10
 1374 064e 0C010000 		.4byte	0x10c
 1375 0652 00       		.byte	0
 1376 0653 09       		.uleb128 0x9
 1377 0654 04       		.byte	0x4
 1378 0655 3A060000 		.4byte	0x63a
 1379 0659 0F       		.uleb128 0xf
 1380 065a EB000000 		.4byte	0xeb
 1381 065e 6D060000 		.4byte	0x66d
 1382 0662 10       		.uleb128 0x10
 1383 0663 7C020000 		.4byte	0x27c
 1384 0667 10       		.uleb128 0x10
 1385 0668 0C010000 		.4byte	0x10c
 1386 066c 00       		.byte	0
 1387 066d 09       		.uleb128 0x9
 1388 066e 04       		.byte	0x4
 1389 066f 59060000 		.4byte	0x659
 1390 0673 0F       		.uleb128 0xf
 1391 0674 2C000000 		.4byte	0x2c
 1392 0678 91060000 		.4byte	0x691
 1393 067c 10       		.uleb128 0x10
 1394 067d 7C020000 		.4byte	0x27c
 1395 0681 10       		.uleb128 0x10
 1396 0682 05050000 		.4byte	0x505
 1397 0686 10       		.uleb128 0x10
 1398 0687 2C000000 		.4byte	0x2c
 1399 068b 10       		.uleb128 0x10
 1400 068c 0C010000 		.4byte	0x10c
 1401 0690 00       		.byte	0
 1402 0691 09       		.uleb128 0x9
 1403 0692 04       		.byte	0x4
 1404 0693 73060000 		.4byte	0x673
 1405 0697 0F       		.uleb128 0xf
 1406 0698 2C000000 		.4byte	0x2c
 1407 069c B5060000 		.4byte	0x6b5
 1408 06a0 10       		.uleb128 0x10
 1409 06a1 7C020000 		.4byte	0x27c
 1410 06a5 10       		.uleb128 0x10
 1411 06a6 D0040000 		.4byte	0x4d0
 1412 06aa 10       		.uleb128 0x10
 1413 06ab 2C000000 		.4byte	0x2c
 1414 06af 10       		.uleb128 0x10
 1415 06b0 0C010000 		.4byte	0x10c
 1416 06b4 00       		.byte	0
 1417 06b5 09       		.uleb128 0x9
ARM GAS  /var/folders/qh/xwg3v3kj02qbxczjpdb8lzfr0000gn/T//ccu5ZTbw.s 			page 26


 1418 06b6 04       		.byte	0x4
 1419 06b7 97060000 		.4byte	0x697
 1420 06bb 16       		.uleb128 0x16
 1421 06bc 01       		.byte	0x1
 1422 06bd 0C       		.byte	0xc
 1423 06be 5D       		.byte	0x5d
 1424 06bf D6060000 		.4byte	0x6d6
 1425 06c3 17       		.uleb128 0x17
 1426 06c4 4A050000 		.4byte	.LASF87
 1427 06c8 00       		.sleb128 0
 1428 06c9 17       		.uleb128 0x17
 1429 06ca FB020000 		.4byte	.LASF88
 1430 06ce 01       		.sleb128 1
 1431 06cf 17       		.uleb128 0x17
 1432 06d0 A1040000 		.4byte	.LASF89
 1433 06d4 02       		.sleb128 2
 1434 06d5 00       		.byte	0
 1435 06d6 03       		.uleb128 0x3
 1436 06d7 1F020000 		.4byte	.LASF90
 1437 06db 0C       		.byte	0xc
 1438 06dc 61       		.byte	0x61
 1439 06dd BB060000 		.4byte	0x6bb
 1440 06e1 03       		.uleb128 0x3
 1441 06e2 27000000 		.4byte	.LASF91
 1442 06e6 0C       		.byte	0xc
 1443 06e7 66       		.byte	0x66
 1444 06e8 EC060000 		.4byte	0x6ec
 1445 06ec 05       		.uleb128 0x5
 1446 06ed 27000000 		.4byte	.LASF91
 1447 06f1 7C       		.byte	0x7c
 1448 06f2 0C       		.byte	0xc
 1449 06f3 80       		.byte	0x80
 1450 06f4 63070000 		.4byte	0x763
 1451 06f8 07       		.uleb128 0x7
 1452 06f9 766D7400 		.ascii	"vmt\000"
 1453 06fd 0C       		.byte	0xc
 1454 06fe 82       		.byte	0x82
 1455 06ff 14080000 		.4byte	0x814
 1456 0703 00       		.byte	0
 1457 0704 06       		.uleb128 0x6
 1458 0705 29020000 		.4byte	.LASF92
 1459 0709 0C       		.byte	0xc
 1460 070a 83       		.byte	0x83
 1461 070b C9030000 		.4byte	0x3c9
 1462 070f 04       		.byte	0x4
 1463 0710 06       		.uleb128 0x6
 1464 0711 F9050000 		.4byte	.LASF93
 1465 0715 0C       		.byte	0xc
 1466 0716 83       		.byte	0x83
 1467 0717 D6060000 		.4byte	0x6d6
 1468 071b 08       		.byte	0x8
 1469 071c 06       		.uleb128 0x6
 1470 071d DC010000 		.4byte	.LASF94
 1471 0721 0C       		.byte	0xc
 1472 0722 83       		.byte	0x83
 1473 0723 D6040000 		.4byte	0x4d6
 1474 0727 0C       		.byte	0xc
ARM GAS  /var/folders/qh/xwg3v3kj02qbxczjpdb8lzfr0000gn/T//ccu5ZTbw.s 			page 27


 1475 0728 06       		.uleb128 0x6
 1476 0729 7D040000 		.4byte	.LASF95
 1477 072d 0C       		.byte	0xc
 1478 072e 83       		.byte	0x83
 1479 072f E1040000 		.4byte	0x4e1
 1480 0733 30       		.byte	0x30
 1481 0734 07       		.uleb128 0x7
 1482 0735 696200   		.ascii	"ib\000"
 1483 0738 0C       		.byte	0xc
 1484 0739 83       		.byte	0x83
 1485 073a 1F080000 		.4byte	0x81f
 1486 073e 54       		.byte	0x54
 1487 073f 07       		.uleb128 0x7
 1488 0740 6F6200   		.ascii	"ob\000"
 1489 0743 0C       		.byte	0xc
 1490 0744 83       		.byte	0x83
 1491 0745 1F080000 		.4byte	0x81f
 1492 0749 64       		.byte	0x64
 1493 074a 06       		.uleb128 0x6
 1494 074b E0030000 		.4byte	.LASF96
 1495 074f 0C       		.byte	0xc
 1496 0750 83       		.byte	0x83
 1497 0751 2F080000 		.4byte	0x82f
 1498 0755 74       		.byte	0x74
 1499 0756 06       		.uleb128 0x6
 1500 0757 3D030000 		.4byte	.LASF97
 1501 075b 0C       		.byte	0xc
 1502 075c 83       		.byte	0x83
 1503 075d 82000000 		.4byte	0x82
 1504 0761 78       		.byte	0x78
 1505 0762 00       		.byte	0
 1506 0763 08       		.uleb128 0x8
 1507 0764 10       		.byte	0x10
 1508 0765 0D       		.byte	0xd
 1509 0766 D7       		.byte	0xd7
 1510 0767 9C070000 		.4byte	0x79c
 1511 076b 06       		.uleb128 0x6
 1512 076c CA010000 		.4byte	.LASF98
 1513 0770 0D       		.byte	0xd
 1514 0771 DB       		.byte	0xdb
 1515 0772 82000000 		.4byte	0x82
 1516 0776 00       		.byte	0
 1517 0777 07       		.uleb128 0x7
 1518 0778 63723100 		.ascii	"cr1\000"
 1519 077c 0D       		.byte	0xd
 1520 077d E0       		.byte	0xe0
 1521 077e 82000000 		.4byte	0x82
 1522 0782 04       		.byte	0x4
 1523 0783 07       		.uleb128 0x7
 1524 0784 63723200 		.ascii	"cr2\000"
 1525 0788 0D       		.byte	0xd
 1526 0789 E4       		.byte	0xe4
 1527 078a 82000000 		.4byte	0x82
 1528 078e 08       		.byte	0x8
 1529 078f 07       		.uleb128 0x7
 1530 0790 63723300 		.ascii	"cr3\000"
 1531 0794 0D       		.byte	0xd
ARM GAS  /var/folders/qh/xwg3v3kj02qbxczjpdb8lzfr0000gn/T//ccu5ZTbw.s 			page 28


 1532 0795 E8       		.byte	0xe8
 1533 0796 82000000 		.4byte	0x82
 1534 079a 0C       		.byte	0xc
 1535 079b 00       		.byte	0
 1536 079c 03       		.uleb128 0x3
 1537 079d 12020000 		.4byte	.LASF99
 1538 07a1 0D       		.byte	0xd
 1539 07a2 E9       		.byte	0xe9
 1540 07a3 63070000 		.4byte	0x763
 1541 07a7 05       		.uleb128 0x5
 1542 07a8 AA040000 		.4byte	.LASF100
 1543 07ac 20       		.byte	0x20
 1544 07ad 0C       		.byte	0xc
 1545 07ae 75       		.byte	0x75
 1546 07af 14080000 		.4byte	0x814
 1547 07b3 06       		.uleb128 0x6
 1548 07b4 F4030000 		.4byte	.LASF101
 1549 07b8 0C       		.byte	0xc
 1550 07b9 76       		.byte	0x76
 1551 07ba 10050000 		.4byte	0x510
 1552 07be 00       		.byte	0
 1553 07bf 06       		.uleb128 0x6
 1554 07c0 39050000 		.4byte	.LASF102
 1555 07c4 0C       		.byte	0xc
 1556 07c5 76       		.byte	0x76
 1557 07c6 2F050000 		.4byte	0x52f
 1558 07ca 04       		.byte	0x4
 1559 07cb 07       		.uleb128 0x7
 1560 07cc 70757400 		.ascii	"put\000"
 1561 07d0 0C       		.byte	0xc
 1562 07d1 76       		.byte	0x76
 1563 07d2 49050000 		.4byte	0x549
 1564 07d6 08       		.byte	0x8
 1565 07d7 07       		.uleb128 0x7
 1566 07d8 67657400 		.ascii	"get\000"
 1567 07dc 0C       		.byte	0xc
 1568 07dd 76       		.byte	0x76
 1569 07de 21040000 		.4byte	0x421
 1570 07e2 0C       		.byte	0xc
 1571 07e3 06       		.uleb128 0x6
 1572 07e4 98020000 		.4byte	.LASF103
 1573 07e8 0C       		.byte	0xc
 1574 07e9 76       		.byte	0x76
 1575 07ea 53060000 		.4byte	0x653
 1576 07ee 10       		.byte	0x10
 1577 07ef 06       		.uleb128 0x6
 1578 07f0 67050000 		.4byte	.LASF104
 1579 07f4 0C       		.byte	0xc
 1580 07f5 76       		.byte	0x76
 1581 07f6 6D060000 		.4byte	0x66d
 1582 07fa 14       		.byte	0x14
 1583 07fb 06       		.uleb128 0x6
 1584 07fc D0010000 		.4byte	.LASF105
 1585 0800 0C       		.byte	0xc
 1586 0801 76       		.byte	0x76
 1587 0802 91060000 		.4byte	0x691
 1588 0806 18       		.byte	0x18
ARM GAS  /var/folders/qh/xwg3v3kj02qbxczjpdb8lzfr0000gn/T//ccu5ZTbw.s 			page 29


 1589 0807 06       		.uleb128 0x6
 1590 0808 12060000 		.4byte	.LASF106
 1591 080c 0C       		.byte	0xc
 1592 080d 76       		.byte	0x76
 1593 080e B5060000 		.4byte	0x6b5
 1594 0812 1C       		.byte	0x1c
 1595 0813 00       		.byte	0
 1596 0814 09       		.uleb128 0x9
 1597 0815 04       		.byte	0x4
 1598 0816 1A080000 		.4byte	0x81a
 1599 081a 0E       		.uleb128 0xe
 1600 081b A7070000 		.4byte	0x7a7
 1601 081f 18       		.uleb128 0x18
 1602 0820 45000000 		.4byte	0x45
 1603 0824 2F080000 		.4byte	0x82f
 1604 0828 19       		.uleb128 0x19
 1605 0829 14030000 		.4byte	0x314
 1606 082d 0F       		.byte	0xf
 1607 082e 00       		.byte	0
 1608 082f 09       		.uleb128 0x9
 1609 0830 04       		.byte	0x4
 1610 0831 2E060000 		.4byte	0x62e
 1611 0835 1A       		.uleb128 0x1a
 1612 0836 12060000 		.4byte	.LASF106
 1613 083a 01       		.byte	0x1
 1614 083b 5C       		.byte	0x5c
 1615 083c 2C000000 		.4byte	0x2c
 1616 0840 00000000 		.4byte	.LFB47
 1617 0844 0A000000 		.4byte	.LFE47-.LFB47
 1618 0848 01       		.uleb128 0x1
 1619 0849 9C       		.byte	0x9c
 1620 084a AF080000 		.4byte	0x8af
 1621 084e 1B       		.uleb128 0x1b
 1622 084f 697000   		.ascii	"ip\000"
 1623 0852 01       		.byte	0x1
 1624 0853 5C       		.byte	0x5c
 1625 0854 7C020000 		.4byte	0x27c
 1626 0858 00000000 		.4byte	.LLST0
 1627 085c 1B       		.uleb128 0x1b
 1628 085d 627000   		.ascii	"bp\000"
 1629 0860 01       		.byte	0x1
 1630 0861 5C       		.byte	0x5c
 1631 0862 D0040000 		.4byte	0x4d0
 1632 0866 2E000000 		.4byte	.LLST1
 1633 086a 1B       		.uleb128 0x1b
 1634 086b 6E00     		.ascii	"n\000"
 1635 086d 01       		.byte	0x1
 1636 086e 5C       		.byte	0x5c
 1637 086f 2C000000 		.4byte	0x2c
 1638 0873 4F000000 		.4byte	.LLST2
 1639 0877 1C       		.uleb128 0x1c
 1640 0878 81020000 		.4byte	.LASF107
 1641 087c 01       		.byte	0x1
 1642 087d 5C       		.byte	0x5c
 1643 087e 0C010000 		.4byte	0x10c
 1644 0882 70000000 		.4byte	.LLST3
 1645 0886 1D       		.uleb128 0x1d
ARM GAS  /var/folders/qh/xwg3v3kj02qbxczjpdb8lzfr0000gn/T//ccu5ZTbw.s 			page 30


 1646 0887 08000000 		.4byte	.LVL2
 1647 088b F80D0000 		.4byte	0xdf8
 1648 088f 1E       		.uleb128 0x1e
 1649 0890 01       		.uleb128 0x1
 1650 0891 53       		.byte	0x53
 1651 0892 03       		.uleb128 0x3
 1652 0893 F3       		.byte	0xf3
 1653 0894 01       		.uleb128 0x1
 1654 0895 53       		.byte	0x53
 1655 0896 1E       		.uleb128 0x1e
 1656 0897 01       		.uleb128 0x1
 1657 0898 52       		.byte	0x52
 1658 0899 03       		.uleb128 0x3
 1659 089a F3       		.byte	0xf3
 1660 089b 01       		.uleb128 0x1
 1661 089c 52       		.byte	0x52
 1662 089d 1E       		.uleb128 0x1e
 1663 089e 01       		.uleb128 0x1
 1664 089f 51       		.byte	0x51
 1665 08a0 03       		.uleb128 0x3
 1666 08a1 F3       		.byte	0xf3
 1667 08a2 01       		.uleb128 0x1
 1668 08a3 51       		.byte	0x51
 1669 08a4 1E       		.uleb128 0x1e
 1670 08a5 01       		.uleb128 0x1
 1671 08a6 50       		.byte	0x50
 1672 08a7 05       		.uleb128 0x5
 1673 08a8 F3       		.byte	0xf3
 1674 08a9 01       		.uleb128 0x1
 1675 08aa 50       		.byte	0x50
 1676 08ab 23       		.byte	0x23
 1677 08ac 0C       		.uleb128 0xc
 1678 08ad 00       		.byte	0
 1679 08ae 00       		.byte	0
 1680 08af 1A       		.uleb128 0x1a
 1681 08b0 39050000 		.4byte	.LASF102
 1682 08b4 01       		.byte	0x1
 1683 08b5 3D       		.byte	0x3d
 1684 08b6 2C000000 		.4byte	0x2c
 1685 08ba 00000000 		.4byte	.LFB41
 1686 08be 0E000000 		.4byte	.LFE41-.LFB41
 1687 08c2 01       		.uleb128 0x1
 1688 08c3 9C       		.byte	0x9c
 1689 08c4 19090000 		.4byte	0x919
 1690 08c8 1B       		.uleb128 0x1b
 1691 08c9 697000   		.ascii	"ip\000"
 1692 08cc 01       		.byte	0x1
 1693 08cd 3D       		.byte	0x3d
 1694 08ce 7C020000 		.4byte	0x27c
 1695 08d2 91000000 		.4byte	.LLST4
 1696 08d6 1B       		.uleb128 0x1b
 1697 08d7 627000   		.ascii	"bp\000"
 1698 08da 01       		.byte	0x1
 1699 08db 3D       		.byte	0x3d
 1700 08dc D0040000 		.4byte	0x4d0
 1701 08e0 BF000000 		.4byte	.LLST5
 1702 08e4 1B       		.uleb128 0x1b
ARM GAS  /var/folders/qh/xwg3v3kj02qbxczjpdb8lzfr0000gn/T//ccu5ZTbw.s 			page 31


 1703 08e5 6E00     		.ascii	"n\000"
 1704 08e7 01       		.byte	0x1
 1705 08e8 3D       		.byte	0x3d
 1706 08e9 2C000000 		.4byte	0x2c
 1707 08ed E0000000 		.4byte	.LLST6
 1708 08f1 1D       		.uleb128 0x1d
 1709 08f2 0C000000 		.4byte	.LVL5
 1710 08f6 F80D0000 		.4byte	0xdf8
 1711 08fa 1E       		.uleb128 0x1e
 1712 08fb 01       		.uleb128 0x1
 1713 08fc 53       		.byte	0x53
 1714 08fd 02       		.uleb128 0x2
 1715 08fe 09       		.byte	0x9
 1716 08ff FF       		.byte	0xff
 1717 0900 1E       		.uleb128 0x1e
 1718 0901 01       		.uleb128 0x1
 1719 0902 52       		.byte	0x52
 1720 0903 03       		.uleb128 0x3
 1721 0904 F3       		.byte	0xf3
 1722 0905 01       		.uleb128 0x1
 1723 0906 52       		.byte	0x52
 1724 0907 1E       		.uleb128 0x1e
 1725 0908 01       		.uleb128 0x1
 1726 0909 51       		.byte	0x51
 1727 090a 03       		.uleb128 0x3
 1728 090b F3       		.byte	0xf3
 1729 090c 01       		.uleb128 0x1
 1730 090d 51       		.byte	0x51
 1731 090e 1E       		.uleb128 0x1e
 1732 090f 01       		.uleb128 0x1
 1733 0910 50       		.byte	0x50
 1734 0911 05       		.uleb128 0x5
 1735 0912 F3       		.byte	0xf3
 1736 0913 01       		.uleb128 0x1
 1737 0914 50       		.byte	0x50
 1738 0915 23       		.byte	0x23
 1739 0916 0C       		.uleb128 0xc
 1740 0917 00       		.byte	0
 1741 0918 00       		.byte	0
 1742 0919 1A       		.uleb128 0x1a
 1743 091a D0010000 		.4byte	.LASF105
 1744 091e 01       		.byte	0x1
 1745 091f 57       		.byte	0x57
 1746 0920 2C000000 		.4byte	0x2c
 1747 0924 00000000 		.4byte	.LFB46
 1748 0928 0A000000 		.4byte	.LFE46-.LFB46
 1749 092c 01       		.uleb128 0x1
 1750 092d 9C       		.byte	0x9c
 1751 092e 93090000 		.4byte	0x993
 1752 0932 1B       		.uleb128 0x1b
 1753 0933 697000   		.ascii	"ip\000"
 1754 0936 01       		.byte	0x1
 1755 0937 57       		.byte	0x57
 1756 0938 7C020000 		.4byte	0x27c
 1757 093c 01010000 		.4byte	.LLST7
 1758 0940 1B       		.uleb128 0x1b
 1759 0941 627000   		.ascii	"bp\000"
ARM GAS  /var/folders/qh/xwg3v3kj02qbxczjpdb8lzfr0000gn/T//ccu5ZTbw.s 			page 32


 1760 0944 01       		.byte	0x1
 1761 0945 57       		.byte	0x57
 1762 0946 05050000 		.4byte	0x505
 1763 094a 2F010000 		.4byte	.LLST8
 1764 094e 1B       		.uleb128 0x1b
 1765 094f 6E00     		.ascii	"n\000"
 1766 0951 01       		.byte	0x1
 1767 0952 57       		.byte	0x57
 1768 0953 2C000000 		.4byte	0x2c
 1769 0957 50010000 		.4byte	.LLST9
 1770 095b 1C       		.uleb128 0x1c
 1771 095c 81020000 		.4byte	.LASF107
 1772 0960 01       		.byte	0x1
 1773 0961 57       		.byte	0x57
 1774 0962 0C010000 		.4byte	0x10c
 1775 0966 71010000 		.4byte	.LLST10
 1776 096a 1D       		.uleb128 0x1d
 1777 096b 08000000 		.4byte	.LVL8
 1778 096f 230E0000 		.4byte	0xe23
 1779 0973 1E       		.uleb128 0x1e
 1780 0974 01       		.uleb128 0x1
 1781 0975 53       		.byte	0x53
 1782 0976 03       		.uleb128 0x3
 1783 0977 F3       		.byte	0xf3
 1784 0978 01       		.uleb128 0x1
 1785 0979 53       		.byte	0x53
 1786 097a 1E       		.uleb128 0x1e
 1787 097b 01       		.uleb128 0x1
 1788 097c 52       		.byte	0x52
 1789 097d 03       		.uleb128 0x3
 1790 097e F3       		.byte	0xf3
 1791 097f 01       		.uleb128 0x1
 1792 0980 52       		.byte	0x52
 1793 0981 1E       		.uleb128 0x1e
 1794 0982 01       		.uleb128 0x1
 1795 0983 51       		.byte	0x51
 1796 0984 03       		.uleb128 0x3
 1797 0985 F3       		.byte	0xf3
 1798 0986 01       		.uleb128 0x1
 1799 0987 51       		.byte	0x51
 1800 0988 1E       		.uleb128 0x1e
 1801 0989 01       		.uleb128 0x1
 1802 098a 50       		.byte	0x50
 1803 098b 05       		.uleb128 0x5
 1804 098c F3       		.byte	0xf3
 1805 098d 01       		.uleb128 0x1
 1806 098e 50       		.byte	0x50
 1807 098f 23       		.byte	0x23
 1808 0990 30       		.uleb128 0x30
 1809 0991 00       		.byte	0
 1810 0992 00       		.byte	0
 1811 0993 1A       		.uleb128 0x1a
 1812 0994 F4030000 		.4byte	.LASF101
 1813 0998 01       		.byte	0x1
 1814 0999 37       		.byte	0x37
 1815 099a 2C000000 		.4byte	0x2c
 1816 099e 00000000 		.4byte	.LFB40
ARM GAS  /var/folders/qh/xwg3v3kj02qbxczjpdb8lzfr0000gn/T//ccu5ZTbw.s 			page 33


 1817 09a2 0E000000 		.4byte	.LFE40-.LFB40
 1818 09a6 01       		.uleb128 0x1
 1819 09a7 9C       		.byte	0x9c
 1820 09a8 FD090000 		.4byte	0x9fd
 1821 09ac 1B       		.uleb128 0x1b
 1822 09ad 697000   		.ascii	"ip\000"
 1823 09b0 01       		.byte	0x1
 1824 09b1 37       		.byte	0x37
 1825 09b2 7C020000 		.4byte	0x27c
 1826 09b6 92010000 		.4byte	.LLST11
 1827 09ba 1B       		.uleb128 0x1b
 1828 09bb 627000   		.ascii	"bp\000"
 1829 09be 01       		.byte	0x1
 1830 09bf 37       		.byte	0x37
 1831 09c0 05050000 		.4byte	0x505
 1832 09c4 C0010000 		.4byte	.LLST12
 1833 09c8 1B       		.uleb128 0x1b
 1834 09c9 6E00     		.ascii	"n\000"
 1835 09cb 01       		.byte	0x1
 1836 09cc 37       		.byte	0x37
 1837 09cd 2C000000 		.4byte	0x2c
 1838 09d1 E1010000 		.4byte	.LLST13
 1839 09d5 1D       		.uleb128 0x1d
 1840 09d6 0C000000 		.4byte	.LVL11
 1841 09da 230E0000 		.4byte	0xe23
 1842 09de 1E       		.uleb128 0x1e
 1843 09df 01       		.uleb128 0x1
 1844 09e0 53       		.byte	0x53
 1845 09e1 02       		.uleb128 0x2
 1846 09e2 09       		.byte	0x9
 1847 09e3 FF       		.byte	0xff
 1848 09e4 1E       		.uleb128 0x1e
 1849 09e5 01       		.uleb128 0x1
 1850 09e6 52       		.byte	0x52
 1851 09e7 03       		.uleb128 0x3
 1852 09e8 F3       		.byte	0xf3
 1853 09e9 01       		.uleb128 0x1
 1854 09ea 52       		.byte	0x52
 1855 09eb 1E       		.uleb128 0x1e
 1856 09ec 01       		.uleb128 0x1
 1857 09ed 51       		.byte	0x51
 1858 09ee 03       		.uleb128 0x3
 1859 09ef F3       		.byte	0xf3
 1860 09f0 01       		.uleb128 0x1
 1861 09f1 51       		.byte	0x51
 1862 09f2 1E       		.uleb128 0x1e
 1863 09f3 01       		.uleb128 0x1
 1864 09f4 50       		.byte	0x50
 1865 09f5 05       		.uleb128 0x5
 1866 09f6 F3       		.byte	0xf3
 1867 09f7 01       		.uleb128 0x1
 1868 09f8 50       		.byte	0x50
 1869 09f9 23       		.byte	0x23
 1870 09fa 30       		.uleb128 0x30
 1871 09fb 00       		.byte	0
 1872 09fc 00       		.byte	0
 1873 09fd 1A       		.uleb128 0x1a
ARM GAS  /var/folders/qh/xwg3v3kj02qbxczjpdb8lzfr0000gn/T//ccu5ZTbw.s 			page 34


 1874 09fe 67050000 		.4byte	.LASF104
 1875 0a02 01       		.byte	0x1
 1876 0a03 52       		.byte	0x52
 1877 0a04 EB000000 		.4byte	0xeb
 1878 0a08 00000000 		.4byte	.LFB45
 1879 0a0c 0A000000 		.4byte	.LFE45-.LFB45
 1880 0a10 01       		.uleb128 0x1
 1881 0a11 9C       		.byte	0x9c
 1882 0a12 4E0A0000 		.4byte	0xa4e
 1883 0a16 1B       		.uleb128 0x1b
 1884 0a17 697000   		.ascii	"ip\000"
 1885 0a1a 01       		.byte	0x1
 1886 0a1b 52       		.byte	0x52
 1887 0a1c 7C020000 		.4byte	0x27c
 1888 0a20 02020000 		.4byte	.LLST14
 1889 0a24 1C       		.uleb128 0x1c
 1890 0a25 D0050000 		.4byte	.LASF108
 1891 0a29 01       		.byte	0x1
 1892 0a2a 52       		.byte	0x52
 1893 0a2b 0C010000 		.4byte	0x10c
 1894 0a2f 30020000 		.4byte	.LLST15
 1895 0a33 1D       		.uleb128 0x1d
 1896 0a34 08000000 		.4byte	.LVL14
 1897 0a38 4E0E0000 		.4byte	0xe4e
 1898 0a3c 1E       		.uleb128 0x1e
 1899 0a3d 01       		.uleb128 0x1
 1900 0a3e 51       		.byte	0x51
 1901 0a3f 03       		.uleb128 0x3
 1902 0a40 F3       		.byte	0xf3
 1903 0a41 01       		.uleb128 0x1
 1904 0a42 51       		.byte	0x51
 1905 0a43 1E       		.uleb128 0x1e
 1906 0a44 01       		.uleb128 0x1
 1907 0a45 50       		.byte	0x50
 1908 0a46 05       		.uleb128 0x5
 1909 0a47 F3       		.byte	0xf3
 1910 0a48 01       		.uleb128 0x1
 1911 0a49 50       		.byte	0x50
 1912 0a4a 23       		.byte	0x23
 1913 0a4b 0C       		.uleb128 0xc
 1914 0a4c 00       		.byte	0
 1915 0a4d 00       		.byte	0
 1916 0a4e 1F       		.uleb128 0x1f
 1917 0a4f 67657400 		.ascii	"get\000"
 1918 0a53 01       		.byte	0x1
 1919 0a54 48       		.byte	0x48
 1920 0a55 EB000000 		.4byte	0xeb
 1921 0a59 00000000 		.4byte	.LFB43
 1922 0a5d 0E000000 		.4byte	.LFE43-.LFB43
 1923 0a61 01       		.uleb128 0x1
 1924 0a62 9C       		.byte	0x9c
 1925 0a63 8F0A0000 		.4byte	0xa8f
 1926 0a67 1B       		.uleb128 0x1b
 1927 0a68 697000   		.ascii	"ip\000"
 1928 0a6b 01       		.byte	0x1
 1929 0a6c 48       		.byte	0x48
 1930 0a6d 7C020000 		.4byte	0x27c
ARM GAS  /var/folders/qh/xwg3v3kj02qbxczjpdb8lzfr0000gn/T//ccu5ZTbw.s 			page 35


 1931 0a71 51020000 		.4byte	.LLST16
 1932 0a75 1D       		.uleb128 0x1d
 1933 0a76 0C000000 		.4byte	.LVL17
 1934 0a7a 4E0E0000 		.4byte	0xe4e
 1935 0a7e 1E       		.uleb128 0x1e
 1936 0a7f 01       		.uleb128 0x1
 1937 0a80 51       		.byte	0x51
 1938 0a81 02       		.uleb128 0x2
 1939 0a82 09       		.byte	0x9
 1940 0a83 FF       		.byte	0xff
 1941 0a84 1E       		.uleb128 0x1e
 1942 0a85 01       		.uleb128 0x1
 1943 0a86 50       		.byte	0x50
 1944 0a87 05       		.uleb128 0x5
 1945 0a88 F3       		.byte	0xf3
 1946 0a89 01       		.uleb128 0x1
 1947 0a8a 50       		.byte	0x50
 1948 0a8b 23       		.byte	0x23
 1949 0a8c 0C       		.uleb128 0xc
 1950 0a8d 00       		.byte	0
 1951 0a8e 00       		.byte	0
 1952 0a8f 1A       		.uleb128 0x1a
 1953 0a90 98020000 		.4byte	.LASF103
 1954 0a94 01       		.byte	0x1
 1955 0a95 4D       		.byte	0x4d
 1956 0a96 EB000000 		.4byte	0xeb
 1957 0a9a 00000000 		.4byte	.LFB44
 1958 0a9e 0A000000 		.4byte	.LFE44-.LFB44
 1959 0aa2 01       		.uleb128 0x1
 1960 0aa3 9C       		.byte	0x9c
 1961 0aa4 ED0A0000 		.4byte	0xaed
 1962 0aa8 1B       		.uleb128 0x1b
 1963 0aa9 697000   		.ascii	"ip\000"
 1964 0aac 01       		.byte	0x1
 1965 0aad 4D       		.byte	0x4d
 1966 0aae 7C020000 		.4byte	0x27c
 1967 0ab2 7F020000 		.4byte	.LLST17
 1968 0ab6 1B       		.uleb128 0x1b
 1969 0ab7 6200     		.ascii	"b\000"
 1970 0ab9 01       		.byte	0x1
 1971 0aba 4D       		.byte	0x4d
 1972 0abb 45000000 		.4byte	0x45
 1973 0abf AD020000 		.4byte	.LLST18
 1974 0ac3 1C       		.uleb128 0x1c
 1975 0ac4 D0050000 		.4byte	.LASF108
 1976 0ac8 01       		.byte	0x1
 1977 0ac9 4D       		.byte	0x4d
 1978 0aca 0C010000 		.4byte	0x10c
 1979 0ace CE020000 		.4byte	.LLST19
 1980 0ad2 1D       		.uleb128 0x1d
 1981 0ad3 08000000 		.4byte	.LVL20
 1982 0ad7 690E0000 		.4byte	0xe69
 1983 0adb 1E       		.uleb128 0x1e
 1984 0adc 01       		.uleb128 0x1
 1985 0add 52       		.byte	0x52
 1986 0ade 03       		.uleb128 0x3
 1987 0adf F3       		.byte	0xf3
ARM GAS  /var/folders/qh/xwg3v3kj02qbxczjpdb8lzfr0000gn/T//ccu5ZTbw.s 			page 36


 1988 0ae0 01       		.uleb128 0x1
 1989 0ae1 52       		.byte	0x52
 1990 0ae2 1E       		.uleb128 0x1e
 1991 0ae3 01       		.uleb128 0x1
 1992 0ae4 50       		.byte	0x50
 1993 0ae5 05       		.uleb128 0x5
 1994 0ae6 F3       		.byte	0xf3
 1995 0ae7 01       		.uleb128 0x1
 1996 0ae8 50       		.byte	0x50
 1997 0ae9 23       		.byte	0x23
 1998 0aea 30       		.uleb128 0x30
 1999 0aeb 00       		.byte	0
 2000 0aec 00       		.byte	0
 2001 0aed 1F       		.uleb128 0x1f
 2002 0aee 70757400 		.ascii	"put\000"
 2003 0af2 01       		.byte	0x1
 2004 0af3 43       		.byte	0x43
 2005 0af4 EB000000 		.4byte	0xeb
 2006 0af8 00000000 		.4byte	.LFB42
 2007 0afc 0E000000 		.4byte	.LFE42-.LFB42
 2008 0b00 01       		.uleb128 0x1
 2009 0b01 9C       		.byte	0x9c
 2010 0b02 3B0B0000 		.4byte	0xb3b
 2011 0b06 1B       		.uleb128 0x1b
 2012 0b07 697000   		.ascii	"ip\000"
 2013 0b0a 01       		.byte	0x1
 2014 0b0b 43       		.byte	0x43
 2015 0b0c 7C020000 		.4byte	0x27c
 2016 0b10 EF020000 		.4byte	.LLST20
 2017 0b14 1B       		.uleb128 0x1b
 2018 0b15 6200     		.ascii	"b\000"
 2019 0b17 01       		.byte	0x1
 2020 0b18 43       		.byte	0x43
 2021 0b19 45000000 		.4byte	0x45
 2022 0b1d 1D030000 		.4byte	.LLST21
 2023 0b21 1D       		.uleb128 0x1d
 2024 0b22 0C000000 		.4byte	.LVL23
 2025 0b26 690E0000 		.4byte	0xe69
 2026 0b2a 1E       		.uleb128 0x1e
 2027 0b2b 01       		.uleb128 0x1
 2028 0b2c 52       		.byte	0x52
 2029 0b2d 02       		.uleb128 0x2
 2030 0b2e 09       		.byte	0x9
 2031 0b2f FF       		.byte	0xff
 2032 0b30 1E       		.uleb128 0x1e
 2033 0b31 01       		.uleb128 0x1
 2034 0b32 50       		.byte	0x50
 2035 0b33 05       		.uleb128 0x5
 2036 0b34 F3       		.byte	0xf3
 2037 0b35 01       		.uleb128 0x1
 2038 0b36 50       		.byte	0x50
 2039 0b37 23       		.byte	0x23
 2040 0b38 30       		.uleb128 0x30
 2041 0b39 00       		.byte	0
 2042 0b3a 00       		.byte	0
 2043 0b3b 20       		.uleb128 0x20
 2044 0b3c 34000000 		.4byte	.LASF109
ARM GAS  /var/folders/qh/xwg3v3kj02qbxczjpdb8lzfr0000gn/T//ccu5ZTbw.s 			page 37


 2045 0b40 01       		.byte	0x1
 2046 0b41 71       		.byte	0x71
 2047 0b42 00000000 		.4byte	.LFB48
 2048 0b46 08000000 		.4byte	.LFE48-.LFB48
 2049 0b4a 01       		.uleb128 0x1
 2050 0b4b 9C       		.byte	0x9c
 2051 0b4c 5A0B0000 		.4byte	0xb5a
 2052 0b50 21       		.uleb128 0x21
 2053 0b51 06000000 		.4byte	.LVL24
 2054 0b55 890E0000 		.4byte	0xe89
 2055 0b59 00       		.byte	0
 2056 0b5a 20       		.uleb128 0x20
 2057 0b5b A6010000 		.4byte	.LASF110
 2058 0b5f 01       		.byte	0x1
 2059 0b60 85       		.byte	0x85
 2060 0b61 00000000 		.4byte	.LFB49
 2061 0b65 40000000 		.4byte	.LFE49-.LFB49
 2062 0b69 01       		.uleb128 0x1
 2063 0b6a 9C       		.byte	0x9c
 2064 0b6b F40B0000 		.4byte	0xbf4
 2065 0b6f 1B       		.uleb128 0x1b
 2066 0b70 73647000 		.ascii	"sdp\000"
 2067 0b74 01       		.byte	0x1
 2068 0b75 85       		.byte	0x85
 2069 0b76 F40B0000 		.4byte	0xbf4
 2070 0b7a 3E030000 		.4byte	.LLST22
 2071 0b7e 1C       		.uleb128 0x1c
 2072 0b7f E6020000 		.4byte	.LASF111
 2073 0b83 01       		.byte	0x1
 2074 0b84 85       		.byte	0x85
 2075 0b85 AE040000 		.4byte	0x4ae
 2076 0b89 6A030000 		.4byte	.LLST23
 2077 0b8d 1C       		.uleb128 0x1c
 2078 0b8e 24050000 		.4byte	.LASF112
 2079 0b92 01       		.byte	0x1
 2080 0b93 85       		.byte	0x85
 2081 0b94 AE040000 		.4byte	0x4ae
 2082 0b98 96030000 		.4byte	.LLST24
 2083 0b9c 22       		.uleb128 0x22
 2084 0b9d 24000000 		.4byte	.LVL29
 2085 0ba1 910E0000 		.4byte	0xe91
 2086 0ba5 CA0B0000 		.4byte	0xbca
 2087 0ba9 1E       		.uleb128 0x1e
 2088 0baa 01       		.uleb128 0x1
 2089 0bab 53       		.byte	0x53
 2090 0bac 03       		.uleb128 0x3
 2091 0bad F3       		.byte	0xf3
 2092 0bae 01       		.uleb128 0x1
 2093 0baf 51       		.byte	0x51
 2094 0bb0 1E       		.uleb128 0x1e
 2095 0bb1 01       		.uleb128 0x1
 2096 0bb2 52       		.byte	0x52
 2097 0bb3 01       		.uleb128 0x1
 2098 0bb4 40       		.byte	0x40
 2099 0bb5 1E       		.uleb128 0x1e
 2100 0bb6 01       		.uleb128 0x1
 2101 0bb7 51       		.byte	0x51
ARM GAS  /var/folders/qh/xwg3v3kj02qbxczjpdb8lzfr0000gn/T//ccu5ZTbw.s 			page 38


 2102 0bb8 03       		.uleb128 0x3
 2103 0bb9 74       		.byte	0x74
 2104 0bba D400     		.sleb128 84
 2105 0bbc 1E       		.uleb128 0x1e
 2106 0bbd 01       		.uleb128 0x1
 2107 0bbe 50       		.byte	0x50
 2108 0bbf 02       		.uleb128 0x2
 2109 0bc0 74       		.byte	0x74
 2110 0bc1 0C       		.sleb128 12
 2111 0bc2 1E       		.uleb128 0x1e
 2112 0bc3 02       		.uleb128 0x2
 2113 0bc4 7D       		.byte	0x7d
 2114 0bc5 00       		.sleb128 0
 2115 0bc6 02       		.uleb128 0x2
 2116 0bc7 74       		.byte	0x74
 2117 0bc8 00       		.sleb128 0
 2118 0bc9 00       		.byte	0
 2119 0bca 1D       		.uleb128 0x1d
 2120 0bcb 36000000 		.4byte	.LVL30
 2121 0bcf B70E0000 		.4byte	0xeb7
 2122 0bd3 1E       		.uleb128 0x1e
 2123 0bd4 01       		.uleb128 0x1
 2124 0bd5 53       		.byte	0x53
 2125 0bd6 02       		.uleb128 0x2
 2126 0bd7 75       		.byte	0x75
 2127 0bd8 00       		.sleb128 0
 2128 0bd9 1E       		.uleb128 0x1e
 2129 0bda 01       		.uleb128 0x1
 2130 0bdb 52       		.byte	0x52
 2131 0bdc 01       		.uleb128 0x1
 2132 0bdd 40       		.byte	0x40
 2133 0bde 1E       		.uleb128 0x1e
 2134 0bdf 01       		.uleb128 0x1
 2135 0be0 51       		.byte	0x51
 2136 0be1 03       		.uleb128 0x3
 2137 0be2 74       		.byte	0x74
 2138 0be3 E400     		.sleb128 100
 2139 0be5 1E       		.uleb128 0x1e
 2140 0be6 01       		.uleb128 0x1
 2141 0be7 50       		.byte	0x50
 2142 0be8 02       		.uleb128 0x2
 2143 0be9 74       		.byte	0x74
 2144 0bea 30       		.sleb128 48
 2145 0beb 1E       		.uleb128 0x1e
 2146 0bec 02       		.uleb128 0x2
 2147 0bed 7D       		.byte	0x7d
 2148 0bee 00       		.sleb128 0
 2149 0bef 02       		.uleb128 0x2
 2150 0bf0 74       		.byte	0x74
 2151 0bf1 00       		.sleb128 0
 2152 0bf2 00       		.byte	0
 2153 0bf3 00       		.byte	0
 2154 0bf4 09       		.uleb128 0x9
 2155 0bf5 04       		.byte	0x4
 2156 0bf6 E1060000 		.4byte	0x6e1
 2157 0bfa 20       		.uleb128 0x20
 2158 0bfb 79020000 		.4byte	.LASF113
ARM GAS  /var/folders/qh/xwg3v3kj02qbxczjpdb8lzfr0000gn/T//ccu5ZTbw.s 			page 39


 2159 0bff 01       		.byte	0x1
 2160 0c00 98       		.byte	0x98
 2161 0c01 00000000 		.4byte	.LFB50
 2162 0c05 20000000 		.4byte	.LFE50-.LFB50
 2163 0c09 01       		.uleb128 0x1
 2164 0c0a 9C       		.byte	0x9c
 2165 0c0b 5A0C0000 		.4byte	0xc5a
 2166 0c0f 1B       		.uleb128 0x1b
 2167 0c10 73647000 		.ascii	"sdp\000"
 2168 0c14 01       		.byte	0x1
 2169 0c15 98       		.byte	0x98
 2170 0c16 F40B0000 		.4byte	0xbf4
 2171 0c1a C2030000 		.4byte	.LLST25
 2172 0c1e 1C       		.uleb128 0x1c
 2173 0c1f BA040000 		.4byte	.LASF114
 2174 0c23 01       		.byte	0x1
 2175 0c24 98       		.byte	0x98
 2176 0c25 5A0C0000 		.4byte	0xc5a
 2177 0c29 EE030000 		.4byte	.LLST26
 2178 0c2d 21       		.uleb128 0x21
 2179 0c2e 0C000000 		.4byte	.LVL34
 2180 0c32 DD0E0000 		.4byte	0xedd
 2181 0c36 22       		.uleb128 0x22
 2182 0c37 14000000 		.4byte	.LVL35
 2183 0c3b E40E0000 		.4byte	0xee4
 2184 0c3f 500C0000 		.4byte	0xc50
 2185 0c43 1E       		.uleb128 0x1e
 2186 0c44 01       		.uleb128 0x1
 2187 0c45 51       		.byte	0x51
 2188 0c46 02       		.uleb128 0x2
 2189 0c47 75       		.byte	0x75
 2190 0c48 00       		.sleb128 0
 2191 0c49 1E       		.uleb128 0x1e
 2192 0c4a 01       		.uleb128 0x1
 2193 0c4b 50       		.byte	0x50
 2194 0c4c 02       		.uleb128 0x2
 2195 0c4d 74       		.byte	0x74
 2196 0c4e 00       		.sleb128 0
 2197 0c4f 00       		.byte	0
 2198 0c50 21       		.uleb128 0x21
 2199 0c51 1C000000 		.4byte	.LVL36
 2200 0c55 FB0E0000 		.4byte	0xefb
 2201 0c59 00       		.byte	0
 2202 0c5a 09       		.uleb128 0x9
 2203 0c5b 04       		.byte	0x4
 2204 0c5c 600C0000 		.4byte	0xc60
 2205 0c60 0E       		.uleb128 0xe
 2206 0c61 9C070000 		.4byte	0x79c
 2207 0c65 20       		.uleb128 0x20
 2208 0c66 34040000 		.4byte	.LASF115
 2209 0c6a 01       		.byte	0x1
 2210 0c6b AE       		.byte	0xae
 2211 0c6c 00000000 		.4byte	.LFB51
 2212 0c70 30000000 		.4byte	.LFE51-.LFB51
 2213 0c74 01       		.uleb128 0x1
 2214 0c75 9C       		.byte	0x9c
 2215 0c76 E10C0000 		.4byte	0xce1
ARM GAS  /var/folders/qh/xwg3v3kj02qbxczjpdb8lzfr0000gn/T//ccu5ZTbw.s 			page 40


 2216 0c7a 1B       		.uleb128 0x1b
 2217 0c7b 73647000 		.ascii	"sdp\000"
 2218 0c7f 01       		.byte	0x1
 2219 0c80 AE       		.byte	0xae
 2220 0c81 F40B0000 		.4byte	0xbf4
 2221 0c85 1A040000 		.4byte	.LLST27
 2222 0c89 21       		.uleb128 0x21
 2223 0c8a 0A000000 		.4byte	.LVL40
 2224 0c8e DD0E0000 		.4byte	0xedd
 2225 0c92 22       		.uleb128 0x22
 2226 0c93 10000000 		.4byte	.LVL41
 2227 0c97 020F0000 		.4byte	0xf02
 2228 0c9b A60C0000 		.4byte	0xca6
 2229 0c9f 1E       		.uleb128 0x1e
 2230 0ca0 01       		.uleb128 0x1
 2231 0ca1 50       		.byte	0x50
 2232 0ca2 02       		.uleb128 0x2
 2233 0ca3 74       		.byte	0x74
 2234 0ca4 00       		.sleb128 0
 2235 0ca5 00       		.byte	0
 2236 0ca6 22       		.uleb128 0x22
 2237 0ca7 1C000000 		.4byte	.LVL42
 2238 0cab 140F0000 		.4byte	0xf14
 2239 0caf BA0C0000 		.4byte	0xcba
 2240 0cb3 1E       		.uleb128 0x1e
 2241 0cb4 01       		.uleb128 0x1
 2242 0cb5 50       		.byte	0x50
 2243 0cb6 02       		.uleb128 0x2
 2244 0cb7 74       		.byte	0x74
 2245 0cb8 30       		.sleb128 48
 2246 0cb9 00       		.byte	0
 2247 0cba 22       		.uleb128 0x22
 2248 0cbb 24000000 		.4byte	.LVL43
 2249 0cbf 260F0000 		.4byte	0xf26
 2250 0cc3 CE0C0000 		.4byte	0xcce
 2251 0cc7 1E       		.uleb128 0x1e
 2252 0cc8 01       		.uleb128 0x1
 2253 0cc9 50       		.byte	0x50
 2254 0cca 02       		.uleb128 0x2
 2255 0ccb 74       		.byte	0x74
 2256 0ccc 0C       		.sleb128 12
 2257 0ccd 00       		.byte	0
 2258 0cce 21       		.uleb128 0x21
 2259 0ccf 28000000 		.4byte	.LVL44
 2260 0cd3 380F0000 		.4byte	0xf38
 2261 0cd7 21       		.uleb128 0x21
 2262 0cd8 2C000000 		.4byte	.LVL45
 2263 0cdc FB0E0000 		.4byte	0xefb
 2264 0ce0 00       		.byte	0
 2265 0ce1 20       		.uleb128 0x20
 2266 0ce2 BA010000 		.4byte	.LASF116
 2267 0ce6 01       		.byte	0x1
 2268 0ce7 CE       		.byte	0xce
 2269 0ce8 00000000 		.4byte	.LFB52
 2270 0cec 40000000 		.4byte	.LFE52-.LFB52
 2271 0cf0 01       		.uleb128 0x1
 2272 0cf1 9C       		.byte	0x9c
ARM GAS  /var/folders/qh/xwg3v3kj02qbxczjpdb8lzfr0000gn/T//ccu5ZTbw.s 			page 41


 2273 0cf2 7F0D0000 		.4byte	0xd7f
 2274 0cf6 1B       		.uleb128 0x1b
 2275 0cf7 73647000 		.ascii	"sdp\000"
 2276 0cfb 01       		.byte	0x1
 2277 0cfc CE       		.byte	0xce
 2278 0cfd F40B0000 		.4byte	0xbf4
 2279 0d01 46040000 		.4byte	.LLST28
 2280 0d05 1B       		.uleb128 0x1b
 2281 0d06 6200     		.ascii	"b\000"
 2282 0d08 01       		.byte	0x1
 2283 0d09 CE       		.byte	0xce
 2284 0d0a 45000000 		.4byte	0x45
 2285 0d0e 7D040000 		.4byte	.LLST29
 2286 0d12 21       		.uleb128 0x21
 2287 0d13 0A000000 		.4byte	.LVL48
 2288 0d17 3F0F0000 		.4byte	0xf3f
 2289 0d1b 22       		.uleb128 0x22
 2290 0d1c 1A000000 		.4byte	.LVL49
 2291 0d20 460F0000 		.4byte	0xf46
 2292 0d24 350D0000 		.4byte	0xd35
 2293 0d28 1E       		.uleb128 0x1e
 2294 0d29 01       		.uleb128 0x1
 2295 0d2a 51       		.byte	0x51
 2296 0d2b 02       		.uleb128 0x2
 2297 0d2c 75       		.byte	0x75
 2298 0d2d 00       		.sleb128 0
 2299 0d2e 1E       		.uleb128 0x1e
 2300 0d2f 01       		.uleb128 0x1
 2301 0d30 50       		.byte	0x50
 2302 0d31 02       		.uleb128 0x2
 2303 0d32 74       		.byte	0x74
 2304 0d33 0C       		.sleb128 12
 2305 0d34 00       		.byte	0
 2306 0d35 22       		.uleb128 0x22
 2307 0d36 28000000 		.4byte	.LVL52
 2308 0d3a 610F0000 		.4byte	0xf61
 2309 0d3e 4E0D0000 		.4byte	0xd4e
 2310 0d42 1E       		.uleb128 0x1e
 2311 0d43 01       		.uleb128 0x1
 2312 0d44 51       		.byte	0x51
 2313 0d45 01       		.uleb128 0x1
 2314 0d46 34       		.byte	0x34
 2315 0d47 1E       		.uleb128 0x1e
 2316 0d48 01       		.uleb128 0x1
 2317 0d49 50       		.byte	0x50
 2318 0d4a 02       		.uleb128 0x2
 2319 0d4b 74       		.byte	0x74
 2320 0d4c 04       		.sleb128 4
 2321 0d4d 00       		.byte	0
 2322 0d4e 22       		.uleb128 0x22
 2323 0d4f 32000000 		.4byte	.LVL53
 2324 0d53 460F0000 		.4byte	0xf46
 2325 0d57 680D0000 		.4byte	0xd68
 2326 0d5b 1E       		.uleb128 0x1e
 2327 0d5c 01       		.uleb128 0x1
 2328 0d5d 51       		.byte	0x51
 2329 0d5e 02       		.uleb128 0x2
ARM GAS  /var/folders/qh/xwg3v3kj02qbxczjpdb8lzfr0000gn/T//ccu5ZTbw.s 			page 42


 2330 0d5f 75       		.byte	0x75
 2331 0d60 00       		.sleb128 0
 2332 0d61 1E       		.uleb128 0x1e
 2333 0d62 01       		.uleb128 0x1
 2334 0d63 50       		.byte	0x50
 2335 0d64 02       		.uleb128 0x2
 2336 0d65 74       		.byte	0x74
 2337 0d66 0C       		.sleb128 12
 2338 0d67 00       		.byte	0
 2339 0d68 1D       		.uleb128 0x1d
 2340 0d69 3E000000 		.4byte	.LVL54
 2341 0d6d 610F0000 		.4byte	0xf61
 2342 0d71 1E       		.uleb128 0x1e
 2343 0d72 01       		.uleb128 0x1
 2344 0d73 51       		.byte	0x51
 2345 0d74 02       		.uleb128 0x2
 2346 0d75 08       		.byte	0x8
 2347 0d76 80       		.byte	0x80
 2348 0d77 1E       		.uleb128 0x1e
 2349 0d78 01       		.uleb128 0x1
 2350 0d79 50       		.byte	0x50
 2351 0d7a 02       		.uleb128 0x2
 2352 0d7b 74       		.byte	0x74
 2353 0d7c 04       		.sleb128 4
 2354 0d7d 00       		.byte	0
 2355 0d7e 00       		.byte	0
 2356 0d7f 23       		.uleb128 0x23
 2357 0d80 F7010000 		.4byte	.LASF138
 2358 0d84 01       		.byte	0x1
 2359 0d85 E8       		.byte	0xe8
 2360 0d86 EB000000 		.4byte	0xeb
 2361 0d8a 00000000 		.4byte	.LFB53
 2362 0d8e 22000000 		.4byte	.LFE53-.LFB53
 2363 0d92 01       		.uleb128 0x1
 2364 0d93 9C       		.byte	0x9c
 2365 0d94 E70D0000 		.4byte	0xde7
 2366 0d98 1B       		.uleb128 0x1b
 2367 0d99 73647000 		.ascii	"sdp\000"
 2368 0d9d 01       		.byte	0x1
 2369 0d9e E8       		.byte	0xe8
 2370 0d9f F40B0000 		.4byte	0xbf4
 2371 0da3 9E040000 		.4byte	.LLST30
 2372 0da7 24       		.uleb128 0x24
 2373 0da8 6200     		.ascii	"b\000"
 2374 0daa 01       		.byte	0x1
 2375 0dab E9       		.byte	0xe9
 2376 0dac EB000000 		.4byte	0xeb
 2377 0db0 D5040000 		.4byte	.LLST31
 2378 0db4 21       		.uleb128 0x21
 2379 0db5 08000000 		.4byte	.LVL56
 2380 0db9 3F0F0000 		.4byte	0xf3f
 2381 0dbd 22       		.uleb128 0x22
 2382 0dbe 10000000 		.4byte	.LVL57
 2383 0dc2 7D0F0000 		.4byte	0xf7d
 2384 0dc6 D10D0000 		.4byte	0xdd1
 2385 0dca 1E       		.uleb128 0x1e
 2386 0dcb 01       		.uleb128 0x1
ARM GAS  /var/folders/qh/xwg3v3kj02qbxczjpdb8lzfr0000gn/T//ccu5ZTbw.s 			page 43


 2387 0dcc 50       		.byte	0x50
 2388 0dcd 02       		.uleb128 0x2
 2389 0dce 75       		.byte	0x75
 2390 0dcf 30       		.sleb128 48
 2391 0dd0 00       		.byte	0
 2392 0dd1 1D       		.uleb128 0x1d
 2393 0dd2 20000000 		.4byte	.LVL64
 2394 0dd6 610F0000 		.4byte	0xf61
 2395 0dda 1E       		.uleb128 0x1e
 2396 0ddb 01       		.uleb128 0x1
 2397 0ddc 51       		.byte	0x51
 2398 0ddd 01       		.uleb128 0x1
 2399 0dde 38       		.byte	0x38
 2400 0ddf 1E       		.uleb128 0x1e
 2401 0de0 01       		.uleb128 0x1
 2402 0de1 50       		.byte	0x50
 2403 0de2 02       		.uleb128 0x2
 2404 0de3 75       		.byte	0x75
 2405 0de4 04       		.sleb128 4
 2406 0de5 00       		.byte	0
 2407 0de6 00       		.byte	0
 2408 0de7 25       		.uleb128 0x25
 2409 0de8 766D7400 		.ascii	"vmt\000"
 2410 0dec 01       		.byte	0x1
 2411 0ded 61       		.byte	0x61
 2412 0dee 1A080000 		.4byte	0x81a
 2413 0df2 05       		.uleb128 0x5
 2414 0df3 03       		.byte	0x3
 2415 0df4 00000000 		.4byte	vmt
 2416 0df8 26       		.uleb128 0x26
 2417 0df9 8B000000 		.4byte	.LASF117
 2418 0dfd 0A       		.byte	0xa
 2419 0dfe 6001     		.2byte	0x160
 2420 0e00 2C000000 		.4byte	0x2c
 2421 0e04 1D0E0000 		.4byte	0xe1d
 2422 0e08 10       		.uleb128 0x10
 2423 0e09 1D0E0000 		.4byte	0xe1d
 2424 0e0d 10       		.uleb128 0x10
 2425 0e0e D0040000 		.4byte	0x4d0
 2426 0e12 10       		.uleb128 0x10
 2427 0e13 2C000000 		.4byte	0x2c
 2428 0e17 10       		.uleb128 0x10
 2429 0e18 0C010000 		.4byte	0x10c
 2430 0e1c 00       		.byte	0
 2431 0e1d 09       		.uleb128 0x9
 2432 0e1e 04       		.byte	0x4
 2433 0e1f D6040000 		.4byte	0x4d6
 2434 0e23 26       		.uleb128 0x26
 2435 0e24 68020000 		.4byte	.LASF118
 2436 0e28 0A       		.byte	0xa
 2437 0e29 6801     		.2byte	0x168
 2438 0e2b 2C000000 		.4byte	0x2c
 2439 0e2f 480E0000 		.4byte	0xe48
 2440 0e33 10       		.uleb128 0x10
 2441 0e34 480E0000 		.4byte	0xe48
 2442 0e38 10       		.uleb128 0x10
 2443 0e39 05050000 		.4byte	0x505
ARM GAS  /var/folders/qh/xwg3v3kj02qbxczjpdb8lzfr0000gn/T//ccu5ZTbw.s 			page 44


 2444 0e3d 10       		.uleb128 0x10
 2445 0e3e 2C000000 		.4byte	0x2c
 2446 0e42 10       		.uleb128 0x10
 2447 0e43 0C010000 		.4byte	0x10c
 2448 0e47 00       		.byte	0
 2449 0e48 09       		.uleb128 0x9
 2450 0e49 04       		.byte	0x4
 2451 0e4a E1040000 		.4byte	0x4e1
 2452 0e4e 26       		.uleb128 0x26
 2453 0e4f 42000000 		.4byte	.LASF119
 2454 0e53 0A       		.byte	0xa
 2455 0e54 5F01     		.2byte	0x15f
 2456 0e56 EB000000 		.4byte	0xeb
 2457 0e5a 690E0000 		.4byte	0xe69
 2458 0e5e 10       		.uleb128 0x10
 2459 0e5f 1D0E0000 		.4byte	0xe1d
 2460 0e63 10       		.uleb128 0x10
 2461 0e64 0C010000 		.4byte	0x10c
 2462 0e68 00       		.byte	0
 2463 0e69 26       		.uleb128 0x26
 2464 0e6a D8050000 		.4byte	.LASF120
 2465 0e6e 0A       		.byte	0xa
 2466 0e6f 6601     		.2byte	0x166
 2467 0e71 EB000000 		.4byte	0xeb
 2468 0e75 890E0000 		.4byte	0xe89
 2469 0e79 10       		.uleb128 0x10
 2470 0e7a 480E0000 		.4byte	0xe48
 2471 0e7e 10       		.uleb128 0x10
 2472 0e7f 45000000 		.4byte	0x45
 2473 0e83 10       		.uleb128 0x10
 2474 0e84 0C010000 		.4byte	0x10c
 2475 0e88 00       		.byte	0
 2476 0e89 27       		.uleb128 0x27
 2477 0e8a 36060000 		.4byte	.LASF123
 2478 0e8e 0D       		.byte	0xd
 2479 0e8f 2601     		.2byte	0x126
 2480 0e91 28       		.uleb128 0x28
 2481 0e92 9B000000 		.4byte	.LASF121
 2482 0e96 0A       		.byte	0xa
 2483 0e97 5B01     		.2byte	0x15b
 2484 0e99 B70E0000 		.4byte	0xeb7
 2485 0e9d 10       		.uleb128 0x10
 2486 0e9e 1D0E0000 		.4byte	0xe1d
 2487 0ea2 10       		.uleb128 0x10
 2488 0ea3 D0040000 		.4byte	0x4d0
 2489 0ea7 10       		.uleb128 0x10
 2490 0ea8 2C000000 		.4byte	0x2c
 2491 0eac 10       		.uleb128 0x10
 2492 0ead AE040000 		.4byte	0x4ae
 2493 0eb1 10       		.uleb128 0x10
 2494 0eb2 7C020000 		.4byte	0x27c
 2495 0eb6 00       		.byte	0
 2496 0eb7 28       		.uleb128 0x28
 2497 0eb8 B2050000 		.4byte	.LASF122
 2498 0ebc 0A       		.byte	0xa
 2499 0ebd 6301     		.2byte	0x163
 2500 0ebf DD0E0000 		.4byte	0xedd
ARM GAS  /var/folders/qh/xwg3v3kj02qbxczjpdb8lzfr0000gn/T//ccu5ZTbw.s 			page 45


 2501 0ec3 10       		.uleb128 0x10
 2502 0ec4 480E0000 		.4byte	0xe48
 2503 0ec8 10       		.uleb128 0x10
 2504 0ec9 D0040000 		.4byte	0x4d0
 2505 0ecd 10       		.uleb128 0x10
 2506 0ece 2C000000 		.4byte	0x2c
 2507 0ed2 10       		.uleb128 0x10
 2508 0ed3 AE040000 		.4byte	0x4ae
 2509 0ed7 10       		.uleb128 0x10
 2510 0ed8 7C020000 		.4byte	0x27c
 2511 0edc 00       		.byte	0
 2512 0edd 29       		.uleb128 0x29
 2513 0ede 1D040000 		.4byte	.LASF124
 2514 0ee2 0E       		.byte	0xe
 2515 0ee3 E0       		.byte	0xe0
 2516 0ee4 28       		.uleb128 0x28
 2517 0ee5 94040000 		.4byte	.LASF125
 2518 0ee9 0D       		.byte	0xd
 2519 0eea 2701     		.2byte	0x127
 2520 0eec FB0E0000 		.4byte	0xefb
 2521 0ef0 10       		.uleb128 0x10
 2522 0ef1 F40B0000 		.4byte	0xbf4
 2523 0ef5 10       		.uleb128 0x10
 2524 0ef6 5A0C0000 		.4byte	0xc5a
 2525 0efa 00       		.byte	0
 2526 0efb 29       		.uleb128 0x29
 2527 0efc 9C030000 		.4byte	.LASF126
 2528 0f00 0E       		.byte	0xe
 2529 0f01 E1       		.byte	0xe1
 2530 0f02 28       		.uleb128 0x28
 2531 0f03 09040000 		.4byte	.LASF127
 2532 0f07 0D       		.byte	0xd
 2533 0f08 2801     		.2byte	0x128
 2534 0f0a 140F0000 		.4byte	0xf14
 2535 0f0e 10       		.uleb128 0x10
 2536 0f0f F40B0000 		.4byte	0xbf4
 2537 0f13 00       		.byte	0
 2538 0f14 28       		.uleb128 0x28
 2539 0f15 2B060000 		.4byte	.LASF128
 2540 0f19 0A       		.byte	0xa
 2541 0f1a 6501     		.2byte	0x165
 2542 0f1c 260F0000 		.4byte	0xf26
 2543 0f20 10       		.uleb128 0x10
 2544 0f21 480E0000 		.4byte	0xe48
 2545 0f25 00       		.byte	0
 2546 0f26 28       		.uleb128 0x28
 2547 0f27 EC010000 		.4byte	.LASF129
 2548 0f2b 0A       		.byte	0xa
 2549 0f2c 5D01     		.2byte	0x15d
 2550 0f2e 380F0000 		.4byte	0xf38
 2551 0f32 10       		.uleb128 0x10
 2552 0f33 1D0E0000 		.4byte	0xe1d
 2553 0f37 00       		.byte	0
 2554 0f38 29       		.uleb128 0x29
 2555 0f39 11030000 		.4byte	.LASF130
 2556 0f3d 0F       		.byte	0xf
 2557 0f3e 95       		.byte	0x95
ARM GAS  /var/folders/qh/xwg3v3kj02qbxczjpdb8lzfr0000gn/T//ccu5ZTbw.s 			page 46


 2558 0f3f 29       		.uleb128 0x29
 2559 0f40 00000000 		.4byte	.LASF131
 2560 0f44 0E       		.byte	0xe
 2561 0f45 E6       		.byte	0xe6
 2562 0f46 26       		.uleb128 0x26
 2563 0f47 45040000 		.4byte	.LASF132
 2564 0f4b 0A       		.byte	0xa
 2565 0f4c 5E01     		.2byte	0x15e
 2566 0f4e EB000000 		.4byte	0xeb
 2567 0f52 610F0000 		.4byte	0xf61
 2568 0f56 10       		.uleb128 0x10
 2569 0f57 1D0E0000 		.4byte	0xe1d
 2570 0f5b 10       		.uleb128 0x10
 2571 0f5c 45000000 		.4byte	0x45
 2572 0f60 00       		.byte	0
 2573 0f61 2A       		.uleb128 0x2a
 2574 0f62 7F030000 		.4byte	.LASF133
 2575 0f66 09       		.byte	0x9
 2576 0f67 B3       		.byte	0xb3
 2577 0f68 770F0000 		.4byte	0xf77
 2578 0f6c 10       		.uleb128 0x10
 2579 0f6d 770F0000 		.4byte	0xf77
 2580 0f71 10       		.uleb128 0x10
 2581 0f72 01010000 		.4byte	0x101
 2582 0f76 00       		.byte	0
 2583 0f77 09       		.uleb128 0x9
 2584 0f78 04       		.byte	0x4
 2585 0f79 C9030000 		.4byte	0x3c9
 2586 0f7d 2B       		.uleb128 0x2b
 2587 0f7e 54050000 		.4byte	.LASF134
 2588 0f82 0A       		.byte	0xa
 2589 0f83 6701     		.2byte	0x167
 2590 0f85 EB000000 		.4byte	0xeb
 2591 0f89 10       		.uleb128 0x10
 2592 0f8a 480E0000 		.4byte	0xe48
 2593 0f8e 00       		.byte	0
 2594 0f8f 00       		.byte	0
 2595              		.section	.debug_abbrev,"",%progbits
 2596              	.Ldebug_abbrev0:
 2597 0000 01       		.uleb128 0x1
 2598 0001 11       		.uleb128 0x11
 2599 0002 01       		.byte	0x1
 2600 0003 25       		.uleb128 0x25
 2601 0004 0E       		.uleb128 0xe
 2602 0005 13       		.uleb128 0x13
 2603 0006 0B       		.uleb128 0xb
 2604 0007 03       		.uleb128 0x3
 2605 0008 0E       		.uleb128 0xe
 2606 0009 1B       		.uleb128 0x1b
 2607 000a 0E       		.uleb128 0xe
 2608 000b 55       		.uleb128 0x55
 2609 000c 17       		.uleb128 0x17
 2610 000d 11       		.uleb128 0x11
 2611 000e 01       		.uleb128 0x1
 2612 000f 10       		.uleb128 0x10
 2613 0010 17       		.uleb128 0x17
 2614 0011 00       		.byte	0
ARM GAS  /var/folders/qh/xwg3v3kj02qbxczjpdb8lzfr0000gn/T//ccu5ZTbw.s 			page 47


 2615 0012 00       		.byte	0
 2616 0013 02       		.uleb128 0x2
 2617 0014 24       		.uleb128 0x24
 2618 0015 00       		.byte	0
 2619 0016 0B       		.uleb128 0xb
 2620 0017 0B       		.uleb128 0xb
 2621 0018 3E       		.uleb128 0x3e
 2622 0019 0B       		.uleb128 0xb
 2623 001a 03       		.uleb128 0x3
 2624 001b 08       		.uleb128 0x8
 2625 001c 00       		.byte	0
 2626 001d 00       		.byte	0
 2627 001e 03       		.uleb128 0x3
 2628 001f 16       		.uleb128 0x16
 2629 0020 00       		.byte	0
 2630 0021 03       		.uleb128 0x3
 2631 0022 0E       		.uleb128 0xe
 2632 0023 3A       		.uleb128 0x3a
 2633 0024 0B       		.uleb128 0xb
 2634 0025 3B       		.uleb128 0x3b
 2635 0026 0B       		.uleb128 0xb
 2636 0027 49       		.uleb128 0x49
 2637 0028 13       		.uleb128 0x13
 2638 0029 00       		.byte	0
 2639 002a 00       		.byte	0
 2640 002b 04       		.uleb128 0x4
 2641 002c 24       		.uleb128 0x24
 2642 002d 00       		.byte	0
 2643 002e 0B       		.uleb128 0xb
 2644 002f 0B       		.uleb128 0xb
 2645 0030 3E       		.uleb128 0x3e
 2646 0031 0B       		.uleb128 0xb
 2647 0032 03       		.uleb128 0x3
 2648 0033 0E       		.uleb128 0xe
 2649 0034 00       		.byte	0
 2650 0035 00       		.byte	0
 2651 0036 05       		.uleb128 0x5
 2652 0037 13       		.uleb128 0x13
 2653 0038 01       		.byte	0x1
 2654 0039 03       		.uleb128 0x3
 2655 003a 0E       		.uleb128 0xe
 2656 003b 0B       		.uleb128 0xb
 2657 003c 0B       		.uleb128 0xb
 2658 003d 3A       		.uleb128 0x3a
 2659 003e 0B       		.uleb128 0xb
 2660 003f 3B       		.uleb128 0x3b
 2661 0040 0B       		.uleb128 0xb
 2662 0041 01       		.uleb128 0x1
 2663 0042 13       		.uleb128 0x13
 2664 0043 00       		.byte	0
 2665 0044 00       		.byte	0
 2666 0045 06       		.uleb128 0x6
 2667 0046 0D       		.uleb128 0xd
 2668 0047 00       		.byte	0
 2669 0048 03       		.uleb128 0x3
 2670 0049 0E       		.uleb128 0xe
 2671 004a 3A       		.uleb128 0x3a
ARM GAS  /var/folders/qh/xwg3v3kj02qbxczjpdb8lzfr0000gn/T//ccu5ZTbw.s 			page 48


 2672 004b 0B       		.uleb128 0xb
 2673 004c 3B       		.uleb128 0x3b
 2674 004d 0B       		.uleb128 0xb
 2675 004e 49       		.uleb128 0x49
 2676 004f 13       		.uleb128 0x13
 2677 0050 38       		.uleb128 0x38
 2678 0051 0B       		.uleb128 0xb
 2679 0052 00       		.byte	0
 2680 0053 00       		.byte	0
 2681 0054 07       		.uleb128 0x7
 2682 0055 0D       		.uleb128 0xd
 2683 0056 00       		.byte	0
 2684 0057 03       		.uleb128 0x3
 2685 0058 08       		.uleb128 0x8
 2686 0059 3A       		.uleb128 0x3a
 2687 005a 0B       		.uleb128 0xb
 2688 005b 3B       		.uleb128 0x3b
 2689 005c 0B       		.uleb128 0xb
 2690 005d 49       		.uleb128 0x49
 2691 005e 13       		.uleb128 0x13
 2692 005f 38       		.uleb128 0x38
 2693 0060 0B       		.uleb128 0xb
 2694 0061 00       		.byte	0
 2695 0062 00       		.byte	0
 2696 0063 08       		.uleb128 0x8
 2697 0064 13       		.uleb128 0x13
 2698 0065 01       		.byte	0x1
 2699 0066 0B       		.uleb128 0xb
 2700 0067 0B       		.uleb128 0xb
 2701 0068 3A       		.uleb128 0x3a
 2702 0069 0B       		.uleb128 0xb
 2703 006a 3B       		.uleb128 0x3b
 2704 006b 0B       		.uleb128 0xb
 2705 006c 01       		.uleb128 0x1
 2706 006d 13       		.uleb128 0x13
 2707 006e 00       		.byte	0
 2708 006f 00       		.byte	0
 2709 0070 09       		.uleb128 0x9
 2710 0071 0F       		.uleb128 0xf
 2711 0072 00       		.byte	0
 2712 0073 0B       		.uleb128 0xb
 2713 0074 0B       		.uleb128 0xb
 2714 0075 49       		.uleb128 0x49
 2715 0076 13       		.uleb128 0x13
 2716 0077 00       		.byte	0
 2717 0078 00       		.byte	0
 2718 0079 0A       		.uleb128 0xa
 2719 007a 0F       		.uleb128 0xf
 2720 007b 00       		.byte	0
 2721 007c 0B       		.uleb128 0xb
 2722 007d 0B       		.uleb128 0xb
 2723 007e 00       		.byte	0
 2724 007f 00       		.byte	0
 2725 0080 0B       		.uleb128 0xb
 2726 0081 35       		.uleb128 0x35
 2727 0082 00       		.byte	0
 2728 0083 49       		.uleb128 0x49
ARM GAS  /var/folders/qh/xwg3v3kj02qbxczjpdb8lzfr0000gn/T//ccu5ZTbw.s 			page 49


 2729 0084 13       		.uleb128 0x13
 2730 0085 00       		.byte	0
 2731 0086 00       		.byte	0
 2732 0087 0C       		.uleb128 0xc
 2733 0088 17       		.uleb128 0x17
 2734 0089 01       		.byte	0x1
 2735 008a 0B       		.uleb128 0xb
 2736 008b 0B       		.uleb128 0xb
 2737 008c 3A       		.uleb128 0x3a
 2738 008d 0B       		.uleb128 0xb
 2739 008e 3B       		.uleb128 0x3b
 2740 008f 0B       		.uleb128 0xb
 2741 0090 01       		.uleb128 0x1
 2742 0091 13       		.uleb128 0x13
 2743 0092 00       		.byte	0
 2744 0093 00       		.byte	0
 2745 0094 0D       		.uleb128 0xd
 2746 0095 0D       		.uleb128 0xd
 2747 0096 00       		.byte	0
 2748 0097 03       		.uleb128 0x3
 2749 0098 0E       		.uleb128 0xe
 2750 0099 3A       		.uleb128 0x3a
 2751 009a 0B       		.uleb128 0xb
 2752 009b 3B       		.uleb128 0x3b
 2753 009c 0B       		.uleb128 0xb
 2754 009d 49       		.uleb128 0x49
 2755 009e 13       		.uleb128 0x13
 2756 009f 00       		.byte	0
 2757 00a0 00       		.byte	0
 2758 00a1 0E       		.uleb128 0xe
 2759 00a2 26       		.uleb128 0x26
 2760 00a3 00       		.byte	0
 2761 00a4 49       		.uleb128 0x49
 2762 00a5 13       		.uleb128 0x13
 2763 00a6 00       		.byte	0
 2764 00a7 00       		.byte	0
 2765 00a8 0F       		.uleb128 0xf
 2766 00a9 15       		.uleb128 0x15
 2767 00aa 01       		.byte	0x1
 2768 00ab 27       		.uleb128 0x27
 2769 00ac 19       		.uleb128 0x19
 2770 00ad 49       		.uleb128 0x49
 2771 00ae 13       		.uleb128 0x13
 2772 00af 01       		.uleb128 0x1
 2773 00b0 13       		.uleb128 0x13
 2774 00b1 00       		.byte	0
 2775 00b2 00       		.byte	0
 2776 00b3 10       		.uleb128 0x10
 2777 00b4 05       		.uleb128 0x5
 2778 00b5 00       		.byte	0
 2779 00b6 49       		.uleb128 0x49
 2780 00b7 13       		.uleb128 0x13
 2781 00b8 00       		.byte	0
 2782 00b9 00       		.byte	0
 2783 00ba 11       		.uleb128 0x11
 2784 00bb 15       		.uleb128 0x15
 2785 00bc 01       		.byte	0x1
ARM GAS  /var/folders/qh/xwg3v3kj02qbxczjpdb8lzfr0000gn/T//ccu5ZTbw.s 			page 50


 2786 00bd 27       		.uleb128 0x27
 2787 00be 19       		.uleb128 0x19
 2788 00bf 01       		.uleb128 0x1
 2789 00c0 13       		.uleb128 0x13
 2790 00c1 00       		.byte	0
 2791 00c2 00       		.byte	0
 2792 00c3 12       		.uleb128 0x12
 2793 00c4 13       		.uleb128 0x13
 2794 00c5 01       		.byte	0x1
 2795 00c6 0B       		.uleb128 0xb
 2796 00c7 0B       		.uleb128 0xb
 2797 00c8 3A       		.uleb128 0x3a
 2798 00c9 0B       		.uleb128 0xb
 2799 00ca 3B       		.uleb128 0x3b
 2800 00cb 05       		.uleb128 0x5
 2801 00cc 01       		.uleb128 0x1
 2802 00cd 13       		.uleb128 0x13
 2803 00ce 00       		.byte	0
 2804 00cf 00       		.byte	0
 2805 00d0 13       		.uleb128 0x13
 2806 00d1 0D       		.uleb128 0xd
 2807 00d2 00       		.byte	0
 2808 00d3 03       		.uleb128 0x3
 2809 00d4 08       		.uleb128 0x8
 2810 00d5 3A       		.uleb128 0x3a
 2811 00d6 0B       		.uleb128 0xb
 2812 00d7 3B       		.uleb128 0x3b
 2813 00d8 05       		.uleb128 0x5
 2814 00d9 49       		.uleb128 0x49
 2815 00da 13       		.uleb128 0x13
 2816 00db 38       		.uleb128 0x38
 2817 00dc 0B       		.uleb128 0xb
 2818 00dd 00       		.byte	0
 2819 00de 00       		.byte	0
 2820 00df 14       		.uleb128 0x14
 2821 00e0 0D       		.uleb128 0xd
 2822 00e1 00       		.byte	0
 2823 00e2 03       		.uleb128 0x3
 2824 00e3 0E       		.uleb128 0xe
 2825 00e4 3A       		.uleb128 0x3a
 2826 00e5 0B       		.uleb128 0xb
 2827 00e6 3B       		.uleb128 0x3b
 2828 00e7 05       		.uleb128 0x5
 2829 00e8 49       		.uleb128 0x49
 2830 00e9 13       		.uleb128 0x13
 2831 00ea 38       		.uleb128 0x38
 2832 00eb 0B       		.uleb128 0xb
 2833 00ec 00       		.byte	0
 2834 00ed 00       		.byte	0
 2835 00ee 15       		.uleb128 0x15
 2836 00ef 16       		.uleb128 0x16
 2837 00f0 00       		.byte	0
 2838 00f1 03       		.uleb128 0x3
 2839 00f2 0E       		.uleb128 0xe
 2840 00f3 3A       		.uleb128 0x3a
 2841 00f4 0B       		.uleb128 0xb
 2842 00f5 3B       		.uleb128 0x3b
ARM GAS  /var/folders/qh/xwg3v3kj02qbxczjpdb8lzfr0000gn/T//ccu5ZTbw.s 			page 51


 2843 00f6 05       		.uleb128 0x5
 2844 00f7 49       		.uleb128 0x49
 2845 00f8 13       		.uleb128 0x13
 2846 00f9 00       		.byte	0
 2847 00fa 00       		.byte	0
 2848 00fb 16       		.uleb128 0x16
 2849 00fc 04       		.uleb128 0x4
 2850 00fd 01       		.byte	0x1
 2851 00fe 0B       		.uleb128 0xb
 2852 00ff 0B       		.uleb128 0xb
 2853 0100 3A       		.uleb128 0x3a
 2854 0101 0B       		.uleb128 0xb
 2855 0102 3B       		.uleb128 0x3b
 2856 0103 0B       		.uleb128 0xb
 2857 0104 01       		.uleb128 0x1
 2858 0105 13       		.uleb128 0x13
 2859 0106 00       		.byte	0
 2860 0107 00       		.byte	0
 2861 0108 17       		.uleb128 0x17
 2862 0109 28       		.uleb128 0x28
 2863 010a 00       		.byte	0
 2864 010b 03       		.uleb128 0x3
 2865 010c 0E       		.uleb128 0xe
 2866 010d 1C       		.uleb128 0x1c
 2867 010e 0D       		.uleb128 0xd
 2868 010f 00       		.byte	0
 2869 0110 00       		.byte	0
 2870 0111 18       		.uleb128 0x18
 2871 0112 01       		.uleb128 0x1
 2872 0113 01       		.byte	0x1
 2873 0114 49       		.uleb128 0x49
 2874 0115 13       		.uleb128 0x13
 2875 0116 01       		.uleb128 0x1
 2876 0117 13       		.uleb128 0x13
 2877 0118 00       		.byte	0
 2878 0119 00       		.byte	0
 2879 011a 19       		.uleb128 0x19
 2880 011b 21       		.uleb128 0x21
 2881 011c 00       		.byte	0
 2882 011d 49       		.uleb128 0x49
 2883 011e 13       		.uleb128 0x13
 2884 011f 2F       		.uleb128 0x2f
 2885 0120 0B       		.uleb128 0xb
 2886 0121 00       		.byte	0
 2887 0122 00       		.byte	0
 2888 0123 1A       		.uleb128 0x1a
 2889 0124 2E       		.uleb128 0x2e
 2890 0125 01       		.byte	0x1
 2891 0126 03       		.uleb128 0x3
 2892 0127 0E       		.uleb128 0xe
 2893 0128 3A       		.uleb128 0x3a
 2894 0129 0B       		.uleb128 0xb
 2895 012a 3B       		.uleb128 0x3b
 2896 012b 0B       		.uleb128 0xb
 2897 012c 27       		.uleb128 0x27
 2898 012d 19       		.uleb128 0x19
 2899 012e 49       		.uleb128 0x49
ARM GAS  /var/folders/qh/xwg3v3kj02qbxczjpdb8lzfr0000gn/T//ccu5ZTbw.s 			page 52


 2900 012f 13       		.uleb128 0x13
 2901 0130 11       		.uleb128 0x11
 2902 0131 01       		.uleb128 0x1
 2903 0132 12       		.uleb128 0x12
 2904 0133 06       		.uleb128 0x6
 2905 0134 40       		.uleb128 0x40
 2906 0135 18       		.uleb128 0x18
 2907 0136 9742     		.uleb128 0x2117
 2908 0138 19       		.uleb128 0x19
 2909 0139 01       		.uleb128 0x1
 2910 013a 13       		.uleb128 0x13
 2911 013b 00       		.byte	0
 2912 013c 00       		.byte	0
 2913 013d 1B       		.uleb128 0x1b
 2914 013e 05       		.uleb128 0x5
 2915 013f 00       		.byte	0
 2916 0140 03       		.uleb128 0x3
 2917 0141 08       		.uleb128 0x8
 2918 0142 3A       		.uleb128 0x3a
 2919 0143 0B       		.uleb128 0xb
 2920 0144 3B       		.uleb128 0x3b
 2921 0145 0B       		.uleb128 0xb
 2922 0146 49       		.uleb128 0x49
 2923 0147 13       		.uleb128 0x13
 2924 0148 02       		.uleb128 0x2
 2925 0149 17       		.uleb128 0x17
 2926 014a 00       		.byte	0
 2927 014b 00       		.byte	0
 2928 014c 1C       		.uleb128 0x1c
 2929 014d 05       		.uleb128 0x5
 2930 014e 00       		.byte	0
 2931 014f 03       		.uleb128 0x3
 2932 0150 0E       		.uleb128 0xe
 2933 0151 3A       		.uleb128 0x3a
 2934 0152 0B       		.uleb128 0xb
 2935 0153 3B       		.uleb128 0x3b
 2936 0154 0B       		.uleb128 0xb
 2937 0155 49       		.uleb128 0x49
 2938 0156 13       		.uleb128 0x13
 2939 0157 02       		.uleb128 0x2
 2940 0158 17       		.uleb128 0x17
 2941 0159 00       		.byte	0
 2942 015a 00       		.byte	0
 2943 015b 1D       		.uleb128 0x1d
 2944 015c 898201   		.uleb128 0x4109
 2945 015f 01       		.byte	0x1
 2946 0160 11       		.uleb128 0x11
 2947 0161 01       		.uleb128 0x1
 2948 0162 31       		.uleb128 0x31
 2949 0163 13       		.uleb128 0x13
 2950 0164 00       		.byte	0
 2951 0165 00       		.byte	0
 2952 0166 1E       		.uleb128 0x1e
 2953 0167 8A8201   		.uleb128 0x410a
 2954 016a 00       		.byte	0
 2955 016b 02       		.uleb128 0x2
 2956 016c 18       		.uleb128 0x18
ARM GAS  /var/folders/qh/xwg3v3kj02qbxczjpdb8lzfr0000gn/T//ccu5ZTbw.s 			page 53


 2957 016d 9142     		.uleb128 0x2111
 2958 016f 18       		.uleb128 0x18
 2959 0170 00       		.byte	0
 2960 0171 00       		.byte	0
 2961 0172 1F       		.uleb128 0x1f
 2962 0173 2E       		.uleb128 0x2e
 2963 0174 01       		.byte	0x1
 2964 0175 03       		.uleb128 0x3
 2965 0176 08       		.uleb128 0x8
 2966 0177 3A       		.uleb128 0x3a
 2967 0178 0B       		.uleb128 0xb
 2968 0179 3B       		.uleb128 0x3b
 2969 017a 0B       		.uleb128 0xb
 2970 017b 27       		.uleb128 0x27
 2971 017c 19       		.uleb128 0x19
 2972 017d 49       		.uleb128 0x49
 2973 017e 13       		.uleb128 0x13
 2974 017f 11       		.uleb128 0x11
 2975 0180 01       		.uleb128 0x1
 2976 0181 12       		.uleb128 0x12
 2977 0182 06       		.uleb128 0x6
 2978 0183 40       		.uleb128 0x40
 2979 0184 18       		.uleb128 0x18
 2980 0185 9742     		.uleb128 0x2117
 2981 0187 19       		.uleb128 0x19
 2982 0188 01       		.uleb128 0x1
 2983 0189 13       		.uleb128 0x13
 2984 018a 00       		.byte	0
 2985 018b 00       		.byte	0
 2986 018c 20       		.uleb128 0x20
 2987 018d 2E       		.uleb128 0x2e
 2988 018e 01       		.byte	0x1
 2989 018f 3F       		.uleb128 0x3f
 2990 0190 19       		.uleb128 0x19
 2991 0191 03       		.uleb128 0x3
 2992 0192 0E       		.uleb128 0xe
 2993 0193 3A       		.uleb128 0x3a
 2994 0194 0B       		.uleb128 0xb
 2995 0195 3B       		.uleb128 0x3b
 2996 0196 0B       		.uleb128 0xb
 2997 0197 27       		.uleb128 0x27
 2998 0198 19       		.uleb128 0x19
 2999 0199 11       		.uleb128 0x11
 3000 019a 01       		.uleb128 0x1
 3001 019b 12       		.uleb128 0x12
 3002 019c 06       		.uleb128 0x6
 3003 019d 40       		.uleb128 0x40
 3004 019e 18       		.uleb128 0x18
 3005 019f 9742     		.uleb128 0x2117
 3006 01a1 19       		.uleb128 0x19
 3007 01a2 01       		.uleb128 0x1
 3008 01a3 13       		.uleb128 0x13
 3009 01a4 00       		.byte	0
 3010 01a5 00       		.byte	0
 3011 01a6 21       		.uleb128 0x21
 3012 01a7 898201   		.uleb128 0x4109
 3013 01aa 00       		.byte	0
ARM GAS  /var/folders/qh/xwg3v3kj02qbxczjpdb8lzfr0000gn/T//ccu5ZTbw.s 			page 54


 3014 01ab 11       		.uleb128 0x11
 3015 01ac 01       		.uleb128 0x1
 3016 01ad 31       		.uleb128 0x31
 3017 01ae 13       		.uleb128 0x13
 3018 01af 00       		.byte	0
 3019 01b0 00       		.byte	0
 3020 01b1 22       		.uleb128 0x22
 3021 01b2 898201   		.uleb128 0x4109
 3022 01b5 01       		.byte	0x1
 3023 01b6 11       		.uleb128 0x11
 3024 01b7 01       		.uleb128 0x1
 3025 01b8 31       		.uleb128 0x31
 3026 01b9 13       		.uleb128 0x13
 3027 01ba 01       		.uleb128 0x1
 3028 01bb 13       		.uleb128 0x13
 3029 01bc 00       		.byte	0
 3030 01bd 00       		.byte	0
 3031 01be 23       		.uleb128 0x23
 3032 01bf 2E       		.uleb128 0x2e
 3033 01c0 01       		.byte	0x1
 3034 01c1 3F       		.uleb128 0x3f
 3035 01c2 19       		.uleb128 0x19
 3036 01c3 03       		.uleb128 0x3
 3037 01c4 0E       		.uleb128 0xe
 3038 01c5 3A       		.uleb128 0x3a
 3039 01c6 0B       		.uleb128 0xb
 3040 01c7 3B       		.uleb128 0x3b
 3041 01c8 0B       		.uleb128 0xb
 3042 01c9 27       		.uleb128 0x27
 3043 01ca 19       		.uleb128 0x19
 3044 01cb 49       		.uleb128 0x49
 3045 01cc 13       		.uleb128 0x13
 3046 01cd 11       		.uleb128 0x11
 3047 01ce 01       		.uleb128 0x1
 3048 01cf 12       		.uleb128 0x12
 3049 01d0 06       		.uleb128 0x6
 3050 01d1 40       		.uleb128 0x40
 3051 01d2 18       		.uleb128 0x18
 3052 01d3 9742     		.uleb128 0x2117
 3053 01d5 19       		.uleb128 0x19
 3054 01d6 01       		.uleb128 0x1
 3055 01d7 13       		.uleb128 0x13
 3056 01d8 00       		.byte	0
 3057 01d9 00       		.byte	0
 3058 01da 24       		.uleb128 0x24
 3059 01db 34       		.uleb128 0x34
 3060 01dc 00       		.byte	0
 3061 01dd 03       		.uleb128 0x3
 3062 01de 08       		.uleb128 0x8
 3063 01df 3A       		.uleb128 0x3a
 3064 01e0 0B       		.uleb128 0xb
 3065 01e1 3B       		.uleb128 0x3b
 3066 01e2 0B       		.uleb128 0xb
 3067 01e3 49       		.uleb128 0x49
 3068 01e4 13       		.uleb128 0x13
 3069 01e5 02       		.uleb128 0x2
 3070 01e6 17       		.uleb128 0x17
ARM GAS  /var/folders/qh/xwg3v3kj02qbxczjpdb8lzfr0000gn/T//ccu5ZTbw.s 			page 55


 3071 01e7 00       		.byte	0
 3072 01e8 00       		.byte	0
 3073 01e9 25       		.uleb128 0x25
 3074 01ea 34       		.uleb128 0x34
 3075 01eb 00       		.byte	0
 3076 01ec 03       		.uleb128 0x3
 3077 01ed 08       		.uleb128 0x8
 3078 01ee 3A       		.uleb128 0x3a
 3079 01ef 0B       		.uleb128 0xb
 3080 01f0 3B       		.uleb128 0x3b
 3081 01f1 0B       		.uleb128 0xb
 3082 01f2 49       		.uleb128 0x49
 3083 01f3 13       		.uleb128 0x13
 3084 01f4 02       		.uleb128 0x2
 3085 01f5 18       		.uleb128 0x18
 3086 01f6 00       		.byte	0
 3087 01f7 00       		.byte	0
 3088 01f8 26       		.uleb128 0x26
 3089 01f9 2E       		.uleb128 0x2e
 3090 01fa 01       		.byte	0x1
 3091 01fb 3F       		.uleb128 0x3f
 3092 01fc 19       		.uleb128 0x19
 3093 01fd 03       		.uleb128 0x3
 3094 01fe 0E       		.uleb128 0xe
 3095 01ff 3A       		.uleb128 0x3a
 3096 0200 0B       		.uleb128 0xb
 3097 0201 3B       		.uleb128 0x3b
 3098 0202 05       		.uleb128 0x5
 3099 0203 27       		.uleb128 0x27
 3100 0204 19       		.uleb128 0x19
 3101 0205 49       		.uleb128 0x49
 3102 0206 13       		.uleb128 0x13
 3103 0207 3C       		.uleb128 0x3c
 3104 0208 19       		.uleb128 0x19
 3105 0209 01       		.uleb128 0x1
 3106 020a 13       		.uleb128 0x13
 3107 020b 00       		.byte	0
 3108 020c 00       		.byte	0
 3109 020d 27       		.uleb128 0x27
 3110 020e 2E       		.uleb128 0x2e
 3111 020f 00       		.byte	0
 3112 0210 3F       		.uleb128 0x3f
 3113 0211 19       		.uleb128 0x19
 3114 0212 03       		.uleb128 0x3
 3115 0213 0E       		.uleb128 0xe
 3116 0214 3A       		.uleb128 0x3a
 3117 0215 0B       		.uleb128 0xb
 3118 0216 3B       		.uleb128 0x3b
 3119 0217 05       		.uleb128 0x5
 3120 0218 27       		.uleb128 0x27
 3121 0219 19       		.uleb128 0x19
 3122 021a 3C       		.uleb128 0x3c
 3123 021b 19       		.uleb128 0x19
 3124 021c 00       		.byte	0
 3125 021d 00       		.byte	0
 3126 021e 28       		.uleb128 0x28
 3127 021f 2E       		.uleb128 0x2e
ARM GAS  /var/folders/qh/xwg3v3kj02qbxczjpdb8lzfr0000gn/T//ccu5ZTbw.s 			page 56


 3128 0220 01       		.byte	0x1
 3129 0221 3F       		.uleb128 0x3f
 3130 0222 19       		.uleb128 0x19
 3131 0223 03       		.uleb128 0x3
 3132 0224 0E       		.uleb128 0xe
 3133 0225 3A       		.uleb128 0x3a
 3134 0226 0B       		.uleb128 0xb
 3135 0227 3B       		.uleb128 0x3b
 3136 0228 05       		.uleb128 0x5
 3137 0229 27       		.uleb128 0x27
 3138 022a 19       		.uleb128 0x19
 3139 022b 3C       		.uleb128 0x3c
 3140 022c 19       		.uleb128 0x19
 3141 022d 01       		.uleb128 0x1
 3142 022e 13       		.uleb128 0x13
 3143 022f 00       		.byte	0
 3144 0230 00       		.byte	0
 3145 0231 29       		.uleb128 0x29
 3146 0232 2E       		.uleb128 0x2e
 3147 0233 00       		.byte	0
 3148 0234 3F       		.uleb128 0x3f
 3149 0235 19       		.uleb128 0x19
 3150 0236 03       		.uleb128 0x3
 3151 0237 0E       		.uleb128 0xe
 3152 0238 3A       		.uleb128 0x3a
 3153 0239 0B       		.uleb128 0xb
 3154 023a 3B       		.uleb128 0x3b
 3155 023b 0B       		.uleb128 0xb
 3156 023c 27       		.uleb128 0x27
 3157 023d 19       		.uleb128 0x19
 3158 023e 3C       		.uleb128 0x3c
 3159 023f 19       		.uleb128 0x19
 3160 0240 00       		.byte	0
 3161 0241 00       		.byte	0
 3162 0242 2A       		.uleb128 0x2a
 3163 0243 2E       		.uleb128 0x2e
 3164 0244 01       		.byte	0x1
 3165 0245 3F       		.uleb128 0x3f
 3166 0246 19       		.uleb128 0x19
 3167 0247 03       		.uleb128 0x3
 3168 0248 0E       		.uleb128 0xe
 3169 0249 3A       		.uleb128 0x3a
 3170 024a 0B       		.uleb128 0xb
 3171 024b 3B       		.uleb128 0x3b
 3172 024c 0B       		.uleb128 0xb
 3173 024d 27       		.uleb128 0x27
 3174 024e 19       		.uleb128 0x19
 3175 024f 3C       		.uleb128 0x3c
 3176 0250 19       		.uleb128 0x19
 3177 0251 01       		.uleb128 0x1
 3178 0252 13       		.uleb128 0x13
 3179 0253 00       		.byte	0
 3180 0254 00       		.byte	0
 3181 0255 2B       		.uleb128 0x2b
 3182 0256 2E       		.uleb128 0x2e
 3183 0257 01       		.byte	0x1
 3184 0258 3F       		.uleb128 0x3f
ARM GAS  /var/folders/qh/xwg3v3kj02qbxczjpdb8lzfr0000gn/T//ccu5ZTbw.s 			page 57


 3185 0259 19       		.uleb128 0x19
 3186 025a 03       		.uleb128 0x3
 3187 025b 0E       		.uleb128 0xe
 3188 025c 3A       		.uleb128 0x3a
 3189 025d 0B       		.uleb128 0xb
 3190 025e 3B       		.uleb128 0x3b
 3191 025f 05       		.uleb128 0x5
 3192 0260 27       		.uleb128 0x27
 3193 0261 19       		.uleb128 0x19
 3194 0262 49       		.uleb128 0x49
 3195 0263 13       		.uleb128 0x13
 3196 0264 3C       		.uleb128 0x3c
 3197 0265 19       		.uleb128 0x19
 3198 0266 00       		.byte	0
 3199 0267 00       		.byte	0
 3200 0268 00       		.byte	0
 3201              		.section	.debug_loc,"",%progbits
 3202              	.Ldebug_loc0:
 3203              	.LLST0:
 3204 0000 00000000 		.4byte	.LVL0
 3205 0004 04000000 		.4byte	.LVL1
 3206 0008 0100     		.2byte	0x1
 3207 000a 50       		.byte	0x50
 3208 000b 04000000 		.4byte	.LVL1
 3209 000f 07000000 		.4byte	.LVL2-1
 3210 0013 0300     		.2byte	0x3
 3211 0015 70       		.byte	0x70
 3212 0016 74       		.sleb128 -12
 3213 0017 9F       		.byte	0x9f
 3214 0018 07000000 		.4byte	.LVL2-1
 3215 001c 0A000000 		.4byte	.LFE47
 3216 0020 0400     		.2byte	0x4
 3217 0022 F3       		.byte	0xf3
 3218 0023 01       		.uleb128 0x1
 3219 0024 50       		.byte	0x50
 3220 0025 9F       		.byte	0x9f
 3221 0026 00000000 		.4byte	0
 3222 002a 00000000 		.4byte	0
 3223              	.LLST1:
 3224 002e 00000000 		.4byte	.LVL0
 3225 0032 07000000 		.4byte	.LVL2-1
 3226 0036 0100     		.2byte	0x1
 3227 0038 51       		.byte	0x51
 3228 0039 07000000 		.4byte	.LVL2-1
 3229 003d 0A000000 		.4byte	.LFE47
 3230 0041 0400     		.2byte	0x4
 3231 0043 F3       		.byte	0xf3
 3232 0044 01       		.uleb128 0x1
 3233 0045 51       		.byte	0x51
 3234 0046 9F       		.byte	0x9f
 3235 0047 00000000 		.4byte	0
 3236 004b 00000000 		.4byte	0
 3237              	.LLST2:
 3238 004f 00000000 		.4byte	.LVL0
 3239 0053 07000000 		.4byte	.LVL2-1
 3240 0057 0100     		.2byte	0x1
 3241 0059 52       		.byte	0x52
ARM GAS  /var/folders/qh/xwg3v3kj02qbxczjpdb8lzfr0000gn/T//ccu5ZTbw.s 			page 58


 3242 005a 07000000 		.4byte	.LVL2-1
 3243 005e 0A000000 		.4byte	.LFE47
 3244 0062 0400     		.2byte	0x4
 3245 0064 F3       		.byte	0xf3
 3246 0065 01       		.uleb128 0x1
 3247 0066 52       		.byte	0x52
 3248 0067 9F       		.byte	0x9f
 3249 0068 00000000 		.4byte	0
 3250 006c 00000000 		.4byte	0
 3251              	.LLST3:
 3252 0070 00000000 		.4byte	.LVL0
 3253 0074 07000000 		.4byte	.LVL2-1
 3254 0078 0100     		.2byte	0x1
 3255 007a 53       		.byte	0x53
 3256 007b 07000000 		.4byte	.LVL2-1
 3257 007f 0A000000 		.4byte	.LFE47
 3258 0083 0400     		.2byte	0x4
 3259 0085 F3       		.byte	0xf3
 3260 0086 01       		.uleb128 0x1
 3261 0087 53       		.byte	0x53
 3262 0088 9F       		.byte	0x9f
 3263 0089 00000000 		.4byte	0
 3264 008d 00000000 		.4byte	0
 3265              	.LLST4:
 3266 0091 00000000 		.4byte	.LVL3
 3267 0095 06000000 		.4byte	.LVL4
 3268 0099 0100     		.2byte	0x1
 3269 009b 50       		.byte	0x50
 3270 009c 06000000 		.4byte	.LVL4
 3271 00a0 0B000000 		.4byte	.LVL5-1
 3272 00a4 0300     		.2byte	0x3
 3273 00a6 70       		.byte	0x70
 3274 00a7 74       		.sleb128 -12
 3275 00a8 9F       		.byte	0x9f
 3276 00a9 0B000000 		.4byte	.LVL5-1
 3277 00ad 0E000000 		.4byte	.LFE41
 3278 00b1 0400     		.2byte	0x4
 3279 00b3 F3       		.byte	0xf3
 3280 00b4 01       		.uleb128 0x1
 3281 00b5 50       		.byte	0x50
 3282 00b6 9F       		.byte	0x9f
 3283 00b7 00000000 		.4byte	0
 3284 00bb 00000000 		.4byte	0
 3285              	.LLST5:
 3286 00bf 00000000 		.4byte	.LVL3
 3287 00c3 0B000000 		.4byte	.LVL5-1
 3288 00c7 0100     		.2byte	0x1
 3289 00c9 51       		.byte	0x51
 3290 00ca 0B000000 		.4byte	.LVL5-1
 3291 00ce 0E000000 		.4byte	.LFE41
 3292 00d2 0400     		.2byte	0x4
 3293 00d4 F3       		.byte	0xf3
 3294 00d5 01       		.uleb128 0x1
 3295 00d6 51       		.byte	0x51
 3296 00d7 9F       		.byte	0x9f
 3297 00d8 00000000 		.4byte	0
 3298 00dc 00000000 		.4byte	0
ARM GAS  /var/folders/qh/xwg3v3kj02qbxczjpdb8lzfr0000gn/T//ccu5ZTbw.s 			page 59


 3299              	.LLST6:
 3300 00e0 00000000 		.4byte	.LVL3
 3301 00e4 0B000000 		.4byte	.LVL5-1
 3302 00e8 0100     		.2byte	0x1
 3303 00ea 52       		.byte	0x52
 3304 00eb 0B000000 		.4byte	.LVL5-1
 3305 00ef 0E000000 		.4byte	.LFE41
 3306 00f3 0400     		.2byte	0x4
 3307 00f5 F3       		.byte	0xf3
 3308 00f6 01       		.uleb128 0x1
 3309 00f7 52       		.byte	0x52
 3310 00f8 9F       		.byte	0x9f
 3311 00f9 00000000 		.4byte	0
 3312 00fd 00000000 		.4byte	0
 3313              	.LLST7:
 3314 0101 00000000 		.4byte	.LVL6
 3315 0105 04000000 		.4byte	.LVL7
 3316 0109 0100     		.2byte	0x1
 3317 010b 50       		.byte	0x50
 3318 010c 04000000 		.4byte	.LVL7
 3319 0110 07000000 		.4byte	.LVL8-1
 3320 0114 0300     		.2byte	0x3
 3321 0116 70       		.byte	0x70
 3322 0117 50       		.sleb128 -48
 3323 0118 9F       		.byte	0x9f
 3324 0119 07000000 		.4byte	.LVL8-1
 3325 011d 0A000000 		.4byte	.LFE46
 3326 0121 0400     		.2byte	0x4
 3327 0123 F3       		.byte	0xf3
 3328 0124 01       		.uleb128 0x1
 3329 0125 50       		.byte	0x50
 3330 0126 9F       		.byte	0x9f
 3331 0127 00000000 		.4byte	0
 3332 012b 00000000 		.4byte	0
 3333              	.LLST8:
 3334 012f 00000000 		.4byte	.LVL6
 3335 0133 07000000 		.4byte	.LVL8-1
 3336 0137 0100     		.2byte	0x1
 3337 0139 51       		.byte	0x51
 3338 013a 07000000 		.4byte	.LVL8-1
 3339 013e 0A000000 		.4byte	.LFE46
 3340 0142 0400     		.2byte	0x4
 3341 0144 F3       		.byte	0xf3
 3342 0145 01       		.uleb128 0x1
 3343 0146 51       		.byte	0x51
 3344 0147 9F       		.byte	0x9f
 3345 0148 00000000 		.4byte	0
 3346 014c 00000000 		.4byte	0
 3347              	.LLST9:
 3348 0150 00000000 		.4byte	.LVL6
 3349 0154 07000000 		.4byte	.LVL8-1
 3350 0158 0100     		.2byte	0x1
 3351 015a 52       		.byte	0x52
 3352 015b 07000000 		.4byte	.LVL8-1
 3353 015f 0A000000 		.4byte	.LFE46
 3354 0163 0400     		.2byte	0x4
 3355 0165 F3       		.byte	0xf3
ARM GAS  /var/folders/qh/xwg3v3kj02qbxczjpdb8lzfr0000gn/T//ccu5ZTbw.s 			page 60


 3356 0166 01       		.uleb128 0x1
 3357 0167 52       		.byte	0x52
 3358 0168 9F       		.byte	0x9f
 3359 0169 00000000 		.4byte	0
 3360 016d 00000000 		.4byte	0
 3361              	.LLST10:
 3362 0171 00000000 		.4byte	.LVL6
 3363 0175 07000000 		.4byte	.LVL8-1
 3364 0179 0100     		.2byte	0x1
 3365 017b 53       		.byte	0x53
 3366 017c 07000000 		.4byte	.LVL8-1
 3367 0180 0A000000 		.4byte	.LFE46
 3368 0184 0400     		.2byte	0x4
 3369 0186 F3       		.byte	0xf3
 3370 0187 01       		.uleb128 0x1
 3371 0188 53       		.byte	0x53
 3372 0189 9F       		.byte	0x9f
 3373 018a 00000000 		.4byte	0
 3374 018e 00000000 		.4byte	0
 3375              	.LLST11:
 3376 0192 00000000 		.4byte	.LVL9
 3377 0196 06000000 		.4byte	.LVL10
 3378 019a 0100     		.2byte	0x1
 3379 019c 50       		.byte	0x50
 3380 019d 06000000 		.4byte	.LVL10
 3381 01a1 0B000000 		.4byte	.LVL11-1
 3382 01a5 0300     		.2byte	0x3
 3383 01a7 70       		.byte	0x70
 3384 01a8 50       		.sleb128 -48
 3385 01a9 9F       		.byte	0x9f
 3386 01aa 0B000000 		.4byte	.LVL11-1
 3387 01ae 0E000000 		.4byte	.LFE40
 3388 01b2 0400     		.2byte	0x4
 3389 01b4 F3       		.byte	0xf3
 3390 01b5 01       		.uleb128 0x1
 3391 01b6 50       		.byte	0x50
 3392 01b7 9F       		.byte	0x9f
 3393 01b8 00000000 		.4byte	0
 3394 01bc 00000000 		.4byte	0
 3395              	.LLST12:
 3396 01c0 00000000 		.4byte	.LVL9
 3397 01c4 0B000000 		.4byte	.LVL11-1
 3398 01c8 0100     		.2byte	0x1
 3399 01ca 51       		.byte	0x51
 3400 01cb 0B000000 		.4byte	.LVL11-1
 3401 01cf 0E000000 		.4byte	.LFE40
 3402 01d3 0400     		.2byte	0x4
 3403 01d5 F3       		.byte	0xf3
 3404 01d6 01       		.uleb128 0x1
 3405 01d7 51       		.byte	0x51
 3406 01d8 9F       		.byte	0x9f
 3407 01d9 00000000 		.4byte	0
 3408 01dd 00000000 		.4byte	0
 3409              	.LLST13:
 3410 01e1 00000000 		.4byte	.LVL9
 3411 01e5 0B000000 		.4byte	.LVL11-1
 3412 01e9 0100     		.2byte	0x1
ARM GAS  /var/folders/qh/xwg3v3kj02qbxczjpdb8lzfr0000gn/T//ccu5ZTbw.s 			page 61


 3413 01eb 52       		.byte	0x52
 3414 01ec 0B000000 		.4byte	.LVL11-1
 3415 01f0 0E000000 		.4byte	.LFE40
 3416 01f4 0400     		.2byte	0x4
 3417 01f6 F3       		.byte	0xf3
 3418 01f7 01       		.uleb128 0x1
 3419 01f8 52       		.byte	0x52
 3420 01f9 9F       		.byte	0x9f
 3421 01fa 00000000 		.4byte	0
 3422 01fe 00000000 		.4byte	0
 3423              	.LLST14:
 3424 0202 00000000 		.4byte	.LVL12
 3425 0206 04000000 		.4byte	.LVL13
 3426 020a 0100     		.2byte	0x1
 3427 020c 50       		.byte	0x50
 3428 020d 04000000 		.4byte	.LVL13
 3429 0211 07000000 		.4byte	.LVL14-1
 3430 0215 0300     		.2byte	0x3
 3431 0217 70       		.byte	0x70
 3432 0218 74       		.sleb128 -12
 3433 0219 9F       		.byte	0x9f
 3434 021a 07000000 		.4byte	.LVL14-1
 3435 021e 0A000000 		.4byte	.LFE45
 3436 0222 0400     		.2byte	0x4
 3437 0224 F3       		.byte	0xf3
 3438 0225 01       		.uleb128 0x1
 3439 0226 50       		.byte	0x50
 3440 0227 9F       		.byte	0x9f
 3441 0228 00000000 		.4byte	0
 3442 022c 00000000 		.4byte	0
 3443              	.LLST15:
 3444 0230 00000000 		.4byte	.LVL12
 3445 0234 07000000 		.4byte	.LVL14-1
 3446 0238 0100     		.2byte	0x1
 3447 023a 51       		.byte	0x51
 3448 023b 07000000 		.4byte	.LVL14-1
 3449 023f 0A000000 		.4byte	.LFE45
 3450 0243 0400     		.2byte	0x4
 3451 0245 F3       		.byte	0xf3
 3452 0246 01       		.uleb128 0x1
 3453 0247 51       		.byte	0x51
 3454 0248 9F       		.byte	0x9f
 3455 0249 00000000 		.4byte	0
 3456 024d 00000000 		.4byte	0
 3457              	.LLST16:
 3458 0251 00000000 		.4byte	.LVL15
 3459 0255 06000000 		.4byte	.LVL16
 3460 0259 0100     		.2byte	0x1
 3461 025b 50       		.byte	0x50
 3462 025c 06000000 		.4byte	.LVL16
 3463 0260 0B000000 		.4byte	.LVL17-1
 3464 0264 0300     		.2byte	0x3
 3465 0266 70       		.byte	0x70
 3466 0267 74       		.sleb128 -12
 3467 0268 9F       		.byte	0x9f
 3468 0269 0B000000 		.4byte	.LVL17-1
 3469 026d 0E000000 		.4byte	.LFE43
ARM GAS  /var/folders/qh/xwg3v3kj02qbxczjpdb8lzfr0000gn/T//ccu5ZTbw.s 			page 62


 3470 0271 0400     		.2byte	0x4
 3471 0273 F3       		.byte	0xf3
 3472 0274 01       		.uleb128 0x1
 3473 0275 50       		.byte	0x50
 3474 0276 9F       		.byte	0x9f
 3475 0277 00000000 		.4byte	0
 3476 027b 00000000 		.4byte	0
 3477              	.LLST17:
 3478 027f 00000000 		.4byte	.LVL18
 3479 0283 04000000 		.4byte	.LVL19
 3480 0287 0100     		.2byte	0x1
 3481 0289 50       		.byte	0x50
 3482 028a 04000000 		.4byte	.LVL19
 3483 028e 07000000 		.4byte	.LVL20-1
 3484 0292 0300     		.2byte	0x3
 3485 0294 70       		.byte	0x70
 3486 0295 50       		.sleb128 -48
 3487 0296 9F       		.byte	0x9f
 3488 0297 07000000 		.4byte	.LVL20-1
 3489 029b 0A000000 		.4byte	.LFE44
 3490 029f 0400     		.2byte	0x4
 3491 02a1 F3       		.byte	0xf3
 3492 02a2 01       		.uleb128 0x1
 3493 02a3 50       		.byte	0x50
 3494 02a4 9F       		.byte	0x9f
 3495 02a5 00000000 		.4byte	0
 3496 02a9 00000000 		.4byte	0
 3497              	.LLST18:
 3498 02ad 00000000 		.4byte	.LVL18
 3499 02b1 07000000 		.4byte	.LVL20-1
 3500 02b5 0100     		.2byte	0x1
 3501 02b7 51       		.byte	0x51
 3502 02b8 07000000 		.4byte	.LVL20-1
 3503 02bc 0A000000 		.4byte	.LFE44
 3504 02c0 0400     		.2byte	0x4
 3505 02c2 F3       		.byte	0xf3
 3506 02c3 01       		.uleb128 0x1
 3507 02c4 51       		.byte	0x51
 3508 02c5 9F       		.byte	0x9f
 3509 02c6 00000000 		.4byte	0
 3510 02ca 00000000 		.4byte	0
 3511              	.LLST19:
 3512 02ce 00000000 		.4byte	.LVL18
 3513 02d2 07000000 		.4byte	.LVL20-1
 3514 02d6 0100     		.2byte	0x1
 3515 02d8 52       		.byte	0x52
 3516 02d9 07000000 		.4byte	.LVL20-1
 3517 02dd 0A000000 		.4byte	.LFE44
 3518 02e1 0400     		.2byte	0x4
 3519 02e3 F3       		.byte	0xf3
 3520 02e4 01       		.uleb128 0x1
 3521 02e5 52       		.byte	0x52
 3522 02e6 9F       		.byte	0x9f
 3523 02e7 00000000 		.4byte	0
 3524 02eb 00000000 		.4byte	0
 3525              	.LLST20:
 3526 02ef 00000000 		.4byte	.LVL21
ARM GAS  /var/folders/qh/xwg3v3kj02qbxczjpdb8lzfr0000gn/T//ccu5ZTbw.s 			page 63


 3527 02f3 06000000 		.4byte	.LVL22
 3528 02f7 0100     		.2byte	0x1
 3529 02f9 50       		.byte	0x50
 3530 02fa 06000000 		.4byte	.LVL22
 3531 02fe 0B000000 		.4byte	.LVL23-1
 3532 0302 0300     		.2byte	0x3
 3533 0304 70       		.byte	0x70
 3534 0305 50       		.sleb128 -48
 3535 0306 9F       		.byte	0x9f
 3536 0307 0B000000 		.4byte	.LVL23-1
 3537 030b 0E000000 		.4byte	.LFE42
 3538 030f 0400     		.2byte	0x4
 3539 0311 F3       		.byte	0xf3
 3540 0312 01       		.uleb128 0x1
 3541 0313 50       		.byte	0x50
 3542 0314 9F       		.byte	0x9f
 3543 0315 00000000 		.4byte	0
 3544 0319 00000000 		.4byte	0
 3545              	.LLST21:
 3546 031d 00000000 		.4byte	.LVL21
 3547 0321 0B000000 		.4byte	.LVL23-1
 3548 0325 0100     		.2byte	0x1
 3549 0327 51       		.byte	0x51
 3550 0328 0B000000 		.4byte	.LVL23-1
 3551 032c 0E000000 		.4byte	.LFE42
 3552 0330 0400     		.2byte	0x4
 3553 0332 F3       		.byte	0xf3
 3554 0333 01       		.uleb128 0x1
 3555 0334 51       		.byte	0x51
 3556 0335 9F       		.byte	0x9f
 3557 0336 00000000 		.4byte	0
 3558 033a 00000000 		.4byte	0
 3559              	.LLST22:
 3560 033e 00000000 		.4byte	.LVL25
 3561 0342 0A000000 		.4byte	.LVL27
 3562 0346 0100     		.2byte	0x1
 3563 0348 50       		.byte	0x50
 3564 0349 0A000000 		.4byte	.LVL27
 3565 034d 38000000 		.4byte	.LVL31
 3566 0351 0100     		.2byte	0x1
 3567 0353 54       		.byte	0x54
 3568 0354 38000000 		.4byte	.LVL31
 3569 0358 40000000 		.4byte	.LFE49
 3570 035c 0400     		.2byte	0x4
 3571 035e F3       		.byte	0xf3
 3572 035f 01       		.uleb128 0x1
 3573 0360 50       		.byte	0x50
 3574 0361 9F       		.byte	0x9f
 3575 0362 00000000 		.4byte	0
 3576 0366 00000000 		.4byte	0
 3577              	.LLST23:
 3578 036a 00000000 		.4byte	.LVL25
 3579 036e 16000000 		.4byte	.LVL28
 3580 0372 0100     		.2byte	0x1
 3581 0374 51       		.byte	0x51
 3582 0375 16000000 		.4byte	.LVL28
 3583 0379 23000000 		.4byte	.LVL29-1
ARM GAS  /var/folders/qh/xwg3v3kj02qbxczjpdb8lzfr0000gn/T//ccu5ZTbw.s 			page 64


 3584 037d 0100     		.2byte	0x1
 3585 037f 53       		.byte	0x53
 3586 0380 23000000 		.4byte	.LVL29-1
 3587 0384 40000000 		.4byte	.LFE49
 3588 0388 0400     		.2byte	0x4
 3589 038a F3       		.byte	0xf3
 3590 038b 01       		.uleb128 0x1
 3591 038c 51       		.byte	0x51
 3592 038d 9F       		.byte	0x9f
 3593 038e 00000000 		.4byte	0
 3594 0392 00000000 		.4byte	0
 3595              	.LLST24:
 3596 0396 00000000 		.4byte	.LVL25
 3597 039a 06000000 		.4byte	.LVL26
 3598 039e 0100     		.2byte	0x1
 3599 03a0 52       		.byte	0x52
 3600 03a1 06000000 		.4byte	.LVL26
 3601 03a5 38000000 		.4byte	.LVL32
 3602 03a9 0100     		.2byte	0x1
 3603 03ab 55       		.byte	0x55
 3604 03ac 38000000 		.4byte	.LVL32
 3605 03b0 40000000 		.4byte	.LFE49
 3606 03b4 0400     		.2byte	0x4
 3607 03b6 F3       		.byte	0xf3
 3608 03b7 01       		.uleb128 0x1
 3609 03b8 52       		.byte	0x52
 3610 03b9 9F       		.byte	0x9f
 3611 03ba 00000000 		.4byte	0
 3612 03be 00000000 		.4byte	0
 3613              	.LLST25:
 3614 03c2 00000000 		.4byte	.LVL33
 3615 03c6 0B000000 		.4byte	.LVL34-1
 3616 03ca 0100     		.2byte	0x1
 3617 03cc 50       		.byte	0x50
 3618 03cd 0B000000 		.4byte	.LVL34-1
 3619 03d1 1E000000 		.4byte	.LVL37
 3620 03d5 0100     		.2byte	0x1
 3621 03d7 54       		.byte	0x54
 3622 03d8 1E000000 		.4byte	.LVL37
 3623 03dc 20000000 		.4byte	.LFE50
 3624 03e0 0400     		.2byte	0x4
 3625 03e2 F3       		.byte	0xf3
 3626 03e3 01       		.uleb128 0x1
 3627 03e4 50       		.byte	0x50
 3628 03e5 9F       		.byte	0x9f
 3629 03e6 00000000 		.4byte	0
 3630 03ea 00000000 		.4byte	0
 3631              	.LLST26:
 3632 03ee 00000000 		.4byte	.LVL33
 3633 03f2 0B000000 		.4byte	.LVL34-1
 3634 03f6 0100     		.2byte	0x1
 3635 03f8 51       		.byte	0x51
 3636 03f9 0B000000 		.4byte	.LVL34-1
 3637 03fd 1E000000 		.4byte	.LVL38
 3638 0401 0100     		.2byte	0x1
 3639 0403 55       		.byte	0x55
 3640 0404 1E000000 		.4byte	.LVL38
ARM GAS  /var/folders/qh/xwg3v3kj02qbxczjpdb8lzfr0000gn/T//ccu5ZTbw.s 			page 65


 3641 0408 20000000 		.4byte	.LFE50
 3642 040c 0400     		.2byte	0x4
 3643 040e F3       		.byte	0xf3
 3644 040f 01       		.uleb128 0x1
 3645 0410 51       		.byte	0x51
 3646 0411 9F       		.byte	0x9f
 3647 0412 00000000 		.4byte	0
 3648 0416 00000000 		.4byte	0
 3649              	.LLST27:
 3650 041a 00000000 		.4byte	.LVL39
 3651 041e 09000000 		.4byte	.LVL40-1
 3652 0422 0100     		.2byte	0x1
 3653 0424 50       		.byte	0x50
 3654 0425 09000000 		.4byte	.LVL40-1
 3655 0429 2E000000 		.4byte	.LVL46
 3656 042d 0100     		.2byte	0x1
 3657 042f 54       		.byte	0x54
 3658 0430 2E000000 		.4byte	.LVL46
 3659 0434 30000000 		.4byte	.LFE51
 3660 0438 0400     		.2byte	0x4
 3661 043a F3       		.byte	0xf3
 3662 043b 01       		.uleb128 0x1
 3663 043c 50       		.byte	0x50
 3664 043d 9F       		.byte	0x9f
 3665 043e 00000000 		.4byte	0
 3666 0442 00000000 		.4byte	0
 3667              	.LLST28:
 3668 0446 00000000 		.4byte	.LVL47
 3669 044a 09000000 		.4byte	.LVL48-1
 3670 044e 0100     		.2byte	0x1
 3671 0450 50       		.byte	0x50
 3672 0451 09000000 		.4byte	.LVL48-1
 3673 0455 1E000000 		.4byte	.LVL50
 3674 0459 0100     		.2byte	0x1
 3675 045b 54       		.byte	0x54
 3676 045c 1E000000 		.4byte	.LVL50
 3677 0460 20000000 		.4byte	.LVL51
 3678 0464 0400     		.2byte	0x4
 3679 0466 F3       		.byte	0xf3
 3680 0467 01       		.uleb128 0x1
 3681 0468 50       		.byte	0x50
 3682 0469 9F       		.byte	0x9f
 3683 046a 20000000 		.4byte	.LVL51
 3684 046e 40000000 		.4byte	.LFE52
 3685 0472 0100     		.2byte	0x1
 3686 0474 54       		.byte	0x54
 3687 0475 00000000 		.4byte	0
 3688 0479 00000000 		.4byte	0
 3689              	.LLST29:
 3690 047d 00000000 		.4byte	.LVL47
 3691 0481 09000000 		.4byte	.LVL48-1
 3692 0485 0100     		.2byte	0x1
 3693 0487 51       		.byte	0x51
 3694 0488 09000000 		.4byte	.LVL48-1
 3695 048c 40000000 		.4byte	.LFE52
 3696 0490 0400     		.2byte	0x4
 3697 0492 F3       		.byte	0xf3
ARM GAS  /var/folders/qh/xwg3v3kj02qbxczjpdb8lzfr0000gn/T//ccu5ZTbw.s 			page 66


 3698 0493 01       		.uleb128 0x1
 3699 0494 51       		.byte	0x51
 3700 0495 9F       		.byte	0x9f
 3701 0496 00000000 		.4byte	0
 3702 049a 00000000 		.4byte	0
 3703              	.LLST30:
 3704 049e 00000000 		.4byte	.LVL55
 3705 04a2 07000000 		.4byte	.LVL56-1
 3706 04a6 0100     		.2byte	0x1
 3707 04a8 50       		.byte	0x50
 3708 04a9 07000000 		.4byte	.LVL56-1
 3709 04ad 16000000 		.4byte	.LVL61
 3710 04b1 0100     		.2byte	0x1
 3711 04b3 55       		.byte	0x55
 3712 04b4 16000000 		.4byte	.LVL61
 3713 04b8 18000000 		.4byte	.LVL62
 3714 04bc 0400     		.2byte	0x4
 3715 04be F3       		.byte	0xf3
 3716 04bf 01       		.uleb128 0x1
 3717 04c0 50       		.byte	0x50
 3718 04c1 9F       		.byte	0x9f
 3719 04c2 18000000 		.4byte	.LVL62
 3720 04c6 22000000 		.4byte	.LFE53
 3721 04ca 0100     		.2byte	0x1
 3722 04cc 55       		.byte	0x55
 3723 04cd 00000000 		.4byte	0
 3724 04d1 00000000 		.4byte	0
 3725              	.LLST31:
 3726 04d5 12000000 		.4byte	.LVL58
 3727 04d9 14000000 		.4byte	.LVL59
 3728 04dd 0100     		.2byte	0x1
 3729 04df 50       		.byte	0x50
 3730 04e0 14000000 		.4byte	.LVL59
 3731 04e4 16000000 		.4byte	.LVL60
 3732 04e8 0100     		.2byte	0x1
 3733 04ea 54       		.byte	0x54
 3734 04eb 16000000 		.4byte	.LVL60
 3735 04ef 1A000000 		.4byte	.LVL63
 3736 04f3 0100     		.2byte	0x1
 3737 04f5 50       		.byte	0x50
 3738 04f6 1A000000 		.4byte	.LVL63
 3739 04fa 22000000 		.4byte	.LFE53
 3740 04fe 0100     		.2byte	0x1
 3741 0500 54       		.byte	0x54
 3742 0501 00000000 		.4byte	0
 3743 0505 00000000 		.4byte	0
 3744              		.section	.debug_aranges,"",%progbits
 3745 0000 84000000 		.4byte	0x84
 3746 0004 0200     		.2byte	0x2
 3747 0006 00000000 		.4byte	.Ldebug_info0
 3748 000a 04       		.byte	0x4
 3749 000b 00       		.byte	0
 3750 000c 0000     		.2byte	0
 3751 000e 0000     		.2byte	0
 3752 0010 00000000 		.4byte	.LFB47
 3753 0014 0A000000 		.4byte	.LFE47-.LFB47
 3754 0018 00000000 		.4byte	.LFB41
ARM GAS  /var/folders/qh/xwg3v3kj02qbxczjpdb8lzfr0000gn/T//ccu5ZTbw.s 			page 67


 3755 001c 0E000000 		.4byte	.LFE41-.LFB41
 3756 0020 00000000 		.4byte	.LFB46
 3757 0024 0A000000 		.4byte	.LFE46-.LFB46
 3758 0028 00000000 		.4byte	.LFB40
 3759 002c 0E000000 		.4byte	.LFE40-.LFB40
 3760 0030 00000000 		.4byte	.LFB45
 3761 0034 0A000000 		.4byte	.LFE45-.LFB45
 3762 0038 00000000 		.4byte	.LFB43
 3763 003c 0E000000 		.4byte	.LFE43-.LFB43
 3764 0040 00000000 		.4byte	.LFB44
 3765 0044 0A000000 		.4byte	.LFE44-.LFB44
 3766 0048 00000000 		.4byte	.LFB42
 3767 004c 0E000000 		.4byte	.LFE42-.LFB42
 3768 0050 00000000 		.4byte	.LFB48
 3769 0054 08000000 		.4byte	.LFE48-.LFB48
 3770 0058 00000000 		.4byte	.LFB49
 3771 005c 40000000 		.4byte	.LFE49-.LFB49
 3772 0060 00000000 		.4byte	.LFB50
 3773 0064 20000000 		.4byte	.LFE50-.LFB50
 3774 0068 00000000 		.4byte	.LFB51
 3775 006c 30000000 		.4byte	.LFE51-.LFB51
 3776 0070 00000000 		.4byte	.LFB52
 3777 0074 40000000 		.4byte	.LFE52-.LFB52
 3778 0078 00000000 		.4byte	.LFB53
 3779 007c 22000000 		.4byte	.LFE53-.LFB53
 3780 0080 00000000 		.4byte	0
 3781 0084 00000000 		.4byte	0
 3782              		.section	.debug_ranges,"",%progbits
 3783              	.Ldebug_ranges0:
 3784 0000 00000000 		.4byte	.LFB47
 3785 0004 0A000000 		.4byte	.LFE47
 3786 0008 00000000 		.4byte	.LFB41
 3787 000c 0E000000 		.4byte	.LFE41
 3788 0010 00000000 		.4byte	.LFB46
 3789 0014 0A000000 		.4byte	.LFE46
 3790 0018 00000000 		.4byte	.LFB40
 3791 001c 0E000000 		.4byte	.LFE40
 3792 0020 00000000 		.4byte	.LFB45
 3793 0024 0A000000 		.4byte	.LFE45
 3794 0028 00000000 		.4byte	.LFB43
 3795 002c 0E000000 		.4byte	.LFE43
 3796 0030 00000000 		.4byte	.LFB44
 3797 0034 0A000000 		.4byte	.LFE44
 3798 0038 00000000 		.4byte	.LFB42
 3799 003c 0E000000 		.4byte	.LFE42
 3800 0040 00000000 		.4byte	.LFB48
 3801 0044 08000000 		.4byte	.LFE48
 3802 0048 00000000 		.4byte	.LFB49
 3803 004c 40000000 		.4byte	.LFE49
 3804 0050 00000000 		.4byte	.LFB50
 3805 0054 20000000 		.4byte	.LFE50
 3806 0058 00000000 		.4byte	.LFB51
 3807 005c 30000000 		.4byte	.LFE51
 3808 0060 00000000 		.4byte	.LFB52
 3809 0064 40000000 		.4byte	.LFE52
 3810 0068 00000000 		.4byte	.LFB53
 3811 006c 22000000 		.4byte	.LFE53
ARM GAS  /var/folders/qh/xwg3v3kj02qbxczjpdb8lzfr0000gn/T//ccu5ZTbw.s 			page 68


 3812 0070 00000000 		.4byte	0
 3813 0074 00000000 		.4byte	0
 3814              		.section	.debug_line,"",%progbits
 3815              	.Ldebug_line0:
 3816 0000 34030000 		.section	.debug_str,"MS",%progbits,1
 3816      02001302 
 3816      00000201 
 3816      FB0E0D00 
 3816      01010101 
 3817              	.LASF131:
 3818 0000 63684462 		.ascii	"chDbgCheckClassI\000"
 3818      67436865 
 3818      636B436C 
 3818      61737349 
 3818      00
 3819              	.LASF46:
 3820 0011 54687265 		.ascii	"ThreadsList\000"
 3820      6164734C 
 3820      69737400 
 3821              	.LASF38:
 3822 001d 705F7761 		.ascii	"p_waiting\000"
 3822      6974696E 
 3822      6700
 3823              	.LASF91:
 3824 0027 53657269 		.ascii	"SerialDriver\000"
 3824      616C4472 
 3824      69766572 
 3824      00
 3825              	.LASF109:
 3826 0034 7364496E 		.ascii	"sdInit\000"
 3826      697400
 3827              	.LASF37:
 3828 003b 705F7469 		.ascii	"p_time\000"
 3828      6D6500
 3829              	.LASF119:
 3830 0042 63684951 		.ascii	"chIQGetTimeout\000"
 3830      47657454 
 3830      696D656F 
 3830      757400
 3831              	.LASF47:
 3832 0051 72656761 		.ascii	"regarm_t\000"
 3832      726D5F74 
 3832      00
 3833              	.LASF28:
 3834 005a 705F7072 		.ascii	"p_prio\000"
 3834      696F00
 3835              	.LASF24:
 3836 0061 73797374 		.ascii	"systime_t\000"
 3836      696D655F 
 3836      7400
 3837              	.LASF53:
 3838 006b 6D5F6F77 		.ascii	"m_owner\000"
 3838      6E657200 
 3839              	.LASF39:
 3840 0073 705F6D73 		.ascii	"p_msgqueue\000"
 3840      67717565 
 3840      756500
ARM GAS  /var/folders/qh/xwg3v3kj02qbxczjpdb8lzfr0000gn/T//ccu5ZTbw.s 			page 69


 3841              	.LASF0:
 3842 007e 756E7369 		.ascii	"unsigned int\000"
 3842      676E6564 
 3842      20696E74 
 3842      00
 3843              	.LASF117:
 3844 008b 63684951 		.ascii	"chIQReadTimeout\000"
 3844      52656164 
 3844      54696D65 
 3844      6F757400 
 3845              	.LASF121:
 3846 009b 63684951 		.ascii	"chIQInit\000"
 3846      496E6974 
 3846      00
 3847              	.LASF73:
 3848 00a4 715F7264 		.ascii	"q_rdptr\000"
 3848      70747200 
 3849              	.LASF76:
 3850 00ac 716E6F74 		.ascii	"qnotify_t\000"
 3850      6966795F 
 3850      7400
 3851              	.LASF58:
 3852 00b6 656C5F6D 		.ascii	"el_mask\000"
 3852      61736B00 
 3853              	.LASF64:
 3854 00be 77746F62 		.ascii	"wtobjp\000"
 3854      6A7000
 3855              	.LASF75:
 3856 00c5 715F6C69 		.ascii	"q_link\000"
 3856      6E6B00
 3857              	.LASF135:
 3858 00cc 474E5520 		.ascii	"GNU C 4.8.3 20131129 (release) [ARM/embedded-4_8-br"
 3858      4320342E 
 3858      382E3320 
 3858      32303133 
 3858      31313239 
 3859 00ff 616E6368 		.ascii	"anch revision 205641] -mcpu=cortex-m0 -mno-thumb-in"
 3859      20726576 
 3859      6973696F 
 3859      6E203230 
 3859      35363431 
 3860 0132 74657277 		.ascii	"terwork -mthumb -ggdb -O2 -fomit-frame-pointer -fal"
 3860      6F726B20 
 3860      2D6D7468 
 3860      756D6220 
 3860      2D676764 
 3861 0165 69676E2D 		.ascii	"ign-functions=16 -ffunction-sections -fdata-section"
 3861      66756E63 
 3861      74696F6E 
 3861      733D3136 
 3861      202D6666 
 3862 0198 73202D66 		.ascii	"s -fno-common\000"
 3862      6E6F2D63 
 3862      6F6D6D6F 
 3862      6E00
 3863              	.LASF110:
 3864 01a6 73644F62 		.ascii	"sdObjectInit\000"
ARM GAS  /var/folders/qh/xwg3v3kj02qbxczjpdb8lzfr0000gn/T//ccu5ZTbw.s 			page 70


 3864      6A656374 
 3864      496E6974 
 3864      00
 3865              	.LASF65:
 3866 01b3 65776D61 		.ascii	"ewmask\000"
 3866      736B00
 3867              	.LASF116:
 3868 01ba 7364496E 		.ascii	"sdIncomingDataI\000"
 3868      636F6D69 
 3868      6E674461 
 3868      74614900 
 3869              	.LASF98:
 3870 01ca 73706565 		.ascii	"speed\000"
 3870      6400
 3871              	.LASF105:
 3872 01d0 77726974 		.ascii	"writet\000"
 3872      657400
 3873              	.LASF80:
 3874 01d7 47545052 		.ascii	"GTPR\000"
 3874      00
 3875              	.LASF94:
 3876 01dc 69717565 		.ascii	"iqueue\000"
 3876      756500
 3877              	.LASF10:
 3878 01e3 75696E74 		.ascii	"uint32_t\000"
 3878      33325F74 
 3878      00
 3879              	.LASF129:
 3880 01ec 63684951 		.ascii	"chIQResetI\000"
 3880      52657365 
 3880      744900
 3881              	.LASF138:
 3882 01f7 73645265 		.ascii	"sdRequestDataI\000"
 3882      71756573 
 3882      74446174 
 3882      614900
 3883              	.LASF22:
 3884 0206 6576656E 		.ascii	"eventmask_t\000"
 3884      746D6173 
 3884      6B5F7400 
 3885              	.LASF99:
 3886 0212 53657269 		.ascii	"SerialConfig\000"
 3886      616C436F 
 3886      6E666967 
 3886      00
 3887              	.LASF90:
 3888 021f 73647374 		.ascii	"sdstate_t\000"
 3888      6174655F 
 3888      7400
 3889              	.LASF92:
 3890 0229 6576656E 		.ascii	"event\000"
 3890      7400
 3891              	.LASF20:
 3892 022f 74707269 		.ascii	"tprio_t\000"
 3892      6F5F7400 
 3893              	.LASF13:
 3894 0237 6C6F6E67 		.ascii	"long long unsigned int\000"
ARM GAS  /var/folders/qh/xwg3v3kj02qbxczjpdb8lzfr0000gn/T//ccu5ZTbw.s 			page 71


 3894      206C6F6E 
 3894      6720756E 
 3894      7369676E 
 3894      65642069 
 3895              	.LASF136:
 3896 024e 2E2E2F2E 		.ascii	"../../os/hal/src/serial.c\000"
 3896      2E2F6F73 
 3896      2F68616C 
 3896      2F737263 
 3896      2F736572 
 3897              	.LASF118:
 3898 0268 63684F51 		.ascii	"chOQWriteTimeout\000"
 3898      57726974 
 3898      6554696D 
 3898      656F7574 
 3898      00
 3899              	.LASF113:
 3900 0279 73645374 		.ascii	"sdStart\000"
 3900      61727400 
 3901              	.LASF107:
 3902 0281 74696D65 		.ascii	"time\000"
 3902      00
 3903              	.LASF30:
 3904 0286 705F6E65 		.ascii	"p_newer\000"
 3904      77657200 
 3905              	.LASF68:
 3906 028e 715F7761 		.ascii	"q_waiting\000"
 3906      6974696E 
 3906      6700
 3907              	.LASF103:
 3908 0298 70757474 		.ascii	"putt\000"
 3908      00
 3909              	.LASF137:
 3910 029d 2F557365 		.ascii	"/Users/John/Development/embedded/ChibiOS-RT/BluC/ST"
 3910      72732F4A 
 3910      6F686E2F 
 3910      44657665 
 3910      6C6F706D 
 3911 02d0 4D333246 		.ascii	"M32F051\000"
 3911      30353100 
 3912              	.LASF2:
 3913 02d8 73697A65 		.ascii	"size_t\000"
 3913      5F7400
 3914              	.LASF62:
 3915 02df 7264796D 		.ascii	"rdymsg\000"
 3915      736700
 3916              	.LASF111:
 3917 02e6 696E6F74 		.ascii	"inotify\000"
 3917      69667900 
 3918              	.LASF14:
 3919 02ee 626F6F6C 		.ascii	"bool_t\000"
 3919      5F7400
 3920              	.LASF15:
 3921 02f5 5F426F6F 		.ascii	"_Bool\000"
 3921      6C00
 3922              	.LASF88:
 3923 02fb 53445F53 		.ascii	"SD_STOP\000"
ARM GAS  /var/folders/qh/xwg3v3kj02qbxczjpdb8lzfr0000gn/T//ccu5ZTbw.s 			page 72


 3923      544F5000 
 3924              	.LASF86:
 3925 0303 55534152 		.ascii	"USART_TypeDef\000"
 3925      545F5479 
 3925      70654465 
 3925      6600
 3926              	.LASF130:
 3927 0311 63685363 		.ascii	"chSchRescheduleS\000"
 3927      68526573 
 3927      63686564 
 3927      756C6553 
 3927      00
 3928              	.LASF51:
 3929 0322 4D757465 		.ascii	"Mutex\000"
 3929      7800
 3930              	.LASF78:
 3931 0328 4F757470 		.ascii	"OutputQueue\000"
 3931      75745175 
 3931      65756500 
 3932              	.LASF74:
 3933 0334 715F6E6F 		.ascii	"q_notify\000"
 3933      74696679 
 3933      00
 3934              	.LASF97:
 3935 033d 636C6F63 		.ascii	"clock\000"
 3935      6B00
 3936              	.LASF32:
 3937 0343 705F6E61 		.ascii	"p_name\000"
 3937      6D6500
 3938              	.LASF77:
 3939 034a 496E7075 		.ascii	"InputQueue\000"
 3939      74517565 
 3939      756500
 3940              	.LASF45:
 3941 0355 54687265 		.ascii	"ThreadsQueue\000"
 3941      61647351 
 3941      75657565 
 3941      00
 3942              	.LASF66:
 3943 0362 63686172 		.ascii	"char\000"
 3943      00
 3944              	.LASF72:
 3945 0367 715F7772 		.ascii	"q_wrptr\000"
 3945      70747200 
 3946              	.LASF25:
 3947 036f 54687265 		.ascii	"Thread\000"
 3947      616400
 3948              	.LASF17:
 3949 0376 74737461 		.ascii	"tstate_t\000"
 3949      74655F74 
 3949      00
 3950              	.LASF133:
 3951 037f 63684576 		.ascii	"chEvtBroadcastFlagsI\000"
 3951      7442726F 
 3951      61646361 
 3951      7374466C 
 3951      61677349 
ARM GAS  /var/folders/qh/xwg3v3kj02qbxczjpdb8lzfr0000gn/T//ccu5ZTbw.s 			page 73


 3952              	.LASF31:
 3953 0394 705F6F6C 		.ascii	"p_older\000"
 3953      64657200 
 3954              	.LASF126:
 3955 039c 6462675F 		.ascii	"dbg_check_unlock\000"
 3955      63686563 
 3955      6B5F756E 
 3955      6C6F636B 
 3955      00
 3956              	.LASF33:
 3957 03ad 705F7374 		.ascii	"p_state\000"
 3957      61746500 
 3958              	.LASF3:
 3959 03b5 75696E74 		.ascii	"uint8_t\000"
 3959      385F7400 
 3960              	.LASF23:
 3961 03bd 666C6167 		.ascii	"flagsmask_t\000"
 3961      736D6173 
 3961      6B5F7400 
 3962              	.LASF82:
 3963 03c9 52544F52 		.ascii	"RTOR\000"
 3963      00
 3964              	.LASF44:
 3965 03ce 705F6D70 		.ascii	"p_mpool\000"
 3965      6F6F6C00 
 3966              	.LASF42:
 3967 03d6 705F6D74 		.ascii	"p_mtxlist\000"
 3967      786C6973 
 3967      7400
 3968              	.LASF96:
 3969 03e0 75736172 		.ascii	"usart\000"
 3969      7400
 3970              	.LASF12:
 3971 03e6 6C6F6E67 		.ascii	"long long int\000"
 3971      206C6F6E 
 3971      6720696E 
 3971      7400
 3972              	.LASF101:
 3973 03f4 77726974 		.ascii	"write\000"
 3973      6500
 3974              	.LASF70:
 3975 03fa 715F6275 		.ascii	"q_buffer\000"
 3975      66666572 
 3975      00
 3976              	.LASF21:
 3977 0403 6D73675F 		.ascii	"msg_t\000"
 3977      7400
 3978              	.LASF127:
 3979 0409 73645F6C 		.ascii	"sd_lld_stop\000"
 3979      6C645F73 
 3979      746F7000 
 3980              	.LASF49:
 3981 0415 636F6E74 		.ascii	"context\000"
 3981      65787400 
 3982              	.LASF124:
 3983 041d 6462675F 		.ascii	"dbg_check_lock\000"
 3983      63686563 
ARM GAS  /var/folders/qh/xwg3v3kj02qbxczjpdb8lzfr0000gn/T//ccu5ZTbw.s 			page 74


 3983      6B5F6C6F 
 3983      636B00
 3984              	.LASF34:
 3985 042c 705F666C 		.ascii	"p_flags\000"
 3985      61677300 
 3986              	.LASF115:
 3987 0434 73645374 		.ascii	"sdStop\000"
 3987      6F7000
 3988              	.LASF19:
 3989 043b 74736C69 		.ascii	"tslices_t\000"
 3989      6365735F 
 3989      7400
 3990              	.LASF132:
 3991 0445 63684951 		.ascii	"chIQPutI\000"
 3991      50757449 
 3991      00
 3992              	.LASF60:
 3993 044e 4576656E 		.ascii	"EventSource\000"
 3993      74536F75 
 3993      72636500 
 3994              	.LASF56:
 3995 045a 656C5F6E 		.ascii	"el_next\000"
 3995      65787400 
 3996              	.LASF40:
 3997 0462 705F6D73 		.ascii	"p_msg\000"
 3997      6700
 3998              	.LASF16:
 3999 0468 746D6F64 		.ascii	"tmode_t\000"
 3999      655F7400 
 4000              	.LASF67:
 4001 0470 47656E65 		.ascii	"GenericQueue\000"
 4001      72696351 
 4001      75657565 
 4001      00
 4002              	.LASF95:
 4003 047d 6F717565 		.ascii	"oqueue\000"
 4003      756500
 4004              	.LASF6:
 4005 0484 75696E74 		.ascii	"uint16_t\000"
 4005      31365F74 
 4005      00
 4006              	.LASF48:
 4007 048d 696E7463 		.ascii	"intctx\000"
 4007      747800
 4008              	.LASF125:
 4009 0494 73645F6C 		.ascii	"sd_lld_start\000"
 4009      6C645F73 
 4009      74617274 
 4009      00
 4010              	.LASF89:
 4011 04a1 53445F52 		.ascii	"SD_READY\000"
 4011      45414459 
 4011      00
 4012              	.LASF100:
 4013 04aa 53657269 		.ascii	"SerialDriverVMT\000"
 4013      616C4472 
 4013      69766572 
ARM GAS  /var/folders/qh/xwg3v3kj02qbxczjpdb8lzfr0000gn/T//ccu5ZTbw.s 			page 75


 4013      564D5400 
 4014              	.LASF114:
 4015 04ba 636F6E66 		.ascii	"config\000"
 4015      696700
 4016              	.LASF43:
 4017 04c1 705F7265 		.ascii	"p_realprio\000"
 4017      616C7072 
 4017      696F00
 4018              	.LASF79:
 4019 04cc 52455345 		.ascii	"RESERVED1\000"
 4019      52564544 
 4019      3100
 4020              	.LASF81:
 4021 04d6 52455345 		.ascii	"RESERVED2\000"
 4021      52564544 
 4021      3200
 4022              	.LASF83:
 4023 04e0 52455345 		.ascii	"RESERVED3\000"
 4023      52564544 
 4023      3300
 4024              	.LASF84:
 4025 04ea 52455345 		.ascii	"RESERVED4\000"
 4025      52564544 
 4025      3400
 4026              	.LASF85:
 4027 04f4 52455345 		.ascii	"RESERVED5\000"
 4027      52564544 
 4027      3500
 4028              	.LASF5:
 4029 04fe 73686F72 		.ascii	"short int\000"
 4029      7420696E 
 4029      7400
 4030              	.LASF41:
 4031 0508 705F6570 		.ascii	"p_epending\000"
 4031      656E6469 
 4031      6E6700
 4032              	.LASF52:
 4033 0513 6D5F7175 		.ascii	"m_queue\000"
 4033      65756500 
 4034              	.LASF9:
 4035 051b 6C6F6E67 		.ascii	"long int\000"
 4035      20696E74 
 4035      00
 4036              	.LASF112:
 4037 0524 6F6E6F74 		.ascii	"onotify\000"
 4037      69667900 
 4038              	.LASF26:
 4039 052c 705F6E65 		.ascii	"p_next\000"
 4039      787400
 4040              	.LASF29:
 4041 0533 705F6374 		.ascii	"p_ctx\000"
 4041      7800
 4042              	.LASF102:
 4043 0539 72656164 		.ascii	"read\000"
 4043      00
 4044              	.LASF57:
 4045 053e 656C5F6C 		.ascii	"el_listener\000"
ARM GAS  /var/folders/qh/xwg3v3kj02qbxczjpdb8lzfr0000gn/T//ccu5ZTbw.s 			page 76


 4045      69737465 
 4045      6E657200 
 4046              	.LASF87:
 4047 054a 53445F55 		.ascii	"SD_UNINIT\000"
 4047      4E494E49 
 4047      5400
 4048              	.LASF134:
 4049 0554 63684F51 		.ascii	"chOQGetI\000"
 4049      47657449 
 4049      00
 4050              	.LASF69:
 4051 055d 715F636F 		.ascii	"q_counter\000"
 4051      756E7465 
 4051      7200
 4052              	.LASF104:
 4053 0567 67657474 		.ascii	"gett\000"
 4053      00
 4054              	.LASF71:
 4055 056c 715F746F 		.ascii	"q_top\000"
 4055      7000
 4056              	.LASF27:
 4057 0572 705F7072 		.ascii	"p_prev\000"
 4057      657600
 4058              	.LASF50:
 4059 0579 73697A65 		.ascii	"sizetype\000"
 4059      74797065 
 4059      00
 4060              	.LASF18:
 4061 0582 74726566 		.ascii	"trefs_t\000"
 4061      735F7400 
 4062              	.LASF55:
 4063 058a 4576656E 		.ascii	"EventListener\000"
 4063      744C6973 
 4063      74656E65 
 4063      7200
 4064              	.LASF11:
 4065 0598 6C6F6E67 		.ascii	"long unsigned int\000"
 4065      20756E73 
 4065      69676E65 
 4065      6420696E 
 4065      7400
 4066              	.LASF8:
 4067 05aa 696E7433 		.ascii	"int32_t\000"
 4067      325F7400 
 4068              	.LASF122:
 4069 05b2 63684F51 		.ascii	"chOQInit\000"
 4069      496E6974 
 4069      00
 4070              	.LASF4:
 4071 05bb 756E7369 		.ascii	"unsigned char\000"
 4071      676E6564 
 4071      20636861 
 4071      7200
 4072              	.LASF35:
 4073 05c9 705F7265 		.ascii	"p_refs\000"
 4073      667300
 4074              	.LASF108:
ARM GAS  /var/folders/qh/xwg3v3kj02qbxczjpdb8lzfr0000gn/T//ccu5ZTbw.s 			page 77


 4075 05d0 74696D65 		.ascii	"timeout\000"
 4075      6F757400 
 4076              	.LASF120:
 4077 05d8 63684F51 		.ascii	"chOQPutTimeout\000"
 4077      50757454 
 4077      696D656F 
 4077      757400
 4078              	.LASF36:
 4079 05e7 705F7072 		.ascii	"p_preempt\000"
 4079      65656D70 
 4079      7400
 4080              	.LASF61:
 4081 05f1 65735F6E 		.ascii	"es_next\000"
 4081      65787400 
 4082              	.LASF93:
 4083 05f9 73746174 		.ascii	"state\000"
 4083      6500
 4084              	.LASF54:
 4085 05ff 6D5F6E65 		.ascii	"m_next\000"
 4085      787400
 4086              	.LASF1:
 4087 0606 7369676E 		.ascii	"signed char\000"
 4087      65642063 
 4087      68617200 
 4088              	.LASF106:
 4089 0612 72656164 		.ascii	"readt\000"
 4089      7400
 4090              	.LASF7:
 4091 0618 73686F72 		.ascii	"short unsigned int\000"
 4091      7420756E 
 4091      7369676E 
 4091      65642069 
 4091      6E7400
 4092              	.LASF128:
 4093 062b 63684F51 		.ascii	"chOQResetI\000"
 4093      52657365 
 4093      744900
 4094              	.LASF123:
 4095 0636 73645F6C 		.ascii	"sd_lld_init\000"
 4095      6C645F69 
 4095      6E697400 
 4096              	.LASF59:
 4097 0642 656C5F66 		.ascii	"el_flags\000"
 4097      6C616773 
 4097      00
 4098              	.LASF63:
 4099 064b 65786974 		.ascii	"exitcode\000"
 4099      636F6465 
 4099      00
 4100              		.ident	"GCC: (GNU Tools for ARM Embedded Processors) 4.8.3 20131129 (release) [ARM/embedded-4_8-br
ARM GAS  /var/folders/qh/xwg3v3kj02qbxczjpdb8lzfr0000gn/T//ccu5ZTbw.s 			page 78


DEFINED SYMBOLS
                            *ABS*:0000000000000000 serial.c
/var/folders/qh/xwg3v3kj02qbxczjpdb8lzfr0000gn/T//ccu5ZTbw.s:18     .text.readt:0000000000000000 $t
/var/folders/qh/xwg3v3kj02qbxczjpdb8lzfr0000gn/T//ccu5ZTbw.s:23     .text.readt:0000000000000000 readt
/var/folders/qh/xwg3v3kj02qbxczjpdb8lzfr0000gn/T//ccu5ZTbw.s:45     .text.read:0000000000000000 $t
/var/folders/qh/xwg3v3kj02qbxczjpdb8lzfr0000gn/T//ccu5ZTbw.s:50     .text.read:0000000000000000 read
/var/folders/qh/xwg3v3kj02qbxczjpdb8lzfr0000gn/T//ccu5ZTbw.s:73     .text.writet:0000000000000000 $t
/var/folders/qh/xwg3v3kj02qbxczjpdb8lzfr0000gn/T//ccu5ZTbw.s:78     .text.writet:0000000000000000 writet
/var/folders/qh/xwg3v3kj02qbxczjpdb8lzfr0000gn/T//ccu5ZTbw.s:99     .text.write:0000000000000000 $t
/var/folders/qh/xwg3v3kj02qbxczjpdb8lzfr0000gn/T//ccu5ZTbw.s:104    .text.write:0000000000000000 write
/var/folders/qh/xwg3v3kj02qbxczjpdb8lzfr0000gn/T//ccu5ZTbw.s:127    .text.gett:0000000000000000 $t
/var/folders/qh/xwg3v3kj02qbxczjpdb8lzfr0000gn/T//ccu5ZTbw.s:132    .text.gett:0000000000000000 gett
/var/folders/qh/xwg3v3kj02qbxczjpdb8lzfr0000gn/T//ccu5ZTbw.s:153    .text.get:0000000000000000 $t
/var/folders/qh/xwg3v3kj02qbxczjpdb8lzfr0000gn/T//ccu5ZTbw.s:158    .text.get:0000000000000000 get
/var/folders/qh/xwg3v3kj02qbxczjpdb8lzfr0000gn/T//ccu5ZTbw.s:181    .text.putt:0000000000000000 $t
/var/folders/qh/xwg3v3kj02qbxczjpdb8lzfr0000gn/T//ccu5ZTbw.s:186    .text.putt:0000000000000000 putt
/var/folders/qh/xwg3v3kj02qbxczjpdb8lzfr0000gn/T//ccu5ZTbw.s:207    .text.put:0000000000000000 $t
/var/folders/qh/xwg3v3kj02qbxczjpdb8lzfr0000gn/T//ccu5ZTbw.s:212    .text.put:0000000000000000 put
/var/folders/qh/xwg3v3kj02qbxczjpdb8lzfr0000gn/T//ccu5ZTbw.s:235    .text.sdInit:0000000000000000 $t
/var/folders/qh/xwg3v3kj02qbxczjpdb8lzfr0000gn/T//ccu5ZTbw.s:241    .text.sdInit:0000000000000000 sdInit
/var/folders/qh/xwg3v3kj02qbxczjpdb8lzfr0000gn/T//ccu5ZTbw.s:259    .text.sdObjectInit:0000000000000000 $t
/var/folders/qh/xwg3v3kj02qbxczjpdb8lzfr0000gn/T//ccu5ZTbw.s:265    .text.sdObjectInit:0000000000000000 sdObjectInit
/var/folders/qh/xwg3v3kj02qbxczjpdb8lzfr0000gn/T//ccu5ZTbw.s:325    .text.sdObjectInit:000000000000003c $d
/var/folders/qh/xwg3v3kj02qbxczjpdb8lzfr0000gn/T//ccu5ZTbw.s:330    .text.sdStart:0000000000000000 $t
/var/folders/qh/xwg3v3kj02qbxczjpdb8lzfr0000gn/T//ccu5ZTbw.s:336    .text.sdStart:0000000000000000 sdStart
/var/folders/qh/xwg3v3kj02qbxczjpdb8lzfr0000gn/T//ccu5ZTbw.s:381    .text.sdStop:0000000000000000 $t
/var/folders/qh/xwg3v3kj02qbxczjpdb8lzfr0000gn/T//ccu5ZTbw.s:387    .text.sdStop:0000000000000000 sdStop
/var/folders/qh/xwg3v3kj02qbxczjpdb8lzfr0000gn/T//ccu5ZTbw.s:442    .text.sdIncomingDataI:0000000000000000 $t
/var/folders/qh/xwg3v3kj02qbxczjpdb8lzfr0000gn/T//ccu5ZTbw.s:448    .text.sdIncomingDataI:0000000000000000 sdIncomingDataI
/var/folders/qh/xwg3v3kj02qbxczjpdb8lzfr0000gn/T//ccu5ZTbw.s:508    .text.sdRequestDataI:0000000000000000 $t
/var/folders/qh/xwg3v3kj02qbxczjpdb8lzfr0000gn/T//ccu5ZTbw.s:514    .text.sdRequestDataI:0000000000000000 sdRequestDataI
/var/folders/qh/xwg3v3kj02qbxczjpdb8lzfr0000gn/T//ccu5ZTbw.s:560    .rodata.vmt:0000000000000000 $d
/var/folders/qh/xwg3v3kj02qbxczjpdb8lzfr0000gn/T//ccu5ZTbw.s:564    .rodata.vmt:0000000000000000 vmt
                     .debug_frame:0000000000000010 $d

UNDEFINED SYMBOLS
chIQReadTimeout
chOQWriteTimeout
chIQGetTimeout
chOQPutTimeout
sd_lld_init
chIQInit
chOQInit
dbg_check_lock
sd_lld_start
dbg_check_unlock
sd_lld_stop
chOQResetI
chIQResetI
chSchRescheduleS
chDbgCheckClassI
chIQPutI
chEvtBroadcastFlagsI
chOQGetI
