ARM GAS  /var/folders/qh/xwg3v3kj02qbxczjpdb8lzfr0000gn/T//ccakFlxj.s 			page 1


   1              		.cpu cortex-m0
   2              		.fpu softvfp
   3              		.eabi_attribute 20, 1
   4              		.eabi_attribute 21, 1
   5              		.eabi_attribute 23, 3
   6              		.eabi_attribute 24, 1
   7              		.eabi_attribute 25, 1
   8              		.eabi_attribute 26, 1
   9              		.eabi_attribute 30, 2
  10              		.eabi_attribute 34, 0
  11              		.eabi_attribute 18, 4
  12              		.code	16
  13              		.file	"serial_lld.c"
  14              		.text
  15              	.Ltext0:
  16              		.cfi_sections	.debug_frame
  17              		.section	.text.notify1,"ax",%progbits
  18              		.align	2
  19              		.p2align 4,,15
  20              		.code	16
  21              		.thumb_func
  22              		.type	notify1, %function
  23              	notify1:
  24              	.LFB44:
  25              		.file 1 "../../os/hal/platforms/STM32/USARTv2/serial_lld.c"
  26              		.loc 1 198 0
  27              		.cfi_startproc
  28              	.LVL0:
  29              		.loc 1 201 0
  30 0000 024B     		ldr	r3, .L2
  31 0002 8022     		mov	r2, #128
  32 0004 1968     		ldr	r1, [r3]
  33              		.loc 1 202 0
  34              		@ sp needed
  35              		.loc 1 201 0
  36 0006 0A43     		orr	r2, r1
  37 0008 1A60     		str	r2, [r3]
  38              		.loc 1 202 0
  39 000a 7047     		bx	lr
  40              	.L3:
  41              		.align	2
  42              	.L2:
  43 000c 00380140 		.word	1073821696
  44              		.cfi_endproc
  45              	.LFE44:
  46              		.size	notify1, .-notify1
  47              		.section	.text.VectorAC,"ax",%progbits
  48              		.align	2
  49              		.p2align 4,,15
  50              		.global	VectorAC
  51              		.code	16
  52              		.thumb_func
  53              		.type	VectorAC, %function
  54              	VectorAC:
  55              	.LFB45:
  56              		.loc 1 258 0
  57              		.cfi_startproc
ARM GAS  /var/folders/qh/xwg3v3kj02qbxczjpdb8lzfr0000gn/T//ccakFlxj.s 			page 2


  58 0000 F0B5     		push	{r4, r5, r6, r7, lr}
  59              		.cfi_def_cfa_offset 20
  60              		.cfi_offset 4, -20
  61              		.cfi_offset 5, -16
  62              		.cfi_offset 6, -12
  63              		.cfi_offset 7, -8
  64              		.cfi_offset 14, -4
  65 0002 4746     		mov	r7, r8
  66 0004 80B4     		push	{r7}
  67              		.cfi_def_cfa_offset 24
  68              		.cfi_offset 8, -24
  69              		.loc 1 260 0
  70              	@ 260 "../../os/hal/platforms/STM32/USARTv2/serial_lld.c" 1
  71 0006 F046     		mov     r8, lr
  72              	@ 0 "" 2
  73              	.LVL1:
  74              		.code	16
  75              	.LBB12:
  76              	.LBB13:
  77              		.loc 1 148 0
  78 0008 2E4E     		ldr	r6, .L50
  79 000a 756F     		ldr	r5, [r6, #116]
  80              	.LVL2:
  81              		.loc 1 149 0
  82 000c 2F68     		ldr	r7, [r5]
  83              	.LVL3:
  84              		.loc 1 153 0
  85 000e EC69     		ldr	r4, [r5, #28]
  86              	.LVL4:
  87              		.loc 1 154 0
  88 0010 2C62     		str	r4, [r5, #32]
  89              		.loc 1 157 0
  90 0012 2307     		lsl	r3, r4, #28
  91 0014 29D1     		bne	.L45
  92              	.L5:
  93              		.loc 1 161 0
  94 0016 E305     		lsl	r3, r4, #23
  95 0018 1FD4     		bmi	.L46
  96              	.L10:
  97              		.loc 1 168 0
  98 001a A306     		lsl	r3, r4, #26
  99 001c 15D4     		bmi	.L47
 100              	.L11:
 101              		.loc 1 175 0
 102 001e 8023     		mov	r3, #128
 103 0020 3B42     		tst	r3, r7
 104 0022 01D0     		beq	.L12
 105 0024 2342     		tst	r3, r4
 106 0026 36D1     		bne	.L48
 107              	.L12:
 108              		.loc 1 189 0
 109 0028 6306     		lsl	r3, r4, #25
 110 002a 08D5     		bpl	.L15
 111              		.loc 1 190 0
 112              	@ 190 "../../os/hal/platforms/STM32/USARTv2/serial_lld.c" 1
 113 002c 72B6     		cpsid   i
 114              	@ 0 "" 2
ARM GAS  /var/folders/qh/xwg3v3kj02qbxczjpdb8lzfr0000gn/T//ccakFlxj.s 			page 3


 115              		.loc 1 191 0
 116              		.code	16
 117 002e 1021     		mov	r1, #16
 118 0030 301D     		add	r0, r6, #4
 119 0032 FFF7FEFF 		bl	chEvtBroadcastFlagsI
 120              	.LVL5:
 121              		.loc 1 192 0
 122              	@ 192 "../../os/hal/platforms/STM32/USARTv2/serial_lld.c" 1
 123 0036 62B6     		cpsie   i
 124              	@ 0 "" 2
 125              		.loc 1 193 0
 126              		.code	16
 127 0038 4023     		mov	r3, #64
 128 003a 9F43     		bic	r7, r3
 129              	.LVL6:
 130 003c 2F60     		str	r7, [r5]
 131              	.L15:
 132              	.LBE13:
 133              	.LBE12:
 134              		.loc 1 264 0
 135 003e 4046     		mov	r0, r8
 136 0040 FFF7FEFF 		bl	_port_irq_epilogue
 137              	.LVL7:
 138              		.loc 1 265 0
 139              		@ sp needed
 140              	.LVL8:
 141              	.LVL9:
 142              	.LVL10:
 143 0044 04BC     		pop	{r2}
 144 0046 9046     		mov	r8, r2
 145 0048 F0BD     		pop	{r4, r5, r6, r7, pc}
 146              	.LVL11:
 147              	.L47:
 148              	.LBB18:
 149              	.LBB17:
 150              		.loc 1 169 0
 151              	@ 169 "../../os/hal/platforms/STM32/USARTv2/serial_lld.c" 1
 152 004a 72B6     		cpsid   i
 153              	@ 0 "" 2
 154              		.loc 1 170 0
 155              		.code	16
 156 004c 696A     		ldr	r1, [r5, #36]
 157 004e 301C     		mov	r0, r6
 158 0050 C9B2     		uxtb	r1, r1
 159 0052 FFF7FEFF 		bl	sdIncomingDataI
 160              	.LVL12:
 161              		.loc 1 171 0
 162              	@ 171 "../../os/hal/platforms/STM32/USARTv2/serial_lld.c" 1
 163 0056 62B6     		cpsie   i
 164              	@ 0 "" 2
 165              		.code	16
 166 0058 E1E7     		b	.L11
 167              	.L46:
 168              		.loc 1 162 0
 169              	@ 162 "../../os/hal/platforms/STM32/USARTv2/serial_lld.c" 1
 170 005a 72B6     		cpsid   i
 171              	@ 0 "" 2
ARM GAS  /var/folders/qh/xwg3v3kj02qbxczjpdb8lzfr0000gn/T//ccakFlxj.s 			page 4


 172              		.loc 1 163 0
 173              		.code	16
 174 005c 8021     		mov	r1, #128
 175 005e 301D     		add	r0, r6, #4
 176 0060 8900     		lsl	r1, r1, #2
 177 0062 FFF7FEFF 		bl	chEvtBroadcastFlagsI
 178              	.LVL13:
 179              		.loc 1 164 0
 180              	@ 164 "../../os/hal/platforms/STM32/USARTv2/serial_lld.c" 1
 181 0066 62B6     		cpsie   i
 182              	@ 0 "" 2
 183              		.code	16
 184 0068 D7E7     		b	.L10
 185              	.L45:
 186              	.LVL14:
 187              	.LBB14:
 188              	.LBB15:
 189              		.loc 1 129 0
 190 006a 2107     		lsl	r1, r4, #28
 191              		.loc 1 127 0
 192 006c C90F     		lsr	r1, r1, #31
 193 006e C901     		lsl	r1, r1, #7
 194              	.LVL15:
 195              		.loc 1 131 0
 196 0070 E307     		lsl	r3, r4, #31
 197 0072 01D5     		bpl	.L7
 198              		.loc 1 132 0
 199 0074 2023     		mov	r3, #32
 200 0076 1943     		orr	r1, r3
 201              	.LVL16:
 202              	.L7:
 203              		.loc 1 133 0
 204 0078 A307     		lsl	r3, r4, #30
 205 007a 01D5     		bpl	.L8
 206              		.loc 1 134 0
 207 007c 4023     		mov	r3, #64
 208 007e 1943     		orr	r1, r3
 209              	.LVL17:
 210              	.L8:
 211              		.loc 1 135 0
 212 0080 6307     		lsl	r3, r4, #29
 213 0082 02D5     		bpl	.L9
 214              		.loc 1 136 0
 215 0084 8023     		mov	r3, #128
 216 0086 5B00     		lsl	r3, r3, #1
 217 0088 1943     		orr	r1, r3
 218              	.LVL18:
 219              	.L9:
 220              		.loc 1 137 0
 221              	@ 137 "../../os/hal/platforms/STM32/USARTv2/serial_lld.c" 1
 222 008a 72B6     		cpsid   i
 223              	@ 0 "" 2
 224              		.loc 1 138 0
 225              		.code	16
 226 008c 301D     		add	r0, r6, #4
 227 008e FFF7FEFF 		bl	chEvtBroadcastFlagsI
 228              	.LVL19:
ARM GAS  /var/folders/qh/xwg3v3kj02qbxczjpdb8lzfr0000gn/T//ccakFlxj.s 			page 5


 229              		.loc 1 139 0
 230              	@ 139 "../../os/hal/platforms/STM32/USARTv2/serial_lld.c" 1
 231 0092 62B6     		cpsie   i
 232              	@ 0 "" 2
 233              		.code	16
 234 0094 BFE7     		b	.L5
 235              	.LVL20:
 236              	.L48:
 237              	.LBE15:
 238              	.LBE14:
 239              	.LBB16:
 240              		.loc 1 177 0
 241              	@ 177 "../../os/hal/platforms/STM32/USARTv2/serial_lld.c" 1
 242 0096 72B6     		cpsid   i
 243              	@ 0 "" 2
 244              		.loc 1 178 0
 245              		.code	16
 246 0098 301C     		mov	r0, r6
 247 009a 3030     		add	r0, r0, #48
 248 009c FFF7FEFF 		bl	chOQGetI
 249              	.LVL21:
 250              		.loc 1 179 0
 251 00a0 0028     		cmp	r0, #0
 252 00a2 03DB     		blt	.L49
 253              		.loc 1 184 0
 254 00a4 80B2     		uxth	r0, r0
 255              	.LVL22:
 256 00a6 2885     		strh	r0, [r5, #40]
 257              	.L14:
 258              		.loc 1 185 0
 259              	@ 185 "../../os/hal/platforms/STM32/USARTv2/serial_lld.c" 1
 260 00a8 62B6     		cpsie   i
 261              	@ 0 "" 2
 262              		.code	16
 263 00aa BDE7     		b	.L12
 264              	.LVL23:
 265              	.L49:
 266              		.loc 1 180 0
 267 00ac 301D     		add	r0, r6, #4
 268              	.LVL24:
 269 00ae 0821     		mov	r1, #8
 270 00b0 FFF7FEFF 		bl	chEvtBroadcastFlagsI
 271              	.LVL25:
 272              		.loc 1 181 0
 273 00b4 C023     		mov	r3, #192
 274 00b6 3A1C     		mov	r2, r7
 275 00b8 9A43     		bic	r2, r3
 276 00ba 4023     		mov	r3, #64
 277 00bc 1343     		orr	r3, r2
 278 00be 2B60     		str	r3, [r5]
 279 00c0 F2E7     		b	.L14
 280              	.L51:
 281 00c2 C046     		.align	2
 282              	.L50:
 283 00c4 00000000 		.word	.LANCHOR0
 284              	.LBE16:
 285              	.LBE17:
ARM GAS  /var/folders/qh/xwg3v3kj02qbxczjpdb8lzfr0000gn/T//ccakFlxj.s 			page 6


 286              	.LBE18:
 287              		.cfi_endproc
 288              	.LFE45:
 289              		.size	VectorAC, .-VectorAC
 290 00c8 C046C046 		.section	.text.sd_lld_init,"ax",%progbits
 290      C046C046 
 291              		.align	2
 292              		.p2align 4,,15
 293              		.global	sd_lld_init
 294              		.code	16
 295              		.thumb_func
 296              		.type	sd_lld_init, %function
 297              	sd_lld_init:
 298              	.LFB46:
 299              		.loc 1 372 0
 300              		.cfi_startproc
 301 0000 10B5     		push	{r4, lr}
 302              		.cfi_def_cfa_offset 8
 303              		.cfi_offset 4, -8
 304              		.cfi_offset 14, -4
 305              		.loc 1 375 0
 306 0002 054C     		ldr	r4, .L53
 307 0004 0021     		mov	r1, #0
 308 0006 201C     		mov	r0, r4
 309 0008 044A     		ldr	r2, .L53+4
 310 000a FFF7FEFF 		bl	sdObjectInit
 311              	.LVL26:
 312              		.loc 1 376 0
 313 000e 044B     		ldr	r3, .L53+8
 314              		.loc 1 409 0
 315              		@ sp needed
 316              		.loc 1 376 0
 317 0010 6367     		str	r3, [r4, #116]
 318              		.loc 1 377 0
 319 0012 044B     		ldr	r3, .L53+12
 320 0014 A367     		str	r3, [r4, #120]
 321              		.loc 1 409 0
 322 0016 10BD     		pop	{r4, pc}
 323              	.L54:
 324              		.align	2
 325              	.L53:
 326 0018 00000000 		.word	.LANCHOR0
 327 001c 00000000 		.word	notify1
 328 0020 00380140 		.word	1073821696
 329 0024 006CDC02 		.word	48000000
 330              		.cfi_endproc
 331              	.LFE46:
 332              		.size	sd_lld_init, .-sd_lld_init
 333              		.global	__aeabi_uidiv
 334 0028 C046C046 		.section	.text.sd_lld_start,"ax",%progbits
 334      C046C046 
 335              		.align	2
 336              		.p2align 4,,15
 337              		.global	sd_lld_start
 338              		.code	16
 339              		.thumb_func
 340              		.type	sd_lld_start, %function
ARM GAS  /var/folders/qh/xwg3v3kj02qbxczjpdb8lzfr0000gn/T//ccakFlxj.s 			page 7


 341              	sd_lld_start:
 342              	.LFB47:
 343              		.loc 1 421 0
 344              		.cfi_startproc
 345              	.LVL27:
 346 0000 70B5     		push	{r4, r5, r6, lr}
 347              		.cfi_def_cfa_offset 16
 348              		.cfi_offset 4, -16
 349              		.cfi_offset 5, -12
 350              		.cfi_offset 6, -8
 351              		.cfi_offset 14, -4
 352              		.loc 1 421 0
 353 0002 061C     		mov	r6, r0
 354 0004 0C1E     		sub	r4, r1, #0
 355              		.loc 1 423 0
 356 0006 28D0     		beq	.L59
 357              	.L56:
 358              	.LVL28:
 359              		.loc 1 426 0
 360 0008 337A     		ldrb	r3, [r6, #8]
 361 000a 012B     		cmp	r3, #1
 362 000c 17D0     		beq	.L60
 363              	.LVL29:
 364              	.L57:
 365              	.LBB19:
 366              	.LBB20:
 367              		.loc 1 96 0
 368 000e B06F     		ldr	r0, [r6, #120]
 369 0010 2168     		ldr	r1, [r4]
 370 0012 FFF7FEFF 		bl	__aeabi_uidiv
 371              	.LVL30:
 372              		.loc 1 99 0
 373 0016 A268     		ldr	r2, [r4, #8]
 374              	.LBE20:
 375              	.LBE19:
 376              		.loc 1 421 0
 377 0018 756F     		ldr	r5, [r6, #116]
 378              	.LVL31:
 379              	.LBB22:
 380              	.LBB21:
 381              		.loc 1 99 0
 382 001a 4023     		mov	r3, #64
 383 001c 1343     		orr	r3, r2
 384              		.loc 1 96 0
 385 001e 80B2     		uxth	r0, r0
 386              		.loc 1 100 0
 387 0020 E268     		ldr	r2, [r4, #12]
 388              		.loc 1 96 0
 389 0022 A881     		strh	r0, [r5, #12]
 390              		.loc 1 99 0
 391 0024 6B60     		str	r3, [r5, #4]
 392              		.loc 1 100 0
 393 0026 0123     		mov	r3, #1
 394 0028 1343     		orr	r3, r2
 395 002a AB60     		str	r3, [r5, #8]
 396              		.loc 1 102 0
 397 002c 6268     		ldr	r2, [r4, #4]
ARM GAS  /var/folders/qh/xwg3v3kj02qbxczjpdb8lzfr0000gn/T//ccakFlxj.s 			page 8


 398 002e 2E23     		mov	r3, #46
 399 0030 FF33     		add	r3, r3, #255
 400 0032 1343     		orr	r3, r2
 401              		.loc 1 101 0
 402 0034 2B60     		str	r3, [r5]
 403              		.loc 1 104 0
 404 0036 0123     		mov	r3, #1
 405 0038 5B42     		neg	r3, r3
 406 003a 2B62     		str	r3, [r5, #32]
 407              	.LBE21:
 408              	.LBE22:
 409              		.loc 1 471 0
 410              		@ sp needed
 411              	.LVL32:
 412              	.LVL33:
 413              	.LVL34:
 414 003c 70BD     		pop	{r4, r5, r6, pc}
 415              	.LVL35:
 416              	.L60:
 417              		.loc 1 428 0
 418 003e 084B     		ldr	r3, .L61
 419 0040 9E42     		cmp	r6, r3
 420 0042 E4D1     		bne	.L57
 421              		.loc 1 429 0
 422 0044 074B     		ldr	r3, .L61+4
 423 0046 8022     		mov	r2, #128
 424 0048 9969     		ldr	r1, [r3, #24]
 425 004a D201     		lsl	r2, r2, #7
 426 004c 0A43     		orr	r2, r1
 427 004e 9A61     		str	r2, [r3, #24]
 428              		.loc 1 430 0
 429 0050 1B20     		mov	r0, #27
 430              	.LVL36:
 431 0052 C021     		mov	r1, #192
 432 0054 FFF7FEFF 		bl	nvicEnableVector
 433              	.LVL37:
 434 0058 D9E7     		b	.L57
 435              	.LVL38:
 436              	.L59:
 437              		.loc 1 424 0
 438 005a 034C     		ldr	r4, .L61+8
 439 005c D4E7     		b	.L56
 440              	.L62:
 441 005e C046     		.align	2
 442              	.L61:
 443 0060 00000000 		.word	.LANCHOR0
 444 0064 00100240 		.word	1073876992
 445 0068 00000000 		.word	.LANCHOR1
 446              		.cfi_endproc
 447              	.LFE47:
 448              		.size	sd_lld_start, .-sd_lld_start
 449 006c C046C046 		.section	.text.sd_lld_stop,"ax",%progbits
 450              		.align	2
 451              		.p2align 4,,15
 452              		.global	sd_lld_stop
 453              		.code	16
 454              		.thumb_func
ARM GAS  /var/folders/qh/xwg3v3kj02qbxczjpdb8lzfr0000gn/T//ccakFlxj.s 			page 9


 455              		.type	sd_lld_stop, %function
 456              	sd_lld_stop:
 457              	.LFB48:
 458              		.loc 1 482 0
 459              		.cfi_startproc
 460              	.LVL39:
 461 0000 08B5     		push	{r3, lr}
 462              		.cfi_def_cfa_offset 8
 463              		.cfi_offset 3, -8
 464              		.cfi_offset 14, -4
 465              		.loc 1 484 0
 466 0002 037A     		ldrb	r3, [r0, #8]
 467 0004 022B     		cmp	r3, #2
 468 0006 00D0     		beq	.L67
 469              	.LVL40:
 470              	.L63:
 471              		.loc 1 529 0
 472              		@ sp needed
 473 0008 08BD     		pop	{r3, pc}
 474              	.LVL41:
 475              	.L67:
 476              		.loc 1 485 0
 477 000a 436F     		ldr	r3, [r0, #116]
 478              	.LVL42:
 479              	.LBB23:
 480              	.LBB24:
 481              		.loc 1 115 0
 482 000c 0022     		mov	r2, #0
 483 000e 1A60     		str	r2, [r3]
 484              		.loc 1 116 0
 485 0010 5A60     		str	r2, [r3, #4]
 486              		.loc 1 117 0
 487 0012 9A60     		str	r2, [r3, #8]
 488              	.LBE24:
 489              	.LBE23:
 490              		.loc 1 487 0
 491 0014 054B     		ldr	r3, .L68
 492              	.LVL43:
 493 0016 9842     		cmp	r0, r3
 494 0018 F6D1     		bne	.L63
 495              		.loc 1 488 0
 496 001a 054B     		ldr	r3, .L68+4
 497 001c 054A     		ldr	r2, .L68+8
 498 001e 9969     		ldr	r1, [r3, #24]
 499              		.loc 1 489 0
 500 0020 1B20     		mov	r0, #27
 501              	.LVL44:
 502              		.loc 1 488 0
 503 0022 0A40     		and	r2, r1
 504 0024 9A61     		str	r2, [r3, #24]
 505              		.loc 1 489 0
 506 0026 FFF7FEFF 		bl	nvicDisableVector
 507              	.LVL45:
 508              		.loc 1 490 0
 509 002a EDE7     		b	.L63
 510              	.L69:
 511              		.align	2
ARM GAS  /var/folders/qh/xwg3v3kj02qbxczjpdb8lzfr0000gn/T//ccakFlxj.s 			page 10


 512              	.L68:
 513 002c 00000000 		.word	.LANCHOR0
 514 0030 00100240 		.word	1073876992
 515 0034 FFBFFFFF 		.word	-16385
 516              		.cfi_endproc
 517              	.LFE48:
 518              		.size	sd_lld_stop, .-sd_lld_stop
 519              		.global	SD1
 520 0038 C046C046 		.section	.rodata.default_config,"a",%progbits
 520      C046C046 
 521              		.align	2
 522              		.set	.LANCHOR1,. + 0
 523              		.type	default_config, %object
 524              		.size	default_config, 16
 525              	default_config:
 526 0000 00960000 		.word	38400
 527 0004 00000000 		.word	0
 528 0008 00400000 		.word	16384
 529 000c 00000000 		.word	0
 530              		.section	.bss.SD1,"aw",%nobits
 531              		.align	2
 532              		.set	.LANCHOR0,. + 0
 533              		.type	SD1, %object
 534              		.size	SD1, 124
 535              	SD1:
 536 0000 00000000 		.space	124
 536      00000000 
 536      00000000 
 536      00000000 
 536      00000000 
 537              		.text
 538              	.Letext0:
 539              		.file 2 "/usr/local/Cellar/gcc-arm-none-eabi-48/20131218/lib/gcc/arm-none-eabi/4.8.3/include/stdde
 540              		.file 3 "/usr/local/Cellar/gcc-arm-none-eabi-48/20131218/arm-none-eabi/include/stdint.h"
 541              		.file 4 "../../os/ports/GCC/ARMCMx/chtypes.h"
 542              		.file 5 "../../os/kernel/include/chlists.h"
 543              		.file 6 "../../os/kernel/include/chthreads.h"
 544              		.file 7 "../../os/ports/GCC/ARMCMx/chcore_v6m.h"
 545              		.file 8 "../../os/kernel/include/chmtx.h"
 546              		.file 9 "../../os/kernel/include/chevents.h"
 547              		.file 10 "../../os/kernel/include/chqueues.h"
 548              		.file 11 "../../os/hal/platforms/STM32F0xx/stm32f0xx.h"
 549              		.file 12 "../../os/hal/include/serial.h"
 550              		.file 13 "../../os/hal/platforms/STM32/USARTv2/serial_lld.h"
 551              		.file 14 "../../os/ports/common/ARMCMx/nvic.h"
 552              		.section	.debug_info,"",%progbits
 553              	.Ldebug_info0:
 554 0000 F50C0000 		.4byte	0xcf5
 555 0004 0400     		.2byte	0x4
 556 0006 00000000 		.4byte	.Ldebug_abbrev0
 557 000a 04       		.byte	0x4
 558 000b 01       		.uleb128 0x1
 559 000c EA000000 		.4byte	.LASF133
 560 0010 01       		.byte	0x1
 561 0011 B1000000 		.4byte	.LASF134
 562 0015 9D020000 		.4byte	.LASF135
 563 0019 30000000 		.4byte	.Ldebug_ranges0+0x30
ARM GAS  /var/folders/qh/xwg3v3kj02qbxczjpdb8lzfr0000gn/T//ccakFlxj.s 			page 11


 564 001d 00000000 		.4byte	0
 565 0021 00000000 		.4byte	.Ldebug_line0
 566 0025 02       		.uleb128 0x2
 567 0026 04       		.byte	0x4
 568 0027 05       		.byte	0x5
 569 0028 696E7400 		.ascii	"int\000"
 570 002c 03       		.uleb128 0x3
 571 002d D8020000 		.4byte	.LASF2
 572 0031 02       		.byte	0x2
 573 0032 D4       		.byte	0xd4
 574 0033 37000000 		.4byte	0x37
 575 0037 04       		.uleb128 0x4
 576 0038 04       		.byte	0x4
 577 0039 07       		.byte	0x7
 578 003a 77000000 		.4byte	.LASF0
 579 003e 04       		.uleb128 0x4
 580 003f 01       		.byte	0x1
 581 0040 06       		.byte	0x6
 582 0041 F9050000 		.4byte	.LASF1
 583 0045 03       		.uleb128 0x3
 584 0046 A3030000 		.4byte	.LASF3
 585 004a 03       		.byte	0x3
 586 004b 2A       		.byte	0x2a
 587 004c 50000000 		.4byte	0x50
 588 0050 04       		.uleb128 0x4
 589 0051 01       		.byte	0x1
 590 0052 08       		.byte	0x8
 591 0053 B2050000 		.4byte	.LASF4
 592 0057 04       		.uleb128 0x4
 593 0058 02       		.byte	0x2
 594 0059 05       		.byte	0x5
 595 005a 01050000 		.4byte	.LASF5
 596 005e 03       		.uleb128 0x3
 597 005f 7A040000 		.4byte	.LASF6
 598 0063 03       		.byte	0x3
 599 0064 36       		.byte	0x36
 600 0065 69000000 		.4byte	0x69
 601 0069 04       		.uleb128 0x4
 602 006a 02       		.byte	0x2
 603 006b 07       		.byte	0x7
 604 006c 0B060000 		.4byte	.LASF7
 605 0070 03       		.uleb128 0x3
 606 0071 AA050000 		.4byte	.LASF8
 607 0075 03       		.byte	0x3
 608 0076 4F       		.byte	0x4f
 609 0077 7B000000 		.4byte	0x7b
 610 007b 04       		.uleb128 0x4
 611 007c 04       		.byte	0x4
 612 007d 05       		.byte	0x5
 613 007e 1E050000 		.4byte	.LASF9
 614 0082 03       		.uleb128 0x3
 615 0083 13020000 		.4byte	.LASF10
 616 0087 03       		.byte	0x3
 617 0088 50       		.byte	0x50
 618 0089 8D000000 		.4byte	0x8d
 619 008d 04       		.uleb128 0x4
 620 008e 04       		.byte	0x4
ARM GAS  /var/folders/qh/xwg3v3kj02qbxczjpdb8lzfr0000gn/T//ccakFlxj.s 			page 12


 621 008f 07       		.byte	0x7
 622 0090 98050000 		.4byte	.LASF11
 623 0094 04       		.uleb128 0x4
 624 0095 08       		.byte	0x8
 625 0096 05       		.byte	0x5
 626 0097 D4030000 		.4byte	.LASF12
 627 009b 04       		.uleb128 0x4
 628 009c 08       		.byte	0x8
 629 009d 07       		.byte	0x7
 630 009e 5E020000 		.4byte	.LASF13
 631 00a2 04       		.uleb128 0x4
 632 00a3 01       		.byte	0x1
 633 00a4 02       		.byte	0x2
 634 00a5 E6020000 		.4byte	.LASF14
 635 00a9 03       		.uleb128 0x3
 636 00aa 5E040000 		.4byte	.LASF15
 637 00ae 04       		.byte	0x4
 638 00af 25       		.byte	0x25
 639 00b0 45000000 		.4byte	0x45
 640 00b4 03       		.uleb128 0x3
 641 00b5 6E030000 		.4byte	.LASF16
 642 00b9 04       		.byte	0x4
 643 00ba 26       		.byte	0x26
 644 00bb 45000000 		.4byte	0x45
 645 00bf 03       		.uleb128 0x3
 646 00c0 82050000 		.4byte	.LASF17
 647 00c4 04       		.byte	0x4
 648 00c5 27       		.byte	0x27
 649 00c6 45000000 		.4byte	0x45
 650 00ca 03       		.uleb128 0x3
 651 00cb 13040000 		.4byte	.LASF18
 652 00cf 04       		.byte	0x4
 653 00d0 28       		.byte	0x28
 654 00d1 45000000 		.4byte	0x45
 655 00d5 03       		.uleb128 0x3
 656 00d6 4D020000 		.4byte	.LASF19
 657 00da 04       		.byte	0x4
 658 00db 29       		.byte	0x29
 659 00dc 82000000 		.4byte	0x82
 660 00e0 03       		.uleb128 0x3
 661 00e1 F1030000 		.4byte	.LASF20
 662 00e5 04       		.byte	0x4
 663 00e6 2A       		.byte	0x2a
 664 00e7 70000000 		.4byte	0x70
 665 00eb 03       		.uleb128 0x3
 666 00ec 1C020000 		.4byte	.LASF21
 667 00f0 04       		.byte	0x4
 668 00f1 2C       		.byte	0x2c
 669 00f2 82000000 		.4byte	0x82
 670 00f6 03       		.uleb128 0x3
 671 00f7 AB030000 		.4byte	.LASF22
 672 00fb 04       		.byte	0x4
 673 00fc 2D       		.byte	0x2d
 674 00fd 82000000 		.4byte	0x82
 675 0101 03       		.uleb128 0x3
 676 0102 5A000000 		.4byte	.LASF23
 677 0106 04       		.byte	0x4
ARM GAS  /var/folders/qh/xwg3v3kj02qbxczjpdb8lzfr0000gn/T//ccakFlxj.s 			page 13


 678 0107 2E       		.byte	0x2e
 679 0108 82000000 		.4byte	0x82
 680 010c 03       		.uleb128 0x3
 681 010d 67030000 		.4byte	.LASF24
 682 0111 05       		.byte	0x5
 683 0112 23       		.byte	0x23
 684 0113 17010000 		.4byte	0x117
 685 0117 05       		.uleb128 0x5
 686 0118 67030000 		.4byte	.LASF24
 687 011c 48       		.byte	0x48
 688 011d 06       		.byte	0x6
 689 011e 57       		.byte	0x57
 690 011f 14020000 		.4byte	0x214
 691 0123 06       		.uleb128 0x6
 692 0124 27050000 		.4byte	.LASF25
 693 0128 06       		.byte	0x6
 694 0129 58       		.byte	0x58
 695 012a 35020000 		.4byte	0x235
 696 012e 00       		.byte	0
 697 012f 06       		.uleb128 0x6
 698 0130 72050000 		.4byte	.LASF26
 699 0134 06       		.byte	0x6
 700 0135 5A       		.byte	0x5a
 701 0136 35020000 		.4byte	0x235
 702 013a 04       		.byte	0x4
 703 013b 06       		.uleb128 0x6
 704 013c 40000000 		.4byte	.LASF27
 705 0140 06       		.byte	0x6
 706 0141 5C       		.byte	0x5c
 707 0142 D5000000 		.4byte	0xd5
 708 0146 08       		.byte	0x8
 709 0147 06       		.uleb128 0x6
 710 0148 2E050000 		.4byte	.LASF28
 711 014c 06       		.byte	0x6
 712 014d 5D       		.byte	0x5d
 713 014e E5020000 		.4byte	0x2e5
 714 0152 0C       		.byte	0xc
 715 0153 06       		.uleb128 0x6
 716 0154 86020000 		.4byte	.LASF29
 717 0158 06       		.byte	0x6
 718 0159 5F       		.byte	0x5f
 719 015a 35020000 		.4byte	0x235
 720 015e 10       		.byte	0x10
 721 015f 06       		.uleb128 0x6
 722 0160 93030000 		.4byte	.LASF30
 723 0164 06       		.byte	0x6
 724 0165 60       		.byte	0x60
 725 0166 35020000 		.4byte	0x235
 726 016a 14       		.byte	0x14
 727 016b 06       		.uleb128 0x6
 728 016c 23030000 		.4byte	.LASF31
 729 0170 06       		.byte	0x6
 730 0171 67       		.byte	0x67
 731 0172 FE030000 		.4byte	0x3fe
 732 0176 18       		.byte	0x18
 733 0177 06       		.uleb128 0x6
 734 0178 9B030000 		.4byte	.LASF32
ARM GAS  /var/folders/qh/xwg3v3kj02qbxczjpdb8lzfr0000gn/T//ccakFlxj.s 			page 14


 735 017c 06       		.byte	0x6
 736 017d 72       		.byte	0x72
 737 017e B4000000 		.4byte	0xb4
 738 0182 1C       		.byte	0x1c
 739 0183 06       		.uleb128 0x6
 740 0184 0B040000 		.4byte	.LASF33
 741 0188 06       		.byte	0x6
 742 0189 76       		.byte	0x76
 743 018a A9000000 		.4byte	0xa9
 744 018e 1D       		.byte	0x1d
 745 018f 06       		.uleb128 0x6
 746 0190 C0050000 		.4byte	.LASF34
 747 0194 06       		.byte	0x6
 748 0195 7B       		.byte	0x7b
 749 0196 BF000000 		.4byte	0xbf
 750 019a 1E       		.byte	0x1e
 751 019b 06       		.uleb128 0x6
 752 019c DA050000 		.4byte	.LASF35
 753 01a0 06       		.byte	0x6
 754 01a1 81       		.byte	0x81
 755 01a2 CA000000 		.4byte	0xca
 756 01a6 1F       		.byte	0x1f
 757 01a7 06       		.uleb128 0x6
 758 01a8 30000000 		.4byte	.LASF36
 759 01ac 06       		.byte	0x6
 760 01ad 88       		.byte	0x88
 761 01ae 10030000 		.4byte	0x310
 762 01b2 20       		.byte	0x20
 763 01b3 07       		.uleb128 0x7
 764 01b4 705F7500 		.ascii	"p_u\000"
 765 01b8 06       		.byte	0x6
 766 01b9 AD       		.byte	0xad
 767 01ba C9030000 		.4byte	0x3c9
 768 01be 24       		.byte	0x24
 769 01bf 06       		.uleb128 0x6
 770 01c0 11000000 		.4byte	.LASF37
 771 01c4 06       		.byte	0x6
 772 01c5 B2       		.byte	0xb2
 773 01c6 5B020000 		.4byte	0x25b
 774 01ca 28       		.byte	0x28
 775 01cb 06       		.uleb128 0x6
 776 01cc 6C000000 		.4byte	.LASF38
 777 01d0 06       		.byte	0x6
 778 01d1 B8       		.byte	0xb8
 779 01d2 3B020000 		.4byte	0x23b
 780 01d6 2C       		.byte	0x2c
 781 01d7 06       		.uleb128 0x6
 782 01d8 58040000 		.4byte	.LASF39
 783 01dc 06       		.byte	0x6
 784 01dd BC       		.byte	0xbc
 785 01de E0000000 		.4byte	0xe0
 786 01e2 34       		.byte	0x34
 787 01e3 06       		.uleb128 0x6
 788 01e4 0B050000 		.4byte	.LASF40
 789 01e8 06       		.byte	0x6
 790 01e9 C2       		.byte	0xc2
 791 01ea EB000000 		.4byte	0xeb
ARM GAS  /var/folders/qh/xwg3v3kj02qbxczjpdb8lzfr0000gn/T//ccakFlxj.s 			page 15


 792 01ee 38       		.byte	0x38
 793 01ef 06       		.uleb128 0x6
 794 01f0 C4030000 		.4byte	.LASF41
 795 01f4 06       		.byte	0x6
 796 01f5 C9       		.byte	0xc9
 797 01f6 10040000 		.4byte	0x410
 798 01fa 3C       		.byte	0x3c
 799 01fb 06       		.uleb128 0x6
 800 01fc C4040000 		.4byte	.LASF42
 801 0200 06       		.byte	0x6
 802 0201 CD       		.byte	0xcd
 803 0202 D5000000 		.4byte	0xd5
 804 0206 40       		.byte	0x40
 805 0207 06       		.uleb128 0x6
 806 0208 BC030000 		.4byte	.LASF43
 807 020c 06       		.byte	0x6
 808 020d D3       		.byte	0xd3
 809 020e 71020000 		.4byte	0x271
 810 0212 44       		.byte	0x44
 811 0213 00       		.byte	0
 812 0214 08       		.uleb128 0x8
 813 0215 08       		.byte	0x8
 814 0216 05       		.byte	0x5
 815 0217 5A       		.byte	0x5a
 816 0218 35020000 		.4byte	0x235
 817 021c 06       		.uleb128 0x6
 818 021d 27050000 		.4byte	.LASF25
 819 0221 05       		.byte	0x5
 820 0222 5B       		.byte	0x5b
 821 0223 35020000 		.4byte	0x235
 822 0227 00       		.byte	0
 823 0228 06       		.uleb128 0x6
 824 0229 72050000 		.4byte	.LASF26
 825 022d 05       		.byte	0x5
 826 022e 5D       		.byte	0x5d
 827 022f 35020000 		.4byte	0x235
 828 0233 04       		.byte	0x4
 829 0234 00       		.byte	0
 830 0235 09       		.uleb128 0x9
 831 0236 04       		.byte	0x4
 832 0237 0C010000 		.4byte	0x10c
 833 023b 03       		.uleb128 0x3
 834 023c 4D030000 		.4byte	.LASF44
 835 0240 05       		.byte	0x5
 836 0241 5F       		.byte	0x5f
 837 0242 14020000 		.4byte	0x214
 838 0246 08       		.uleb128 0x8
 839 0247 04       		.byte	0x4
 840 0248 05       		.byte	0x5
 841 0249 64       		.byte	0x64
 842 024a 5B020000 		.4byte	0x25b
 843 024e 06       		.uleb128 0x6
 844 024f 27050000 		.4byte	.LASF25
 845 0253 05       		.byte	0x5
 846 0254 66       		.byte	0x66
 847 0255 35020000 		.4byte	0x235
 848 0259 00       		.byte	0
ARM GAS  /var/folders/qh/xwg3v3kj02qbxczjpdb8lzfr0000gn/T//ccakFlxj.s 			page 16


 849 025a 00       		.byte	0
 850 025b 03       		.uleb128 0x3
 851 025c 05000000 		.4byte	.LASF45
 852 0260 05       		.byte	0x5
 853 0261 69       		.byte	0x69
 854 0262 46020000 		.4byte	0x246
 855 0266 03       		.uleb128 0x3
 856 0267 37000000 		.4byte	.LASF46
 857 026b 07       		.byte	0x7
 858 026c A0       		.byte	0xa0
 859 026d 71020000 		.4byte	0x271
 860 0271 0A       		.uleb128 0xa
 861 0272 04       		.byte	0x4
 862 0273 05       		.uleb128 0x5
 863 0274 90040000 		.4byte	.LASF47
 864 0278 24       		.byte	0x24
 865 0279 07       		.byte	0x7
 866 027a B3       		.byte	0xb3
 867 027b E5020000 		.4byte	0x2e5
 868 027f 07       		.uleb128 0x7
 869 0280 723800   		.ascii	"r8\000"
 870 0283 07       		.byte	0x7
 871 0284 B4       		.byte	0xb4
 872 0285 66020000 		.4byte	0x266
 873 0289 00       		.byte	0
 874 028a 07       		.uleb128 0x7
 875 028b 723900   		.ascii	"r9\000"
 876 028e 07       		.byte	0x7
 877 028f B5       		.byte	0xb5
 878 0290 66020000 		.4byte	0x266
 879 0294 04       		.byte	0x4
 880 0295 07       		.uleb128 0x7
 881 0296 72313000 		.ascii	"r10\000"
 882 029a 07       		.byte	0x7
 883 029b B6       		.byte	0xb6
 884 029c 66020000 		.4byte	0x266
 885 02a0 08       		.byte	0x8
 886 02a1 07       		.uleb128 0x7
 887 02a2 72313100 		.ascii	"r11\000"
 888 02a6 07       		.byte	0x7
 889 02a7 B7       		.byte	0xb7
 890 02a8 66020000 		.4byte	0x266
 891 02ac 0C       		.byte	0xc
 892 02ad 07       		.uleb128 0x7
 893 02ae 723400   		.ascii	"r4\000"
 894 02b1 07       		.byte	0x7
 895 02b2 B8       		.byte	0xb8
 896 02b3 66020000 		.4byte	0x266
 897 02b7 10       		.byte	0x10
 898 02b8 07       		.uleb128 0x7
 899 02b9 723500   		.ascii	"r5\000"
 900 02bc 07       		.byte	0x7
 901 02bd B9       		.byte	0xb9
 902 02be 66020000 		.4byte	0x266
 903 02c2 14       		.byte	0x14
 904 02c3 07       		.uleb128 0x7
 905 02c4 723600   		.ascii	"r6\000"
ARM GAS  /var/folders/qh/xwg3v3kj02qbxczjpdb8lzfr0000gn/T//ccakFlxj.s 			page 17


 906 02c7 07       		.byte	0x7
 907 02c8 BA       		.byte	0xba
 908 02c9 66020000 		.4byte	0x266
 909 02cd 18       		.byte	0x18
 910 02ce 07       		.uleb128 0x7
 911 02cf 723700   		.ascii	"r7\000"
 912 02d2 07       		.byte	0x7
 913 02d3 BB       		.byte	0xbb
 914 02d4 66020000 		.4byte	0x266
 915 02d8 1C       		.byte	0x1c
 916 02d9 07       		.uleb128 0x7
 917 02da 6C7200   		.ascii	"lr\000"
 918 02dd 07       		.byte	0x7
 919 02de BC       		.byte	0xbc
 920 02df 66020000 		.4byte	0x266
 921 02e3 20       		.byte	0x20
 922 02e4 00       		.byte	0
 923 02e5 05       		.uleb128 0x5
 924 02e6 03040000 		.4byte	.LASF48
 925 02ea 04       		.byte	0x4
 926 02eb 07       		.byte	0x7
 927 02ec C6       		.byte	0xc6
 928 02ed FE020000 		.4byte	0x2fe
 929 02f1 07       		.uleb128 0x7
 930 02f2 72313300 		.ascii	"r13\000"
 931 02f6 07       		.byte	0x7
 932 02f7 C7       		.byte	0xc7
 933 02f8 FE020000 		.4byte	0x2fe
 934 02fc 00       		.byte	0
 935 02fd 00       		.byte	0
 936 02fe 09       		.uleb128 0x9
 937 02ff 04       		.byte	0x4
 938 0300 73020000 		.4byte	0x273
 939 0304 0B       		.uleb128 0xb
 940 0305 82000000 		.4byte	0x82
 941 0309 04       		.uleb128 0x4
 942 030a 04       		.byte	0x4
 943 030b 07       		.byte	0x7
 944 030c 79050000 		.4byte	.LASF49
 945 0310 0B       		.uleb128 0xb
 946 0311 01010000 		.4byte	0x101
 947 0315 05       		.uleb128 0x5
 948 0316 02030000 		.4byte	.LASF50
 949 031a 10       		.byte	0x10
 950 031b 08       		.byte	0x8
 951 031c 25       		.byte	0x25
 952 031d 46030000 		.4byte	0x346
 953 0321 06       		.uleb128 0x6
 954 0322 16050000 		.4byte	.LASF51
 955 0326 08       		.byte	0x8
 956 0327 26       		.byte	0x26
 957 0328 3B020000 		.4byte	0x23b
 958 032c 00       		.byte	0
 959 032d 06       		.uleb128 0x6
 960 032e 64000000 		.4byte	.LASF52
 961 0332 08       		.byte	0x8
 962 0333 28       		.byte	0x28
ARM GAS  /var/folders/qh/xwg3v3kj02qbxczjpdb8lzfr0000gn/T//ccakFlxj.s 			page 18


 963 0334 35020000 		.4byte	0x235
 964 0338 08       		.byte	0x8
 965 0339 06       		.uleb128 0x6
 966 033a F2050000 		.4byte	.LASF53
 967 033e 08       		.byte	0x8
 968 033f 2A       		.byte	0x2a
 969 0340 46030000 		.4byte	0x346
 970 0344 0C       		.byte	0xc
 971 0345 00       		.byte	0
 972 0346 09       		.uleb128 0x9
 973 0347 04       		.byte	0x4
 974 0348 15030000 		.4byte	0x315
 975 034c 03       		.uleb128 0x3
 976 034d 02030000 		.4byte	.LASF50
 977 0351 08       		.byte	0x8
 978 0352 2C       		.byte	0x2c
 979 0353 15030000 		.4byte	0x315
 980 0357 03       		.uleb128 0x3
 981 0358 8A050000 		.4byte	.LASF54
 982 035c 09       		.byte	0x9
 983 035d 25       		.byte	0x25
 984 035e 62030000 		.4byte	0x362
 985 0362 05       		.uleb128 0x5
 986 0363 8A050000 		.4byte	.LASF54
 987 0367 10       		.byte	0x10
 988 0368 09       		.byte	0x9
 989 0369 2A       		.byte	0x2a
 990 036a 9F030000 		.4byte	0x39f
 991 036e 06       		.uleb128 0x6
 992 036f 50040000 		.4byte	.LASF55
 993 0373 09       		.byte	0x9
 994 0374 2B       		.byte	0x2b
 995 0375 9F030000 		.4byte	0x39f
 996 0379 00       		.byte	0
 997 037a 06       		.uleb128 0x6
 998 037b 3E050000 		.4byte	.LASF56
 999 037f 09       		.byte	0x9
 1000 0380 2E       		.byte	0x2e
 1001 0381 35020000 		.4byte	0x235
 1002 0385 04       		.byte	0x4
 1003 0386 06       		.uleb128 0x6
 1004 0387 96000000 		.4byte	.LASF57
 1005 038b 09       		.byte	0x9
 1006 038c 30       		.byte	0x30
 1007 038d EB000000 		.4byte	0xeb
 1008 0391 08       		.byte	0x8
 1009 0392 06       		.uleb128 0x6
 1010 0393 34060000 		.4byte	.LASF58
 1011 0397 09       		.byte	0x9
 1012 0398 33       		.byte	0x33
 1013 0399 F6000000 		.4byte	0xf6
 1014 039d 0C       		.byte	0xc
 1015 039e 00       		.byte	0
 1016 039f 09       		.uleb128 0x9
 1017 03a0 04       		.byte	0x4
 1018 03a1 57030000 		.4byte	0x357
 1019 03a5 05       		.uleb128 0x5
ARM GAS  /var/folders/qh/xwg3v3kj02qbxczjpdb8lzfr0000gn/T//ccakFlxj.s 			page 19


 1020 03a6 44040000 		.4byte	.LASF59
 1021 03aa 04       		.byte	0x4
 1022 03ab 09       		.byte	0x9
 1023 03ac 3A       		.byte	0x3a
 1024 03ad BE030000 		.4byte	0x3be
 1025 03b1 06       		.uleb128 0x6
 1026 03b2 E4050000 		.4byte	.LASF60
 1027 03b6 09       		.byte	0x9
 1028 03b7 3B       		.byte	0x3b
 1029 03b8 9F030000 		.4byte	0x39f
 1030 03bc 00       		.byte	0
 1031 03bd 00       		.byte	0
 1032 03be 03       		.uleb128 0x3
 1033 03bf 44040000 		.4byte	.LASF59
 1034 03c3 09       		.byte	0x9
 1035 03c4 3E       		.byte	0x3e
 1036 03c5 A5030000 		.4byte	0x3a5
 1037 03c9 0C       		.uleb128 0xc
 1038 03ca 04       		.byte	0x4
 1039 03cb 06       		.byte	0x6
 1040 03cc 8F       		.byte	0x8f
 1041 03cd FE030000 		.4byte	0x3fe
 1042 03d1 0D       		.uleb128 0xd
 1043 03d2 DF020000 		.4byte	.LASF61
 1044 03d6 06       		.byte	0x6
 1045 03d7 96       		.byte	0x96
 1046 03d8 E0000000 		.4byte	0xe0
 1047 03dc 0D       		.uleb128 0xd
 1048 03dd 3D060000 		.4byte	.LASF62
 1049 03e1 06       		.byte	0x6
 1050 03e2 9D       		.byte	0x9d
 1051 03e3 E0000000 		.4byte	0xe0
 1052 03e7 0D       		.uleb128 0xd
 1053 03e8 AA000000 		.4byte	.LASF63
 1054 03ec 06       		.byte	0x6
 1055 03ed A4       		.byte	0xa4
 1056 03ee 71020000 		.4byte	0x271
 1057 03f2 0D       		.uleb128 0xd
 1058 03f3 D1010000 		.4byte	.LASF64
 1059 03f7 06       		.byte	0x6
 1060 03f8 AB       		.byte	0xab
 1061 03f9 EB000000 		.4byte	0xeb
 1062 03fd 00       		.byte	0
 1063 03fe 09       		.uleb128 0x9
 1064 03ff 04       		.byte	0x4
 1065 0400 04040000 		.4byte	0x404
 1066 0404 0E       		.uleb128 0xe
 1067 0405 09040000 		.4byte	0x409
 1068 0409 04       		.uleb128 0x4
 1069 040a 01       		.byte	0x1
 1070 040b 08       		.byte	0x8
 1071 040c 5A030000 		.4byte	.LASF65
 1072 0410 09       		.uleb128 0x9
 1073 0411 04       		.byte	0x4
 1074 0412 4C030000 		.4byte	0x34c
 1075 0416 09       		.uleb128 0x9
 1076 0417 04       		.byte	0x4
ARM GAS  /var/folders/qh/xwg3v3kj02qbxczjpdb8lzfr0000gn/T//ccakFlxj.s 			page 20


 1077 0418 1C040000 		.4byte	0x41c
 1078 041c 0F       		.uleb128 0xf
 1079 041d E0000000 		.4byte	0xe0
 1080 0421 2B040000 		.4byte	0x42b
 1081 0425 10       		.uleb128 0x10
 1082 0426 71020000 		.4byte	0x271
 1083 042a 00       		.byte	0
 1084 042b 03       		.uleb128 0x3
 1085 042c 66040000 		.4byte	.LASF66
 1086 0430 0A       		.byte	0xa
 1087 0431 30       		.byte	0x30
 1088 0432 36040000 		.4byte	0x436
 1089 0436 05       		.uleb128 0x5
 1090 0437 66040000 		.4byte	.LASF66
 1091 043b 24       		.byte	0x24
 1092 043c 0A       		.byte	0xa
 1093 043d 3E       		.byte	0x3e
 1094 043e A3040000 		.4byte	0x4a3
 1095 0442 06       		.uleb128 0x6
 1096 0443 8E020000 		.4byte	.LASF67
 1097 0447 0A       		.byte	0xa
 1098 0448 3F       		.byte	0x3f
 1099 0449 3B020000 		.4byte	0x23b
 1100 044d 00       		.byte	0
 1101 044e 06       		.uleb128 0x6
 1102 044f 5D050000 		.4byte	.LASF68
 1103 0453 0A       		.byte	0xa
 1104 0454 40       		.byte	0x40
 1105 0455 2C000000 		.4byte	0x2c
 1106 0459 08       		.byte	0x8
 1107 045a 06       		.uleb128 0x6
 1108 045b E8030000 		.4byte	.LASF69
 1109 045f 0A       		.byte	0xa
 1110 0460 41       		.byte	0x41
 1111 0461 C5040000 		.4byte	0x4c5
 1112 0465 0C       		.byte	0xc
 1113 0466 06       		.uleb128 0x6
 1114 0467 6C050000 		.4byte	.LASF70
 1115 046b 0A       		.byte	0xa
 1116 046c 42       		.byte	0x42
 1117 046d C5040000 		.4byte	0x4c5
 1118 0471 10       		.byte	0x10
 1119 0472 06       		.uleb128 0x6
 1120 0473 5F030000 		.4byte	.LASF71
 1121 0477 0A       		.byte	0xa
 1122 0478 44       		.byte	0x44
 1123 0479 C5040000 		.4byte	0x4c5
 1124 047d 14       		.byte	0x14
 1125 047e 06       		.uleb128 0x6
 1126 047f 84000000 		.4byte	.LASF72
 1127 0483 0A       		.byte	0xa
 1128 0484 45       		.byte	0x45
 1129 0485 C5040000 		.4byte	0x4c5
 1130 0489 18       		.byte	0x18
 1131 048a 06       		.uleb128 0x6
 1132 048b 14030000 		.4byte	.LASF73
 1133 048f 0A       		.byte	0xa
ARM GAS  /var/folders/qh/xwg3v3kj02qbxczjpdb8lzfr0000gn/T//ccakFlxj.s 			page 21


 1134 0490 46       		.byte	0x46
 1135 0491 A3040000 		.4byte	0x4a3
 1136 0495 1C       		.byte	0x1c
 1137 0496 06       		.uleb128 0x6
 1138 0497 E3000000 		.4byte	.LASF74
 1139 049b 0A       		.byte	0xa
 1140 049c 47       		.byte	0x47
 1141 049d 71020000 		.4byte	0x271
 1142 04a1 20       		.byte	0x20
 1143 04a2 00       		.byte	0
 1144 04a3 03       		.uleb128 0x3
 1145 04a4 8C000000 		.4byte	.LASF75
 1146 04a8 0A       		.byte	0xa
 1147 04a9 33       		.byte	0x33
 1148 04aa AE040000 		.4byte	0x4ae
 1149 04ae 09       		.uleb128 0x9
 1150 04af 04       		.byte	0x4
 1151 04b0 B4040000 		.4byte	0x4b4
 1152 04b4 11       		.uleb128 0x11
 1153 04b5 BF040000 		.4byte	0x4bf
 1154 04b9 10       		.uleb128 0x10
 1155 04ba BF040000 		.4byte	0x4bf
 1156 04be 00       		.byte	0
 1157 04bf 09       		.uleb128 0x9
 1158 04c0 04       		.byte	0x4
 1159 04c1 2B040000 		.4byte	0x42b
 1160 04c5 09       		.uleb128 0x9
 1161 04c6 04       		.byte	0x4
 1162 04c7 45000000 		.4byte	0x45
 1163 04cb 03       		.uleb128 0x3
 1164 04cc 42030000 		.4byte	.LASF76
 1165 04d0 0A       		.byte	0xa
 1166 04d1 7B       		.byte	0x7b
 1167 04d2 2B040000 		.4byte	0x42b
 1168 04d6 03       		.uleb128 0x3
 1169 04d7 08030000 		.4byte	.LASF77
 1170 04db 0A       		.byte	0xa
 1171 04dc EE       		.byte	0xee
 1172 04dd 2B040000 		.4byte	0x42b
 1173 04e1 0F       		.uleb128 0xf
 1174 04e2 2C000000 		.4byte	0x2c
 1175 04e6 FA040000 		.4byte	0x4fa
 1176 04ea 10       		.uleb128 0x10
 1177 04eb 71020000 		.4byte	0x271
 1178 04ef 10       		.uleb128 0x10
 1179 04f0 FA040000 		.4byte	0x4fa
 1180 04f4 10       		.uleb128 0x10
 1181 04f5 2C000000 		.4byte	0x2c
 1182 04f9 00       		.byte	0
 1183 04fa 09       		.uleb128 0x9
 1184 04fb 04       		.byte	0x4
 1185 04fc 00050000 		.4byte	0x500
 1186 0500 0E       		.uleb128 0xe
 1187 0501 45000000 		.4byte	0x45
 1188 0505 09       		.uleb128 0x9
 1189 0506 04       		.byte	0x4
 1190 0507 E1040000 		.4byte	0x4e1
ARM GAS  /var/folders/qh/xwg3v3kj02qbxczjpdb8lzfr0000gn/T//ccakFlxj.s 			page 22


 1191 050b 0F       		.uleb128 0xf
 1192 050c 2C000000 		.4byte	0x2c
 1193 0510 24050000 		.4byte	0x524
 1194 0514 10       		.uleb128 0x10
 1195 0515 71020000 		.4byte	0x271
 1196 0519 10       		.uleb128 0x10
 1197 051a C5040000 		.4byte	0x4c5
 1198 051e 10       		.uleb128 0x10
 1199 051f 2C000000 		.4byte	0x2c
 1200 0523 00       		.byte	0
 1201 0524 09       		.uleb128 0x9
 1202 0525 04       		.byte	0x4
 1203 0526 0B050000 		.4byte	0x50b
 1204 052a 0F       		.uleb128 0xf
 1205 052b E0000000 		.4byte	0xe0
 1206 052f 3E050000 		.4byte	0x53e
 1207 0533 10       		.uleb128 0x10
 1208 0534 71020000 		.4byte	0x271
 1209 0538 10       		.uleb128 0x10
 1210 0539 45000000 		.4byte	0x45
 1211 053d 00       		.byte	0
 1212 053e 09       		.uleb128 0x9
 1213 053f 04       		.byte	0x4
 1214 0540 2A050000 		.4byte	0x52a
 1215 0544 0B       		.uleb128 0xb
 1216 0545 5E000000 		.4byte	0x5e
 1217 0549 12       		.uleb128 0x12
 1218 054a 38       		.byte	0x38
 1219 054b 0B       		.byte	0xb
 1220 054c 1702     		.2byte	0x217
 1221 054e 08060000 		.4byte	0x608
 1222 0552 13       		.uleb128 0x13
 1223 0553 435200   		.ascii	"CR\000"
 1224 0556 0B       		.byte	0xb
 1225 0557 1902     		.2byte	0x219
 1226 0559 04030000 		.4byte	0x304
 1227 055d 00       		.byte	0
 1228 055e 14       		.uleb128 0x14
 1229 055f 34050000 		.4byte	.LASF78
 1230 0563 0B       		.byte	0xb
 1231 0564 1A02     		.2byte	0x21a
 1232 0566 04030000 		.4byte	0x304
 1233 056a 04       		.byte	0x4
 1234 056b 13       		.uleb128 0x13
 1235 056c 43495200 		.ascii	"CIR\000"
 1236 0570 0B       		.byte	0xb
 1237 0571 1B02     		.2byte	0x21b
 1238 0573 04030000 		.4byte	0x304
 1239 0577 08       		.byte	0x8
 1240 0578 14       		.uleb128 0x14
 1241 0579 51000000 		.4byte	.LASF79
 1242 057d 0B       		.byte	0xb
 1243 057e 1C02     		.2byte	0x21c
 1244 0580 04030000 		.4byte	0x304
 1245 0584 0C       		.byte	0xc
 1246 0585 14       		.uleb128 0x14
 1247 0586 39030000 		.4byte	.LASF80
ARM GAS  /var/folders/qh/xwg3v3kj02qbxczjpdb8lzfr0000gn/T//ccakFlxj.s 			page 23


 1248 058a 0B       		.byte	0xb
 1249 058b 1D02     		.2byte	0x21d
 1250 058d 04030000 		.4byte	0x304
 1251 0591 10       		.byte	0x10
 1252 0592 14       		.uleb128 0x14
 1253 0593 8C030000 		.4byte	.LASF81
 1254 0597 0B       		.byte	0xb
 1255 0598 1E02     		.2byte	0x21e
 1256 059a 04030000 		.4byte	0x304
 1257 059e 14       		.byte	0x14
 1258 059f 14       		.uleb128 0x14
 1259 05a0 3C040000 		.4byte	.LASF82
 1260 05a4 0B       		.byte	0xb
 1261 05a5 1F02     		.2byte	0x21f
 1262 05a7 04030000 		.4byte	0x304
 1263 05ab 18       		.byte	0x18
 1264 05ac 14       		.uleb128 0x14
 1265 05ad 28000000 		.4byte	.LASF83
 1266 05b1 0B       		.byte	0xb
 1267 05b2 2002     		.2byte	0x220
 1268 05b4 04030000 		.4byte	0x304
 1269 05b8 1C       		.byte	0x1c
 1270 05b9 14       		.uleb128 0x14
 1271 05ba 00000000 		.4byte	.LASF84
 1272 05be 0B       		.byte	0xb
 1273 05bf 2102     		.2byte	0x221
 1274 05c1 04030000 		.4byte	0x304
 1275 05c5 20       		.byte	0x20
 1276 05c6 13       		.uleb128 0x13
 1277 05c7 43535200 		.ascii	"CSR\000"
 1278 05cb 0B       		.byte	0xb
 1279 05cc 2202     		.2byte	0x222
 1280 05ce 04030000 		.4byte	0x304
 1281 05d2 24       		.byte	0x24
 1282 05d3 14       		.uleb128 0x14
 1283 05d4 28020000 		.4byte	.LASF85
 1284 05d8 0B       		.byte	0xb
 1285 05d9 2302     		.2byte	0x223
 1286 05db 04030000 		.4byte	0x304
 1287 05df 28       		.byte	0x28
 1288 05e0 14       		.uleb128 0x14
 1289 05e1 30040000 		.4byte	.LASF86
 1290 05e5 0B       		.byte	0xb
 1291 05e6 2402     		.2byte	0x224
 1292 05e8 04030000 		.4byte	0x304
 1293 05ec 2C       		.byte	0x2c
 1294 05ed 14       		.uleb128 0x14
 1295 05ee 36040000 		.4byte	.LASF87
 1296 05f2 0B       		.byte	0xb
 1297 05f3 2502     		.2byte	0x225
 1298 05f5 04030000 		.4byte	0x304
 1299 05f9 30       		.byte	0x30
 1300 05fa 13       		.uleb128 0x13
 1301 05fb 43523200 		.ascii	"CR2\000"
 1302 05ff 0B       		.byte	0xb
 1303 0600 2602     		.2byte	0x226
 1304 0602 04030000 		.4byte	0x304
ARM GAS  /var/folders/qh/xwg3v3kj02qbxczjpdb8lzfr0000gn/T//ccakFlxj.s 			page 24


 1305 0606 34       		.byte	0x34
 1306 0607 00       		.byte	0
 1307 0608 15       		.uleb128 0x15
 1308 0609 9E000000 		.4byte	.LASF88
 1309 060d 0B       		.byte	0xb
 1310 060e 2702     		.2byte	0x227
 1311 0610 49050000 		.4byte	0x549
 1312 0614 12       		.uleb128 0x12
 1313 0615 2C       		.byte	0x2c
 1314 0616 0B       		.byte	0xb
 1315 0617 AA02     		.2byte	0x2aa
 1316 0619 EE060000 		.4byte	0x6ee
 1317 061d 13       		.uleb128 0x13
 1318 061e 43523100 		.ascii	"CR1\000"
 1319 0622 0B       		.byte	0xb
 1320 0623 AC02     		.2byte	0x2ac
 1321 0625 04030000 		.4byte	0x304
 1322 0629 00       		.byte	0
 1323 062a 13       		.uleb128 0x13
 1324 062b 43523200 		.ascii	"CR2\000"
 1325 062f 0B       		.byte	0xb
 1326 0630 AD02     		.2byte	0x2ad
 1327 0632 04030000 		.4byte	0x304
 1328 0636 04       		.byte	0x4
 1329 0637 13       		.uleb128 0x13
 1330 0638 43523300 		.ascii	"CR3\000"
 1331 063c 0B       		.byte	0xb
 1332 063d AE02     		.2byte	0x2ae
 1333 063f 04030000 		.4byte	0x304
 1334 0643 08       		.byte	0x8
 1335 0644 13       		.uleb128 0x13
 1336 0645 42525200 		.ascii	"BRR\000"
 1337 0649 0B       		.byte	0xb
 1338 064a AF02     		.2byte	0x2af
 1339 064c 44050000 		.4byte	0x544
 1340 0650 0C       		.byte	0xc
 1341 0651 14       		.uleb128 0x14
 1342 0652 CF040000 		.4byte	.LASF89
 1343 0656 0B       		.byte	0xb
 1344 0657 B002     		.2byte	0x2b0
 1345 0659 5E000000 		.4byte	0x5e
 1346 065d 0E       		.byte	0xe
 1347 065e 14       		.uleb128 0x14
 1348 065f 07020000 		.4byte	.LASF90
 1349 0663 0B       		.byte	0xb
 1350 0664 B102     		.2byte	0x2b1
 1351 0666 44050000 		.4byte	0x544
 1352 066a 10       		.byte	0x10
 1353 066b 14       		.uleb128 0x14
 1354 066c D9040000 		.4byte	.LASF91
 1355 0670 0B       		.byte	0xb
 1356 0671 B202     		.2byte	0x2b2
 1357 0673 5E000000 		.4byte	0x5e
 1358 0677 12       		.byte	0x12
 1359 0678 14       		.uleb128 0x14
 1360 0679 B7030000 		.4byte	.LASF92
 1361 067d 0B       		.byte	0xb
ARM GAS  /var/folders/qh/xwg3v3kj02qbxczjpdb8lzfr0000gn/T//ccakFlxj.s 			page 25


 1362 067e B302     		.2byte	0x2b3
 1363 0680 04030000 		.4byte	0x304
 1364 0684 14       		.byte	0x14
 1365 0685 13       		.uleb128 0x13
 1366 0686 52515200 		.ascii	"RQR\000"
 1367 068a 0B       		.byte	0xb
 1368 068b B402     		.2byte	0x2b4
 1369 068d 44050000 		.4byte	0x544
 1370 0691 18       		.byte	0x18
 1371 0692 14       		.uleb128 0x14
 1372 0693 E3040000 		.4byte	.LASF93
 1373 0697 0B       		.byte	0xb
 1374 0698 B502     		.2byte	0x2b5
 1375 069a 5E000000 		.4byte	0x5e
 1376 069e 1A       		.byte	0x1a
 1377 069f 13       		.uleb128 0x13
 1378 06a0 49535200 		.ascii	"ISR\000"
 1379 06a4 0B       		.byte	0xb
 1380 06a5 B602     		.2byte	0x2b6
 1381 06a7 04030000 		.4byte	0x304
 1382 06ab 1C       		.byte	0x1c
 1383 06ac 13       		.uleb128 0x13
 1384 06ad 49435200 		.ascii	"ICR\000"
 1385 06b1 0B       		.byte	0xb
 1386 06b2 B702     		.2byte	0x2b7
 1387 06b4 04030000 		.4byte	0x304
 1388 06b8 20       		.byte	0x20
 1389 06b9 13       		.uleb128 0x13
 1390 06ba 52445200 		.ascii	"RDR\000"
 1391 06be 0B       		.byte	0xb
 1392 06bf B802     		.2byte	0x2b8
 1393 06c1 44050000 		.4byte	0x544
 1394 06c5 24       		.byte	0x24
 1395 06c6 14       		.uleb128 0x14
 1396 06c7 ED040000 		.4byte	.LASF94
 1397 06cb 0B       		.byte	0xb
 1398 06cc B902     		.2byte	0x2b9
 1399 06ce 5E000000 		.4byte	0x5e
 1400 06d2 26       		.byte	0x26
 1401 06d3 13       		.uleb128 0x13
 1402 06d4 54445200 		.ascii	"TDR\000"
 1403 06d8 0B       		.byte	0xb
 1404 06d9 BA02     		.2byte	0x2ba
 1405 06db 44050000 		.4byte	0x544
 1406 06df 28       		.byte	0x28
 1407 06e0 14       		.uleb128 0x14
 1408 06e1 F7040000 		.4byte	.LASF95
 1409 06e5 0B       		.byte	0xb
 1410 06e6 BB02     		.2byte	0x2bb
 1411 06e8 5E000000 		.4byte	0x5e
 1412 06ec 2A       		.byte	0x2a
 1413 06ed 00       		.byte	0
 1414 06ee 15       		.uleb128 0x15
 1415 06ef F4020000 		.4byte	.LASF96
 1416 06f3 0B       		.byte	0xb
 1417 06f4 BC02     		.2byte	0x2bc
 1418 06f6 14060000 		.4byte	0x614
ARM GAS  /var/folders/qh/xwg3v3kj02qbxczjpdb8lzfr0000gn/T//ccakFlxj.s 			page 26


 1419 06fa 0F       		.uleb128 0xf
 1420 06fb E0000000 		.4byte	0xe0
 1421 06ff 13070000 		.4byte	0x713
 1422 0703 10       		.uleb128 0x10
 1423 0704 71020000 		.4byte	0x271
 1424 0708 10       		.uleb128 0x10
 1425 0709 45000000 		.4byte	0x45
 1426 070d 10       		.uleb128 0x10
 1427 070e 01010000 		.4byte	0x101
 1428 0712 00       		.byte	0
 1429 0713 09       		.uleb128 0x9
 1430 0714 04       		.byte	0x4
 1431 0715 FA060000 		.4byte	0x6fa
 1432 0719 0F       		.uleb128 0xf
 1433 071a E0000000 		.4byte	0xe0
 1434 071e 2D070000 		.4byte	0x72d
 1435 0722 10       		.uleb128 0x10
 1436 0723 71020000 		.4byte	0x271
 1437 0727 10       		.uleb128 0x10
 1438 0728 01010000 		.4byte	0x101
 1439 072c 00       		.byte	0
 1440 072d 09       		.uleb128 0x9
 1441 072e 04       		.byte	0x4
 1442 072f 19070000 		.4byte	0x719
 1443 0733 0F       		.uleb128 0xf
 1444 0734 2C000000 		.4byte	0x2c
 1445 0738 51070000 		.4byte	0x751
 1446 073c 10       		.uleb128 0x10
 1447 073d 71020000 		.4byte	0x271
 1448 0741 10       		.uleb128 0x10
 1449 0742 FA040000 		.4byte	0x4fa
 1450 0746 10       		.uleb128 0x10
 1451 0747 2C000000 		.4byte	0x2c
 1452 074b 10       		.uleb128 0x10
 1453 074c 01010000 		.4byte	0x101
 1454 0750 00       		.byte	0
 1455 0751 09       		.uleb128 0x9
 1456 0752 04       		.byte	0x4
 1457 0753 33070000 		.4byte	0x733
 1458 0757 0F       		.uleb128 0xf
 1459 0758 2C000000 		.4byte	0x2c
 1460 075c 75070000 		.4byte	0x775
 1461 0760 10       		.uleb128 0x10
 1462 0761 71020000 		.4byte	0x271
 1463 0765 10       		.uleb128 0x10
 1464 0766 C5040000 		.4byte	0x4c5
 1465 076a 10       		.uleb128 0x10
 1466 076b 2C000000 		.4byte	0x2c
 1467 076f 10       		.uleb128 0x10
 1468 0770 01010000 		.4byte	0x101
 1469 0774 00       		.byte	0
 1470 0775 09       		.uleb128 0x9
 1471 0776 04       		.byte	0x4
 1472 0777 57070000 		.4byte	0x757
 1473 077b 16       		.uleb128 0x16
 1474 077c 01       		.byte	0x1
 1475 077d 0C       		.byte	0xc
ARM GAS  /var/folders/qh/xwg3v3kj02qbxczjpdb8lzfr0000gn/T//ccakFlxj.s 			page 27


 1476 077e 5D       		.byte	0x5d
 1477 077f 96070000 		.4byte	0x796
 1478 0783 17       		.uleb128 0x17
 1479 0784 4A050000 		.4byte	.LASF97
 1480 0788 00       		.sleb128 0
 1481 0789 17       		.uleb128 0x17
 1482 078a EC020000 		.4byte	.LASF98
 1483 078e 01       		.sleb128 1
 1484 078f 17       		.uleb128 0x17
 1485 0790 A4040000 		.4byte	.LASF99
 1486 0794 02       		.sleb128 2
 1487 0795 00       		.byte	0
 1488 0796 03       		.uleb128 0x3
 1489 0797 3D020000 		.4byte	.LASF100
 1490 079b 0C       		.byte	0xc
 1491 079c 61       		.byte	0x61
 1492 079d 7B070000 		.4byte	0x77b
 1493 07a1 03       		.uleb128 0x3
 1494 07a2 1B000000 		.4byte	.LASF101
 1495 07a6 0C       		.byte	0xc
 1496 07a7 66       		.byte	0x66
 1497 07a8 AC070000 		.4byte	0x7ac
 1498 07ac 05       		.uleb128 0x5
 1499 07ad 1B000000 		.4byte	.LASF101
 1500 07b1 7C       		.byte	0x7c
 1501 07b2 0C       		.byte	0xc
 1502 07b3 80       		.byte	0x80
 1503 07b4 23080000 		.4byte	0x823
 1504 07b8 07       		.uleb128 0x7
 1505 07b9 766D7400 		.ascii	"vmt\000"
 1506 07bd 0C       		.byte	0xc
 1507 07be 82       		.byte	0x82
 1508 07bf D4080000 		.4byte	0x8d4
 1509 07c3 00       		.byte	0
 1510 07c4 06       		.uleb128 0x6
 1511 07c5 47020000 		.4byte	.LASF102
 1512 07c9 0C       		.byte	0xc
 1513 07ca 83       		.byte	0x83
 1514 07cb BE030000 		.4byte	0x3be
 1515 07cf 04       		.byte	0x4
 1516 07d0 06       		.uleb128 0x6
 1517 07d1 EC050000 		.4byte	.LASF103
 1518 07d5 0C       		.byte	0xc
 1519 07d6 83       		.byte	0x83
 1520 07d7 96070000 		.4byte	0x796
 1521 07db 08       		.byte	0x8
 1522 07dc 06       		.uleb128 0x6
 1523 07dd 0C020000 		.4byte	.LASF104
 1524 07e1 0C       		.byte	0xc
 1525 07e2 83       		.byte	0x83
 1526 07e3 CB040000 		.4byte	0x4cb
 1527 07e7 0C       		.byte	0xc
 1528 07e8 06       		.uleb128 0x6
 1529 07e9 73040000 		.4byte	.LASF105
 1530 07ed 0C       		.byte	0xc
 1531 07ee 83       		.byte	0x83
 1532 07ef D6040000 		.4byte	0x4d6
ARM GAS  /var/folders/qh/xwg3v3kj02qbxczjpdb8lzfr0000gn/T//ccakFlxj.s 			page 28


 1533 07f3 30       		.byte	0x30
 1534 07f4 07       		.uleb128 0x7
 1535 07f5 696200   		.ascii	"ib\000"
 1536 07f8 0C       		.byte	0xc
 1537 07f9 83       		.byte	0x83
 1538 07fa DF080000 		.4byte	0x8df
 1539 07fe 54       		.byte	0x54
 1540 07ff 07       		.uleb128 0x7
 1541 0800 6F6200   		.ascii	"ob\000"
 1542 0803 0C       		.byte	0xc
 1543 0804 83       		.byte	0x83
 1544 0805 DF080000 		.4byte	0x8df
 1545 0809 64       		.byte	0x64
 1546 080a 06       		.uleb128 0x6
 1547 080b CE030000 		.4byte	.LASF106
 1548 080f 0C       		.byte	0xc
 1549 0810 83       		.byte	0x83
 1550 0811 EF080000 		.4byte	0x8ef
 1551 0815 74       		.byte	0x74
 1552 0816 06       		.uleb128 0x6
 1553 0817 1D030000 		.4byte	.LASF107
 1554 081b 0C       		.byte	0xc
 1555 081c 83       		.byte	0x83
 1556 081d 82000000 		.4byte	0x82
 1557 0821 78       		.byte	0x78
 1558 0822 00       		.byte	0
 1559 0823 08       		.uleb128 0x8
 1560 0824 10       		.byte	0x10
 1561 0825 0D       		.byte	0xd
 1562 0826 D7       		.byte	0xd7
 1563 0827 5C080000 		.4byte	0x85c
 1564 082b 06       		.uleb128 0x6
 1565 082c FA010000 		.4byte	.LASF108
 1566 0830 0D       		.byte	0xd
 1567 0831 DB       		.byte	0xdb
 1568 0832 82000000 		.4byte	0x82
 1569 0836 00       		.byte	0
 1570 0837 07       		.uleb128 0x7
 1571 0838 63723100 		.ascii	"cr1\000"
 1572 083c 0D       		.byte	0xd
 1573 083d E0       		.byte	0xe0
 1574 083e 82000000 		.4byte	0x82
 1575 0842 04       		.byte	0x4
 1576 0843 07       		.uleb128 0x7
 1577 0844 63723200 		.ascii	"cr2\000"
 1578 0848 0D       		.byte	0xd
 1579 0849 E4       		.byte	0xe4
 1580 084a 82000000 		.4byte	0x82
 1581 084e 08       		.byte	0x8
 1582 084f 07       		.uleb128 0x7
 1583 0850 63723300 		.ascii	"cr3\000"
 1584 0854 0D       		.byte	0xd
 1585 0855 E8       		.byte	0xe8
 1586 0856 82000000 		.4byte	0x82
 1587 085a 0C       		.byte	0xc
 1588 085b 00       		.byte	0
 1589 085c 03       		.uleb128 0x3
ARM GAS  /var/folders/qh/xwg3v3kj02qbxczjpdb8lzfr0000gn/T//ccakFlxj.s 			page 29


 1590 085d 30020000 		.4byte	.LASF109
 1591 0861 0D       		.byte	0xd
 1592 0862 E9       		.byte	0xe9
 1593 0863 23080000 		.4byte	0x823
 1594 0867 05       		.uleb128 0x5
 1595 0868 AD040000 		.4byte	.LASF110
 1596 086c 20       		.byte	0x20
 1597 086d 0C       		.byte	0xc
 1598 086e 75       		.byte	0x75
 1599 086f D4080000 		.4byte	0x8d4
 1600 0873 06       		.uleb128 0x6
 1601 0874 E2030000 		.4byte	.LASF111
 1602 0878 0C       		.byte	0xc
 1603 0879 76       		.byte	0x76
 1604 087a 05050000 		.4byte	0x505
 1605 087e 00       		.byte	0
 1606 087f 06       		.uleb128 0x6
 1607 0880 39050000 		.4byte	.LASF112
 1608 0884 0C       		.byte	0xc
 1609 0885 76       		.byte	0x76
 1610 0886 24050000 		.4byte	0x524
 1611 088a 04       		.byte	0x4
 1612 088b 07       		.uleb128 0x7
 1613 088c 70757400 		.ascii	"put\000"
 1614 0890 0C       		.byte	0xc
 1615 0891 76       		.byte	0x76
 1616 0892 3E050000 		.4byte	0x53e
 1617 0896 08       		.byte	0x8
 1618 0897 07       		.uleb128 0x7
 1619 0898 67657400 		.ascii	"get\000"
 1620 089c 0C       		.byte	0xc
 1621 089d 76       		.byte	0x76
 1622 089e 16040000 		.4byte	0x416
 1623 08a2 0C       		.byte	0xc
 1624 08a3 06       		.uleb128 0x6
 1625 08a4 98020000 		.4byte	.LASF113
 1626 08a8 0C       		.byte	0xc
 1627 08a9 76       		.byte	0x76
 1628 08aa 13070000 		.4byte	0x713
 1629 08ae 10       		.byte	0x10
 1630 08af 06       		.uleb128 0x6
 1631 08b0 67050000 		.4byte	.LASF114
 1632 08b4 0C       		.byte	0xc
 1633 08b5 76       		.byte	0x76
 1634 08b6 2D070000 		.4byte	0x72d
 1635 08ba 14       		.byte	0x14
 1636 08bb 06       		.uleb128 0x6
 1637 08bc 00020000 		.4byte	.LASF115
 1638 08c0 0C       		.byte	0xc
 1639 08c1 76       		.byte	0x76
 1640 08c2 51070000 		.4byte	0x751
 1641 08c6 18       		.byte	0x18
 1642 08c7 06       		.uleb128 0x6
 1643 08c8 05060000 		.4byte	.LASF116
 1644 08cc 0C       		.byte	0xc
 1645 08cd 76       		.byte	0x76
 1646 08ce 75070000 		.4byte	0x775
ARM GAS  /var/folders/qh/xwg3v3kj02qbxczjpdb8lzfr0000gn/T//ccakFlxj.s 			page 30


 1647 08d2 1C       		.byte	0x1c
 1648 08d3 00       		.byte	0
 1649 08d4 09       		.uleb128 0x9
 1650 08d5 04       		.byte	0x4
 1651 08d6 DA080000 		.4byte	0x8da
 1652 08da 0E       		.uleb128 0xe
 1653 08db 67080000 		.4byte	0x867
 1654 08df 18       		.uleb128 0x18
 1655 08e0 45000000 		.4byte	0x45
 1656 08e4 EF080000 		.4byte	0x8ef
 1657 08e8 19       		.uleb128 0x19
 1658 08e9 09030000 		.4byte	0x309
 1659 08ed 0F       		.byte	0xf
 1660 08ee 00       		.byte	0
 1661 08ef 09       		.uleb128 0x9
 1662 08f0 04       		.byte	0x4
 1663 08f1 EE060000 		.4byte	0x6ee
 1664 08f5 1A       		.uleb128 0x1a
 1665 08f6 25040000 		.4byte	.LASF118
 1666 08fa 01       		.byte	0x1
 1667 08fb 5C       		.byte	0x5c
 1668 08fc 01       		.byte	0x1
 1669 08fd 21090000 		.4byte	0x921
 1670 0901 1B       		.uleb128 0x1b
 1671 0902 73647000 		.ascii	"sdp\000"
 1672 0906 01       		.byte	0x1
 1673 0907 5C       		.byte	0x5c
 1674 0908 21090000 		.4byte	0x921
 1675 090c 1C       		.uleb128 0x1c
 1676 090d BD040000 		.4byte	.LASF117
 1677 0911 01       		.byte	0x1
 1678 0912 5C       		.byte	0x5c
 1679 0913 27090000 		.4byte	0x927
 1680 0917 1D       		.uleb128 0x1d
 1681 0918 7500     		.ascii	"u\000"
 1682 091a 01       		.byte	0x1
 1683 091b 5D       		.byte	0x5d
 1684 091c EF080000 		.4byte	0x8ef
 1685 0920 00       		.byte	0
 1686 0921 09       		.uleb128 0x9
 1687 0922 04       		.byte	0x4
 1688 0923 A1070000 		.4byte	0x7a1
 1689 0927 09       		.uleb128 0x9
 1690 0928 04       		.byte	0x4
 1691 0929 2D090000 		.4byte	0x92d
 1692 092d 0E       		.uleb128 0xe
 1693 092e 5C080000 		.4byte	0x85c
 1694 0932 1A       		.uleb128 0x1a
 1695 0933 83040000 		.4byte	.LASF119
 1696 0937 01       		.byte	0x1
 1697 0938 71       		.byte	0x71
 1698 0939 01       		.byte	0x1
 1699 093a 48090000 		.4byte	0x948
 1700 093e 1B       		.uleb128 0x1b
 1701 093f 7500     		.ascii	"u\000"
 1702 0941 01       		.byte	0x1
 1703 0942 71       		.byte	0x71
ARM GAS  /var/folders/qh/xwg3v3kj02qbxczjpdb8lzfr0000gn/T//ccakFlxj.s 			page 31


 1704 0943 EF080000 		.4byte	0x8ef
 1705 0947 00       		.byte	0
 1706 0948 1A       		.uleb128 0x1a
 1707 0949 47000000 		.4byte	.LASF120
 1708 094d 01       		.byte	0x1
 1709 094e 7E       		.byte	0x7e
 1710 094f 01       		.byte	0x1
 1711 0950 76090000 		.4byte	0x976
 1712 0954 1B       		.uleb128 0x1b
 1713 0955 73647000 		.ascii	"sdp\000"
 1714 0959 01       		.byte	0x1
 1715 095a 7E       		.byte	0x7e
 1716 095b 21090000 		.4byte	0x921
 1717 095f 1B       		.uleb128 0x1b
 1718 0960 69737200 		.ascii	"isr\000"
 1719 0964 01       		.byte	0x1
 1720 0965 7E       		.byte	0x7e
 1721 0966 82000000 		.4byte	0x82
 1722 096a 1D       		.uleb128 0x1d
 1723 096b 73747300 		.ascii	"sts\000"
 1724 096f 01       		.byte	0x1
 1725 0970 7F       		.byte	0x7f
 1726 0971 F6000000 		.4byte	0xf6
 1727 0975 00       		.byte	0
 1728 0976 1A       		.uleb128 0x1a
 1729 0977 46060000 		.4byte	.LASF121
 1730 097b 01       		.byte	0x1
 1731 097c 93       		.byte	0x93
 1732 097d 01       		.byte	0x1
 1733 097e B8090000 		.4byte	0x9b8
 1734 0982 1B       		.uleb128 0x1b
 1735 0983 73647000 		.ascii	"sdp\000"
 1736 0987 01       		.byte	0x1
 1737 0988 93       		.byte	0x93
 1738 0989 21090000 		.4byte	0x921
 1739 098d 1D       		.uleb128 0x1d
 1740 098e 7500     		.ascii	"u\000"
 1741 0990 01       		.byte	0x1
 1742 0991 94       		.byte	0x94
 1743 0992 EF080000 		.4byte	0x8ef
 1744 0996 1D       		.uleb128 0x1d
 1745 0997 63723100 		.ascii	"cr1\000"
 1746 099b 01       		.byte	0x1
 1747 099c 95       		.byte	0x95
 1748 099d 82000000 		.4byte	0x82
 1749 09a1 1D       		.uleb128 0x1d
 1750 09a2 69737200 		.ascii	"isr\000"
 1751 09a6 01       		.byte	0x1
 1752 09a7 96       		.byte	0x96
 1753 09a8 82000000 		.4byte	0x82
 1754 09ac 1E       		.uleb128 0x1e
 1755 09ad 1D       		.uleb128 0x1d
 1756 09ae 6200     		.ascii	"b\000"
 1757 09b0 01       		.byte	0x1
 1758 09b1 B0       		.byte	0xb0
 1759 09b2 E0000000 		.4byte	0xe0
 1760 09b6 00       		.byte	0
ARM GAS  /var/folders/qh/xwg3v3kj02qbxczjpdb8lzfr0000gn/T//ccakFlxj.s 			page 32


 1761 09b7 00       		.byte	0
 1762 09b8 1F       		.uleb128 0x1f
 1763 09b9 1D040000 		.4byte	.LASF136
 1764 09bd 01       		.byte	0x1
 1765 09be C6       		.byte	0xc6
 1766 09bf 00000000 		.4byte	.LFB44
 1767 09c3 10000000 		.4byte	.LFE44-.LFB44
 1768 09c7 01       		.uleb128 0x1
 1769 09c8 9C       		.byte	0x9c
 1770 09c9 DA090000 		.4byte	0x9da
 1771 09cd 20       		.uleb128 0x20
 1772 09ce 717000   		.ascii	"qp\000"
 1773 09d1 01       		.byte	0x1
 1774 09d2 C6       		.byte	0xc6
 1775 09d3 BF040000 		.4byte	0x4bf
 1776 09d7 01       		.uleb128 0x1
 1777 09d8 50       		.byte	0x50
 1778 09d9 00       		.byte	0
 1779 09da 21       		.uleb128 0x21
 1780 09db 55020000 		.4byte	.LASF122
 1781 09df 01       		.byte	0x1
 1782 09e0 0201     		.2byte	0x102
 1783 09e2 00000000 		.4byte	.LFB45
 1784 09e6 C8000000 		.4byte	.LFE45-.LFB45
 1785 09ea 01       		.uleb128 0x1
 1786 09eb 9C       		.byte	0x9c
 1787 09ec 200B0000 		.4byte	0xb20
 1788 09f0 22       		.uleb128 0x22
 1789 09f1 1E060000 		.4byte	.LASF126
 1790 09f5 01       		.byte	0x1
 1791 09f6 0401     		.2byte	0x104
 1792 09f8 66020000 		.4byte	0x266
 1793 09fc 00000000 		.4byte	.LLST0
 1794 0a00 23       		.uleb128 0x23
 1795 0a01 76090000 		.4byte	0x976
 1796 0a05 08000000 		.4byte	.LBB12
 1797 0a09 00000000 		.4byte	.Ldebug_ranges0+0
 1798 0a0d 01       		.byte	0x1
 1799 0a0e 0601     		.2byte	0x106
 1800 0a10 0F0B0000 		.4byte	0xb0f
 1801 0a14 24       		.uleb128 0x24
 1802 0a15 82090000 		.4byte	0x982
 1803 0a19 06       		.uleb128 0x6
 1804 0a1a 03       		.byte	0x3
 1805 0a1b 00000000 		.4byte	SD1
 1806 0a1f 9F       		.byte	0x9f
 1807 0a20 25       		.uleb128 0x25
 1808 0a21 00000000 		.4byte	.Ldebug_ranges0+0
 1809 0a25 26       		.uleb128 0x26
 1810 0a26 8D090000 		.4byte	0x98d
 1811 0a2a 1E000000 		.4byte	.LLST1
 1812 0a2e 26       		.uleb128 0x26
 1813 0a2f 96090000 		.4byte	0x996
 1814 0a33 3C000000 		.4byte	.LLST2
 1815 0a37 26       		.uleb128 0x26
 1816 0a38 A1090000 		.4byte	0x9a1
 1817 0a3c 5A000000 		.4byte	.LLST3
ARM GAS  /var/folders/qh/xwg3v3kj02qbxczjpdb8lzfr0000gn/T//ccakFlxj.s 			page 33


 1818 0a40 27       		.uleb128 0x27
 1819 0a41 48090000 		.4byte	0x948
 1820 0a45 6A000000 		.4byte	.LBB14
 1821 0a49 2C000000 		.4byte	.LBE14-.LBB14
 1822 0a4d 01       		.byte	0x1
 1823 0a4e 9E       		.byte	0x9e
 1824 0a4f 890A0000 		.4byte	0xa89
 1825 0a53 28       		.uleb128 0x28
 1826 0a54 54090000 		.4byte	0x954
 1827 0a58 78000000 		.4byte	.LLST4
 1828 0a5c 28       		.uleb128 0x28
 1829 0a5d 5F090000 		.4byte	0x95f
 1830 0a61 90000000 		.4byte	.LLST5
 1831 0a65 29       		.uleb128 0x29
 1832 0a66 6A000000 		.4byte	.LBB15
 1833 0a6a 2C000000 		.4byte	.LBE15-.LBB15
 1834 0a6e 26       		.uleb128 0x26
 1835 0a6f 6A090000 		.4byte	0x96a
 1836 0a73 A3000000 		.4byte	.LLST6
 1837 0a77 2A       		.uleb128 0x2a
 1838 0a78 92000000 		.4byte	.LVL19
 1839 0a7c 560C0000 		.4byte	0xc56
 1840 0a80 2B       		.uleb128 0x2b
 1841 0a81 01       		.uleb128 0x1
 1842 0a82 50       		.byte	0x50
 1843 0a83 02       		.uleb128 0x2
 1844 0a84 76       		.byte	0x76
 1845 0a85 04       		.sleb128 4
 1846 0a86 00       		.byte	0
 1847 0a87 00       		.byte	0
 1848 0a88 00       		.byte	0
 1849 0a89 2C       		.uleb128 0x2c
 1850 0a8a 96000000 		.4byte	.LBB16
 1851 0a8e 32000000 		.4byte	.LBE16-.LBB16
 1852 0a92 C90A0000 		.4byte	0xac9
 1853 0a96 26       		.uleb128 0x26
 1854 0a97 AD090000 		.4byte	0x9ad
 1855 0a9b C2000000 		.4byte	.LLST7
 1856 0a9f 2D       		.uleb128 0x2d
 1857 0aa0 A0000000 		.4byte	.LVL21
 1858 0aa4 720C0000 		.4byte	0xc72
 1859 0aa8 B30A0000 		.4byte	0xab3
 1860 0aac 2B       		.uleb128 0x2b
 1861 0aad 01       		.uleb128 0x1
 1862 0aae 50       		.byte	0x50
 1863 0aaf 02       		.uleb128 0x2
 1864 0ab0 76       		.byte	0x76
 1865 0ab1 30       		.sleb128 48
 1866 0ab2 00       		.byte	0
 1867 0ab3 2A       		.uleb128 0x2a
 1868 0ab4 B4000000 		.4byte	.LVL25
 1869 0ab8 560C0000 		.4byte	0xc56
 1870 0abc 2B       		.uleb128 0x2b
 1871 0abd 01       		.uleb128 0x1
 1872 0abe 51       		.byte	0x51
 1873 0abf 01       		.uleb128 0x1
 1874 0ac0 38       		.byte	0x38
ARM GAS  /var/folders/qh/xwg3v3kj02qbxczjpdb8lzfr0000gn/T//ccakFlxj.s 			page 34


 1875 0ac1 2B       		.uleb128 0x2b
 1876 0ac2 01       		.uleb128 0x1
 1877 0ac3 50       		.byte	0x50
 1878 0ac4 02       		.uleb128 0x2
 1879 0ac5 76       		.byte	0x76
 1880 0ac6 04       		.sleb128 4
 1881 0ac7 00       		.byte	0
 1882 0ac8 00       		.byte	0
 1883 0ac9 2D       		.uleb128 0x2d
 1884 0aca 36000000 		.4byte	.LVL5
 1885 0ace 560C0000 		.4byte	0xc56
 1886 0ad2 E20A0000 		.4byte	0xae2
 1887 0ad6 2B       		.uleb128 0x2b
 1888 0ad7 01       		.uleb128 0x1
 1889 0ad8 51       		.byte	0x51
 1890 0ad9 01       		.uleb128 0x1
 1891 0ada 40       		.byte	0x40
 1892 0adb 2B       		.uleb128 0x2b
 1893 0adc 01       		.uleb128 0x1
 1894 0add 50       		.byte	0x50
 1895 0ade 02       		.uleb128 0x2
 1896 0adf 76       		.byte	0x76
 1897 0ae0 04       		.sleb128 4
 1898 0ae1 00       		.byte	0
 1899 0ae2 2D       		.uleb128 0x2d
 1900 0ae3 56000000 		.4byte	.LVL12
 1901 0ae7 8E0C0000 		.4byte	0xc8e
 1902 0aeb F60A0000 		.4byte	0xaf6
 1903 0aef 2B       		.uleb128 0x2b
 1904 0af0 01       		.uleb128 0x1
 1905 0af1 50       		.byte	0x50
 1906 0af2 02       		.uleb128 0x2
 1907 0af3 76       		.byte	0x76
 1908 0af4 00       		.sleb128 0
 1909 0af5 00       		.byte	0
 1910 0af6 2A       		.uleb128 0x2a
 1911 0af7 66000000 		.4byte	.LVL13
 1912 0afb 560C0000 		.4byte	0xc56
 1913 0aff 2B       		.uleb128 0x2b
 1914 0b00 01       		.uleb128 0x1
 1915 0b01 51       		.byte	0x51
 1916 0b02 03       		.uleb128 0x3
 1917 0b03 0A       		.byte	0xa
 1918 0b04 0002     		.2byte	0x200
 1919 0b06 2B       		.uleb128 0x2b
 1920 0b07 01       		.uleb128 0x1
 1921 0b08 50       		.byte	0x50
 1922 0b09 02       		.uleb128 0x2
 1923 0b0a 76       		.byte	0x76
 1924 0b0b 04       		.sleb128 4
 1925 0b0c 00       		.byte	0
 1926 0b0d 00       		.byte	0
 1927 0b0e 00       		.byte	0
 1928 0b0f 2A       		.uleb128 0x2a
 1929 0b10 44000000 		.4byte	.LVL7
 1930 0b14 A50C0000 		.4byte	0xca5
 1931 0b18 2B       		.uleb128 0x2b
ARM GAS  /var/folders/qh/xwg3v3kj02qbxczjpdb8lzfr0000gn/T//ccakFlxj.s 			page 35


 1932 0b19 01       		.uleb128 0x1
 1933 0b1a 50       		.byte	0x50
 1934 0b1b 02       		.uleb128 0x2
 1935 0b1c 78       		.byte	0x78
 1936 0b1d 00       		.sleb128 0
 1937 0b1e 00       		.byte	0
 1938 0b1f 00       		.byte	0
 1939 0b20 21       		.uleb128 0x21
 1940 0b21 28060000 		.4byte	.LASF123
 1941 0b25 01       		.byte	0x1
 1942 0b26 7401     		.2byte	0x174
 1943 0b28 00000000 		.4byte	.LFB46
 1944 0b2c 28000000 		.4byte	.LFE46-.LFB46
 1945 0b30 01       		.uleb128 0x1
 1946 0b31 9C       		.byte	0x9c
 1947 0b32 550B0000 		.4byte	0xb55
 1948 0b36 2A       		.uleb128 0x2a
 1949 0b37 0E000000 		.4byte	.LVL26
 1950 0b3b B70C0000 		.4byte	0xcb7
 1951 0b3f 2B       		.uleb128 0x2b
 1952 0b40 01       		.uleb128 0x1
 1953 0b41 52       		.byte	0x52
 1954 0b42 05       		.uleb128 0x5
 1955 0b43 03       		.byte	0x3
 1956 0b44 00000000 		.4byte	notify1
 1957 0b48 2B       		.uleb128 0x2b
 1958 0b49 01       		.uleb128 0x1
 1959 0b4a 51       		.byte	0x51
 1960 0b4b 01       		.uleb128 0x1
 1961 0b4c 30       		.byte	0x30
 1962 0b4d 2B       		.uleb128 0x2b
 1963 0b4e 01       		.uleb128 0x1
 1964 0b4f 50       		.byte	0x50
 1965 0b50 02       		.uleb128 0x2
 1966 0b51 74       		.byte	0x74
 1967 0b52 00       		.sleb128 0
 1968 0b53 00       		.byte	0
 1969 0b54 00       		.byte	0
 1970 0b55 2E       		.uleb128 0x2e
 1971 0b56 97040000 		.4byte	.LASF124
 1972 0b5a 01       		.byte	0x1
 1973 0b5b A501     		.2byte	0x1a5
 1974 0b5d 00000000 		.4byte	.LFB47
 1975 0b61 6C000000 		.4byte	.LFE47-.LFB47
 1976 0b65 01       		.uleb128 0x1
 1977 0b66 9C       		.byte	0x9c
 1978 0b67 E00B0000 		.4byte	0xbe0
 1979 0b6b 2F       		.uleb128 0x2f
 1980 0b6c 73647000 		.ascii	"sdp\000"
 1981 0b70 01       		.byte	0x1
 1982 0b71 A501     		.2byte	0x1a5
 1983 0b73 21090000 		.4byte	0x921
 1984 0b77 E0000000 		.4byte	.LLST8
 1985 0b7b 30       		.uleb128 0x30
 1986 0b7c BD040000 		.4byte	.LASF117
 1987 0b80 01       		.byte	0x1
 1988 0b81 A501     		.2byte	0x1a5
ARM GAS  /var/folders/qh/xwg3v3kj02qbxczjpdb8lzfr0000gn/T//ccakFlxj.s 			page 36


 1989 0b83 27090000 		.4byte	0x927
 1990 0b87 2D010000 		.4byte	.LLST9
 1991 0b8b 23       		.uleb128 0x23
 1992 0b8c F5080000 		.4byte	0x8f5
 1993 0b90 0E000000 		.4byte	.LBB19
 1994 0b94 18000000 		.4byte	.Ldebug_ranges0+0x18
 1995 0b98 01       		.byte	0x1
 1996 0b99 D601     		.2byte	0x1d6
 1997 0b9b CA0B0000 		.4byte	0xbca
 1998 0b9f 28       		.uleb128 0x28
 1999 0ba0 01090000 		.4byte	0x901
 2000 0ba4 61010000 		.4byte	.LLST10
 2001 0ba8 28       		.uleb128 0x28
 2002 0ba9 01090000 		.4byte	0x901
 2003 0bad 61010000 		.4byte	.LLST10
 2004 0bb1 28       		.uleb128 0x28
 2005 0bb2 0C090000 		.4byte	0x90c
 2006 0bb6 82010000 		.4byte	.LLST12
 2007 0bba 25       		.uleb128 0x25
 2008 0bbb 18000000 		.4byte	.Ldebug_ranges0+0x18
 2009 0bbf 26       		.uleb128 0x26
 2010 0bc0 17090000 		.4byte	0x917
 2011 0bc4 95010000 		.4byte	.LLST13
 2012 0bc8 00       		.byte	0
 2013 0bc9 00       		.byte	0
 2014 0bca 2A       		.uleb128 0x2a
 2015 0bcb 58000000 		.4byte	.LVL37
 2016 0bcf D30C0000 		.4byte	0xcd3
 2017 0bd3 2B       		.uleb128 0x2b
 2018 0bd4 01       		.uleb128 0x1
 2019 0bd5 51       		.byte	0x51
 2020 0bd6 02       		.uleb128 0x2
 2021 0bd7 08       		.byte	0x8
 2022 0bd8 C0       		.byte	0xc0
 2023 0bd9 2B       		.uleb128 0x2b
 2024 0bda 01       		.uleb128 0x1
 2025 0bdb 50       		.byte	0x50
 2026 0bdc 01       		.uleb128 0x1
 2027 0bdd 4B       		.byte	0x4b
 2028 0bde 00       		.byte	0
 2029 0bdf 00       		.byte	0
 2030 0be0 21       		.uleb128 0x21
 2031 0be1 F7030000 		.4byte	.LASF125
 2032 0be5 01       		.byte	0x1
 2033 0be6 E201     		.2byte	0x1e2
 2034 0be8 00000000 		.4byte	.LFB48
 2035 0bec 38000000 		.4byte	.LFE48-.LFB48
 2036 0bf0 01       		.uleb128 0x1
 2037 0bf1 9C       		.byte	0x9c
 2038 0bf2 340C0000 		.4byte	0xc34
 2039 0bf6 2F       		.uleb128 0x2f
 2040 0bf7 73647000 		.ascii	"sdp\000"
 2041 0bfb 01       		.byte	0x1
 2042 0bfc E201     		.2byte	0x1e2
 2043 0bfe 21090000 		.4byte	0x921
 2044 0c02 A8010000 		.4byte	.LLST14
 2045 0c06 31       		.uleb128 0x31
ARM GAS  /var/folders/qh/xwg3v3kj02qbxczjpdb8lzfr0000gn/T//ccakFlxj.s 			page 37


 2046 0c07 32090000 		.4byte	0x932
 2047 0c0b 0C000000 		.4byte	.LBB23
 2048 0c0f 08000000 		.4byte	.LBE23-.LBB23
 2049 0c13 01       		.byte	0x1
 2050 0c14 E501     		.2byte	0x1e5
 2051 0c16 240C0000 		.4byte	0xc24
 2052 0c1a 28       		.uleb128 0x28
 2053 0c1b 3E090000 		.4byte	0x93e
 2054 0c1f E2010000 		.4byte	.LLST15
 2055 0c23 00       		.byte	0
 2056 0c24 2A       		.uleb128 0x2a
 2057 0c25 2A000000 		.4byte	.LVL45
 2058 0c29 EA0C0000 		.4byte	0xcea
 2059 0c2d 2B       		.uleb128 0x2b
 2060 0c2e 01       		.uleb128 0x1
 2061 0c2f 50       		.byte	0x50
 2062 0c30 01       		.uleb128 0x1
 2063 0c31 4B       		.byte	0x4b
 2064 0c32 00       		.byte	0
 2065 0c33 00       		.byte	0
 2066 0c34 32       		.uleb128 0x32
 2067 0c35 2A030000 		.4byte	.LASF127
 2068 0c39 01       		.byte	0x1
 2069 0c3a 49       		.byte	0x49
 2070 0c3b 2D090000 		.4byte	0x92d
 2071 0c3f 05       		.uleb128 0x5
 2072 0c40 03       		.byte	0x3
 2073 0c41 00000000 		.4byte	default_config
 2074 0c45 33       		.uleb128 0x33
 2075 0c46 53443100 		.ascii	"SD1\000"
 2076 0c4a 01       		.byte	0x1
 2077 0c4b 28       		.byte	0x28
 2078 0c4c A1070000 		.4byte	0x7a1
 2079 0c50 05       		.uleb128 0x5
 2080 0c51 03       		.byte	0x3
 2081 0c52 00000000 		.4byte	SD1
 2082 0c56 34       		.uleb128 0x34
 2083 0c57 77030000 		.4byte	.LASF128
 2084 0c5b 09       		.byte	0x9
 2085 0c5c B3       		.byte	0xb3
 2086 0c5d 6C0C0000 		.4byte	0xc6c
 2087 0c61 10       		.uleb128 0x10
 2088 0c62 6C0C0000 		.4byte	0xc6c
 2089 0c66 10       		.uleb128 0x10
 2090 0c67 F6000000 		.4byte	0xf6
 2091 0c6b 00       		.byte	0
 2092 0c6c 09       		.uleb128 0x9
 2093 0c6d 04       		.byte	0x4
 2094 0c6e BE030000 		.4byte	0x3be
 2095 0c72 35       		.uleb128 0x35
 2096 0c73 54050000 		.4byte	.LASF137
 2097 0c77 0A       		.byte	0xa
 2098 0c78 6701     		.2byte	0x167
 2099 0c7a E0000000 		.4byte	0xe0
 2100 0c7e 880C0000 		.4byte	0xc88
 2101 0c82 10       		.uleb128 0x10
 2102 0c83 880C0000 		.4byte	0xc88
ARM GAS  /var/folders/qh/xwg3v3kj02qbxczjpdb8lzfr0000gn/T//ccakFlxj.s 			page 38


 2103 0c87 00       		.byte	0
 2104 0c88 09       		.uleb128 0x9
 2105 0c89 04       		.byte	0x4
 2106 0c8a D6040000 		.4byte	0x4d6
 2107 0c8e 36       		.uleb128 0x36
 2108 0c8f D8010000 		.4byte	.LASF129
 2109 0c93 0C       		.byte	0xc
 2110 0c94 3201     		.2byte	0x132
 2111 0c96 A50C0000 		.4byte	0xca5
 2112 0c9a 10       		.uleb128 0x10
 2113 0c9b 21090000 		.4byte	0x921
 2114 0c9f 10       		.uleb128 0x10
 2115 0ca0 45000000 		.4byte	0x45
 2116 0ca4 00       		.byte	0
 2117 0ca5 36       		.uleb128 0x36
 2118 0ca6 C7050000 		.4byte	.LASF130
 2119 0caa 07       		.byte	0x7
 2120 0cab 6B01     		.2byte	0x16b
 2121 0cad B70C0000 		.4byte	0xcb7
 2122 0cb1 10       		.uleb128 0x10
 2123 0cb2 66020000 		.4byte	0x266
 2124 0cb6 00       		.byte	0
 2125 0cb7 36       		.uleb128 0x36
 2126 0cb8 C4010000 		.4byte	.LASF131
 2127 0cbc 0C       		.byte	0xc
 2128 0cbd 2F01     		.2byte	0x12f
 2129 0cbf D30C0000 		.4byte	0xcd3
 2130 0cc3 10       		.uleb128 0x10
 2131 0cc4 21090000 		.4byte	0x921
 2132 0cc8 10       		.uleb128 0x10
 2133 0cc9 A3040000 		.4byte	0x4a3
 2134 0ccd 10       		.uleb128 0x10
 2135 0cce A3040000 		.4byte	0x4a3
 2136 0cd2 00       		.byte	0
 2137 0cd3 36       		.uleb128 0x36
 2138 0cd4 75020000 		.4byte	.LASF132
 2139 0cd8 0E       		.byte	0xe
 2140 0cd9 1C01     		.2byte	0x11c
 2141 0cdb EA0C0000 		.4byte	0xcea
 2142 0cdf 10       		.uleb128 0x10
 2143 0ce0 82000000 		.4byte	0x82
 2144 0ce4 10       		.uleb128 0x10
 2145 0ce5 82000000 		.4byte	0x82
 2146 0ce9 00       		.byte	0
 2147 0cea 37       		.uleb128 0x37
 2148 0ceb E8010000 		.4byte	.LASF138
 2149 0cef 0E       		.byte	0xe
 2150 0cf0 1D01     		.2byte	0x11d
 2151 0cf2 10       		.uleb128 0x10
 2152 0cf3 82000000 		.4byte	0x82
 2153 0cf7 00       		.byte	0
 2154 0cf8 00       		.byte	0
 2155              		.section	.debug_abbrev,"",%progbits
 2156              	.Ldebug_abbrev0:
 2157 0000 01       		.uleb128 0x1
 2158 0001 11       		.uleb128 0x11
 2159 0002 01       		.byte	0x1
ARM GAS  /var/folders/qh/xwg3v3kj02qbxczjpdb8lzfr0000gn/T//ccakFlxj.s 			page 39


 2160 0003 25       		.uleb128 0x25
 2161 0004 0E       		.uleb128 0xe
 2162 0005 13       		.uleb128 0x13
 2163 0006 0B       		.uleb128 0xb
 2164 0007 03       		.uleb128 0x3
 2165 0008 0E       		.uleb128 0xe
 2166 0009 1B       		.uleb128 0x1b
 2167 000a 0E       		.uleb128 0xe
 2168 000b 55       		.uleb128 0x55
 2169 000c 17       		.uleb128 0x17
 2170 000d 11       		.uleb128 0x11
 2171 000e 01       		.uleb128 0x1
 2172 000f 10       		.uleb128 0x10
 2173 0010 17       		.uleb128 0x17
 2174 0011 00       		.byte	0
 2175 0012 00       		.byte	0
 2176 0013 02       		.uleb128 0x2
 2177 0014 24       		.uleb128 0x24
 2178 0015 00       		.byte	0
 2179 0016 0B       		.uleb128 0xb
 2180 0017 0B       		.uleb128 0xb
 2181 0018 3E       		.uleb128 0x3e
 2182 0019 0B       		.uleb128 0xb
 2183 001a 03       		.uleb128 0x3
 2184 001b 08       		.uleb128 0x8
 2185 001c 00       		.byte	0
 2186 001d 00       		.byte	0
 2187 001e 03       		.uleb128 0x3
 2188 001f 16       		.uleb128 0x16
 2189 0020 00       		.byte	0
 2190 0021 03       		.uleb128 0x3
 2191 0022 0E       		.uleb128 0xe
 2192 0023 3A       		.uleb128 0x3a
 2193 0024 0B       		.uleb128 0xb
 2194 0025 3B       		.uleb128 0x3b
 2195 0026 0B       		.uleb128 0xb
 2196 0027 49       		.uleb128 0x49
 2197 0028 13       		.uleb128 0x13
 2198 0029 00       		.byte	0
 2199 002a 00       		.byte	0
 2200 002b 04       		.uleb128 0x4
 2201 002c 24       		.uleb128 0x24
 2202 002d 00       		.byte	0
 2203 002e 0B       		.uleb128 0xb
 2204 002f 0B       		.uleb128 0xb
 2205 0030 3E       		.uleb128 0x3e
 2206 0031 0B       		.uleb128 0xb
 2207 0032 03       		.uleb128 0x3
 2208 0033 0E       		.uleb128 0xe
 2209 0034 00       		.byte	0
 2210 0035 00       		.byte	0
 2211 0036 05       		.uleb128 0x5
 2212 0037 13       		.uleb128 0x13
 2213 0038 01       		.byte	0x1
 2214 0039 03       		.uleb128 0x3
 2215 003a 0E       		.uleb128 0xe
 2216 003b 0B       		.uleb128 0xb
ARM GAS  /var/folders/qh/xwg3v3kj02qbxczjpdb8lzfr0000gn/T//ccakFlxj.s 			page 40


 2217 003c 0B       		.uleb128 0xb
 2218 003d 3A       		.uleb128 0x3a
 2219 003e 0B       		.uleb128 0xb
 2220 003f 3B       		.uleb128 0x3b
 2221 0040 0B       		.uleb128 0xb
 2222 0041 01       		.uleb128 0x1
 2223 0042 13       		.uleb128 0x13
 2224 0043 00       		.byte	0
 2225 0044 00       		.byte	0
 2226 0045 06       		.uleb128 0x6
 2227 0046 0D       		.uleb128 0xd
 2228 0047 00       		.byte	0
 2229 0048 03       		.uleb128 0x3
 2230 0049 0E       		.uleb128 0xe
 2231 004a 3A       		.uleb128 0x3a
 2232 004b 0B       		.uleb128 0xb
 2233 004c 3B       		.uleb128 0x3b
 2234 004d 0B       		.uleb128 0xb
 2235 004e 49       		.uleb128 0x49
 2236 004f 13       		.uleb128 0x13
 2237 0050 38       		.uleb128 0x38
 2238 0051 0B       		.uleb128 0xb
 2239 0052 00       		.byte	0
 2240 0053 00       		.byte	0
 2241 0054 07       		.uleb128 0x7
 2242 0055 0D       		.uleb128 0xd
 2243 0056 00       		.byte	0
 2244 0057 03       		.uleb128 0x3
 2245 0058 08       		.uleb128 0x8
 2246 0059 3A       		.uleb128 0x3a
 2247 005a 0B       		.uleb128 0xb
 2248 005b 3B       		.uleb128 0x3b
 2249 005c 0B       		.uleb128 0xb
 2250 005d 49       		.uleb128 0x49
 2251 005e 13       		.uleb128 0x13
 2252 005f 38       		.uleb128 0x38
 2253 0060 0B       		.uleb128 0xb
 2254 0061 00       		.byte	0
 2255 0062 00       		.byte	0
 2256 0063 08       		.uleb128 0x8
 2257 0064 13       		.uleb128 0x13
 2258 0065 01       		.byte	0x1
 2259 0066 0B       		.uleb128 0xb
 2260 0067 0B       		.uleb128 0xb
 2261 0068 3A       		.uleb128 0x3a
 2262 0069 0B       		.uleb128 0xb
 2263 006a 3B       		.uleb128 0x3b
 2264 006b 0B       		.uleb128 0xb
 2265 006c 01       		.uleb128 0x1
 2266 006d 13       		.uleb128 0x13
 2267 006e 00       		.byte	0
 2268 006f 00       		.byte	0
 2269 0070 09       		.uleb128 0x9
 2270 0071 0F       		.uleb128 0xf
 2271 0072 00       		.byte	0
 2272 0073 0B       		.uleb128 0xb
 2273 0074 0B       		.uleb128 0xb
ARM GAS  /var/folders/qh/xwg3v3kj02qbxczjpdb8lzfr0000gn/T//ccakFlxj.s 			page 41


 2274 0075 49       		.uleb128 0x49
 2275 0076 13       		.uleb128 0x13
 2276 0077 00       		.byte	0
 2277 0078 00       		.byte	0
 2278 0079 0A       		.uleb128 0xa
 2279 007a 0F       		.uleb128 0xf
 2280 007b 00       		.byte	0
 2281 007c 0B       		.uleb128 0xb
 2282 007d 0B       		.uleb128 0xb
 2283 007e 00       		.byte	0
 2284 007f 00       		.byte	0
 2285 0080 0B       		.uleb128 0xb
 2286 0081 35       		.uleb128 0x35
 2287 0082 00       		.byte	0
 2288 0083 49       		.uleb128 0x49
 2289 0084 13       		.uleb128 0x13
 2290 0085 00       		.byte	0
 2291 0086 00       		.byte	0
 2292 0087 0C       		.uleb128 0xc
 2293 0088 17       		.uleb128 0x17
 2294 0089 01       		.byte	0x1
 2295 008a 0B       		.uleb128 0xb
 2296 008b 0B       		.uleb128 0xb
 2297 008c 3A       		.uleb128 0x3a
 2298 008d 0B       		.uleb128 0xb
 2299 008e 3B       		.uleb128 0x3b
 2300 008f 0B       		.uleb128 0xb
 2301 0090 01       		.uleb128 0x1
 2302 0091 13       		.uleb128 0x13
 2303 0092 00       		.byte	0
 2304 0093 00       		.byte	0
 2305 0094 0D       		.uleb128 0xd
 2306 0095 0D       		.uleb128 0xd
 2307 0096 00       		.byte	0
 2308 0097 03       		.uleb128 0x3
 2309 0098 0E       		.uleb128 0xe
 2310 0099 3A       		.uleb128 0x3a
 2311 009a 0B       		.uleb128 0xb
 2312 009b 3B       		.uleb128 0x3b
 2313 009c 0B       		.uleb128 0xb
 2314 009d 49       		.uleb128 0x49
 2315 009e 13       		.uleb128 0x13
 2316 009f 00       		.byte	0
 2317 00a0 00       		.byte	0
 2318 00a1 0E       		.uleb128 0xe
 2319 00a2 26       		.uleb128 0x26
 2320 00a3 00       		.byte	0
 2321 00a4 49       		.uleb128 0x49
 2322 00a5 13       		.uleb128 0x13
 2323 00a6 00       		.byte	0
 2324 00a7 00       		.byte	0
 2325 00a8 0F       		.uleb128 0xf
 2326 00a9 15       		.uleb128 0x15
 2327 00aa 01       		.byte	0x1
 2328 00ab 27       		.uleb128 0x27
 2329 00ac 19       		.uleb128 0x19
 2330 00ad 49       		.uleb128 0x49
ARM GAS  /var/folders/qh/xwg3v3kj02qbxczjpdb8lzfr0000gn/T//ccakFlxj.s 			page 42


 2331 00ae 13       		.uleb128 0x13
 2332 00af 01       		.uleb128 0x1
 2333 00b0 13       		.uleb128 0x13
 2334 00b1 00       		.byte	0
 2335 00b2 00       		.byte	0
 2336 00b3 10       		.uleb128 0x10
 2337 00b4 05       		.uleb128 0x5
 2338 00b5 00       		.byte	0
 2339 00b6 49       		.uleb128 0x49
 2340 00b7 13       		.uleb128 0x13
 2341 00b8 00       		.byte	0
 2342 00b9 00       		.byte	0
 2343 00ba 11       		.uleb128 0x11
 2344 00bb 15       		.uleb128 0x15
 2345 00bc 01       		.byte	0x1
 2346 00bd 27       		.uleb128 0x27
 2347 00be 19       		.uleb128 0x19
 2348 00bf 01       		.uleb128 0x1
 2349 00c0 13       		.uleb128 0x13
 2350 00c1 00       		.byte	0
 2351 00c2 00       		.byte	0
 2352 00c3 12       		.uleb128 0x12
 2353 00c4 13       		.uleb128 0x13
 2354 00c5 01       		.byte	0x1
 2355 00c6 0B       		.uleb128 0xb
 2356 00c7 0B       		.uleb128 0xb
 2357 00c8 3A       		.uleb128 0x3a
 2358 00c9 0B       		.uleb128 0xb
 2359 00ca 3B       		.uleb128 0x3b
 2360 00cb 05       		.uleb128 0x5
 2361 00cc 01       		.uleb128 0x1
 2362 00cd 13       		.uleb128 0x13
 2363 00ce 00       		.byte	0
 2364 00cf 00       		.byte	0
 2365 00d0 13       		.uleb128 0x13
 2366 00d1 0D       		.uleb128 0xd
 2367 00d2 00       		.byte	0
 2368 00d3 03       		.uleb128 0x3
 2369 00d4 08       		.uleb128 0x8
 2370 00d5 3A       		.uleb128 0x3a
 2371 00d6 0B       		.uleb128 0xb
 2372 00d7 3B       		.uleb128 0x3b
 2373 00d8 05       		.uleb128 0x5
 2374 00d9 49       		.uleb128 0x49
 2375 00da 13       		.uleb128 0x13
 2376 00db 38       		.uleb128 0x38
 2377 00dc 0B       		.uleb128 0xb
 2378 00dd 00       		.byte	0
 2379 00de 00       		.byte	0
 2380 00df 14       		.uleb128 0x14
 2381 00e0 0D       		.uleb128 0xd
 2382 00e1 00       		.byte	0
 2383 00e2 03       		.uleb128 0x3
 2384 00e3 0E       		.uleb128 0xe
 2385 00e4 3A       		.uleb128 0x3a
 2386 00e5 0B       		.uleb128 0xb
 2387 00e6 3B       		.uleb128 0x3b
ARM GAS  /var/folders/qh/xwg3v3kj02qbxczjpdb8lzfr0000gn/T//ccakFlxj.s 			page 43


 2388 00e7 05       		.uleb128 0x5
 2389 00e8 49       		.uleb128 0x49
 2390 00e9 13       		.uleb128 0x13
 2391 00ea 38       		.uleb128 0x38
 2392 00eb 0B       		.uleb128 0xb
 2393 00ec 00       		.byte	0
 2394 00ed 00       		.byte	0
 2395 00ee 15       		.uleb128 0x15
 2396 00ef 16       		.uleb128 0x16
 2397 00f0 00       		.byte	0
 2398 00f1 03       		.uleb128 0x3
 2399 00f2 0E       		.uleb128 0xe
 2400 00f3 3A       		.uleb128 0x3a
 2401 00f4 0B       		.uleb128 0xb
 2402 00f5 3B       		.uleb128 0x3b
 2403 00f6 05       		.uleb128 0x5
 2404 00f7 49       		.uleb128 0x49
 2405 00f8 13       		.uleb128 0x13
 2406 00f9 00       		.byte	0
 2407 00fa 00       		.byte	0
 2408 00fb 16       		.uleb128 0x16
 2409 00fc 04       		.uleb128 0x4
 2410 00fd 01       		.byte	0x1
 2411 00fe 0B       		.uleb128 0xb
 2412 00ff 0B       		.uleb128 0xb
 2413 0100 3A       		.uleb128 0x3a
 2414 0101 0B       		.uleb128 0xb
 2415 0102 3B       		.uleb128 0x3b
 2416 0103 0B       		.uleb128 0xb
 2417 0104 01       		.uleb128 0x1
 2418 0105 13       		.uleb128 0x13
 2419 0106 00       		.byte	0
 2420 0107 00       		.byte	0
 2421 0108 17       		.uleb128 0x17
 2422 0109 28       		.uleb128 0x28
 2423 010a 00       		.byte	0
 2424 010b 03       		.uleb128 0x3
 2425 010c 0E       		.uleb128 0xe
 2426 010d 1C       		.uleb128 0x1c
 2427 010e 0D       		.uleb128 0xd
 2428 010f 00       		.byte	0
 2429 0110 00       		.byte	0
 2430 0111 18       		.uleb128 0x18
 2431 0112 01       		.uleb128 0x1
 2432 0113 01       		.byte	0x1
 2433 0114 49       		.uleb128 0x49
 2434 0115 13       		.uleb128 0x13
 2435 0116 01       		.uleb128 0x1
 2436 0117 13       		.uleb128 0x13
 2437 0118 00       		.byte	0
 2438 0119 00       		.byte	0
 2439 011a 19       		.uleb128 0x19
 2440 011b 21       		.uleb128 0x21
 2441 011c 00       		.byte	0
 2442 011d 49       		.uleb128 0x49
 2443 011e 13       		.uleb128 0x13
 2444 011f 2F       		.uleb128 0x2f
ARM GAS  /var/folders/qh/xwg3v3kj02qbxczjpdb8lzfr0000gn/T//ccakFlxj.s 			page 44


 2445 0120 0B       		.uleb128 0xb
 2446 0121 00       		.byte	0
 2447 0122 00       		.byte	0
 2448 0123 1A       		.uleb128 0x1a
 2449 0124 2E       		.uleb128 0x2e
 2450 0125 01       		.byte	0x1
 2451 0126 03       		.uleb128 0x3
 2452 0127 0E       		.uleb128 0xe
 2453 0128 3A       		.uleb128 0x3a
 2454 0129 0B       		.uleb128 0xb
 2455 012a 3B       		.uleb128 0x3b
 2456 012b 0B       		.uleb128 0xb
 2457 012c 27       		.uleb128 0x27
 2458 012d 19       		.uleb128 0x19
 2459 012e 20       		.uleb128 0x20
 2460 012f 0B       		.uleb128 0xb
 2461 0130 01       		.uleb128 0x1
 2462 0131 13       		.uleb128 0x13
 2463 0132 00       		.byte	0
 2464 0133 00       		.byte	0
 2465 0134 1B       		.uleb128 0x1b
 2466 0135 05       		.uleb128 0x5
 2467 0136 00       		.byte	0
 2468 0137 03       		.uleb128 0x3
 2469 0138 08       		.uleb128 0x8
 2470 0139 3A       		.uleb128 0x3a
 2471 013a 0B       		.uleb128 0xb
 2472 013b 3B       		.uleb128 0x3b
 2473 013c 0B       		.uleb128 0xb
 2474 013d 49       		.uleb128 0x49
 2475 013e 13       		.uleb128 0x13
 2476 013f 00       		.byte	0
 2477 0140 00       		.byte	0
 2478 0141 1C       		.uleb128 0x1c
 2479 0142 05       		.uleb128 0x5
 2480 0143 00       		.byte	0
 2481 0144 03       		.uleb128 0x3
 2482 0145 0E       		.uleb128 0xe
 2483 0146 3A       		.uleb128 0x3a
 2484 0147 0B       		.uleb128 0xb
 2485 0148 3B       		.uleb128 0x3b
 2486 0149 0B       		.uleb128 0xb
 2487 014a 49       		.uleb128 0x49
 2488 014b 13       		.uleb128 0x13
 2489 014c 00       		.byte	0
 2490 014d 00       		.byte	0
 2491 014e 1D       		.uleb128 0x1d
 2492 014f 34       		.uleb128 0x34
 2493 0150 00       		.byte	0
 2494 0151 03       		.uleb128 0x3
 2495 0152 08       		.uleb128 0x8
 2496 0153 3A       		.uleb128 0x3a
 2497 0154 0B       		.uleb128 0xb
 2498 0155 3B       		.uleb128 0x3b
 2499 0156 0B       		.uleb128 0xb
 2500 0157 49       		.uleb128 0x49
 2501 0158 13       		.uleb128 0x13
ARM GAS  /var/folders/qh/xwg3v3kj02qbxczjpdb8lzfr0000gn/T//ccakFlxj.s 			page 45


 2502 0159 00       		.byte	0
 2503 015a 00       		.byte	0
 2504 015b 1E       		.uleb128 0x1e
 2505 015c 0B       		.uleb128 0xb
 2506 015d 01       		.byte	0x1
 2507 015e 00       		.byte	0
 2508 015f 00       		.byte	0
 2509 0160 1F       		.uleb128 0x1f
 2510 0161 2E       		.uleb128 0x2e
 2511 0162 01       		.byte	0x1
 2512 0163 03       		.uleb128 0x3
 2513 0164 0E       		.uleb128 0xe
 2514 0165 3A       		.uleb128 0x3a
 2515 0166 0B       		.uleb128 0xb
 2516 0167 3B       		.uleb128 0x3b
 2517 0168 0B       		.uleb128 0xb
 2518 0169 27       		.uleb128 0x27
 2519 016a 19       		.uleb128 0x19
 2520 016b 11       		.uleb128 0x11
 2521 016c 01       		.uleb128 0x1
 2522 016d 12       		.uleb128 0x12
 2523 016e 06       		.uleb128 0x6
 2524 016f 40       		.uleb128 0x40
 2525 0170 18       		.uleb128 0x18
 2526 0171 9742     		.uleb128 0x2117
 2527 0173 19       		.uleb128 0x19
 2528 0174 01       		.uleb128 0x1
 2529 0175 13       		.uleb128 0x13
 2530 0176 00       		.byte	0
 2531 0177 00       		.byte	0
 2532 0178 20       		.uleb128 0x20
 2533 0179 05       		.uleb128 0x5
 2534 017a 00       		.byte	0
 2535 017b 03       		.uleb128 0x3
 2536 017c 08       		.uleb128 0x8
 2537 017d 3A       		.uleb128 0x3a
 2538 017e 0B       		.uleb128 0xb
 2539 017f 3B       		.uleb128 0x3b
 2540 0180 0B       		.uleb128 0xb
 2541 0181 49       		.uleb128 0x49
 2542 0182 13       		.uleb128 0x13
 2543 0183 02       		.uleb128 0x2
 2544 0184 18       		.uleb128 0x18
 2545 0185 00       		.byte	0
 2546 0186 00       		.byte	0
 2547 0187 21       		.uleb128 0x21
 2548 0188 2E       		.uleb128 0x2e
 2549 0189 01       		.byte	0x1
 2550 018a 3F       		.uleb128 0x3f
 2551 018b 19       		.uleb128 0x19
 2552 018c 03       		.uleb128 0x3
 2553 018d 0E       		.uleb128 0xe
 2554 018e 3A       		.uleb128 0x3a
 2555 018f 0B       		.uleb128 0xb
 2556 0190 3B       		.uleb128 0x3b
 2557 0191 05       		.uleb128 0x5
 2558 0192 27       		.uleb128 0x27
ARM GAS  /var/folders/qh/xwg3v3kj02qbxczjpdb8lzfr0000gn/T//ccakFlxj.s 			page 46


 2559 0193 19       		.uleb128 0x19
 2560 0194 11       		.uleb128 0x11
 2561 0195 01       		.uleb128 0x1
 2562 0196 12       		.uleb128 0x12
 2563 0197 06       		.uleb128 0x6
 2564 0198 40       		.uleb128 0x40
 2565 0199 18       		.uleb128 0x18
 2566 019a 9742     		.uleb128 0x2117
 2567 019c 19       		.uleb128 0x19
 2568 019d 01       		.uleb128 0x1
 2569 019e 13       		.uleb128 0x13
 2570 019f 00       		.byte	0
 2571 01a0 00       		.byte	0
 2572 01a1 22       		.uleb128 0x22
 2573 01a2 34       		.uleb128 0x34
 2574 01a3 00       		.byte	0
 2575 01a4 03       		.uleb128 0x3
 2576 01a5 0E       		.uleb128 0xe
 2577 01a6 3A       		.uleb128 0x3a
 2578 01a7 0B       		.uleb128 0xb
 2579 01a8 3B       		.uleb128 0x3b
 2580 01a9 05       		.uleb128 0x5
 2581 01aa 49       		.uleb128 0x49
 2582 01ab 13       		.uleb128 0x13
 2583 01ac 02       		.uleb128 0x2
 2584 01ad 17       		.uleb128 0x17
 2585 01ae 00       		.byte	0
 2586 01af 00       		.byte	0
 2587 01b0 23       		.uleb128 0x23
 2588 01b1 1D       		.uleb128 0x1d
 2589 01b2 01       		.byte	0x1
 2590 01b3 31       		.uleb128 0x31
 2591 01b4 13       		.uleb128 0x13
 2592 01b5 52       		.uleb128 0x52
 2593 01b6 01       		.uleb128 0x1
 2594 01b7 55       		.uleb128 0x55
 2595 01b8 17       		.uleb128 0x17
 2596 01b9 58       		.uleb128 0x58
 2597 01ba 0B       		.uleb128 0xb
 2598 01bb 59       		.uleb128 0x59
 2599 01bc 05       		.uleb128 0x5
 2600 01bd 01       		.uleb128 0x1
 2601 01be 13       		.uleb128 0x13
 2602 01bf 00       		.byte	0
 2603 01c0 00       		.byte	0
 2604 01c1 24       		.uleb128 0x24
 2605 01c2 05       		.uleb128 0x5
 2606 01c3 00       		.byte	0
 2607 01c4 31       		.uleb128 0x31
 2608 01c5 13       		.uleb128 0x13
 2609 01c6 02       		.uleb128 0x2
 2610 01c7 18       		.uleb128 0x18
 2611 01c8 00       		.byte	0
 2612 01c9 00       		.byte	0
 2613 01ca 25       		.uleb128 0x25
 2614 01cb 0B       		.uleb128 0xb
 2615 01cc 01       		.byte	0x1
ARM GAS  /var/folders/qh/xwg3v3kj02qbxczjpdb8lzfr0000gn/T//ccakFlxj.s 			page 47


 2616 01cd 55       		.uleb128 0x55
 2617 01ce 17       		.uleb128 0x17
 2618 01cf 00       		.byte	0
 2619 01d0 00       		.byte	0
 2620 01d1 26       		.uleb128 0x26
 2621 01d2 34       		.uleb128 0x34
 2622 01d3 00       		.byte	0
 2623 01d4 31       		.uleb128 0x31
 2624 01d5 13       		.uleb128 0x13
 2625 01d6 02       		.uleb128 0x2
 2626 01d7 17       		.uleb128 0x17
 2627 01d8 00       		.byte	0
 2628 01d9 00       		.byte	0
 2629 01da 27       		.uleb128 0x27
 2630 01db 1D       		.uleb128 0x1d
 2631 01dc 01       		.byte	0x1
 2632 01dd 31       		.uleb128 0x31
 2633 01de 13       		.uleb128 0x13
 2634 01df 11       		.uleb128 0x11
 2635 01e0 01       		.uleb128 0x1
 2636 01e1 12       		.uleb128 0x12
 2637 01e2 06       		.uleb128 0x6
 2638 01e3 58       		.uleb128 0x58
 2639 01e4 0B       		.uleb128 0xb
 2640 01e5 59       		.uleb128 0x59
 2641 01e6 0B       		.uleb128 0xb
 2642 01e7 01       		.uleb128 0x1
 2643 01e8 13       		.uleb128 0x13
 2644 01e9 00       		.byte	0
 2645 01ea 00       		.byte	0
 2646 01eb 28       		.uleb128 0x28
 2647 01ec 05       		.uleb128 0x5
 2648 01ed 00       		.byte	0
 2649 01ee 31       		.uleb128 0x31
 2650 01ef 13       		.uleb128 0x13
 2651 01f0 02       		.uleb128 0x2
 2652 01f1 17       		.uleb128 0x17
 2653 01f2 00       		.byte	0
 2654 01f3 00       		.byte	0
 2655 01f4 29       		.uleb128 0x29
 2656 01f5 0B       		.uleb128 0xb
 2657 01f6 01       		.byte	0x1
 2658 01f7 11       		.uleb128 0x11
 2659 01f8 01       		.uleb128 0x1
 2660 01f9 12       		.uleb128 0x12
 2661 01fa 06       		.uleb128 0x6
 2662 01fb 00       		.byte	0
 2663 01fc 00       		.byte	0
 2664 01fd 2A       		.uleb128 0x2a
 2665 01fe 898201   		.uleb128 0x4109
 2666 0201 01       		.byte	0x1
 2667 0202 11       		.uleb128 0x11
 2668 0203 01       		.uleb128 0x1
 2669 0204 31       		.uleb128 0x31
 2670 0205 13       		.uleb128 0x13
 2671 0206 00       		.byte	0
 2672 0207 00       		.byte	0
ARM GAS  /var/folders/qh/xwg3v3kj02qbxczjpdb8lzfr0000gn/T//ccakFlxj.s 			page 48


 2673 0208 2B       		.uleb128 0x2b
 2674 0209 8A8201   		.uleb128 0x410a
 2675 020c 00       		.byte	0
 2676 020d 02       		.uleb128 0x2
 2677 020e 18       		.uleb128 0x18
 2678 020f 9142     		.uleb128 0x2111
 2679 0211 18       		.uleb128 0x18
 2680 0212 00       		.byte	0
 2681 0213 00       		.byte	0
 2682 0214 2C       		.uleb128 0x2c
 2683 0215 0B       		.uleb128 0xb
 2684 0216 01       		.byte	0x1
 2685 0217 11       		.uleb128 0x11
 2686 0218 01       		.uleb128 0x1
 2687 0219 12       		.uleb128 0x12
 2688 021a 06       		.uleb128 0x6
 2689 021b 01       		.uleb128 0x1
 2690 021c 13       		.uleb128 0x13
 2691 021d 00       		.byte	0
 2692 021e 00       		.byte	0
 2693 021f 2D       		.uleb128 0x2d
 2694 0220 898201   		.uleb128 0x4109
 2695 0223 01       		.byte	0x1
 2696 0224 11       		.uleb128 0x11
 2697 0225 01       		.uleb128 0x1
 2698 0226 31       		.uleb128 0x31
 2699 0227 13       		.uleb128 0x13
 2700 0228 01       		.uleb128 0x1
 2701 0229 13       		.uleb128 0x13
 2702 022a 00       		.byte	0
 2703 022b 00       		.byte	0
 2704 022c 2E       		.uleb128 0x2e
 2705 022d 2E       		.uleb128 0x2e
 2706 022e 01       		.byte	0x1
 2707 022f 3F       		.uleb128 0x3f
 2708 0230 19       		.uleb128 0x19
 2709 0231 03       		.uleb128 0x3
 2710 0232 0E       		.uleb128 0xe
 2711 0233 3A       		.uleb128 0x3a
 2712 0234 0B       		.uleb128 0xb
 2713 0235 3B       		.uleb128 0x3b
 2714 0236 05       		.uleb128 0x5
 2715 0237 27       		.uleb128 0x27
 2716 0238 19       		.uleb128 0x19
 2717 0239 11       		.uleb128 0x11
 2718 023a 01       		.uleb128 0x1
 2719 023b 12       		.uleb128 0x12
 2720 023c 06       		.uleb128 0x6
 2721 023d 40       		.uleb128 0x40
 2722 023e 18       		.uleb128 0x18
 2723 023f 9642     		.uleb128 0x2116
 2724 0241 19       		.uleb128 0x19
 2725 0242 01       		.uleb128 0x1
 2726 0243 13       		.uleb128 0x13
 2727 0244 00       		.byte	0
 2728 0245 00       		.byte	0
 2729 0246 2F       		.uleb128 0x2f
ARM GAS  /var/folders/qh/xwg3v3kj02qbxczjpdb8lzfr0000gn/T//ccakFlxj.s 			page 49


 2730 0247 05       		.uleb128 0x5
 2731 0248 00       		.byte	0
 2732 0249 03       		.uleb128 0x3
 2733 024a 08       		.uleb128 0x8
 2734 024b 3A       		.uleb128 0x3a
 2735 024c 0B       		.uleb128 0xb
 2736 024d 3B       		.uleb128 0x3b
 2737 024e 05       		.uleb128 0x5
 2738 024f 49       		.uleb128 0x49
 2739 0250 13       		.uleb128 0x13
 2740 0251 02       		.uleb128 0x2
 2741 0252 17       		.uleb128 0x17
 2742 0253 00       		.byte	0
 2743 0254 00       		.byte	0
 2744 0255 30       		.uleb128 0x30
 2745 0256 05       		.uleb128 0x5
 2746 0257 00       		.byte	0
 2747 0258 03       		.uleb128 0x3
 2748 0259 0E       		.uleb128 0xe
 2749 025a 3A       		.uleb128 0x3a
 2750 025b 0B       		.uleb128 0xb
 2751 025c 3B       		.uleb128 0x3b
 2752 025d 05       		.uleb128 0x5
 2753 025e 49       		.uleb128 0x49
 2754 025f 13       		.uleb128 0x13
 2755 0260 02       		.uleb128 0x2
 2756 0261 17       		.uleb128 0x17
 2757 0262 00       		.byte	0
 2758 0263 00       		.byte	0
 2759 0264 31       		.uleb128 0x31
 2760 0265 1D       		.uleb128 0x1d
 2761 0266 01       		.byte	0x1
 2762 0267 31       		.uleb128 0x31
 2763 0268 13       		.uleb128 0x13
 2764 0269 11       		.uleb128 0x11
 2765 026a 01       		.uleb128 0x1
 2766 026b 12       		.uleb128 0x12
 2767 026c 06       		.uleb128 0x6
 2768 026d 58       		.uleb128 0x58
 2769 026e 0B       		.uleb128 0xb
 2770 026f 59       		.uleb128 0x59
 2771 0270 05       		.uleb128 0x5
 2772 0271 01       		.uleb128 0x1
 2773 0272 13       		.uleb128 0x13
 2774 0273 00       		.byte	0
 2775 0274 00       		.byte	0
 2776 0275 32       		.uleb128 0x32
 2777 0276 34       		.uleb128 0x34
 2778 0277 00       		.byte	0
 2779 0278 03       		.uleb128 0x3
 2780 0279 0E       		.uleb128 0xe
 2781 027a 3A       		.uleb128 0x3a
 2782 027b 0B       		.uleb128 0xb
 2783 027c 3B       		.uleb128 0x3b
 2784 027d 0B       		.uleb128 0xb
 2785 027e 49       		.uleb128 0x49
 2786 027f 13       		.uleb128 0x13
ARM GAS  /var/folders/qh/xwg3v3kj02qbxczjpdb8lzfr0000gn/T//ccakFlxj.s 			page 50


 2787 0280 02       		.uleb128 0x2
 2788 0281 18       		.uleb128 0x18
 2789 0282 00       		.byte	0
 2790 0283 00       		.byte	0
 2791 0284 33       		.uleb128 0x33
 2792 0285 34       		.uleb128 0x34
 2793 0286 00       		.byte	0
 2794 0287 03       		.uleb128 0x3
 2795 0288 08       		.uleb128 0x8
 2796 0289 3A       		.uleb128 0x3a
 2797 028a 0B       		.uleb128 0xb
 2798 028b 3B       		.uleb128 0x3b
 2799 028c 0B       		.uleb128 0xb
 2800 028d 49       		.uleb128 0x49
 2801 028e 13       		.uleb128 0x13
 2802 028f 3F       		.uleb128 0x3f
 2803 0290 19       		.uleb128 0x19
 2804 0291 02       		.uleb128 0x2
 2805 0292 18       		.uleb128 0x18
 2806 0293 00       		.byte	0
 2807 0294 00       		.byte	0
 2808 0295 34       		.uleb128 0x34
 2809 0296 2E       		.uleb128 0x2e
 2810 0297 01       		.byte	0x1
 2811 0298 3F       		.uleb128 0x3f
 2812 0299 19       		.uleb128 0x19
 2813 029a 03       		.uleb128 0x3
 2814 029b 0E       		.uleb128 0xe
 2815 029c 3A       		.uleb128 0x3a
 2816 029d 0B       		.uleb128 0xb
 2817 029e 3B       		.uleb128 0x3b
 2818 029f 0B       		.uleb128 0xb
 2819 02a0 27       		.uleb128 0x27
 2820 02a1 19       		.uleb128 0x19
 2821 02a2 3C       		.uleb128 0x3c
 2822 02a3 19       		.uleb128 0x19
 2823 02a4 01       		.uleb128 0x1
 2824 02a5 13       		.uleb128 0x13
 2825 02a6 00       		.byte	0
 2826 02a7 00       		.byte	0
 2827 02a8 35       		.uleb128 0x35
 2828 02a9 2E       		.uleb128 0x2e
 2829 02aa 01       		.byte	0x1
 2830 02ab 3F       		.uleb128 0x3f
 2831 02ac 19       		.uleb128 0x19
 2832 02ad 03       		.uleb128 0x3
 2833 02ae 0E       		.uleb128 0xe
 2834 02af 3A       		.uleb128 0x3a
 2835 02b0 0B       		.uleb128 0xb
 2836 02b1 3B       		.uleb128 0x3b
 2837 02b2 05       		.uleb128 0x5
 2838 02b3 27       		.uleb128 0x27
 2839 02b4 19       		.uleb128 0x19
 2840 02b5 49       		.uleb128 0x49
 2841 02b6 13       		.uleb128 0x13
 2842 02b7 3C       		.uleb128 0x3c
 2843 02b8 19       		.uleb128 0x19
ARM GAS  /var/folders/qh/xwg3v3kj02qbxczjpdb8lzfr0000gn/T//ccakFlxj.s 			page 51


 2844 02b9 01       		.uleb128 0x1
 2845 02ba 13       		.uleb128 0x13
 2846 02bb 00       		.byte	0
 2847 02bc 00       		.byte	0
 2848 02bd 36       		.uleb128 0x36
 2849 02be 2E       		.uleb128 0x2e
 2850 02bf 01       		.byte	0x1
 2851 02c0 3F       		.uleb128 0x3f
 2852 02c1 19       		.uleb128 0x19
 2853 02c2 03       		.uleb128 0x3
 2854 02c3 0E       		.uleb128 0xe
 2855 02c4 3A       		.uleb128 0x3a
 2856 02c5 0B       		.uleb128 0xb
 2857 02c6 3B       		.uleb128 0x3b
 2858 02c7 05       		.uleb128 0x5
 2859 02c8 27       		.uleb128 0x27
 2860 02c9 19       		.uleb128 0x19
 2861 02ca 3C       		.uleb128 0x3c
 2862 02cb 19       		.uleb128 0x19
 2863 02cc 01       		.uleb128 0x1
 2864 02cd 13       		.uleb128 0x13
 2865 02ce 00       		.byte	0
 2866 02cf 00       		.byte	0
 2867 02d0 37       		.uleb128 0x37
 2868 02d1 2E       		.uleb128 0x2e
 2869 02d2 01       		.byte	0x1
 2870 02d3 3F       		.uleb128 0x3f
 2871 02d4 19       		.uleb128 0x19
 2872 02d5 03       		.uleb128 0x3
 2873 02d6 0E       		.uleb128 0xe
 2874 02d7 3A       		.uleb128 0x3a
 2875 02d8 0B       		.uleb128 0xb
 2876 02d9 3B       		.uleb128 0x3b
 2877 02da 05       		.uleb128 0x5
 2878 02db 27       		.uleb128 0x27
 2879 02dc 19       		.uleb128 0x19
 2880 02dd 3C       		.uleb128 0x3c
 2881 02de 19       		.uleb128 0x19
 2882 02df 00       		.byte	0
 2883 02e0 00       		.byte	0
 2884 02e1 00       		.byte	0
 2885              		.section	.debug_loc,"",%progbits
 2886              	.Ldebug_loc0:
 2887              	.LLST0:
 2888 0000 08000000 		.4byte	.LVL1
 2889 0004 44000000 		.4byte	.LVL10
 2890 0008 0100     		.2byte	0x1
 2891 000a 58       		.byte	0x58
 2892 000b 4A000000 		.4byte	.LVL11
 2893 000f C8000000 		.4byte	.LFE45
 2894 0013 0100     		.2byte	0x1
 2895 0015 58       		.byte	0x58
 2896 0016 00000000 		.4byte	0
 2897 001a 00000000 		.4byte	0
 2898              	.LLST1:
 2899 001e 0C000000 		.4byte	.LVL2
 2900 0022 44000000 		.4byte	.LVL9
ARM GAS  /var/folders/qh/xwg3v3kj02qbxczjpdb8lzfr0000gn/T//ccakFlxj.s 			page 52


 2901 0026 0100     		.2byte	0x1
 2902 0028 55       		.byte	0x55
 2903 0029 4A000000 		.4byte	.LVL11
 2904 002d C8000000 		.4byte	.LFE45
 2905 0031 0100     		.2byte	0x1
 2906 0033 55       		.byte	0x55
 2907 0034 00000000 		.4byte	0
 2908 0038 00000000 		.4byte	0
 2909              	.LLST2:
 2910 003c 0E000000 		.4byte	.LVL3
 2911 0040 3C000000 		.4byte	.LVL6
 2912 0044 0100     		.2byte	0x1
 2913 0046 57       		.byte	0x57
 2914 0047 4A000000 		.4byte	.LVL11
 2915 004b C8000000 		.4byte	.LFE45
 2916 004f 0100     		.2byte	0x1
 2917 0051 57       		.byte	0x57
 2918 0052 00000000 		.4byte	0
 2919 0056 00000000 		.4byte	0
 2920              	.LLST3:
 2921 005a 10000000 		.4byte	.LVL4
 2922 005e 44000000 		.4byte	.LVL8
 2923 0062 0100     		.2byte	0x1
 2924 0064 54       		.byte	0x54
 2925 0065 4A000000 		.4byte	.LVL11
 2926 0069 C8000000 		.4byte	.LFE45
 2927 006d 0100     		.2byte	0x1
 2928 006f 54       		.byte	0x54
 2929 0070 00000000 		.4byte	0
 2930 0074 00000000 		.4byte	0
 2931              	.LLST4:
 2932 0078 6A000000 		.4byte	.LVL14
 2933 007c 96000000 		.4byte	.LVL20
 2934 0080 0600     		.2byte	0x6
 2935 0082 03       		.byte	0x3
 2936 0083 00000000 		.4byte	SD1
 2937 0087 9F       		.byte	0x9f
 2938 0088 00000000 		.4byte	0
 2939 008c 00000000 		.4byte	0
 2940              	.LLST5:
 2941 0090 6A000000 		.4byte	.LVL14
 2942 0094 96000000 		.4byte	.LVL20
 2943 0098 0100     		.2byte	0x1
 2944 009a 54       		.byte	0x54
 2945 009b 00000000 		.4byte	0
 2946 009f 00000000 		.4byte	0
 2947              	.LLST6:
 2948 00a3 6A000000 		.4byte	.LVL14
 2949 00a7 70000000 		.4byte	.LVL15
 2950 00ab 0200     		.2byte	0x2
 2951 00ad 30       		.byte	0x30
 2952 00ae 9F       		.byte	0x9f
 2953 00af 70000000 		.4byte	.LVL15
 2954 00b3 91000000 		.4byte	.LVL19-1
 2955 00b7 0100     		.2byte	0x1
 2956 00b9 51       		.byte	0x51
 2957 00ba 00000000 		.4byte	0
ARM GAS  /var/folders/qh/xwg3v3kj02qbxczjpdb8lzfr0000gn/T//ccakFlxj.s 			page 53


 2958 00be 00000000 		.4byte	0
 2959              	.LLST7:
 2960 00c2 A0000000 		.4byte	.LVL21
 2961 00c6 A6000000 		.4byte	.LVL22
 2962 00ca 0100     		.2byte	0x1
 2963 00cc 50       		.byte	0x50
 2964 00cd AC000000 		.4byte	.LVL23
 2965 00d1 AE000000 		.4byte	.LVL24
 2966 00d5 0100     		.2byte	0x1
 2967 00d7 50       		.byte	0x50
 2968 00d8 00000000 		.4byte	0
 2969 00dc 00000000 		.4byte	0
 2970              	.LLST8:
 2971 00e0 00000000 		.4byte	.LVL27
 2972 00e4 0E000000 		.4byte	.LVL29
 2973 00e8 0100     		.2byte	0x1
 2974 00ea 50       		.byte	0x50
 2975 00eb 0E000000 		.4byte	.LVL29
 2976 00ef 3C000000 		.4byte	.LVL34
 2977 00f3 0100     		.2byte	0x1
 2978 00f5 56       		.byte	0x56
 2979 00f6 3C000000 		.4byte	.LVL34
 2980 00fa 3E000000 		.4byte	.LVL35
 2981 00fe 0400     		.2byte	0x4
 2982 0100 F3       		.byte	0xf3
 2983 0101 01       		.uleb128 0x1
 2984 0102 50       		.byte	0x50
 2985 0103 9F       		.byte	0x9f
 2986 0104 3E000000 		.4byte	.LVL35
 2987 0108 52000000 		.4byte	.LVL36
 2988 010c 0100     		.2byte	0x1
 2989 010e 50       		.byte	0x50
 2990 010f 52000000 		.4byte	.LVL36
 2991 0113 5A000000 		.4byte	.LVL38
 2992 0117 0100     		.2byte	0x1
 2993 0119 56       		.byte	0x56
 2994 011a 5A000000 		.4byte	.LVL38
 2995 011e 6C000000 		.4byte	.LFE47
 2996 0122 0100     		.2byte	0x1
 2997 0124 50       		.byte	0x50
 2998 0125 00000000 		.4byte	0
 2999 0129 00000000 		.4byte	0
 3000              	.LLST9:
 3001 012d 00000000 		.4byte	.LVL27
 3002 0131 08000000 		.4byte	.LVL28
 3003 0135 0100     		.2byte	0x1
 3004 0137 51       		.byte	0x51
 3005 0138 08000000 		.4byte	.LVL28
 3006 013c 3C000000 		.4byte	.LVL32
 3007 0140 0100     		.2byte	0x1
 3008 0142 54       		.byte	0x54
 3009 0143 3E000000 		.4byte	.LVL35
 3010 0147 5A000000 		.4byte	.LVL38
 3011 014b 0100     		.2byte	0x1
 3012 014d 54       		.byte	0x54
 3013 014e 5A000000 		.4byte	.LVL38
 3014 0152 6C000000 		.4byte	.LFE47
ARM GAS  /var/folders/qh/xwg3v3kj02qbxczjpdb8lzfr0000gn/T//ccakFlxj.s 			page 54


 3015 0156 0100     		.2byte	0x1
 3016 0158 51       		.byte	0x51
 3017 0159 00000000 		.4byte	0
 3018 015d 00000000 		.4byte	0
 3019              	.LLST10:
 3020 0161 1A000000 		.4byte	.LVL31
 3021 0165 3C000000 		.4byte	.LVL34
 3022 0169 0100     		.2byte	0x1
 3023 016b 56       		.byte	0x56
 3024 016c 3C000000 		.4byte	.LVL34
 3025 0170 3E000000 		.4byte	.LVL35
 3026 0174 0400     		.2byte	0x4
 3027 0176 F3       		.byte	0xf3
 3028 0177 01       		.uleb128 0x1
 3029 0178 50       		.byte	0x50
 3030 0179 9F       		.byte	0x9f
 3031 017a 00000000 		.4byte	0
 3032 017e 00000000 		.4byte	0
 3033              	.LLST12:
 3034 0182 1A000000 		.4byte	.LVL31
 3035 0186 3C000000 		.4byte	.LVL32
 3036 018a 0100     		.2byte	0x1
 3037 018c 54       		.byte	0x54
 3038 018d 00000000 		.4byte	0
 3039 0191 00000000 		.4byte	0
 3040              	.LLST13:
 3041 0195 1A000000 		.4byte	.LVL31
 3042 0199 3C000000 		.4byte	.LVL33
 3043 019d 0100     		.2byte	0x1
 3044 019f 55       		.byte	0x55
 3045 01a0 00000000 		.4byte	0
 3046 01a4 00000000 		.4byte	0
 3047              	.LLST14:
 3048 01a8 00000000 		.4byte	.LVL39
 3049 01ac 08000000 		.4byte	.LVL40
 3050 01b0 0100     		.2byte	0x1
 3051 01b2 50       		.byte	0x50
 3052 01b3 08000000 		.4byte	.LVL40
 3053 01b7 0A000000 		.4byte	.LVL41
 3054 01bb 0400     		.2byte	0x4
 3055 01bd F3       		.byte	0xf3
 3056 01be 01       		.uleb128 0x1
 3057 01bf 50       		.byte	0x50
 3058 01c0 9F       		.byte	0x9f
 3059 01c1 0A000000 		.4byte	.LVL41
 3060 01c5 22000000 		.4byte	.LVL44
 3061 01c9 0100     		.2byte	0x1
 3062 01cb 50       		.byte	0x50
 3063 01cc 22000000 		.4byte	.LVL44
 3064 01d0 38000000 		.4byte	.LFE48
 3065 01d4 0400     		.2byte	0x4
 3066 01d6 F3       		.byte	0xf3
 3067 01d7 01       		.uleb128 0x1
 3068 01d8 50       		.byte	0x50
 3069 01d9 9F       		.byte	0x9f
 3070 01da 00000000 		.4byte	0
 3071 01de 00000000 		.4byte	0
ARM GAS  /var/folders/qh/xwg3v3kj02qbxczjpdb8lzfr0000gn/T//ccakFlxj.s 			page 55


 3072              	.LLST15:
 3073 01e2 0C000000 		.4byte	.LVL42
 3074 01e6 16000000 		.4byte	.LVL43
 3075 01ea 0100     		.2byte	0x1
 3076 01ec 53       		.byte	0x53
 3077 01ed 16000000 		.4byte	.LVL43
 3078 01f1 22000000 		.4byte	.LVL44
 3079 01f5 0300     		.2byte	0x3
 3080 01f7 70       		.byte	0x70
 3081 01f8 F400     		.sleb128 116
 3082 01fa 22000000 		.4byte	.LVL44
 3083 01fe 29000000 		.4byte	.LVL45-1
 3084 0202 0500     		.2byte	0x5
 3085 0204 F3       		.byte	0xf3
 3086 0205 01       		.uleb128 0x1
 3087 0206 50       		.byte	0x50
 3088 0207 23       		.byte	0x23
 3089 0208 74       		.uleb128 0x74
 3090 0209 00000000 		.4byte	0
 3091 020d 00000000 		.4byte	0
 3092              		.section	.debug_aranges,"",%progbits
 3093 0000 3C000000 		.4byte	0x3c
 3094 0004 0200     		.2byte	0x2
 3095 0006 00000000 		.4byte	.Ldebug_info0
 3096 000a 04       		.byte	0x4
 3097 000b 00       		.byte	0
 3098 000c 0000     		.2byte	0
 3099 000e 0000     		.2byte	0
 3100 0010 00000000 		.4byte	.LFB44
 3101 0014 10000000 		.4byte	.LFE44-.LFB44
 3102 0018 00000000 		.4byte	.LFB45
 3103 001c C8000000 		.4byte	.LFE45-.LFB45
 3104 0020 00000000 		.4byte	.LFB46
 3105 0024 28000000 		.4byte	.LFE46-.LFB46
 3106 0028 00000000 		.4byte	.LFB47
 3107 002c 6C000000 		.4byte	.LFE47-.LFB47
 3108 0030 00000000 		.4byte	.LFB48
 3109 0034 38000000 		.4byte	.LFE48-.LFB48
 3110 0038 00000000 		.4byte	0
 3111 003c 00000000 		.4byte	0
 3112              		.section	.debug_ranges,"",%progbits
 3113              	.Ldebug_ranges0:
 3114 0000 08000000 		.4byte	.LBB12
 3115 0004 3E000000 		.4byte	.LBE12
 3116 0008 4A000000 		.4byte	.LBB18
 3117 000c C8000000 		.4byte	.LBE18
 3118 0010 00000000 		.4byte	0
 3119 0014 00000000 		.4byte	0
 3120 0018 0E000000 		.4byte	.LBB19
 3121 001c 18000000 		.4byte	.LBE19
 3122 0020 1A000000 		.4byte	.LBB22
 3123 0024 3C000000 		.4byte	.LBE22
 3124 0028 00000000 		.4byte	0
 3125 002c 00000000 		.4byte	0
 3126 0030 00000000 		.4byte	.LFB44
 3127 0034 10000000 		.4byte	.LFE44
 3128 0038 00000000 		.4byte	.LFB45
ARM GAS  /var/folders/qh/xwg3v3kj02qbxczjpdb8lzfr0000gn/T//ccakFlxj.s 			page 56


 3129 003c C8000000 		.4byte	.LFE45
 3130 0040 00000000 		.4byte	.LFB46
 3131 0044 28000000 		.4byte	.LFE46
 3132 0048 00000000 		.4byte	.LFB47
 3133 004c 6C000000 		.4byte	.LFE47
 3134 0050 00000000 		.4byte	.LFB48
 3135 0054 38000000 		.4byte	.LFE48
 3136 0058 00000000 		.4byte	0
 3137 005c 00000000 		.4byte	0
 3138              		.section	.debug_line,"",%progbits
 3139              	.Ldebug_line0:
 3140 0000 ED020000 		.section	.debug_str,"MS",%progbits,1
 3140      02001402 
 3140      00000201 
 3140      FB0E0D00 
 3140      01010101 
 3141              	.LASF84:
 3142 0000 42444352 		.ascii	"BDCR\000"
 3142      00
 3143              	.LASF45:
 3144 0005 54687265 		.ascii	"ThreadsList\000"
 3144      6164734C 
 3144      69737400 
 3145              	.LASF37:
 3146 0011 705F7761 		.ascii	"p_waiting\000"
 3146      6974696E 
 3146      6700
 3147              	.LASF101:
 3148 001b 53657269 		.ascii	"SerialDriver\000"
 3148      616C4472 
 3148      69766572 
 3148      00
 3149              	.LASF83:
 3150 0028 41504231 		.ascii	"APB1ENR\000"
 3150      454E5200 
 3151              	.LASF36:
 3152 0030 705F7469 		.ascii	"p_time\000"
 3152      6D6500
 3153              	.LASF46:
 3154 0037 72656761 		.ascii	"regarm_t\000"
 3154      726D5F74 
 3154      00
 3155              	.LASF27:
 3156 0040 705F7072 		.ascii	"p_prio\000"
 3156      696F00
 3157              	.LASF120:
 3158 0047 7365745F 		.ascii	"set_error\000"
 3158      6572726F 
 3158      7200
 3159              	.LASF79:
 3160 0051 41504232 		.ascii	"APB2RSTR\000"
 3160      52535452 
 3160      00
 3161              	.LASF23:
 3162 005a 73797374 		.ascii	"systime_t\000"
 3162      696D655F 
 3162      7400
ARM GAS  /var/folders/qh/xwg3v3kj02qbxczjpdb8lzfr0000gn/T//ccakFlxj.s 			page 57


 3163              	.LASF52:
 3164 0064 6D5F6F77 		.ascii	"m_owner\000"
 3164      6E657200 
 3165              	.LASF38:
 3166 006c 705F6D73 		.ascii	"p_msgqueue\000"
 3166      67717565 
 3166      756500
 3167              	.LASF0:
 3168 0077 756E7369 		.ascii	"unsigned int\000"
 3168      676E6564 
 3168      20696E74 
 3168      00
 3169              	.LASF72:
 3170 0084 715F7264 		.ascii	"q_rdptr\000"
 3170      70747200 
 3171              	.LASF75:
 3172 008c 716E6F74 		.ascii	"qnotify_t\000"
 3172      6966795F 
 3172      7400
 3173              	.LASF57:
 3174 0096 656C5F6D 		.ascii	"el_mask\000"
 3174      61736B00 
 3175              	.LASF88:
 3176 009e 5243435F 		.ascii	"RCC_TypeDef\000"
 3176      54797065 
 3176      44656600 
 3177              	.LASF63:
 3178 00aa 77746F62 		.ascii	"wtobjp\000"
 3178      6A7000
 3179              	.LASF134:
 3180 00b1 2E2E2F2E 		.ascii	"../../os/hal/platforms/STM32/USARTv2/serial_lld.c\000"
 3180      2E2F6F73 
 3180      2F68616C 
 3180      2F706C61 
 3180      74666F72 
 3181              	.LASF74:
 3182 00e3 715F6C69 		.ascii	"q_link\000"
 3182      6E6B00
 3183              	.LASF133:
 3184 00ea 474E5520 		.ascii	"GNU C 4.8.3 20131129 (release) [ARM/embedded-4_8-br"
 3184      4320342E 
 3184      382E3320 
 3184      32303133 
 3184      31313239 
 3185 011d 616E6368 		.ascii	"anch revision 205641] -mcpu=cortex-m0 -mno-thumb-in"
 3185      20726576 
 3185      6973696F 
 3185      6E203230 
 3185      35363431 
 3186 0150 74657277 		.ascii	"terwork -mthumb -ggdb -O2 -fomit-frame-pointer -fal"
 3186      6F726B20 
 3186      2D6D7468 
 3186      756D6220 
 3186      2D676764 
 3187 0183 69676E2D 		.ascii	"ign-functions=16 -ffunction-sections -fdata-section"
 3187      66756E63 
 3187      74696F6E 
ARM GAS  /var/folders/qh/xwg3v3kj02qbxczjpdb8lzfr0000gn/T//ccakFlxj.s 			page 58


 3187      733D3136 
 3187      202D6666 
 3188 01b6 73202D66 		.ascii	"s -fno-common\000"
 3188      6E6F2D63 
 3188      6F6D6D6F 
 3188      6E00
 3189              	.LASF131:
 3190 01c4 73644F62 		.ascii	"sdObjectInit\000"
 3190      6A656374 
 3190      496E6974 
 3190      00
 3191              	.LASF64:
 3192 01d1 65776D61 		.ascii	"ewmask\000"
 3192      736B00
 3193              	.LASF129:
 3194 01d8 7364496E 		.ascii	"sdIncomingDataI\000"
 3194      636F6D69 
 3194      6E674461 
 3194      74614900 
 3195              	.LASF138:
 3196 01e8 6E766963 		.ascii	"nvicDisableVector\000"
 3196      44697361 
 3196      626C6556 
 3196      6563746F 
 3196      7200
 3197              	.LASF108:
 3198 01fa 73706565 		.ascii	"speed\000"
 3198      6400
 3199              	.LASF115:
 3200 0200 77726974 		.ascii	"writet\000"
 3200      657400
 3201              	.LASF90:
 3202 0207 47545052 		.ascii	"GTPR\000"
 3202      00
 3203              	.LASF104:
 3204 020c 69717565 		.ascii	"iqueue\000"
 3204      756500
 3205              	.LASF10:
 3206 0213 75696E74 		.ascii	"uint32_t\000"
 3206      33325F74 
 3206      00
 3207              	.LASF21:
 3208 021c 6576656E 		.ascii	"eventmask_t\000"
 3208      746D6173 
 3208      6B5F7400 
 3209              	.LASF85:
 3210 0228 41484252 		.ascii	"AHBRSTR\000"
 3210      53545200 
 3211              	.LASF109:
 3212 0230 53657269 		.ascii	"SerialConfig\000"
 3212      616C436F 
 3212      6E666967 
 3212      00
 3213              	.LASF100:
 3214 023d 73647374 		.ascii	"sdstate_t\000"
 3214      6174655F 
 3214      7400
ARM GAS  /var/folders/qh/xwg3v3kj02qbxczjpdb8lzfr0000gn/T//ccakFlxj.s 			page 59


 3215              	.LASF102:
 3216 0247 6576656E 		.ascii	"event\000"
 3216      7400
 3217              	.LASF19:
 3218 024d 74707269 		.ascii	"tprio_t\000"
 3218      6F5F7400 
 3219              	.LASF122:
 3220 0255 56656374 		.ascii	"VectorAC\000"
 3220      6F724143 
 3220      00
 3221              	.LASF13:
 3222 025e 6C6F6E67 		.ascii	"long long unsigned int\000"
 3222      206C6F6E 
 3222      6720756E 
 3222      7369676E 
 3222      65642069 
 3223              	.LASF132:
 3224 0275 6E766963 		.ascii	"nvicEnableVector\000"
 3224      456E6162 
 3224      6C655665 
 3224      63746F72 
 3224      00
 3225              	.LASF29:
 3226 0286 705F6E65 		.ascii	"p_newer\000"
 3226      77657200 
 3227              	.LASF67:
 3228 028e 715F7761 		.ascii	"q_waiting\000"
 3228      6974696E 
 3228      6700
 3229              	.LASF113:
 3230 0298 70757474 		.ascii	"putt\000"
 3230      00
 3231              	.LASF135:
 3232 029d 2F557365 		.ascii	"/Users/John/Development/embedded/ChibiOS-RT/BluC/ST"
 3232      72732F4A 
 3232      6F686E2F 
 3232      44657665 
 3232      6C6F706D 
 3233 02d0 4D333246 		.ascii	"M32F051\000"
 3233      30353100 
 3234              	.LASF2:
 3235 02d8 73697A65 		.ascii	"size_t\000"
 3235      5F7400
 3236              	.LASF61:
 3237 02df 7264796D 		.ascii	"rdymsg\000"
 3237      736700
 3238              	.LASF14:
 3239 02e6 5F426F6F 		.ascii	"_Bool\000"
 3239      6C00
 3240              	.LASF98:
 3241 02ec 53445F53 		.ascii	"SD_STOP\000"
 3241      544F5000 
 3242              	.LASF96:
 3243 02f4 55534152 		.ascii	"USART_TypeDef\000"
 3243      545F5479 
 3243      70654465 
 3243      6600
ARM GAS  /var/folders/qh/xwg3v3kj02qbxczjpdb8lzfr0000gn/T//ccakFlxj.s 			page 60


 3244              	.LASF50:
 3245 0302 4D757465 		.ascii	"Mutex\000"
 3245      7800
 3246              	.LASF77:
 3247 0308 4F757470 		.ascii	"OutputQueue\000"
 3247      75745175 
 3247      65756500 
 3248              	.LASF73:
 3249 0314 715F6E6F 		.ascii	"q_notify\000"
 3249      74696679 
 3249      00
 3250              	.LASF107:
 3251 031d 636C6F63 		.ascii	"clock\000"
 3251      6B00
 3252              	.LASF31:
 3253 0323 705F6E61 		.ascii	"p_name\000"
 3253      6D6500
 3254              	.LASF127:
 3255 032a 64656661 		.ascii	"default_config\000"
 3255      756C745F 
 3255      636F6E66 
 3255      696700
 3256              	.LASF80:
 3257 0339 41504231 		.ascii	"APB1RSTR\000"
 3257      52535452 
 3257      00
 3258              	.LASF76:
 3259 0342 496E7075 		.ascii	"InputQueue\000"
 3259      74517565 
 3259      756500
 3260              	.LASF44:
 3261 034d 54687265 		.ascii	"ThreadsQueue\000"
 3261      61647351 
 3261      75657565 
 3261      00
 3262              	.LASF65:
 3263 035a 63686172 		.ascii	"char\000"
 3263      00
 3264              	.LASF71:
 3265 035f 715F7772 		.ascii	"q_wrptr\000"
 3265      70747200 
 3266              	.LASF24:
 3267 0367 54687265 		.ascii	"Thread\000"
 3267      616400
 3268              	.LASF16:
 3269 036e 74737461 		.ascii	"tstate_t\000"
 3269      74655F74 
 3269      00
 3270              	.LASF128:
 3271 0377 63684576 		.ascii	"chEvtBroadcastFlagsI\000"
 3271      7442726F 
 3271      61646361 
 3271      7374466C 
 3271      61677349 
 3272              	.LASF81:
 3273 038c 41484245 		.ascii	"AHBENR\000"
 3273      4E5200
ARM GAS  /var/folders/qh/xwg3v3kj02qbxczjpdb8lzfr0000gn/T//ccakFlxj.s 			page 61


 3274              	.LASF30:
 3275 0393 705F6F6C 		.ascii	"p_older\000"
 3275      64657200 
 3276              	.LASF32:
 3277 039b 705F7374 		.ascii	"p_state\000"
 3277      61746500 
 3278              	.LASF3:
 3279 03a3 75696E74 		.ascii	"uint8_t\000"
 3279      385F7400 
 3280              	.LASF22:
 3281 03ab 666C6167 		.ascii	"flagsmask_t\000"
 3281      736D6173 
 3281      6B5F7400 
 3282              	.LASF92:
 3283 03b7 52544F52 		.ascii	"RTOR\000"
 3283      00
 3284              	.LASF43:
 3285 03bc 705F6D70 		.ascii	"p_mpool\000"
 3285      6F6F6C00 
 3286              	.LASF41:
 3287 03c4 705F6D74 		.ascii	"p_mtxlist\000"
 3287      786C6973 
 3287      7400
 3288              	.LASF106:
 3289 03ce 75736172 		.ascii	"usart\000"
 3289      7400
 3290              	.LASF12:
 3291 03d4 6C6F6E67 		.ascii	"long long int\000"
 3291      206C6F6E 
 3291      6720696E 
 3291      7400
 3292              	.LASF111:
 3293 03e2 77726974 		.ascii	"write\000"
 3293      6500
 3294              	.LASF69:
 3295 03e8 715F6275 		.ascii	"q_buffer\000"
 3295      66666572 
 3295      00
 3296              	.LASF20:
 3297 03f1 6D73675F 		.ascii	"msg_t\000"
 3297      7400
 3298              	.LASF125:
 3299 03f7 73645F6C 		.ascii	"sd_lld_stop\000"
 3299      6C645F73 
 3299      746F7000 
 3300              	.LASF48:
 3301 0403 636F6E74 		.ascii	"context\000"
 3301      65787400 
 3302              	.LASF33:
 3303 040b 705F666C 		.ascii	"p_flags\000"
 3303      61677300 
 3304              	.LASF18:
 3305 0413 74736C69 		.ascii	"tslices_t\000"
 3305      6365735F 
 3305      7400
 3306              	.LASF136:
 3307 041d 6E6F7469 		.ascii	"notify1\000"
ARM GAS  /var/folders/qh/xwg3v3kj02qbxczjpdb8lzfr0000gn/T//ccakFlxj.s 			page 62


 3307      66793100 
 3308              	.LASF118:
 3309 0425 75736172 		.ascii	"usart_init\000"
 3309      745F696E 
 3309      697400
 3310              	.LASF86:
 3311 0430 43464752 		.ascii	"CFGR2\000"
 3311      3200
 3312              	.LASF87:
 3313 0436 43464752 		.ascii	"CFGR3\000"
 3313      3300
 3314              	.LASF82:
 3315 043c 41504232 		.ascii	"APB2ENR\000"
 3315      454E5200 
 3316              	.LASF59:
 3317 0444 4576656E 		.ascii	"EventSource\000"
 3317      74536F75 
 3317      72636500 
 3318              	.LASF55:
 3319 0450 656C5F6E 		.ascii	"el_next\000"
 3319      65787400 
 3320              	.LASF39:
 3321 0458 705F6D73 		.ascii	"p_msg\000"
 3321      6700
 3322              	.LASF15:
 3323 045e 746D6F64 		.ascii	"tmode_t\000"
 3323      655F7400 
 3324              	.LASF66:
 3325 0466 47656E65 		.ascii	"GenericQueue\000"
 3325      72696351 
 3325      75657565 
 3325      00
 3326              	.LASF105:
 3327 0473 6F717565 		.ascii	"oqueue\000"
 3327      756500
 3328              	.LASF6:
 3329 047a 75696E74 		.ascii	"uint16_t\000"
 3329      31365F74 
 3329      00
 3330              	.LASF119:
 3331 0483 75736172 		.ascii	"usart_deinit\000"
 3331      745F6465 
 3331      696E6974 
 3331      00
 3332              	.LASF47:
 3333 0490 696E7463 		.ascii	"intctx\000"
 3333      747800
 3334              	.LASF124:
 3335 0497 73645F6C 		.ascii	"sd_lld_start\000"
 3335      6C645F73 
 3335      74617274 
 3335      00
 3336              	.LASF99:
 3337 04a4 53445F52 		.ascii	"SD_READY\000"
 3337      45414459 
 3337      00
 3338              	.LASF110:
ARM GAS  /var/folders/qh/xwg3v3kj02qbxczjpdb8lzfr0000gn/T//ccakFlxj.s 			page 63


 3339 04ad 53657269 		.ascii	"SerialDriverVMT\000"
 3339      616C4472 
 3339      69766572 
 3339      564D5400 
 3340              	.LASF117:
 3341 04bd 636F6E66 		.ascii	"config\000"
 3341      696700
 3342              	.LASF42:
 3343 04c4 705F7265 		.ascii	"p_realprio\000"
 3343      616C7072 
 3343      696F00
 3344              	.LASF89:
 3345 04cf 52455345 		.ascii	"RESERVED1\000"
 3345      52564544 
 3345      3100
 3346              	.LASF91:
 3347 04d9 52455345 		.ascii	"RESERVED2\000"
 3347      52564544 
 3347      3200
 3348              	.LASF93:
 3349 04e3 52455345 		.ascii	"RESERVED3\000"
 3349      52564544 
 3349      3300
 3350              	.LASF94:
 3351 04ed 52455345 		.ascii	"RESERVED4\000"
 3351      52564544 
 3351      3400
 3352              	.LASF95:
 3353 04f7 52455345 		.ascii	"RESERVED5\000"
 3353      52564544 
 3353      3500
 3354              	.LASF5:
 3355 0501 73686F72 		.ascii	"short int\000"
 3355      7420696E 
 3355      7400
 3356              	.LASF40:
 3357 050b 705F6570 		.ascii	"p_epending\000"
 3357      656E6469 
 3357      6E6700
 3358              	.LASF51:
 3359 0516 6D5F7175 		.ascii	"m_queue\000"
 3359      65756500 
 3360              	.LASF9:
 3361 051e 6C6F6E67 		.ascii	"long int\000"
 3361      20696E74 
 3361      00
 3362              	.LASF25:
 3363 0527 705F6E65 		.ascii	"p_next\000"
 3363      787400
 3364              	.LASF28:
 3365 052e 705F6374 		.ascii	"p_ctx\000"
 3365      7800
 3366              	.LASF78:
 3367 0534 43464752 		.ascii	"CFGR\000"
 3367      00
 3368              	.LASF112:
 3369 0539 72656164 		.ascii	"read\000"
ARM GAS  /var/folders/qh/xwg3v3kj02qbxczjpdb8lzfr0000gn/T//ccakFlxj.s 			page 64


 3369      00
 3370              	.LASF56:
 3371 053e 656C5F6C 		.ascii	"el_listener\000"
 3371      69737465 
 3371      6E657200 
 3372              	.LASF97:
 3373 054a 53445F55 		.ascii	"SD_UNINIT\000"
 3373      4E494E49 
 3373      5400
 3374              	.LASF137:
 3375 0554 63684F51 		.ascii	"chOQGetI\000"
 3375      47657449 
 3375      00
 3376              	.LASF68:
 3377 055d 715F636F 		.ascii	"q_counter\000"
 3377      756E7465 
 3377      7200
 3378              	.LASF114:
 3379 0567 67657474 		.ascii	"gett\000"
 3379      00
 3380              	.LASF70:
 3381 056c 715F746F 		.ascii	"q_top\000"
 3381      7000
 3382              	.LASF26:
 3383 0572 705F7072 		.ascii	"p_prev\000"
 3383      657600
 3384              	.LASF49:
 3385 0579 73697A65 		.ascii	"sizetype\000"
 3385      74797065 
 3385      00
 3386              	.LASF17:
 3387 0582 74726566 		.ascii	"trefs_t\000"
 3387      735F7400 
 3388              	.LASF54:
 3389 058a 4576656E 		.ascii	"EventListener\000"
 3389      744C6973 
 3389      74656E65 
 3389      7200
 3390              	.LASF11:
 3391 0598 6C6F6E67 		.ascii	"long unsigned int\000"
 3391      20756E73 
 3391      69676E65 
 3391      6420696E 
 3391      7400
 3392              	.LASF8:
 3393 05aa 696E7433 		.ascii	"int32_t\000"
 3393      325F7400 
 3394              	.LASF4:
 3395 05b2 756E7369 		.ascii	"unsigned char\000"
 3395      676E6564 
 3395      20636861 
 3395      7200
 3396              	.LASF34:
 3397 05c0 705F7265 		.ascii	"p_refs\000"
 3397      667300
 3398              	.LASF130:
 3399 05c7 5F706F72 		.ascii	"_port_irq_epilogue\000"
ARM GAS  /var/folders/qh/xwg3v3kj02qbxczjpdb8lzfr0000gn/T//ccakFlxj.s 			page 65


 3399      745F6972 
 3399      715F6570 
 3399      696C6F67 
 3399      756500
 3400              	.LASF35:
 3401 05da 705F7072 		.ascii	"p_preempt\000"
 3401      65656D70 
 3401      7400
 3402              	.LASF60:
 3403 05e4 65735F6E 		.ascii	"es_next\000"
 3403      65787400 
 3404              	.LASF103:
 3405 05ec 73746174 		.ascii	"state\000"
 3405      6500
 3406              	.LASF53:
 3407 05f2 6D5F6E65 		.ascii	"m_next\000"
 3407      787400
 3408              	.LASF1:
 3409 05f9 7369676E 		.ascii	"signed char\000"
 3409      65642063 
 3409      68617200 
 3410              	.LASF116:
 3411 0605 72656164 		.ascii	"readt\000"
 3411      7400
 3412              	.LASF7:
 3413 060b 73686F72 		.ascii	"short unsigned int\000"
 3413      7420756E 
 3413      7369676E 
 3413      65642069 
 3413      6E7400
 3414              	.LASF126:
 3415 061e 5F736176 		.ascii	"_saved_lr\000"
 3415      65645F6C 
 3415      7200
 3416              	.LASF123:
 3417 0628 73645F6C 		.ascii	"sd_lld_init\000"
 3417      6C645F69 
 3417      6E697400 
 3418              	.LASF58:
 3419 0634 656C5F66 		.ascii	"el_flags\000"
 3419      6C616773 
 3419      00
 3420              	.LASF62:
 3421 063d 65786974 		.ascii	"exitcode\000"
 3421      636F6465 
 3421      00
 3422              	.LASF121:
 3423 0646 73657276 		.ascii	"serve_interrupt\000"
 3423      655F696E 
 3423      74657272 
 3423      75707400 
 3424              		.ident	"GCC: (GNU Tools for ARM Embedded Processors) 4.8.3 20131129 (release) [ARM/embedded-4_8-br
ARM GAS  /var/folders/qh/xwg3v3kj02qbxczjpdb8lzfr0000gn/T//ccakFlxj.s 			page 66


DEFINED SYMBOLS
                            *ABS*:0000000000000000 serial_lld.c
/var/folders/qh/xwg3v3kj02qbxczjpdb8lzfr0000gn/T//ccakFlxj.s:18     .text.notify1:0000000000000000 $t
/var/folders/qh/xwg3v3kj02qbxczjpdb8lzfr0000gn/T//ccakFlxj.s:23     .text.notify1:0000000000000000 notify1
/var/folders/qh/xwg3v3kj02qbxczjpdb8lzfr0000gn/T//ccakFlxj.s:43     .text.notify1:000000000000000c $d
/var/folders/qh/xwg3v3kj02qbxczjpdb8lzfr0000gn/T//ccakFlxj.s:48     .text.VectorAC:0000000000000000 $t
/var/folders/qh/xwg3v3kj02qbxczjpdb8lzfr0000gn/T//ccakFlxj.s:54     .text.VectorAC:0000000000000000 VectorAC
/var/folders/qh/xwg3v3kj02qbxczjpdb8lzfr0000gn/T//ccakFlxj.s:283    .text.VectorAC:00000000000000c4 $d
/var/folders/qh/xwg3v3kj02qbxczjpdb8lzfr0000gn/T//ccakFlxj.s:291    .text.sd_lld_init:0000000000000000 $t
/var/folders/qh/xwg3v3kj02qbxczjpdb8lzfr0000gn/T//ccakFlxj.s:297    .text.sd_lld_init:0000000000000000 sd_lld_init
/var/folders/qh/xwg3v3kj02qbxczjpdb8lzfr0000gn/T//ccakFlxj.s:326    .text.sd_lld_init:0000000000000018 $d
/var/folders/qh/xwg3v3kj02qbxczjpdb8lzfr0000gn/T//ccakFlxj.s:335    .text.sd_lld_start:0000000000000000 $t
/var/folders/qh/xwg3v3kj02qbxczjpdb8lzfr0000gn/T//ccakFlxj.s:341    .text.sd_lld_start:0000000000000000 sd_lld_start
/var/folders/qh/xwg3v3kj02qbxczjpdb8lzfr0000gn/T//ccakFlxj.s:443    .text.sd_lld_start:0000000000000060 $d
/var/folders/qh/xwg3v3kj02qbxczjpdb8lzfr0000gn/T//ccakFlxj.s:450    .text.sd_lld_stop:0000000000000000 $t
/var/folders/qh/xwg3v3kj02qbxczjpdb8lzfr0000gn/T//ccakFlxj.s:456    .text.sd_lld_stop:0000000000000000 sd_lld_stop
/var/folders/qh/xwg3v3kj02qbxczjpdb8lzfr0000gn/T//ccakFlxj.s:513    .text.sd_lld_stop:000000000000002c $d
/var/folders/qh/xwg3v3kj02qbxczjpdb8lzfr0000gn/T//ccakFlxj.s:535    .bss.SD1:0000000000000000 SD1
/var/folders/qh/xwg3v3kj02qbxczjpdb8lzfr0000gn/T//ccakFlxj.s:521    .rodata.default_config:0000000000000000 $d
/var/folders/qh/xwg3v3kj02qbxczjpdb8lzfr0000gn/T//ccakFlxj.s:525    .rodata.default_config:0000000000000000 default_config
/var/folders/qh/xwg3v3kj02qbxczjpdb8lzfr0000gn/T//ccakFlxj.s:531    .bss.SD1:0000000000000000 $d
                     .debug_frame:0000000000000010 $d
/var/folders/qh/xwg3v3kj02qbxczjpdb8lzfr0000gn/T//ccakFlxj.s:290    .text.VectorAC:00000000000000c8 $t
/var/folders/qh/xwg3v3kj02qbxczjpdb8lzfr0000gn/T//ccakFlxj.s:334    .text.sd_lld_init:0000000000000028 $t
/var/folders/qh/xwg3v3kj02qbxczjpdb8lzfr0000gn/T//ccakFlxj.s:449    .text.sd_lld_start:000000000000006c $t
/var/folders/qh/xwg3v3kj02qbxczjpdb8lzfr0000gn/T//ccakFlxj.s:520    .text.sd_lld_stop:0000000000000038 $t

UNDEFINED SYMBOLS
chEvtBroadcastFlagsI
_port_irq_epilogue
sdIncomingDataI
chOQGetI
sdObjectInit
__aeabi_uidiv
nvicEnableVector
nvicDisableVector
