ARM GAS  /var/folders/qh/xwg3v3kj02qbxczjpdb8lzfr0000gn/T//ccVvflDU.s 			page 1


   1              		.cpu cortex-m0
   2              		.fpu softvfp
   3              		.eabi_attribute 20, 1
   4              		.eabi_attribute 21, 1
   5              		.eabi_attribute 23, 3
   6              		.eabi_attribute 24, 1
   7              		.eabi_attribute 25, 1
   8              		.eabi_attribute 26, 1
   9              		.eabi_attribute 30, 2
  10              		.eabi_attribute 34, 0
  11              		.eabi_attribute 18, 4
  12              		.code	16
  13              		.file	"spi.c"
  14              		.text
  15              	.Ltext0:
  16              		.cfi_sections	.debug_frame
  17              		.section	.text.spiInit,"ax",%progbits
  18              		.align	2
  19              		.p2align 4,,15
  20              		.global	spiInit
  21              		.code	16
  22              		.thumb_func
  23              		.type	spiInit, %function
  24              	spiInit:
  25              	.LFB40:
  26              		.file 1 "../../os/hal/src/spi.c"
  27              		.loc 1 61 0
  28              		.cfi_startproc
  29 0000 08B5     		push	{r3, lr}
  30              		.cfi_def_cfa_offset 8
  31              		.cfi_offset 3, -8
  32              		.cfi_offset 14, -4
  33              		.loc 1 63 0
  34 0002 FFF7FEFF 		bl	spi_lld_init
  35              	.LVL0:
  36              		.loc 1 64 0
  37              		@ sp needed
  38 0006 08BD     		pop	{r3, pc}
  39              		.cfi_endproc
  40              	.LFE40:
  41              		.size	spiInit, .-spiInit
  42 0008 C046C046 		.section	.text.spiObjectInit,"ax",%progbits
  42      C046C046 
  43              		.align	2
  44              		.p2align 4,,15
  45              		.global	spiObjectInit
  46              		.code	16
  47              		.thumb_func
  48              		.type	spiObjectInit, %function
  49              	spiObjectInit:
  50              	.LFB41:
  51              		.loc 1 73 0
  52              		.cfi_startproc
  53              	.LVL1:
  54 0000 08B5     		push	{r3, lr}
  55              		.cfi_def_cfa_offset 8
  56              		.cfi_offset 3, -8
ARM GAS  /var/folders/qh/xwg3v3kj02qbxczjpdb8lzfr0000gn/T//ccVvflDU.s 			page 2


  57              		.cfi_offset 14, -4
  58              		.loc 1 75 0
  59 0002 0123     		mov	r3, #1
  60 0004 0370     		strb	r3, [r0]
  61              		.loc 1 76 0
  62 0006 0023     		mov	r3, #0
  63 0008 4360     		str	r3, [r0, #4]
  64              		.loc 1 78 0
  65 000a 8360     		str	r3, [r0, #8]
  66              		.loc 1 82 0
  67 000c 0C30     		add	r0, r0, #12
  68              	.LVL2:
  69 000e FFF7FEFF 		bl	chMtxInit
  70              	.LVL3:
  71              		.loc 1 90 0
  72              		@ sp needed
  73 0012 08BD     		pop	{r3, pc}
  74              		.cfi_endproc
  75              	.LFE41:
  76              		.size	spiObjectInit, .-spiObjectInit
  77 0014 C046C046 		.section	.text.spiStart,"ax",%progbits
  77      C046C046 
  77      C046C046 
  78              		.align	2
  79              		.p2align 4,,15
  80              		.global	spiStart
  81              		.code	16
  82              		.thumb_func
  83              		.type	spiStart, %function
  84              	spiStart:
  85              	.LFB42:
  86              		.loc 1 100 0
  87              		.cfi_startproc
  88              	.LVL4:
  89 0000 38B5     		push	{r3, r4, r5, lr}
  90              		.cfi_def_cfa_offset 16
  91              		.cfi_offset 3, -16
  92              		.cfi_offset 4, -12
  93              		.cfi_offset 5, -8
  94              		.cfi_offset 14, -4
  95              		.loc 1 100 0
  96 0002 041C     		mov	r4, r0
  97 0004 0D1C     		mov	r5, r1
  98              		.loc 1 104 0
  99              	@ 104 "../../os/hal/src/spi.c" 1
 100 0006 72B6     		cpsid   i
 101              	@ 0 "" 2
 102              		.code	16
 103 0008 FFF7FEFF 		bl	dbg_check_lock
 104              	.LVL5:
 105              		.loc 1 108 0
 106 000c 201C     		mov	r0, r4
 107              		.loc 1 107 0
 108 000e 6560     		str	r5, [r4, #4]
 109              		.loc 1 108 0
 110 0010 FFF7FEFF 		bl	spi_lld_start
 111              	.LVL6:
ARM GAS  /var/folders/qh/xwg3v3kj02qbxczjpdb8lzfr0000gn/T//ccVvflDU.s 			page 3


 112              		.loc 1 109 0
 113 0014 0223     		mov	r3, #2
 114 0016 2370     		strb	r3, [r4]
 115              		.loc 1 110 0
 116 0018 FFF7FEFF 		bl	dbg_check_unlock
 117              	.LVL7:
 118              	@ 110 "../../os/hal/src/spi.c" 1
 119 001c 62B6     		cpsie   i
 120              	@ 0 "" 2
 121              		.loc 1 111 0
 122              		.code	16
 123              		@ sp needed
 124              	.LVL8:
 125              	.LVL9:
 126 001e 38BD     		pop	{r3, r4, r5, pc}
 127              		.cfi_endproc
 128              	.LFE42:
 129              		.size	spiStart, .-spiStart
 130              		.section	.text.spiStop,"ax",%progbits
 131              		.align	2
 132              		.p2align 4,,15
 133              		.global	spiStop
 134              		.code	16
 135              		.thumb_func
 136              		.type	spiStop, %function
 137              	spiStop:
 138              	.LFB43:
 139              		.loc 1 122 0
 140              		.cfi_startproc
 141              	.LVL10:
 142 0000 10B5     		push	{r4, lr}
 143              		.cfi_def_cfa_offset 8
 144              		.cfi_offset 4, -8
 145              		.cfi_offset 14, -4
 146              		.loc 1 122 0
 147 0002 041C     		mov	r4, r0
 148              		.loc 1 126 0
 149              	@ 126 "../../os/hal/src/spi.c" 1
 150 0004 72B6     		cpsid   i
 151              	@ 0 "" 2
 152              		.code	16
 153 0006 FFF7FEFF 		bl	dbg_check_lock
 154              	.LVL11:
 155              		.loc 1 129 0
 156 000a 201C     		mov	r0, r4
 157 000c FFF7FEFF 		bl	spi_lld_stop
 158              	.LVL12:
 159              		.loc 1 130 0
 160 0010 0123     		mov	r3, #1
 161 0012 2370     		strb	r3, [r4]
 162              		.loc 1 131 0
 163 0014 FFF7FEFF 		bl	dbg_check_unlock
 164              	.LVL13:
 165              	@ 131 "../../os/hal/src/spi.c" 1
 166 0018 62B6     		cpsie   i
 167              	@ 0 "" 2
 168              		.loc 1 132 0
ARM GAS  /var/folders/qh/xwg3v3kj02qbxczjpdb8lzfr0000gn/T//ccVvflDU.s 			page 4


 169              		.code	16
 170              		@ sp needed
 171              	.LVL14:
 172 001a 10BD     		pop	{r4, pc}
 173              		.cfi_endproc
 174              	.LFE43:
 175              		.size	spiStop, .-spiStop
 176 001c C046C046 		.section	.text.spiSelect,"ax",%progbits
 177              		.align	2
 178              		.p2align 4,,15
 179              		.global	spiSelect
 180              		.code	16
 181              		.thumb_func
 182              		.type	spiSelect, %function
 183              	spiSelect:
 184              	.LFB44:
 185              		.loc 1 141 0
 186              		.cfi_startproc
 187              	.LVL15:
 188 0000 10B5     		push	{r4, lr}
 189              		.cfi_def_cfa_offset 8
 190              		.cfi_offset 4, -8
 191              		.cfi_offset 14, -4
 192              		.loc 1 141 0
 193 0002 041C     		mov	r4, r0
 194              		.loc 1 145 0
 195              	@ 145 "../../os/hal/src/spi.c" 1
 196 0004 72B6     		cpsid   i
 197              	@ 0 "" 2
 198              		.code	16
 199 0006 FFF7FEFF 		bl	dbg_check_lock
 200              	.LVL16:
 201              		.loc 1 147 0
 202 000a 201C     		mov	r0, r4
 203 000c FFF7FEFF 		bl	spi_lld_select
 204              	.LVL17:
 205              		.loc 1 148 0
 206 0010 FFF7FEFF 		bl	dbg_check_unlock
 207              	.LVL18:
 208              	@ 148 "../../os/hal/src/spi.c" 1
 209 0014 62B6     		cpsie   i
 210              	@ 0 "" 2
 211              		.loc 1 149 0
 212              		.code	16
 213              		@ sp needed
 214              	.LVL19:
 215 0016 10BD     		pop	{r4, pc}
 216              		.cfi_endproc
 217              	.LFE44:
 218              		.size	spiSelect, .-spiSelect
 219 0018 C046C046 		.section	.text.spiUnselect,"ax",%progbits
 219      C046C046 
 220              		.align	2
 221              		.p2align 4,,15
 222              		.global	spiUnselect
 223              		.code	16
 224              		.thumb_func
ARM GAS  /var/folders/qh/xwg3v3kj02qbxczjpdb8lzfr0000gn/T//ccVvflDU.s 			page 5


 225              		.type	spiUnselect, %function
 226              	spiUnselect:
 227              	.LFB45:
 228              		.loc 1 159 0
 229              		.cfi_startproc
 230              	.LVL20:
 231 0000 10B5     		push	{r4, lr}
 232              		.cfi_def_cfa_offset 8
 233              		.cfi_offset 4, -8
 234              		.cfi_offset 14, -4
 235              		.loc 1 159 0
 236 0002 041C     		mov	r4, r0
 237              		.loc 1 163 0
 238              	@ 163 "../../os/hal/src/spi.c" 1
 239 0004 72B6     		cpsid   i
 240              	@ 0 "" 2
 241              		.code	16
 242 0006 FFF7FEFF 		bl	dbg_check_lock
 243              	.LVL21:
 244              		.loc 1 165 0
 245 000a 201C     		mov	r0, r4
 246 000c FFF7FEFF 		bl	spi_lld_unselect
 247              	.LVL22:
 248              		.loc 1 166 0
 249 0010 FFF7FEFF 		bl	dbg_check_unlock
 250              	.LVL23:
 251              	@ 166 "../../os/hal/src/spi.c" 1
 252 0014 62B6     		cpsie   i
 253              	@ 0 "" 2
 254              		.loc 1 167 0
 255              		.code	16
 256              		@ sp needed
 257              	.LVL24:
 258 0016 10BD     		pop	{r4, pc}
 259              		.cfi_endproc
 260              	.LFE45:
 261              		.size	spiUnselect, .-spiUnselect
 262 0018 C046C046 		.section	.text.spiStartIgnore,"ax",%progbits
 262      C046C046 
 263              		.align	2
 264              		.p2align 4,,15
 265              		.global	spiStartIgnore
 266              		.code	16
 267              		.thumb_func
 268              		.type	spiStartIgnore, %function
 269              	spiStartIgnore:
 270              	.LFB46:
 271              		.loc 1 182 0
 272              		.cfi_startproc
 273              	.LVL25:
 274 0000 38B5     		push	{r3, r4, r5, lr}
 275              		.cfi_def_cfa_offset 16
 276              		.cfi_offset 3, -16
 277              		.cfi_offset 4, -12
 278              		.cfi_offset 5, -8
 279              		.cfi_offset 14, -4
 280              		.loc 1 182 0
ARM GAS  /var/folders/qh/xwg3v3kj02qbxczjpdb8lzfr0000gn/T//ccVvflDU.s 			page 6


 281 0002 041C     		mov	r4, r0
 282 0004 0D1C     		mov	r5, r1
 283              		.loc 1 186 0
 284              	@ 186 "../../os/hal/src/spi.c" 1
 285 0006 72B6     		cpsid   i
 286              	@ 0 "" 2
 287              		.code	16
 288 0008 FFF7FEFF 		bl	dbg_check_lock
 289              	.LVL26:
 290              		.loc 1 188 0
 291 000c 0323     		mov	r3, #3
 292 000e 2370     		strb	r3, [r4]
 293 0010 201C     		mov	r0, r4
 294 0012 291C     		mov	r1, r5
 295 0014 FFF7FEFF 		bl	spi_lld_ignore
 296              	.LVL27:
 297              		.loc 1 189 0
 298 0018 FFF7FEFF 		bl	dbg_check_unlock
 299              	.LVL28:
 300              	@ 189 "../../os/hal/src/spi.c" 1
 301 001c 62B6     		cpsie   i
 302              	@ 0 "" 2
 303              		.loc 1 190 0
 304              		.code	16
 305              		@ sp needed
 306              	.LVL29:
 307              	.LVL30:
 308 001e 38BD     		pop	{r3, r4, r5, pc}
 309              		.cfi_endproc
 310              	.LFE46:
 311              		.size	spiStartIgnore, .-spiStartIgnore
 312              		.section	.text.spiStartExchange,"ax",%progbits
 313              		.align	2
 314              		.p2align 4,,15
 315              		.global	spiStartExchange
 316              		.code	16
 317              		.thumb_func
 318              		.type	spiStartExchange, %function
 319              	spiStartExchange:
 320              	.LFB47:
 321              		.loc 1 210 0
 322              		.cfi_startproc
 323              	.LVL31:
 324 0000 F8B5     		push	{r3, r4, r5, r6, r7, lr}
 325              		.cfi_def_cfa_offset 24
 326              		.cfi_offset 3, -24
 327              		.cfi_offset 4, -20
 328              		.cfi_offset 5, -16
 329              		.cfi_offset 6, -12
 330              		.cfi_offset 7, -8
 331              		.cfi_offset 14, -4
 332              		.loc 1 210 0
 333 0002 041C     		mov	r4, r0
 334 0004 0F1C     		mov	r7, r1
 335 0006 161C     		mov	r6, r2
 336 0008 1D1C     		mov	r5, r3
 337              		.loc 1 215 0
ARM GAS  /var/folders/qh/xwg3v3kj02qbxczjpdb8lzfr0000gn/T//ccVvflDU.s 			page 7


 338              	@ 215 "../../os/hal/src/spi.c" 1
 339 000a 72B6     		cpsid   i
 340              	@ 0 "" 2
 341              		.code	16
 342 000c FFF7FEFF 		bl	dbg_check_lock
 343              	.LVL32:
 344              		.loc 1 217 0
 345 0010 0323     		mov	r3, #3
 346 0012 2370     		strb	r3, [r4]
 347 0014 201C     		mov	r0, r4
 348 0016 391C     		mov	r1, r7
 349 0018 321C     		mov	r2, r6
 350 001a 2B1C     		mov	r3, r5
 351 001c FFF7FEFF 		bl	spi_lld_exchange
 352              	.LVL33:
 353              		.loc 1 218 0
 354 0020 FFF7FEFF 		bl	dbg_check_unlock
 355              	.LVL34:
 356              	@ 218 "../../os/hal/src/spi.c" 1
 357 0024 62B6     		cpsie   i
 358              	@ 0 "" 2
 359              		.loc 1 219 0
 360              		.code	16
 361              		@ sp needed
 362              	.LVL35:
 363              	.LVL36:
 364              	.LVL37:
 365              	.LVL38:
 366 0026 F8BD     		pop	{r3, r4, r5, r6, r7, pc}
 367              		.cfi_endproc
 368              	.LFE47:
 369              		.size	spiStartExchange, .-spiStartExchange
 370 0028 C046C046 		.section	.text.spiStartSend,"ax",%progbits
 370      C046C046 
 371              		.align	2
 372              		.p2align 4,,15
 373              		.global	spiStartSend
 374              		.code	16
 375              		.thumb_func
 376              		.type	spiStartSend, %function
 377              	spiStartSend:
 378              	.LFB48:
 379              		.loc 1 236 0
 380              		.cfi_startproc
 381              	.LVL39:
 382 0000 70B5     		push	{r4, r5, r6, lr}
 383              		.cfi_def_cfa_offset 16
 384              		.cfi_offset 4, -16
 385              		.cfi_offset 5, -12
 386              		.cfi_offset 6, -8
 387              		.cfi_offset 14, -4
 388              		.loc 1 236 0
 389 0002 041C     		mov	r4, r0
 390 0004 0E1C     		mov	r6, r1
 391 0006 151C     		mov	r5, r2
 392              		.loc 1 241 0
 393              	@ 241 "../../os/hal/src/spi.c" 1
ARM GAS  /var/folders/qh/xwg3v3kj02qbxczjpdb8lzfr0000gn/T//ccVvflDU.s 			page 8


 394 0008 72B6     		cpsid   i
 395              	@ 0 "" 2
 396              		.code	16
 397 000a FFF7FEFF 		bl	dbg_check_lock
 398              	.LVL40:
 399              		.loc 1 243 0
 400 000e 0323     		mov	r3, #3
 401 0010 2370     		strb	r3, [r4]
 402 0012 201C     		mov	r0, r4
 403 0014 311C     		mov	r1, r6
 404 0016 2A1C     		mov	r2, r5
 405 0018 FFF7FEFF 		bl	spi_lld_send
 406              	.LVL41:
 407              		.loc 1 244 0
 408 001c FFF7FEFF 		bl	dbg_check_unlock
 409              	.LVL42:
 410              	@ 244 "../../os/hal/src/spi.c" 1
 411 0020 62B6     		cpsie   i
 412              	@ 0 "" 2
 413              		.loc 1 245 0
 414              		.code	16
 415              		@ sp needed
 416              	.LVL43:
 417              	.LVL44:
 418              	.LVL45:
 419 0022 70BD     		pop	{r4, r5, r6, pc}
 420              		.cfi_endproc
 421              	.LFE48:
 422              		.size	spiStartSend, .-spiStartSend
 423 0024 C046C046 		.section	.text.spiStartReceive,"ax",%progbits
 423      C046C046 
 423      C046C046 
 424              		.align	2
 425              		.p2align 4,,15
 426              		.global	spiStartReceive
 427              		.code	16
 428              		.thumb_func
 429              		.type	spiStartReceive, %function
 430              	spiStartReceive:
 431              	.LFB49:
 432              		.loc 1 262 0
 433              		.cfi_startproc
 434              	.LVL46:
 435 0000 70B5     		push	{r4, r5, r6, lr}
 436              		.cfi_def_cfa_offset 16
 437              		.cfi_offset 4, -16
 438              		.cfi_offset 5, -12
 439              		.cfi_offset 6, -8
 440              		.cfi_offset 14, -4
 441              		.loc 1 262 0
 442 0002 041C     		mov	r4, r0
 443 0004 0E1C     		mov	r6, r1
 444 0006 151C     		mov	r5, r2
 445              		.loc 1 267 0
 446              	@ 267 "../../os/hal/src/spi.c" 1
 447 0008 72B6     		cpsid   i
 448              	@ 0 "" 2
ARM GAS  /var/folders/qh/xwg3v3kj02qbxczjpdb8lzfr0000gn/T//ccVvflDU.s 			page 9


 449              		.code	16
 450 000a FFF7FEFF 		bl	dbg_check_lock
 451              	.LVL47:
 452              		.loc 1 269 0
 453 000e 0323     		mov	r3, #3
 454 0010 2370     		strb	r3, [r4]
 455 0012 201C     		mov	r0, r4
 456 0014 311C     		mov	r1, r6
 457 0016 2A1C     		mov	r2, r5
 458 0018 FFF7FEFF 		bl	spi_lld_receive
 459              	.LVL48:
 460              		.loc 1 270 0
 461 001c FFF7FEFF 		bl	dbg_check_unlock
 462              	.LVL49:
 463              	@ 270 "../../os/hal/src/spi.c" 1
 464 0020 62B6     		cpsie   i
 465              	@ 0 "" 2
 466              		.loc 1 271 0
 467              		.code	16
 468              		@ sp needed
 469              	.LVL50:
 470              	.LVL51:
 471              	.LVL52:
 472 0022 70BD     		pop	{r4, r5, r6, pc}
 473              		.cfi_endproc
 474              	.LFE49:
 475              		.size	spiStartReceive, .-spiStartReceive
 476 0024 C046C046 		.section	.text.spiIgnore,"ax",%progbits
 476      C046C046 
 476      C046C046 
 477              		.align	2
 478              		.p2align 4,,15
 479              		.global	spiIgnore
 480              		.code	16
 481              		.thumb_func
 482              		.type	spiIgnore, %function
 483              	spiIgnore:
 484              	.LFB50:
 485              		.loc 1 288 0
 486              		.cfi_startproc
 487              	.LVL53:
 488 0000 38B5     		push	{r3, r4, r5, lr}
 489              		.cfi_def_cfa_offset 16
 490              		.cfi_offset 3, -16
 491              		.cfi_offset 4, -12
 492              		.cfi_offset 5, -8
 493              		.cfi_offset 14, -4
 494              		.loc 1 288 0
 495 0002 041C     		mov	r4, r0
 496 0004 0D1C     		mov	r5, r1
 497              		.loc 1 292 0
 498              	@ 292 "../../os/hal/src/spi.c" 1
 499 0006 72B6     		cpsid   i
 500              	@ 0 "" 2
 501              		.code	16
 502 0008 FFF7FEFF 		bl	dbg_check_lock
 503              	.LVL54:
ARM GAS  /var/folders/qh/xwg3v3kj02qbxczjpdb8lzfr0000gn/T//ccVvflDU.s 			page 10


 504              		.loc 1 295 0
 505 000c 0323     		mov	r3, #3
 506 000e 291C     		mov	r1, r5
 507 0010 2370     		strb	r3, [r4]
 508 0012 201C     		mov	r0, r4
 509 0014 FFF7FEFF 		bl	spi_lld_ignore
 510              	.LVL55:
 511              		.loc 1 296 0
 512 0018 044B     		ldr	r3, .L12
 513 001a 0220     		mov	r0, #2
 514 001c 9B69     		ldr	r3, [r3, #24]
 515 001e A360     		str	r3, [r4, #8]
 516 0020 FFF7FEFF 		bl	chSchGoSleepS
 517              	.LVL56:
 518              		.loc 1 297 0
 519 0024 FFF7FEFF 		bl	dbg_check_unlock
 520              	.LVL57:
 521              	@ 297 "../../os/hal/src/spi.c" 1
 522 0028 62B6     		cpsie   i
 523              	@ 0 "" 2
 524              		.loc 1 298 0
 525              		.code	16
 526              		@ sp needed
 527              	.LVL58:
 528              	.LVL59:
 529 002a 38BD     		pop	{r3, r4, r5, pc}
 530              	.L13:
 531              		.align	2
 532              	.L12:
 533 002c 00000000 		.word	rlist
 534              		.cfi_endproc
 535              	.LFE50:
 536              		.size	spiIgnore, .-spiIgnore
 537              		.section	.text.spiExchange,"ax",%progbits
 538              		.align	2
 539              		.p2align 4,,15
 540              		.global	spiExchange
 541              		.code	16
 542              		.thumb_func
 543              		.type	spiExchange, %function
 544              	spiExchange:
 545              	.LFB51:
 546              		.loc 1 319 0
 547              		.cfi_startproc
 548              	.LVL60:
 549 0000 F8B5     		push	{r3, r4, r5, r6, r7, lr}
 550              		.cfi_def_cfa_offset 24
 551              		.cfi_offset 3, -24
 552              		.cfi_offset 4, -20
 553              		.cfi_offset 5, -16
 554              		.cfi_offset 6, -12
 555              		.cfi_offset 7, -8
 556              		.cfi_offset 14, -4
 557              		.loc 1 319 0
 558 0002 041C     		mov	r4, r0
 559 0004 0F1C     		mov	r7, r1
 560 0006 161C     		mov	r6, r2
ARM GAS  /var/folders/qh/xwg3v3kj02qbxczjpdb8lzfr0000gn/T//ccVvflDU.s 			page 11


 561 0008 1D1C     		mov	r5, r3
 562              		.loc 1 324 0
 563              	@ 324 "../../os/hal/src/spi.c" 1
 564 000a 72B6     		cpsid   i
 565              	@ 0 "" 2
 566              		.code	16
 567 000c FFF7FEFF 		bl	dbg_check_lock
 568              	.LVL61:
 569              		.loc 1 328 0
 570 0010 0323     		mov	r3, #3
 571 0012 391C     		mov	r1, r7
 572 0014 321C     		mov	r2, r6
 573 0016 2370     		strb	r3, [r4]
 574 0018 201C     		mov	r0, r4
 575 001a 2B1C     		mov	r3, r5
 576 001c FFF7FEFF 		bl	spi_lld_exchange
 577              	.LVL62:
 578              		.loc 1 329 0
 579 0020 044B     		ldr	r3, .L15
 580 0022 0220     		mov	r0, #2
 581 0024 9B69     		ldr	r3, [r3, #24]
 582 0026 A360     		str	r3, [r4, #8]
 583 0028 FFF7FEFF 		bl	chSchGoSleepS
 584              	.LVL63:
 585              		.loc 1 330 0
 586 002c FFF7FEFF 		bl	dbg_check_unlock
 587              	.LVL64:
 588              	@ 330 "../../os/hal/src/spi.c" 1
 589 0030 62B6     		cpsie   i
 590              	@ 0 "" 2
 591              		.loc 1 331 0
 592              		.code	16
 593              		@ sp needed
 594              	.LVL65:
 595              	.LVL66:
 596              	.LVL67:
 597              	.LVL68:
 598 0032 F8BD     		pop	{r3, r4, r5, r6, r7, pc}
 599              	.L16:
 600              		.align	2
 601              	.L15:
 602 0034 00000000 		.word	rlist
 603              		.cfi_endproc
 604              	.LFE51:
 605              		.size	spiExchange, .-spiExchange
 606 0038 C046C046 		.section	.text.spiSend,"ax",%progbits
 606      C046C046 
 607              		.align	2
 608              		.p2align 4,,15
 609              		.global	spiSend
 610              		.code	16
 611              		.thumb_func
 612              		.type	spiSend, %function
 613              	spiSend:
 614              	.LFB52:
 615              		.loc 1 349 0
 616              		.cfi_startproc
ARM GAS  /var/folders/qh/xwg3v3kj02qbxczjpdb8lzfr0000gn/T//ccVvflDU.s 			page 12


 617              	.LVL69:
 618 0000 70B5     		push	{r4, r5, r6, lr}
 619              		.cfi_def_cfa_offset 16
 620              		.cfi_offset 4, -16
 621              		.cfi_offset 5, -12
 622              		.cfi_offset 6, -8
 623              		.cfi_offset 14, -4
 624              		.loc 1 349 0
 625 0002 041C     		mov	r4, r0
 626 0004 0E1C     		mov	r6, r1
 627 0006 151C     		mov	r5, r2
 628              		.loc 1 353 0
 629              	@ 353 "../../os/hal/src/spi.c" 1
 630 0008 72B6     		cpsid   i
 631              	@ 0 "" 2
 632              		.code	16
 633 000a FFF7FEFF 		bl	dbg_check_lock
 634              	.LVL70:
 635              		.loc 1 356 0
 636 000e 0323     		mov	r3, #3
 637 0010 311C     		mov	r1, r6
 638 0012 2A1C     		mov	r2, r5
 639 0014 2370     		strb	r3, [r4]
 640 0016 201C     		mov	r0, r4
 641 0018 FFF7FEFF 		bl	spi_lld_send
 642              	.LVL71:
 643              		.loc 1 357 0
 644 001c 044B     		ldr	r3, .L18
 645 001e 0220     		mov	r0, #2
 646 0020 9B69     		ldr	r3, [r3, #24]
 647 0022 A360     		str	r3, [r4, #8]
 648 0024 FFF7FEFF 		bl	chSchGoSleepS
 649              	.LVL72:
 650              		.loc 1 358 0
 651 0028 FFF7FEFF 		bl	dbg_check_unlock
 652              	.LVL73:
 653              	@ 358 "../../os/hal/src/spi.c" 1
 654 002c 62B6     		cpsie   i
 655              	@ 0 "" 2
 656              		.loc 1 359 0
 657              		.code	16
 658              		@ sp needed
 659              	.LVL74:
 660              	.LVL75:
 661              	.LVL76:
 662 002e 70BD     		pop	{r4, r5, r6, pc}
 663              	.L19:
 664              		.align	2
 665              	.L18:
 666 0030 00000000 		.word	rlist
 667              		.cfi_endproc
 668              	.LFE52:
 669              		.size	spiSend, .-spiSend
 670 0034 C046C046 		.section	.text.spiReceive,"ax",%progbits
 670      C046C046 
 670      C046C046 
 671              		.align	2
ARM GAS  /var/folders/qh/xwg3v3kj02qbxczjpdb8lzfr0000gn/T//ccVvflDU.s 			page 13


 672              		.p2align 4,,15
 673              		.global	spiReceive
 674              		.code	16
 675              		.thumb_func
 676              		.type	spiReceive, %function
 677              	spiReceive:
 678              	.LFB53:
 679              		.loc 1 377 0
 680              		.cfi_startproc
 681              	.LVL77:
 682 0000 70B5     		push	{r4, r5, r6, lr}
 683              		.cfi_def_cfa_offset 16
 684              		.cfi_offset 4, -16
 685              		.cfi_offset 5, -12
 686              		.cfi_offset 6, -8
 687              		.cfi_offset 14, -4
 688              		.loc 1 377 0
 689 0002 041C     		mov	r4, r0
 690 0004 0E1C     		mov	r6, r1
 691 0006 151C     		mov	r5, r2
 692              		.loc 1 382 0
 693              	@ 382 "../../os/hal/src/spi.c" 1
 694 0008 72B6     		cpsid   i
 695              	@ 0 "" 2
 696              		.code	16
 697 000a FFF7FEFF 		bl	dbg_check_lock
 698              	.LVL78:
 699              		.loc 1 386 0
 700 000e 0323     		mov	r3, #3
 701 0010 311C     		mov	r1, r6
 702 0012 2A1C     		mov	r2, r5
 703 0014 2370     		strb	r3, [r4]
 704 0016 201C     		mov	r0, r4
 705 0018 FFF7FEFF 		bl	spi_lld_receive
 706              	.LVL79:
 707              		.loc 1 387 0
 708 001c 044B     		ldr	r3, .L21
 709 001e 0220     		mov	r0, #2
 710 0020 9B69     		ldr	r3, [r3, #24]
 711 0022 A360     		str	r3, [r4, #8]
 712 0024 FFF7FEFF 		bl	chSchGoSleepS
 713              	.LVL80:
 714              		.loc 1 388 0
 715 0028 FFF7FEFF 		bl	dbg_check_unlock
 716              	.LVL81:
 717              	@ 388 "../../os/hal/src/spi.c" 1
 718 002c 62B6     		cpsie   i
 719              	@ 0 "" 2
 720              		.loc 1 389 0
 721              		.code	16
 722              		@ sp needed
 723              	.LVL82:
 724              	.LVL83:
 725              	.LVL84:
 726 002e 70BD     		pop	{r4, r5, r6, pc}
 727              	.L22:
 728              		.align	2
ARM GAS  /var/folders/qh/xwg3v3kj02qbxczjpdb8lzfr0000gn/T//ccVvflDU.s 			page 14


 729              	.L21:
 730 0030 00000000 		.word	rlist
 731              		.cfi_endproc
 732              	.LFE53:
 733              		.size	spiReceive, .-spiReceive
 734 0034 C046C046 		.section	.text.spiAcquireBus,"ax",%progbits
 734      C046C046 
 734      C046C046 
 735              		.align	2
 736              		.p2align 4,,15
 737              		.global	spiAcquireBus
 738              		.code	16
 739              		.thumb_func
 740              		.type	spiAcquireBus, %function
 741              	spiAcquireBus:
 742              	.LFB54:
 743              		.loc 1 404 0
 744              		.cfi_startproc
 745              	.LVL85:
 746 0000 08B5     		push	{r3, lr}
 747              		.cfi_def_cfa_offset 8
 748              		.cfi_offset 3, -8
 749              		.cfi_offset 14, -4
 750              		.loc 1 409 0
 751 0002 0C30     		add	r0, r0, #12
 752              	.LVL86:
 753 0004 FFF7FEFF 		bl	chMtxLock
 754              	.LVL87:
 755              		.loc 1 413 0
 756              		@ sp needed
 757 0008 08BD     		pop	{r3, pc}
 758              		.cfi_endproc
 759              	.LFE54:
 760              		.size	spiAcquireBus, .-spiAcquireBus
 761 000a C046C046 		.section	.text.spiReleaseBus,"ax",%progbits
 761      C046
 762              		.align	2
 763              		.p2align 4,,15
 764              		.global	spiReleaseBus
 765              		.code	16
 766              		.thumb_func
 767              		.type	spiReleaseBus, %function
 768              	spiReleaseBus:
 769              	.LFB55:
 770              		.loc 1 424 0
 771              		.cfi_startproc
 772              	.LVL88:
 773 0000 08B5     		push	{r3, lr}
 774              		.cfi_def_cfa_offset 8
 775              		.cfi_offset 3, -8
 776              		.cfi_offset 14, -4
 777              		.loc 1 430 0
 778 0002 FFF7FEFF 		bl	chMtxUnlock
 779              	.LVL89:
 780              		.loc 1 434 0
 781              		@ sp needed
 782 0006 08BD     		pop	{r3, pc}
ARM GAS  /var/folders/qh/xwg3v3kj02qbxczjpdb8lzfr0000gn/T//ccVvflDU.s 			page 15


 783              		.cfi_endproc
 784              	.LFE55:
 785              		.size	spiReleaseBus, .-spiReleaseBus
 786 0008 C046C046 		.text
 786      C046C046 
 787              	.Letext0:
 788              		.file 2 "/usr/local/Cellar/gcc-arm-none-eabi-48/20131218/lib/gcc/arm-none-eabi/4.8.3/include/stdde
 789              		.file 3 "/usr/local/Cellar/gcc-arm-none-eabi-48/20131218/arm-none-eabi/include/stdint.h"
 790              		.file 4 "../../os/ports/GCC/ARMCMx/chtypes.h"
 791              		.file 5 "../../os/kernel/include/chlists.h"
 792              		.file 6 "../../os/kernel/include/chthreads.h"
 793              		.file 7 "../../os/ports/GCC/ARMCMx/chcore_v6m.h"
 794              		.file 8 "../../os/kernel/include/chschd.h"
 795              		.file 9 "../../os/kernel/include/chmtx.h"
 796              		.file 10 "../../os/hal/platforms/STM32F0xx/stm32f0xx.h"
 797              		.file 11 "../../os/hal/platforms/STM32F0xx/stm32_dma.h"
 798              		.file 12 "../../os/hal/platforms/STM32/GPIOv2/pal_lld.h"
 799              		.file 13 "../../os/hal/include/spi.h"
 800              		.file 14 "../../os/hal/platforms/STM32/SPIv2/spi_lld.h"
 801              		.file 15 "../../os/kernel/include/chdebug.h"