ARM GAS  /var/folders/qh/xwg3v3kj02qbxczjpdb8lzfr0000gn/T//ccmgIsse.s 			page 1


   1              		.cpu cortex-m0
   2              		.fpu softvfp
   3              		.eabi_attribute 20, 1
   4              		.eabi_attribute 21, 1
   5              		.eabi_attribute 23, 3
   6              		.eabi_attribute 24, 1
   7              		.eabi_attribute 25, 1
   8              		.eabi_attribute 26, 1
   9              		.eabi_attribute 30, 2
  10              		.eabi_attribute 34, 0
  11              		.eabi_attribute 18, 4
  12              		.code	16
  13              		.file	"stm32_dma.c"
  14              		.text
  15              	.Ltext0:
  16              		.cfi_sections	.debug_frame
  17              		.section	.text.Vector64,"ax",%progbits
  18              		.align	2
  19              		.p2align 4,,15
  20              		.global	Vector64
  21              		.code	16
  22              		.thumb_func
  23              		.type	Vector64, %function
  24              	Vector64:
  25              	.LFB40:
  26              		.file 1 "../../os/hal/platforms/STM32F0xx/stm32_dma.c"
  27              		.loc 1 112 0
  28              		.cfi_startproc
  29 0000 10B5     		push	{r4, lr}
  30              		.cfi_def_cfa_offset 8
  31              		.cfi_offset 4, -8
  32              		.cfi_offset 14, -4
  33              		.loc 1 115 0
  34              	@ 115 "../../os/hal/platforms/STM32F0xx/stm32_dma.c" 1
  35 0002 7446     		mov     r4, lr
  36              	@ 0 "" 2
  37              	.LVL0:
  38              		.code	16
  39 0004 FFF7FEFF 		bl	dbg_check_enter_isr
  40              	.LVL1:
  41              		.loc 1 117 0
  42 0008 084B     		ldr	r3, .L7
  43 000a 0F21     		mov	r1, #15
  44 000c 1A68     		ldr	r2, [r3]
  45 000e 1140     		and	r1, r2
  46              	.LVL2:
  47              		.loc 1 119 0
  48 0010 074A     		ldr	r2, .L7+4
  49              		.loc 1 118 0
  50 0012 5960     		str	r1, [r3, #4]
  51              		.loc 1 119 0
  52 0014 1368     		ldr	r3, [r2]
  53 0016 002B     		cmp	r3, #0
  54 0018 01D0     		beq	.L2
  55              		.loc 1 120 0
  56 001a 5068     		ldr	r0, [r2, #4]
  57 001c 9847     		blx	r3
ARM GAS  /var/folders/qh/xwg3v3kj02qbxczjpdb8lzfr0000gn/T//ccmgIsse.s 			page 2


  58              	.LVL3:
  59              	.L2:
  60              		.loc 1 122 0
  61 001e FFF7FEFF 		bl	dbg_check_leave_isr
  62              	.LVL4:
  63 0022 201C     		mov	r0, r4
  64 0024 FFF7FEFF 		bl	_port_irq_epilogue
  65              	.LVL5:
  66              		.loc 1 123 0
  67              		@ sp needed
  68              	.LVL6:
  69 0028 10BD     		pop	{r4, pc}
  70              	.L8:
  71 002a C046     		.align	2
  72              	.L7:
  73 002c 00000240 		.word	1073872896
  74 0030 00000000 		.word	.LANCHOR0
  75              		.cfi_endproc
  76              	.LFE40:
  77              		.size	Vector64, .-Vector64
  78 0034 C046C046 		.section	.text.Vector68,"ax",%progbits
  78      C046C046 
  78      C046C046 
  79              		.align	2
  80              		.p2align 4,,15
  81              		.global	Vector68
  82              		.code	16
  83              		.thumb_func
  84              		.type	Vector68, %function
  85              	Vector68:
  86              	.LFB41:
  87              		.loc 1 130 0
  88              		.cfi_startproc
  89 0000 10B5     		push	{r4, lr}
  90              		.cfi_def_cfa_offset 8
  91              		.cfi_offset 4, -8
  92              		.cfi_offset 14, -4
  93              		.loc 1 133 0
  94              	@ 133 "../../os/hal/platforms/STM32F0xx/stm32_dma.c" 1
  95 0002 7446     		mov     r4, lr
  96              	@ 0 "" 2
  97              	.LVL7:
  98              		.code	16
  99 0004 FFF7FEFF 		bl	dbg_check_enter_isr
 100              	.LVL8:
 101              		.loc 1 136 0
 102 0008 0F4B     		ldr	r3, .L22
 103 000a 1968     		ldr	r1, [r3]
 104 000c 0906     		lsl	r1, r1, #24
 105 000e 090F     		lsr	r1, r1, #28
 106              	.LVL9:
 107              		.loc 1 137 0
 108 0010 07D0     		beq	.L11
 109              		.loc 1 138 0
 110 0012 0A01     		lsl	r2, r1, #4
 111 0014 5A60     		str	r2, [r3, #4]
 112              		.loc 1 139 0
ARM GAS  /var/folders/qh/xwg3v3kj02qbxczjpdb8lzfr0000gn/T//ccmgIsse.s 			page 3


 113 0016 0D4A     		ldr	r2, .L22+4
 114 0018 9368     		ldr	r3, [r2, #8]
 115 001a 002B     		cmp	r3, #0
 116 001c 01D0     		beq	.L11
 117              		.loc 1 140 0
 118 001e D068     		ldr	r0, [r2, #12]
 119 0020 9847     		blx	r3
 120              	.LVL10:
 121              	.L11:
 122              		.loc 1 144 0
 123 0022 094B     		ldr	r3, .L22
 124 0024 1968     		ldr	r1, [r3]
 125 0026 0905     		lsl	r1, r1, #20
 126 0028 090F     		lsr	r1, r1, #28
 127              	.LVL11:
 128              		.loc 1 145 0
 129 002a 07D0     		beq	.L14
 130              		.loc 1 146 0
 131 002c 0A02     		lsl	r2, r1, #8
 132 002e 5A60     		str	r2, [r3, #4]
 133              		.loc 1 147 0
 134 0030 064A     		ldr	r2, .L22+4
 135 0032 1369     		ldr	r3, [r2, #16]
 136 0034 002B     		cmp	r3, #0
 137 0036 01D0     		beq	.L14
 138              		.loc 1 148 0
 139 0038 5069     		ldr	r0, [r2, #20]
 140 003a 9847     		blx	r3
 141              	.LVL12:
 142              	.L14:
 143              		.loc 1 151 0
 144 003c FFF7FEFF 		bl	dbg_check_leave_isr
 145              	.LVL13:
 146 0040 201C     		mov	r0, r4
 147 0042 FFF7FEFF 		bl	_port_irq_epilogue
 148              	.LVL14:
 149              		.loc 1 152 0
 150              		@ sp needed
 151              	.LVL15:
 152 0046 10BD     		pop	{r4, pc}
 153              	.L23:
 154              		.align	2
 155              	.L22:
 156 0048 00000240 		.word	1073872896
 157 004c 00000000 		.word	.LANCHOR0
 158              		.cfi_endproc
 159              	.LFE41:
 160              		.size	Vector68, .-Vector68
 161              		.section	.text.Vector6C,"ax",%progbits
 162              		.align	2
 163              		.p2align 4,,15
 164              		.global	Vector6C
 165              		.code	16
 166              		.thumb_func
 167              		.type	Vector6C, %function
 168              	Vector6C:
 169              	.LFB42:
ARM GAS  /var/folders/qh/xwg3v3kj02qbxczjpdb8lzfr0000gn/T//ccmgIsse.s 			page 4


 170              		.loc 1 159 0
 171              		.cfi_startproc
 172 0000 10B5     		push	{r4, lr}
 173              		.cfi_def_cfa_offset 8
 174              		.cfi_offset 4, -8
 175              		.cfi_offset 14, -4
 176              		.loc 1 162 0
 177              	@ 162 "../../os/hal/platforms/STM32F0xx/stm32_dma.c" 1
 178 0002 7446     		mov     r4, lr
 179              	@ 0 "" 2
 180              	.LVL16:
 181              		.code	16
 182 0004 FFF7FEFF 		bl	dbg_check_enter_isr
 183              	.LVL17:
 184              		.loc 1 165 0
 185 0008 0F4B     		ldr	r3, .L37
 186 000a 1968     		ldr	r1, [r3]
 187 000c 0904     		lsl	r1, r1, #16
 188 000e 090F     		lsr	r1, r1, #28
 189              	.LVL18:
 190              		.loc 1 166 0
 191 0010 07D0     		beq	.L26
 192              		.loc 1 167 0
 193 0012 0A03     		lsl	r2, r1, #12
 194 0014 5A60     		str	r2, [r3, #4]
 195              		.loc 1 168 0
 196 0016 0D4A     		ldr	r2, .L37+4
 197 0018 9369     		ldr	r3, [r2, #24]
 198 001a 002B     		cmp	r3, #0
 199 001c 01D0     		beq	.L26
 200              		.loc 1 169 0
 201 001e D069     		ldr	r0, [r2, #28]
 202 0020 9847     		blx	r3
 203              	.LVL19:
 204              	.L26:
 205              		.loc 1 173 0
 206 0022 094B     		ldr	r3, .L37
 207 0024 1968     		ldr	r1, [r3]
 208 0026 0903     		lsl	r1, r1, #12
 209 0028 090F     		lsr	r1, r1, #28
 210              	.LVL20:
 211              		.loc 1 174 0
 212 002a 07D0     		beq	.L29
 213              		.loc 1 175 0
 214 002c 0A04     		lsl	r2, r1, #16
 215 002e 5A60     		str	r2, [r3, #4]
 216              		.loc 1 176 0
 217 0030 064A     		ldr	r2, .L37+4
 218 0032 136A     		ldr	r3, [r2, #32]
 219 0034 002B     		cmp	r3, #0
 220 0036 01D0     		beq	.L29
 221              		.loc 1 177 0
 222 0038 506A     		ldr	r0, [r2, #36]
 223 003a 9847     		blx	r3
 224              	.LVL21:
 225              	.L29:
 226              		.loc 1 180 0
ARM GAS  /var/folders/qh/xwg3v3kj02qbxczjpdb8lzfr0000gn/T//ccmgIsse.s 			page 5


 227 003c FFF7FEFF 		bl	dbg_check_leave_isr
 228              	.LVL22:
 229 0040 201C     		mov	r0, r4
 230 0042 FFF7FEFF 		bl	_port_irq_epilogue
 231              	.LVL23:
 232              		.loc 1 181 0
 233              		@ sp needed
 234              	.LVL24:
 235 0046 10BD     		pop	{r4, pc}
 236              	.L38:
 237              		.align	2
 238              	.L37:
 239 0048 00000240 		.word	1073872896
 240 004c 00000000 		.word	.LANCHOR0
 241              		.cfi_endproc
 242              	.LFE42:
 243              		.size	Vector6C, .-Vector6C
 244              		.section	.text.dmaInit,"ax",%progbits
 245              		.align	2
 246              		.p2align 4,,15
 247              		.global	dmaInit
 248              		.code	16
 249              		.thumb_func
 250              		.type	dmaInit, %function
 251              	dmaInit:
 252              	.LFB43:
 253              		.loc 1 192 0
 254              		.cfi_startproc
 255              		.loc 1 195 0
 256 0000 0B4A     		ldr	r2, .L40
 257 0002 0023     		mov	r3, #0
 258 0004 1360     		str	r3, [r2]
 259              	.LVL25:
 260              		.loc 1 197 0
 261 0006 0B4A     		ldr	r2, .L40+4
 262 0008 0B49     		ldr	r1, .L40+8
 263 000a 1360     		str	r3, [r2]
 264              		.loc 1 198 0
 265 000c 0B4A     		ldr	r2, .L40+12
 266              		.loc 1 201 0
 267              		@ sp needed
 268              		.loc 1 198 0
 269 000e 1360     		str	r3, [r2]
 270              	.LVL26:
 271              		.loc 1 197 0
 272 0010 0B60     		str	r3, [r1]
 273 0012 0B49     		ldr	r1, .L40+16
 274              		.loc 1 198 0
 275 0014 9360     		str	r3, [r2, #8]
 276              	.LVL27:
 277              		.loc 1 197 0
 278 0016 0B60     		str	r3, [r1]
 279 0018 0A49     		ldr	r1, .L40+20
 280              		.loc 1 198 0
 281 001a 1361     		str	r3, [r2, #16]
 282              	.LVL28:
 283              		.loc 1 197 0
ARM GAS  /var/folders/qh/xwg3v3kj02qbxczjpdb8lzfr0000gn/T//ccmgIsse.s 			page 6


 284 001c 0B60     		str	r3, [r1]
 285 001e 0A49     		ldr	r1, .L40+24
 286              		.loc 1 198 0
 287 0020 9361     		str	r3, [r2, #24]
 288              	.LVL29:
 289              		.loc 1 197 0
 290 0022 0B60     		str	r3, [r1]
 291              		.loc 1 198 0
 292 0024 1362     		str	r3, [r2, #32]
 293              	.LVL30:
 294              		.loc 1 200 0
 295 0026 094B     		ldr	r3, .L40+28
 296 0028 0122     		mov	r2, #1
 297 002a 5242     		neg	r2, r2
 298 002c 5A60     		str	r2, [r3, #4]
 299              		.loc 1 201 0
 300 002e 7047     		bx	lr
 301              	.L41:
 302              		.align	2
 303              	.L40:
 304 0030 00000000 		.word	.LANCHOR1
 305 0034 08000240 		.word	1073872904
 306 0038 1C000240 		.word	1073872924
 307 003c 00000000 		.word	.LANCHOR0
 308 0040 30000240 		.word	1073872944
 309 0044 44000240 		.word	1073872964
 310 0048 58000240 		.word	1073872984
 311 004c 00000240 		.word	1073872896
 312              		.cfi_endproc
 313              	.LFE43:
 314              		.size	dmaInit, .-dmaInit
 315              		.section	.text.dmaStreamAllocate,"ax",%progbits
 316              		.align	2
 317              		.p2align 4,,15
 318              		.global	dmaStreamAllocate
 319              		.code	16
 320              		.thumb_func
 321              		.type	dmaStreamAllocate, %function
 322              	dmaStreamAllocate:
 323              	.LFB44:
 324              		.loc 1 230 0
 325              		.cfi_startproc
 326              	.LVL31:
 327 0000 F0B5     		push	{r4, r5, r6, r7, lr}
 328              		.cfi_def_cfa_offset 20
 329              		.cfi_offset 4, -20
 330              		.cfi_offset 5, -16
 331              		.cfi_offset 6, -12
 332              		.cfi_offset 7, -8
 333              		.cfi_offset 14, -4
 334 0002 4F46     		mov	r7, r9
 335 0004 80B4     		push	{r7}
 336              		.cfi_def_cfa_offset 24
 337              		.cfi_offset 9, -24
 338              		.loc 1 235 0
 339 0006 194C     		ldr	r4, .L50
 340              		.loc 1 230 0
ARM GAS  /var/folders/qh/xwg3v3kj02qbxczjpdb8lzfr0000gn/T//ccmgIsse.s 			page 7


 341 0008 8C46     		mov	ip, r1
 342              		.loc 1 235 0
 343 000a 477A     		ldrb	r7, [r0, #9]
 344              		.loc 1 230 0
 345 000c 111C     		mov	r1, r2
 346              	.LVL32:
 347              		.loc 1 235 0
 348 000e 0122     		mov	r2, #1
 349              	.LVL33:
 350 0010 161C     		mov	r6, r2
 351 0012 2568     		ldr	r5, [r4]
 352 0014 BE40     		lsl	r6, r6, r7
 353              		.loc 1 230 0
 354 0016 9946     		mov	r9, r3
 355              		.loc 1 236 0
 356 0018 0123     		mov	r3, #1
 357              	.LVL34:
 358              		.loc 1 235 0
 359 001a 3542     		tst	r5, r6
 360 001c 20D1     		bne	.L43
 361              		.loc 1 239 0
 362 001e 144B     		ldr	r3, .L50+4
 363 0020 FF00     		lsl	r7, r7, #3
 364 0022 F950     		str	r1, [r7, r3]
 365              		.loc 1 241 0
 366 0024 3543     		orr	r5, r6
 367              		.loc 1 240 0
 368 0026 DF19     		add	r7, r3, r7
 369 0028 4B46     		mov	r3, r9
 370 002a 7B60     		str	r3, [r7, #4]
 371              		.loc 1 241 0
 372 002c 2560     		str	r5, [r4]
 373              		.loc 1 244 0
 374 002e 6B06     		lsl	r3, r5, #25
 375 0030 03D0     		beq	.L44
 376              		.loc 1 245 0
 377 0032 104B     		ldr	r3, .L50+8
 378 0034 5C69     		ldr	r4, [r3, #20]
 379 0036 2243     		orr	r2, r4
 380 0038 5A61     		str	r2, [r3, #20]
 381              	.L44:
 382              		.loc 1 248 0
 383 003a 0368     		ldr	r3, [r0]
 384 003c 0F22     		mov	r2, #15
 385 003e 1C68     		ldr	r4, [r3]
 386 0040 9443     		bic	r4, r2
 387 0042 1C60     		str	r4, [r3]
 388 0044 057A     		ldrb	r5, [r0, #8]
 389 0046 4468     		ldr	r4, [r0, #4]
 390 0048 AA40     		lsl	r2, r2, r5
 391 004a 2260     		str	r2, [r4]
 392              		.loc 1 249 0
 393 004c 0022     		mov	r2, #0
 394 004e 1A60     		str	r2, [r3]
 395              		.loc 1 252 0
 396 0050 0029     		cmp	r1, #0
 397 0052 09D0     		beq	.L46
ARM GAS  /var/folders/qh/xwg3v3kj02qbxczjpdb8lzfr0000gn/T//ccmgIsse.s 			page 8


 398              		.loc 1 253 0
 399 0054 6346     		mov	r3, ip
 400 0056 9901     		lsl	r1, r3, #6
 401              	.LVL35:
 402 0058 807A     		ldrb	r0, [r0, #10]
 403              	.LVL36:
 404 005a FFF7FEFF 		bl	nvicEnableVector
 405              	.LVL37:
 406              		.loc 1 255 0
 407 005e 0023     		mov	r3, #0
 408              	.L43:
 409              		.loc 1 256 0
 410 0060 181C     		mov	r0, r3
 411              		@ sp needed
 412              	.LVL38:
 413 0062 04BC     		pop	{r2}
 414 0064 9146     		mov	r9, r2
 415 0066 F0BD     		pop	{r4, r5, r6, r7, pc}
 416              	.LVL39:
 417              	.L46:
 418              		.loc 1 255 0
 419 0068 0023     		mov	r3, #0
 420 006a F9E7     		b	.L43
 421              	.L51:
 422              		.align	2
 423              	.L50:
 424 006c 00000000 		.word	.LANCHOR1
 425 0070 00000000 		.word	.LANCHOR0
 426 0074 00100240 		.word	1073876992
 427              		.cfi_endproc
 428              	.LFE44:
 429              		.size	dmaStreamAllocate, .-dmaStreamAllocate
 430 0078 C046C046 		.section	.text.dmaStreamRelease,"ax",%progbits
 430      C046C046 
 431              		.align	2
 432              		.p2align 4,,15
 433              		.global	dmaStreamRelease
 434              		.code	16
 435              		.thumb_func
 436              		.type	dmaStreamRelease, %function
 437              	dmaStreamRelease:
 438              	.LFB45:
 439              		.loc 1 271 0
 440              		.cfi_startproc
 441              	.LVL40:
 442 0000 10B5     		push	{r4, lr}
 443              		.cfi_def_cfa_offset 8
 444              		.cfi_offset 4, -8
 445              		.cfi_offset 14, -4
 446              		.loc 1 271 0
 447 0002 041C     		mov	r4, r0
 448              		.loc 1 280 0
 449 0004 807A     		ldrb	r0, [r0, #10]
 450              	.LVL41:
 451 0006 FFF7FEFF 		bl	nvicDisableVector
 452              	.LVL42:
 453              		.loc 1 283 0
ARM GAS  /var/folders/qh/xwg3v3kj02qbxczjpdb8lzfr0000gn/T//ccmgIsse.s 			page 9


 454 000a 637A     		ldrb	r3, [r4, #9]
 455 000c 0121     		mov	r1, #1
 456 000e 074A     		ldr	r2, .L54
 457 0010 081C     		mov	r0, r1
 458 0012 9840     		lsl	r0, r0, r3
 459 0014 031C     		mov	r3, r0
 460 0016 1068     		ldr	r0, [r2]
 461 0018 9843     		bic	r0, r3
 462 001a 1060     		str	r0, [r2]
 463              		.loc 1 286 0
 464 001c 4206     		lsl	r2, r0, #25
 465 001e 03D1     		bne	.L52
 466              		.loc 1 287 0
 467 0020 034B     		ldr	r3, .L54+4
 468 0022 5A69     		ldr	r2, [r3, #20]
 469 0024 8A43     		bic	r2, r1
 470 0026 5A61     		str	r2, [r3, #20]
 471              	.L52:
 472              		.loc 1 288 0
 473              		@ sp needed
 474              	.LVL43:
 475 0028 10BD     		pop	{r4, pc}
 476              	.L55:
 477 002a C046     		.align	2
 478              	.L54:
 479 002c 00000000 		.word	.LANCHOR1
 480 0030 00100240 		.word	1073876992
 481              		.cfi_endproc
 482              	.LFE45:
 483              		.size	dmaStreamRelease, .-dmaStreamRelease
 484              		.global	_stm32_dma_streams
 485 0034 C046C046 		.section	.bss.dma_isr_redir,"aw",%nobits
 485      C046C046 
 485      C046C046 
 486              		.align	2
 487              		.set	.LANCHOR0,. + 0
 488              		.type	dma_isr_redir, %object
 489              		.size	dma_isr_redir, 40
 490              	dma_isr_redir:
 491 0000 00000000 		.space	40
 491      00000000 
 491      00000000 
 491      00000000 
 491      00000000 
 492              		.section	.rodata._stm32_dma_streams,"a",%progbits
 493              		.align	2
 494              		.type	_stm32_dma_streams, %object
 495              		.size	_stm32_dma_streams, 60
 496              	_stm32_dma_streams:
 497 0000 08000240 		.word	1073872904
 498 0004 04000240 		.word	1073872900
 499 0008 00       		.byte	0
 500 0009 00       		.byte	0
 501 000a 09       		.byte	9
 502 000b 00       		.space	1
 503 000c 1C000240 		.word	1073872924
 504 0010 04000240 		.word	1073872900
ARM GAS  /var/folders/qh/xwg3v3kj02qbxczjpdb8lzfr0000gn/T//ccmgIsse.s 			page 10


 505 0014 04       		.byte	4
 506 0015 01       		.byte	1
 507 0016 0A       		.byte	10
 508 0017 00       		.space	1
 509 0018 30000240 		.word	1073872944
 510 001c 04000240 		.word	1073872900
 511 0020 08       		.byte	8
 512 0021 02       		.byte	2
 513 0022 0A       		.byte	10
 514 0023 00       		.space	1
 515 0024 44000240 		.word	1073872964
 516 0028 04000240 		.word	1073872900
 517 002c 0C       		.byte	12
 518 002d 03       		.byte	3
 519 002e 0B       		.byte	11
 520 002f 00       		.space	1
 521 0030 58000240 		.word	1073872984
 522 0034 04000240 		.word	1073872900
 523 0038 10       		.byte	16
 524 0039 04       		.byte	4
 525 003a 0B       		.byte	11
 526 003b 00       		.space	1
 527              		.section	.bss.dma_streams_mask,"aw",%nobits
 528              		.align	2
 529              		.set	.LANCHOR1,. + 0
 530              		.type	dma_streams_mask, %object
 531              		.size	dma_streams_mask, 4
 532              	dma_streams_mask:
 533 0000 00000000 		.space	4
 534              		.text
 535              	.Letext0:
 536              		.file 2 "/usr/local/Cellar/gcc-arm-none-eabi-48/20131218/arm-none-eabi/include/stdint.h"
 537              		.file 3 "../../os/ports/GCC/ARMCMx/chtypes.h"
 538              		.file 4 "../../os/ports/GCC/ARMCMx/chcore_v6m.h"
 539              		.file 5 "../../os/hal/platforms/STM32F0xx/stm32f0xx.h"
 540              		.file 6 "../../os/hal/platforms/STM32F0xx/stm32_dma.h"
 541              		.file 7 "../../os/kernel/include/chdebug.h"
 542              		.file 8 "../../os/ports/common/ARMCMx/nvic.h"