ARM GAS  /var/folders/qh/xwg3v3kj02qbxczjpdb8lzfr0000gn/T//cceC8pVB.s 			page 1


   1              		.cpu cortex-m0
   2              		.fpu softvfp
   3              		.eabi_attribute 20, 1
   4              		.eabi_attribute 21, 1
   5              		.eabi_attribute 23, 3
   6              		.eabi_attribute 24, 1
   7              		.eabi_attribute 25, 1
   8              		.eabi_attribute 26, 1
   9              		.eabi_attribute 30, 2
  10              		.eabi_attribute 34, 0
  11              		.eabi_attribute 18, 4
  12              		.code	16
  13              		.file	"syscalls.c"
  14              		.text
  15              	.Ltext0:
  16              		.cfi_sections	.debug_frame
  17              		.section	.text._read_r,"ax",%progbits
  18              		.align	2
  19              		.p2align 4,,15
  20              		.global	_read_r
  21              		.code	16
  22              		.thumb_func
  23              		.type	_read_r, %function
  24              	_read_r:
  25              	.LFB7:
  26              		.file 1 "../../os/various/syscalls.c"
  27              		.loc 1 76 0
  28              		.cfi_startproc
  29              	.LVL0:
  30              		.loc 1 89 0
  31 0000 1623     		mov	r3, #22
  32              	.LVL1:
  33 0002 0360     		str	r3, [r0]
  34              		.loc 1 90 0
  35 0004 0120     		mov	r0, #1
  36              	.LVL2:
  37              		.loc 1 92 0
  38 0006 4042     		neg	r0, r0
  39              		@ sp needed
  40 0008 7047     		bx	lr
  41              		.cfi_endproc
  42              	.LFE7:
  43              		.size	_read_r, .-_read_r
  44 000a C046C046 		.section	.text._lseek_r,"ax",%progbits
  44      C046
  45              		.align	2
  46              		.p2align 4,,15
  47              		.global	_lseek_r
  48              		.code	16
  49              		.thumb_func
  50              		.type	_lseek_r, %function
  51              	_lseek_r:
  52              	.LFB8:
  53              		.loc 1 97 0
  54              		.cfi_startproc
  55              	.LVL3:
  56              		.loc 1 104 0
ARM GAS  /var/folders/qh/xwg3v3kj02qbxczjpdb8lzfr0000gn/T//cceC8pVB.s 			page 2


  57 0000 0020     		mov	r0, #0
  58              	.LVL4:
  59              		@ sp needed
  60 0002 7047     		bx	lr
  61              		.cfi_endproc
  62              	.LFE8:
  63              		.size	_lseek_r, .-_lseek_r
  64 0004 C046C046 		.section	.text._write_r,"ax",%progbits
  64      C046C046 
  64      C046C046 
  65              		.align	2
  66              		.p2align 4,,15
  67              		.global	_write_r
  68              		.code	16
  69              		.thumb_func
  70              		.type	_write_r, %function
  71              	_write_r:
  72              	.LFB9:
  73              		.loc 1 109 0
  74              		.cfi_startproc
  75              	.LVL5:
  76              		.loc 1 121 0
  77 0000 181C     		mov	r0, r3
  78              	.LVL6:
  79              		@ sp needed
  80 0002 7047     		bx	lr
  81              		.cfi_endproc
  82              	.LFE9:
  83              		.size	_write_r, .-_write_r
  84 0004 C046C046 		.section	.text._close_r,"ax",%progbits
  84      C046C046 
  84      C046C046 
  85              		.align	2
  86              		.p2align 4,,15
  87              		.global	_close_r
  88              		.code	16
  89              		.thumb_func
  90              		.type	_close_r, %function
  91              	_close_r:
  92              	.LFB10:
  93              		.loc 1 126 0
  94              		.cfi_startproc
  95              	.LVL7:
  96              		.loc 1 131 0
  97 0000 0020     		mov	r0, #0
  98              	.LVL8:
  99              		@ sp needed
 100 0002 7047     		bx	lr
 101              		.cfi_endproc
 102              	.LFE10:
 103              		.size	_close_r, .-_close_r
 104 0004 C046C046 		.section	.text._sbrk_r,"ax",%progbits
 104      C046C046 
 104      C046C046 
 105              		.align	2
 106              		.p2align 4,,15
 107              		.global	_sbrk_r
ARM GAS  /var/folders/qh/xwg3v3kj02qbxczjpdb8lzfr0000gn/T//cceC8pVB.s 			page 3


 108              		.code	16
 109              		.thumb_func
 110              		.type	_sbrk_r, %function
 111              	_sbrk_r:
 112              	.LFB11:
 113              		.loc 1 136 0
 114              		.cfi_startproc
 115              	.LVL9:
 116 0000 10B5     		push	{r4, lr}
 117              		.cfi_def_cfa_offset 8
 118              		.cfi_offset 4, -8
 119              		.cfi_offset 14, -4
 120              		.loc 1 136 0
 121 0002 041C     		mov	r4, r0
 122              		.loc 1 142 0
 123 0004 081C     		mov	r0, r1
 124              	.LVL10:
 125 0006 FFF7FEFF 		bl	chCoreAlloc
 126              	.LVL11:
 127              		.loc 1 143 0
 128 000a 0028     		cmp	r0, #0
 129 000c 00D0     		beq	.L9
 130              	.LVL12:
 131              	.L6:
 132              		.loc 1 153 0
 133              		@ sp needed
 134              	.LVL13:
 135 000e 10BD     		pop	{r4, pc}
 136              	.LVL14:
 137              	.L9:
 138              		.loc 1 144 0
 139 0010 0C23     		mov	r3, #12
 140              		.loc 1 145 0
 141 0012 0120     		mov	r0, #1
 142              	.LVL15:
 143              		.loc 1 144 0
 144 0014 2360     		str	r3, [r4]
 145              		.loc 1 145 0
 146 0016 4042     		neg	r0, r0
 147 0018 F9E7     		b	.L6
 148              		.cfi_endproc
 149              	.LFE11:
 150              		.size	_sbrk_r, .-_sbrk_r
 151 001a C046C046 		.section	.text._fstat_r,"ax",%progbits
 151      C046
 152              		.align	2
 153              		.p2align 4,,15
 154              		.global	_fstat_r
 155              		.code	16
 156              		.thumb_func
 157              		.type	_fstat_r, %function
 158              	_fstat_r:
 159              	.LFB12:
 160              		.loc 1 158 0
 161              		.cfi_startproc
 162              	.LVL16:
 163 0000 10B5     		push	{r4, lr}
ARM GAS  /var/folders/qh/xwg3v3kj02qbxczjpdb8lzfr0000gn/T//cceC8pVB.s 			page 4


 164              		.cfi_def_cfa_offset 8
 165              		.cfi_offset 4, -8
 166              		.cfi_offset 14, -4
 167              		.loc 1 162 0
 168 0002 101C     		mov	r0, r2
 169              	.LVL17:
 170              		.loc 1 158 0
 171 0004 141C     		mov	r4, r2
 172              		.loc 1 162 0
 173 0006 0021     		mov	r1, #0
 174              	.LVL18:
 175 0008 3C22     		mov	r2, #60
 176              	.LVL19:
 177 000a FFF7FEFF 		bl	memset
 178              	.LVL20:
 179              		.loc 1 163 0
 180 000e 8023     		mov	r3, #128
 181 0010 9B01     		lsl	r3, r3, #6
 182              		.loc 1 165 0
 183 0012 0020     		mov	r0, #0
 184              		.loc 1 163 0
 185 0014 6360     		str	r3, [r4, #4]
 186              		.loc 1 165 0
 187              		@ sp needed
 188              	.LVL21:
 189 0016 10BD     		pop	{r4, pc}
 190              		.cfi_endproc
 191              	.LFE12:
 192              		.size	_fstat_r, .-_fstat_r
 193 0018 C046C046 		.section	.text._isatty_r,"ax",%progbits
 193      C046C046 
 194              		.align	2
 195              		.p2align 4,,15
 196              		.global	_isatty_r
 197              		.code	16
 198              		.thumb_func
 199              		.type	_isatty_r, %function
 200              	_isatty_r:
 201              	.LFB13:
 202              		.loc 1 170 0
 203              		.cfi_startproc
 204              	.LVL22:
 205              		.loc 1 175 0
 206 0000 0120     		mov	r0, #1
 207              	.LVL23:
 208              		@ sp needed
 209 0002 7047     		bx	lr
 210              		.cfi_endproc
 211              	.LFE13:
 212              		.size	_isatty_r, .-_isatty_r
 213 0004 C046C046 		.text
 213      C046C046 
 213      C046C046 
 214              	.Letext0:
 215              		.file 2 "/usr/local/Cellar/gcc-arm-none-eabi-48/20131218/lib/gcc/arm-none-eabi/4.8.3/include/stdde
 216              		.file 3 "/usr/local/Cellar/gcc-arm-none-eabi-48/20131218/arm-none-eabi/include/sys/lock.h"
 217              		.file 4 "/usr/local/Cellar/gcc-arm-none-eabi-48/20131218/arm-none-eabi/include/sys/_types.h"
ARM GAS  /var/folders/qh/xwg3v3kj02qbxczjpdb8lzfr0000gn/T//cceC8pVB.s 			page 5


 218              		.file 5 "/usr/local/Cellar/gcc-arm-none-eabi-48/20131218/arm-none-eabi/include/sys/reent.h"
 219              		.file 6 "/usr/local/Cellar/gcc-arm-none-eabi-48/20131218/arm-none-eabi/include/sys/types.h"
 220              		.file 7 "/usr/local/Cellar/gcc-arm-none-eabi-48/20131218/arm-none-eabi/include/sys/stat.h"
 221              		.file 8 "../../os/kernel/include/chmemcore.h"