ARM GAS  /var/folders/qh/xwg3v3kj02qbxczjpdb8lzfr0000gn/T//ccUN5QO5.s 			page 1


   1              		.cpu cortex-m0
   2              		.fpu softvfp
   3              		.eabi_attribute 20, 1
   4              		.eabi_attribute 21, 1
   5              		.eabi_attribute 23, 3
   6              		.eabi_attribute 24, 1
   7              		.eabi_attribute 25, 1
   8              		.eabi_attribute 26, 1
   9              		.eabi_attribute 30, 2
  10              		.eabi_attribute 34, 0
  11              		.eabi_attribute 18, 4
  12              		.code	16
  13              		.file	"testbmk.c"
  14              		.text
  15              	.Ltext0:
  16              		.cfi_sections	.debug_frame
  17              		.section	.text.thread2,"ax",%progbits
  18              		.align	2
  19              		.p2align 4,,15
  20              		.code	16
  21              		.thumb_func
  22              		.type	thread2, %function
  23              	thread2:
  24              	.LFB11:
  25              		.file 1 "../../test/testbmk.c"
  26              		.loc 1 154 0
  27              		.cfi_startproc
  28              	.LVL0:
  29              		.loc 1 157 0
  30              		@ sp needed
  31 0000 7047     		bx	lr
  32              		.cfi_endproc
  33              	.LFE11:
  34              		.size	thread2, .-thread2
  35 0002 C046C046 		.section	.text.tmo,"ax",%progbits
  35      C046C046 
  35      C046C046 
  35      C046
  36              		.align	2
  37              		.p2align 4,,15
  38              		.code	16
  39              		.thumb_func
  40              		.type	tmo, %function
  41              	tmo:
  42              	.LFB23:
  43              		.loc 1 502 0
  44              		.cfi_startproc
  45              	.LVL1:
  46              		.loc 1 502 0
  47              		@ sp needed
  48 0000 7047     		bx	lr
  49              		.cfi_endproc
  50              	.LFE23:
  51              		.size	tmo, .-tmo
  52 0002 C046C046 		.section	.text.bmk13_execute,"ax",%progbits
  52      C046C046 
  52      C046C046 
ARM GAS  /var/folders/qh/xwg3v3kj02qbxczjpdb8lzfr0000gn/T//ccUN5QO5.s 			page 2


  52      C046
  53              		.align	2
  54              		.p2align 4,,15
  55              		.code	16
  56              		.thumb_func
  57              		.type	bmk13_execute, %function
  58              	bmk13_execute:
  59              	.LFB29:
  60              		.loc 1 637 0
  61              		.cfi_startproc
  62 0000 10B5     		push	{r4, lr}
  63              		.cfi_def_cfa_offset 8
  64              		.cfi_offset 4, -8
  65              		.cfi_offset 14, -4
  66              		.loc 1 639 0
  67 0002 2E48     		ldr	r0, .L4
  68 0004 FFF7FEFF 		bl	test_print
  69              	.LVL2:
  70              		.loc 1 640 0
  71 0008 CA20     		mov	r0, #202
  72 000a 4000     		lsl	r0, r0, #1
  73 000c FFF7FEFF 		bl	test_printn
  74              	.LVL3:
  75              		.loc 1 645 0
  76 0010 2B4C     		ldr	r4, .L4+4
  77              		.loc 1 685 0
  78              		@ sp needed
  79              		.loc 1 645 0
  80 0012 201C     		mov	r0, r4
  81 0014 FFF7FEFF 		bl	test_println
  82              	.LVL4:
  83              		.loc 1 646 0
  84 0018 2A48     		ldr	r0, .L4+8
  85 001a FFF7FEFF 		bl	test_print
  86              	.LVL5:
  87              		.loc 1 647 0
  88 001e 4820     		mov	r0, #72
  89 0020 FFF7FEFF 		bl	test_printn
  90              	.LVL6:
  91              		.loc 1 648 0
  92 0024 201C     		mov	r0, r4
  93 0026 FFF7FEFF 		bl	test_println
  94              	.LVL7:
  95              		.loc 1 649 0
  96 002a 2748     		ldr	r0, .L4+12
  97 002c FFF7FEFF 		bl	test_print
  98              	.LVL8:
  99              		.loc 1 650 0
 100 0030 1420     		mov	r0, #20
 101 0032 FFF7FEFF 		bl	test_printn
 102              	.LVL9:
 103              		.loc 1 651 0
 104 0036 201C     		mov	r0, r4
 105 0038 FFF7FEFF 		bl	test_println
 106              	.LVL10:
 107              		.loc 1 653 0
 108 003c 2348     		ldr	r0, .L4+16
ARM GAS  /var/folders/qh/xwg3v3kj02qbxczjpdb8lzfr0000gn/T//ccUN5QO5.s 			page 3


 109 003e FFF7FEFF 		bl	test_print
 110              	.LVL11:
 111              		.loc 1 654 0
 112 0042 0C20     		mov	r0, #12
 113 0044 FFF7FEFF 		bl	test_printn
 114              	.LVL12:
 115              		.loc 1 655 0
 116 0048 201C     		mov	r0, r4
 117 004a FFF7FEFF 		bl	test_println
 118              	.LVL13:
 119              		.loc 1 658 0
 120 004e 2048     		ldr	r0, .L4+20
 121 0050 FFF7FEFF 		bl	test_print
 122              	.LVL14:
 123              		.loc 1 659 0
 124 0054 0420     		mov	r0, #4
 125 0056 FFF7FEFF 		bl	test_printn
 126              	.LVL15:
 127              		.loc 1 660 0
 128 005a 201C     		mov	r0, r4
 129 005c FFF7FEFF 		bl	test_println
 130              	.LVL16:
 131              		.loc 1 661 0
 132 0060 1C48     		ldr	r0, .L4+24
 133 0062 FFF7FEFF 		bl	test_print
 134              	.LVL17:
 135              		.loc 1 662 0
 136 0066 1020     		mov	r0, #16
 137 0068 FFF7FEFF 		bl	test_printn
 138              	.LVL18:
 139              		.loc 1 663 0
 140 006c 201C     		mov	r0, r4
 141 006e FFF7FEFF 		bl	test_println
 142              	.LVL19:
 143              		.loc 1 666 0
 144 0072 1948     		ldr	r0, .L4+28
 145 0074 FFF7FEFF 		bl	test_print
 146              	.LVL20:
 147              		.loc 1 667 0
 148 0078 1020     		mov	r0, #16
 149 007a FFF7FEFF 		bl	test_printn
 150              	.LVL21:
 151              		.loc 1 668 0
 152 007e 201C     		mov	r0, r4
 153 0080 FFF7FEFF 		bl	test_println
 154              	.LVL22:
 155              		.loc 1 671 0
 156 0084 1548     		ldr	r0, .L4+32
 157 0086 FFF7FEFF 		bl	test_print
 158              	.LVL23:
 159              		.loc 1 672 0
 160 008a 0820     		mov	r0, #8
 161 008c FFF7FEFF 		bl	test_printn
 162              	.LVL24:
 163              		.loc 1 673 0
 164 0090 201C     		mov	r0, r4
 165 0092 FFF7FEFF 		bl	test_println
ARM GAS  /var/folders/qh/xwg3v3kj02qbxczjpdb8lzfr0000gn/T//ccUN5QO5.s 			page 4


 166              	.LVL25:
 167              		.loc 1 676 0
 168 0096 1248     		ldr	r0, .L4+36
 169 0098 FFF7FEFF 		bl	test_print
 170              	.LVL26:
 171              		.loc 1 677 0
 172 009c 2420     		mov	r0, #36
 173 009e FFF7FEFF 		bl	test_printn
 174              	.LVL27:
 175              		.loc 1 678 0
 176 00a2 201C     		mov	r0, r4
 177 00a4 FFF7FEFF 		bl	test_println
 178              	.LVL28:
 179              		.loc 1 681 0
 180 00a8 0E48     		ldr	r0, .L4+40
 181 00aa FFF7FEFF 		bl	test_print
 182              	.LVL29:
 183              		.loc 1 682 0
 184 00ae 2820     		mov	r0, #40
 185 00b0 FFF7FEFF 		bl	test_printn
 186              	.LVL30:
 187              		.loc 1 683 0
 188 00b4 201C     		mov	r0, r4
 189 00b6 FFF7FEFF 		bl	test_println
 190              	.LVL31:
 191              		.loc 1 685 0
 192 00ba 10BD     		pop	{r4, pc}
 193              	.L5:
 194              		.align	2
 195              	.L4:
 196 00bc 00000000 		.word	.LC0
 197 00c0 10000000 		.word	.LC2
 198 00c4 18000000 		.word	.LC4
 199 00c8 28000000 		.word	.LC6
 200 00cc 38000000 		.word	.LC8
 201 00d0 48000000 		.word	.LC10
 202 00d4 58000000 		.word	.LC12
 203 00d8 68000000 		.word	.LC14
 204 00dc 78000000 		.word	.LC16
 205 00e0 88000000 		.word	.LC18
 206 00e4 98000000 		.word	.LC20
 207              		.cfi_endproc
 208              	.LFE29:
 209              		.size	bmk13_execute, .-bmk13_execute
 210 00e8 C046C046 		.section	.text.thread1,"ax",%progbits
 210      C046C046 
 211              		.align	2
 212              		.p2align 4,,15
 213              		.code	16
 214              		.thumb_func
 215              		.type	thread1, %function
 216              	thread1:
 217              	.LFB7:
 218              		.loc 1 64 0
 219              		.cfi_startproc
 220              	.LVL32:
 221 0000 10B5     		push	{r4, lr}
ARM GAS  /var/folders/qh/xwg3v3kj02qbxczjpdb8lzfr0000gn/T//ccUN5QO5.s 			page 5


 222              		.cfi_def_cfa_offset 8
 223              		.cfi_offset 4, -8
 224              		.cfi_offset 14, -4
 225              	.LVL33:
 226              	.L8:
 227              		.loc 1 70 0 discriminator 1
 228 0002 FFF7FEFF 		bl	chMsgWait
 229              	.LVL34:
 230              		.loc 1 71 0 discriminator 1
 231 0006 446B     		ldr	r4, [r0, #52]
 232              	.LVL35:
 233              		.loc 1 72 0 discriminator 1
 234 0008 211C     		mov	r1, r4
 235 000a FFF7FEFF 		bl	chMsgRelease
 236              	.LVL36:
 237              		.loc 1 73 0 discriminator 1
 238 000e 002C     		cmp	r4, #0
 239 0010 F7D1     		bne	.L8
 240              		.loc 1 75 0
 241 0012 0020     		mov	r0, #0
 242              		@ sp needed
 243              	.LVL37:
 244 0014 10BD     		pop	{r4, pc}
 245              		.cfi_endproc
 246              	.LFE7:
 247              		.size	thread1, .-thread1
 248 0016 C046C046 		.section	.text.bmk6_execute,"ax",%progbits
 248      C046C046 
 248      C046
 249              		.align	2
 250              		.p2align 4,,15
 251              		.code	16
 252              		.thumb_func
 253              		.type	bmk6_execute, %function
 254              	bmk6_execute:
 255              	.LFB16:
 256              		.loc 1 304 0
 257              		.cfi_startproc
 258              	.LVL38:
 259 0000 F0B5     		push	{r4, r5, r6, r7, lr}
 260              		.cfi_def_cfa_offset 20
 261              		.cfi_offset 4, -20
 262              		.cfi_offset 5, -16
 263              		.cfi_offset 6, -12
 264              		.cfi_offset 7, -8
 265              		.cfi_offset 14, -4
 266              		.loc 1 307 0
 267 0002 184B     		ldr	r3, .L13
 268              		.loc 1 304 0
 269 0004 4F46     		mov	r7, r9
 270              		.loc 1 307 0
 271 0006 1A68     		ldr	r2, [r3]
 272              		.loc 1 304 0
 273 0008 4646     		mov	r6, r8
 274              		.loc 1 308 0
 275 000a 174B     		ldr	r3, .L13+4
 276              		.loc 1 304 0
ARM GAS  /var/folders/qh/xwg3v3kj02qbxczjpdb8lzfr0000gn/T//ccUN5QO5.s 			page 6


 277 000c C0B4     		push	{r6, r7}
 278              		.cfi_def_cfa_offset 28
 279              		.cfi_offset 8, -28
 280              		.cfi_offset 9, -24
 281              		.loc 1 308 0
 282 000e 9B69     		ldr	r3, [r3, #24]
 283              		.loc 1 304 0
 284 0010 83B0     		sub	sp, sp, #12
 285              		.cfi_def_cfa_offset 40
 286              		.loc 1 308 0
 287 0012 9B68     		ldr	r3, [r3, #8]
 288              		.loc 1 307 0
 289 0014 9146     		mov	r9, r2
 290              	.LVL39:
 291              		.loc 1 308 0
 292 0016 0133     		add	r3, r3, #1
 293 0018 9846     		mov	r8, r3
 294              	.LVL40:
 295              		.loc 1 309 0
 296 001a FFF7FEFF 		bl	test_wait_tick
 297              	.LVL41:
 298              		.loc 1 310 0
 299 001e FA20     		mov	r0, #250
 300 0020 8000     		lsl	r0, r0, #2
 301 0022 FFF7FEFF 		bl	test_start_timer
 302              	.LVL42:
 303 0026 114F     		ldr	r7, .L13+8
 304 0028 114E     		ldr	r6, .L13+12
 305              		.loc 1 306 0
 306 002a 0024     		mov	r4, #0
 307              		.loc 1 312 0
 308 002c 0025     		mov	r5, #0
 309              	.LVL43:
 310              	.L12:
 311              		.loc 1 312 0 is_stmt 0 discriminator 1
 312 002e 9821     		mov	r1, #152
 313 0030 4900     		lsl	r1, r1, #1
 314 0032 0095     		str	r5, [sp]
 315 0034 4846     		mov	r0, r9
 316 0036 4246     		mov	r2, r8
 317 0038 3B1C     		mov	r3, r7
 318 003a FFF7FEFF 		bl	chThdCreateStatic
 319              	.LVL44:
 320              		.loc 1 317 0 is_stmt 1 discriminator 1
 321 003e 3178     		ldrb	r1, [r6]
 322              		.loc 1 313 0 discriminator 1
 323 0040 0134     		add	r4, r4, #1
 324              	.LVL45:
 325              		.loc 1 317 0 discriminator 1
 326 0042 0029     		cmp	r1, #0
 327 0044 F3D0     		beq	.L12
 328              		.loc 1 318 0
 329 0046 0B48     		ldr	r0, .L13+16
 330 0048 FFF7FEFF 		bl	test_print
 331              	.LVL46:
 332              		.loc 1 319 0
 333 004c 201C     		mov	r0, r4
ARM GAS  /var/folders/qh/xwg3v3kj02qbxczjpdb8lzfr0000gn/T//ccUN5QO5.s 			page 7


 334 004e FFF7FEFF 		bl	test_printn
 335              	.LVL47:
 336              		.loc 1 320 0
 337 0052 0948     		ldr	r0, .L13+20
 338 0054 FFF7FEFF 		bl	test_println
 339              	.LVL48:
 340              		.loc 1 321 0
 341 0058 03B0     		add	sp, sp, #12
 342              		@ sp needed
 343              	.LVL49:
 344              	.LVL50:
 345              	.LVL51:
 346 005a 0CBC     		pop	{r2, r3}
 347 005c 9046     		mov	r8, r2
 348 005e 9946     		mov	r9, r3
 349 0060 F0BD     		pop	{r4, r5, r6, r7, pc}
 350              	.L14:
 351 0062 C046     		.align	2
 352              	.L13:
 353 0064 00000000 		.word	wa
 354 0068 00000000 		.word	rlist
 355 006c 00000000 		.word	thread2
 356 0070 00000000 		.word	test_timer_done
 357 0074 A8000000 		.word	.LC26
 358 0078 B8000000 		.word	.LC28
 359              		.cfi_endproc
 360              	.LFE16:
 361              		.size	bmk6_execute, .-bmk6_execute
 362 007c C046C046 		.section	.text.msg_loop_test,"ax",%progbits
 363              		.align	2
 364              		.p2align 4,,15
 365              		.code	16
 366              		.thumb_func
 367              		.type	msg_loop_test, %function
 368              	msg_loop_test:
 369              	.LFB8:
 370              		.loc 1 80 0
 371              		.cfi_startproc
 372              	.LVL52:
 373 0000 70B5     		push	{r4, r5, r6, lr}
 374              		.cfi_def_cfa_offset 16
 375              		.cfi_offset 4, -16
 376              		.cfi_offset 5, -12
 377              		.cfi_offset 6, -8
 378              		.cfi_offset 14, -4
 379              		.loc 1 80 0
 380 0002 051C     		mov	r5, r0
 381              		.loc 1 83 0
 382 0004 FFF7FEFF 		bl	test_wait_tick
 383              	.LVL53:
 384              		.loc 1 84 0
 385 0008 FA20     		mov	r0, #250
 386 000a 8000     		lsl	r0, r0, #2
 387 000c FFF7FEFF 		bl	test_start_timer
 388              	.LVL54:
 389 0010 074E     		ldr	r6, .L18
 390              		.loc 1 82 0
ARM GAS  /var/folders/qh/xwg3v3kj02qbxczjpdb8lzfr0000gn/T//ccUN5QO5.s 			page 8


 391 0012 0024     		mov	r4, #0
 392              	.LVL55:
 393              	.L17:
 394              		.loc 1 86 0 discriminator 1
 395 0014 281C     		mov	r0, r5
 396 0016 0121     		mov	r1, #1
 397 0018 FFF7FEFF 		bl	chMsgSend
 398              	.LVL56:
 399              		.loc 1 91 0 discriminator 1
 400 001c 3378     		ldrb	r3, [r6]
 401              		.loc 1 87 0 discriminator 1
 402 001e 0134     		add	r4, r4, #1
 403              	.LVL57:
 404              		.loc 1 91 0 discriminator 1
 405 0020 002B     		cmp	r3, #0
 406 0022 F7D0     		beq	.L17
 407              		.loc 1 92 0
 408 0024 281C     		mov	r0, r5
 409 0026 0021     		mov	r1, #0
 410 0028 FFF7FEFF 		bl	chMsgSend
 411              	.LVL58:
 412              		.loc 1 94 0
 413              		@ sp needed
 414 002c 201C     		mov	r0, r4
 415              	.LVL59:
 416              	.LVL60:
 417 002e 70BD     		pop	{r4, r5, r6, pc}
 418              	.L19:
 419              		.align	2
 420              	.L18:
 421 0030 00000000 		.word	test_timer_done
 422              		.cfi_endproc
 423              	.LFE8:
 424              		.size	msg_loop_test, .-msg_loop_test
 425 0034 C046C046 		.section	.text.bmk1_execute,"ax",%progbits
 425      C046C046 
 425      C046C046 
 426              		.align	2
 427              		.p2align 4,,15
 428              		.code	16
 429              		.thumb_func
 430              		.type	bmk1_execute, %function
 431              	bmk1_execute:
 432              	.LFB9:
 433              		.loc 1 105 0
 434              		.cfi_startproc
 435              		.loc 1 108 0
 436 0000 134B     		ldr	r3, .L21
 437              		.loc 1 105 0
 438 0002 10B5     		push	{r4, lr}
 439              		.cfi_def_cfa_offset 8
 440              		.cfi_offset 4, -8
 441              		.cfi_offset 14, -4
 442              		.loc 1 108 0
 443 0004 1868     		ldr	r0, [r3]
 444 0006 134B     		ldr	r3, .L21+4
 445              		.loc 1 105 0
ARM GAS  /var/folders/qh/xwg3v3kj02qbxczjpdb8lzfr0000gn/T//ccUN5QO5.s 			page 9


 446 0008 82B0     		sub	sp, sp, #8
 447              		.cfi_def_cfa_offset 16
 448              		.loc 1 108 0
 449 000a 9B69     		ldr	r3, [r3, #24]
 450 000c 9821     		mov	r1, #152
 451 000e 9A68     		ldr	r2, [r3, #8]
 452 0010 0023     		mov	r3, #0
 453 0012 013A     		sub	r2, r2, #1
 454 0014 4900     		lsl	r1, r1, #1
 455 0016 0093     		str	r3, [sp]
 456 0018 0F4B     		ldr	r3, .L21+8
 457 001a FFF7FEFF 		bl	chThdCreateStatic
 458              	.LVL61:
 459 001e 0F4B     		ldr	r3, .L21+12
 460 0020 1860     		str	r0, [r3]
 461              		.loc 1 109 0
 462 0022 FFF7FEFF 		bl	msg_loop_test
 463              	.LVL62:
 464 0026 041C     		mov	r4, r0
 465              	.LVL63:
 466              		.loc 1 110 0
 467 0028 FFF7FEFF 		bl	test_wait_threads
 468              	.LVL64:
 469              		.loc 1 111 0
 470 002c 0C48     		ldr	r0, .L21+16
 471 002e FFF7FEFF 		bl	test_print
 472              	.LVL65:
 473              		.loc 1 112 0
 474 0032 201C     		mov	r0, r4
 475 0034 FFF7FEFF 		bl	test_printn
 476              	.LVL66:
 477              		.loc 1 113 0
 478 0038 0A48     		ldr	r0, .L21+20
 479 003a FFF7FEFF 		bl	test_print
 480              	.LVL67:
 481              		.loc 1 114 0
 482 003e 6000     		lsl	r0, r4, #1
 483 0040 FFF7FEFF 		bl	test_printn
 484              	.LVL68:
 485              		.loc 1 115 0
 486 0044 0848     		ldr	r0, .L21+24
 487 0046 FFF7FEFF 		bl	test_println
 488              	.LVL69:
 489              		.loc 1 116 0
 490 004a 02B0     		add	sp, sp, #8
 491              		@ sp needed
 492              	.LVL70:
 493 004c 10BD     		pop	{r4, pc}
 494              	.L22:
 495 004e C046     		.align	2
 496              	.L21:
 497 0050 00000000 		.word	wa
 498 0054 00000000 		.word	rlist
 499 0058 00000000 		.word	thread1
 500 005c 00000000 		.word	threads
 501 0060 A8000000 		.word	.LC26
 502 0064 C4000000 		.word	.LC36
ARM GAS  /var/folders/qh/xwg3v3kj02qbxczjpdb8lzfr0000gn/T//ccUN5QO5.s 			page 10


 503 0068 D0000000 		.word	.LC38
 504              		.cfi_endproc
 505              	.LFE9:
 506              		.size	bmk1_execute, .-bmk1_execute
 507 006c C046C046 		.section	.text.bmk2_execute,"ax",%progbits
 508              		.align	2
 509              		.p2align 4,,15
 510              		.code	16
 511              		.thumb_func
 512              		.type	bmk2_execute, %function
 513              	bmk2_execute:
 514              	.LFB10:
 515              		.loc 1 134 0
 516              		.cfi_startproc
 517              		.loc 1 137 0
 518 0000 134B     		ldr	r3, .L24
 519              		.loc 1 134 0
 520 0002 10B5     		push	{r4, lr}
 521              		.cfi_def_cfa_offset 8
 522              		.cfi_offset 4, -8
 523              		.cfi_offset 14, -4
 524              		.loc 1 137 0
 525 0004 1868     		ldr	r0, [r3]
 526 0006 134B     		ldr	r3, .L24+4
 527              		.loc 1 134 0
 528 0008 82B0     		sub	sp, sp, #8
 529              		.cfi_def_cfa_offset 16
 530              		.loc 1 137 0
 531 000a 9B69     		ldr	r3, [r3, #24]
 532 000c 9821     		mov	r1, #152
 533 000e 9A68     		ldr	r2, [r3, #8]
 534 0010 0023     		mov	r3, #0
 535 0012 0132     		add	r2, r2, #1
 536 0014 4900     		lsl	r1, r1, #1
 537 0016 0093     		str	r3, [sp]
 538 0018 0F4B     		ldr	r3, .L24+8
 539 001a FFF7FEFF 		bl	chThdCreateStatic
 540              	.LVL71:
 541 001e 0F4B     		ldr	r3, .L24+12
 542 0020 1860     		str	r0, [r3]
 543              		.loc 1 138 0
 544 0022 FFF7FEFF 		bl	msg_loop_test
 545              	.LVL72:
 546 0026 041C     		mov	r4, r0
 547              	.LVL73:
 548              		.loc 1 139 0
 549 0028 FFF7FEFF 		bl	test_wait_threads
 550              	.LVL74:
 551              		.loc 1 140 0
 552 002c 0C48     		ldr	r0, .L24+16
 553 002e FFF7FEFF 		bl	test_print
 554              	.LVL75:
 555              		.loc 1 141 0
 556 0032 201C     		mov	r0, r4
 557 0034 FFF7FEFF 		bl	test_printn
 558              	.LVL76:
 559              		.loc 1 142 0
ARM GAS  /var/folders/qh/xwg3v3kj02qbxczjpdb8lzfr0000gn/T//ccUN5QO5.s 			page 11


 560 0038 0A48     		ldr	r0, .L24+20
 561 003a FFF7FEFF 		bl	test_print
 562              	.LVL77:
 563              		.loc 1 143 0
 564 003e 6000     		lsl	r0, r4, #1
 565 0040 FFF7FEFF 		bl	test_printn
 566              	.LVL78:
 567              		.loc 1 144 0
 568 0044 0848     		ldr	r0, .L24+24
 569 0046 FFF7FEFF 		bl	test_println
 570              	.LVL79:
 571              		.loc 1 145 0
 572 004a 02B0     		add	sp, sp, #8
 573              		@ sp needed
 574              	.LVL80:
 575 004c 10BD     		pop	{r4, pc}
 576              	.L25:
 577 004e C046     		.align	2
 578              	.L24:
 579 0050 00000000 		.word	wa
 580 0054 00000000 		.word	rlist
 581 0058 00000000 		.word	thread1
 582 005c 00000000 		.word	threads
 583 0060 A8000000 		.word	.LC26
 584 0064 C4000000 		.word	.LC36
 585 0068 D0000000 		.word	.LC38
 586              		.cfi_endproc
 587              	.LFE10:
 588              		.size	bmk2_execute, .-bmk2_execute
 589 006c C046C046 		.section	.text.bmk3_execute,"ax",%progbits
 590              		.align	2
 591              		.p2align 4,,15
 592              		.code	16
 593              		.thumb_func
 594              		.type	bmk3_execute, %function
 595              	bmk3_execute:
 596              	.LFB12:
 597              		.loc 1 169 0
 598              		.cfi_startproc
 599 0000 F0B5     		push	{r4, r5, r6, r7, lr}
 600              		.cfi_def_cfa_offset 20
 601              		.cfi_offset 4, -20
 602              		.cfi_offset 5, -16
 603              		.cfi_offset 6, -12
 604              		.cfi_offset 7, -8
 605              		.cfi_offset 14, -4
 606 0002 4F46     		mov	r7, r9
 607 0004 4646     		mov	r6, r8
 608 0006 C0B4     		push	{r6, r7}
 609              		.cfi_def_cfa_offset 28
 610              		.cfi_offset 8, -28
 611              		.cfi_offset 9, -24
 612              		.loc 1 172 0
 613 0008 2D4F     		ldr	r7, .L27
 614 000a 2E4A     		ldr	r2, .L27+4
 615 000c BB69     		ldr	r3, [r7, #24]
 616 000e 9046     		mov	r8, r2
ARM GAS  /var/folders/qh/xwg3v3kj02qbxczjpdb8lzfr0000gn/T//ccUN5QO5.s 			page 12


 617 0010 9825     		mov	r5, #152
 618 0012 9A68     		ldr	r2, [r3, #8]
 619              		.loc 1 169 0
 620 0014 83B0     		sub	sp, sp, #12
 621              		.cfi_def_cfa_offset 40
 622              		.loc 1 172 0
 623 0016 6D00     		lsl	r5, r5, #1
 624 0018 0026     		mov	r6, #0
 625 001a 4346     		mov	r3, r8
 626 001c 291C     		mov	r1, r5
 627 001e 0132     		add	r2, r2, #1
 628 0020 0096     		str	r6, [sp]
 629 0022 1868     		ldr	r0, [r3]
 630 0024 284B     		ldr	r3, .L27+8
 631 0026 FFF7FEFF 		bl	chThdCreateStatic
 632              	.LVL81:
 633              		.loc 1 173 0
 634 002a BB69     		ldr	r3, [r7, #24]
 635              		.loc 1 172 0
 636 002c 274C     		ldr	r4, .L27+12
 637              		.loc 1 173 0
 638 002e 9A68     		ldr	r2, [r3, #8]
 639 0030 274B     		ldr	r3, .L27+16
 640              		.loc 1 172 0
 641 0032 2060     		str	r0, [r4]
 642              		.loc 1 173 0
 643 0034 9946     		mov	r9, r3
 644 0036 4346     		mov	r3, r8
 645 0038 291C     		mov	r1, r5
 646 003a 023A     		sub	r2, r2, #2
 647 003c 0096     		str	r6, [sp]
 648 003e 5868     		ldr	r0, [r3, #4]
 649 0040 4B46     		mov	r3, r9
 650 0042 FFF7FEFF 		bl	chThdCreateStatic
 651              	.LVL82:
 652              		.loc 1 174 0
 653 0046 BB69     		ldr	r3, [r7, #24]
 654              		.loc 1 173 0
 655 0048 6060     		str	r0, [r4, #4]
 656              		.loc 1 174 0
 657 004a 9A68     		ldr	r2, [r3, #8]
 658 004c 4346     		mov	r3, r8
 659 004e 291C     		mov	r1, r5
 660 0050 033A     		sub	r2, r2, #3
 661 0052 0096     		str	r6, [sp]
 662 0054 9868     		ldr	r0, [r3, #8]
 663 0056 4B46     		mov	r3, r9
 664 0058 FFF7FEFF 		bl	chThdCreateStatic
 665              	.LVL83:
 666              		.loc 1 175 0
 667 005c BB69     		ldr	r3, [r7, #24]
 668              		.loc 1 174 0
 669 005e A060     		str	r0, [r4, #8]
 670              		.loc 1 175 0
 671 0060 9A68     		ldr	r2, [r3, #8]
 672 0062 4346     		mov	r3, r8
 673 0064 291C     		mov	r1, r5
ARM GAS  /var/folders/qh/xwg3v3kj02qbxczjpdb8lzfr0000gn/T//ccUN5QO5.s 			page 13


 674 0066 043A     		sub	r2, r2, #4
 675 0068 0096     		str	r6, [sp]
 676 006a D868     		ldr	r0, [r3, #12]
 677 006c 4B46     		mov	r3, r9
 678 006e FFF7FEFF 		bl	chThdCreateStatic
 679              	.LVL84:
 680              		.loc 1 176 0
 681 0072 BB69     		ldr	r3, [r7, #24]
 682 0074 4246     		mov	r2, r8
 683              		.loc 1 175 0
 684 0076 E060     		str	r0, [r4, #12]
 685              		.loc 1 176 0
 686 0078 1069     		ldr	r0, [r2, #16]
 687 007a 9A68     		ldr	r2, [r3, #8]
 688 007c 291C     		mov	r1, r5
 689 007e 053A     		sub	r2, r2, #5
 690 0080 4B46     		mov	r3, r9
 691 0082 0096     		str	r6, [sp]
 692 0084 FFF7FEFF 		bl	chThdCreateStatic
 693              	.LVL85:
 694 0088 2061     		str	r0, [r4, #16]
 695              		.loc 1 177 0
 696 008a 2068     		ldr	r0, [r4]
 697 008c FFF7FEFF 		bl	msg_loop_test
 698              	.LVL86:
 699 0090 041C     		mov	r4, r0
 700              	.LVL87:
 701              		.loc 1 178 0
 702 0092 FFF7FEFF 		bl	test_wait_threads
 703              	.LVL88:
 704              		.loc 1 179 0
 705 0096 0F48     		ldr	r0, .L27+20
 706 0098 FFF7FEFF 		bl	test_print
 707              	.LVL89:
 708              		.loc 1 180 0
 709 009c 201C     		mov	r0, r4
 710 009e FFF7FEFF 		bl	test_printn
 711              	.LVL90:
 712              		.loc 1 181 0
 713 00a2 0D48     		ldr	r0, .L27+24
 714 00a4 FFF7FEFF 		bl	test_print
 715              	.LVL91:
 716              		.loc 1 182 0
 717 00a8 6000     		lsl	r0, r4, #1
 718 00aa FFF7FEFF 		bl	test_printn
 719              	.LVL92:
 720              		.loc 1 183 0
 721 00ae 0B48     		ldr	r0, .L27+28
 722 00b0 FFF7FEFF 		bl	test_println
 723              	.LVL93:
 724              		.loc 1 184 0
 725 00b4 03B0     		add	sp, sp, #12
 726              		@ sp needed
 727              	.LVL94:
 728 00b6 0CBC     		pop	{r2, r3}
 729 00b8 9046     		mov	r8, r2
 730 00ba 9946     		mov	r9, r3
ARM GAS  /var/folders/qh/xwg3v3kj02qbxczjpdb8lzfr0000gn/T//ccUN5QO5.s 			page 14


 731 00bc F0BD     		pop	{r4, r5, r6, r7, pc}
 732              	.L28:
 733 00be C046     		.align	2
 734              	.L27:
 735 00c0 00000000 		.word	rlist
 736 00c4 00000000 		.word	wa
 737 00c8 00000000 		.word	thread1
 738 00cc 00000000 		.word	threads
 739 00d0 00000000 		.word	thread2
 740 00d4 A8000000 		.word	.LC26
 741 00d8 C4000000 		.word	.LC36
 742 00dc D0000000 		.word	.LC38
 743              		.cfi_endproc
 744              	.LFE12:
 745              		.size	bmk3_execute, .-bmk3_execute
 746              		.section	.text.thread4,"ax",%progbits
 747              		.align	2
 748              		.p2align 4,,15
 749              		.global	thread4
 750              		.code	16
 751              		.thumb_func
 752              		.type	thread4, %function
 753              	thread4:
 754              	.LFB13:
 755              		.loc 1 203 0
 756              		.cfi_startproc
 757              	.LVL95:
 758              		.loc 1 205 0
 759 0000 064B     		ldr	r3, .L32
 760              		.loc 1 203 0
 761 0002 10B5     		push	{r4, lr}
 762              		.cfi_def_cfa_offset 8
 763              		.cfi_offset 4, -8
 764              		.cfi_offset 14, -4
 765              		.loc 1 205 0
 766 0004 9C69     		ldr	r4, [r3, #24]
 767              	.LVL96:
 768              		.loc 1 208 0
 769              	@ 208 "../../test/testbmk.c" 1
 770 0006 72B6     		cpsid   i
 771              	@ 0 "" 2
 772              	.LVL97:
 773              		.code	16
 774              	.L31:
 775              		.loc 1 210 0 discriminator 1
 776 0008 0220     		mov	r0, #2
 777 000a FFF7FEFF 		bl	chSchGoSleepS
 778              	.LVL98:
 779              		.loc 1 212 0 discriminator 1
 780 000e 636A     		ldr	r3, [r4, #36]
 781 0010 002B     		cmp	r3, #0
 782 0012 F9D0     		beq	.L31
 783              		.loc 1 213 0
 784              	@ 213 "../../test/testbmk.c" 1
 785 0014 62B6     		cpsie   i
 786              	@ 0 "" 2
 787              		.loc 1 215 0
ARM GAS  /var/folders/qh/xwg3v3kj02qbxczjpdb8lzfr0000gn/T//ccUN5QO5.s 			page 15


 788              		.code	16
 789 0016 0020     		mov	r0, #0
 790              		@ sp needed
 791              	.LVL99:
 792 0018 10BD     		pop	{r4, pc}
 793              	.L33:
 794 001a C046     		.align	2
 795              	.L32:
 796 001c 00000000 		.word	rlist
 797              		.cfi_endproc
 798              	.LFE13:
 799              		.size	thread4, .-thread4
 800              		.section	.text.bmk4_execute,"ax",%progbits
 801              		.align	2
 802              		.p2align 4,,15
 803              		.code	16
 804              		.thumb_func
 805              		.type	bmk4_execute, %function
 806              	bmk4_execute:
 807              	.LFB14:
 808              		.loc 1 217 0
 809              		.cfi_startproc
 810 0000 70B5     		push	{r4, r5, r6, lr}
 811              		.cfi_def_cfa_offset 16
 812              		.cfi_offset 4, -16
 813              		.cfi_offset 5, -12
 814              		.cfi_offset 6, -8
 815              		.cfi_offset 14, -4
 816              		.loc 1 221 0
 817 0002 214B     		ldr	r3, .L37
 818              		.loc 1 217 0
 819 0004 82B0     		sub	sp, sp, #8
 820              		.cfi_def_cfa_offset 24
 821              		.loc 1 221 0
 822 0006 9B69     		ldr	r3, [r3, #24]
 823 0008 9821     		mov	r1, #152
 824 000a 9A68     		ldr	r2, [r3, #8]
 825 000c 0023     		mov	r3, #0
 826 000e 0093     		str	r3, [sp]
 827 0010 1E4B     		ldr	r3, .L37+4
 828 0012 0132     		add	r2, r2, #1
 829 0014 4900     		lsl	r1, r1, #1
 830 0016 1868     		ldr	r0, [r3]
 831 0018 1D4B     		ldr	r3, .L37+8
 832 001a FFF7FEFF 		bl	chThdCreateStatic
 833              	.LVL100:
 834 001e 1D4B     		ldr	r3, .L37+12
 835 0020 041C     		mov	r4, r0
 836 0022 1860     		str	r0, [r3]
 837              	.LVL101:
 838              		.loc 1 223 0
 839 0024 FFF7FEFF 		bl	test_wait_tick
 840              	.LVL102:
 841              		.loc 1 224 0
 842 0028 FA20     		mov	r0, #250
 843 002a 8000     		lsl	r0, r0, #2
 844 002c FFF7FEFF 		bl	test_start_timer
ARM GAS  /var/folders/qh/xwg3v3kj02qbxczjpdb8lzfr0000gn/T//ccUN5QO5.s 			page 16


 845              	.LVL103:
 846 0030 194E     		ldr	r6, .L37+16
 847              		.loc 1 222 0
 848 0032 0025     		mov	r5, #0
 849              	.LVL104:
 850              	.L36:
 851              		.loc 1 226 0 discriminator 1
 852              	@ 226 "../../test/testbmk.c" 1
 853 0034 72B6     		cpsid   i
 854              	@ 0 "" 2
 855              		.loc 1 227 0 discriminator 1
 856              		.code	16
 857 0036 0021     		mov	r1, #0
 858 0038 201C     		mov	r0, r4
 859 003a FFF7FEFF 		bl	chSchWakeupS
 860              	.LVL105:
 861              		.loc 1 228 0 discriminator 1
 862 003e 201C     		mov	r0, r4
 863 0040 0021     		mov	r1, #0
 864 0042 FFF7FEFF 		bl	chSchWakeupS
 865              	.LVL106:
 866              		.loc 1 229 0 discriminator 1
 867 0046 201C     		mov	r0, r4
 868 0048 0021     		mov	r1, #0
 869 004a FFF7FEFF 		bl	chSchWakeupS
 870              	.LVL107:
 871              		.loc 1 230 0 discriminator 1
 872 004e 201C     		mov	r0, r4
 873 0050 0021     		mov	r1, #0
 874 0052 FFF7FEFF 		bl	chSchWakeupS
 875              	.LVL108:
 876              		.loc 1 231 0 discriminator 1
 877              	@ 231 "../../test/testbmk.c" 1
 878 0056 62B6     		cpsie   i
 879              	@ 0 "" 2
 880              		.loc 1 236 0 discriminator 1
 881              		.code	16
 882 0058 3378     		ldrb	r3, [r6]
 883              		.loc 1 232 0 discriminator 1
 884 005a 0435     		add	r5, r5, #4
 885              	.LVL109:
 886              		.loc 1 236 0 discriminator 1
 887 005c 002B     		cmp	r3, #0
 888 005e E9D0     		beq	.L36
 889              		.loc 1 237 0
 890              	@ 237 "../../test/testbmk.c" 1
 891 0060 72B6     		cpsid   i
 892              	@ 0 "" 2
 893              		.loc 1 238 0
 894              		.code	16
 895 0062 0121     		mov	r1, #1
 896 0064 201C     		mov	r0, r4
 897 0066 4942     		neg	r1, r1
 898 0068 FFF7FEFF 		bl	chSchWakeupS
 899              	.LVL110:
 900              		.loc 1 239 0
 901              	@ 239 "../../test/testbmk.c" 1
ARM GAS  /var/folders/qh/xwg3v3kj02qbxczjpdb8lzfr0000gn/T//ccUN5QO5.s 			page 17


 902 006c 62B6     		cpsie   i
 903              	@ 0 "" 2
 904              		.loc 1 241 0
 905              		.code	16
 906 006e FFF7FEFF 		bl	test_wait_threads
 907              	.LVL111:
 908              		.loc 1 242 0
 909 0072 0A48     		ldr	r0, .L37+20
 910 0074 FFF7FEFF 		bl	test_print
 911              	.LVL112:
 912              		.loc 1 243 0
 913 0078 6800     		lsl	r0, r5, #1
 914 007a FFF7FEFF 		bl	test_printn
 915              	.LVL113:
 916              		.loc 1 244 0
 917 007e 0848     		ldr	r0, .L37+24
 918 0080 FFF7FEFF 		bl	test_println
 919              	.LVL114:
 920              		.loc 1 245 0
 921 0084 02B0     		add	sp, sp, #8
 922              		@ sp needed
 923              	.LVL115:
 924              	.LVL116:
 925 0086 70BD     		pop	{r4, r5, r6, pc}
 926              	.L38:
 927              		.align	2
 928              	.L37:
 929 0088 00000000 		.word	rlist
 930 008c 00000000 		.word	wa
 931 0090 00000000 		.word	thread4
 932 0094 00000000 		.word	threads
 933 0098 00000000 		.word	test_timer_done
 934 009c A8000000 		.word	.LC26
 935 00a0 D0000000 		.word	.LC38
 936              		.cfi_endproc
 937              	.LFE14:
 938              		.size	bmk4_execute, .-bmk4_execute
 939 00a4 C046C046 		.section	.text.bmk5_execute,"ax",%progbits
 939      C046C046 
 939      C046C046 
 940              		.align	2
 941              		.p2align 4,,15
 942              		.code	16
 943              		.thumb_func
 944              		.type	bmk5_execute, %function
 945              	bmk5_execute:
 946              	.LFB15:
 947              		.loc 1 265 0
 948              		.cfi_startproc
 949              	.LVL117:
 950 0000 F0B5     		push	{r4, r5, r6, r7, lr}
 951              		.cfi_def_cfa_offset 20
 952              		.cfi_offset 4, -20
 953              		.cfi_offset 5, -16
 954              		.cfi_offset 6, -12
 955              		.cfi_offset 7, -8
 956              		.cfi_offset 14, -4
ARM GAS  /var/folders/qh/xwg3v3kj02qbxczjpdb8lzfr0000gn/T//ccUN5QO5.s 			page 18


 957              		.loc 1 268 0
 958 0002 194B     		ldr	r3, .L42
 959              		.loc 1 265 0
 960 0004 4F46     		mov	r7, r9
 961              		.loc 1 268 0
 962 0006 1A68     		ldr	r2, [r3]
 963              		.loc 1 265 0
 964 0008 4646     		mov	r6, r8
 965              		.loc 1 269 0
 966 000a 184B     		ldr	r3, .L42+4
 967              		.loc 1 265 0
 968 000c C0B4     		push	{r6, r7}
 969              		.cfi_def_cfa_offset 28
 970              		.cfi_offset 8, -28
 971              		.cfi_offset 9, -24
 972              		.loc 1 269 0
 973 000e 9B69     		ldr	r3, [r3, #24]
 974              		.loc 1 265 0
 975 0010 83B0     		sub	sp, sp, #12
 976              		.cfi_def_cfa_offset 40
 977              		.loc 1 269 0
 978 0012 9B68     		ldr	r3, [r3, #8]
 979              		.loc 1 268 0
 980 0014 9146     		mov	r9, r2
 981              	.LVL118:
 982              		.loc 1 269 0
 983 0016 013B     		sub	r3, r3, #1
 984 0018 9846     		mov	r8, r3
 985              	.LVL119:
 986              		.loc 1 270 0
 987 001a FFF7FEFF 		bl	test_wait_tick
 988              	.LVL120:
 989              		.loc 1 271 0
 990 001e FA20     		mov	r0, #250
 991 0020 8000     		lsl	r0, r0, #2
 992 0022 FFF7FEFF 		bl	test_start_timer
 993              	.LVL121:
 994 0026 124F     		ldr	r7, .L42+8
 995 0028 124E     		ldr	r6, .L42+12
 996              		.loc 1 267 0
 997 002a 0024     		mov	r4, #0
 998              		.loc 1 273 0
 999 002c 0025     		mov	r5, #0
 1000              	.LVL122:
 1001              	.L41:
 1002              		.loc 1 273 0 is_stmt 0 discriminator 1
 1003 002e 9821     		mov	r1, #152
 1004 0030 4900     		lsl	r1, r1, #1
 1005 0032 4246     		mov	r2, r8
 1006 0034 3B1C     		mov	r3, r7
 1007 0036 0095     		str	r5, [sp]
 1008 0038 4846     		mov	r0, r9
 1009 003a FFF7FEFF 		bl	chThdCreateStatic
 1010              	.LVL123:
 1011 003e FFF7FEFF 		bl	chThdWait
 1012              	.LVL124:
 1013              		.loc 1 278 0 is_stmt 1 discriminator 1
ARM GAS  /var/folders/qh/xwg3v3kj02qbxczjpdb8lzfr0000gn/T//ccUN5QO5.s 			page 19


 1014 0042 3178     		ldrb	r1, [r6]
 1015              		.loc 1 274 0 discriminator 1
 1016 0044 0134     		add	r4, r4, #1
 1017              	.LVL125:
 1018              		.loc 1 278 0 discriminator 1
 1019 0046 0029     		cmp	r1, #0
 1020 0048 F1D0     		beq	.L41
 1021              		.loc 1 279 0
 1022 004a 0B48     		ldr	r0, .L42+16
 1023 004c FFF7FEFF 		bl	test_print
 1024              	.LVL126:
 1025              		.loc 1 280 0
 1026 0050 201C     		mov	r0, r4
 1027 0052 FFF7FEFF 		bl	test_printn
 1028              	.LVL127:
 1029              		.loc 1 281 0
 1030 0056 0948     		ldr	r0, .L42+20
 1031 0058 FFF7FEFF 		bl	test_println
 1032              	.LVL128:
 1033              		.loc 1 282 0
 1034 005c 03B0     		add	sp, sp, #12
 1035              		@ sp needed
 1036              	.LVL129:
 1037              	.LVL130:
 1038              	.LVL131:
 1039 005e 0CBC     		pop	{r2, r3}
 1040 0060 9046     		mov	r8, r2
 1041 0062 9946     		mov	r9, r3
 1042 0064 F0BD     		pop	{r4, r5, r6, r7, pc}
 1043              	.L43:
 1044 0066 C046     		.align	2
 1045              	.L42:
 1046 0068 00000000 		.word	wa
 1047 006c 00000000 		.word	rlist
 1048 0070 00000000 		.word	thread2
 1049 0074 00000000 		.word	test_timer_done
 1050 0078 A8000000 		.word	.LC26
 1051 007c B8000000 		.word	.LC28
 1052              		.cfi_endproc
 1053              	.LFE15:
 1054              		.size	bmk5_execute, .-bmk5_execute
 1055              		.section	.text.bmk7_execute,"ax",%progbits
 1056              		.align	2
 1057              		.p2align 4,,15
 1058              		.code	16
 1059              		.thumb_func
 1060              		.type	bmk7_execute, %function
 1061              	bmk7_execute:
 1062              	.LFB19:
 1063              		.loc 1 354 0
 1064              		.cfi_startproc
 1065 0000 F0B5     		push	{r4, r5, r6, r7, lr}
 1066              		.cfi_def_cfa_offset 20
 1067              		.cfi_offset 4, -20
 1068              		.cfi_offset 5, -16
 1069              		.cfi_offset 6, -12
 1070              		.cfi_offset 7, -8
ARM GAS  /var/folders/qh/xwg3v3kj02qbxczjpdb8lzfr0000gn/T//ccUN5QO5.s 			page 20


 1071              		.cfi_offset 14, -4
 1072 0002 4746     		mov	r7, r8
 1073 0004 80B4     		push	{r7}
 1074              		.cfi_def_cfa_offset 24
 1075              		.cfi_offset 8, -24
 1076              		.loc 1 357 0
 1077 0006 3D4B     		ldr	r3, .L47
 1078 0008 3D4F     		ldr	r7, .L47+4
 1079 000a 9846     		mov	r8, r3
 1080 000c 1B68     		ldr	r3, [r3]
 1081              		.loc 1 354 0
 1082 000e 84B0     		sub	sp, sp, #16
 1083              		.cfi_def_cfa_offset 40
 1084              		.loc 1 357 0
 1085 0010 0393     		str	r3, [sp, #12]
 1086 0012 BB69     		ldr	r3, [r7, #24]
 1087 0014 3B4D     		ldr	r5, .L47+8
 1088 0016 9A68     		ldr	r2, [r3, #8]
 1089 0018 0026     		mov	r6, #0
 1090 001a 9821     		mov	r1, #152
 1091 001c 2B1C     		mov	r3, r5
 1092 001e 0532     		add	r2, r2, #5
 1093 0020 0096     		str	r6, [sp]
 1094 0022 4900     		lsl	r1, r1, #1
 1095 0024 0398     		ldr	r0, [sp, #12]
 1096 0026 FFF7FEFF 		bl	chThdCreateStatic
 1097              	.LVL132:
 1098              		.loc 1 358 0
 1099 002a 4346     		mov	r3, r8
 1100 002c 5B68     		ldr	r3, [r3, #4]
 1101              		.loc 1 357 0
 1102 002e 364C     		ldr	r4, .L47+12
 1103              		.loc 1 358 0
 1104 0030 0393     		str	r3, [sp, #12]
 1105 0032 BB69     		ldr	r3, [r7, #24]
 1106 0034 9821     		mov	r1, #152
 1107 0036 9A68     		ldr	r2, [r3, #8]
 1108              		.loc 1 357 0
 1109 0038 2060     		str	r0, [r4]
 1110              		.loc 1 358 0
 1111 003a 2B1C     		mov	r3, r5
 1112 003c 0432     		add	r2, r2, #4
 1113 003e 0096     		str	r6, [sp]
 1114 0040 4900     		lsl	r1, r1, #1
 1115 0042 0398     		ldr	r0, [sp, #12]
 1116 0044 FFF7FEFF 		bl	chThdCreateStatic
 1117              	.LVL133:
 1118              		.loc 1 359 0
 1119 0048 4346     		mov	r3, r8
 1120 004a 9B68     		ldr	r3, [r3, #8]
 1121 004c 9821     		mov	r1, #152
 1122 004e 0393     		str	r3, [sp, #12]
 1123 0050 BB69     		ldr	r3, [r7, #24]
 1124              		.loc 1 358 0
 1125 0052 6060     		str	r0, [r4, #4]
 1126              		.loc 1 359 0
 1127 0054 9A68     		ldr	r2, [r3, #8]
ARM GAS  /var/folders/qh/xwg3v3kj02qbxczjpdb8lzfr0000gn/T//ccUN5QO5.s 			page 21


 1128 0056 4900     		lsl	r1, r1, #1
 1129 0058 2B1C     		mov	r3, r5
 1130 005a 0332     		add	r2, r2, #3
 1131 005c 0096     		str	r6, [sp]
 1132 005e 0398     		ldr	r0, [sp, #12]
 1133 0060 FFF7FEFF 		bl	chThdCreateStatic
 1134              	.LVL134:
 1135              		.loc 1 360 0
 1136 0064 4346     		mov	r3, r8
 1137 0066 DB68     		ldr	r3, [r3, #12]
 1138 0068 9821     		mov	r1, #152
 1139 006a 0393     		str	r3, [sp, #12]
 1140 006c BB69     		ldr	r3, [r7, #24]
 1141              		.loc 1 359 0
 1142 006e A060     		str	r0, [r4, #8]
 1143              		.loc 1 360 0
 1144 0070 9A68     		ldr	r2, [r3, #8]
 1145 0072 4900     		lsl	r1, r1, #1
 1146 0074 2B1C     		mov	r3, r5
 1147 0076 0232     		add	r2, r2, #2
 1148 0078 0096     		str	r6, [sp]
 1149 007a 0398     		ldr	r0, [sp, #12]
 1150 007c FFF7FEFF 		bl	chThdCreateStatic
 1151              	.LVL135:
 1152              		.loc 1 361 0
 1153 0080 4346     		mov	r3, r8
 1154 0082 1B69     		ldr	r3, [r3, #16]
 1155 0084 9821     		mov	r1, #152
 1156 0086 0393     		str	r3, [sp, #12]
 1157 0088 BB69     		ldr	r3, [r7, #24]
 1158              		.loc 1 360 0
 1159 008a E060     		str	r0, [r4, #12]
 1160              		.loc 1 361 0
 1161 008c 9A68     		ldr	r2, [r3, #8]
 1162 008e 4900     		lsl	r1, r1, #1
 1163 0090 2B1C     		mov	r3, r5
 1164 0092 0132     		add	r2, r2, #1
 1165 0094 0096     		str	r6, [sp]
 1166 0096 0398     		ldr	r0, [sp, #12]
 1167 0098 FFF7FEFF 		bl	chThdCreateStatic
 1168              	.LVL136:
 1169 009c 2061     		str	r0, [r4, #16]
 1170              	.LVL137:
 1171              		.loc 1 364 0
 1172 009e FFF7FEFF 		bl	test_wait_tick
 1173              	.LVL138:
 1174              		.loc 1 365 0
 1175 00a2 FA20     		mov	r0, #250
 1176 00a4 8000     		lsl	r0, r0, #2
 1177 00a6 FFF7FEFF 		bl	test_start_timer
 1178              	.LVL139:
 1179 00aa 184D     		ldr	r5, .L47+16
 1180 00ac 184E     		ldr	r6, .L47+20
 1181              		.loc 1 363 0
 1182 00ae 0024     		mov	r4, #0
 1183              	.LVL140:
 1184              	.L46:
ARM GAS  /var/folders/qh/xwg3v3kj02qbxczjpdb8lzfr0000gn/T//ccUN5QO5.s 			page 22


 1185              		.loc 1 367 0 discriminator 1
 1186 00b0 281C     		mov	r0, r5
 1187 00b2 0021     		mov	r1, #0
 1188 00b4 FFF7FEFF 		bl	chSemReset
 1189              	.LVL141:
 1190              		.loc 1 372 0 discriminator 1
 1191 00b8 3378     		ldrb	r3, [r6]
 1192              		.loc 1 368 0 discriminator 1
 1193 00ba 0134     		add	r4, r4, #1
 1194              	.LVL142:
 1195              		.loc 1 372 0 discriminator 1
 1196 00bc 002B     		cmp	r3, #0
 1197 00be F7D0     		beq	.L46
 1198              		.loc 1 373 0
 1199 00c0 FFF7FEFF 		bl	test_terminate_threads
 1200              	.LVL143:
 1201              		.loc 1 374 0
 1202 00c4 0021     		mov	r1, #0
 1203 00c6 281C     		mov	r0, r5
 1204 00c8 FFF7FEFF 		bl	chSemReset
 1205              	.LVL144:
 1206              		.loc 1 375 0
 1207 00cc FFF7FEFF 		bl	test_wait_threads
 1208              	.LVL145:
 1209              		.loc 1 377 0
 1210 00d0 1048     		ldr	r0, .L47+24
 1211 00d2 FFF7FEFF 		bl	test_print
 1212              	.LVL146:
 1213              		.loc 1 378 0
 1214 00d6 201C     		mov	r0, r4
 1215 00d8 FFF7FEFF 		bl	test_printn
 1216              	.LVL147:
 1217              		.loc 1 379 0
 1218 00dc 0E48     		ldr	r0, .L47+28
 1219 00de FFF7FEFF 		bl	test_print
 1220              	.LVL148:
 1221              		.loc 1 380 0
 1222 00e2 6000     		lsl	r0, r4, #1
 1223 00e4 0419     		add	r4, r0, r4
 1224              	.LVL149:
 1225 00e6 6000     		lsl	r0, r4, #1
 1226 00e8 FFF7FEFF 		bl	test_printn
 1227              	.LVL150:
 1228              		.loc 1 381 0
 1229 00ec 0B48     		ldr	r0, .L47+32
 1230 00ee FFF7FEFF 		bl	test_println
 1231              	.LVL151:
 1232              		.loc 1 382 0
 1233 00f2 04B0     		add	sp, sp, #16
 1234              		@ sp needed
 1235 00f4 04BC     		pop	{r2}
 1236 00f6 9046     		mov	r8, r2
 1237 00f8 F0BD     		pop	{r4, r5, r6, r7, pc}
 1238              	.L48:
 1239 00fa C046     		.align	2
 1240              	.L47:
 1241 00fc 00000000 		.word	wa
ARM GAS  /var/folders/qh/xwg3v3kj02qbxczjpdb8lzfr0000gn/T//ccUN5QO5.s 			page 23


 1242 0100 00000000 		.word	rlist
 1243 0104 00000000 		.word	thread3
 1244 0108 00000000 		.word	threads
 1245 010c 00000000 		.word	.LANCHOR0
 1246 0110 00000000 		.word	test_timer_done
 1247 0114 A8000000 		.word	.LC26
 1248 0118 DC000000 		.word	.LC76
 1249 011c D0000000 		.word	.LC38
 1250              		.cfi_endproc
 1251              	.LFE19:
 1252              		.size	bmk7_execute, .-bmk7_execute
 1253              		.section	.text.thread3,"ax",%progbits
 1254              		.align	2
 1255              		.p2align 4,,15
 1256              		.code	16
 1257              		.thumb_func
 1258              		.type	thread3, %function
 1259              	thread3:
 1260              	.LFB17:
 1261              		.loc 1 341 0
 1262              		.cfi_startproc
 1263              	.LVL152:
 1264 0000 70B5     		push	{r4, r5, r6, lr}
 1265              		.cfi_def_cfa_offset 16
 1266              		.cfi_offset 4, -16
 1267              		.cfi_offset 5, -12
 1268              		.cfi_offset 6, -8
 1269              		.cfi_offset 14, -4
 1270              		.loc 1 344 0
 1271 0002 084C     		ldr	r4, .L54
 1272 0004 A269     		ldr	r2, [r4, #24]
 1273 0006 537F     		ldrb	r3, [r2, #29]
 1274 0008 5A07     		lsl	r2, r3, #29
 1275 000a 08D4     		bmi	.L53
 1276 000c 064E     		ldr	r6, .L54+4
 1277 000e 0425     		mov	r5, #4
 1278              	.LVL153:
 1279              	.L52:
 1280              		.loc 1 345 0
 1281 0010 301C     		mov	r0, r6
 1282 0012 FFF7FEFF 		bl	chSemWait
 1283              	.LVL154:
 1284              		.loc 1 344 0
 1285 0016 A269     		ldr	r2, [r4, #24]
 1286 0018 537F     		ldrb	r3, [r2, #29]
 1287 001a 1D42     		tst	r5, r3
 1288 001c F8D0     		beq	.L52
 1289              	.L53:
 1290              		.loc 1 347 0
 1291 001e 0020     		mov	r0, #0
 1292              		@ sp needed
 1293 0020 70BD     		pop	{r4, r5, r6, pc}
 1294              	.L55:
 1295 0022 C046     		.align	2
 1296              	.L54:
 1297 0024 00000000 		.word	rlist
 1298 0028 00000000 		.word	.LANCHOR0
ARM GAS  /var/folders/qh/xwg3v3kj02qbxczjpdb8lzfr0000gn/T//ccUN5QO5.s 			page 24


 1299              		.cfi_endproc
 1300              	.LFE17:
 1301              		.size	thread3, .-thread3
 1302 002c C046C046 		.section	.text.bmk7_setup,"ax",%progbits
 1303              		.align	2
 1304              		.p2align 4,,15
 1305              		.code	16
 1306              		.thumb_func
 1307              		.type	bmk7_setup, %function
 1308              	bmk7_setup:
 1309              	.LFB18:
 1310              		.loc 1 349 0
 1311              		.cfi_startproc
 1312 0000 08B5     		push	{r3, lr}
 1313              		.cfi_def_cfa_offset 8
 1314              		.cfi_offset 3, -8
 1315              		.cfi_offset 14, -4
 1316              		.loc 1 351 0
 1317 0002 0248     		ldr	r0, .L57
 1318 0004 0021     		mov	r1, #0
 1319 0006 FFF7FEFF 		bl	chSemInit
 1320              	.LVL155:
 1321              		.loc 1 352 0
 1322              		@ sp needed
 1323 000a 08BD     		pop	{r3, pc}
 1324              	.L58:
 1325              		.align	2
 1326              	.L57:
 1327 000c 00000000 		.word	.LANCHOR0
 1328              		.cfi_endproc
 1329              	.LFE18:
 1330              		.size	bmk7_setup, .-bmk7_setup
 1331              		.section	.text.bmk11_setup,"ax",%progbits
 1332              		.align	2
 1333              		.p2align 4,,15
 1334              		.code	16
 1335              		.thumb_func
 1336              		.type	bmk11_setup, %function
 1337              	bmk11_setup:
 1338              	.LFB25:
 1339              		.loc 1 545 0
 1340              		.cfi_startproc
 1341 0000 08B5     		push	{r3, lr}
 1342              		.cfi_def_cfa_offset 8
 1343              		.cfi_offset 3, -8
 1344              		.cfi_offset 14, -4
 1345              		.loc 1 547 0
 1346 0002 0248     		ldr	r0, .L60
 1347 0004 0121     		mov	r1, #1
 1348 0006 FFF7FEFF 		bl	chSemInit
 1349              	.LVL156:
 1350              		.loc 1 548 0
 1351              		@ sp needed
 1352 000a 08BD     		pop	{r3, pc}
 1353              	.L61:
 1354              		.align	2
 1355              	.L60:
ARM GAS  /var/folders/qh/xwg3v3kj02qbxczjpdb8lzfr0000gn/T//ccUN5QO5.s 			page 25


 1356 000c 00000000 		.word	.LANCHOR0
 1357              		.cfi_endproc
 1358              	.LFE25:
 1359              		.size	bmk11_setup, .-bmk11_setup
 1360              		.section	.text.bmk8_execute,"ax",%progbits
 1361              		.align	2
 1362              		.p2align 4,,15
 1363              		.code	16
 1364              		.thumb_func
 1365              		.type	bmk8_execute, %function
 1366              	bmk8_execute:
 1367              	.LFB21:
 1368              		.loc 1 416 0
 1369              		.cfi_startproc
 1370 0000 F0B5     		push	{r4, r5, r6, r7, lr}
 1371              		.cfi_def_cfa_offset 20
 1372              		.cfi_offset 4, -20
 1373              		.cfi_offset 5, -16
 1374              		.cfi_offset 6, -12
 1375              		.cfi_offset 7, -8
 1376              		.cfi_offset 14, -4
 1377 0002 4F46     		mov	r7, r9
 1378 0004 4646     		mov	r6, r8
 1379 0006 C0B4     		push	{r6, r7}
 1380              		.cfi_def_cfa_offset 28
 1381              		.cfi_offset 8, -28
 1382              		.cfi_offset 9, -24
 1383              		.loc 1 419 0
 1384 0008 0023     		mov	r3, #0
 1385              		.loc 1 416 0
 1386 000a 85B0     		sub	sp, sp, #20
 1387              		.cfi_def_cfa_offset 48
 1388              		.loc 1 419 0
 1389 000c 0393     		str	r3, [sp, #12]
 1390              		.loc 1 420 0
 1391 000e FFF7FEFF 		bl	test_wait_tick
 1392              	.LVL157:
 1393              		.loc 1 422 0
 1394 0012 2D4B     		ldr	r3, .L63
 1395 0014 2D4A     		ldr	r2, .L63+4
 1396 0016 9846     		mov	r8, r3
 1397 0018 9B69     		ldr	r3, [r3, #24]
 1398 001a 9146     		mov	r9, r2
 1399 001c 2C4E     		ldr	r6, .L63+8
 1400 001e 9A68     		ldr	r2, [r3, #8]
 1401 0020 9827     		mov	r7, #152
 1402 0022 7F00     		lsl	r7, r7, #1
 1403 0024 03AC     		add	r4, sp, #12
 1404 0026 4B46     		mov	r3, r9
 1405 0028 391C     		mov	r1, r7
 1406 002a 013A     		sub	r2, r2, #1
 1407 002c 0094     		str	r4, [sp]
 1408 002e 1868     		ldr	r0, [r3]
 1409 0030 331C     		mov	r3, r6
 1410 0032 FFF7FEFF 		bl	chThdCreateStatic
 1411              	.LVL158:
 1412              		.loc 1 423 0
ARM GAS  /var/folders/qh/xwg3v3kj02qbxczjpdb8lzfr0000gn/T//ccUN5QO5.s 			page 26


 1413 0036 4246     		mov	r2, r8
 1414 0038 9369     		ldr	r3, [r2, #24]
 1415              		.loc 1 422 0
 1416 003a 264D     		ldr	r5, .L63+12
 1417              		.loc 1 423 0
 1418 003c 9A68     		ldr	r2, [r3, #8]
 1419 003e 4B46     		mov	r3, r9
 1420              		.loc 1 422 0
 1421 0040 2860     		str	r0, [r5]
 1422              		.loc 1 423 0
 1423 0042 391C     		mov	r1, r7
 1424 0044 013A     		sub	r2, r2, #1
 1425 0046 0094     		str	r4, [sp]
 1426 0048 5868     		ldr	r0, [r3, #4]
 1427 004a 331C     		mov	r3, r6
 1428 004c FFF7FEFF 		bl	chThdCreateStatic
 1429              	.LVL159:
 1430              		.loc 1 424 0
 1431 0050 4246     		mov	r2, r8
 1432 0052 9369     		ldr	r3, [r2, #24]
 1433              		.loc 1 423 0
 1434 0054 6860     		str	r0, [r5, #4]
 1435              		.loc 1 424 0
 1436 0056 9A68     		ldr	r2, [r3, #8]
 1437 0058 4B46     		mov	r3, r9
 1438 005a 391C     		mov	r1, r7
 1439 005c 013A     		sub	r2, r2, #1
 1440 005e 0094     		str	r4, [sp]
 1441 0060 9868     		ldr	r0, [r3, #8]
 1442 0062 331C     		mov	r3, r6
 1443 0064 FFF7FEFF 		bl	chThdCreateStatic
 1444              	.LVL160:
 1445              		.loc 1 425 0
 1446 0068 4246     		mov	r2, r8
 1447 006a 9369     		ldr	r3, [r2, #24]
 1448              		.loc 1 424 0
 1449 006c A860     		str	r0, [r5, #8]
 1450              		.loc 1 425 0
 1451 006e 9A68     		ldr	r2, [r3, #8]
 1452 0070 4B46     		mov	r3, r9
 1453 0072 391C     		mov	r1, r7
 1454 0074 013A     		sub	r2, r2, #1
 1455 0076 0094     		str	r4, [sp]
 1456 0078 D868     		ldr	r0, [r3, #12]
 1457 007a 331C     		mov	r3, r6
 1458 007c FFF7FEFF 		bl	chThdCreateStatic
 1459              	.LVL161:
 1460              		.loc 1 426 0
 1461 0080 4A46     		mov	r2, r9
 1462              		.loc 1 425 0
 1463 0082 E860     		str	r0, [r5, #12]
 1464              		.loc 1 426 0
 1465 0084 1069     		ldr	r0, [r2, #16]
 1466 0086 4246     		mov	r2, r8
 1467 0088 9369     		ldr	r3, [r2, #24]
 1468 008a 391C     		mov	r1, r7
 1469 008c 9A68     		ldr	r2, [r3, #8]
ARM GAS  /var/folders/qh/xwg3v3kj02qbxczjpdb8lzfr0000gn/T//ccUN5QO5.s 			page 27


 1470 008e 331C     		mov	r3, r6
 1471 0090 013A     		sub	r2, r2, #1
 1472 0092 0094     		str	r4, [sp]
 1473 0094 FFF7FEFF 		bl	chThdCreateStatic
 1474              	.LVL162:
 1475 0098 2861     		str	r0, [r5, #16]
 1476              		.loc 1 428 0
 1477 009a FA20     		mov	r0, #250
 1478 009c 8000     		lsl	r0, r0, #2
 1479 009e FFF7FEFF 		bl	chThdSleep
 1480              	.LVL163:
 1481              		.loc 1 429 0
 1482 00a2 FFF7FEFF 		bl	test_terminate_threads
 1483              	.LVL164:
 1484              		.loc 1 430 0
 1485 00a6 FFF7FEFF 		bl	test_wait_threads
 1486              	.LVL165:
 1487              		.loc 1 432 0
 1488 00aa 0B48     		ldr	r0, .L63+16
 1489 00ac FFF7FEFF 		bl	test_print
 1490              	.LVL166:
 1491              		.loc 1 433 0
 1492 00b0 0398     		ldr	r0, [sp, #12]
 1493 00b2 FFF7FEFF 		bl	test_printn
 1494              	.LVL167:
 1495              		.loc 1 434 0
 1496 00b6 0948     		ldr	r0, .L63+20
 1497 00b8 FFF7FEFF 		bl	test_println
 1498              	.LVL168:
 1499              		.loc 1 435 0
 1500 00bc 05B0     		add	sp, sp, #20
 1501              		@ sp needed
 1502 00be 0CBC     		pop	{r2, r3}
 1503 00c0 9046     		mov	r8, r2
 1504 00c2 9946     		mov	r9, r3
 1505 00c4 F0BD     		pop	{r4, r5, r6, r7, pc}
 1506              	.L64:
 1507 00c6 C046     		.align	2
 1508              	.L63:
 1509 00c8 00000000 		.word	rlist
 1510 00cc 00000000 		.word	wa
 1511 00d0 00000000 		.word	thread8
 1512 00d4 00000000 		.word	threads
 1513 00d8 A8000000 		.word	.LC26
 1514 00dc D0000000 		.word	.LC38
 1515              		.cfi_endproc
 1516              	.LFE21:
 1517              		.size	bmk8_execute, .-bmk8_execute
 1518              		.section	.text.thread8,"ax",%progbits
 1519              		.align	2
 1520              		.p2align 4,,15
 1521              		.code	16
 1522              		.thumb_func
 1523              		.type	thread8, %function
 1524              	thread8:
 1525              	.LFB20:
 1526              		.loc 1 401 0
ARM GAS  /var/folders/qh/xwg3v3kj02qbxczjpdb8lzfr0000gn/T//ccUN5QO5.s 			page 28


 1527              		.cfi_startproc
 1528              	.LVL169:
 1529 0000 70B5     		push	{r4, r5, r6, lr}
 1530              		.cfi_def_cfa_offset 16
 1531              		.cfi_offset 4, -16
 1532              		.cfi_offset 5, -12
 1533              		.cfi_offset 6, -8
 1534              		.cfi_offset 14, -4
 1535 0002 0A4E     		ldr	r6, .L68
 1536              		.loc 1 401 0
 1537 0004 041C     		mov	r4, r0
 1538              		.loc 1 412 0
 1539 0006 0425     		mov	r5, #4
 1540              	.LVL170:
 1541              	.L67:
 1542              		.loc 1 404 0 discriminator 1
 1543 0008 FFF7FEFF 		bl	chThdYield
 1544              	.LVL171:
 1545              		.loc 1 405 0 discriminator 1
 1546 000c FFF7FEFF 		bl	chThdYield
 1547              	.LVL172:
 1548              		.loc 1 406 0 discriminator 1
 1549 0010 FFF7FEFF 		bl	chThdYield
 1550              	.LVL173:
 1551              		.loc 1 407 0 discriminator 1
 1552 0014 FFF7FEFF 		bl	chThdYield
 1553              	.LVL174:
 1554              		.loc 1 408 0 discriminator 1
 1555 0018 2368     		ldr	r3, [r4]
 1556              		.loc 1 412 0 discriminator 1
 1557 001a B269     		ldr	r2, [r6, #24]
 1558              		.loc 1 408 0 discriminator 1
 1559 001c 0433     		add	r3, r3, #4
 1560 001e 2360     		str	r3, [r4]
 1561              		.loc 1 412 0 discriminator 1
 1562 0020 537F     		ldrb	r3, [r2, #29]
 1563 0022 1D42     		tst	r5, r3
 1564 0024 F0D0     		beq	.L67
 1565              		.loc 1 414 0
 1566 0026 0020     		mov	r0, #0
 1567              		@ sp needed
 1568              	.LVL175:
 1569 0028 70BD     		pop	{r4, r5, r6, pc}
 1570              	.L69:
 1571 002a C046     		.align	2
 1572              	.L68:
 1573 002c 00000000 		.word	rlist
 1574              		.cfi_endproc
 1575              	.LFE20:
 1576              		.size	thread8, .-thread8
 1577              		.section	.text.bmk9_execute,"ax",%progbits
 1578              		.align	2
 1579              		.p2align 4,,15
 1580              		.code	16
 1581              		.thumb_func
 1582              		.type	bmk9_execute, %function
 1583              	bmk9_execute:
ARM GAS  /var/folders/qh/xwg3v3kj02qbxczjpdb8lzfr0000gn/T//ccUN5QO5.s 			page 29


 1584              	.LFB22:
 1585              		.loc 1 455 0
 1586              		.cfi_startproc
 1587 0000 F0B5     		push	{r4, r5, r6, r7, lr}
 1588              		.cfi_def_cfa_offset 20
 1589              		.cfi_offset 4, -20
 1590              		.cfi_offset 5, -16
 1591              		.cfi_offset 6, -12
 1592              		.cfi_offset 7, -8
 1593              		.cfi_offset 14, -4
 1594              		.loc 1 460 0
 1595 0002 244C     		ldr	r4, .L73
 1596              		.loc 1 455 0
 1597 0004 83B0     		sub	sp, sp, #12
 1598              		.cfi_def_cfa_offset 32
 1599              		.loc 1 460 0
 1600 0006 0023     		mov	r3, #0
 1601 0008 0093     		str	r3, [sp]
 1602 000a 2349     		ldr	r1, .L73+4
 1603 000c 1022     		mov	r2, #16
 1604 000e 201C     		mov	r0, r4
 1605 0010 FFF7FEFF 		bl	chIQInit
 1606              	.LVL176:
 1607              		.loc 1 462 0
 1608 0014 FFF7FEFF 		bl	test_wait_tick
 1609              	.LVL177:
 1610              		.loc 1 463 0
 1611 0018 FA20     		mov	r0, #250
 1612 001a 8000     		lsl	r0, r0, #2
 1613 001c FFF7FEFF 		bl	test_start_timer
 1614              	.LVL178:
 1615 0020 1E4F     		ldr	r7, .L73+8
 1616              		.loc 1 461 0
 1617 0022 0026     		mov	r6, #0
 1618              		.loc 1 471 0
 1619 0024 251C     		mov	r5, r4
 1620              	.LVL179:
 1621              	.L72:
 1622              		.loc 1 465 0 discriminator 1
 1623              	@ 465 "../../test/testbmk.c" 1
 1624 0026 72B6     		cpsid   i
 1625              	@ 0 "" 2
 1626              		.loc 1 466 0 discriminator 1
 1627              		.code	16
 1628 0028 0021     		mov	r1, #0
 1629 002a 201C     		mov	r0, r4
 1630 002c FFF7FEFF 		bl	chIQPutI
 1631              	.LVL180:
 1632              		.loc 1 467 0 discriminator 1
 1633 0030 201C     		mov	r0, r4
 1634 0032 0121     		mov	r1, #1
 1635 0034 FFF7FEFF 		bl	chIQPutI
 1636              	.LVL181:
 1637              		.loc 1 468 0 discriminator 1
 1638 0038 201C     		mov	r0, r4
 1639 003a 0221     		mov	r1, #2
 1640 003c FFF7FEFF 		bl	chIQPutI
ARM GAS  /var/folders/qh/xwg3v3kj02qbxczjpdb8lzfr0000gn/T//ccUN5QO5.s 			page 30


 1641              	.LVL182:
 1642              		.loc 1 469 0 discriminator 1
 1643 0040 201C     		mov	r0, r4
 1644 0042 0321     		mov	r1, #3
 1645 0044 FFF7FEFF 		bl	chIQPutI
 1646              	.LVL183:
 1647              		.loc 1 470 0 discriminator 1
 1648              	@ 470 "../../test/testbmk.c" 1
 1649 0048 62B6     		cpsie   i
 1650              	@ 0 "" 2
 1651              		.loc 1 471 0 discriminator 1
 1652              		.code	16
 1653 004a 0121     		mov	r1, #1
 1654 004c 4942     		neg	r1, r1
 1655 004e 281C     		mov	r0, r5
 1656 0050 FFF7FEFF 		bl	chIQGetTimeout
 1657              	.LVL184:
 1658              		.loc 1 472 0 discriminator 1
 1659 0054 0121     		mov	r1, #1
 1660 0056 4942     		neg	r1, r1
 1661 0058 281C     		mov	r0, r5
 1662 005a FFF7FEFF 		bl	chIQGetTimeout
 1663              	.LVL185:
 1664              		.loc 1 473 0 discriminator 1
 1665 005e 0121     		mov	r1, #1
 1666 0060 4942     		neg	r1, r1
 1667 0062 281C     		mov	r0, r5
 1668 0064 FFF7FEFF 		bl	chIQGetTimeout
 1669              	.LVL186:
 1670              		.loc 1 474 0 discriminator 1
 1671 0068 0121     		mov	r1, #1
 1672 006a 281C     		mov	r0, r5
 1673 006c 4942     		neg	r1, r1
 1674 006e FFF7FEFF 		bl	chIQGetTimeout
 1675              	.LVL187:
 1676              		.loc 1 479 0 discriminator 1
 1677 0072 3B78     		ldrb	r3, [r7]
 1678              		.loc 1 471 0 discriminator 1
 1679 0074 2C1C     		mov	r4, r5
 1680              		.loc 1 475 0 discriminator 1
 1681 0076 0136     		add	r6, r6, #1
 1682              	.LVL188:
 1683              		.loc 1 479 0 discriminator 1
 1684 0078 002B     		cmp	r3, #0
 1685 007a D4D0     		beq	.L72
 1686              		.loc 1 480 0
 1687 007c 0848     		ldr	r0, .L73+12
 1688 007e FFF7FEFF 		bl	test_print
 1689              	.LVL189:
 1690              		.loc 1 481 0
 1691 0082 B000     		lsl	r0, r6, #2
 1692 0084 FFF7FEFF 		bl	test_printn
 1693              	.LVL190:
 1694              		.loc 1 482 0
 1695 0088 0648     		ldr	r0, .L73+16
 1696 008a FFF7FEFF 		bl	test_println
 1697              	.LVL191:
ARM GAS  /var/folders/qh/xwg3v3kj02qbxczjpdb8lzfr0000gn/T//ccUN5QO5.s 			page 31


 1698              		.loc 1 483 0
 1699 008e 03B0     		add	sp, sp, #12
 1700              		@ sp needed
 1701              	.LVL192:
 1702 0090 F0BD     		pop	{r4, r5, r6, r7, pc}
 1703              	.L74:
 1704 0092 C046     		.align	2
 1705              	.L73:
 1706 0094 00000000 		.word	.LANCHOR1
 1707 0098 00000000 		.word	.LANCHOR2
 1708 009c 00000000 		.word	test_timer_done
 1709 00a0 A8000000 		.word	.LC26
 1710 00a4 F0000000 		.word	.LC94
 1711              		.cfi_endproc
 1712              	.LFE22:
 1713              		.size	bmk9_execute, .-bmk9_execute
 1714 00a8 C046C046 		.section	.text.bmk10_execute,"ax",%progbits
 1714      C046C046 
 1715              		.align	2
 1716              		.p2align 4,,15
 1717              		.code	16
 1718              		.thumb_func
 1719              		.type	bmk10_execute, %function
 1720              	bmk10_execute:
 1721              	.LFB24:
 1722              		.loc 1 504 0
 1723              		.cfi_startproc
 1724              	.LVL193:
 1725 0000 F0B5     		push	{r4, r5, r6, r7, lr}
 1726              		.cfi_def_cfa_offset 20
 1727              		.cfi_offset 4, -20
 1728              		.cfi_offset 5, -16
 1729              		.cfi_offset 6, -12
 1730              		.cfi_offset 7, -8
 1731              		.cfi_offset 14, -4
 1732 0002 4746     		mov	r7, r8
 1733 0004 80B4     		push	{r7}
 1734              		.cfi_def_cfa_offset 24
 1735              		.cfi_offset 8, -24
 1736              		.loc 1 508 0
 1737 0006 FFF7FEFF 		bl	test_wait_tick
 1738              	.LVL194:
 1739              		.loc 1 509 0
 1740 000a FA20     		mov	r0, #250
 1741 000c 8000     		lsl	r0, r0, #2
 1742 000e FFF7FEFF 		bl	test_start_timer
 1743              	.LVL195:
 1744 0012 154A     		ldr	r2, .L78
 1745 0014 154F     		ldr	r7, .L78+4
 1746 0016 164E     		ldr	r6, .L78+8
 1747 0018 164D     		ldr	r5, .L78+12
 1748              		.loc 1 506 0
 1749 001a 0024     		mov	r4, #0
 1750 001c 9046     		mov	r8, r2
 1751              	.LVL196:
 1752              	.L77:
 1753              		.loc 1 511 0 discriminator 1
ARM GAS  /var/folders/qh/xwg3v3kj02qbxczjpdb8lzfr0000gn/T//ccUN5QO5.s 			page 32


 1754              	@ 511 "../../test/testbmk.c" 1
 1755 001e 72B6     		cpsid   i
 1756              	@ 0 "" 2
 1757              		.loc 1 512 0 discriminator 1
 1758              		.code	16
 1759 0020 0121     		mov	r1, #1
 1760 0022 381C     		mov	r0, r7
 1761 0024 321C     		mov	r2, r6
 1762 0026 0023     		mov	r3, #0
 1763 0028 FFF7FEFF 		bl	chVTSetI
 1764              	.LVL197:
 1765              		.loc 1 513 0 discriminator 1
 1766 002c 1249     		ldr	r1, .L78+16
 1767 002e 321C     		mov	r2, r6
 1768 0030 0023     		mov	r3, #0
 1769 0032 281C     		mov	r0, r5
 1770 0034 FFF7FEFF 		bl	chVTSetI
 1771              	.LVL198:
 1772              		.loc 1 514 0 discriminator 1
 1773 0038 381C     		mov	r0, r7
 1774 003a FFF7FEFF 		bl	chVTResetI
 1775              	.LVL199:
 1776              		.loc 1 515 0 discriminator 1
 1777 003e 281C     		mov	r0, r5
 1778 0040 FFF7FEFF 		bl	chVTResetI
 1779              	.LVL200:
 1780              		.loc 1 516 0 discriminator 1
 1781              	@ 516 "../../test/testbmk.c" 1
 1782 0044 62B6     		cpsie   i
 1783              	@ 0 "" 2
 1784              		.loc 1 521 0 discriminator 1
 1785              		.code	16
 1786 0046 4246     		mov	r2, r8
 1787 0048 1378     		ldrb	r3, [r2]
 1788              		.loc 1 517 0 discriminator 1
 1789 004a 0134     		add	r4, r4, #1
 1790              	.LVL201:
 1791              		.loc 1 521 0 discriminator 1
 1792 004c 002B     		cmp	r3, #0
 1793 004e E6D0     		beq	.L77
 1794              		.loc 1 522 0
 1795 0050 0A48     		ldr	r0, .L78+20
 1796 0052 FFF7FEFF 		bl	test_print
 1797              	.LVL202:
 1798              		.loc 1 523 0
 1799 0056 6000     		lsl	r0, r4, #1
 1800 0058 FFF7FEFF 		bl	test_printn
 1801              	.LVL203:
 1802              		.loc 1 524 0
 1803 005c 0848     		ldr	r0, .L78+24
 1804 005e FFF7FEFF 		bl	test_println
 1805              	.LVL204:
 1806              		.loc 1 525 0
 1807              		@ sp needed
 1808              	.LVL205:
 1809 0062 04BC     		pop	{r2}
 1810 0064 9046     		mov	r8, r2
ARM GAS  /var/folders/qh/xwg3v3kj02qbxczjpdb8lzfr0000gn/T//ccUN5QO5.s 			page 33


 1811 0066 F0BD     		pop	{r4, r5, r6, r7, pc}
 1812              	.L79:
 1813              		.align	2
 1814              	.L78:
 1815 0068 00000000 		.word	test_timer_done
 1816 006c 00000000 		.word	.LANCHOR3
 1817 0070 00000000 		.word	tmo
 1818 0074 00000000 		.word	.LANCHOR4
 1819 0078 10270000 		.word	10000
 1820 007c A8000000 		.word	.LC26
 1821 0080 FC000000 		.word	.LC101
 1822              		.cfi_endproc
 1823              	.LFE24:
 1824              		.size	bmk10_execute, .-bmk10_execute
 1825 0084 C046C046 		.section	.text.bmk11_execute,"ax",%progbits
 1825      C046C046 
 1825      C046C046 
 1826              		.align	2
 1827              		.p2align 4,,15
 1828              		.code	16
 1829              		.thumb_func
 1830              		.type	bmk11_execute, %function
 1831              	bmk11_execute:
 1832              	.LFB26:
 1833              		.loc 1 550 0
 1834              		.cfi_startproc
 1835              	.LVL206:
 1836 0000 70B5     		push	{r4, r5, r6, lr}
 1837              		.cfi_def_cfa_offset 16
 1838              		.cfi_offset 4, -16
 1839              		.cfi_offset 5, -12
 1840              		.cfi_offset 6, -8
 1841              		.cfi_offset 14, -4
 1842              		.loc 1 553 0
 1843 0002 FFF7FEFF 		bl	test_wait_tick
 1844              	.LVL207:
 1845              		.loc 1 554 0
 1846 0006 FA20     		mov	r0, #250
 1847 0008 8000     		lsl	r0, r0, #2
 1848 000a FFF7FEFF 		bl	test_start_timer
 1849              	.LVL208:
 1850 000e 144C     		ldr	r4, .L83
 1851 0010 144E     		ldr	r6, .L83+4
 1852              		.loc 1 551 0
 1853 0012 0025     		mov	r5, #0
 1854              	.LVL209:
 1855              	.L82:
 1856              		.loc 1 556 0 discriminator 1
 1857 0014 201C     		mov	r0, r4
 1858 0016 FFF7FEFF 		bl	chSemWait
 1859              	.LVL210:
 1860              		.loc 1 557 0 discriminator 1
 1861 001a 201C     		mov	r0, r4
 1862 001c FFF7FEFF 		bl	chSemSignal
 1863              	.LVL211:
 1864              		.loc 1 558 0 discriminator 1
 1865 0020 201C     		mov	r0, r4
ARM GAS  /var/folders/qh/xwg3v3kj02qbxczjpdb8lzfr0000gn/T//ccUN5QO5.s 			page 34


 1866 0022 FFF7FEFF 		bl	chSemWait
 1867              	.LVL212:
 1868              		.loc 1 559 0 discriminator 1
 1869 0026 201C     		mov	r0, r4
 1870 0028 FFF7FEFF 		bl	chSemSignal
 1871              	.LVL213:
 1872              		.loc 1 560 0 discriminator 1
 1873 002c 201C     		mov	r0, r4
 1874 002e FFF7FEFF 		bl	chSemWait
 1875              	.LVL214:
 1876              		.loc 1 561 0 discriminator 1
 1877 0032 201C     		mov	r0, r4
 1878 0034 FFF7FEFF 		bl	chSemSignal
 1879              	.LVL215:
 1880              		.loc 1 562 0 discriminator 1
 1881 0038 201C     		mov	r0, r4
 1882 003a FFF7FEFF 		bl	chSemWait
 1883              	.LVL216:
 1884              		.loc 1 563 0 discriminator 1
 1885 003e 201C     		mov	r0, r4
 1886 0040 FFF7FEFF 		bl	chSemSignal
 1887              	.LVL217:
 1888              		.loc 1 568 0 discriminator 1
 1889 0044 3378     		ldrb	r3, [r6]
 1890              		.loc 1 564 0 discriminator 1
 1891 0046 0135     		add	r5, r5, #1
 1892              	.LVL218:
 1893              		.loc 1 568 0 discriminator 1
 1894 0048 002B     		cmp	r3, #0
 1895 004a E3D0     		beq	.L82
 1896              		.loc 1 569 0
 1897 004c 0648     		ldr	r0, .L83+8
 1898 004e FFF7FEFF 		bl	test_print
 1899              	.LVL219:
 1900              		.loc 1 570 0
 1901 0052 A800     		lsl	r0, r5, #2
 1902 0054 FFF7FEFF 		bl	test_printn
 1903              	.LVL220:
 1904              		.loc 1 571 0
 1905 0058 0448     		ldr	r0, .L83+12
 1906 005a FFF7FEFF 		bl	test_println
 1907              	.LVL221:
 1908              		.loc 1 572 0
 1909              		@ sp needed
 1910              	.LVL222:
 1911 005e 70BD     		pop	{r4, r5, r6, pc}
 1912              	.L84:
 1913              		.align	2
 1914              	.L83:
 1915 0060 00000000 		.word	.LANCHOR0
 1916 0064 00000000 		.word	test_timer_done
 1917 0068 A8000000 		.word	.LC26
 1918 006c 08010000 		.word	.LC106
 1919              		.cfi_endproc
 1920              	.LFE26:
 1921              		.size	bmk11_execute, .-bmk11_execute
 1922              		.section	.text.bmk12_execute,"ax",%progbits
ARM GAS  /var/folders/qh/xwg3v3kj02qbxczjpdb8lzfr0000gn/T//ccUN5QO5.s 			page 35


 1923              		.align	2
 1924              		.p2align 4,,15
 1925              		.code	16
 1926              		.thumb_func
 1927              		.type	bmk12_execute, %function
 1928              	bmk12_execute:
 1929              	.LFB28:
 1930              		.loc 1 598 0
 1931              		.cfi_startproc
 1932              	.LVL223:
 1933 0000 70B5     		push	{r4, r5, r6, lr}
 1934              		.cfi_def_cfa_offset 16
 1935              		.cfi_offset 4, -16
 1936              		.cfi_offset 5, -12
 1937              		.cfi_offset 6, -8
 1938              		.cfi_offset 14, -4
 1939              		.loc 1 601 0
 1940 0002 FFF7FEFF 		bl	test_wait_tick
 1941              	.LVL224:
 1942              		.loc 1 602 0
 1943 0006 FA20     		mov	r0, #250
 1944 0008 8000     		lsl	r0, r0, #2
 1945 000a FFF7FEFF 		bl	test_start_timer
 1946              	.LVL225:
 1947 000e 124C     		ldr	r4, .L88
 1948 0010 124E     		ldr	r6, .L88+4
 1949              		.loc 1 599 0
 1950 0012 0025     		mov	r5, #0
 1951              	.LVL226:
 1952              	.L87:
 1953              		.loc 1 604 0 discriminator 1
 1954 0014 201C     		mov	r0, r4
 1955 0016 FFF7FEFF 		bl	chMtxLock
 1956              	.LVL227:
 1957              		.loc 1 605 0 discriminator 1
 1958 001a FFF7FEFF 		bl	chMtxUnlock
 1959              	.LVL228:
 1960              		.loc 1 606 0 discriminator 1
 1961 001e 201C     		mov	r0, r4
 1962 0020 FFF7FEFF 		bl	chMtxLock
 1963              	.LVL229:
 1964              		.loc 1 607 0 discriminator 1
 1965 0024 FFF7FEFF 		bl	chMtxUnlock
 1966              	.LVL230:
 1967              		.loc 1 608 0 discriminator 1
 1968 0028 201C     		mov	r0, r4
 1969 002a FFF7FEFF 		bl	chMtxLock
 1970              	.LVL231:
 1971              		.loc 1 609 0 discriminator 1
 1972 002e FFF7FEFF 		bl	chMtxUnlock
 1973              	.LVL232:
 1974              		.loc 1 610 0 discriminator 1
 1975 0032 201C     		mov	r0, r4
 1976 0034 FFF7FEFF 		bl	chMtxLock
 1977              	.LVL233:
 1978              		.loc 1 611 0 discriminator 1
 1979 0038 FFF7FEFF 		bl	chMtxUnlock
ARM GAS  /var/folders/qh/xwg3v3kj02qbxczjpdb8lzfr0000gn/T//ccUN5QO5.s 			page 36


 1980              	.LVL234:
 1981              		.loc 1 616 0 discriminator 1
 1982 003c 3378     		ldrb	r3, [r6]
 1983              		.loc 1 612 0 discriminator 1
 1984 003e 0135     		add	r5, r5, #1
 1985              	.LVL235:
 1986              		.loc 1 616 0 discriminator 1
 1987 0040 002B     		cmp	r3, #0
 1988 0042 E7D0     		beq	.L87
 1989              		.loc 1 617 0
 1990 0044 0648     		ldr	r0, .L88+8
 1991 0046 FFF7FEFF 		bl	test_print
 1992              	.LVL236:
 1993              		.loc 1 618 0
 1994 004a A800     		lsl	r0, r5, #2
 1995 004c FFF7FEFF 		bl	test_printn
 1996              	.LVL237:
 1997              		.loc 1 619 0
 1998 0050 0448     		ldr	r0, .L88+12
 1999 0052 FFF7FEFF 		bl	test_println
 2000              	.LVL238:
 2001              		.loc 1 620 0
 2002              		@ sp needed
 2003              	.LVL239:
 2004 0056 70BD     		pop	{r4, r5, r6, pc}
 2005              	.L89:
 2006              		.align	2
 2007              	.L88:
 2008 0058 00000000 		.word	.LANCHOR5
 2009 005c 00000000 		.word	test_timer_done
 2010 0060 A8000000 		.word	.LC26
 2011 0064 18010000 		.word	.LC111
 2012              		.cfi_endproc
 2013              	.LFE28:
 2014              		.size	bmk12_execute, .-bmk12_execute
 2015 0068 C046C046 		.section	.text.bmk12_setup,"ax",%progbits
 2015      C046C046 
 2016              		.align	2
 2017              		.p2align 4,,15
 2018              		.code	16
 2019              		.thumb_func
 2020              		.type	bmk12_setup, %function
 2021              	bmk12_setup:
 2022              	.LFB27:
 2023              		.loc 1 593 0
 2024              		.cfi_startproc
 2025 0000 08B5     		push	{r3, lr}
 2026              		.cfi_def_cfa_offset 8
 2027              		.cfi_offset 3, -8
 2028              		.cfi_offset 14, -4
 2029              		.loc 1 595 0
 2030 0002 0248     		ldr	r0, .L91
 2031 0004 FFF7FEFF 		bl	chMtxInit
 2032              	.LVL240:
 2033              		.loc 1 596 0
 2034              		@ sp needed
 2035 0008 08BD     		pop	{r3, pc}
ARM GAS  /var/folders/qh/xwg3v3kj02qbxczjpdb8lzfr0000gn/T//ccUN5QO5.s 			page 37


 2036              	.L92:
 2037 000a C046     		.align	2
 2038              	.L91:
 2039 000c 00000000 		.word	.LANCHOR5
 2040              		.cfi_endproc
 2041              	.LFE27:
 2042              		.size	bmk12_setup, .-bmk12_setup
 2043              		.global	patternbmk
 2044              		.global	testbmk13
 2045              		.global	testbmk12
 2046              		.global	testbmk11
 2047              		.global	testbmk10
 2048              		.global	testbmk9
 2049              		.global	testbmk8
 2050              		.global	testbmk7
 2051              		.global	testbmk6
 2052              		.global	testbmk5
 2053              		.global	testbmk4
 2054              		.global	testbmk3
 2055              		.global	testbmk2
 2056              		.global	testbmk1
 2057              		.section	.rodata.testbmk8,"a",%progbits
 2058              		.align	2
 2059              		.type	testbmk8, %object
 2060              		.size	testbmk8, 16
 2061              	testbmk8:
 2062 0000 D0010000 		.word	.LC119
 2063 0004 00000000 		.word	0
 2064 0008 00000000 		.word	0
 2065 000c 00000000 		.word	bmk8_execute
 2066              		.section	.rodata.patternbmk,"a",%progbits
 2067              		.align	2
 2068              		.type	patternbmk, %object
 2069              		.size	patternbmk, 56
 2070              	patternbmk:
 2071 0000 00000000 		.word	testbmk1
 2072 0004 00000000 		.word	testbmk2
 2073 0008 00000000 		.word	testbmk3
 2074 000c 00000000 		.word	testbmk4
 2075 0010 00000000 		.word	testbmk5
 2076 0014 00000000 		.word	testbmk6
 2077 0018 00000000 		.word	testbmk7
 2078 001c 00000000 		.word	testbmk8
 2079 0020 00000000 		.word	testbmk9
 2080 0024 00000000 		.word	testbmk10
 2081 0028 00000000 		.word	testbmk11
 2082 002c 00000000 		.word	testbmk12
 2083 0030 00000000 		.word	testbmk13
 2084 0034 00000000 		.word	0
 2085              		.section	.rodata.testbmk10,"a",%progbits
 2086              		.align	2
 2087              		.type	testbmk10, %object
 2088              		.size	testbmk10, 16
 2089              	testbmk10:
 2090 0000 88010000 		.word	.LC117
 2091 0004 00000000 		.word	0
 2092 0008 00000000 		.word	0
ARM GAS  /var/folders/qh/xwg3v3kj02qbxczjpdb8lzfr0000gn/T//ccUN5QO5.s 			page 38


 2093 000c 00000000 		.word	bmk10_execute
 2094              		.section	.bss.iq.4916,"aw",%nobits
 2095              		.align	2
 2096              		.set	.LANCHOR1,. + 0
 2097              		.type	iq.4916, %object
 2098              		.size	iq.4916, 36
 2099              	iq.4916:
 2100 0000 00000000 		.space	36
 2100      00000000 
 2100      00000000 
 2100      00000000 
 2100      00000000 
 2101              		.section	.bss.ib.4915,"aw",%nobits
 2102              		.align	2
 2103              		.set	.LANCHOR2,. + 0
 2104              		.type	ib.4915, %object
 2105              		.size	ib.4915, 16
 2106              	ib.4915:
 2107 0000 00000000 		.space	16
 2107      00000000 
 2107      00000000 
 2107      00000000 
 2108              		.section	.rodata.testbmk4,"a",%progbits
 2109              		.align	2
 2110              		.type	testbmk4, %object
 2111              		.size	testbmk4, 16
 2112              	testbmk4:
 2113 0000 64020000 		.word	.LC123
 2114 0004 00000000 		.word	0
 2115 0008 00000000 		.word	0
 2116 000c 00000000 		.word	bmk4_execute
 2117              		.section	.rodata.testbmk3,"a",%progbits
 2118              		.align	2
 2119              		.type	testbmk3, %object
 2120              		.size	testbmk3, 16
 2121              	testbmk3:
 2122 0000 80020000 		.word	.LC124
 2123 0004 00000000 		.word	0
 2124 0008 00000000 		.word	0
 2125 000c 00000000 		.word	bmk3_execute
 2126              		.section	.bss.mtx1,"aw",%nobits
 2127              		.align	2
 2128              		.set	.LANCHOR5,. + 0
 2129              		.type	mtx1, %object
 2130              		.size	mtx1, 16
 2131              	mtx1:
 2132 0000 00000000 		.space	16
 2132      00000000 
 2132      00000000 
 2132      00000000 
 2133              		.section	.rodata.testbmk12,"a",%progbits
 2134              		.align	2
 2135              		.type	testbmk12, %object
 2136              		.size	testbmk12, 16
 2137              	testbmk12:
 2138 0000 44010000 		.word	.LC115
 2139 0004 00000000 		.word	bmk12_setup
ARM GAS  /var/folders/qh/xwg3v3kj02qbxczjpdb8lzfr0000gn/T//ccUN5QO5.s 			page 39


 2140 0008 00000000 		.word	0
 2141 000c 00000000 		.word	bmk12_execute
 2142              		.section	.bss.vt2.4927,"aw",%nobits
 2143              		.align	2
 2144              		.set	.LANCHOR4,. + 0
 2145              		.type	vt2.4927, %object
 2146              		.size	vt2.4927, 20
 2147              	vt2.4927:
 2148 0000 00000000 		.space	20
 2148      00000000 
 2148      00000000 
 2148      00000000 
 2148      00000000 
 2149              		.section	.rodata.testbmk2,"a",%progbits
 2150              		.align	2
 2151              		.type	testbmk2, %object
 2152              		.size	testbmk2, 16
 2153              	testbmk2:
 2154 0000 98020000 		.word	.LC125
 2155 0004 00000000 		.word	0
 2156 0008 00000000 		.word	0
 2157 000c 00000000 		.word	bmk2_execute
 2158              		.section	.rodata.str1.4,"aMS",%progbits,1
 2159              		.align	2
 2160              	.LC0:
 2161 0000 2D2D2D20 		.ascii	"--- System: \000"
 2161      53797374 
 2161      656D3A20 
 2161      00
 2162 000d 000000   		.space	3
 2163              	.LC2:
 2164 0010 20627974 		.ascii	" bytes\000"
 2164      657300
 2165 0017 00       		.space	1
 2166              	.LC4:
 2167 0018 2D2D2D20 		.ascii	"--- Thread: \000"
 2167      54687265 
 2167      61643A20 
 2167      00
 2168 0025 000000   		.space	3
 2169              	.LC6:
 2170 0028 2D2D2D20 		.ascii	"--- Timer : \000"
 2170      54696D65 
 2170      72203A20 
 2170      00
 2171 0035 000000   		.space	3
 2172              	.LC8:
 2173 0038 2D2D2D20 		.ascii	"--- Semaph: \000"
 2173      53656D61 
 2173      70683A20 
 2173      00
 2174 0045 000000   		.space	3
 2175              	.LC10:
 2176 0048 2D2D2D20 		.ascii	"--- EventS: \000"
 2176      4576656E 
 2176      74533A20 
 2176      00
ARM GAS  /var/folders/qh/xwg3v3kj02qbxczjpdb8lzfr0000gn/T//ccUN5QO5.s 			page 40


 2177 0055 000000   		.space	3
 2178              	.LC12:
 2179 0058 2D2D2D20 		.ascii	"--- EventL: \000"
 2179      4576656E 
 2179      744C3A20 
 2179      00
 2180 0065 000000   		.space	3
 2181              	.LC14:
 2182 0068 2D2D2D20 		.ascii	"--- Mutex : \000"
 2182      4D757465 
 2182      78203A20 
 2182      00
 2183 0075 000000   		.space	3
 2184              	.LC16:
 2185 0078 2D2D2D20 		.ascii	"--- CondV.: \000"
 2185      436F6E64 
 2185      562E3A20 
 2185      00
 2186 0085 000000   		.space	3
 2187              	.LC18:
 2188 0088 2D2D2D20 		.ascii	"--- Queue : \000"
 2188      51756575 
 2188      65203A20 
 2188      00
 2189 0095 000000   		.space	3
 2190              	.LC20:
 2191 0098 2D2D2D20 		.ascii	"--- MailB.: \000"
 2191      4D61696C 
 2191      422E3A20 
 2191      00
 2192 00a5 000000   		.space	3
 2193              	.LC26:
 2194 00a8 2D2D2D20 		.ascii	"--- Score : \000"
 2194      53636F72 
 2194      65203A20 
 2194      00
 2195 00b5 000000   		.space	3
 2196              	.LC28:
 2197 00b8 20746872 		.ascii	" threads/S\000"
 2197      65616473 
 2197      2F5300
 2198 00c3 00       		.space	1
 2199              	.LC36:
 2200 00c4 206D7367 		.ascii	" msgs/S, \000"
 2200      732F532C 
 2200      2000
 2201 00ce 0000     		.space	2
 2202              	.LC38:
 2203 00d0 20637478 		.ascii	" ctxswc/S\000"
 2203      7377632F 
 2203      5300
 2204 00da 0000     		.space	2
 2205              	.LC76:
 2206 00dc 20726573 		.ascii	" reschedules/S, \000"
 2206      63686564 
 2206      756C6573 
 2206      2F532C20 
ARM GAS  /var/folders/qh/xwg3v3kj02qbxczjpdb8lzfr0000gn/T//ccUN5QO5.s 			page 41


 2206      00
 2207 00ed 000000   		.space	3
 2208              	.LC94:
 2209 00f0 20627974 		.ascii	" bytes/S\000"
 2209      65732F53 
 2209      00
 2210 00f9 000000   		.space	3
 2211              	.LC101:
 2212 00fc 2074696D 		.ascii	" timers/S\000"
 2212      6572732F 
 2212      5300
 2213 0106 0000     		.space	2
 2214              	.LC106:
 2215 0108 20776169 		.ascii	" wait+signal/S\000"
 2215      742B7369 
 2215      676E616C 
 2215      2F5300
 2216 0117 00       		.space	1
 2217              	.LC111:
 2218 0118 206C6F63 		.ascii	" lock+unlock/S\000"
 2218      6B2B756E 
 2218      6C6F636B 
 2218      2F5300
 2219 0127 00       		.space	1
 2220              	.LC114:
 2221 0128 42656E63 		.ascii	"Benchmark, RAM footprint\000"
 2221      686D6172 
 2221      6B2C2052 
 2221      414D2066 
 2221      6F6F7470 
 2222 0141 000000   		.space	3
 2223              	.LC115:
 2224 0144 42656E63 		.ascii	"Benchmark, mutexes lock/unlock\000"
 2224      686D6172 
 2224      6B2C206D 
 2224      75746578 
 2224      6573206C 
 2225 0163 00       		.space	1
 2226              	.LC116:
 2227 0164 42656E63 		.ascii	"Benchmark, semaphores wait/signal\000"
 2227      686D6172 
 2227      6B2C2073 
 2227      656D6170 
 2227      686F7265 
 2228 0186 0000     		.space	2
 2229              	.LC117:
 2230 0188 42656E63 		.ascii	"Benchmark, virtual timers set/reset\000"
 2230      686D6172 
 2230      6B2C2076 
 2230      69727475 
 2230      616C2074 
 2231              	.LC118:
 2232 01ac 42656E63 		.ascii	"Benchmark, I/O Queues throughput\000"
 2232      686D6172 
 2232      6B2C2049 
 2232      2F4F2051 
 2232      75657565 
ARM GAS  /var/folders/qh/xwg3v3kj02qbxczjpdb8lzfr0000gn/T//ccUN5QO5.s 			page 42


 2233 01cd 000000   		.space	3
 2234              	.LC119:
 2235 01d0 42656E63 		.ascii	"Benchmark, round robin context switching\000"
 2235      686D6172 
 2235      6B2C2072 
 2235      6F756E64 
 2235      20726F62 
 2236 01f9 000000   		.space	3
 2237              	.LC120:
 2238 01fc 42656E63 		.ascii	"Benchmark, mass reschedule, 5 threads\000"
 2238      686D6172 
 2238      6B2C206D 
 2238      61737320 
 2238      72657363 
 2239 0222 0000     		.space	2
 2240              	.LC121:
 2241 0224 42656E63 		.ascii	"Benchmark, threads, create only\000"
 2241      686D6172 
 2241      6B2C2074 
 2241      68726561 
 2241      64732C20 
 2242              	.LC122:
 2243 0244 42656E63 		.ascii	"Benchmark, threads, full cycle\000"
 2243      686D6172 
 2243      6B2C2074 
 2243      68726561 
 2243      64732C20 
 2244 0263 00       		.space	1
 2245              	.LC123:
 2246 0264 42656E63 		.ascii	"Benchmark, context switch\000"
 2246      686D6172 
 2246      6B2C2063 
 2246      6F6E7465 
 2246      78742073 
 2247 027e 0000     		.space	2
 2248              	.LC124:
 2249 0280 42656E63 		.ascii	"Benchmark, messages #3\000"
 2249      686D6172 
 2249      6B2C206D 
 2249      65737361 
 2249      67657320 
 2250 0297 00       		.space	1
 2251              	.LC125:
 2252 0298 42656E63 		.ascii	"Benchmark, messages #2\000"
 2252      686D6172 
 2252      6B2C206D 
 2252      65737361 
 2252      67657320 
 2253 02af 00       		.space	1
 2254              	.LC126:
 2255 02b0 42656E63 		.ascii	"Benchmark, messages #1\000"
 2255      686D6172 
 2255      6B2C206D 
 2255      65737361 
 2255      67657320 
 2256 02c7 00       		.section	.rodata.testbmk9,"a",%progbits
 2257              		.align	2
ARM GAS  /var/folders/qh/xwg3v3kj02qbxczjpdb8lzfr0000gn/T//ccUN5QO5.s 			page 43


 2258              		.type	testbmk9, %object
 2259              		.size	testbmk9, 16
 2260              	testbmk9:
 2261 0000 AC010000 		.word	.LC118
 2262 0004 00000000 		.word	0
 2263 0008 00000000 		.word	0
 2264 000c 00000000 		.word	bmk9_execute
 2265              		.section	.bss.sem1,"aw",%nobits
 2266              		.align	2
 2267              		.set	.LANCHOR0,. + 0
 2268              		.type	sem1, %object
 2269              		.size	sem1, 12
 2270              	sem1:
 2271 0000 00000000 		.space	12
 2271      00000000 
 2271      00000000 
 2272              		.section	.rodata.testbmk1,"a",%progbits
 2273              		.align	2
 2274              		.type	testbmk1, %object
 2275              		.size	testbmk1, 16
 2276              	testbmk1:
 2277 0000 B0020000 		.word	.LC126
 2278 0004 00000000 		.word	0
 2279 0008 00000000 		.word	0
 2280 000c 00000000 		.word	bmk1_execute
 2281              		.section	.rodata.testbmk11,"a",%progbits
 2282              		.align	2
 2283              		.type	testbmk11, %object
 2284              		.size	testbmk11, 16
 2285              	testbmk11:
 2286 0000 64010000 		.word	.LC116
 2287 0004 00000000 		.word	bmk11_setup
 2288 0008 00000000 		.word	0
 2289 000c 00000000 		.word	bmk11_execute
 2290              		.section	.bss.vt1.4926,"aw",%nobits
 2291              		.align	2
 2292              		.set	.LANCHOR3,. + 0
 2293              		.type	vt1.4926, %object
 2294              		.size	vt1.4926, 20
 2295              	vt1.4926:
 2296 0000 00000000 		.space	20
 2296      00000000 
 2296      00000000 
 2296      00000000 
 2296      00000000 
 2297              		.section	.rodata.testbmk13,"a",%progbits
 2298              		.align	2
 2299              		.type	testbmk13, %object
 2300              		.size	testbmk13, 16
 2301              	testbmk13:
 2302 0000 28010000 		.word	.LC114
 2303 0004 00000000 		.word	0
 2304 0008 00000000 		.word	0
 2305 000c 00000000 		.word	bmk13_execute
 2306              		.section	.rodata.testbmk5,"a",%progbits
 2307              		.align	2
 2308              		.type	testbmk5, %object
ARM GAS  /var/folders/qh/xwg3v3kj02qbxczjpdb8lzfr0000gn/T//ccUN5QO5.s 			page 44


 2309              		.size	testbmk5, 16
 2310              	testbmk5:
 2311 0000 44020000 		.word	.LC122
 2312 0004 00000000 		.word	0
 2313 0008 00000000 		.word	0
 2314 000c 00000000 		.word	bmk5_execute
 2315              		.section	.rodata.testbmk6,"a",%progbits
 2316              		.align	2
 2317              		.type	testbmk6, %object
 2318              		.size	testbmk6, 16
 2319              	testbmk6:
 2320 0000 24020000 		.word	.LC121
 2321 0004 00000000 		.word	0
 2322 0008 00000000 		.word	0
 2323 000c 00000000 		.word	bmk6_execute
 2324              		.section	.rodata.testbmk7,"a",%progbits
 2325              		.align	2
 2326              		.type	testbmk7, %object
 2327              		.size	testbmk7, 16
 2328              	testbmk7:
 2329 0000 FC010000 		.word	.LC120
 2330 0004 00000000 		.word	bmk7_setup
 2331 0008 00000000 		.word	0
 2332 000c 00000000 		.word	bmk7_execute
 2333              		.text
 2334              	.Letext0:
 2335              		.file 2 "/usr/local/Cellar/gcc-arm-none-eabi-48/20131218/lib/gcc/arm-none-eabi/4.8.3/include/stdde
 2336              		.file 3 "/usr/local/Cellar/gcc-arm-none-eabi-48/20131218/arm-none-eabi/include/stdint.h"
 2337              		.file 4 "../../os/ports/GCC/ARMCMx/chtypes.h"
 2338              		.file 5 "../../os/kernel/include/chlists.h"
 2339              		.file 6 "../../os/kernel/include/chthreads.h"
 2340              		.file 7 "../../os/ports/GCC/ARMCMx/chcore_v6m.h"
 2341              		.file 8 "../../os/kernel/include/chvt.h"
 2342              		.file 9 "../../os/kernel/include/chschd.h"
 2343              		.file 10 "../../os/kernel/include/chsem.h"
 2344              		.file 11 "../../os/kernel/include/chmtx.h"
 2345              		.file 12 "../../os/kernel/include/chqueues.h"
 2346              		.file 13 "../../test/test.h"
 2347              		.file 14 "../../os/kernel/include/chmsg.h"