ARM GAS  /var/folders/qh/xwg3v3kj02qbxczjpdb8lzfr0000gn/T//cc8hBWfe.s 			page 1


   1              		.cpu cortex-m0
   2              		.fpu softvfp
   3              		.eabi_attribute 20, 1
   4              		.eabi_attribute 21, 1
   5              		.eabi_attribute 23, 3
   6              		.eabi_attribute 24, 1
   7              		.eabi_attribute 25, 1
   8              		.eabi_attribute 26, 1
   9              		.eabi_attribute 30, 2
  10              		.eabi_attribute 34, 0
  11              		.eabi_attribute 18, 4
  12              		.code	16
  13              		.file	"testthd.c"
  14              		.text
  15              	.Ltext0:
  16              		.cfi_sections	.debug_frame
  17              		.section	.text.thd1_execute,"ax",%progbits
  18              		.align	2
  19              		.p2align 4,,15
  20              		.code	16
  21              		.thumb_func
  22              		.type	thd1_execute, %function
  23              	thd1_execute:
  24              	.LFB8:
  25              		.file 1 "../../test/testthd.c"
  26              		.loc 1 66 0
  27              		.cfi_startproc
  28 0000 F0B5     		push	{r4, r5, r6, r7, lr}
  29              		.cfi_def_cfa_offset 20
  30              		.cfi_offset 4, -20
  31              		.cfi_offset 5, -16
  32              		.cfi_offset 6, -12
  33              		.cfi_offset 7, -8
  34              		.cfi_offset 14, -4
  35 0002 4746     		mov	r7, r8
  36 0004 80B4     		push	{r7}
  37              		.cfi_def_cfa_offset 24
  38              		.cfi_offset 8, -24
  39              		.loc 1 68 0
  40 0006 274F     		ldr	r7, .L2
  41 0008 274A     		ldr	r2, .L2+4
  42 000a BB69     		ldr	r3, [r7, #24]
  43 000c 9046     		mov	r8, r2
  44 000e 9A68     		ldr	r2, [r3, #8]
  45 0010 264B     		ldr	r3, .L2+8
  46              		.loc 1 66 0
  47 0012 82B0     		sub	sp, sp, #8
  48              		.cfi_def_cfa_offset 32
  49              		.loc 1 68 0
  50 0014 264D     		ldr	r5, .L2+12
  51 0016 9826     		mov	r6, #152
  52 0018 7600     		lsl	r6, r6, #1
  53 001a 0093     		str	r3, [sp]
  54 001c 4346     		mov	r3, r8
  55 001e 311C     		mov	r1, r6
  56 0020 053A     		sub	r2, r2, #5
  57 0022 1868     		ldr	r0, [r3]
ARM GAS  /var/folders/qh/xwg3v3kj02qbxczjpdb8lzfr0000gn/T//cc8hBWfe.s 			page 2


  58 0024 2B1C     		mov	r3, r5
  59 0026 FFF7FEFF 		bl	chThdCreateStatic
  60              	.LVL0:
  61              		.loc 1 69 0
  62 002a BB69     		ldr	r3, [r7, #24]
  63              		.loc 1 68 0
  64 002c 214C     		ldr	r4, .L2+16
  65              		.loc 1 69 0
  66 002e 9A68     		ldr	r2, [r3, #8]
  67 0030 214B     		ldr	r3, .L2+20
  68              		.loc 1 68 0
  69 0032 2060     		str	r0, [r4]
  70              		.loc 1 69 0
  71 0034 0093     		str	r3, [sp]
  72 0036 4346     		mov	r3, r8
  73 0038 311C     		mov	r1, r6
  74 003a 043A     		sub	r2, r2, #4
  75 003c 5868     		ldr	r0, [r3, #4]
  76 003e 2B1C     		mov	r3, r5
  77 0040 FFF7FEFF 		bl	chThdCreateStatic
  78              	.LVL1:
  79              		.loc 1 70 0
  80 0044 BB69     		ldr	r3, [r7, #24]
  81              		.loc 1 69 0
  82 0046 6060     		str	r0, [r4, #4]
  83              		.loc 1 70 0
  84 0048 9A68     		ldr	r2, [r3, #8]
  85 004a 1C4B     		ldr	r3, .L2+24
  86 004c 311C     		mov	r1, r6
  87 004e 0093     		str	r3, [sp]
  88 0050 4346     		mov	r3, r8
  89 0052 033A     		sub	r2, r2, #3
  90 0054 9868     		ldr	r0, [r3, #8]
  91 0056 2B1C     		mov	r3, r5
  92 0058 FFF7FEFF 		bl	chThdCreateStatic
  93              	.LVL2:
  94              		.loc 1 71 0
  95 005c BB69     		ldr	r3, [r7, #24]
  96              		.loc 1 70 0
  97 005e A060     		str	r0, [r4, #8]
  98              		.loc 1 71 0
  99 0060 9A68     		ldr	r2, [r3, #8]
 100 0062 174B     		ldr	r3, .L2+28
 101 0064 311C     		mov	r1, r6
 102 0066 0093     		str	r3, [sp]
 103 0068 4346     		mov	r3, r8
 104 006a 023A     		sub	r2, r2, #2
 105 006c D868     		ldr	r0, [r3, #12]
 106 006e 2B1C     		mov	r3, r5
 107 0070 FFF7FEFF 		bl	chThdCreateStatic
 108              	.LVL3:
 109              		.loc 1 72 0
 110 0074 BB69     		ldr	r3, [r7, #24]
 111 0076 4246     		mov	r2, r8
 112              		.loc 1 71 0
 113 0078 E060     		str	r0, [r4, #12]
 114              		.loc 1 72 0
ARM GAS  /var/folders/qh/xwg3v3kj02qbxczjpdb8lzfr0000gn/T//cc8hBWfe.s 			page 3


 115 007a 1069     		ldr	r0, [r2, #16]
 116 007c 9A68     		ldr	r2, [r3, #8]
 117 007e 114B     		ldr	r3, .L2+32
 118 0080 013A     		sub	r2, r2, #1
 119 0082 311C     		mov	r1, r6
 120 0084 0093     		str	r3, [sp]
 121 0086 2B1C     		mov	r3, r5
 122 0088 FFF7FEFF 		bl	chThdCreateStatic
 123              	.LVL4:
 124 008c 2061     		str	r0, [r4, #16]
 125              		.loc 1 73 0
 126 008e FFF7FEFF 		bl	test_wait_threads
 127              	.LVL5:
 128              		.loc 1 74 0
 129 0092 0D49     		ldr	r1, .L2+36
 130 0094 0120     		mov	r0, #1
 131 0096 FFF7FEFF 		bl	_test_assert_sequence
 132              	.LVL6:
 133              		.loc 1 75 0
 134 009a 02B0     		add	sp, sp, #8
 135              		@ sp needed
 136 009c 04BC     		pop	{r2}
 137 009e 9046     		mov	r8, r2
 138 00a0 F0BD     		pop	{r4, r5, r6, r7, pc}
 139              	.L3:
 140 00a2 C046     		.align	2
 141              	.L2:
 142 00a4 00000000 		.word	rlist
 143 00a8 00000000 		.word	wa
 144 00ac 00000000 		.word	.LC3
 145 00b0 00000000 		.word	thread
 146 00b4 00000000 		.word	threads
 147 00b8 04000000 		.word	.LC6
 148 00bc 08000000 		.word	.LC8
 149 00c0 0C000000 		.word	.LC10
 150 00c4 10000000 		.word	.LC12
 151 00c8 14000000 		.word	.LC14
 152              		.cfi_endproc
 153              	.LFE8:
 154              		.size	thd1_execute, .-thd1_execute
 155 00cc C046C046 		.section	.text.thread,"ax",%progbits
 156              		.align	2
 157              		.p2align 4,,15
 158              		.code	16
 159              		.thumb_func
 160              		.type	thread, %function
 161              	thread:
 162              	.LFB7:
 163              		.loc 1 60 0
 164              		.cfi_startproc
 165              	.LVL7:
 166 0000 08B5     		push	{r3, lr}
 167              		.cfi_def_cfa_offset 8
 168              		.cfi_offset 3, -8
 169              		.cfi_offset 14, -4
 170              		.loc 1 62 0
 171 0002 0078     		ldrb	r0, [r0]
ARM GAS  /var/folders/qh/xwg3v3kj02qbxczjpdb8lzfr0000gn/T//cc8hBWfe.s 			page 4


 172              	.LVL8:
 173 0004 FFF7FEFF 		bl	test_emit_token
 174              	.LVL9:
 175              		.loc 1 64 0
 176              		@ sp needed
 177 0008 0020     		mov	r0, #0
 178 000a 08BD     		pop	{r3, pc}
 179              		.cfi_endproc
 180              	.LFE7:
 181              		.size	thread, .-thread
 182 000c C046C046 		.section	.text.thd2_execute,"ax",%progbits
 183              		.align	2
 184              		.p2align 4,,15
 185              		.code	16
 186              		.thumb_func
 187              		.type	thd2_execute, %function
 188              	thd2_execute:
 189              	.LFB9:
 190              		.loc 1 94 0
 191              		.cfi_startproc
 192 0000 F0B5     		push	{r4, r5, r6, r7, lr}
 193              		.cfi_def_cfa_offset 20
 194              		.cfi_offset 4, -20
 195              		.cfi_offset 5, -16
 196              		.cfi_offset 6, -12
 197              		.cfi_offset 7, -8
 198              		.cfi_offset 14, -4
 199 0002 4746     		mov	r7, r8
 200 0004 80B4     		push	{r7}
 201              		.cfi_def_cfa_offset 24
 202              		.cfi_offset 8, -24
 203              		.loc 1 96 0
 204 0006 2D4F     		ldr	r7, .L6
 205 0008 2D4A     		ldr	r2, .L6+4
 206 000a BB69     		ldr	r3, [r7, #24]
 207 000c 9046     		mov	r8, r2
 208 000e 9A68     		ldr	r2, [r3, #8]
 209 0010 2C4B     		ldr	r3, .L6+8
 210              		.loc 1 94 0
 211 0012 82B0     		sub	sp, sp, #8
 212              		.cfi_def_cfa_offset 32
 213              		.loc 1 96 0
 214 0014 2C4D     		ldr	r5, .L6+12
 215 0016 9826     		mov	r6, #152
 216 0018 7600     		lsl	r6, r6, #1
 217 001a 0093     		str	r3, [sp]
 218 001c 4346     		mov	r3, r8
 219 001e 311C     		mov	r1, r6
 220 0020 043A     		sub	r2, r2, #4
 221 0022 5868     		ldr	r0, [r3, #4]
 222 0024 2B1C     		mov	r3, r5
 223 0026 FFF7FEFF 		bl	chThdCreateStatic
 224              	.LVL10:
 225              		.loc 1 97 0
 226 002a BB69     		ldr	r3, [r7, #24]
 227              		.loc 1 96 0
 228 002c 274C     		ldr	r4, .L6+16
ARM GAS  /var/folders/qh/xwg3v3kj02qbxczjpdb8lzfr0000gn/T//cc8hBWfe.s 			page 5


 229              		.loc 1 97 0
 230 002e 9A68     		ldr	r2, [r3, #8]
 231 0030 274B     		ldr	r3, .L6+20
 232              		.loc 1 96 0
 233 0032 6060     		str	r0, [r4, #4]
 234              		.loc 1 97 0
 235 0034 0093     		str	r3, [sp]
 236 0036 4346     		mov	r3, r8
 237 0038 311C     		mov	r1, r6
 238 003a 053A     		sub	r2, r2, #5
 239 003c 1868     		ldr	r0, [r3]
 240 003e 2B1C     		mov	r3, r5
 241 0040 FFF7FEFF 		bl	chThdCreateStatic
 242              	.LVL11:
 243              		.loc 1 98 0
 244 0044 BB69     		ldr	r3, [r7, #24]
 245              		.loc 1 97 0
 246 0046 2060     		str	r0, [r4]
 247              		.loc 1 98 0
 248 0048 9A68     		ldr	r2, [r3, #8]
 249 004a 224B     		ldr	r3, .L6+24
 250 004c 311C     		mov	r1, r6
 251 004e 0093     		str	r3, [sp]
 252 0050 4346     		mov	r3, r8
 253 0052 013A     		sub	r2, r2, #1
 254 0054 1869     		ldr	r0, [r3, #16]
 255 0056 2B1C     		mov	r3, r5
 256 0058 FFF7FEFF 		bl	chThdCreateStatic
 257              	.LVL12:
 258              		.loc 1 99 0
 259 005c BB69     		ldr	r3, [r7, #24]
 260 005e 4246     		mov	r2, r8
 261              		.loc 1 98 0
 262 0060 2061     		str	r0, [r4, #16]
 263              		.loc 1 99 0
 264 0062 D068     		ldr	r0, [r2, #12]
 265 0064 9A68     		ldr	r2, [r3, #8]
 266 0066 1C4B     		ldr	r3, .L6+28
 267 0068 023A     		sub	r2, r2, #2
 268 006a 0093     		str	r3, [sp]
 269 006c 311C     		mov	r1, r6
 270 006e 2B1C     		mov	r3, r5
 271 0070 FFF7FEFF 		bl	chThdCreateStatic
 272              	.LVL13:
 273 0074 E060     		str	r0, [r4, #12]
 274              		.loc 1 101 0
 275              	@ 101 "../../test/testthd.c" 1
 276 0076 72B6     		cpsid   i
 277              	@ 0 "" 2
 278              		.code	16
 279 0078 FFF7FEFF 		bl	dbg_check_lock
 280              	.LVL14:
 281              		.loc 1 102 0
 282 007c 104B     		ldr	r3, .L6+4
 283 007e 9821     		mov	r1, #152
 284 0080 9868     		ldr	r0, [r3, #8]
 285 0082 0E4B     		ldr	r3, .L6
ARM GAS  /var/folders/qh/xwg3v3kj02qbxczjpdb8lzfr0000gn/T//cc8hBWfe.s 			page 6


 286 0084 4900     		lsl	r1, r1, #1
 287 0086 9B69     		ldr	r3, [r3, #24]
 288 0088 9A68     		ldr	r2, [r3, #8]
 289 008a 144B     		ldr	r3, .L6+32
 290 008c 033A     		sub	r2, r2, #3
 291 008e 0093     		str	r3, [sp]
 292 0090 0D4B     		ldr	r3, .L6+12
 293 0092 FFF7FEFF 		bl	chThdCreateI
 294              	.LVL15:
 295 0096 0D4B     		ldr	r3, .L6+16
 296 0098 9860     		str	r0, [r3, #8]
 297              		.loc 1 103 0
 298 009a FFF7FEFF 		bl	dbg_check_unlock
 299              	.LVL16:
 300              	@ 103 "../../test/testthd.c" 1
 301 009e 62B6     		cpsie   i
 302              	@ 0 "" 2
 303              		.loc 1 104 0
 304              		.code	16
 305 00a0 0A4B     		ldr	r3, .L6+16
 306 00a2 9868     		ldr	r0, [r3, #8]
 307 00a4 FFF7FEFF 		bl	chThdResume
 308              	.LVL17:
 309              		.loc 1 105 0
 310 00a8 FFF7FEFF 		bl	test_wait_threads
 311              	.LVL18:
 312              		.loc 1 106 0
 313 00ac 0C49     		ldr	r1, .L6+36
 314 00ae 0120     		mov	r0, #1
 315 00b0 FFF7FEFF 		bl	_test_assert_sequence
 316              	.LVL19:
 317              		.loc 1 107 0
 318 00b4 02B0     		add	sp, sp, #8
 319              		@ sp needed
 320 00b6 04BC     		pop	{r2}
 321 00b8 9046     		mov	r8, r2
 322 00ba F0BD     		pop	{r4, r5, r6, r7, pc}
 323              	.L7:
 324              		.align	2
 325              	.L6:
 326 00bc 00000000 		.word	rlist
 327 00c0 00000000 		.word	wa
 328 00c4 04000000 		.word	.LC6
 329 00c8 00000000 		.word	thread
 330 00cc 00000000 		.word	threads
 331 00d0 00000000 		.word	.LC3
 332 00d4 10000000 		.word	.LC12
 333 00d8 0C000000 		.word	.LC10
 334 00dc 08000000 		.word	.LC8
 335 00e0 14000000 		.word	.LC14
 336              		.cfi_endproc
 337              	.LFE9:
 338              		.size	thd2_execute, .-thd2_execute
 339 00e4 C046C046 		.section	.text.thd3_execute,"ax",%progbits
 339      C046C046 
 339      C046C046 
 340              		.align	2
ARM GAS  /var/folders/qh/xwg3v3kj02qbxczjpdb8lzfr0000gn/T//cc8hBWfe.s 			page 7


 341              		.p2align 4,,15
 342              		.code	16
 343              		.thumb_func
 344              		.type	thd3_execute, %function
 345              	thd3_execute:
 346              	.LFB10:
 347              		.loc 1 126 0
 348              		.cfi_startproc
 349 0000 F8B5     		push	{r3, r4, r5, r6, r7, lr}
 350              		.cfi_def_cfa_offset 24
 351              		.cfi_offset 3, -24
 352              		.cfi_offset 4, -20
 353              		.cfi_offset 5, -16
 354              		.cfi_offset 6, -12
 355              		.cfi_offset 7, -8
 356              		.cfi_offset 14, -4
 357              		.loc 1 129 0
 358 0002 4E4E     		ldr	r6, .L14
 359 0004 B369     		ldr	r3, [r6, #24]
 360 0006 9C68     		ldr	r4, [r3, #8]
 361              	.LVL20:
 362              		.loc 1 130 0
 363 0008 651C     		add	r5, r4, #1
 364 000a 281C     		mov	r0, r5
 365 000c FFF7FEFF 		bl	chThdSetPriority
 366              	.LVL21:
 367              		.loc 1 131 0
 368 0010 011B     		sub	r1, r0, r4
 369 0012 4B42     		neg	r3, r1
 370 0014 5941     		adc	r1, r1, r3
 371              		.loc 1 130 0
 372 0016 071C     		mov	r7, r0
 373              	.LVL22:
 374              		.loc 1 131 0
 375 0018 C9B2     		uxtb	r1, r1
 376 001a 0120     		mov	r0, #1
 377              	.LVL23:
 378 001c FFF7FEFF 		bl	_test_assert
 379              	.LVL24:
 380 0020 0028     		cmp	r0, #0
 381 0022 00D0     		beq	.L13
 382              	.LVL25:
 383              	.L8:
 384              		.loc 1 172 0
 385              		@ sp needed
 386              	.LVL26:
 387 0024 F8BD     		pop	{r3, r4, r5, r6, r7, pc}
 388              	.LVL27:
 389              	.L13:
 390              		.loc 1 133 0
 391 0026 B369     		ldr	r3, [r6, #24]
 392 0028 0220     		mov	r0, #2
 393 002a 9968     		ldr	r1, [r3, #8]
 394 002c 691A     		sub	r1, r5, r1
 395 002e 4B42     		neg	r3, r1
 396 0030 5941     		adc	r1, r1, r3
 397 0032 C9B2     		uxtb	r1, r1
ARM GAS  /var/folders/qh/xwg3v3kj02qbxczjpdb8lzfr0000gn/T//cc8hBWfe.s 			page 8


 398 0034 FFF7FEFF 		bl	_test_assert
 399              	.LVL28:
 400 0038 0028     		cmp	r0, #0
 401 003a F3D1     		bne	.L8
 402              		.loc 1 135 0
 403 003c 381C     		mov	r0, r7
 404 003e FFF7FEFF 		bl	chThdSetPriority
 405              	.LVL29:
 406              		.loc 1 136 0
 407 0042 291A     		sub	r1, r5, r0
 408 0044 4B42     		neg	r3, r1
 409 0046 5941     		adc	r1, r1, r3
 410 0048 C9B2     		uxtb	r1, r1
 411 004a 0320     		mov	r0, #3
 412              	.LVL30:
 413 004c FFF7FEFF 		bl	_test_assert
 414              	.LVL31:
 415 0050 0028     		cmp	r0, #0
 416 0052 E7D1     		bne	.L8
 417              		.loc 1 138 0
 418 0054 B369     		ldr	r3, [r6, #24]
 419 0056 0420     		mov	r0, #4
 420 0058 9968     		ldr	r1, [r3, #8]
 421 005a 091B     		sub	r1, r1, r4
 422 005c 4B42     		neg	r3, r1
 423 005e 5941     		adc	r1, r1, r3
 424 0060 C9B2     		uxtb	r1, r1
 425 0062 FFF7FEFF 		bl	_test_assert
 426              	.LVL32:
 427 0066 0028     		cmp	r0, #0
 428 0068 DCD1     		bne	.L8
 429              		.loc 1 143 0
 430              	@ 143 "../../test/testthd.c" 1
 431 006a 72B6     		cpsid   i
 432              	@ 0 "" 2
 433              		.code	16
 434 006c FFF7FEFF 		bl	dbg_check_lock
 435              	.LVL33:
 436              		.loc 1 144 0
 437 0070 B369     		ldr	r3, [r6, #24]
 438 0072 9A68     		ldr	r2, [r3, #8]
 439 0074 0232     		add	r2, r2, #2
 440 0076 9A60     		str	r2, [r3, #8]
 441              		.loc 1 145 0
 442 0078 FFF7FEFF 		bl	dbg_check_unlock
 443              	.LVL34:
 444              	@ 145 "../../test/testthd.c" 1
 445 007c 62B6     		cpsie   i
 446              	@ 0 "" 2
 447              		.loc 1 146 0
 448              		.code	16
 449 007e 2F4E     		ldr	r6, .L14
 450 0080 A71C     		add	r7, r4, #2
 451 0082 B369     		ldr	r3, [r6, #24]
 452 0084 0520     		mov	r0, #5
 453 0086 9968     		ldr	r1, [r3, #8]
 454 0088 C91B     		sub	r1, r1, r7
ARM GAS  /var/folders/qh/xwg3v3kj02qbxczjpdb8lzfr0000gn/T//cc8hBWfe.s 			page 9


 455 008a 4B42     		neg	r3, r1
 456 008c 5941     		adc	r1, r1, r3
 457 008e C9B2     		uxtb	r1, r1
 458 0090 FFF7FEFF 		bl	_test_assert
 459              	.LVL35:
 460 0094 0028     		cmp	r0, #0
 461 0096 C5D1     		bne	.L8
 462              		.loc 1 150 0
 463 0098 281C     		mov	r0, r5
 464 009a FFF7FEFF 		bl	chThdSetPriority
 465              	.LVL36:
 466              		.loc 1 151 0
 467 009e 011B     		sub	r1, r0, r4
 468 00a0 4B42     		neg	r3, r1
 469 00a2 5941     		adc	r1, r1, r3
 470 00a4 C9B2     		uxtb	r1, r1
 471 00a6 0620     		mov	r0, #6
 472              	.LVL37:
 473 00a8 FFF7FEFF 		bl	_test_assert
 474              	.LVL38:
 475 00ac 0028     		cmp	r0, #0
 476 00ae B9D1     		bne	.L8
 477              		.loc 1 153 0
 478 00b0 B369     		ldr	r3, [r6, #24]
 479 00b2 0720     		mov	r0, #7
 480 00b4 9968     		ldr	r1, [r3, #8]
 481 00b6 791A     		sub	r1, r7, r1
 482 00b8 4F42     		neg	r7, r1
 483 00ba 7941     		adc	r1, r1, r7
 484 00bc C9B2     		uxtb	r1, r1
 485 00be FFF7FEFF 		bl	_test_assert
 486              	.LVL39:
 487 00c2 0028     		cmp	r0, #0
 488 00c4 AED1     		bne	.L8
 489              		.loc 1 155 0
 490 00c6 B369     		ldr	r3, [r6, #24]
 491 00c8 0820     		mov	r0, #8
 492 00ca 196C     		ldr	r1, [r3, #64]
 493 00cc 691A     		sub	r1, r5, r1
 494 00ce 4B42     		neg	r3, r1
 495 00d0 5941     		adc	r1, r1, r3
 496 00d2 C9B2     		uxtb	r1, r1
 497 00d4 FFF7FEFF 		bl	_test_assert
 498              	.LVL40:
 499 00d8 0028     		cmp	r0, #0
 500 00da A3D1     		bne	.L8
 501              		.loc 1 159 0
 502 00dc E71C     		add	r7, r4, #3
 503 00de 381C     		mov	r0, r7
 504 00e0 FFF7FEFF 		bl	chThdSetPriority
 505              	.LVL41:
 506              		.loc 1 160 0
 507 00e4 291A     		sub	r1, r5, r0
 508 00e6 4D42     		neg	r5, r1
 509 00e8 6941     		adc	r1, r1, r5
 510 00ea C9B2     		uxtb	r1, r1
 511 00ec 0920     		mov	r0, #9
ARM GAS  /var/folders/qh/xwg3v3kj02qbxczjpdb8lzfr0000gn/T//cc8hBWfe.s 			page 10


 512              	.LVL42:
 513 00ee FFF7FEFF 		bl	_test_assert
 514              	.LVL43:
 515 00f2 0028     		cmp	r0, #0
 516 00f4 00D0     		beq	.LCB422
 517 00f6 95E7     		b	.L8	@long jump
 518              	.LCB422:
 519              		.loc 1 162 0
 520 00f8 B369     		ldr	r3, [r6, #24]
 521 00fa 0A20     		mov	r0, #10
 522 00fc 9968     		ldr	r1, [r3, #8]
 523 00fe 791A     		sub	r1, r7, r1
 524 0100 4B42     		neg	r3, r1
 525 0102 5941     		adc	r1, r1, r3
 526 0104 C9B2     		uxtb	r1, r1
 527 0106 FFF7FEFF 		bl	_test_assert
 528              	.LVL44:
 529 010a 0028     		cmp	r0, #0
 530 010c 00D0     		beq	.LCB432
 531 010e 89E7     		b	.L8	@long jump
 532              	.LCB432:
 533              		.loc 1 164 0
 534 0110 B369     		ldr	r3, [r6, #24]
 535 0112 0B20     		mov	r0, #11
 536 0114 196C     		ldr	r1, [r3, #64]
 537 0116 791A     		sub	r1, r7, r1
 538 0118 4F42     		neg	r7, r1
 539 011a 7941     		adc	r1, r1, r7
 540 011c C9B2     		uxtb	r1, r1
 541 011e FFF7FEFF 		bl	_test_assert
 542              	.LVL45:
 543 0122 0028     		cmp	r0, #0
 544 0124 00D0     		beq	.LCB442
 545 0126 7DE7     		b	.L8	@long jump
 546              	.LCB442:
 547              		.loc 1 167 0
 548              	@ 167 "../../test/testthd.c" 1
 549 0128 72B6     		cpsid   i
 550              	@ 0 "" 2
 551              		.code	16
 552 012a FFF7FEFF 		bl	dbg_check_lock
 553              	.LVL46:
 554              		.loc 1 168 0
 555 012e B369     		ldr	r3, [r6, #24]
 556 0130 9C60     		str	r4, [r3, #8]
 557              		.loc 1 169 0
 558 0132 1C64     		str	r4, [r3, #64]
 559              		.loc 1 170 0
 560 0134 FFF7FEFF 		bl	dbg_check_unlock
 561              	.LVL47:
 562              	@ 170 "../../test/testthd.c" 1
 563 0138 62B6     		cpsie   i
 564              	@ 0 "" 2
 565              		.code	16
 566 013a 73E7     		b	.L8
 567              	.L15:
 568              		.align	2
ARM GAS  /var/folders/qh/xwg3v3kj02qbxczjpdb8lzfr0000gn/T//cc8hBWfe.s 			page 11


 569              	.L14:
 570 013c 00000000 		.word	rlist
 571              		.cfi_endproc
 572              	.LFE10:
 573              		.size	thd3_execute, .-thd3_execute
 574              		.section	.text.thd4_execute,"ax",%progbits
 575              		.align	2
 576              		.p2align 4,,15
 577              		.code	16
 578              		.thumb_func
 579              		.type	thd4_execute, %function
 580              	thd4_execute:
 581              	.LFB11:
 582              		.loc 1 189 0
 583              		.cfi_startproc
 584 0000 38B5     		push	{r3, r4, r5, lr}
 585              		.cfi_def_cfa_offset 16
 586              		.cfi_offset 3, -16
 587              		.cfi_offset 4, -12
 588              		.cfi_offset 5, -8
 589              		.cfi_offset 14, -4
 590              		.loc 1 192 0
 591 0002 FFF7FEFF 		bl	test_wait_tick
 592              	.LVL48:
 593              		.loc 1 195 0
 594 0006 1C4D     		ldr	r5, .L21
 595              		.loc 1 196 0
 596 0008 6420     		mov	r0, #100
 597              		.loc 1 195 0
 598 000a EC68     		ldr	r4, [r5, #12]
 599              	.LVL49:
 600              		.loc 1 196 0
 601 000c FFF7FEFF 		bl	chThdSleep
 602              	.LVL50:
 603              		.loc 1 197 0
 604 0010 211C     		mov	r1, r4
 605 0012 221C     		mov	r2, r4
 606 0014 6431     		add	r1, r1, #100
 607 0016 6532     		add	r2, r2, #101
 608 0018 0120     		mov	r0, #1
 609 001a FFF7FEFF 		bl	_test_assert_time_window
 610              	.LVL51:
 611 001e 0028     		cmp	r0, #0
 612 0020 00D0     		beq	.L20
 613              	.LVL52:
 614              	.L16:
 615              		.loc 1 213 0
 616              		@ sp needed
 617 0022 38BD     		pop	{r3, r4, r5, pc}
 618              	.LVL53:
 619              	.L20:
 620              		.loc 1 200 0
 621 0024 EC68     		ldr	r4, [r5, #12]
 622              	.LVL54:
 623              		.loc 1 201 0
 624 0026 6420     		mov	r0, #100
 625 0028 FFF7FEFF 		bl	chThdSleep
ARM GAS  /var/folders/qh/xwg3v3kj02qbxczjpdb8lzfr0000gn/T//cc8hBWfe.s 			page 12


 626              	.LVL55:
 627              		.loc 1 202 0
 628 002c 211C     		mov	r1, r4
 629 002e 221C     		mov	r2, r4
 630 0030 6431     		add	r1, r1, #100
 631 0032 6532     		add	r2, r2, #101
 632 0034 0220     		mov	r0, #2
 633 0036 FFF7FEFF 		bl	_test_assert_time_window
 634              	.LVL56:
 635 003a 0028     		cmp	r0, #0
 636 003c F1D1     		bne	.L16
 637              	.LBB4:
 638              	.LBB5:
 639              		.loc 1 206 0
 640 003e FA20     		mov	r0, #250
 641 0040 8000     		lsl	r0, r0, #2
 642              		.loc 1 205 0
 643 0042 EC68     		ldr	r4, [r5, #12]
 644              	.LVL57:
 645              		.loc 1 206 0
 646 0044 FFF7FEFF 		bl	chThdSleep
 647              	.LVL58:
 648              		.loc 1 207 0
 649 0048 FA23     		mov	r3, #250
 650 004a 9B00     		lsl	r3, r3, #2
 651 004c E118     		add	r1, r4, r3
 652 004e 0B4B     		ldr	r3, .L21+4
 653 0050 0320     		mov	r0, #3
 654 0052 E218     		add	r2, r4, r3
 655 0054 FFF7FEFF 		bl	_test_assert_time_window
 656              	.LVL59:
 657 0058 0028     		cmp	r0, #0
 658 005a E2D1     		bne	.L16
 659              		.loc 1 210 0
 660 005c ED68     		ldr	r5, [r5, #12]
 661 005e 2C1C     		mov	r4, r5
 662              	.LVL60:
 663 0060 6434     		add	r4, r4, #100
 664              	.LVL61:
 665              		.loc 1 211 0
 666 0062 201C     		mov	r0, r4
 667 0064 FFF7FEFF 		bl	chThdSleepUntil
 668              	.LVL62:
 669              		.loc 1 212 0
 670 0068 2A1C     		mov	r2, r5
 671 006a 6532     		add	r2, r2, #101
 672 006c 211C     		mov	r1, r4
 673 006e 0420     		mov	r0, #4
 674 0070 FFF7FEFF 		bl	_test_assert_time_window
 675              	.LVL63:
 676 0074 D5E7     		b	.L16
 677              	.L22:
 678 0076 C046     		.align	2
 679              	.L21:
 680 0078 00000000 		.word	vtlist
 681 007c E9030000 		.word	1001
 682              	.LBE5:
ARM GAS  /var/folders/qh/xwg3v3kj02qbxczjpdb8lzfr0000gn/T//cc8hBWfe.s 			page 13


 683              	.LBE4:
 684              		.cfi_endproc
 685              	.LFE11:
 686              		.size	thd4_execute, .-thd4_execute
 687              		.global	patternthd
 688              		.global	testthd4
 689              		.global	testthd3
 690              		.global	testthd2
 691              		.global	testthd1
 692              		.section	.rodata.testthd1,"a",%progbits
 693              		.align	2
 694              		.type	testthd1, %object
 695              		.size	testthd1, 16
 696              	testthd1:
 697 0000 64000000 		.word	.LC31
 698 0004 00000000 		.word	0
 699 0008 00000000 		.word	0
 700 000c 00000000 		.word	thd1_execute
 701              		.section	.rodata.testthd2,"a",%progbits
 702              		.align	2
 703              		.type	testthd2, %object
 704              		.size	testthd2, 16
 705              	testthd2:
 706 0000 48000000 		.word	.LC30
 707 0004 00000000 		.word	0
 708 0008 00000000 		.word	0
 709 000c 00000000 		.word	thd2_execute
 710              		.section	.rodata.testthd3,"a",%progbits
 711              		.align	2
 712              		.type	testthd3, %object
 713              		.size	testthd3, 16
 714              	testthd3:
 715 0000 2C000000 		.word	.LC29
 716 0004 00000000 		.word	0
 717 0008 00000000 		.word	0
 718 000c 00000000 		.word	thd3_execute
 719              		.section	.rodata.testthd4,"a",%progbits
 720              		.align	2
 721              		.type	testthd4, %object
 722              		.size	testthd4, 16
 723              	testthd4:
 724 0000 1C000000 		.word	.LC28
 725 0004 00000000 		.word	0
 726 0008 00000000 		.word	0
 727 000c 00000000 		.word	thd4_execute
 728              		.section	.rodata.patternthd,"a",%progbits
 729              		.align	2
 730              		.type	patternthd, %object
 731              		.size	patternthd, 20
 732              	patternthd:
 733 0000 00000000 		.word	testthd1
 734 0004 00000000 		.word	testthd2
 735 0008 00000000 		.word	testthd3
 736 000c 00000000 		.word	testthd4
 737 0010 00000000 		.word	0
 738              		.section	.rodata.str1.4,"aMS",%progbits,1
 739              		.align	2
ARM GAS  /var/folders/qh/xwg3v3kj02qbxczjpdb8lzfr0000gn/T//cc8hBWfe.s 			page 14


 740              	.LC3:
 741 0000 4500     		.ascii	"E\000"
 742 0002 0000     		.space	2
 743              	.LC6:
 744 0004 4400     		.ascii	"D\000"
 745 0006 0000     		.space	2
 746              	.LC8:
 747 0008 4300     		.ascii	"C\000"
 748 000a 0000     		.space	2
 749              	.LC10:
 750 000c 4200     		.ascii	"B\000"
 751 000e 0000     		.space	2
 752              	.LC12:
 753 0010 4100     		.ascii	"A\000"
 754 0012 0000     		.space	2
 755              	.LC14:
 756 0014 41424344 		.ascii	"ABCDE\000"
 756      4500
 757 001a 0000     		.space	2
 758              	.LC28:
 759 001c 54687265 		.ascii	"Threads, delays\000"
 759      6164732C 
 759      2064656C 
 759      61797300 
 760              	.LC29:
 761 002c 54687265 		.ascii	"Threads, priority change\000"
 761      6164732C 
 761      20707269 
 761      6F726974 
 761      79206368 
 762 0045 000000   		.space	3
 763              	.LC30:
 764 0048 54687265 		.ascii	"Threads, enqueuing test #2\000"
 764      6164732C 
 764      20656E71 
 764      75657569 
 764      6E672074 
 765 0063 00       		.space	1
 766              	.LC31:
 767 0064 54687265 		.ascii	"Threads, enqueuing test #1\000"
 767      6164732C 
 767      20656E71 
 767      75657569 
 767      6E672074 
 768 007f 00       		.text
 769              	.Letext0:
 770              		.file 2 "/usr/local/Cellar/gcc-arm-none-eabi-48/20131218/lib/gcc/arm-none-eabi/4.8.3/include/stdde
 771              		.file 3 "/usr/local/Cellar/gcc-arm-none-eabi-48/20131218/arm-none-eabi/include/stdint.h"
 772              		.file 4 "../../os/ports/GCC/ARMCMx/chtypes.h"
 773              		.file 5 "../../os/kernel/include/chlists.h"
 774              		.file 6 "../../os/kernel/include/chthreads.h"
 775              		.file 7 "../../os/ports/GCC/ARMCMx/chcore_v6m.h"
 776              		.file 8 "../../os/kernel/include/chvt.h"
 777              		.file 9 "../../os/kernel/include/chschd.h"
 778              		.file 10 "../../os/kernel/include/chmtx.h"
 779              		.file 11 "../../test/test.h"
 780              		.file 12 "../../os/kernel/include/chdebug.h"
ARM GAS  /var/folders/qh/xwg3v3kj02qbxczjpdb8lzfr0000gn/T//cc8hBWfe.s 			page 15

