ARM GAS  /var/folders/qh/xwg3v3kj02qbxczjpdb8lzfr0000gn/T//ccuwC7Tn.s 			page 1


   1              		.cpu cortex-m0
   2              		.fpu softvfp
   3              		.eabi_attribute 20, 1
   4              		.eabi_attribute 21, 1
   5              		.eabi_attribute 23, 3
   6              		.eabi_attribute 24, 1
   7              		.eabi_attribute 25, 1
   8              		.eabi_attribute 26, 1
   9              		.eabi_attribute 30, 2
  10              		.eabi_attribute 34, 0
  11              		.eabi_attribute 18, 4
  12              		.code	16
  13              		.file	"testdyn.c"
  14              		.text
  15              	.Ltext0:
  16              		.cfi_sections	.debug_frame
  17              		.section	.text.dyn1_execute,"ax",%progbits
  18              		.align	2
  19              		.p2align 4,,15
  20              		.code	16
  21              		.thumb_func
  22              		.type	dyn1_execute, %function
  23              	dyn1_execute:
  24              	.LFB9:
  25              		.file 1 "../../test/testdyn.c"
  26              		.loc 1 83 0
  27              		.cfi_startproc
  28 0000 F0B5     		push	{r4, r5, r6, r7, lr}
  29              		.cfi_def_cfa_offset 20
  30              		.cfi_offset 4, -20
  31              		.cfi_offset 5, -16
  32              		.cfi_offset 6, -12
  33              		.cfi_offset 7, -8
  34              		.cfi_offset 14, -4
  35 0002 4746     		mov	r7, r8
  36 0004 80B4     		push	{r7}
  37              		.cfi_def_cfa_offset 24
  38              		.cfi_offset 8, -24
  39              		.loc 1 86 0
  40 0006 384B     		ldr	r3, .L12
  41              		.loc 1 88 0
  42 0008 384C     		ldr	r4, .L12+4
  43              		.loc 1 83 0
  44 000a 84B0     		sub	sp, sp, #16
  45              		.cfi_def_cfa_offset 40
  46              		.loc 1 86 0
  47 000c 9B69     		ldr	r3, [r3, #24]
  48              		.loc 1 88 0
  49 000e 03A9     		add	r1, sp, #12
  50 0010 201C     		mov	r0, r4
  51              		.loc 1 86 0
  52 0012 9F68     		ldr	r7, [r3, #8]
  53              	.LVL0:
  54              		.loc 1 88 0
  55 0014 FFF7FEFF 		bl	chHeapStatus
  56              	.LVL1:
  57              		.loc 1 90 0
ARM GAS  /var/folders/qh/xwg3v3kj02qbxczjpdb8lzfr0000gn/T//ccuwC7Tn.s 			page 2


  58 0018 354E     		ldr	r6, .L12+8
  59 001a 364B     		ldr	r3, .L12+12
  60 001c 9821     		mov	r1, #152
  61 001e 7A1E     		sub	r2, r7, #1
  62 0020 0093     		str	r3, [sp]
  63 0022 4900     		lsl	r1, r1, #1
  64 0024 331C     		mov	r3, r6
  65 0026 201C     		mov	r0, r4
  66 0028 FFF7FEFF 		bl	chThdCreateFromHeap
  67              	.LVL2:
  68 002c 324D     		ldr	r5, .L12+16
  69              		.loc 1 92 0
  70 002e 334B     		ldr	r3, .L12+20
  71 0030 9821     		mov	r1, #152
  72 0032 BA1E     		sub	r2, r7, #2
  73              		.loc 1 90 0
  74 0034 2860     		str	r0, [r5]
  75              		.loc 1 92 0
  76 0036 4900     		lsl	r1, r1, #1
  77 0038 0093     		str	r3, [sp]
  78 003a 201C     		mov	r0, r4
  79 003c 331C     		mov	r3, r6
  80 003e FFF7FEFF 		bl	chThdCreateFromHeap
  81              	.LVL3:
  82              		.loc 1 95 0
  83 0042 02A9     		add	r1, sp, #8
  84              		.loc 1 92 0
  85 0044 6860     		str	r0, [r5, #4]
  86              		.loc 1 95 0
  87 0046 201C     		mov	r0, r4
  88 0048 FFF7FEFF 		bl	chHeapStatus
  89              	.LVL4:
  90              		.loc 1 96 0
  91 004c 0299     		ldr	r1, [sp, #8]
  92 004e 201C     		mov	r0, r4
  93 0050 FFF7FEFF 		bl	chHeapAlloc
  94              	.LVL5:
  95              		.loc 1 97 0
  96 0054 2A4B     		ldr	r3, .L12+24
  97 0056 9821     		mov	r1, #152
  98 0058 FA1E     		sub	r2, r7, #3
  99              		.loc 1 96 0
 100 005a 8046     		mov	r8, r0
 101              	.LVL6:
 102              		.loc 1 97 0
 103 005c 0093     		str	r3, [sp]
 104 005e 4900     		lsl	r1, r1, #1
 105 0060 331C     		mov	r3, r6
 106 0062 201C     		mov	r0, r4
 107              	.LVL7:
 108 0064 FFF7FEFF 		bl	chThdCreateFromHeap
 109              	.LVL8:
 110 0068 A860     		str	r0, [r5, #8]
 111              		.loc 1 99 0
 112 006a 4046     		mov	r0, r8
 113 006c FFF7FEFF 		bl	chHeapFree
 114              	.LVL9:
ARM GAS  /var/folders/qh/xwg3v3kj02qbxczjpdb8lzfr0000gn/T//ccuwC7Tn.s 			page 3


 115              		.loc 1 101 0
 116 0070 2A68     		ldr	r2, [r5]
 117 0072 002A     		cmp	r2, #0
 118 0074 2ED0     		beq	.L5
 119              		.loc 1 101 0 is_stmt 0 discriminator 1
 120 0076 6B68     		ldr	r3, [r5, #4]
 121 0078 0021     		mov	r1, #0
 122 007a 002B     		cmp	r3, #0
 123 007c 02D0     		beq	.L2
 124 007e AA68     		ldr	r2, [r5, #8]
 125 0080 002A     		cmp	r2, #0
 126 0082 29D0     		beq	.L10
 127              	.L2:
 128              		.loc 1 101 0 discriminator 4
 129 0084 0120     		mov	r0, #1
 130 0086 FFF7FEFF 		bl	_test_assert
 131              	.LVL10:
 132 008a 0028     		cmp	r0, #0
 133 008c 03D0     		beq	.L11
 134              	.L1:
 135              		.loc 1 115 0 is_stmt 1
 136 008e 04B0     		add	sp, sp, #16
 137              		@ sp needed
 138              	.LVL11:
 139              	.LVL12:
 140 0090 04BC     		pop	{r2}
 141 0092 9046     		mov	r8, r2
 142 0094 F0BD     		pop	{r4, r5, r6, r7, pc}
 143              	.LVL13:
 144              	.L11:
 145              		.loc 1 109 0
 146 0096 FFF7FEFF 		bl	test_wait_threads
 147              	.LVL14:
 148              		.loc 1 110 0
 149 009a 0220     		mov	r0, #2
 150 009c 1949     		ldr	r1, .L12+28
 151 009e FFF7FEFF 		bl	_test_assert_sequence
 152              	.LVL15:
 153 00a2 0028     		cmp	r0, #0
 154 00a4 F3D1     		bne	.L1
 155              		.loc 1 113 0
 156 00a6 02A9     		add	r1, sp, #8
 157 00a8 201C     		mov	r0, r4
 158 00aa FFF7FEFF 		bl	chHeapStatus
 159              	.LVL16:
 160 00ae 411E     		sub	r1, r0, #1
 161 00b0 4B42     		neg	r3, r1
 162 00b2 5941     		adc	r1, r1, r3
 163 00b4 C9B2     		uxtb	r1, r1
 164 00b6 0320     		mov	r0, #3
 165 00b8 FFF7FEFF 		bl	_test_assert
 166              	.LVL17:
 167 00bc 0028     		cmp	r0, #0
 168 00be E6D1     		bne	.L1
 169              		.loc 1 114 0
 170 00c0 039B     		ldr	r3, [sp, #12]
 171 00c2 029A     		ldr	r2, [sp, #8]
ARM GAS  /var/folders/qh/xwg3v3kj02qbxczjpdb8lzfr0000gn/T//ccuwC7Tn.s 			page 4


 172 00c4 0420     		mov	r0, #4
 173 00c6 D11A     		sub	r1, r2, r3
 174 00c8 4B42     		neg	r3, r1
 175 00ca 5941     		adc	r1, r1, r3
 176 00cc C9B2     		uxtb	r1, r1
 177 00ce FFF7FEFF 		bl	_test_assert
 178              	.LVL18:
 179 00d2 DCE7     		b	.L1
 180              	.L5:
 181 00d4 0021     		mov	r1, #0
 182 00d6 D5E7     		b	.L2
 183              	.L10:
 184              		.loc 1 101 0 discriminator 1
 185 00d8 EB68     		ldr	r3, [r5, #12]
 186 00da 002B     		cmp	r3, #0
 187 00dc D2D1     		bne	.L2
 188 00de 2969     		ldr	r1, [r5, #16]
 189 00e0 4B42     		neg	r3, r1
 190 00e2 5941     		adc	r1, r1, r3
 191 00e4 C9B2     		uxtb	r1, r1
 192 00e6 CDE7     		b	.L2
 193              	.L13:
 194              		.align	2
 195              	.L12:
 196 00e8 00000000 		.word	rlist
 197 00ec 00000000 		.word	.LANCHOR0
 198 00f0 00000000 		.word	thread
 199 00f4 00000000 		.word	.LC3
 200 00f8 00000000 		.word	threads
 201 00fc 04000000 		.word	.LC6
 202 0100 08000000 		.word	.LC8
 203 0104 0C000000 		.word	.LC10
 204              		.cfi_endproc
 205              	.LFE9:
 206              		.size	dyn1_execute, .-dyn1_execute
 207 0108 C046C046 		.section	.text.thread,"ax",%progbits
 207      C046C046 
 208              		.align	2
 209              		.p2align 4,,15
 210              		.code	16
 211              		.thumb_func
 212              		.type	thread, %function
 213              	thread:
 214              	.LFB7:
 215              		.loc 1 71 0
 216              		.cfi_startproc
 217              	.LVL19:
 218 0000 08B5     		push	{r3, lr}
 219              		.cfi_def_cfa_offset 8
 220              		.cfi_offset 3, -8
 221              		.cfi_offset 14, -4
 222              		.loc 1 73 0
 223 0002 0078     		ldrb	r0, [r0]
 224              	.LVL20:
 225 0004 FFF7FEFF 		bl	test_emit_token
 226              	.LVL21:
 227              		.loc 1 75 0
ARM GAS  /var/folders/qh/xwg3v3kj02qbxczjpdb8lzfr0000gn/T//ccuwC7Tn.s 			page 5


 228              		@ sp needed
 229 0008 0020     		mov	r0, #0
 230 000a 08BD     		pop	{r3, pc}
 231              		.cfi_endproc
 232              	.LFE7:
 233              		.size	thread, .-thread
 234 000c C046C046 		.section	.text.dyn1_setup,"ax",%progbits
 235              		.align	2
 236              		.p2align 4,,15
 237              		.code	16
 238              		.thumb_func
 239              		.type	dyn1_setup, %function
 240              	dyn1_setup:
 241              	.LFB8:
 242              		.loc 1 78 0
 243              		.cfi_startproc
 244 0000 08B5     		push	{r3, lr}
 245              		.cfi_def_cfa_offset 8
 246              		.cfi_offset 3, -8
 247              		.cfi_offset 14, -4
 248              		.loc 1 80 0
 249 0002 BE22     		mov	r2, #190
 250 0004 0248     		ldr	r0, .L16
 251 0006 0349     		ldr	r1, .L16+4
 252 0008 D200     		lsl	r2, r2, #3
 253 000a FFF7FEFF 		bl	chHeapInit
 254              	.LVL22:
 255              		.loc 1 81 0
 256              		@ sp needed
 257 000e 08BD     		pop	{r3, pc}
 258              	.L17:
 259              		.align	2
 260              	.L16:
 261 0010 00000000 		.word	.LANCHOR0
 262 0014 00000000 		.word	test
 263              		.cfi_endproc
 264              	.LFE8:
 265              		.size	dyn1_setup, .-dyn1_setup
 266 0018 C046C046 		.section	.text.dyn3_setup,"ax",%progbits
 266      C046C046 
 267              		.align	2
 268              		.p2align 4,,15
 269              		.code	16
 270              		.thumb_func
 271              		.type	dyn3_setup, %function
 272              	dyn3_setup:
 273              	.LFB13:
 274              		.loc 1 203 0
 275              		.cfi_startproc
 276 0000 08B5     		push	{r3, lr}
 277              		.cfi_def_cfa_offset 8
 278              		.cfi_offset 3, -8
 279              		.cfi_offset 14, -4
 280              		.loc 1 205 0
 281 0002 BE22     		mov	r2, #190
 282 0004 0248     		ldr	r0, .L19
 283 0006 0349     		ldr	r1, .L19+4
ARM GAS  /var/folders/qh/xwg3v3kj02qbxczjpdb8lzfr0000gn/T//ccuwC7Tn.s 			page 6


 284 0008 D200     		lsl	r2, r2, #3
 285 000a FFF7FEFF 		bl	chHeapInit
 286              	.LVL23:
 287              		.loc 1 206 0
 288              		@ sp needed
 289 000e 08BD     		pop	{r3, pc}
 290              	.L20:
 291              		.align	2
 292              	.L19:
 293 0010 00000000 		.word	.LANCHOR0
 294 0014 00000000 		.word	test
 295              		.cfi_endproc
 296              	.LFE13:
 297              		.size	dyn3_setup, .-dyn3_setup
 298 0018 C046C046 		.section	.text.dyn2_execute,"ax",%progbits
 298      C046C046 
 299              		.align	2
 300              		.p2align 4,,15
 301              		.code	16
 302              		.thumb_func
 303              		.type	dyn2_execute, %function
 304              	dyn2_execute:
 305              	.LFB11:
 306              		.loc 1 141 0
 307              		.cfi_startproc
 308 0000 F8B5     		push	{r3, r4, r5, r6, r7, lr}
 309              		.cfi_def_cfa_offset 24
 310              		.cfi_offset 3, -24
 311              		.cfi_offset 4, -20
 312              		.cfi_offset 5, -16
 313              		.cfi_offset 6, -12
 314              		.cfi_offset 7, -8
 315              		.cfi_offset 14, -4
 316              		.loc 1 143 0
 317 0002 374B     		ldr	r3, .L35
 318 0004 374C     		ldr	r4, .L35+4
 319 0006 9B69     		ldr	r3, [r3, #24]
 320 0008 261C     		mov	r6, r4
 321 000a 9F68     		ldr	r7, [r3, #8]
 322              	.LVL24:
 323 000c 364D     		ldr	r5, .L35+8
 324 000e 1036     		add	r6, r6, #16
 325              	.LVL25:
 326              	.L23:
 327              		.loc 1 147 0 discriminator 2
 328 0010 02CC     		ldmia	r4!, {r1}
 329 0012 281C     		mov	r0, r5
 330 0014 FFF7FEFF 		bl	chPoolFree
 331              	.LVL26:
 332              		.loc 1 146 0 discriminator 2
 333 0018 B442     		cmp	r4, r6
 334 001a F9D1     		bne	.L23
 335              		.loc 1 150 0
 336 001c 334E     		ldr	r6, .L35+12
 337 001e 791E     		sub	r1, r7, #1
 338 0020 321C     		mov	r2, r6
 339 0022 334B     		ldr	r3, .L35+16
ARM GAS  /var/folders/qh/xwg3v3kj02qbxczjpdb8lzfr0000gn/T//ccuwC7Tn.s 			page 7


 340 0024 281C     		mov	r0, r5
 341 0026 FFF7FEFF 		bl	chThdCreateFromMemoryPool
 342              	.LVL27:
 343 002a 324C     		ldr	r4, .L35+20
 344              		.loc 1 151 0
 345 002c B91E     		sub	r1, r7, #2
 346              		.loc 1 150 0
 347 002e 2060     		str	r0, [r4]
 348              		.loc 1 151 0
 349 0030 321C     		mov	r2, r6
 350 0032 314B     		ldr	r3, .L35+24
 351 0034 281C     		mov	r0, r5
 352 0036 FFF7FEFF 		bl	chThdCreateFromMemoryPool
 353              	.LVL28:
 354              		.loc 1 152 0
 355 003a F91E     		sub	r1, r7, #3
 356              		.loc 1 151 0
 357 003c 6060     		str	r0, [r4, #4]
 358              		.loc 1 152 0
 359 003e 321C     		mov	r2, r6
 360 0040 2E4B     		ldr	r3, .L35+28
 361 0042 281C     		mov	r0, r5
 362 0044 FFF7FEFF 		bl	chThdCreateFromMemoryPool
 363              	.LVL29:
 364              		.loc 1 153 0
 365 0048 391F     		sub	r1, r7, #4
 366              		.loc 1 152 0
 367 004a A060     		str	r0, [r4, #8]
 368              		.loc 1 153 0
 369 004c 321C     		mov	r2, r6
 370 004e 2C4B     		ldr	r3, .L35+32
 371 0050 281C     		mov	r0, r5
 372 0052 FFF7FEFF 		bl	chThdCreateFromMemoryPool
 373              	.LVL30:
 374              		.loc 1 154 0
 375 0056 2B4B     		ldr	r3, .L35+36
 376              		.loc 1 153 0
 377 0058 E060     		str	r0, [r4, #12]
 378              		.loc 1 154 0
 379 005a 791F     		sub	r1, r7, #5
 380 005c 281C     		mov	r0, r5
 381 005e 321C     		mov	r2, r6
 382 0060 FFF7FEFF 		bl	chThdCreateFromMemoryPool
 383              	.LVL31:
 384              		.loc 1 156 0
 385 0064 2368     		ldr	r3, [r4]
 386              		.loc 1 154 0
 387 0066 2061     		str	r0, [r4, #16]
 388              		.loc 1 156 0
 389 0068 002B     		cmp	r3, #0
 390 006a 11D0     		beq	.L33
 391              		.loc 1 156 0 is_stmt 0 discriminator 1
 392 006c 6368     		ldr	r3, [r4, #4]
 393 006e 002B     		cmp	r3, #0
 394 0070 0ED0     		beq	.L33
 395 0072 A368     		ldr	r3, [r4, #8]
 396 0074 002B     		cmp	r3, #0
ARM GAS  /var/folders/qh/xwg3v3kj02qbxczjpdb8lzfr0000gn/T//ccuwC7Tn.s 			page 8


 397 0076 0BD0     		beq	.L33
 398 0078 E368     		ldr	r3, [r4, #12]
 399 007a 002B     		cmp	r3, #0
 400 007c 08D0     		beq	.L33
 401 007e 4142     		neg	r1, r0
 402 0080 4141     		adc	r1, r1, r0
 403 0082 C9B2     		uxtb	r1, r1
 404 0084 0120     		mov	r0, #1
 405 0086 FFF7FEFF 		bl	_test_assert
 406              	.LVL32:
 407 008a 0028     		cmp	r0, #0
 408 008c 06D0     		beq	.L34
 409              	.L21:
 410              		.loc 1 171 0 is_stmt 1
 411              		@ sp needed
 412              	.LVL33:
 413 008e F8BD     		pop	{r3, r4, r5, r6, r7, pc}
 414              	.LVL34:
 415              	.L33:
 416 0090 0021     		mov	r1, #0
 417              		.loc 1 156 0
 418 0092 0120     		mov	r0, #1
 419 0094 FFF7FEFF 		bl	_test_assert
 420              	.LVL35:
 421 0098 0028     		cmp	r0, #0
 422 009a F8D1     		bne	.L21
 423              	.L34:
 424              		.loc 1 164 0
 425 009c FFF7FEFF 		bl	test_wait_threads
 426              	.LVL36:
 427              		.loc 1 165 0
 428 00a0 0220     		mov	r0, #2
 429 00a2 1949     		ldr	r1, .L35+40
 430 00a4 FFF7FEFF 		bl	_test_assert_sequence
 431              	.LVL37:
 432 00a8 0028     		cmp	r0, #0
 433 00aa F0D1     		bne	.L21
 434 00ac 0424     		mov	r4, #4
 435              	.L29:
 436              	.LVL38:
 437              		.loc 1 169 0
 438 00ae 281C     		mov	r0, r5
 439 00b0 FFF7FEFF 		bl	chPoolAlloc
 440              	.LVL39:
 441 00b4 011C     		mov	r1, r0
 442 00b6 481E     		sub	r0, r1, #1
 443 00b8 8141     		sbc	r1, r1, r0
 444 00ba C9B2     		uxtb	r1, r1
 445 00bc 0320     		mov	r0, #3
 446 00be FFF7FEFF 		bl	_test_assert
 447              	.LVL40:
 448 00c2 0028     		cmp	r0, #0
 449 00c4 E3D1     		bne	.L21
 450              	.LVL41:
 451 00c6 013C     		sub	r4, r4, #1
 452              	.LVL42:
 453              		.loc 1 168 0
ARM GAS  /var/folders/qh/xwg3v3kj02qbxczjpdb8lzfr0000gn/T//ccuwC7Tn.s 			page 9


 454 00c8 002C     		cmp	r4, #0
 455 00ca F0D1     		bne	.L29
 456              		.loc 1 170 0
 457 00cc 281C     		mov	r0, r5
 458 00ce FFF7FEFF 		bl	chPoolAlloc
 459              	.LVL43:
 460 00d2 4142     		neg	r1, r0
 461 00d4 4141     		adc	r1, r1, r0
 462 00d6 C9B2     		uxtb	r1, r1
 463 00d8 0420     		mov	r0, #4
 464 00da FFF7FEFF 		bl	_test_assert
 465              	.LVL44:
 466 00de D6E7     		b	.L21
 467              	.L36:
 468              		.align	2
 469              	.L35:
 470 00e0 00000000 		.word	rlist
 471 00e4 00000000 		.word	wa
 472 00e8 00000000 		.word	.LANCHOR1
 473 00ec 00000000 		.word	thread
 474 00f0 00000000 		.word	.LC3
 475 00f4 00000000 		.word	threads
 476 00f8 04000000 		.word	.LC6
 477 00fc 08000000 		.word	.LC8
 478 0100 10000000 		.word	.LC26
 479 0104 14000000 		.word	.LC28
 480 0108 18000000 		.word	.LC30
 481              		.cfi_endproc
 482              	.LFE11:
 483              		.size	dyn2_execute, .-dyn2_execute
 484              		.section	.text.dyn2_setup,"ax",%progbits
 485              		.align	2
 486              		.p2align 4,,15
 487              		.code	16
 488              		.thumb_func
 489              		.type	dyn2_setup, %function
 490              	dyn2_setup:
 491              	.LFB10:
 492              		.loc 1 136 0
 493              		.cfi_startproc
 494 0000 08B5     		push	{r3, lr}
 495              		.cfi_def_cfa_offset 8
 496              		.cfi_offset 3, -8
 497              		.cfi_offset 14, -4
 498              		.loc 1 138 0
 499 0002 9821     		mov	r1, #152
 500 0004 0248     		ldr	r0, .L38
 501 0006 4900     		lsl	r1, r1, #1
 502 0008 0022     		mov	r2, #0
 503 000a FFF7FEFF 		bl	chPoolInit
 504              	.LVL45:
 505              		.loc 1 139 0
 506              		@ sp needed
 507 000e 08BD     		pop	{r3, pc}
 508              	.L39:
 509              		.align	2
 510              	.L38:
ARM GAS  /var/folders/qh/xwg3v3kj02qbxczjpdb8lzfr0000gn/T//ccuwC7Tn.s 			page 10


 511 0010 00000000 		.word	.LANCHOR1
 512              		.cfi_endproc
 513              	.LFE10:
 514              		.size	dyn2_setup, .-dyn2_setup
 515 0014 C046C046 		.section	.text.regfind,"ax",%progbits
 515      C046C046 
 515      C046C046 
 516              		.align	2
 517              		.p2align 4,,15
 518              		.code	16
 519              		.thumb_func
 520              		.type	regfind, %function
 521              	regfind:
 522              	.LFB12:
 523              		.loc 1 191 0
 524              		.cfi_startproc
 525              	.LVL46:
 526 0000 38B5     		push	{r3, r4, r5, lr}
 527              		.cfi_def_cfa_offset 16
 528              		.cfi_offset 3, -16
 529              		.cfi_offset 4, -12
 530              		.cfi_offset 5, -8
 531              		.cfi_offset 14, -4
 532              		.loc 1 191 0
 533 0002 051C     		mov	r5, r0
 534              		.loc 1 195 0
 535 0004 FFF7FEFF 		bl	chRegFirstThread
 536              	.LVL47:
 537              		.loc 1 193 0
 538 0008 0024     		mov	r4, #0
 539              	.LVL48:
 540              	.L42:
 541              		.loc 1 197 0 discriminator 1
 542 000a 431B     		sub	r3, r0, r5
 543 000c 5A42     		neg	r2, r3
 544 000e 5341     		adc	r3, r3, r2
 545 0010 1C43     		orr	r4, r3
 546              	.LVL49:
 547              		.loc 1 198 0 discriminator 1
 548 0012 FFF7FEFF 		bl	chRegNextThread
 549              	.LVL50:
 550              		.loc 1 199 0 discriminator 1
 551 0016 0028     		cmp	r0, #0
 552 0018 F7D1     		bne	.L42
 553              		.loc 1 201 0
 554 001a 201C     		mov	r0, r4
 555              	.LVL51:
 556              		@ sp needed
 557              	.LVL52:
 558              	.LVL53:
 559 001c 38BD     		pop	{r3, r4, r5, pc}
 560              		.cfi_endproc
 561              	.LFE12:
 562              		.size	regfind, .-regfind
 563 001e C046     		.section	.text.dyn3_execute,"ax",%progbits
 564              		.align	2
 565              		.p2align 4,,15
ARM GAS  /var/folders/qh/xwg3v3kj02qbxczjpdb8lzfr0000gn/T//ccuwC7Tn.s 			page 11


 566              		.code	16
 567              		.thumb_func
 568              		.type	dyn3_execute, %function
 569              	dyn3_execute:
 570              	.LFB14:
 571              		.loc 1 208 0
 572              		.cfi_startproc
 573              	.LVL54:
 574 0000 10B5     		push	{r4, lr}
 575              		.cfi_def_cfa_offset 8
 576              		.cfi_offset 4, -8
 577              		.cfi_offset 14, -4
 578              		.loc 1 210 0
 579 0002 474B     		ldr	r3, .L48
 580              		.loc 1 208 0
 581 0004 82B0     		sub	sp, sp, #8
 582              		.cfi_def_cfa_offset 16
 583              		.loc 1 210 0
 584 0006 9B69     		ldr	r3, [r3, #24]
 585              		.loc 1 213 0
 586 0008 9821     		mov	r1, #152
 587 000a 9A68     		ldr	r2, [r3, #8]
 588 000c 454B     		ldr	r3, .L48+4
 589 000e 4900     		lsl	r1, r1, #1
 590 0010 0093     		str	r3, [sp]
 591              	.LVL55:
 592 0012 013A     		sub	r2, r2, #1
 593 0014 444B     		ldr	r3, .L48+8
 594 0016 4548     		ldr	r0, .L48+12
 595 0018 FFF7FEFF 		bl	chThdCreateFromHeap
 596              	.LVL56:
 597              		.loc 1 214 0
 598 001c 817F     		ldrb	r1, [r0, #30]
 599              		.loc 1 213 0
 600 001e 041C     		mov	r4, r0
 601              	.LVL57:
 602              		.loc 1 214 0
 603 0020 0139     		sub	r1, r1, #1
 604 0022 4B42     		neg	r3, r1
 605 0024 5941     		adc	r1, r1, r3
 606 0026 C9B2     		uxtb	r1, r1
 607 0028 0120     		mov	r0, #1
 608              	.LVL58:
 609 002a FFF7FEFF 		bl	_test_assert
 610              	.LVL59:
 611 002e 0028     		cmp	r0, #0
 612 0030 01D0     		beq	.L47
 613              	.L43:
 614              		.loc 1 236 0
 615 0032 02B0     		add	sp, sp, #8
 616              		@ sp needed
 617              	.LVL60:
 618 0034 10BD     		pop	{r4, pc}
 619              	.LVL61:
 620              	.L47:
 621              		.loc 1 215 0
 622 0036 201C     		mov	r0, r4
ARM GAS  /var/folders/qh/xwg3v3kj02qbxczjpdb8lzfr0000gn/T//ccuwC7Tn.s 			page 12


 623 0038 FFF7FEFF 		bl	chThdAddRef
 624              	.LVL62:
 625              		.loc 1 216 0
 626 003c A17F     		ldrb	r1, [r4, #30]
 627 003e 0220     		mov	r0, #2
 628 0040 0239     		sub	r1, r1, #2
 629 0042 4B42     		neg	r3, r1
 630 0044 5941     		adc	r1, r1, r3
 631 0046 C9B2     		uxtb	r1, r1
 632 0048 FFF7FEFF 		bl	_test_assert
 633              	.LVL63:
 634 004c 0028     		cmp	r0, #0
 635 004e F0D1     		bne	.L43
 636              		.loc 1 217 0
 637 0050 201C     		mov	r0, r4
 638 0052 FFF7FEFF 		bl	chThdRelease
 639              	.LVL64:
 640              		.loc 1 218 0
 641 0056 A17F     		ldrb	r1, [r4, #30]
 642 0058 0320     		mov	r0, #3
 643 005a 0139     		sub	r1, r1, #1
 644 005c 4B42     		neg	r3, r1
 645 005e 5941     		adc	r1, r1, r3
 646 0060 C9B2     		uxtb	r1, r1
 647 0062 FFF7FEFF 		bl	_test_assert
 648              	.LVL65:
 649 0066 0028     		cmp	r0, #0
 650 0068 E3D1     		bne	.L43
 651              		.loc 1 221 0
 652 006a 201C     		mov	r0, r4
 653 006c FFF7FEFF 		bl	regfind
 654              	.LVL66:
 655 0070 011C     		mov	r1, r0
 656 0072 0420     		mov	r0, #4
 657 0074 FFF7FEFF 		bl	_test_assert
 658              	.LVL67:
 659 0078 0028     		cmp	r0, #0
 660 007a DAD1     		bne	.L43
 661              		.loc 1 222 0
 662 007c 201C     		mov	r0, r4
 663 007e FFF7FEFF 		bl	regfind
 664              	.LVL68:
 665 0082 011C     		mov	r1, r0
 666 0084 0520     		mov	r0, #5
 667 0086 FFF7FEFF 		bl	_test_assert
 668              	.LVL69:
 669 008a 0028     		cmp	r0, #0
 670 008c D1D1     		bne	.L43
 671              		.loc 1 225 0
 672 008e 201C     		mov	r0, r4
 673 0090 FFF7FEFF 		bl	chThdRelease
 674              	.LVL70:
 675              		.loc 1 226 0
 676 0094 A17F     		ldrb	r1, [r4, #30]
 677 0096 0620     		mov	r0, #6
 678 0098 4B42     		neg	r3, r1
 679 009a 5941     		adc	r1, r1, r3
ARM GAS  /var/folders/qh/xwg3v3kj02qbxczjpdb8lzfr0000gn/T//ccuwC7Tn.s 			page 13


 680 009c C9B2     		uxtb	r1, r1
 681 009e FFF7FEFF 		bl	_test_assert
 682              	.LVL71:
 683 00a2 0028     		cmp	r0, #0
 684 00a4 C5D1     		bne	.L43
 685              		.loc 1 227 0
 686 00a6 217F     		ldrb	r1, [r4, #28]
 687 00a8 0720     		mov	r0, #7
 688 00aa 4B42     		neg	r3, r1
 689 00ac 5941     		adc	r1, r1, r3
 690 00ae C9B2     		uxtb	r1, r1
 691 00b0 FFF7FEFF 		bl	_test_assert
 692              	.LVL72:
 693 00b4 0028     		cmp	r0, #0
 694 00b6 BCD1     		bne	.L43
 695              		.loc 1 228 0
 696 00b8 201C     		mov	r0, r4
 697 00ba FFF7FEFF 		bl	regfind
 698              	.LVL73:
 699 00be 011C     		mov	r1, r0
 700 00c0 0820     		mov	r0, #8
 701 00c2 FFF7FEFF 		bl	_test_assert
 702              	.LVL74:
 703 00c6 0028     		cmp	r0, #0
 704 00c8 B3D1     		bne	.L43
 705              		.loc 1 229 0
 706 00ca 201C     		mov	r0, r4
 707 00cc FFF7FEFF 		bl	regfind
 708              	.LVL75:
 709 00d0 011C     		mov	r1, r0
 710 00d2 0920     		mov	r0, #9
 711 00d4 FFF7FEFF 		bl	_test_assert
 712              	.LVL76:
 713 00d8 0028     		cmp	r0, #0
 714 00da AAD1     		bne	.L43
 715              		.loc 1 230 0
 716 00dc 3220     		mov	r0, #50
 717 00de FFF7FEFF 		bl	chThdSleep
 718              	.LVL77:
 719              		.loc 1 231 0
 720 00e2 217F     		ldrb	r1, [r4, #28]
 721 00e4 0A20     		mov	r0, #10
 722 00e6 0E39     		sub	r1, r1, #14
 723 00e8 4B42     		neg	r3, r1
 724 00ea 5941     		adc	r1, r1, r3
 725 00ec C9B2     		uxtb	r1, r1
 726 00ee FFF7FEFF 		bl	_test_assert
 727              	.LVL78:
 728 00f2 0028     		cmp	r0, #0
 729 00f4 9DD1     		bne	.L43
 730              		.loc 1 234 0
 731 00f6 201C     		mov	r0, r4
 732 00f8 FFF7FEFF 		bl	regfind
 733              	.LVL79:
 734 00fc 011C     		mov	r1, r0
 735 00fe 0B20     		mov	r0, #11
 736 0100 FFF7FEFF 		bl	_test_assert
ARM GAS  /var/folders/qh/xwg3v3kj02qbxczjpdb8lzfr0000gn/T//ccuwC7Tn.s 			page 14


 737              	.LVL80:
 738 0104 0028     		cmp	r0, #0
 739 0106 00D0     		beq	.LCB633
 740 0108 93E7     		b	.L43	@long jump
 741              	.LCB633:
 742              		.loc 1 235 0
 743 010a 201C     		mov	r0, r4
 744 010c FFF7FEFF 		bl	regfind
 745              	.LVL81:
 746 0110 0121     		mov	r1, #1
 747 0112 4140     		eor	r1, r0
 748 0114 C9B2     		uxtb	r1, r1
 749 0116 0C20     		mov	r0, #12
 750 0118 FFF7FEFF 		bl	_test_assert
 751              	.LVL82:
 752 011c 89E7     		b	.L43
 753              	.L49:
 754 011e C046     		.align	2
 755              	.L48:
 756 0120 00000000 		.word	rlist
 757 0124 00000000 		.word	.LC3
 758 0128 00000000 		.word	thread
 759 012c 00000000 		.word	.LANCHOR0
 760              		.cfi_endproc
 761              	.LFE14:
 762              		.size	dyn3_execute, .-dyn3_execute
 763              		.global	patterndyn
 764              		.global	testdyn3
 765              		.global	testdyn2
 766              		.global	testdyn1
 767              		.section	.rodata.testdyn1,"a",%progbits
 768              		.align	2
 769              		.type	testdyn1, %object
 770              		.size	testdyn1, 16
 771              	testdyn1:
 772 0000 78000000 		.word	.LC40
 773 0004 00000000 		.word	dyn1_setup
 774 0008 00000000 		.word	0
 775 000c 00000000 		.word	dyn1_execute
 776              		.section	.rodata.testdyn2,"a",%progbits
 777              		.align	2
 778              		.type	testdyn2, %object
 779              		.size	testdyn2, 16
 780              	testdyn2:
 781 0000 48000000 		.word	.LC39
 782 0004 00000000 		.word	dyn2_setup
 783 0008 00000000 		.word	0
 784 000c 00000000 		.word	dyn2_execute
 785              		.section	.rodata.testdyn3,"a",%progbits
 786              		.align	2
 787              		.type	testdyn3, %object
 788              		.size	testdyn3, 16
 789              	testdyn3:
 790 0000 20000000 		.word	.LC38
 791 0004 00000000 		.word	dyn3_setup
 792 0008 00000000 		.word	0
 793 000c 00000000 		.word	dyn3_execute
ARM GAS  /var/folders/qh/xwg3v3kj02qbxczjpdb8lzfr0000gn/T//ccuwC7Tn.s 			page 15


 794              		.section	.bss.mp1,"aw",%nobits
 795              		.align	2
 796              		.set	.LANCHOR1,. + 0
 797              		.type	mp1, %object
 798              		.size	mp1, 12
 799              	mp1:
 800 0000 00000000 		.space	12
 800      00000000 
 800      00000000 
 801              		.section	.rodata.str1.4,"aMS",%progbits,1
 802              		.align	2
 803              	.LC3:
 804 0000 4100     		.ascii	"A\000"
 805 0002 0000     		.space	2
 806              	.LC6:
 807 0004 4200     		.ascii	"B\000"
 808 0006 0000     		.space	2
 809              	.LC8:
 810 0008 4300     		.ascii	"C\000"
 811 000a 0000     		.space	2
 812              	.LC10:
 813 000c 414200   		.ascii	"AB\000"
 814 000f 00       		.space	1
 815              	.LC26:
 816 0010 4400     		.ascii	"D\000"
 817 0012 0000     		.space	2
 818              	.LC28:
 819 0014 4500     		.ascii	"E\000"
 820 0016 0000     		.space	2
 821              	.LC30:
 822 0018 41424344 		.ascii	"ABCD\000"
 822      00
 823 001d 000000   		.space	3
 824              	.LC38:
 825 0020 44796E61 		.ascii	"Dynamic APIs, registry and references\000"
 825      6D696320 
 825      41504973 
 825      2C207265 
 825      67697374 
 826 0046 0000     		.space	2
 827              	.LC39:
 828 0048 44796E61 		.ascii	"Dynamic APIs, threads creation from memory pool\000"
 828      6D696320 
 828      41504973 
 828      2C207468 
 828      72656164 
 829              	.LC40:
 830 0078 44796E61 		.ascii	"Dynamic APIs, threads creation from heap\000"
 830      6D696320 
 830      41504973 
 830      2C207468 
 830      72656164 
 831 00a1 000000   		.section	.rodata.patterndyn,"a",%progbits
 832              		.align	2
 833              		.type	patterndyn, %object
 834              		.size	patterndyn, 16
 835              	patterndyn:
ARM GAS  /var/folders/qh/xwg3v3kj02qbxczjpdb8lzfr0000gn/T//ccuwC7Tn.s 			page 16


 836 0000 00000000 		.word	testdyn1
 837 0004 00000000 		.word	testdyn2
 838 0008 00000000 		.word	testdyn3
 839 000c 00000000 		.word	0
 840              		.section	.bss.heap1,"aw",%nobits
 841              		.align	3
 842              		.set	.LANCHOR0,. + 0
 843              		.type	heap1, %object
 844              		.size	heap1, 32
 845              	heap1:
 846 0000 00000000 		.space	32
 846      00000000 
 846      00000000 
 846      00000000 
 846      00000000 
 847              		.text
 848              	.Letext0:
 849              		.file 2 "/usr/local/Cellar/gcc-arm-none-eabi-48/20131218/lib/gcc/arm-none-eabi/4.8.3/include/stdde
 850              		.file 3 "/usr/local/Cellar/gcc-arm-none-eabi-48/20131218/arm-none-eabi/include/stdint.h"
 851              		.file 4 "../../os/ports/GCC/ARMCMx/chtypes.h"
 852              		.file 5 "../../os/kernel/include/chlists.h"
 853              		.file 6 "../../os/kernel/include/chthreads.h"
 854              		.file 7 "../../os/ports/GCC/ARMCMx/chcore_v6m.h"
 855              		.file 8 "../../os/kernel/include/chschd.h"
 856              		.file 9 "../../os/kernel/include/chmtx.h"
 857              		.file 10 "../../os/kernel/include/chmemcore.h"
 858              		.file 11 "../../os/kernel/include/chheap.h"
 859              		.file 12 "../../os/kernel/include/chmempools.h"
 860              		.file 13 "../../test/test.h"
 861              		.file 14 "../../os/kernel/include/chdynamic.h"
 862              		.file 15 "../../os/kernel/include/chregistry.h"
 863              		.section	.debug_info,"",%progbits
 864              	.Ldebug_info0:
 865 0000 050F0000 		.4byte	0xf05
 866 0004 0400     		.2byte	0x4
 867 0006 00000000 		.4byte	.Ldebug_abbrev0
 868 000a 04       		.byte	0x4
 869 000b 01       		.uleb128 0x1
 870 000c 8F020000 		.4byte	.LASF125
 871 0010 01       		.byte	0x1
 872 0011 60050000 		.4byte	.LASF126
 873 0015 C0010000 		.4byte	.LASF127
 874 0019 00000000 		.4byte	.Ldebug_ranges0+0
 875 001d 00000000 		.4byte	0
 876 0021 00000000 		.4byte	.Ldebug_line0
 877 0025 02       		.uleb128 0x2
 878 0026 04       		.byte	0x4
 879 0027 05       		.byte	0x5
 880 0028 696E7400 		.ascii	"int\000"
 881 002c 03       		.uleb128 0x3
 882 002d 0E000000 		.4byte	.LASF2
 883 0031 02       		.byte	0x2
 884 0032 D4       		.byte	0xd4
 885 0033 37000000 		.4byte	0x37
 886 0037 04       		.uleb128 0x4
 887 0038 04       		.byte	0x4
 888 0039 07       		.byte	0x7
ARM GAS  /var/folders/qh/xwg3v3kj02qbxczjpdb8lzfr0000gn/T//ccuwC7Tn.s 			page 17


 889 003a 88010000 		.4byte	.LASF0
 890 003e 04       		.uleb128 0x4
 891 003f 01       		.byte	0x1
 892 0040 06       		.byte	0x6
 893 0041 BA000000 		.4byte	.LASF1
 894 0045 03       		.uleb128 0x3
 895 0046 B3050000 		.4byte	.LASF3
 896 004a 03       		.byte	0x3
 897 004b 2A       		.byte	0x2a
 898 004c 50000000 		.4byte	0x50
 899 0050 04       		.uleb128 0x4
 900 0051 01       		.byte	0x1
 901 0052 08       		.byte	0x8
 902 0053 15040000 		.4byte	.LASF4
 903 0057 04       		.uleb128 0x4
 904 0058 02       		.byte	0x2
 905 0059 05       		.byte	0x5
 906 005a 38040000 		.4byte	.LASF5
 907 005e 04       		.uleb128 0x4
 908 005f 02       		.byte	0x2
 909 0060 07       		.byte	0x7
 910 0061 08020000 		.4byte	.LASF6
 911 0065 03       		.uleb128 0x3
 912 0066 0D040000 		.4byte	.LASF7
 913 006a 03       		.byte	0x3
 914 006b 4F       		.byte	0x4f
 915 006c 70000000 		.4byte	0x70
 916 0070 04       		.uleb128 0x4
 917 0071 04       		.byte	0x4
 918 0072 05       		.byte	0x5
 919 0073 08010000 		.4byte	.LASF8
 920 0077 03       		.uleb128 0x3
 921 0078 C4040000 		.4byte	.LASF9
 922 007c 03       		.byte	0x3
 923 007d 50       		.byte	0x50
 924 007e 82000000 		.4byte	0x82
 925 0082 04       		.uleb128 0x4
 926 0083 04       		.byte	0x4
 927 0084 07       		.byte	0x7
 928 0085 95010000 		.4byte	.LASF10
 929 0089 04       		.uleb128 0x4
 930 008a 08       		.byte	0x8
 931 008b 05       		.byte	0x5
 932 008c AC000000 		.4byte	.LASF11
 933 0090 03       		.uleb128 0x3
 934 0091 21000000 		.4byte	.LASF12
 935 0095 03       		.byte	0x3
 936 0096 78       		.byte	0x78
 937 0097 9B000000 		.4byte	0x9b
 938 009b 04       		.uleb128 0x4
 939 009c 08       		.byte	0x8
 940 009d 07       		.byte	0x7
 941 009e 42000000 		.4byte	.LASF13
 942 00a2 03       		.uleb128 0x3
 943 00a3 D4000000 		.4byte	.LASF14
 944 00a7 04       		.byte	0x4
 945 00a8 24       		.byte	0x24
ARM GAS  /var/folders/qh/xwg3v3kj02qbxczjpdb8lzfr0000gn/T//ccuwC7Tn.s 			page 18


 946 00a9 AD000000 		.4byte	0xad
 947 00ad 04       		.uleb128 0x4
 948 00ae 01       		.byte	0x1
 949 00af 02       		.byte	0x2
 950 00b0 07040000 		.4byte	.LASF15
 951 00b4 03       		.uleb128 0x3
 952 00b5 2E020000 		.4byte	.LASF16
 953 00b9 04       		.byte	0x4
 954 00ba 25       		.byte	0x25
 955 00bb 45000000 		.4byte	0x45
 956 00bf 03       		.uleb128 0x3
 957 00c0 25010000 		.4byte	.LASF17
 958 00c4 04       		.byte	0x4
 959 00c5 26       		.byte	0x26
 960 00c6 45000000 		.4byte	0x45
 961 00ca 03       		.uleb128 0x3
 962 00cb E1030000 		.4byte	.LASF18
 963 00cf 04       		.byte	0x4
 964 00d0 27       		.byte	0x27
 965 00d1 45000000 		.4byte	0x45
 966 00d5 03       		.uleb128 0x3
 967 00d6 FE000000 		.4byte	.LASF19
 968 00da 04       		.byte	0x4
 969 00db 28       		.byte	0x28
 970 00dc 45000000 		.4byte	0x45
 971 00e0 03       		.uleb128 0x3
 972 00e1 F8030000 		.4byte	.LASF20
 973 00e5 04       		.byte	0x4
 974 00e6 29       		.byte	0x29
 975 00e7 77000000 		.4byte	0x77
 976 00eb 03       		.uleb128 0x3
 977 00ec 28020000 		.4byte	.LASF21
 978 00f0 04       		.byte	0x4
 979 00f1 2A       		.byte	0x2a
 980 00f2 65000000 		.4byte	0x65
 981 00f6 03       		.uleb128 0x3
 982 00f7 42020000 		.4byte	.LASF22
 983 00fb 04       		.byte	0x4
 984 00fc 2C       		.byte	0x2c
 985 00fd 77000000 		.4byte	0x77
 986 0101 03       		.uleb128 0x3
 987 0102 20050000 		.4byte	.LASF23
 988 0106 04       		.byte	0x4
 989 0107 2E       		.byte	0x2e
 990 0108 77000000 		.4byte	0x77
 991 010c 03       		.uleb128 0x3
 992 010d 92040000 		.4byte	.LASF24
 993 0111 05       		.byte	0x5
 994 0112 23       		.byte	0x23
 995 0113 17010000 		.4byte	0x117
 996 0117 05       		.uleb128 0x5
 997 0118 92040000 		.4byte	.LASF24
 998 011c 48       		.byte	0x48
 999 011d 06       		.byte	0x6
 1000 011e 57       		.byte	0x57
 1001 011f 14020000 		.4byte	0x214
 1002 0123 06       		.uleb128 0x6
ARM GAS  /var/folders/qh/xwg3v3kj02qbxczjpdb8lzfr0000gn/T//ccuwC7Tn.s 			page 19


 1003 0124 76040000 		.4byte	.LASF25
 1004 0128 06       		.byte	0x6
 1005 0129 58       		.byte	0x58
 1006 012a 35020000 		.4byte	0x235
 1007 012e 00       		.byte	0
 1008 012f 06       		.uleb128 0x6
 1009 0130 E9030000 		.4byte	.LASF26
 1010 0134 06       		.byte	0x6
 1011 0135 5A       		.byte	0x5a
 1012 0136 35020000 		.4byte	0x235
 1013 013a 04       		.byte	0x4
 1014 013b 06       		.uleb128 0x6
 1015 013c 9A000000 		.4byte	.LASF27
 1016 0140 06       		.byte	0x6
 1017 0141 5C       		.byte	0x5c
 1018 0142 E0000000 		.4byte	0xe0
 1019 0146 08       		.byte	0x8
 1020 0147 06       		.uleb128 0x6
 1021 0148 F5050000 		.4byte	.LASF28
 1022 014c 06       		.byte	0x6
 1023 014d 5D       		.byte	0x5d
 1024 014e F0020000 		.4byte	0x2f0
 1025 0152 0C       		.byte	0xc
 1026 0153 06       		.uleb128 0x6
 1027 0154 43010000 		.4byte	.LASF29
 1028 0158 06       		.byte	0x6
 1029 0159 5F       		.byte	0x5f
 1030 015a 35020000 		.4byte	0x235
 1031 015e 10       		.byte	0x10
 1032 015f 06       		.uleb128 0x6
 1033 0160 76030000 		.4byte	.LASF30
 1034 0164 06       		.byte	0x6
 1035 0165 60       		.byte	0x60
 1036 0166 35020000 		.4byte	0x235
 1037 016a 14       		.byte	0x14
 1038 016b 06       		.uleb128 0x6
 1039 016c D9050000 		.4byte	.LASF31
 1040 0170 06       		.byte	0x6
 1041 0171 67       		.byte	0x67
 1042 0172 0C050000 		.4byte	0x50c
 1043 0176 18       		.byte	0x18
 1044 0177 06       		.uleb128 0x6
 1045 0178 42040000 		.4byte	.LASF32
 1046 017c 06       		.byte	0x6
 1047 017d 72       		.byte	0x72
 1048 017e BF000000 		.4byte	0xbf
 1049 0182 1C       		.byte	0x1c
 1050 0183 06       		.uleb128 0x6
 1051 0184 7D040000 		.4byte	.LASF33
 1052 0188 06       		.byte	0x6
 1053 0189 76       		.byte	0x76
 1054 018a B4000000 		.4byte	0xb4
 1055 018e 1D       		.byte	0x1d
 1056 018f 06       		.uleb128 0x6
 1057 0190 94050000 		.4byte	.LASF34
 1058 0194 06       		.byte	0x6
 1059 0195 7B       		.byte	0x7b
ARM GAS  /var/folders/qh/xwg3v3kj02qbxczjpdb8lzfr0000gn/T//ccuwC7Tn.s 			page 20


 1060 0196 CA000000 		.4byte	0xca
 1061 019a 1E       		.byte	0x1e
 1062 019b 06       		.uleb128 0x6
 1063 019c 4A040000 		.4byte	.LASF35
 1064 01a0 06       		.byte	0x6
 1065 01a1 81       		.byte	0x81
 1066 01a2 D5000000 		.4byte	0xd5
 1067 01a6 1F       		.byte	0x1f
 1068 01a7 06       		.uleb128 0x6
 1069 01a8 47050000 		.4byte	.LASF36
 1070 01ac 06       		.byte	0x6
 1071 01ad 88       		.byte	0x88
 1072 01ae 16030000 		.4byte	0x316
 1073 01b2 20       		.byte	0x20
 1074 01b3 07       		.uleb128 0x7
 1075 01b4 705F7500 		.ascii	"p_u\000"
 1076 01b8 06       		.byte	0x6
 1077 01b9 AD       		.byte	0xad
 1078 01ba D7040000 		.4byte	0x4d7
 1079 01be 24       		.byte	0x24
 1080 01bf 06       		.uleb128 0x6
 1081 01c0 FB050000 		.4byte	.LASF37
 1082 01c4 06       		.byte	0x6
 1083 01c5 B2       		.byte	0xb2
 1084 01c6 5B020000 		.4byte	0x25b
 1085 01ca 28       		.byte	0x28
 1086 01cb 06       		.uleb128 0x6
 1087 01cc 55050000 		.4byte	.LASF38
 1088 01d0 06       		.byte	0x6
 1089 01d1 B8       		.byte	0xb8
 1090 01d2 3B020000 		.4byte	0x23b
 1091 01d6 2C       		.byte	0x2c
 1092 01d7 06       		.uleb128 0x6
 1093 01d8 08000000 		.4byte	.LASF39
 1094 01dc 06       		.byte	0x6
 1095 01dd BC       		.byte	0xbc
 1096 01de EB000000 		.4byte	0xeb
 1097 01e2 34       		.byte	0x34
 1098 01e3 06       		.uleb128 0x6
 1099 01e4 AE040000 		.4byte	.LASF40
 1100 01e8 06       		.byte	0x6
 1101 01e9 C2       		.byte	0xc2
 1102 01ea F6000000 		.4byte	0xf6
 1103 01ee 38       		.byte	0x38
 1104 01ef 06       		.uleb128 0x6
 1105 01f0 2E040000 		.4byte	.LASF41
 1106 01f4 06       		.byte	0x6
 1107 01f5 C9       		.byte	0xc9
 1108 01f6 1E050000 		.4byte	0x51e
 1109 01fa 3C       		.byte	0x3c
 1110 01fb 06       		.uleb128 0x6
 1111 01fc 2A050000 		.4byte	.LASF42
 1112 0200 06       		.byte	0x6
 1113 0201 CD       		.byte	0xcd
 1114 0202 E0000000 		.4byte	0xe0
 1115 0206 40       		.byte	0x40
 1116 0207 06       		.uleb128 0x6
ARM GAS  /var/folders/qh/xwg3v3kj02qbxczjpdb8lzfr0000gn/T//ccuwC7Tn.s 			page 21


 1117 0208 CC000000 		.4byte	.LASF43
 1118 020c 06       		.byte	0x6
 1119 020d D3       		.byte	0xd3
 1120 020e 71020000 		.4byte	0x271
 1121 0212 44       		.byte	0x44
 1122 0213 00       		.byte	0
 1123 0214 08       		.uleb128 0x8
 1124 0215 08       		.byte	0x8
 1125 0216 05       		.byte	0x5
 1126 0217 5A       		.byte	0x5a
 1127 0218 35020000 		.4byte	0x235
 1128 021c 06       		.uleb128 0x6
 1129 021d 76040000 		.4byte	.LASF25
 1130 0221 05       		.byte	0x5
 1131 0222 5B       		.byte	0x5b
 1132 0223 35020000 		.4byte	0x235
 1133 0227 00       		.byte	0
 1134 0228 06       		.uleb128 0x6
 1135 0229 E9030000 		.4byte	.LASF26
 1136 022d 05       		.byte	0x5
 1137 022e 5D       		.byte	0x5d
 1138 022f 35020000 		.4byte	0x235
 1139 0233 04       		.byte	0x4
 1140 0234 00       		.byte	0
 1141 0235 09       		.uleb128 0x9
 1142 0236 04       		.byte	0x4
 1143 0237 0C010000 		.4byte	0x10c
 1144 023b 03       		.uleb128 0x3
 1145 023c 84030000 		.4byte	.LASF44
 1146 0240 05       		.byte	0x5
 1147 0241 5F       		.byte	0x5f
 1148 0242 14020000 		.4byte	0x214
 1149 0246 08       		.uleb128 0x8
 1150 0247 04       		.byte	0x4
 1151 0248 05       		.byte	0x5
 1152 0249 64       		.byte	0x64
 1153 024a 5B020000 		.4byte	0x25b
 1154 024e 06       		.uleb128 0x6
 1155 024f 76040000 		.4byte	.LASF25
 1156 0253 05       		.byte	0x5
 1157 0254 66       		.byte	0x66
 1158 0255 35020000 		.4byte	0x235
 1159 0259 00       		.byte	0
 1160 025a 00       		.byte	0
 1161 025b 03       		.uleb128 0x3
 1162 025c 36020000 		.4byte	.LASF45
 1163 0260 05       		.byte	0x5
 1164 0261 69       		.byte	0x69
 1165 0262 46020000 		.4byte	0x246
 1166 0266 03       		.uleb128 0x3
 1167 0267 79010000 		.4byte	.LASF46
 1168 026b 07       		.byte	0x7
 1169 026c A0       		.byte	0xa0
 1170 026d 71020000 		.4byte	0x271
 1171 0271 0A       		.uleb128 0xa
 1172 0272 04       		.byte	0x4
 1173 0273 03       		.uleb128 0x3
ARM GAS  /var/folders/qh/xwg3v3kj02qbxczjpdb8lzfr0000gn/T//ccuwC7Tn.s 			page 22


 1174 0274 60020000 		.4byte	.LASF47
 1175 0278 07       		.byte	0x7
 1176 0279 A6       		.byte	0xa6
 1177 027a 90000000 		.4byte	0x90
 1178 027e 05       		.uleb128 0x5
 1179 027f 4E050000 		.4byte	.LASF48
 1180 0283 24       		.byte	0x24
 1181 0284 07       		.byte	0x7
 1182 0285 B3       		.byte	0xb3
 1183 0286 F0020000 		.4byte	0x2f0
 1184 028a 07       		.uleb128 0x7
 1185 028b 723800   		.ascii	"r8\000"
 1186 028e 07       		.byte	0x7
 1187 028f B4       		.byte	0xb4
 1188 0290 66020000 		.4byte	0x266
 1189 0294 00       		.byte	0
 1190 0295 07       		.uleb128 0x7
 1191 0296 723900   		.ascii	"r9\000"
 1192 0299 07       		.byte	0x7
 1193 029a B5       		.byte	0xb5
 1194 029b 66020000 		.4byte	0x266
 1195 029f 04       		.byte	0x4
 1196 02a0 07       		.uleb128 0x7
 1197 02a1 72313000 		.ascii	"r10\000"
 1198 02a5 07       		.byte	0x7
 1199 02a6 B6       		.byte	0xb6
 1200 02a7 66020000 		.4byte	0x266
 1201 02ab 08       		.byte	0x8
 1202 02ac 07       		.uleb128 0x7
 1203 02ad 72313100 		.ascii	"r11\000"
 1204 02b1 07       		.byte	0x7
 1205 02b2 B7       		.byte	0xb7
 1206 02b3 66020000 		.4byte	0x266
 1207 02b7 0C       		.byte	0xc
 1208 02b8 07       		.uleb128 0x7
 1209 02b9 723400   		.ascii	"r4\000"
 1210 02bc 07       		.byte	0x7
 1211 02bd B8       		.byte	0xb8
 1212 02be 66020000 		.4byte	0x266
 1213 02c2 10       		.byte	0x10
 1214 02c3 07       		.uleb128 0x7
 1215 02c4 723500   		.ascii	"r5\000"
 1216 02c7 07       		.byte	0x7
 1217 02c8 B9       		.byte	0xb9
 1218 02c9 66020000 		.4byte	0x266
 1219 02cd 14       		.byte	0x14
 1220 02ce 07       		.uleb128 0x7
 1221 02cf 723600   		.ascii	"r6\000"
 1222 02d2 07       		.byte	0x7
 1223 02d3 BA       		.byte	0xba
 1224 02d4 66020000 		.4byte	0x266
 1225 02d8 18       		.byte	0x18
 1226 02d9 07       		.uleb128 0x7
 1227 02da 723700   		.ascii	"r7\000"
 1228 02dd 07       		.byte	0x7
 1229 02de BB       		.byte	0xbb
 1230 02df 66020000 		.4byte	0x266
ARM GAS  /var/folders/qh/xwg3v3kj02qbxczjpdb8lzfr0000gn/T//ccuwC7Tn.s 			page 23


 1231 02e3 1C       		.byte	0x1c
 1232 02e4 07       		.uleb128 0x7
 1233 02e5 6C7200   		.ascii	"lr\000"
 1234 02e8 07       		.byte	0x7
 1235 02e9 BC       		.byte	0xbc
 1236 02ea 66020000 		.4byte	0x266
 1237 02ee 20       		.byte	0x20
 1238 02ef 00       		.byte	0
 1239 02f0 05       		.uleb128 0x5
 1240 02f1 FB010000 		.4byte	.LASF49
 1241 02f5 04       		.byte	0x4
 1242 02f6 07       		.byte	0x7
 1243 02f7 C6       		.byte	0xc6
 1244 02f8 09030000 		.4byte	0x309
 1245 02fc 07       		.uleb128 0x7
 1246 02fd 72313300 		.ascii	"r13\000"
 1247 0301 07       		.byte	0x7
 1248 0302 C7       		.byte	0xc7
 1249 0303 09030000 		.4byte	0x309
 1250 0307 00       		.byte	0
 1251 0308 00       		.byte	0
 1252 0309 09       		.uleb128 0x9
 1253 030a 04       		.byte	0x4
 1254 030b 7E020000 		.4byte	0x27e
 1255 030f 04       		.uleb128 0x4
 1256 0310 04       		.byte	0x4
 1257 0311 07       		.byte	0x7
 1258 0312 6B020000 		.4byte	.LASF50
 1259 0316 0B       		.uleb128 0xb
 1260 0317 01010000 		.4byte	0x101
 1261 031b 08       		.uleb128 0x8
 1262 031c 1C       		.byte	0x1c
 1263 031d 08       		.byte	0x8
 1264 031e 57       		.byte	0x57
 1265 031f 6C030000 		.4byte	0x36c
 1266 0323 06       		.uleb128 0x6
 1267 0324 CD040000 		.4byte	.LASF51
 1268 0328 08       		.byte	0x8
 1269 0329 58       		.byte	0x58
 1270 032a 3B020000 		.4byte	0x23b
 1271 032e 00       		.byte	0
 1272 032f 06       		.uleb128 0x6
 1273 0330 5C040000 		.4byte	.LASF52
 1274 0334 08       		.byte	0x8
 1275 0335 59       		.byte	0x59
 1276 0336 E0000000 		.4byte	0xe0
 1277 033a 08       		.byte	0x8
 1278 033b 06       		.uleb128 0x6
 1279 033c 7E030000 		.4byte	.LASF53
 1280 0340 08       		.byte	0x8
 1281 0341 5B       		.byte	0x5b
 1282 0342 F0020000 		.4byte	0x2f0
 1283 0346 0C       		.byte	0xc
 1284 0347 06       		.uleb128 0x6
 1285 0348 65010000 		.4byte	.LASF54
 1286 034c 08       		.byte	0x8
 1287 034d 5E       		.byte	0x5e
ARM GAS  /var/folders/qh/xwg3v3kj02qbxczjpdb8lzfr0000gn/T//ccuwC7Tn.s 			page 24


 1288 034e 35020000 		.4byte	0x235
 1289 0352 10       		.byte	0x10
 1290 0353 06       		.uleb128 0x6
 1291 0354 C6030000 		.4byte	.LASF55
 1292 0358 08       		.byte	0x8
 1293 0359 5F       		.byte	0x5f
 1294 035a 35020000 		.4byte	0x235
 1295 035e 14       		.byte	0x14
 1296 035f 06       		.uleb128 0x6
 1297 0360 BC030000 		.4byte	.LASF56
 1298 0364 08       		.byte	0x8
 1299 0365 62       		.byte	0x62
 1300 0366 35020000 		.4byte	0x235
 1301 036a 18       		.byte	0x18
 1302 036b 00       		.byte	0
 1303 036c 03       		.uleb128 0x3
 1304 036d 9B050000 		.4byte	.LASF57
 1305 0371 08       		.byte	0x8
 1306 0372 64       		.byte	0x64
 1307 0373 1B030000 		.4byte	0x31b
 1308 0377 05       		.uleb128 0x5
 1309 0378 4E020000 		.4byte	.LASF58
 1310 037c 10       		.byte	0x10
 1311 037d 09       		.byte	0x9
 1312 037e 25       		.byte	0x25
 1313 037f A8030000 		.4byte	0x3a8
 1314 0383 06       		.uleb128 0x6
 1315 0384 DB000000 		.4byte	.LASF59
 1316 0388 09       		.byte	0x9
 1317 0389 26       		.byte	0x26
 1318 038a 3B020000 		.4byte	0x23b
 1319 038e 00       		.byte	0
 1320 038f 06       		.uleb128 0x6
 1321 0390 ED050000 		.4byte	.LASF60
 1322 0394 09       		.byte	0x9
 1323 0395 28       		.byte	0x28
 1324 0396 35020000 		.4byte	0x235
 1325 039a 08       		.byte	0x8
 1326 039b 06       		.uleb128 0x6
 1327 039c 19050000 		.4byte	.LASF61
 1328 03a0 09       		.byte	0x9
 1329 03a1 2A       		.byte	0x2a
 1330 03a2 A8030000 		.4byte	0x3a8
 1331 03a6 0C       		.byte	0xc
 1332 03a7 00       		.byte	0
 1333 03a8 09       		.uleb128 0x9
 1334 03a9 04       		.byte	0x4
 1335 03aa 77030000 		.4byte	0x377
 1336 03ae 03       		.uleb128 0x3
 1337 03af 4E020000 		.4byte	.LASF58
 1338 03b3 09       		.byte	0x9
 1339 03b4 2C       		.byte	0x2c
 1340 03b5 77030000 		.4byte	0x377
 1341 03b9 03       		.uleb128 0x3
 1342 03ba 35000000 		.4byte	.LASF62
 1343 03be 0A       		.byte	0xa
 1344 03bf 25       		.byte	0x25
ARM GAS  /var/folders/qh/xwg3v3kj02qbxczjpdb8lzfr0000gn/T//ccuwC7Tn.s 			page 25


 1345 03c0 C4030000 		.4byte	0x3c4
 1346 03c4 09       		.uleb128 0x9
 1347 03c5 04       		.byte	0x4
 1348 03c6 CA030000 		.4byte	0x3ca
 1349 03ca 0C       		.uleb128 0xc
 1350 03cb 71020000 		.4byte	0x271
 1351 03cf D9030000 		.4byte	0x3d9
 1352 03d3 0D       		.uleb128 0xd
 1353 03d4 2C000000 		.4byte	0x2c
 1354 03d8 00       		.byte	0
 1355 03d9 03       		.uleb128 0x3
 1356 03da CE030000 		.4byte	.LASF63
 1357 03de 0B       		.byte	0xb
 1358 03df 2D       		.byte	0x2d
 1359 03e0 E4030000 		.4byte	0x3e4
 1360 03e4 05       		.uleb128 0x5
 1361 03e5 0B060000 		.4byte	.LASF64
 1362 03e9 20       		.byte	0x20
 1363 03ea 0B       		.byte	0xb
 1364 03eb 40       		.byte	0x40
 1365 03ec 15040000 		.4byte	0x415
 1366 03f0 06       		.uleb128 0x6
 1367 03f1 23040000 		.4byte	.LASF65
 1368 03f5 0B       		.byte	0xb
 1369 03f6 41       		.byte	0x41
 1370 03f7 B9030000 		.4byte	0x3b9
 1371 03fb 00       		.byte	0
 1372 03fc 06       		.uleb128 0x6
 1373 03fd 62000000 		.4byte	.LASF66
 1374 0401 0B       		.byte	0xb
 1375 0402 43       		.byte	0x43
 1376 0403 34040000 		.4byte	0x434
 1377 0407 08       		.byte	0x8
 1378 0408 06       		.uleb128 0x6
 1379 0409 C6000000 		.4byte	.LASF67
 1380 040d 0B       		.byte	0xb
 1381 040e 45       		.byte	0x45
 1382 040f AE030000 		.4byte	0x3ae
 1383 0413 10       		.byte	0x10
 1384 0414 00       		.byte	0
 1385 0415 0E       		.uleb128 0xe
 1386 0416 04       		.byte	0x4
 1387 0417 0B       		.byte	0xb
 1388 0418 35       		.byte	0x35
 1389 0419 34040000 		.4byte	0x434
 1390 041d 0F       		.uleb128 0xf
 1391 041e 95000000 		.4byte	.LASF68
 1392 0422 0B       		.byte	0xb
 1393 0423 36       		.byte	0x36
 1394 0424 55040000 		.4byte	0x455
 1395 0428 0F       		.uleb128 0xf
 1396 0429 D5040000 		.4byte	.LASF69
 1397 042d 0B       		.byte	0xb
 1398 042e 37       		.byte	0x37
 1399 042f 5B040000 		.4byte	0x45b
 1400 0433 00       		.byte	0
 1401 0434 10       		.uleb128 0x10
ARM GAS  /var/folders/qh/xwg3v3kj02qbxczjpdb8lzfr0000gn/T//ccuwC7Tn.s 			page 26


 1402 0435 63040000 		.4byte	.LASF89
 1403 0439 08       		.byte	0x8
 1404 043a 0B       		.byte	0xb
 1405 043b 32       		.byte	0x32
 1406 043c 55040000 		.4byte	0x455
 1407 0440 0F       		.uleb128 0xf
 1408 0441 82010000 		.4byte	.LASF70
 1409 0445 0B       		.byte	0xb
 1410 0446 33       		.byte	0x33
 1411 0447 73020000 		.4byte	0x273
 1412 044b 11       		.uleb128 0x11
 1413 044c 6800     		.ascii	"h\000"
 1414 044e 0B       		.byte	0xb
 1415 044f 3A       		.byte	0x3a
 1416 0450 61040000 		.4byte	0x461
 1417 0454 00       		.byte	0
 1418 0455 09       		.uleb128 0x9
 1419 0456 04       		.byte	0x4
 1420 0457 34040000 		.4byte	0x434
 1421 045b 09       		.uleb128 0x9
 1422 045c 04       		.byte	0x4
 1423 045d D9030000 		.4byte	0x3d9
 1424 0461 08       		.uleb128 0x8
 1425 0462 08       		.byte	0x8
 1426 0463 0B       		.byte	0xb
 1427 0464 34       		.byte	0x34
 1428 0465 80040000 		.4byte	0x480
 1429 0469 07       		.uleb128 0x7
 1430 046a 7500     		.ascii	"u\000"
 1431 046c 0B       		.byte	0xb
 1432 046d 38       		.byte	0x38
 1433 046e 15040000 		.4byte	0x415
 1434 0472 00       		.byte	0
 1435 0473 06       		.uleb128 0x6
 1436 0474 03020000 		.4byte	.LASF71
 1437 0478 0B       		.byte	0xb
 1438 0479 39       		.byte	0x39
 1439 047a 2C000000 		.4byte	0x2c
 1440 047e 04       		.byte	0x4
 1441 047f 00       		.byte	0
 1442 0480 05       		.uleb128 0x5
 1443 0481 88050000 		.4byte	.LASF72
 1444 0485 04       		.byte	0x4
 1445 0486 0C       		.byte	0xc
 1446 0487 25       		.byte	0x25
 1447 0488 99040000 		.4byte	0x499
 1448 048c 06       		.uleb128 0x6
 1449 048d D9030000 		.4byte	.LASF73
 1450 0491 0C       		.byte	0xc
 1451 0492 26       		.byte	0x26
 1452 0493 99040000 		.4byte	0x499
 1453 0497 00       		.byte	0
 1454 0498 00       		.byte	0
 1455 0499 09       		.uleb128 0x9
 1456 049a 04       		.byte	0x4
 1457 049b 80040000 		.4byte	0x480
 1458 049f 08       		.uleb128 0x8
ARM GAS  /var/folders/qh/xwg3v3kj02qbxczjpdb8lzfr0000gn/T//ccuwC7Tn.s 			page 27


 1459 04a0 0C       		.byte	0xc
 1460 04a1 0C       		.byte	0xc
 1461 04a2 2D       		.byte	0x2d
 1462 04a3 CC040000 		.4byte	0x4cc
 1463 04a7 06       		.uleb128 0x6
 1464 04a8 2E010000 		.4byte	.LASF74
 1465 04ac 0C       		.byte	0xc
 1466 04ad 2E       		.byte	0x2e
 1467 04ae 99040000 		.4byte	0x499
 1468 04b2 00       		.byte	0
 1469 04b3 06       		.uleb128 0x6
 1470 04b4 91030000 		.4byte	.LASF75
 1471 04b8 0C       		.byte	0xc
 1472 04b9 2F       		.byte	0x2f
 1473 04ba 2C000000 		.4byte	0x2c
 1474 04be 04       		.byte	0x4
 1475 04bf 06       		.uleb128 0x6
 1476 04c0 6D010000 		.4byte	.LASF76
 1477 04c4 0C       		.byte	0xc
 1478 04c5 31       		.byte	0x31
 1479 04c6 B9030000 		.4byte	0x3b9
 1480 04ca 08       		.byte	0x8
 1481 04cb 00       		.byte	0
 1482 04cc 03       		.uleb128 0x3
 1483 04cd 2A000000 		.4byte	.LASF77
 1484 04d1 0C       		.byte	0xc
 1485 04d2 33       		.byte	0x33
 1486 04d3 9F040000 		.4byte	0x49f
 1487 04d7 0E       		.uleb128 0xe
 1488 04d8 04       		.byte	0x4
 1489 04d9 06       		.byte	0x6
 1490 04da 8F       		.byte	0x8f
 1491 04db 0C050000 		.4byte	0x50c
 1492 04df 0F       		.uleb128 0xf
 1493 04e0 1A000000 		.4byte	.LASF78
 1494 04e4 06       		.byte	0x6
 1495 04e5 96       		.byte	0x96
 1496 04e6 EB000000 		.4byte	0xeb
 1497 04ea 0F       		.uleb128 0xf
 1498 04eb 59000000 		.4byte	.LASF79
 1499 04ef 06       		.byte	0x6
 1500 04f0 9D       		.byte	0x9d
 1501 04f1 EB000000 		.4byte	0xeb
 1502 04f5 0F       		.uleb128 0xf
 1503 04f6 D2050000 		.4byte	.LASF80
 1504 04fa 06       		.byte	0x6
 1505 04fb A4       		.byte	0xa4
 1506 04fc 71020000 		.4byte	0x271
 1507 0500 0F       		.uleb128 0xf
 1508 0501 6F040000 		.4byte	.LASF81
 1509 0505 06       		.byte	0x6
 1510 0506 AB       		.byte	0xab
 1511 0507 F6000000 		.4byte	0xf6
 1512 050b 00       		.byte	0
 1513 050c 09       		.uleb128 0x9
 1514 050d 04       		.byte	0x4
 1515 050e 12050000 		.4byte	0x512
ARM GAS  /var/folders/qh/xwg3v3kj02qbxczjpdb8lzfr0000gn/T//ccuwC7Tn.s 			page 28


 1516 0512 12       		.uleb128 0x12
 1517 0513 17050000 		.4byte	0x517
 1518 0517 04       		.uleb128 0x4
 1519 0518 01       		.byte	0x1
 1520 0519 08       		.byte	0x8
 1521 051a DA040000 		.4byte	.LASF82
 1522 051e 09       		.uleb128 0x9
 1523 051f 04       		.byte	0x4
 1524 0520 AE030000 		.4byte	0x3ae
 1525 0524 03       		.uleb128 0x3
 1526 0525 00000000 		.4byte	.LASF83
 1527 0529 06       		.byte	0x6
 1528 052a DE       		.byte	0xde
 1529 052b 2F050000 		.4byte	0x52f
 1530 052f 09       		.uleb128 0x9
 1531 0530 04       		.byte	0x4
 1532 0531 35050000 		.4byte	0x535
 1533 0535 0C       		.uleb128 0xc
 1534 0536 EB000000 		.4byte	0xeb
 1535 053a 44050000 		.4byte	0x544
 1536 053e 0D       		.uleb128 0xd
 1537 053f 71020000 		.4byte	0x271
 1538 0543 00       		.byte	0
 1539 0544 05       		.uleb128 0x5
 1540 0545 A5040000 		.4byte	.LASF84
 1541 0549 10       		.byte	0x10
 1542 054a 0D       		.byte	0xd
 1543 054b 3B       		.byte	0x3b
 1544 054c 81050000 		.4byte	0x581
 1545 0550 06       		.uleb128 0x6
 1546 0551 BB010000 		.4byte	.LASF85
 1547 0555 0D       		.byte	0xd
 1548 0556 3C       		.byte	0x3c
 1549 0557 0C050000 		.4byte	0x50c
 1550 055b 00       		.byte	0
 1551 055c 06       		.uleb128 0x6
 1552 055d A0030000 		.4byte	.LASF86
 1553 0561 0D       		.byte	0xd
 1554 0562 3D       		.byte	0x3d
 1555 0563 82050000 		.4byte	0x582
 1556 0567 04       		.byte	0x4
 1557 0568 06       		.uleb128 0x6
 1558 0569 A7010000 		.4byte	.LASF87
 1559 056d 0D       		.byte	0xd
 1560 056e 3E       		.byte	0x3e
 1561 056f 82050000 		.4byte	0x582
 1562 0573 08       		.byte	0x8
 1563 0574 06       		.uleb128 0x6
 1564 0575 F0030000 		.4byte	.LASF88
 1565 0579 0D       		.byte	0xd
 1566 057a 3F       		.byte	0x3f
 1567 057b 82050000 		.4byte	0x582
 1568 057f 0C       		.byte	0xc
 1569 0580 00       		.byte	0
 1570 0581 13       		.uleb128 0x13
 1571 0582 09       		.uleb128 0x9
 1572 0583 04       		.byte	0x4
ARM GAS  /var/folders/qh/xwg3v3kj02qbxczjpdb8lzfr0000gn/T//ccuwC7Tn.s 			page 29


 1573 0584 81050000 		.4byte	0x581
 1574 0588 14       		.uleb128 0x14
 1575 0589 F005     		.2byte	0x5f0
 1576 058b 0D       		.byte	0xd
 1577 058c 44       		.byte	0x44
 1578 058d CD050000 		.4byte	0x5cd
 1579 0591 07       		.uleb128 0x7
 1580 0592 543000   		.ascii	"T0\000"
 1581 0595 0D       		.byte	0xd
 1582 0596 45       		.byte	0x45
 1583 0597 CD050000 		.4byte	0x5cd
 1584 059b 00       		.byte	0
 1585 059c 15       		.uleb128 0x15
 1586 059d 543100   		.ascii	"T1\000"
 1587 05a0 0D       		.byte	0xd
 1588 05a1 46       		.byte	0x46
 1589 05a2 CD050000 		.4byte	0x5cd
 1590 05a6 3001     		.2byte	0x130
 1591 05a8 15       		.uleb128 0x15
 1592 05a9 543200   		.ascii	"T2\000"
 1593 05ac 0D       		.byte	0xd
 1594 05ad 47       		.byte	0x47
 1595 05ae CD050000 		.4byte	0x5cd
 1596 05b2 6002     		.2byte	0x260
 1597 05b4 15       		.uleb128 0x15
 1598 05b5 543300   		.ascii	"T3\000"
 1599 05b8 0D       		.byte	0xd
 1600 05b9 48       		.byte	0x48
 1601 05ba CD050000 		.4byte	0x5cd
 1602 05be 9003     		.2byte	0x390
 1603 05c0 15       		.uleb128 0x15
 1604 05c1 543400   		.ascii	"T4\000"
 1605 05c4 0D       		.byte	0xd
 1606 05c5 49       		.byte	0x49
 1607 05c6 CD050000 		.4byte	0x5cd
 1608 05ca C004     		.2byte	0x4c0
 1609 05cc 00       		.byte	0
 1610 05cd 16       		.uleb128 0x16
 1611 05ce 73020000 		.4byte	0x273
 1612 05d2 DD050000 		.4byte	0x5dd
 1613 05d6 17       		.uleb128 0x17
 1614 05d7 0F030000 		.4byte	0x30f
 1615 05db 25       		.byte	0x25
 1616 05dc 00       		.byte	0
 1617 05dd 18       		.uleb128 0x18
 1618 05de 7B050000 		.4byte	.LASF90
 1619 05e2 F005     		.2byte	0x5f0
 1620 05e4 0D       		.byte	0xd
 1621 05e5 43       		.byte	0x43
 1622 05e6 00060000 		.4byte	0x600
 1623 05ea 11       		.uleb128 0x11
 1624 05eb 776100   		.ascii	"wa\000"
 1625 05ee 0D       		.byte	0xd
 1626 05ef 4A       		.byte	0x4a
 1627 05f0 88050000 		.4byte	0x588
 1628 05f4 0F       		.uleb128 0xf
 1629 05f5 35050000 		.4byte	.LASF91
ARM GAS  /var/folders/qh/xwg3v3kj02qbxczjpdb8lzfr0000gn/T//ccuwC7Tn.s 			page 30


 1630 05f9 0D       		.byte	0xd
 1631 05fa 4B       		.byte	0x4b
 1632 05fb 00060000 		.4byte	0x600
 1633 05ff 00       		.byte	0
 1634 0600 16       		.uleb128 0x16
 1635 0601 45000000 		.4byte	0x45
 1636 0605 11060000 		.4byte	0x611
 1637 0609 19       		.uleb128 0x19
 1638 060a 0F030000 		.4byte	0x30f
 1639 060e EF05     		.2byte	0x5ef
 1640 0610 00       		.byte	0
 1641 0611 1A       		.uleb128 0x1a
 1642 0612 36010000 		.4byte	.LASF93
 1643 0616 01       		.byte	0x1
 1644 0617 53       		.byte	0x53
 1645 0618 00000000 		.4byte	.LFB9
 1646 061c 08010000 		.4byte	.LFE9-.LFB9
 1647 0620 01       		.uleb128 0x1
 1648 0621 9C       		.byte	0x9c
 1649 0622 C0070000 		.4byte	0x7c0
 1650 0626 1B       		.uleb128 0x1b
 1651 0627 6E00     		.ascii	"n\000"
 1652 0629 01       		.byte	0x1
 1653 062a 54       		.byte	0x54
 1654 062b 2C000000 		.4byte	0x2c
 1655 062f 02       		.uleb128 0x2
 1656 0630 91       		.byte	0x91
 1657 0631 60       		.sleb128 -32
 1658 0632 1B       		.uleb128 0x1b
 1659 0633 737A00   		.ascii	"sz\000"
 1660 0636 01       		.byte	0x1
 1661 0637 54       		.byte	0x54
 1662 0638 2C000000 		.4byte	0x2c
 1663 063c 02       		.uleb128 0x2
 1664 063d 91       		.byte	0x91
 1665 063e 64       		.sleb128 -28
 1666 063f 1C       		.uleb128 0x1c
 1667 0640 703100   		.ascii	"p1\000"
 1668 0643 01       		.byte	0x1
 1669 0644 55       		.byte	0x55
 1670 0645 71020000 		.4byte	0x271
 1671 0649 00000000 		.4byte	.LLST0
 1672 064d 1D       		.uleb128 0x1d
 1673 064e 15000000 		.4byte	.LASF92
 1674 0652 01       		.byte	0x1
 1675 0653 56       		.byte	0x56
 1676 0654 E0000000 		.4byte	0xe0
 1677 0658 29000000 		.4byte	.LLST1
 1678 065c 1E       		.uleb128 0x1e
 1679 065d 18000000 		.4byte	.LVL1
 1680 0661 630D0000 		.4byte	0xd63
 1681 0665 76060000 		.4byte	0x676
 1682 0669 1F       		.uleb128 0x1f
 1683 066a 01       		.uleb128 0x1
 1684 066b 51       		.byte	0x51
 1685 066c 02       		.uleb128 0x2
 1686 066d 91       		.byte	0x91
ARM GAS  /var/folders/qh/xwg3v3kj02qbxczjpdb8lzfr0000gn/T//ccuwC7Tn.s 			page 31


 1687 066e 64       		.sleb128 -28
 1688 066f 1F       		.uleb128 0x1f
 1689 0670 01       		.uleb128 0x1
 1690 0671 50       		.byte	0x50
 1691 0672 02       		.uleb128 0x2
 1692 0673 74       		.byte	0x74
 1693 0674 00       		.sleb128 0
 1694 0675 00       		.byte	0
 1695 0676 1E       		.uleb128 0x1e
 1696 0677 2C000000 		.4byte	.LVL2
 1697 067b 830D0000 		.4byte	0xd83
 1698 067f A7060000 		.4byte	0x6a7
 1699 0683 1F       		.uleb128 0x1f
 1700 0684 01       		.uleb128 0x1
 1701 0685 53       		.byte	0x53
 1702 0686 02       		.uleb128 0x2
 1703 0687 76       		.byte	0x76
 1704 0688 00       		.sleb128 0
 1705 0689 1F       		.uleb128 0x1f
 1706 068a 01       		.uleb128 0x1
 1707 068b 52       		.byte	0x52
 1708 068c 02       		.uleb128 0x2
 1709 068d 77       		.byte	0x77
 1710 068e 7F       		.sleb128 -1
 1711 068f 1F       		.uleb128 0x1f
 1712 0690 01       		.uleb128 0x1
 1713 0691 51       		.byte	0x51
 1714 0692 03       		.uleb128 0x3
 1715 0693 0A       		.byte	0xa
 1716 0694 3001     		.2byte	0x130
 1717 0696 1F       		.uleb128 0x1f
 1718 0697 01       		.uleb128 0x1
 1719 0698 50       		.byte	0x50
 1720 0699 02       		.uleb128 0x2
 1721 069a 74       		.byte	0x74
 1722 069b 00       		.sleb128 0
 1723 069c 1F       		.uleb128 0x1f
 1724 069d 02       		.uleb128 0x2
 1725 069e 7D       		.byte	0x7d
 1726 069f 00       		.sleb128 0
 1727 06a0 05       		.uleb128 0x5
 1728 06a1 03       		.byte	0x3
 1729 06a2 00000000 		.4byte	.LC3
 1730 06a6 00       		.byte	0
 1731 06a7 1E       		.uleb128 0x1e
 1732 06a8 42000000 		.4byte	.LVL3
 1733 06ac 830D0000 		.4byte	0xd83
 1734 06b0 D8060000 		.4byte	0x6d8
 1735 06b4 1F       		.uleb128 0x1f
 1736 06b5 01       		.uleb128 0x1
 1737 06b6 53       		.byte	0x53
 1738 06b7 02       		.uleb128 0x2
 1739 06b8 76       		.byte	0x76
 1740 06b9 00       		.sleb128 0
 1741 06ba 1F       		.uleb128 0x1f
 1742 06bb 01       		.uleb128 0x1
 1743 06bc 52       		.byte	0x52
ARM GAS  /var/folders/qh/xwg3v3kj02qbxczjpdb8lzfr0000gn/T//ccuwC7Tn.s 			page 32


 1744 06bd 02       		.uleb128 0x2
 1745 06be 77       		.byte	0x77
 1746 06bf 7E       		.sleb128 -2
 1747 06c0 1F       		.uleb128 0x1f
 1748 06c1 01       		.uleb128 0x1
 1749 06c2 51       		.byte	0x51
 1750 06c3 03       		.uleb128 0x3
 1751 06c4 0A       		.byte	0xa
 1752 06c5 3001     		.2byte	0x130
 1753 06c7 1F       		.uleb128 0x1f
 1754 06c8 01       		.uleb128 0x1
 1755 06c9 50       		.byte	0x50
 1756 06ca 02       		.uleb128 0x2
 1757 06cb 74       		.byte	0x74
 1758 06cc 00       		.sleb128 0
 1759 06cd 1F       		.uleb128 0x1f
 1760 06ce 02       		.uleb128 0x2
 1761 06cf 7D       		.byte	0x7d
 1762 06d0 00       		.sleb128 0
 1763 06d1 05       		.uleb128 0x5
 1764 06d2 03       		.byte	0x3
 1765 06d3 04000000 		.4byte	.LC6
 1766 06d7 00       		.byte	0
 1767 06d8 1E       		.uleb128 0x1e
 1768 06d9 4C000000 		.4byte	.LVL4
 1769 06dd 630D0000 		.4byte	0xd63
 1770 06e1 F2060000 		.4byte	0x6f2
 1771 06e5 1F       		.uleb128 0x1f
 1772 06e6 01       		.uleb128 0x1
 1773 06e7 51       		.byte	0x51
 1774 06e8 02       		.uleb128 0x2
 1775 06e9 91       		.byte	0x91
 1776 06ea 60       		.sleb128 -32
 1777 06eb 1F       		.uleb128 0x1f
 1778 06ec 01       		.uleb128 0x1
 1779 06ed 50       		.byte	0x50
 1780 06ee 02       		.uleb128 0x2
 1781 06ef 74       		.byte	0x74
 1782 06f0 00       		.sleb128 0
 1783 06f1 00       		.byte	0
 1784 06f2 1E       		.uleb128 0x1e
 1785 06f3 54000000 		.4byte	.LVL5
 1786 06f7 AC0D0000 		.4byte	0xdac
 1787 06fb 06070000 		.4byte	0x706
 1788 06ff 1F       		.uleb128 0x1f
 1789 0700 01       		.uleb128 0x1
 1790 0701 50       		.byte	0x50
 1791 0702 02       		.uleb128 0x2
 1792 0703 74       		.byte	0x74
 1793 0704 00       		.sleb128 0
 1794 0705 00       		.byte	0
 1795 0706 1E       		.uleb128 0x1e
 1796 0707 68000000 		.4byte	.LVL8
 1797 070b 830D0000 		.4byte	0xd83
 1798 070f 37070000 		.4byte	0x737
 1799 0713 1F       		.uleb128 0x1f
 1800 0714 01       		.uleb128 0x1
ARM GAS  /var/folders/qh/xwg3v3kj02qbxczjpdb8lzfr0000gn/T//ccuwC7Tn.s 			page 33


 1801 0715 53       		.byte	0x53
 1802 0716 02       		.uleb128 0x2
 1803 0717 76       		.byte	0x76
 1804 0718 00       		.sleb128 0
 1805 0719 1F       		.uleb128 0x1f
 1806 071a 01       		.uleb128 0x1
 1807 071b 52       		.byte	0x52
 1808 071c 02       		.uleb128 0x2
 1809 071d 77       		.byte	0x77
 1810 071e 7D       		.sleb128 -3
 1811 071f 1F       		.uleb128 0x1f
 1812 0720 01       		.uleb128 0x1
 1813 0721 51       		.byte	0x51
 1814 0722 03       		.uleb128 0x3
 1815 0723 0A       		.byte	0xa
 1816 0724 3001     		.2byte	0x130
 1817 0726 1F       		.uleb128 0x1f
 1818 0727 01       		.uleb128 0x1
 1819 0728 50       		.byte	0x50
 1820 0729 02       		.uleb128 0x2
 1821 072a 74       		.byte	0x74
 1822 072b 00       		.sleb128 0
 1823 072c 1F       		.uleb128 0x1f
 1824 072d 02       		.uleb128 0x2
 1825 072e 7D       		.byte	0x7d
 1826 072f 00       		.sleb128 0
 1827 0730 05       		.uleb128 0x5
 1828 0731 03       		.byte	0x3
 1829 0732 08000000 		.4byte	.LC8
 1830 0736 00       		.byte	0
 1831 0737 1E       		.uleb128 0x1e
 1832 0738 70000000 		.4byte	.LVL9
 1833 073c C60D0000 		.4byte	0xdc6
 1834 0740 4B070000 		.4byte	0x74b
 1835 0744 1F       		.uleb128 0x1f
 1836 0745 01       		.uleb128 0x1
 1837 0746 50       		.byte	0x50
 1838 0747 02       		.uleb128 0x2
 1839 0748 78       		.byte	0x78
 1840 0749 00       		.sleb128 0
 1841 074a 00       		.byte	0
 1842 074b 1E       		.uleb128 0x1e
 1843 074c 8A000000 		.4byte	.LVL10
 1844 0750 D70D0000 		.4byte	0xdd7
 1845 0754 5E070000 		.4byte	0x75e
 1846 0758 1F       		.uleb128 0x1f
 1847 0759 01       		.uleb128 0x1
 1848 075a 50       		.byte	0x50
 1849 075b 01       		.uleb128 0x1
 1850 075c 31       		.byte	0x31
 1851 075d 00       		.byte	0
 1852 075e 20       		.uleb128 0x20
 1853 075f 9A000000 		.4byte	.LVL14
 1854 0763 F10D0000 		.4byte	0xdf1
 1855 0767 1E       		.uleb128 0x1e
 1856 0768 A2000000 		.4byte	.LVL15
 1857 076c F80D0000 		.4byte	0xdf8
ARM GAS  /var/folders/qh/xwg3v3kj02qbxczjpdb8lzfr0000gn/T//ccuwC7Tn.s 			page 34


 1858 0770 83070000 		.4byte	0x783
 1859 0774 1F       		.uleb128 0x1f
 1860 0775 01       		.uleb128 0x1
 1861 0776 51       		.byte	0x51
 1862 0777 05       		.uleb128 0x5
 1863 0778 03       		.byte	0x3
 1864 0779 0C000000 		.4byte	.LC10
 1865 077d 1F       		.uleb128 0x1f
 1866 077e 01       		.uleb128 0x1
 1867 077f 50       		.byte	0x50
 1868 0780 01       		.uleb128 0x1
 1869 0781 32       		.byte	0x32
 1870 0782 00       		.byte	0
 1871 0783 1E       		.uleb128 0x1e
 1872 0784 AE000000 		.4byte	.LVL16
 1873 0788 630D0000 		.4byte	0xd63
 1874 078c 9D070000 		.4byte	0x79d
 1875 0790 1F       		.uleb128 0x1f
 1876 0791 01       		.uleb128 0x1
 1877 0792 51       		.byte	0x51
 1878 0793 02       		.uleb128 0x2
 1879 0794 91       		.byte	0x91
 1880 0795 60       		.sleb128 -32
 1881 0796 1F       		.uleb128 0x1f
 1882 0797 01       		.uleb128 0x1
 1883 0798 50       		.byte	0x50
 1884 0799 02       		.uleb128 0x2
 1885 079a 74       		.byte	0x74
 1886 079b 00       		.sleb128 0
 1887 079c 00       		.byte	0
 1888 079d 1E       		.uleb128 0x1e
 1889 079e BC000000 		.4byte	.LVL17
 1890 07a2 D70D0000 		.4byte	0xdd7
 1891 07a6 B0070000 		.4byte	0x7b0
 1892 07aa 1F       		.uleb128 0x1f
 1893 07ab 01       		.uleb128 0x1
 1894 07ac 50       		.byte	0x50
 1895 07ad 01       		.uleb128 0x1
 1896 07ae 33       		.byte	0x33
 1897 07af 00       		.byte	0
 1898 07b0 21       		.uleb128 0x21
 1899 07b1 D2000000 		.4byte	.LVL18
 1900 07b5 D70D0000 		.4byte	0xdd7
 1901 07b9 1F       		.uleb128 0x1f
 1902 07ba 01       		.uleb128 0x1
 1903 07bb 50       		.byte	0x50
 1904 07bc 01       		.uleb128 0x1
 1905 07bd 34       		.byte	0x34
 1906 07be 00       		.byte	0
 1907 07bf 00       		.byte	0
 1908 07c0 22       		.uleb128 0x22
 1909 07c1 00040000 		.4byte	.LASF98
 1910 07c5 01       		.byte	0x1
 1911 07c6 47       		.byte	0x47
 1912 07c7 EB000000 		.4byte	0xeb
 1913 07cb 00000000 		.4byte	.LFB7
 1914 07cf 0C000000 		.4byte	.LFE7-.LFB7
ARM GAS  /var/folders/qh/xwg3v3kj02qbxczjpdb8lzfr0000gn/T//ccuwC7Tn.s 			page 35


 1915 07d3 01       		.uleb128 0x1
 1916 07d4 9C       		.byte	0x9c
 1917 07d5 F0070000 		.4byte	0x7f0
 1918 07d9 23       		.uleb128 0x23
 1919 07da 7000     		.ascii	"p\000"
 1920 07dc 01       		.byte	0x1
 1921 07dd 47       		.byte	0x47
 1922 07de 71020000 		.4byte	0x271
 1923 07e2 47000000 		.4byte	.LLST2
 1924 07e6 20       		.uleb128 0x20
 1925 07e7 08000000 		.4byte	.LVL21
 1926 07eb 180E0000 		.4byte	0xe18
 1927 07ef 00       		.byte	0
 1928 07f0 1A       		.uleb128 0x1a
 1929 07f1 B0010000 		.4byte	.LASF94
 1930 07f5 01       		.byte	0x1
 1931 07f6 4E       		.byte	0x4e
 1932 07f7 00000000 		.4byte	.LFB8
 1933 07fb 18000000 		.4byte	.LFE8-.LFB8
 1934 07ff 01       		.uleb128 0x1
 1935 0800 9C       		.byte	0x9c
 1936 0801 20080000 		.4byte	0x820
 1937 0805 21       		.uleb128 0x21
 1938 0806 0E000000 		.4byte	.LVL22
 1939 080a 290E0000 		.4byte	0xe29
 1940 080e 1F       		.uleb128 0x1f
 1941 080f 01       		.uleb128 0x1
 1942 0810 52       		.byte	0x52
 1943 0811 03       		.uleb128 0x3
 1944 0812 0A       		.byte	0xa
 1945 0813 F005     		.2byte	0x5f0
 1946 0815 1F       		.uleb128 0x1f
 1947 0816 01       		.uleb128 0x1
 1948 0817 50       		.byte	0x50
 1949 0818 05       		.uleb128 0x5
 1950 0819 03       		.byte	0x3
 1951 081a 00000000 		.4byte	.LANCHOR0
 1952 081e 00       		.byte	0
 1953 081f 00       		.byte	0
 1954 0820 1A       		.uleb128 0x1a
 1955 0821 EF040000 		.4byte	.LASF95
 1956 0825 01       		.byte	0x1
 1957 0826 CB       		.byte	0xcb
 1958 0827 00000000 		.4byte	.LFB13
 1959 082b 18000000 		.4byte	.LFE13-.LFB13
 1960 082f 01       		.uleb128 0x1
 1961 0830 9C       		.byte	0x9c
 1962 0831 50080000 		.4byte	0x850
 1963 0835 21       		.uleb128 0x21
 1964 0836 0E000000 		.4byte	.LVL23
 1965 083a 290E0000 		.4byte	0xe29
 1966 083e 1F       		.uleb128 0x1f
 1967 083f 01       		.uleb128 0x1
 1968 0840 52       		.byte	0x52
 1969 0841 03       		.uleb128 0x3
 1970 0842 0A       		.byte	0xa
 1971 0843 F005     		.2byte	0x5f0
ARM GAS  /var/folders/qh/xwg3v3kj02qbxczjpdb8lzfr0000gn/T//ccuwC7Tn.s 			page 36


 1972 0845 1F       		.uleb128 0x1f
 1973 0846 01       		.uleb128 0x1
 1974 0847 50       		.byte	0x50
 1975 0848 05       		.uleb128 0x5
 1976 0849 03       		.byte	0x3
 1977 084a 00000000 		.4byte	.LANCHOR0
 1978 084e 00       		.byte	0
 1979 084f 00       		.byte	0
 1980 0850 1A       		.uleb128 0x1a
 1981 0851 1B020000 		.4byte	.LASF96
 1982 0855 01       		.byte	0x1
 1983 0856 8D       		.byte	0x8d
 1984 0857 00000000 		.4byte	.LFB11
 1985 085b 0C010000 		.4byte	.LFE11-.LFB11
 1986 085f 01       		.uleb128 0x1
 1987 0860 9C       		.byte	0x9c
 1988 0861 FD090000 		.4byte	0x9fd
 1989 0865 1C       		.uleb128 0x1c
 1990 0866 6900     		.ascii	"i\000"
 1991 0868 01       		.byte	0x1
 1992 0869 8E       		.byte	0x8e
 1993 086a 25000000 		.4byte	0x25
 1994 086e 68000000 		.4byte	.LLST3
 1995 0872 1D       		.uleb128 0x1d
 1996 0873 15000000 		.4byte	.LASF92
 1997 0877 01       		.byte	0x1
 1998 0878 8F       		.byte	0x8f
 1999 0879 E0000000 		.4byte	0xe0
 2000 087d A9000000 		.4byte	.LLST4
 2001 0881 1E       		.uleb128 0x1e
 2002 0882 18000000 		.4byte	.LVL26
 2003 0886 440E0000 		.4byte	0xe44
 2004 088a 95080000 		.4byte	0x895
 2005 088e 1F       		.uleb128 0x1f
 2006 088f 01       		.uleb128 0x1
 2007 0890 50       		.byte	0x50
 2008 0891 02       		.uleb128 0x2
 2009 0892 75       		.byte	0x75
 2010 0893 00       		.sleb128 0
 2011 0894 00       		.byte	0
 2012 0895 1E       		.uleb128 0x1e
 2013 0896 2A000000 		.4byte	.LVL27
 2014 089a 600E0000 		.4byte	0xe60
 2015 089e BE080000 		.4byte	0x8be
 2016 08a2 1F       		.uleb128 0x1f
 2017 08a3 01       		.uleb128 0x1
 2018 08a4 53       		.byte	0x53
 2019 08a5 05       		.uleb128 0x5
 2020 08a6 03       		.byte	0x3
 2021 08a7 00000000 		.4byte	.LC3
 2022 08ab 1F       		.uleb128 0x1f
 2023 08ac 01       		.uleb128 0x1
 2024 08ad 52       		.byte	0x52
 2025 08ae 02       		.uleb128 0x2
 2026 08af 76       		.byte	0x76
 2027 08b0 00       		.sleb128 0
 2028 08b1 1F       		.uleb128 0x1f
ARM GAS  /var/folders/qh/xwg3v3kj02qbxczjpdb8lzfr0000gn/T//ccuwC7Tn.s 			page 37


 2029 08b2 01       		.uleb128 0x1
 2030 08b3 51       		.byte	0x51
 2031 08b4 02       		.uleb128 0x2
 2032 08b5 77       		.byte	0x77
 2033 08b6 7F       		.sleb128 -1
 2034 08b7 1F       		.uleb128 0x1f
 2035 08b8 01       		.uleb128 0x1
 2036 08b9 50       		.byte	0x50
 2037 08ba 02       		.uleb128 0x2
 2038 08bb 75       		.byte	0x75
 2039 08bc 00       		.sleb128 0
 2040 08bd 00       		.byte	0
 2041 08be 1E       		.uleb128 0x1e
 2042 08bf 3A000000 		.4byte	.LVL28
 2043 08c3 600E0000 		.4byte	0xe60
 2044 08c7 E7080000 		.4byte	0x8e7
 2045 08cb 1F       		.uleb128 0x1f
 2046 08cc 01       		.uleb128 0x1
 2047 08cd 53       		.byte	0x53
 2048 08ce 05       		.uleb128 0x5
 2049 08cf 03       		.byte	0x3
 2050 08d0 04000000 		.4byte	.LC6
 2051 08d4 1F       		.uleb128 0x1f
 2052 08d5 01       		.uleb128 0x1
 2053 08d6 52       		.byte	0x52
 2054 08d7 02       		.uleb128 0x2
 2055 08d8 76       		.byte	0x76
 2056 08d9 00       		.sleb128 0
 2057 08da 1F       		.uleb128 0x1f
 2058 08db 01       		.uleb128 0x1
 2059 08dc 51       		.byte	0x51
 2060 08dd 02       		.uleb128 0x2
 2061 08de 77       		.byte	0x77
 2062 08df 7E       		.sleb128 -2
 2063 08e0 1F       		.uleb128 0x1f
 2064 08e1 01       		.uleb128 0x1
 2065 08e2 50       		.byte	0x50
 2066 08e3 02       		.uleb128 0x2
 2067 08e4 75       		.byte	0x75
 2068 08e5 00       		.sleb128 0
 2069 08e6 00       		.byte	0
 2070 08e7 1E       		.uleb128 0x1e
 2071 08e8 48000000 		.4byte	.LVL29
 2072 08ec 600E0000 		.4byte	0xe60
 2073 08f0 10090000 		.4byte	0x910
 2074 08f4 1F       		.uleb128 0x1f
 2075 08f5 01       		.uleb128 0x1
 2076 08f6 53       		.byte	0x53
 2077 08f7 05       		.uleb128 0x5
 2078 08f8 03       		.byte	0x3
 2079 08f9 08000000 		.4byte	.LC8
 2080 08fd 1F       		.uleb128 0x1f
 2081 08fe 01       		.uleb128 0x1
 2082 08ff 52       		.byte	0x52
 2083 0900 02       		.uleb128 0x2
 2084 0901 76       		.byte	0x76
 2085 0902 00       		.sleb128 0
ARM GAS  /var/folders/qh/xwg3v3kj02qbxczjpdb8lzfr0000gn/T//ccuwC7Tn.s 			page 38


 2086 0903 1F       		.uleb128 0x1f
 2087 0904 01       		.uleb128 0x1
 2088 0905 51       		.byte	0x51
 2089 0906 02       		.uleb128 0x2
 2090 0907 77       		.byte	0x77
 2091 0908 7D       		.sleb128 -3
 2092 0909 1F       		.uleb128 0x1f
 2093 090a 01       		.uleb128 0x1
 2094 090b 50       		.byte	0x50
 2095 090c 02       		.uleb128 0x2
 2096 090d 75       		.byte	0x75
 2097 090e 00       		.sleb128 0
 2098 090f 00       		.byte	0
 2099 0910 1E       		.uleb128 0x1e
 2100 0911 56000000 		.4byte	.LVL30
 2101 0915 600E0000 		.4byte	0xe60
 2102 0919 39090000 		.4byte	0x939
 2103 091d 1F       		.uleb128 0x1f
 2104 091e 01       		.uleb128 0x1
 2105 091f 53       		.byte	0x53
 2106 0920 05       		.uleb128 0x5
 2107 0921 03       		.byte	0x3
 2108 0922 10000000 		.4byte	.LC26
 2109 0926 1F       		.uleb128 0x1f
 2110 0927 01       		.uleb128 0x1
 2111 0928 52       		.byte	0x52
 2112 0929 02       		.uleb128 0x2
 2113 092a 76       		.byte	0x76
 2114 092b 00       		.sleb128 0
 2115 092c 1F       		.uleb128 0x1f
 2116 092d 01       		.uleb128 0x1
 2117 092e 51       		.byte	0x51
 2118 092f 02       		.uleb128 0x2
 2119 0930 77       		.byte	0x77
 2120 0931 7C       		.sleb128 -4
 2121 0932 1F       		.uleb128 0x1f
 2122 0933 01       		.uleb128 0x1
 2123 0934 50       		.byte	0x50
 2124 0935 02       		.uleb128 0x2
 2125 0936 75       		.byte	0x75
 2126 0937 00       		.sleb128 0
 2127 0938 00       		.byte	0
 2128 0939 1E       		.uleb128 0x1e
 2129 093a 64000000 		.4byte	.LVL31
 2130 093e 600E0000 		.4byte	0xe60
 2131 0942 62090000 		.4byte	0x962
 2132 0946 1F       		.uleb128 0x1f
 2133 0947 01       		.uleb128 0x1
 2134 0948 53       		.byte	0x53
 2135 0949 05       		.uleb128 0x5
 2136 094a 03       		.byte	0x3
 2137 094b 14000000 		.4byte	.LC28
 2138 094f 1F       		.uleb128 0x1f
 2139 0950 01       		.uleb128 0x1
 2140 0951 52       		.byte	0x52
 2141 0952 02       		.uleb128 0x2
 2142 0953 76       		.byte	0x76
ARM GAS  /var/folders/qh/xwg3v3kj02qbxczjpdb8lzfr0000gn/T//ccuwC7Tn.s 			page 39


 2143 0954 00       		.sleb128 0
 2144 0955 1F       		.uleb128 0x1f
 2145 0956 01       		.uleb128 0x1
 2146 0957 51       		.byte	0x51
 2147 0958 02       		.uleb128 0x2
 2148 0959 77       		.byte	0x77
 2149 095a 7B       		.sleb128 -5
 2150 095b 1F       		.uleb128 0x1f
 2151 095c 01       		.uleb128 0x1
 2152 095d 50       		.byte	0x50
 2153 095e 02       		.uleb128 0x2
 2154 095f 75       		.byte	0x75
 2155 0960 00       		.sleb128 0
 2156 0961 00       		.byte	0
 2157 0962 1E       		.uleb128 0x1e
 2158 0963 8A000000 		.4byte	.LVL32
 2159 0967 D70D0000 		.4byte	0xdd7
 2160 096b 75090000 		.4byte	0x975
 2161 096f 1F       		.uleb128 0x1f
 2162 0970 01       		.uleb128 0x1
 2163 0971 50       		.byte	0x50
 2164 0972 01       		.uleb128 0x1
 2165 0973 31       		.byte	0x31
 2166 0974 00       		.byte	0
 2167 0975 1E       		.uleb128 0x1e
 2168 0976 98000000 		.4byte	.LVL35
 2169 097a D70D0000 		.4byte	0xdd7
 2170 097e 8D090000 		.4byte	0x98d
 2171 0982 1F       		.uleb128 0x1f
 2172 0983 01       		.uleb128 0x1
 2173 0984 51       		.byte	0x51
 2174 0985 01       		.uleb128 0x1
 2175 0986 30       		.byte	0x30
 2176 0987 1F       		.uleb128 0x1f
 2177 0988 01       		.uleb128 0x1
 2178 0989 50       		.byte	0x50
 2179 098a 01       		.uleb128 0x1
 2180 098b 31       		.byte	0x31
 2181 098c 00       		.byte	0
 2182 098d 20       		.uleb128 0x20
 2183 098e A0000000 		.4byte	.LVL36
 2184 0992 F10D0000 		.4byte	0xdf1
 2185 0996 1E       		.uleb128 0x1e
 2186 0997 A8000000 		.4byte	.LVL37
 2187 099b F80D0000 		.4byte	0xdf8
 2188 099f B2090000 		.4byte	0x9b2
 2189 09a3 1F       		.uleb128 0x1f
 2190 09a4 01       		.uleb128 0x1
 2191 09a5 51       		.byte	0x51
 2192 09a6 05       		.uleb128 0x5
 2193 09a7 03       		.byte	0x3
 2194 09a8 18000000 		.4byte	.LC30
 2195 09ac 1F       		.uleb128 0x1f
 2196 09ad 01       		.uleb128 0x1
 2197 09ae 50       		.byte	0x50
 2198 09af 01       		.uleb128 0x1
 2199 09b0 32       		.byte	0x32
ARM GAS  /var/folders/qh/xwg3v3kj02qbxczjpdb8lzfr0000gn/T//ccuwC7Tn.s 			page 40


 2200 09b1 00       		.byte	0
 2201 09b2 1E       		.uleb128 0x1e
 2202 09b3 B4000000 		.4byte	.LVL39
 2203 09b7 840E0000 		.4byte	0xe84
 2204 09bb C6090000 		.4byte	0x9c6
 2205 09bf 1F       		.uleb128 0x1f
 2206 09c0 01       		.uleb128 0x1
 2207 09c1 50       		.byte	0x50
 2208 09c2 02       		.uleb128 0x2
 2209 09c3 75       		.byte	0x75
 2210 09c4 00       		.sleb128 0
 2211 09c5 00       		.byte	0
 2212 09c6 1E       		.uleb128 0x1e
 2213 09c7 C2000000 		.4byte	.LVL40
 2214 09cb D70D0000 		.4byte	0xdd7
 2215 09cf D9090000 		.4byte	0x9d9
 2216 09d3 1F       		.uleb128 0x1f
 2217 09d4 01       		.uleb128 0x1
 2218 09d5 50       		.byte	0x50
 2219 09d6 01       		.uleb128 0x1
 2220 09d7 33       		.byte	0x33
 2221 09d8 00       		.byte	0
 2222 09d9 1E       		.uleb128 0x1e
 2223 09da D2000000 		.4byte	.LVL43
 2224 09de 840E0000 		.4byte	0xe84
 2225 09e2 ED090000 		.4byte	0x9ed
 2226 09e6 1F       		.uleb128 0x1f
 2227 09e7 01       		.uleb128 0x1
 2228 09e8 50       		.byte	0x50
 2229 09e9 02       		.uleb128 0x2
 2230 09ea 75       		.byte	0x75
 2231 09eb 00       		.sleb128 0
 2232 09ec 00       		.byte	0
 2233 09ed 21       		.uleb128 0x21
 2234 09ee DE000000 		.4byte	.LVL44
 2235 09f2 D70D0000 		.4byte	0xdd7
 2236 09f6 1F       		.uleb128 0x1f
 2237 09f7 01       		.uleb128 0x1
 2238 09f8 50       		.byte	0x50
 2239 09f9 01       		.uleb128 0x1
 2240 09fa 34       		.byte	0x34
 2241 09fb 00       		.byte	0
 2242 09fc 00       		.byte	0
 2243 09fd 1A       		.uleb128 0x1a
 2244 09fe A1000000 		.4byte	.LASF97
 2245 0a02 01       		.byte	0x1
 2246 0a03 88       		.byte	0x88
 2247 0a04 00000000 		.4byte	.LFB10
 2248 0a08 14000000 		.4byte	.LFE10-.LFB10
 2249 0a0c 01       		.uleb128 0x1
 2250 0a0d 9C       		.byte	0x9c
 2251 0a0e 320A0000 		.4byte	0xa32
 2252 0a12 21       		.uleb128 0x21
 2253 0a13 0E000000 		.4byte	.LVL45
 2254 0a17 990E0000 		.4byte	0xe99
 2255 0a1b 1F       		.uleb128 0x1f
 2256 0a1c 01       		.uleb128 0x1
ARM GAS  /var/folders/qh/xwg3v3kj02qbxczjpdb8lzfr0000gn/T//ccuwC7Tn.s 			page 41


 2257 0a1d 52       		.byte	0x52
 2258 0a1e 01       		.uleb128 0x1
 2259 0a1f 30       		.byte	0x30
 2260 0a20 1F       		.uleb128 0x1f
 2261 0a21 01       		.uleb128 0x1
 2262 0a22 51       		.byte	0x51
 2263 0a23 03       		.uleb128 0x3
 2264 0a24 0A       		.byte	0xa
 2265 0a25 3001     		.2byte	0x130
 2266 0a27 1F       		.uleb128 0x1f
 2267 0a28 01       		.uleb128 0x1
 2268 0a29 50       		.byte	0x50
 2269 0a2a 05       		.uleb128 0x5
 2270 0a2b 03       		.byte	0x3
 2271 0a2c 00000000 		.4byte	.LANCHOR1
 2272 0a30 00       		.byte	0
 2273 0a31 00       		.byte	0
 2274 0a32 22       		.uleb128 0x22
 2275 0a33 A5050000 		.4byte	.LASF99
 2276 0a37 01       		.byte	0x1
 2277 0a38 BF       		.byte	0xbf
 2278 0a39 A2000000 		.4byte	0xa2
 2279 0a3d 00000000 		.4byte	.LFB12
 2280 0a41 1E000000 		.4byte	.LFE12-.LFB12
 2281 0a45 01       		.uleb128 0x1
 2282 0a46 9C       		.byte	0x9c
 2283 0a47 8A0A0000 		.4byte	0xa8a
 2284 0a4b 23       		.uleb128 0x23
 2285 0a4c 747000   		.ascii	"tp\000"
 2286 0a4f 01       		.byte	0x1
 2287 0a50 BF       		.byte	0xbf
 2288 0a51 35020000 		.4byte	0x235
 2289 0a55 C7000000 		.4byte	.LLST5
 2290 0a59 1C       		.uleb128 0x1c
 2291 0a5a 66747000 		.ascii	"ftp\000"
 2292 0a5e 01       		.byte	0x1
 2293 0a5f C0       		.byte	0xc0
 2294 0a60 35020000 		.4byte	0x235
 2295 0a64 F3000000 		.4byte	.LLST6
 2296 0a68 1D       		.uleb128 0x1d
 2297 0a69 75050000 		.4byte	.LASF100
 2298 0a6d 01       		.byte	0x1
 2299 0a6e C1       		.byte	0xc1
 2300 0a6f A2000000 		.4byte	0xa2
 2301 0a73 11010000 		.4byte	.LLST7
 2302 0a77 20       		.uleb128 0x20
 2303 0a78 08000000 		.4byte	.LVL47
 2304 0a7c B40E0000 		.4byte	0xeb4
 2305 0a80 20       		.uleb128 0x20
 2306 0a81 16000000 		.4byte	.LVL50
 2307 0a85 BF0E0000 		.4byte	0xebf
 2308 0a89 00       		.byte	0
 2309 0a8a 1A       		.uleb128 0x1a
 2310 0a8b 69030000 		.4byte	.LASF101
 2311 0a8f 01       		.byte	0x1
 2312 0a90 D0       		.byte	0xd0
 2313 0a91 00000000 		.4byte	.LFB14
ARM GAS  /var/folders/qh/xwg3v3kj02qbxczjpdb8lzfr0000gn/T//ccuwC7Tn.s 			page 42


 2314 0a95 30010000 		.4byte	.LFE14-.LFB14
 2315 0a99 01       		.uleb128 0x1
 2316 0a9a 9C       		.byte	0x9c
 2317 0a9b 920C0000 		.4byte	0xc92
 2318 0a9f 1C       		.uleb128 0x1c
 2319 0aa0 747000   		.ascii	"tp\000"
 2320 0aa3 01       		.byte	0x1
 2321 0aa4 D1       		.byte	0xd1
 2322 0aa5 35020000 		.4byte	0x235
 2323 0aa9 3B010000 		.4byte	.LLST8
 2324 0aad 24       		.uleb128 0x24
 2325 0aae 15000000 		.4byte	.LASF92
 2326 0ab2 01       		.byte	0x1
 2327 0ab3 D2       		.byte	0xd2
 2328 0ab4 E0000000 		.4byte	0xe0
 2329 0ab8 1E       		.uleb128 0x1e
 2330 0ab9 1C000000 		.4byte	.LVL56
 2331 0abd 830D0000 		.4byte	0xd83
 2332 0ac1 E90A0000 		.4byte	0xae9
 2333 0ac5 1F       		.uleb128 0x1f
 2334 0ac6 01       		.uleb128 0x1
 2335 0ac7 53       		.byte	0x53
 2336 0ac8 05       		.uleb128 0x5
 2337 0ac9 03       		.byte	0x3
 2338 0aca 00000000 		.4byte	thread
 2339 0ace 1F       		.uleb128 0x1f
 2340 0acf 01       		.uleb128 0x1
 2341 0ad0 51       		.byte	0x51
 2342 0ad1 03       		.uleb128 0x3
 2343 0ad2 0A       		.byte	0xa
 2344 0ad3 3001     		.2byte	0x130
 2345 0ad5 1F       		.uleb128 0x1f
 2346 0ad6 01       		.uleb128 0x1
 2347 0ad7 50       		.byte	0x50
 2348 0ad8 05       		.uleb128 0x5
 2349 0ad9 03       		.byte	0x3
 2350 0ada 00000000 		.4byte	.LANCHOR0
 2351 0ade 1F       		.uleb128 0x1f
 2352 0adf 02       		.uleb128 0x2
 2353 0ae0 7D       		.byte	0x7d
 2354 0ae1 00       		.sleb128 0
 2355 0ae2 05       		.uleb128 0x5
 2356 0ae3 03       		.byte	0x3
 2357 0ae4 00000000 		.4byte	.LC3
 2358 0ae8 00       		.byte	0
 2359 0ae9 1E       		.uleb128 0x1e
 2360 0aea 2E000000 		.4byte	.LVL59
 2361 0aee D70D0000 		.4byte	0xdd7
 2362 0af2 FC0A0000 		.4byte	0xafc
 2363 0af6 1F       		.uleb128 0x1f
 2364 0af7 01       		.uleb128 0x1
 2365 0af8 50       		.byte	0x50
 2366 0af9 01       		.uleb128 0x1
 2367 0afa 31       		.byte	0x31
 2368 0afb 00       		.byte	0
 2369 0afc 1E       		.uleb128 0x1e
 2370 0afd 3C000000 		.4byte	.LVL62
ARM GAS  /var/folders/qh/xwg3v3kj02qbxczjpdb8lzfr0000gn/T//ccuwC7Tn.s 			page 43


 2371 0b01 D40E0000 		.4byte	0xed4
 2372 0b05 100B0000 		.4byte	0xb10
 2373 0b09 1F       		.uleb128 0x1f
 2374 0b0a 01       		.uleb128 0x1
 2375 0b0b 50       		.byte	0x50
 2376 0b0c 02       		.uleb128 0x2
 2377 0b0d 74       		.byte	0x74
 2378 0b0e 00       		.sleb128 0
 2379 0b0f 00       		.byte	0
 2380 0b10 1E       		.uleb128 0x1e
 2381 0b11 4C000000 		.4byte	.LVL63
 2382 0b15 D70D0000 		.4byte	0xdd7
 2383 0b19 230B0000 		.4byte	0xb23
 2384 0b1d 1F       		.uleb128 0x1f
 2385 0b1e 01       		.uleb128 0x1
 2386 0b1f 50       		.byte	0x50
 2387 0b20 01       		.uleb128 0x1
 2388 0b21 32       		.byte	0x32
 2389 0b22 00       		.byte	0
 2390 0b23 1E       		.uleb128 0x1e
 2391 0b24 56000000 		.4byte	.LVL64
 2392 0b28 E90E0000 		.4byte	0xee9
 2393 0b2c 370B0000 		.4byte	0xb37
 2394 0b30 1F       		.uleb128 0x1f
 2395 0b31 01       		.uleb128 0x1
 2396 0b32 50       		.byte	0x50
 2397 0b33 02       		.uleb128 0x2
 2398 0b34 74       		.byte	0x74
 2399 0b35 00       		.sleb128 0
 2400 0b36 00       		.byte	0
 2401 0b37 1E       		.uleb128 0x1e
 2402 0b38 66000000 		.4byte	.LVL65
 2403 0b3c D70D0000 		.4byte	0xdd7
 2404 0b40 4A0B0000 		.4byte	0xb4a
 2405 0b44 1F       		.uleb128 0x1f
 2406 0b45 01       		.uleb128 0x1
 2407 0b46 50       		.byte	0x50
 2408 0b47 01       		.uleb128 0x1
 2409 0b48 33       		.byte	0x33
 2410 0b49 00       		.byte	0
 2411 0b4a 1E       		.uleb128 0x1e
 2412 0b4b 70000000 		.4byte	.LVL66
 2413 0b4f 320A0000 		.4byte	0xa32
 2414 0b53 5E0B0000 		.4byte	0xb5e
 2415 0b57 1F       		.uleb128 0x1f
 2416 0b58 01       		.uleb128 0x1
 2417 0b59 50       		.byte	0x50
 2418 0b5a 02       		.uleb128 0x2
 2419 0b5b 74       		.byte	0x74
 2420 0b5c 00       		.sleb128 0
 2421 0b5d 00       		.byte	0
 2422 0b5e 1E       		.uleb128 0x1e
 2423 0b5f 78000000 		.4byte	.LVL67
 2424 0b63 D70D0000 		.4byte	0xdd7
 2425 0b67 710B0000 		.4byte	0xb71
 2426 0b6b 1F       		.uleb128 0x1f
 2427 0b6c 01       		.uleb128 0x1
ARM GAS  /var/folders/qh/xwg3v3kj02qbxczjpdb8lzfr0000gn/T//ccuwC7Tn.s 			page 44


 2428 0b6d 50       		.byte	0x50
 2429 0b6e 01       		.uleb128 0x1
 2430 0b6f 34       		.byte	0x34
 2431 0b70 00       		.byte	0
 2432 0b71 1E       		.uleb128 0x1e
 2433 0b72 82000000 		.4byte	.LVL68
 2434 0b76 320A0000 		.4byte	0xa32
 2435 0b7a 850B0000 		.4byte	0xb85
 2436 0b7e 1F       		.uleb128 0x1f
 2437 0b7f 01       		.uleb128 0x1
 2438 0b80 50       		.byte	0x50
 2439 0b81 02       		.uleb128 0x2
 2440 0b82 74       		.byte	0x74
 2441 0b83 00       		.sleb128 0
 2442 0b84 00       		.byte	0
 2443 0b85 1E       		.uleb128 0x1e
 2444 0b86 8A000000 		.4byte	.LVL69
 2445 0b8a D70D0000 		.4byte	0xdd7
 2446 0b8e 980B0000 		.4byte	0xb98
 2447 0b92 1F       		.uleb128 0x1f
 2448 0b93 01       		.uleb128 0x1
 2449 0b94 50       		.byte	0x50
 2450 0b95 01       		.uleb128 0x1
 2451 0b96 35       		.byte	0x35
 2452 0b97 00       		.byte	0
 2453 0b98 1E       		.uleb128 0x1e
 2454 0b99 94000000 		.4byte	.LVL70
 2455 0b9d E90E0000 		.4byte	0xee9
 2456 0ba1 AC0B0000 		.4byte	0xbac
 2457 0ba5 1F       		.uleb128 0x1f
 2458 0ba6 01       		.uleb128 0x1
 2459 0ba7 50       		.byte	0x50
 2460 0ba8 02       		.uleb128 0x2
 2461 0ba9 74       		.byte	0x74
 2462 0baa 00       		.sleb128 0
 2463 0bab 00       		.byte	0
 2464 0bac 1E       		.uleb128 0x1e
 2465 0bad A2000000 		.4byte	.LVL71
 2466 0bb1 D70D0000 		.4byte	0xdd7
 2467 0bb5 BF0B0000 		.4byte	0xbbf
 2468 0bb9 1F       		.uleb128 0x1f
 2469 0bba 01       		.uleb128 0x1
 2470 0bbb 50       		.byte	0x50
 2471 0bbc 01       		.uleb128 0x1
 2472 0bbd 36       		.byte	0x36
 2473 0bbe 00       		.byte	0
 2474 0bbf 1E       		.uleb128 0x1e
 2475 0bc0 B4000000 		.4byte	.LVL72
 2476 0bc4 D70D0000 		.4byte	0xdd7
 2477 0bc8 D20B0000 		.4byte	0xbd2
 2478 0bcc 1F       		.uleb128 0x1f
 2479 0bcd 01       		.uleb128 0x1
 2480 0bce 50       		.byte	0x50
 2481 0bcf 01       		.uleb128 0x1
 2482 0bd0 37       		.byte	0x37
 2483 0bd1 00       		.byte	0
 2484 0bd2 1E       		.uleb128 0x1e
ARM GAS  /var/folders/qh/xwg3v3kj02qbxczjpdb8lzfr0000gn/T//ccuwC7Tn.s 			page 45


 2485 0bd3 BE000000 		.4byte	.LVL73
 2486 0bd7 320A0000 		.4byte	0xa32
 2487 0bdb E60B0000 		.4byte	0xbe6
 2488 0bdf 1F       		.uleb128 0x1f
 2489 0be0 01       		.uleb128 0x1
 2490 0be1 50       		.byte	0x50
 2491 0be2 02       		.uleb128 0x2
 2492 0be3 74       		.byte	0x74
 2493 0be4 00       		.sleb128 0
 2494 0be5 00       		.byte	0
 2495 0be6 1E       		.uleb128 0x1e
 2496 0be7 C6000000 		.4byte	.LVL74
 2497 0beb D70D0000 		.4byte	0xdd7
 2498 0bef F90B0000 		.4byte	0xbf9
 2499 0bf3 1F       		.uleb128 0x1f
 2500 0bf4 01       		.uleb128 0x1
 2501 0bf5 50       		.byte	0x50
 2502 0bf6 01       		.uleb128 0x1
 2503 0bf7 38       		.byte	0x38
 2504 0bf8 00       		.byte	0
 2505 0bf9 1E       		.uleb128 0x1e
 2506 0bfa D0000000 		.4byte	.LVL75
 2507 0bfe 320A0000 		.4byte	0xa32
 2508 0c02 0D0C0000 		.4byte	0xc0d
 2509 0c06 1F       		.uleb128 0x1f
 2510 0c07 01       		.uleb128 0x1
 2511 0c08 50       		.byte	0x50
 2512 0c09 02       		.uleb128 0x2
 2513 0c0a 74       		.byte	0x74
 2514 0c0b 00       		.sleb128 0
 2515 0c0c 00       		.byte	0
 2516 0c0d 1E       		.uleb128 0x1e
 2517 0c0e D8000000 		.4byte	.LVL76
 2518 0c12 D70D0000 		.4byte	0xdd7
 2519 0c16 200C0000 		.4byte	0xc20
 2520 0c1a 1F       		.uleb128 0x1f
 2521 0c1b 01       		.uleb128 0x1
 2522 0c1c 50       		.byte	0x50
 2523 0c1d 01       		.uleb128 0x1
 2524 0c1e 39       		.byte	0x39
 2525 0c1f 00       		.byte	0
 2526 0c20 1E       		.uleb128 0x1e
 2527 0c21 E2000000 		.4byte	.LVL77
 2528 0c25 FA0E0000 		.4byte	0xefa
 2529 0c29 340C0000 		.4byte	0xc34
 2530 0c2d 1F       		.uleb128 0x1f
 2531 0c2e 01       		.uleb128 0x1
 2532 0c2f 50       		.byte	0x50
 2533 0c30 02       		.uleb128 0x2
 2534 0c31 08       		.byte	0x8
 2535 0c32 32       		.byte	0x32
 2536 0c33 00       		.byte	0
 2537 0c34 1E       		.uleb128 0x1e
 2538 0c35 F2000000 		.4byte	.LVL78
 2539 0c39 D70D0000 		.4byte	0xdd7
 2540 0c3d 470C0000 		.4byte	0xc47
 2541 0c41 1F       		.uleb128 0x1f
ARM GAS  /var/folders/qh/xwg3v3kj02qbxczjpdb8lzfr0000gn/T//ccuwC7Tn.s 			page 46


 2542 0c42 01       		.uleb128 0x1
 2543 0c43 50       		.byte	0x50
 2544 0c44 01       		.uleb128 0x1
 2545 0c45 3A       		.byte	0x3a
 2546 0c46 00       		.byte	0
 2547 0c47 1E       		.uleb128 0x1e
 2548 0c48 FC000000 		.4byte	.LVL79
 2549 0c4c 320A0000 		.4byte	0xa32
 2550 0c50 5B0C0000 		.4byte	0xc5b
 2551 0c54 1F       		.uleb128 0x1f
 2552 0c55 01       		.uleb128 0x1
 2553 0c56 50       		.byte	0x50
 2554 0c57 02       		.uleb128 0x2
 2555 0c58 74       		.byte	0x74
 2556 0c59 00       		.sleb128 0
 2557 0c5a 00       		.byte	0
 2558 0c5b 1E       		.uleb128 0x1e
 2559 0c5c 04010000 		.4byte	.LVL80
 2560 0c60 D70D0000 		.4byte	0xdd7
 2561 0c64 6E0C0000 		.4byte	0xc6e
 2562 0c68 1F       		.uleb128 0x1f
 2563 0c69 01       		.uleb128 0x1
 2564 0c6a 50       		.byte	0x50
 2565 0c6b 01       		.uleb128 0x1
 2566 0c6c 3B       		.byte	0x3b
 2567 0c6d 00       		.byte	0
 2568 0c6e 1E       		.uleb128 0x1e
 2569 0c6f 10010000 		.4byte	.LVL81
 2570 0c73 320A0000 		.4byte	0xa32
 2571 0c77 820C0000 		.4byte	0xc82
 2572 0c7b 1F       		.uleb128 0x1f
 2573 0c7c 01       		.uleb128 0x1
 2574 0c7d 50       		.byte	0x50
 2575 0c7e 02       		.uleb128 0x2
 2576 0c7f 74       		.byte	0x74
 2577 0c80 00       		.sleb128 0
 2578 0c81 00       		.byte	0
 2579 0c82 21       		.uleb128 0x21
 2580 0c83 1C010000 		.4byte	.LVL82
 2581 0c87 D70D0000 		.4byte	0xdd7
 2582 0c8b 1F       		.uleb128 0x1f
 2583 0c8c 01       		.uleb128 0x1
 2584 0c8d 50       		.byte	0x50
 2585 0c8e 01       		.uleb128 0x1
 2586 0c8f 3C       		.byte	0x3c
 2587 0c90 00       		.byte	0
 2588 0c91 00       		.byte	0
 2589 0c92 25       		.uleb128 0x25
 2590 0c93 05060000 		.4byte	.LASF102
 2591 0c97 01       		.byte	0x1
 2592 0c98 36       		.byte	0x36
 2593 0c99 D9030000 		.4byte	0x3d9
 2594 0c9d 05       		.uleb128 0x5
 2595 0c9e 03       		.byte	0x3
 2596 0c9f 00000000 		.4byte	heap1
 2597 0ca3 1B       		.uleb128 0x1b
 2598 0ca4 6D703100 		.ascii	"mp1\000"
ARM GAS  /var/folders/qh/xwg3v3kj02qbxczjpdb8lzfr0000gn/T//ccuwC7Tn.s 			page 47


 2599 0ca8 01       		.byte	0x1
 2600 0ca9 39       		.byte	0x39
 2601 0caa CC040000 		.4byte	0x4cc
 2602 0cae 05       		.uleb128 0x5
 2603 0caf 03       		.byte	0x3
 2604 0cb0 00000000 		.4byte	mp1
 2605 0cb4 26       		.uleb128 0x26
 2606 0cb5 AD050000 		.4byte	.LASF103
 2607 0cb9 08       		.byte	0x8
 2608 0cba 68       		.byte	0x68
 2609 0cbb 6C030000 		.4byte	0x36c
 2610 0cbf 16       		.uleb128 0x16
 2611 0cc0 35020000 		.4byte	0x235
 2612 0cc4 CF0C0000 		.4byte	0xccf
 2613 0cc8 17       		.uleb128 0x17
 2614 0cc9 0F030000 		.4byte	0x30f
 2615 0ccd 04       		.byte	0x4
 2616 0cce 00       		.byte	0
 2617 0ccf 26       		.uleb128 0x26
 2618 0cd0 54040000 		.4byte	.LASF104
 2619 0cd4 0D       		.byte	0xd
 2620 0cd5 A5       		.byte	0xa5
 2621 0cd6 BF0C0000 		.4byte	0xcbf
 2622 0cda 26       		.uleb128 0x26
 2623 0cdb 69000000 		.4byte	.LASF105
 2624 0cdf 0D       		.byte	0xd
 2625 0ce0 A6       		.byte	0xa6
 2626 0ce1 DD050000 		.4byte	0x5dd
 2627 0ce5 16       		.uleb128 0x16
 2628 0ce6 71020000 		.4byte	0x271
 2629 0cea F00C0000 		.4byte	0xcf0
 2630 0cee 27       		.uleb128 0x27
 2631 0cef 00       		.byte	0
 2632 0cf0 28       		.uleb128 0x28
 2633 0cf1 776100   		.ascii	"wa\000"
 2634 0cf4 0D       		.byte	0xd
 2635 0cf5 A7       		.byte	0xa7
 2636 0cf6 FA0C0000 		.4byte	0xcfa
 2637 0cfa 12       		.uleb128 0x12
 2638 0cfb E50C0000 		.4byte	0xce5
 2639 0cff 29       		.uleb128 0x29
 2640 0d00 74020000 		.4byte	.LASF106
 2641 0d04 01       		.byte	0x1
 2642 0d05 75       		.byte	0x75
 2643 0d06 100D0000 		.4byte	0xd10
 2644 0d0a 05       		.uleb128 0x5
 2645 0d0b 03       		.byte	0x3
 2646 0d0c 00000000 		.4byte	testdyn1
 2647 0d10 12       		.uleb128 0x12
 2648 0d11 44050000 		.4byte	0x544
 2649 0d15 29       		.uleb128 0x29
 2650 0d16 7D020000 		.4byte	.LASF107
 2651 0d1a 01       		.byte	0x1
 2652 0d1b AD       		.byte	0xad
 2653 0d1c 100D0000 		.4byte	0xd10
 2654 0d20 05       		.uleb128 0x5
 2655 0d21 03       		.byte	0x3
ARM GAS  /var/folders/qh/xwg3v3kj02qbxczjpdb8lzfr0000gn/T//ccuwC7Tn.s 			page 48


 2656 0d22 00000000 		.4byte	testdyn2
 2657 0d26 29       		.uleb128 0x29
 2658 0d27 86020000 		.4byte	.LASF108
 2659 0d2b 01       		.byte	0x1
 2660 0d2c EE       		.byte	0xee
 2661 0d2d 100D0000 		.4byte	0xd10
 2662 0d31 05       		.uleb128 0x5
 2663 0d32 03       		.byte	0x3
 2664 0d33 00000000 		.4byte	testdyn3
 2665 0d37 16       		.uleb128 0x16
 2666 0d38 470D0000 		.4byte	0xd47
 2667 0d3c 470D0000 		.4byte	0xd47
 2668 0d40 17       		.uleb128 0x17
 2669 0d41 0F030000 		.4byte	0x30f
 2670 0d45 03       		.byte	0x3
 2671 0d46 00       		.byte	0
 2672 0d47 09       		.uleb128 0x9
 2673 0d48 04       		.byte	0x4
 2674 0d49 100D0000 		.4byte	0xd10
 2675 0d4d 29       		.uleb128 0x29
 2676 0d4e 3C050000 		.4byte	.LASF109
 2677 0d52 01       		.byte	0x1
 2678 0d53 FA       		.byte	0xfa
 2679 0d54 5E0D0000 		.4byte	0xd5e
 2680 0d58 05       		.uleb128 0x5
 2681 0d59 03       		.byte	0x3
 2682 0d5a 00000000 		.4byte	patterndyn
 2683 0d5e 12       		.uleb128 0x12
 2684 0d5f 370D0000 		.4byte	0xd37
 2685 0d63 2A       		.uleb128 0x2a
 2686 0d64 FA040000 		.4byte	.LASF110
 2687 0d68 0B       		.byte	0xb
 2688 0d69 54       		.byte	0x54
 2689 0d6a 2C000000 		.4byte	0x2c
 2690 0d6e 7D0D0000 		.4byte	0xd7d
 2691 0d72 0D       		.uleb128 0xd
 2692 0d73 5B040000 		.4byte	0x45b
 2693 0d77 0D       		.uleb128 0xd
 2694 0d78 7D0D0000 		.4byte	0xd7d
 2695 0d7c 00       		.byte	0
 2696 0d7d 09       		.uleb128 0x9
 2697 0d7e 04       		.byte	0x4
 2698 0d7f 2C000000 		.4byte	0x2c
 2699 0d83 2A       		.uleb128 0x2a
 2700 0d84 11010000 		.4byte	.LASF111
 2701 0d88 0E       		.byte	0xe
 2702 0d89 35       		.byte	0x35
 2703 0d8a 35020000 		.4byte	0x235
 2704 0d8e AC0D0000 		.4byte	0xdac
 2705 0d92 0D       		.uleb128 0xd
 2706 0d93 5B040000 		.4byte	0x45b
 2707 0d97 0D       		.uleb128 0xd
 2708 0d98 2C000000 		.4byte	0x2c
 2709 0d9c 0D       		.uleb128 0xd
 2710 0d9d E0000000 		.4byte	0xe0
 2711 0da1 0D       		.uleb128 0xd
 2712 0da2 24050000 		.4byte	0x524
ARM GAS  /var/folders/qh/xwg3v3kj02qbxczjpdb8lzfr0000gn/T//ccuwC7Tn.s 			page 49


 2713 0da6 0D       		.uleb128 0xd
 2714 0da7 71020000 		.4byte	0x271
 2715 0dab 00       		.byte	0
 2716 0dac 2A       		.uleb128 0x2a
 2717 0dad 99040000 		.4byte	.LASF112
 2718 0db1 0B       		.byte	0xb
 2719 0db2 52       		.byte	0x52
 2720 0db3 71020000 		.4byte	0x271
 2721 0db7 C60D0000 		.4byte	0xdc6
 2722 0dbb 0D       		.uleb128 0xd
 2723 0dbc 5B040000 		.4byte	0x45b
 2724 0dc0 0D       		.uleb128 0xd
 2725 0dc1 2C000000 		.4byte	0x2c
 2726 0dc5 00       		.byte	0
 2727 0dc6 2B       		.uleb128 0x2b
 2728 0dc7 F3000000 		.4byte	.LASF115
 2729 0dcb 0B       		.byte	0xb
 2730 0dcc 53       		.byte	0x53
 2731 0dcd D70D0000 		.4byte	0xdd7
 2732 0dd1 0D       		.uleb128 0xd
 2733 0dd2 71020000 		.4byte	0x271
 2734 0dd6 00       		.byte	0
 2735 0dd7 2A       		.uleb128 0x2a
 2736 0dd8 E0050000 		.4byte	.LASF113
 2737 0ddc 0D       		.byte	0xd
 2738 0ddd 58       		.byte	0x58
 2739 0dde A2000000 		.4byte	0xa2
 2740 0de2 F10D0000 		.4byte	0xdf1
 2741 0de6 0D       		.uleb128 0xd
 2742 0de7 37000000 		.4byte	0x37
 2743 0deb 0D       		.uleb128 0xd
 2744 0dec A2000000 		.4byte	0xa2
 2745 0df0 00       		.byte	0
 2746 0df1 2C       		.uleb128 0x2c
 2747 0df2 07050000 		.4byte	.LASF128
 2748 0df6 0D       		.byte	0xd
 2749 0df7 5C       		.byte	0x5c
 2750 0df8 2A       		.uleb128 0x2a
 2751 0df9 A6030000 		.4byte	.LASF114
 2752 0dfd 0D       		.byte	0xd
 2753 0dfe 59       		.byte	0x59
 2754 0dff A2000000 		.4byte	0xa2
 2755 0e03 120E0000 		.4byte	0xe12
 2756 0e07 0D       		.uleb128 0xd
 2757 0e08 37000000 		.4byte	0x37
 2758 0e0c 0D       		.uleb128 0xd
 2759 0e0d 120E0000 		.4byte	0xe12
 2760 0e11 00       		.byte	0
 2761 0e12 09       		.uleb128 0x9
 2762 0e13 04       		.byte	0x4
 2763 0e14 17050000 		.4byte	0x517
 2764 0e18 2B       		.uleb128 0x2b
 2765 0e19 E3000000 		.4byte	.LASF116
 2766 0e1d 0D       		.byte	0xd
 2767 0e1e 56       		.byte	0x56
 2768 0e1f 290E0000 		.4byte	0xe29
 2769 0e23 0D       		.uleb128 0xd
ARM GAS  /var/folders/qh/xwg3v3kj02qbxczjpdb8lzfr0000gn/T//ccuwC7Tn.s 			page 50


 2770 0e24 17050000 		.4byte	0x517
 2771 0e28 00       		.byte	0
 2772 0e29 2B       		.uleb128 0x2b
 2773 0e2a 8A000000 		.4byte	.LASF117
 2774 0e2e 0B       		.byte	0xb
 2775 0e2f 50       		.byte	0x50
 2776 0e30 440E0000 		.4byte	0xe44
 2777 0e34 0D       		.uleb128 0xd
 2778 0e35 5B040000 		.4byte	0x45b
 2779 0e39 0D       		.uleb128 0xd
 2780 0e3a 71020000 		.4byte	0x271
 2781 0e3e 0D       		.uleb128 0xd
 2782 0e3f 2C000000 		.4byte	0x2c
 2783 0e43 00       		.byte	0
 2784 0e44 2B       		.uleb128 0x2b
 2785 0e45 C7050000 		.4byte	.LASF118
 2786 0e49 0C       		.byte	0xc
 2787 0e4a 7D       		.byte	0x7d
 2788 0e4b 5A0E0000 		.4byte	0xe5a
 2789 0e4f 0D       		.uleb128 0xd
 2790 0e50 5A0E0000 		.4byte	0xe5a
 2791 0e54 0D       		.uleb128 0xd
 2792 0e55 71020000 		.4byte	0x271
 2793 0e59 00       		.byte	0
 2794 0e5a 09       		.uleb128 0x9
 2795 0e5b 04       		.byte	0x4
 2796 0e5c CC040000 		.4byte	0x4cc
 2797 0e60 2A       		.uleb128 0x2a
 2798 0e61 4B010000 		.4byte	.LASF119
 2799 0e65 0E       		.byte	0xe
 2800 0e66 39       		.byte	0x39
 2801 0e67 35020000 		.4byte	0x235
 2802 0e6b 840E0000 		.4byte	0xe84
 2803 0e6f 0D       		.uleb128 0xd
 2804 0e70 5A0E0000 		.4byte	0xe5a
 2805 0e74 0D       		.uleb128 0xd
 2806 0e75 E0000000 		.4byte	0xe0
 2807 0e79 0D       		.uleb128 0xd
 2808 0e7a 24050000 		.4byte	0x524
 2809 0e7e 0D       		.uleb128 0xd
 2810 0e7f 71020000 		.4byte	0x271
 2811 0e83 00       		.byte	0
 2812 0e84 2A       		.uleb128 0x2a
 2813 0e85 BB050000 		.4byte	.LASF120
 2814 0e89 0C       		.byte	0xc
 2815 0e8a 7B       		.byte	0x7b
 2816 0e8b 71020000 		.4byte	0x271
 2817 0e8f 990E0000 		.4byte	0xe99
 2818 0e93 0D       		.uleb128 0xd
 2819 0e94 5A0E0000 		.4byte	0xe5a
 2820 0e98 00       		.byte	0
 2821 0e99 2B       		.uleb128 0x2b
 2822 0e9a 7F000000 		.4byte	.LASF121
 2823 0e9e 0C       		.byte	0xc
 2824 0e9f 78       		.byte	0x78
 2825 0ea0 B40E0000 		.4byte	0xeb4
 2826 0ea4 0D       		.uleb128 0xd
ARM GAS  /var/folders/qh/xwg3v3kj02qbxczjpdb8lzfr0000gn/T//ccuwC7Tn.s 			page 51


 2827 0ea5 5A0E0000 		.4byte	0xe5a
 2828 0ea9 0D       		.uleb128 0xd
 2829 0eaa 2C000000 		.4byte	0x2c
 2830 0eae 0D       		.uleb128 0xd
 2831 0eaf B9030000 		.4byte	0x3b9
 2832 0eb3 00       		.byte	0
 2833 0eb4 2D       		.uleb128 0x2d
 2834 0eb5 6E000000 		.4byte	.LASF129
 2835 0eb9 0F       		.byte	0xf
 2836 0eba 78       		.byte	0x78
 2837 0ebb 35020000 		.4byte	0x235
 2838 0ebf 2A       		.uleb128 0x2a
 2839 0ec0 DF040000 		.4byte	.LASF122
 2840 0ec4 0F       		.byte	0xf
 2841 0ec5 79       		.byte	0x79
 2842 0ec6 35020000 		.4byte	0x235
 2843 0eca D40E0000 		.4byte	0xed4
 2844 0ece 0D       		.uleb128 0xd
 2845 0ecf 35020000 		.4byte	0x235
 2846 0ed3 00       		.byte	0
 2847 0ed4 2A       		.uleb128 0x2a
 2848 0ed5 54020000 		.4byte	.LASF123
 2849 0ed9 0E       		.byte	0xe
 2850 0eda 32       		.byte	0x32
 2851 0edb 35020000 		.4byte	0x235
 2852 0edf E90E0000 		.4byte	0xee9
 2853 0ee3 0D       		.uleb128 0xd
 2854 0ee4 35020000 		.4byte	0x235
 2855 0ee8 00       		.byte	0
 2856 0ee9 2B       		.uleb128 0x2b
 2857 0eea 85040000 		.4byte	.LASF124
 2858 0eee 0E       		.byte	0xe
 2859 0eef 33       		.byte	0x33
 2860 0ef0 FA0E0000 		.4byte	0xefa
 2861 0ef4 0D       		.uleb128 0xd
 2862 0ef5 35020000 		.4byte	0x235
 2863 0ef9 00       		.byte	0
 2864 0efa 2E       		.uleb128 0x2e
 2865 0efb B9040000 		.4byte	.LASF130
 2866 0eff 06       		.byte	0x6
 2867 0f00 6E01     		.2byte	0x16e
 2868 0f02 0D       		.uleb128 0xd
 2869 0f03 01010000 		.4byte	0x101
 2870 0f07 00       		.byte	0
 2871 0f08 00       		.byte	0
 2872              		.section	.debug_abbrev,"",%progbits
 2873              	.Ldebug_abbrev0:
 2874 0000 01       		.uleb128 0x1
 2875 0001 11       		.uleb128 0x11
 2876 0002 01       		.byte	0x1
 2877 0003 25       		.uleb128 0x25
 2878 0004 0E       		.uleb128 0xe
 2879 0005 13       		.uleb128 0x13
 2880 0006 0B       		.uleb128 0xb
 2881 0007 03       		.uleb128 0x3
 2882 0008 0E       		.uleb128 0xe
 2883 0009 1B       		.uleb128 0x1b
ARM GAS  /var/folders/qh/xwg3v3kj02qbxczjpdb8lzfr0000gn/T//ccuwC7Tn.s 			page 52


 2884 000a 0E       		.uleb128 0xe
 2885 000b 55       		.uleb128 0x55
 2886 000c 17       		.uleb128 0x17
 2887 000d 11       		.uleb128 0x11
 2888 000e 01       		.uleb128 0x1
 2889 000f 10       		.uleb128 0x10
 2890 0010 17       		.uleb128 0x17
 2891 0011 00       		.byte	0
 2892 0012 00       		.byte	0
 2893 0013 02       		.uleb128 0x2
 2894 0014 24       		.uleb128 0x24
 2895 0015 00       		.byte	0
 2896 0016 0B       		.uleb128 0xb
 2897 0017 0B       		.uleb128 0xb
 2898 0018 3E       		.uleb128 0x3e
 2899 0019 0B       		.uleb128 0xb
 2900 001a 03       		.uleb128 0x3
 2901 001b 08       		.uleb128 0x8
 2902 001c 00       		.byte	0
 2903 001d 00       		.byte	0
 2904 001e 03       		.uleb128 0x3
 2905 001f 16       		.uleb128 0x16
 2906 0020 00       		.byte	0
 2907 0021 03       		.uleb128 0x3
 2908 0022 0E       		.uleb128 0xe
 2909 0023 3A       		.uleb128 0x3a
 2910 0024 0B       		.uleb128 0xb
 2911 0025 3B       		.uleb128 0x3b
 2912 0026 0B       		.uleb128 0xb
 2913 0027 49       		.uleb128 0x49
 2914 0028 13       		.uleb128 0x13
 2915 0029 00       		.byte	0
 2916 002a 00       		.byte	0
 2917 002b 04       		.uleb128 0x4
 2918 002c 24       		.uleb128 0x24
 2919 002d 00       		.byte	0
 2920 002e 0B       		.uleb128 0xb
 2921 002f 0B       		.uleb128 0xb
 2922 0030 3E       		.uleb128 0x3e
 2923 0031 0B       		.uleb128 0xb
 2924 0032 03       		.uleb128 0x3
 2925 0033 0E       		.uleb128 0xe
 2926 0034 00       		.byte	0
 2927 0035 00       		.byte	0
 2928 0036 05       		.uleb128 0x5
 2929 0037 13       		.uleb128 0x13
 2930 0038 01       		.byte	0x1
 2931 0039 03       		.uleb128 0x3
 2932 003a 0E       		.uleb128 0xe
 2933 003b 0B       		.uleb128 0xb
 2934 003c 0B       		.uleb128 0xb
 2935 003d 3A       		.uleb128 0x3a
 2936 003e 0B       		.uleb128 0xb
 2937 003f 3B       		.uleb128 0x3b
 2938 0040 0B       		.uleb128 0xb
 2939 0041 01       		.uleb128 0x1
 2940 0042 13       		.uleb128 0x13
ARM GAS  /var/folders/qh/xwg3v3kj02qbxczjpdb8lzfr0000gn/T//ccuwC7Tn.s 			page 53


 2941 0043 00       		.byte	0
 2942 0044 00       		.byte	0
 2943 0045 06       		.uleb128 0x6
 2944 0046 0D       		.uleb128 0xd
 2945 0047 00       		.byte	0
 2946 0048 03       		.uleb128 0x3
 2947 0049 0E       		.uleb128 0xe
 2948 004a 3A       		.uleb128 0x3a
 2949 004b 0B       		.uleb128 0xb
 2950 004c 3B       		.uleb128 0x3b
 2951 004d 0B       		.uleb128 0xb
 2952 004e 49       		.uleb128 0x49
 2953 004f 13       		.uleb128 0x13
 2954 0050 38       		.uleb128 0x38
 2955 0051 0B       		.uleb128 0xb
 2956 0052 00       		.byte	0
 2957 0053 00       		.byte	0
 2958 0054 07       		.uleb128 0x7
 2959 0055 0D       		.uleb128 0xd
 2960 0056 00       		.byte	0
 2961 0057 03       		.uleb128 0x3
 2962 0058 08       		.uleb128 0x8
 2963 0059 3A       		.uleb128 0x3a
 2964 005a 0B       		.uleb128 0xb
 2965 005b 3B       		.uleb128 0x3b
 2966 005c 0B       		.uleb128 0xb
 2967 005d 49       		.uleb128 0x49
 2968 005e 13       		.uleb128 0x13
 2969 005f 38       		.uleb128 0x38
 2970 0060 0B       		.uleb128 0xb
 2971 0061 00       		.byte	0
 2972 0062 00       		.byte	0
 2973 0063 08       		.uleb128 0x8
 2974 0064 13       		.uleb128 0x13
 2975 0065 01       		.byte	0x1
 2976 0066 0B       		.uleb128 0xb
 2977 0067 0B       		.uleb128 0xb
 2978 0068 3A       		.uleb128 0x3a
 2979 0069 0B       		.uleb128 0xb
 2980 006a 3B       		.uleb128 0x3b
 2981 006b 0B       		.uleb128 0xb
 2982 006c 01       		.uleb128 0x1
 2983 006d 13       		.uleb128 0x13
 2984 006e 00       		.byte	0
 2985 006f 00       		.byte	0
 2986 0070 09       		.uleb128 0x9
 2987 0071 0F       		.uleb128 0xf
 2988 0072 00       		.byte	0
 2989 0073 0B       		.uleb128 0xb
 2990 0074 0B       		.uleb128 0xb
 2991 0075 49       		.uleb128 0x49
 2992 0076 13       		.uleb128 0x13
 2993 0077 00       		.byte	0
 2994 0078 00       		.byte	0
 2995 0079 0A       		.uleb128 0xa
 2996 007a 0F       		.uleb128 0xf
 2997 007b 00       		.byte	0
ARM GAS  /var/folders/qh/xwg3v3kj02qbxczjpdb8lzfr0000gn/T//ccuwC7Tn.s 			page 54


 2998 007c 0B       		.uleb128 0xb
 2999 007d 0B       		.uleb128 0xb
 3000 007e 00       		.byte	0
 3001 007f 00       		.byte	0
 3002 0080 0B       		.uleb128 0xb
 3003 0081 35       		.uleb128 0x35
 3004 0082 00       		.byte	0
 3005 0083 49       		.uleb128 0x49
 3006 0084 13       		.uleb128 0x13
 3007 0085 00       		.byte	0
 3008 0086 00       		.byte	0
 3009 0087 0C       		.uleb128 0xc
 3010 0088 15       		.uleb128 0x15
 3011 0089 01       		.byte	0x1
 3012 008a 27       		.uleb128 0x27
 3013 008b 19       		.uleb128 0x19
 3014 008c 49       		.uleb128 0x49
 3015 008d 13       		.uleb128 0x13
 3016 008e 01       		.uleb128 0x1
 3017 008f 13       		.uleb128 0x13
 3018 0090 00       		.byte	0
 3019 0091 00       		.byte	0
 3020 0092 0D       		.uleb128 0xd
 3021 0093 05       		.uleb128 0x5
 3022 0094 00       		.byte	0
 3023 0095 49       		.uleb128 0x49
 3024 0096 13       		.uleb128 0x13
 3025 0097 00       		.byte	0
 3026 0098 00       		.byte	0
 3027 0099 0E       		.uleb128 0xe
 3028 009a 17       		.uleb128 0x17
 3029 009b 01       		.byte	0x1
 3030 009c 0B       		.uleb128 0xb
 3031 009d 0B       		.uleb128 0xb
 3032 009e 3A       		.uleb128 0x3a
 3033 009f 0B       		.uleb128 0xb
 3034 00a0 3B       		.uleb128 0x3b
 3035 00a1 0B       		.uleb128 0xb
 3036 00a2 01       		.uleb128 0x1
 3037 00a3 13       		.uleb128 0x13
 3038 00a4 00       		.byte	0
 3039 00a5 00       		.byte	0
 3040 00a6 0F       		.uleb128 0xf
 3041 00a7 0D       		.uleb128 0xd
 3042 00a8 00       		.byte	0
 3043 00a9 03       		.uleb128 0x3
 3044 00aa 0E       		.uleb128 0xe
 3045 00ab 3A       		.uleb128 0x3a
 3046 00ac 0B       		.uleb128 0xb
 3047 00ad 3B       		.uleb128 0x3b
 3048 00ae 0B       		.uleb128 0xb
 3049 00af 49       		.uleb128 0x49
 3050 00b0 13       		.uleb128 0x13
 3051 00b1 00       		.byte	0
 3052 00b2 00       		.byte	0
 3053 00b3 10       		.uleb128 0x10
 3054 00b4 17       		.uleb128 0x17
ARM GAS  /var/folders/qh/xwg3v3kj02qbxczjpdb8lzfr0000gn/T//ccuwC7Tn.s 			page 55


 3055 00b5 01       		.byte	0x1
 3056 00b6 03       		.uleb128 0x3
 3057 00b7 0E       		.uleb128 0xe
 3058 00b8 0B       		.uleb128 0xb
 3059 00b9 0B       		.uleb128 0xb
 3060 00ba 3A       		.uleb128 0x3a
 3061 00bb 0B       		.uleb128 0xb
 3062 00bc 3B       		.uleb128 0x3b
 3063 00bd 0B       		.uleb128 0xb
 3064 00be 01       		.uleb128 0x1
 3065 00bf 13       		.uleb128 0x13
 3066 00c0 00       		.byte	0
 3067 00c1 00       		.byte	0
 3068 00c2 11       		.uleb128 0x11
 3069 00c3 0D       		.uleb128 0xd
 3070 00c4 00       		.byte	0
 3071 00c5 03       		.uleb128 0x3
 3072 00c6 08       		.uleb128 0x8
 3073 00c7 3A       		.uleb128 0x3a
 3074 00c8 0B       		.uleb128 0xb
 3075 00c9 3B       		.uleb128 0x3b
 3076 00ca 0B       		.uleb128 0xb
 3077 00cb 49       		.uleb128 0x49
 3078 00cc 13       		.uleb128 0x13
 3079 00cd 00       		.byte	0
 3080 00ce 00       		.byte	0
 3081 00cf 12       		.uleb128 0x12
 3082 00d0 26       		.uleb128 0x26
 3083 00d1 00       		.byte	0
 3084 00d2 49       		.uleb128 0x49
 3085 00d3 13       		.uleb128 0x13
 3086 00d4 00       		.byte	0
 3087 00d5 00       		.byte	0
 3088 00d6 13       		.uleb128 0x13
 3089 00d7 15       		.uleb128 0x15
 3090 00d8 00       		.byte	0
 3091 00d9 27       		.uleb128 0x27
 3092 00da 19       		.uleb128 0x19
 3093 00db 00       		.byte	0
 3094 00dc 00       		.byte	0
 3095 00dd 14       		.uleb128 0x14
 3096 00de 13       		.uleb128 0x13
 3097 00df 01       		.byte	0x1
 3098 00e0 0B       		.uleb128 0xb
 3099 00e1 05       		.uleb128 0x5
 3100 00e2 3A       		.uleb128 0x3a
 3101 00e3 0B       		.uleb128 0xb
 3102 00e4 3B       		.uleb128 0x3b
 3103 00e5 0B       		.uleb128 0xb
 3104 00e6 01       		.uleb128 0x1
 3105 00e7 13       		.uleb128 0x13
 3106 00e8 00       		.byte	0
 3107 00e9 00       		.byte	0
 3108 00ea 15       		.uleb128 0x15
 3109 00eb 0D       		.uleb128 0xd
 3110 00ec 00       		.byte	0
 3111 00ed 03       		.uleb128 0x3
ARM GAS  /var/folders/qh/xwg3v3kj02qbxczjpdb8lzfr0000gn/T//ccuwC7Tn.s 			page 56


 3112 00ee 08       		.uleb128 0x8
 3113 00ef 3A       		.uleb128 0x3a
 3114 00f0 0B       		.uleb128 0xb
 3115 00f1 3B       		.uleb128 0x3b
 3116 00f2 0B       		.uleb128 0xb
 3117 00f3 49       		.uleb128 0x49
 3118 00f4 13       		.uleb128 0x13
 3119 00f5 38       		.uleb128 0x38
 3120 00f6 05       		.uleb128 0x5
 3121 00f7 00       		.byte	0
 3122 00f8 00       		.byte	0
 3123 00f9 16       		.uleb128 0x16
 3124 00fa 01       		.uleb128 0x1
 3125 00fb 01       		.byte	0x1
 3126 00fc 49       		.uleb128 0x49
 3127 00fd 13       		.uleb128 0x13
 3128 00fe 01       		.uleb128 0x1
 3129 00ff 13       		.uleb128 0x13
 3130 0100 00       		.byte	0
 3131 0101 00       		.byte	0
 3132 0102 17       		.uleb128 0x17
 3133 0103 21       		.uleb128 0x21
 3134 0104 00       		.byte	0
 3135 0105 49       		.uleb128 0x49
 3136 0106 13       		.uleb128 0x13
 3137 0107 2F       		.uleb128 0x2f
 3138 0108 0B       		.uleb128 0xb
 3139 0109 00       		.byte	0
 3140 010a 00       		.byte	0
 3141 010b 18       		.uleb128 0x18
 3142 010c 17       		.uleb128 0x17
 3143 010d 01       		.byte	0x1
 3144 010e 03       		.uleb128 0x3
 3145 010f 0E       		.uleb128 0xe
 3146 0110 0B       		.uleb128 0xb
 3147 0111 05       		.uleb128 0x5
 3148 0112 3A       		.uleb128 0x3a
 3149 0113 0B       		.uleb128 0xb
 3150 0114 3B       		.uleb128 0x3b
 3151 0115 0B       		.uleb128 0xb
 3152 0116 01       		.uleb128 0x1
 3153 0117 13       		.uleb128 0x13
 3154 0118 00       		.byte	0
 3155 0119 00       		.byte	0
 3156 011a 19       		.uleb128 0x19
 3157 011b 21       		.uleb128 0x21
 3158 011c 00       		.byte	0
 3159 011d 49       		.uleb128 0x49
 3160 011e 13       		.uleb128 0x13
 3161 011f 2F       		.uleb128 0x2f
 3162 0120 05       		.uleb128 0x5
 3163 0121 00       		.byte	0
 3164 0122 00       		.byte	0
 3165 0123 1A       		.uleb128 0x1a
 3166 0124 2E       		.uleb128 0x2e
 3167 0125 01       		.byte	0x1
 3168 0126 03       		.uleb128 0x3
ARM GAS  /var/folders/qh/xwg3v3kj02qbxczjpdb8lzfr0000gn/T//ccuwC7Tn.s 			page 57


 3169 0127 0E       		.uleb128 0xe
 3170 0128 3A       		.uleb128 0x3a
 3171 0129 0B       		.uleb128 0xb
 3172 012a 3B       		.uleb128 0x3b
 3173 012b 0B       		.uleb128 0xb
 3174 012c 27       		.uleb128 0x27
 3175 012d 19       		.uleb128 0x19
 3176 012e 11       		.uleb128 0x11
 3177 012f 01       		.uleb128 0x1
 3178 0130 12       		.uleb128 0x12
 3179 0131 06       		.uleb128 0x6
 3180 0132 40       		.uleb128 0x40
 3181 0133 18       		.uleb128 0x18
 3182 0134 9742     		.uleb128 0x2117
 3183 0136 19       		.uleb128 0x19
 3184 0137 01       		.uleb128 0x1
 3185 0138 13       		.uleb128 0x13
 3186 0139 00       		.byte	0
 3187 013a 00       		.byte	0
 3188 013b 1B       		.uleb128 0x1b
 3189 013c 34       		.uleb128 0x34
 3190 013d 00       		.byte	0
 3191 013e 03       		.uleb128 0x3
 3192 013f 08       		.uleb128 0x8
 3193 0140 3A       		.uleb128 0x3a
 3194 0141 0B       		.uleb128 0xb
 3195 0142 3B       		.uleb128 0x3b
 3196 0143 0B       		.uleb128 0xb
 3197 0144 49       		.uleb128 0x49
 3198 0145 13       		.uleb128 0x13
 3199 0146 02       		.uleb128 0x2
 3200 0147 18       		.uleb128 0x18
 3201 0148 00       		.byte	0
 3202 0149 00       		.byte	0
 3203 014a 1C       		.uleb128 0x1c
 3204 014b 34       		.uleb128 0x34
 3205 014c 00       		.byte	0
 3206 014d 03       		.uleb128 0x3
 3207 014e 08       		.uleb128 0x8
 3208 014f 3A       		.uleb128 0x3a
 3209 0150 0B       		.uleb128 0xb
 3210 0151 3B       		.uleb128 0x3b
 3211 0152 0B       		.uleb128 0xb
 3212 0153 49       		.uleb128 0x49
 3213 0154 13       		.uleb128 0x13
 3214 0155 02       		.uleb128 0x2
 3215 0156 17       		.uleb128 0x17
 3216 0157 00       		.byte	0
 3217 0158 00       		.byte	0
 3218 0159 1D       		.uleb128 0x1d
 3219 015a 34       		.uleb128 0x34
 3220 015b 00       		.byte	0
 3221 015c 03       		.uleb128 0x3
 3222 015d 0E       		.uleb128 0xe
 3223 015e 3A       		.uleb128 0x3a
 3224 015f 0B       		.uleb128 0xb
 3225 0160 3B       		.uleb128 0x3b
ARM GAS  /var/folders/qh/xwg3v3kj02qbxczjpdb8lzfr0000gn/T//ccuwC7Tn.s 			page 58


 3226 0161 0B       		.uleb128 0xb
 3227 0162 49       		.uleb128 0x49
 3228 0163 13       		.uleb128 0x13
 3229 0164 02       		.uleb128 0x2
 3230 0165 17       		.uleb128 0x17
 3231 0166 00       		.byte	0
 3232 0167 00       		.byte	0
 3233 0168 1E       		.uleb128 0x1e
 3234 0169 898201   		.uleb128 0x4109
 3235 016c 01       		.byte	0x1
 3236 016d 11       		.uleb128 0x11
 3237 016e 01       		.uleb128 0x1
 3238 016f 31       		.uleb128 0x31
 3239 0170 13       		.uleb128 0x13
 3240 0171 01       		.uleb128 0x1
 3241 0172 13       		.uleb128 0x13
 3242 0173 00       		.byte	0
 3243 0174 00       		.byte	0
 3244 0175 1F       		.uleb128 0x1f
 3245 0176 8A8201   		.uleb128 0x410a
 3246 0179 00       		.byte	0
 3247 017a 02       		.uleb128 0x2
 3248 017b 18       		.uleb128 0x18
 3249 017c 9142     		.uleb128 0x2111
 3250 017e 18       		.uleb128 0x18
 3251 017f 00       		.byte	0
 3252 0180 00       		.byte	0
 3253 0181 20       		.uleb128 0x20
 3254 0182 898201   		.uleb128 0x4109
 3255 0185 00       		.byte	0
 3256 0186 11       		.uleb128 0x11
 3257 0187 01       		.uleb128 0x1
 3258 0188 31       		.uleb128 0x31
 3259 0189 13       		.uleb128 0x13
 3260 018a 00       		.byte	0
 3261 018b 00       		.byte	0
 3262 018c 21       		.uleb128 0x21
 3263 018d 898201   		.uleb128 0x4109
 3264 0190 01       		.byte	0x1
 3265 0191 11       		.uleb128 0x11
 3266 0192 01       		.uleb128 0x1
 3267 0193 31       		.uleb128 0x31
 3268 0194 13       		.uleb128 0x13
 3269 0195 00       		.byte	0
 3270 0196 00       		.byte	0
 3271 0197 22       		.uleb128 0x22
 3272 0198 2E       		.uleb128 0x2e
 3273 0199 01       		.byte	0x1
 3274 019a 03       		.uleb128 0x3
 3275 019b 0E       		.uleb128 0xe
 3276 019c 3A       		.uleb128 0x3a
 3277 019d 0B       		.uleb128 0xb
 3278 019e 3B       		.uleb128 0x3b
 3279 019f 0B       		.uleb128 0xb
 3280 01a0 27       		.uleb128 0x27
 3281 01a1 19       		.uleb128 0x19
 3282 01a2 49       		.uleb128 0x49
ARM GAS  /var/folders/qh/xwg3v3kj02qbxczjpdb8lzfr0000gn/T//ccuwC7Tn.s 			page 59


 3283 01a3 13       		.uleb128 0x13
 3284 01a4 11       		.uleb128 0x11
 3285 01a5 01       		.uleb128 0x1
 3286 01a6 12       		.uleb128 0x12
 3287 01a7 06       		.uleb128 0x6
 3288 01a8 40       		.uleb128 0x40
 3289 01a9 18       		.uleb128 0x18
 3290 01aa 9742     		.uleb128 0x2117
 3291 01ac 19       		.uleb128 0x19
 3292 01ad 01       		.uleb128 0x1
 3293 01ae 13       		.uleb128 0x13
 3294 01af 00       		.byte	0
 3295 01b0 00       		.byte	0
 3296 01b1 23       		.uleb128 0x23
 3297 01b2 05       		.uleb128 0x5
 3298 01b3 00       		.byte	0
 3299 01b4 03       		.uleb128 0x3
 3300 01b5 08       		.uleb128 0x8
 3301 01b6 3A       		.uleb128 0x3a
 3302 01b7 0B       		.uleb128 0xb
 3303 01b8 3B       		.uleb128 0x3b
 3304 01b9 0B       		.uleb128 0xb
 3305 01ba 49       		.uleb128 0x49
 3306 01bb 13       		.uleb128 0x13
 3307 01bc 02       		.uleb128 0x2
 3308 01bd 17       		.uleb128 0x17
 3309 01be 00       		.byte	0
 3310 01bf 00       		.byte	0
 3311 01c0 24       		.uleb128 0x24
 3312 01c1 34       		.uleb128 0x34
 3313 01c2 00       		.byte	0
 3314 01c3 03       		.uleb128 0x3
 3315 01c4 0E       		.uleb128 0xe
 3316 01c5 3A       		.uleb128 0x3a
 3317 01c6 0B       		.uleb128 0xb
 3318 01c7 3B       		.uleb128 0x3b
 3319 01c8 0B       		.uleb128 0xb
 3320 01c9 49       		.uleb128 0x49
 3321 01ca 13       		.uleb128 0x13
 3322 01cb 00       		.byte	0
 3323 01cc 00       		.byte	0
 3324 01cd 25       		.uleb128 0x25
 3325 01ce 34       		.uleb128 0x34
 3326 01cf 00       		.byte	0
 3327 01d0 03       		.uleb128 0x3
 3328 01d1 0E       		.uleb128 0xe
 3329 01d2 3A       		.uleb128 0x3a
 3330 01d3 0B       		.uleb128 0xb
 3331 01d4 3B       		.uleb128 0x3b
 3332 01d5 0B       		.uleb128 0xb
 3333 01d6 49       		.uleb128 0x49
 3334 01d7 13       		.uleb128 0x13
 3335 01d8 02       		.uleb128 0x2
 3336 01d9 18       		.uleb128 0x18
 3337 01da 00       		.byte	0
 3338 01db 00       		.byte	0
 3339 01dc 26       		.uleb128 0x26
ARM GAS  /var/folders/qh/xwg3v3kj02qbxczjpdb8lzfr0000gn/T//ccuwC7Tn.s 			page 60


 3340 01dd 34       		.uleb128 0x34
 3341 01de 00       		.byte	0
 3342 01df 03       		.uleb128 0x3
 3343 01e0 0E       		.uleb128 0xe
 3344 01e1 3A       		.uleb128 0x3a
 3345 01e2 0B       		.uleb128 0xb
 3346 01e3 3B       		.uleb128 0x3b
 3347 01e4 0B       		.uleb128 0xb
 3348 01e5 49       		.uleb128 0x49
 3349 01e6 13       		.uleb128 0x13
 3350 01e7 3F       		.uleb128 0x3f
 3351 01e8 19       		.uleb128 0x19
 3352 01e9 3C       		.uleb128 0x3c
 3353 01ea 19       		.uleb128 0x19
 3354 01eb 00       		.byte	0
 3355 01ec 00       		.byte	0
 3356 01ed 27       		.uleb128 0x27
 3357 01ee 21       		.uleb128 0x21
 3358 01ef 00       		.byte	0
 3359 01f0 00       		.byte	0
 3360 01f1 00       		.byte	0
 3361 01f2 28       		.uleb128 0x28
 3362 01f3 34       		.uleb128 0x34
 3363 01f4 00       		.byte	0
 3364 01f5 03       		.uleb128 0x3
 3365 01f6 08       		.uleb128 0x8
 3366 01f7 3A       		.uleb128 0x3a
 3367 01f8 0B       		.uleb128 0xb
 3368 01f9 3B       		.uleb128 0x3b
 3369 01fa 0B       		.uleb128 0xb
 3370 01fb 49       		.uleb128 0x49
 3371 01fc 13       		.uleb128 0x13
 3372 01fd 3F       		.uleb128 0x3f
 3373 01fe 19       		.uleb128 0x19
 3374 01ff 3C       		.uleb128 0x3c
 3375 0200 19       		.uleb128 0x19
 3376 0201 00       		.byte	0
 3377 0202 00       		.byte	0
 3378 0203 29       		.uleb128 0x29
 3379 0204 34       		.uleb128 0x34
 3380 0205 00       		.byte	0
 3381 0206 03       		.uleb128 0x3
 3382 0207 0E       		.uleb128 0xe
 3383 0208 3A       		.uleb128 0x3a
 3384 0209 0B       		.uleb128 0xb
 3385 020a 3B       		.uleb128 0x3b
 3386 020b 0B       		.uleb128 0xb
 3387 020c 49       		.uleb128 0x49
 3388 020d 13       		.uleb128 0x13
 3389 020e 3F       		.uleb128 0x3f
 3390 020f 19       		.uleb128 0x19
 3391 0210 02       		.uleb128 0x2
 3392 0211 18       		.uleb128 0x18
 3393 0212 00       		.byte	0
 3394 0213 00       		.byte	0
 3395 0214 2A       		.uleb128 0x2a
 3396 0215 2E       		.uleb128 0x2e
ARM GAS  /var/folders/qh/xwg3v3kj02qbxczjpdb8lzfr0000gn/T//ccuwC7Tn.s 			page 61


 3397 0216 01       		.byte	0x1
 3398 0217 3F       		.uleb128 0x3f
 3399 0218 19       		.uleb128 0x19
 3400 0219 03       		.uleb128 0x3
 3401 021a 0E       		.uleb128 0xe
 3402 021b 3A       		.uleb128 0x3a
 3403 021c 0B       		.uleb128 0xb
 3404 021d 3B       		.uleb128 0x3b
 3405 021e 0B       		.uleb128 0xb
 3406 021f 27       		.uleb128 0x27
 3407 0220 19       		.uleb128 0x19
 3408 0221 49       		.uleb128 0x49
 3409 0222 13       		.uleb128 0x13
 3410 0223 3C       		.uleb128 0x3c
 3411 0224 19       		.uleb128 0x19
 3412 0225 01       		.uleb128 0x1
 3413 0226 13       		.uleb128 0x13
 3414 0227 00       		.byte	0
 3415 0228 00       		.byte	0
 3416 0229 2B       		.uleb128 0x2b
 3417 022a 2E       		.uleb128 0x2e
 3418 022b 01       		.byte	0x1
 3419 022c 3F       		.uleb128 0x3f
 3420 022d 19       		.uleb128 0x19
 3421 022e 03       		.uleb128 0x3
 3422 022f 0E       		.uleb128 0xe
 3423 0230 3A       		.uleb128 0x3a
 3424 0231 0B       		.uleb128 0xb
 3425 0232 3B       		.uleb128 0x3b
 3426 0233 0B       		.uleb128 0xb
 3427 0234 27       		.uleb128 0x27
 3428 0235 19       		.uleb128 0x19
 3429 0236 3C       		.uleb128 0x3c
 3430 0237 19       		.uleb128 0x19
 3431 0238 01       		.uleb128 0x1
 3432 0239 13       		.uleb128 0x13
 3433 023a 00       		.byte	0
 3434 023b 00       		.byte	0
 3435 023c 2C       		.uleb128 0x2c
 3436 023d 2E       		.uleb128 0x2e
 3437 023e 00       		.byte	0
 3438 023f 3F       		.uleb128 0x3f
 3439 0240 19       		.uleb128 0x19
 3440 0241 03       		.uleb128 0x3
 3441 0242 0E       		.uleb128 0xe
 3442 0243 3A       		.uleb128 0x3a
 3443 0244 0B       		.uleb128 0xb
 3444 0245 3B       		.uleb128 0x3b
 3445 0246 0B       		.uleb128 0xb
 3446 0247 27       		.uleb128 0x27
 3447 0248 19       		.uleb128 0x19
 3448 0249 3C       		.uleb128 0x3c
 3449 024a 19       		.uleb128 0x19
 3450 024b 00       		.byte	0
 3451 024c 00       		.byte	0
 3452 024d 2D       		.uleb128 0x2d
 3453 024e 2E       		.uleb128 0x2e
ARM GAS  /var/folders/qh/xwg3v3kj02qbxczjpdb8lzfr0000gn/T//ccuwC7Tn.s 			page 62


 3454 024f 00       		.byte	0
 3455 0250 3F       		.uleb128 0x3f
 3456 0251 19       		.uleb128 0x19
 3457 0252 03       		.uleb128 0x3
 3458 0253 0E       		.uleb128 0xe
 3459 0254 3A       		.uleb128 0x3a
 3460 0255 0B       		.uleb128 0xb
 3461 0256 3B       		.uleb128 0x3b
 3462 0257 0B       		.uleb128 0xb
 3463 0258 27       		.uleb128 0x27
 3464 0259 19       		.uleb128 0x19
 3465 025a 49       		.uleb128 0x49
 3466 025b 13       		.uleb128 0x13
 3467 025c 3C       		.uleb128 0x3c
 3468 025d 19       		.uleb128 0x19
 3469 025e 00       		.byte	0
 3470 025f 00       		.byte	0
 3471 0260 2E       		.uleb128 0x2e
 3472 0261 2E       		.uleb128 0x2e
 3473 0262 01       		.byte	0x1
 3474 0263 3F       		.uleb128 0x3f
 3475 0264 19       		.uleb128 0x19
 3476 0265 03       		.uleb128 0x3
 3477 0266 0E       		.uleb128 0xe
 3478 0267 3A       		.uleb128 0x3a
 3479 0268 0B       		.uleb128 0xb
 3480 0269 3B       		.uleb128 0x3b
 3481 026a 05       		.uleb128 0x5
 3482 026b 27       		.uleb128 0x27
 3483 026c 19       		.uleb128 0x19
 3484 026d 3C       		.uleb128 0x3c
 3485 026e 19       		.uleb128 0x19
 3486 026f 00       		.byte	0
 3487 0270 00       		.byte	0
 3488 0271 00       		.byte	0
 3489              		.section	.debug_loc,"",%progbits
 3490              	.Ldebug_loc0:
 3491              	.LLST0:
 3492 0000 5C000000 		.4byte	.LVL6
 3493 0004 64000000 		.4byte	.LVL7
 3494 0008 0100     		.2byte	0x1
 3495 000a 50       		.byte	0x50
 3496 000b 64000000 		.4byte	.LVL7
 3497 000f 90000000 		.4byte	.LVL12
 3498 0013 0100     		.2byte	0x1
 3499 0015 58       		.byte	0x58
 3500 0016 96000000 		.4byte	.LVL13
 3501 001a 08010000 		.4byte	.LFE9
 3502 001e 0100     		.2byte	0x1
 3503 0020 58       		.byte	0x58
 3504 0021 00000000 		.4byte	0
 3505 0025 00000000 		.4byte	0
 3506              	.LLST1:
 3507 0029 14000000 		.4byte	.LVL0
 3508 002d 90000000 		.4byte	.LVL11
 3509 0031 0100     		.2byte	0x1
 3510 0033 57       		.byte	0x57
ARM GAS  /var/folders/qh/xwg3v3kj02qbxczjpdb8lzfr0000gn/T//ccuwC7Tn.s 			page 63


 3511 0034 96000000 		.4byte	.LVL13
 3512 0038 08010000 		.4byte	.LFE9
 3513 003c 0100     		.2byte	0x1
 3514 003e 57       		.byte	0x57
 3515 003f 00000000 		.4byte	0
 3516 0043 00000000 		.4byte	0
 3517              	.LLST2:
 3518 0047 00000000 		.4byte	.LVL19
 3519 004b 04000000 		.4byte	.LVL20
 3520 004f 0100     		.2byte	0x1
 3521 0051 50       		.byte	0x50
 3522 0052 04000000 		.4byte	.LVL20
 3523 0056 0C000000 		.4byte	.LFE7
 3524 005a 0400     		.2byte	0x4
 3525 005c F3       		.byte	0xf3
 3526 005d 01       		.uleb128 0x1
 3527 005e 50       		.byte	0x50
 3528 005f 9F       		.byte	0x9f
 3529 0060 00000000 		.4byte	0
 3530 0064 00000000 		.4byte	0
 3531              	.LLST3:
 3532 0068 0C000000 		.4byte	.LVL24
 3533 006c 10000000 		.4byte	.LVL25
 3534 0070 0200     		.2byte	0x2
 3535 0072 30       		.byte	0x30
 3536 0073 9F       		.byte	0x9f
 3537 0074 AE000000 		.4byte	.LVL38
 3538 0078 C6000000 		.4byte	.LVL41
 3539 007c 0500     		.2byte	0x5
 3540 007e 34       		.byte	0x34
 3541 007f 74       		.byte	0x74
 3542 0080 00       		.sleb128 0
 3543 0081 1C       		.byte	0x1c
 3544 0082 9F       		.byte	0x9f
 3545 0083 C6000000 		.4byte	.LVL41
 3546 0087 C8000000 		.4byte	.LVL42
 3547 008b 0500     		.2byte	0x5
 3548 008d 35       		.byte	0x35
 3549 008e 74       		.byte	0x74
 3550 008f 00       		.sleb128 0
 3551 0090 1C       		.byte	0x1c
 3552 0091 9F       		.byte	0x9f
 3553 0092 C8000000 		.4byte	.LVL42
 3554 0096 0C010000 		.4byte	.LFE11
 3555 009a 0500     		.2byte	0x5
 3556 009c 34       		.byte	0x34
 3557 009d 74       		.byte	0x74
 3558 009e 00       		.sleb128 0
 3559 009f 1C       		.byte	0x1c
 3560 00a0 9F       		.byte	0x9f
 3561 00a1 00000000 		.4byte	0
 3562 00a5 00000000 		.4byte	0
 3563              	.LLST4:
 3564 00a9 0C000000 		.4byte	.LVL24
 3565 00ad 8E000000 		.4byte	.LVL33
 3566 00b1 0100     		.2byte	0x1
 3567 00b3 57       		.byte	0x57
ARM GAS  /var/folders/qh/xwg3v3kj02qbxczjpdb8lzfr0000gn/T//ccuwC7Tn.s 			page 64


 3568 00b4 90000000 		.4byte	.LVL34
 3569 00b8 0C010000 		.4byte	.LFE11
 3570 00bc 0100     		.2byte	0x1
 3571 00be 57       		.byte	0x57
 3572 00bf 00000000 		.4byte	0
 3573 00c3 00000000 		.4byte	0
 3574              	.LLST5:
 3575 00c7 00000000 		.4byte	.LVL46
 3576 00cb 07000000 		.4byte	.LVL47-1
 3577 00cf 0100     		.2byte	0x1
 3578 00d1 50       		.byte	0x50
 3579 00d2 07000000 		.4byte	.LVL47-1
 3580 00d6 1C000000 		.4byte	.LVL53
 3581 00da 0100     		.2byte	0x1
 3582 00dc 55       		.byte	0x55
 3583 00dd 1C000000 		.4byte	.LVL53
 3584 00e1 1E000000 		.4byte	.LFE12
 3585 00e5 0400     		.2byte	0x4
 3586 00e7 F3       		.byte	0xf3
 3587 00e8 01       		.uleb128 0x1
 3588 00e9 50       		.byte	0x50
 3589 00ea 9F       		.byte	0x9f
 3590 00eb 00000000 		.4byte	0
 3591 00ef 00000000 		.4byte	0
 3592              	.LLST6:
 3593 00f3 08000000 		.4byte	.LVL47
 3594 00f7 15000000 		.4byte	.LVL50-1
 3595 00fb 0100     		.2byte	0x1
 3596 00fd 50       		.byte	0x50
 3597 00fe 16000000 		.4byte	.LVL50
 3598 0102 1C000000 		.4byte	.LVL51
 3599 0106 0100     		.2byte	0x1
 3600 0108 50       		.byte	0x50
 3601 0109 00000000 		.4byte	0
 3602 010d 00000000 		.4byte	0
 3603              	.LLST7:
 3604 0111 00000000 		.4byte	.LVL46
 3605 0115 0A000000 		.4byte	.LVL48
 3606 0119 0200     		.2byte	0x2
 3607 011b 30       		.byte	0x30
 3608 011c 9F       		.byte	0x9f
 3609 011d 0A000000 		.4byte	.LVL48
 3610 0121 1C000000 		.4byte	.LVL52
 3611 0125 0100     		.2byte	0x1
 3612 0127 54       		.byte	0x54
 3613 0128 1C000000 		.4byte	.LVL52
 3614 012c 1E000000 		.4byte	.LFE12
 3615 0130 0100     		.2byte	0x1
 3616 0132 50       		.byte	0x50
 3617 0133 00000000 		.4byte	0
 3618 0137 00000000 		.4byte	0
 3619              	.LLST8:
 3620 013b 20000000 		.4byte	.LVL57
 3621 013f 2A000000 		.4byte	.LVL58
 3622 0143 0100     		.2byte	0x1
 3623 0145 50       		.byte	0x50
 3624 0146 2A000000 		.4byte	.LVL58
ARM GAS  /var/folders/qh/xwg3v3kj02qbxczjpdb8lzfr0000gn/T//ccuwC7Tn.s 			page 65


 3625 014a 34000000 		.4byte	.LVL60
 3626 014e 0100     		.2byte	0x1
 3627 0150 54       		.byte	0x54
 3628 0151 36000000 		.4byte	.LVL61
 3629 0155 30010000 		.4byte	.LFE14
 3630 0159 0100     		.2byte	0x1
 3631 015b 54       		.byte	0x54
 3632 015c 00000000 		.4byte	0
 3633 0160 00000000 		.4byte	0
 3634              		.section	.debug_aranges,"",%progbits
 3635 0000 54000000 		.4byte	0x54
 3636 0004 0200     		.2byte	0x2
 3637 0006 00000000 		.4byte	.Ldebug_info0
 3638 000a 04       		.byte	0x4
 3639 000b 00       		.byte	0
 3640 000c 0000     		.2byte	0
 3641 000e 0000     		.2byte	0
 3642 0010 00000000 		.4byte	.LFB9
 3643 0014 08010000 		.4byte	.LFE9-.LFB9
 3644 0018 00000000 		.4byte	.LFB7
 3645 001c 0C000000 		.4byte	.LFE7-.LFB7
 3646 0020 00000000 		.4byte	.LFB8
 3647 0024 18000000 		.4byte	.LFE8-.LFB8
 3648 0028 00000000 		.4byte	.LFB13
 3649 002c 18000000 		.4byte	.LFE13-.LFB13
 3650 0030 00000000 		.4byte	.LFB11
 3651 0034 0C010000 		.4byte	.LFE11-.LFB11
 3652 0038 00000000 		.4byte	.LFB10
 3653 003c 14000000 		.4byte	.LFE10-.LFB10
 3654 0040 00000000 		.4byte	.LFB12
 3655 0044 1E000000 		.4byte	.LFE12-.LFB12
 3656 0048 00000000 		.4byte	.LFB14
 3657 004c 30010000 		.4byte	.LFE14-.LFB14
 3658 0050 00000000 		.4byte	0
 3659 0054 00000000 		.4byte	0
 3660              		.section	.debug_ranges,"",%progbits
 3661              	.Ldebug_ranges0:
 3662 0000 00000000 		.4byte	.LFB9
 3663 0004 08010000 		.4byte	.LFE9
 3664 0008 00000000 		.4byte	.LFB7
 3665 000c 0C000000 		.4byte	.LFE7
 3666 0010 00000000 		.4byte	.LFB8
 3667 0014 18000000 		.4byte	.LFE8
 3668 0018 00000000 		.4byte	.LFB13
 3669 001c 18000000 		.4byte	.LFE13
 3670 0020 00000000 		.4byte	.LFB11
 3671 0024 0C010000 		.4byte	.LFE11
 3672 0028 00000000 		.4byte	.LFB10
 3673 002c 14000000 		.4byte	.LFE10
 3674 0030 00000000 		.4byte	.LFB12
 3675 0034 1E000000 		.4byte	.LFE12
 3676 0038 00000000 		.4byte	.LFB14
 3677 003c 30010000 		.4byte	.LFE14
 3678 0040 00000000 		.4byte	0
 3679 0044 00000000 		.4byte	0
 3680              		.section	.debug_line,"",%progbits
 3681              	.Ldebug_line0:
ARM GAS  /var/folders/qh/xwg3v3kj02qbxczjpdb8lzfr0000gn/T//ccuwC7Tn.s 			page 66


 3682 0000 CD020000 		.section	.debug_str,"MS",%progbits,1
 3682      0200B301 
 3682      00000201 
 3682      FB0E0D00 
 3682      01010101 
 3683              	.LASF83:
 3684 0000 7466756E 		.ascii	"tfunc_t\000"
 3684      635F7400 
 3685              	.LASF39:
 3686 0008 705F6D73 		.ascii	"p_msg\000"
 3686      6700
 3687              	.LASF2:
 3688 000e 73697A65 		.ascii	"size_t\000"
 3688      5F7400
 3689              	.LASF92:
 3690 0015 7072696F 		.ascii	"prio\000"
 3690      00
 3691              	.LASF78:
 3692 001a 7264796D 		.ascii	"rdymsg\000"
 3692      736700
 3693              	.LASF12:
 3694 0021 75696E74 		.ascii	"uint64_t\000"
 3694      36345F74 
 3694      00
 3695              	.LASF77:
 3696 002a 4D656D6F 		.ascii	"MemoryPool\000"
 3696      7279506F 
 3696      6F6C00
 3697              	.LASF62:
 3698 0035 6D656D67 		.ascii	"memgetfunc_t\000"
 3698      65746675 
 3698      6E635F74 
 3698      00
 3699              	.LASF13:
 3700 0042 6C6F6E67 		.ascii	"long long unsigned int\000"
 3700      206C6F6E 
 3700      6720756E 
 3700      7369676E 
 3700      65642069 
 3701              	.LASF79:
 3702 0059 65786974 		.ascii	"exitcode\000"
 3702      636F6465 
 3702      00
 3703              	.LASF66:
 3704 0062 685F6672 		.ascii	"h_free\000"
 3704      656500
 3705              	.LASF105:
 3706 0069 74657374 		.ascii	"test\000"
 3706      00
 3707              	.LASF129:
 3708 006e 63685265 		.ascii	"chRegFirstThread\000"
 3708      67466972 
 3708      73745468 
 3708      72656164 
 3708      00
 3709              	.LASF121:
 3710 007f 6368506F 		.ascii	"chPoolInit\000"
ARM GAS  /var/folders/qh/xwg3v3kj02qbxczjpdb8lzfr0000gn/T//ccuwC7Tn.s 			page 67


 3710      6F6C496E 
 3710      697400
 3711              	.LASF117:
 3712 008a 63684865 		.ascii	"chHeapInit\000"
 3712      6170496E 
 3712      697400
 3713              	.LASF68:
 3714 0095 6E657874 		.ascii	"next\000"
 3714      00
 3715              	.LASF27:
 3716 009a 705F7072 		.ascii	"p_prio\000"
 3716      696F00
 3717              	.LASF97:
 3718 00a1 64796E32 		.ascii	"dyn2_setup\000"
 3718      5F736574 
 3718      757000
 3719              	.LASF11:
 3720 00ac 6C6F6E67 		.ascii	"long long int\000"
 3720      206C6F6E 
 3720      6720696E 
 3720      7400
 3721              	.LASF1:
 3722 00ba 7369676E 		.ascii	"signed char\000"
 3722      65642063 
 3722      68617200 
 3723              	.LASF67:
 3724 00c6 685F6D74 		.ascii	"h_mtx\000"
 3724      7800
 3725              	.LASF43:
 3726 00cc 705F6D70 		.ascii	"p_mpool\000"
 3726      6F6F6C00 
 3727              	.LASF14:
 3728 00d4 626F6F6C 		.ascii	"bool_t\000"
 3728      5F7400
 3729              	.LASF59:
 3730 00db 6D5F7175 		.ascii	"m_queue\000"
 3730      65756500 
 3731              	.LASF116:
 3732 00e3 74657374 		.ascii	"test_emit_token\000"
 3732      5F656D69 
 3732      745F746F 
 3732      6B656E00 
 3733              	.LASF115:
 3734 00f3 63684865 		.ascii	"chHeapFree\000"
 3734      61704672 
 3734      656500
 3735              	.LASF19:
 3736 00fe 74736C69 		.ascii	"tslices_t\000"
 3736      6365735F 
 3736      7400
 3737              	.LASF8:
 3738 0108 6C6F6E67 		.ascii	"long int\000"
 3738      20696E74 
 3738      00
 3739              	.LASF111:
 3740 0111 63685468 		.ascii	"chThdCreateFromHeap\000"
 3740      64437265 
ARM GAS  /var/folders/qh/xwg3v3kj02qbxczjpdb8lzfr0000gn/T//ccuwC7Tn.s 			page 68


 3740      61746546 
 3740      726F6D48 
 3740      65617000 
 3741              	.LASF17:
 3742 0125 74737461 		.ascii	"tstate_t\000"
 3742      74655F74 
 3742      00
 3743              	.LASF74:
 3744 012e 6D705F6E 		.ascii	"mp_next\000"
 3744      65787400 
 3745              	.LASF93:
 3746 0136 64796E31 		.ascii	"dyn1_execute\000"
 3746      5F657865 
 3746      63757465 
 3746      00
 3747              	.LASF29:
 3748 0143 705F6E65 		.ascii	"p_newer\000"
 3748      77657200 
 3749              	.LASF119:
 3750 014b 63685468 		.ascii	"chThdCreateFromMemoryPool\000"
 3750      64437265 
 3750      61746546 
 3750      726F6D4D 
 3750      656D6F72 
 3751              	.LASF54:
 3752 0165 725F6E65 		.ascii	"r_newer\000"
 3752      77657200 
 3753              	.LASF76:
 3754 016d 6D705F70 		.ascii	"mp_provider\000"
 3754      726F7669 
 3754      64657200 
 3755              	.LASF46:
 3756 0179 72656761 		.ascii	"regarm_t\000"
 3756      726D5F74 
 3756      00
 3757              	.LASF70:
 3758 0182 616C6967 		.ascii	"align\000"
 3758      6E00
 3759              	.LASF0:
 3760 0188 756E7369 		.ascii	"unsigned int\000"
 3760      676E6564 
 3760      20696E74 
 3760      00
 3761              	.LASF10:
 3762 0195 6C6F6E67 		.ascii	"long unsigned int\000"
 3762      20756E73 
 3762      69676E65 
 3762      6420696E 
 3762      7400
 3763              	.LASF87:
 3764 01a7 74656172 		.ascii	"teardown\000"
 3764      646F776E 
 3764      00
 3765              	.LASF94:
 3766 01b0 64796E31 		.ascii	"dyn1_setup\000"
 3766      5F736574 
 3766      757000
ARM GAS  /var/folders/qh/xwg3v3kj02qbxczjpdb8lzfr0000gn/T//ccuwC7Tn.s 			page 69


 3767              	.LASF85:
 3768 01bb 6E616D65 		.ascii	"name\000"
 3768      00
 3769              	.LASF127:
 3770 01c0 2F557365 		.ascii	"/Users/John/Development/embedded/ChibiOS-RT/BluC/ST"
 3770      72732F4A 
 3770      6F686E2F 
 3770      44657665 
 3770      6C6F706D 
 3771 01f3 4D333246 		.ascii	"M32F051\000"
 3771      30353100 
 3772              	.LASF49:
 3773 01fb 636F6E74 		.ascii	"context\000"
 3773      65787400 
 3774              	.LASF71:
 3775 0203 73697A65 		.ascii	"size\000"
 3775      00
 3776              	.LASF6:
 3777 0208 73686F72 		.ascii	"short unsigned int\000"
 3777      7420756E 
 3777      7369676E 
 3777      65642069 
 3777      6E7400
 3778              	.LASF96:
 3779 021b 64796E32 		.ascii	"dyn2_execute\000"
 3779      5F657865 
 3779      63757465 
 3779      00
 3780              	.LASF21:
 3781 0228 6D73675F 		.ascii	"msg_t\000"
 3781      7400
 3782              	.LASF16:
 3783 022e 746D6F64 		.ascii	"tmode_t\000"
 3783      655F7400 
 3784              	.LASF45:
 3785 0236 54687265 		.ascii	"ThreadsList\000"
 3785      6164734C 
 3785      69737400 
 3786              	.LASF22:
 3787 0242 6576656E 		.ascii	"eventmask_t\000"
 3787      746D6173 
 3787      6B5F7400 
 3788              	.LASF58:
 3789 024e 4D757465 		.ascii	"Mutex\000"
 3789      7800
 3790              	.LASF123:
 3791 0254 63685468 		.ascii	"chThdAddRef\000"
 3791      64416464 
 3791      52656600 
 3792              	.LASF47:
 3793 0260 73746B61 		.ascii	"stkalign_t\000"
 3793      6C69676E 
 3793      5F7400
 3794              	.LASF50:
 3795 026b 73697A65 		.ascii	"sizetype\000"
 3795      74797065 
 3795      00
ARM GAS  /var/folders/qh/xwg3v3kj02qbxczjpdb8lzfr0000gn/T//ccuwC7Tn.s 			page 70


 3796              	.LASF106:
 3797 0274 74657374 		.ascii	"testdyn1\000"
 3797      64796E31 
 3797      00
 3798              	.LASF107:
 3799 027d 74657374 		.ascii	"testdyn2\000"
 3799      64796E32 
 3799      00
 3800              	.LASF108:
 3801 0286 74657374 		.ascii	"testdyn3\000"
 3801      64796E33 
 3801      00
 3802              	.LASF125:
 3803 028f 474E5520 		.ascii	"GNU C 4.8.3 20131129 (release) [ARM/embedded-4_8-br"
 3803      4320342E 
 3803      382E3320 
 3803      32303133 
 3803      31313239 
 3804 02c2 616E6368 		.ascii	"anch revision 205641] -mcpu=cortex-m0 -mno-thumb-in"
 3804      20726576 
 3804      6973696F 
 3804      6E203230 
 3804      35363431 
 3805 02f5 74657277 		.ascii	"terwork -mthumb -ggdb -O2 -fomit-frame-pointer -fal"
 3805      6F726B20 
 3805      2D6D7468 
 3805      756D6220 
 3805      2D676764 
 3806 0328 69676E2D 		.ascii	"ign-functions=16 -ffunction-sections -fdata-section"
 3806      66756E63 
 3806      74696F6E 
 3806      733D3136 
 3806      202D6666 
 3807 035b 73202D66 		.ascii	"s -fno-common\000"
 3807      6E6F2D63 
 3807      6F6D6D6F 
 3807      6E00
 3808              	.LASF101:
 3809 0369 64796E33 		.ascii	"dyn3_execute\000"
 3809      5F657865 
 3809      63757465 
 3809      00
 3810              	.LASF30:
 3811 0376 705F6F6C 		.ascii	"p_older\000"
 3811      64657200 
 3812              	.LASF53:
 3813 037e 725F6374 		.ascii	"r_ctx\000"
 3813      7800
 3814              	.LASF44:
 3815 0384 54687265 		.ascii	"ThreadsQueue\000"
 3815      61647351 
 3815      75657565 
 3815      00
 3816              	.LASF75:
 3817 0391 6D705F6F 		.ascii	"mp_object_size\000"
 3817      626A6563 
 3817      745F7369 
ARM GAS  /var/folders/qh/xwg3v3kj02qbxczjpdb8lzfr0000gn/T//ccuwC7Tn.s 			page 71


 3817      7A6500
 3818              	.LASF86:
 3819 03a0 73657475 		.ascii	"setup\000"
 3819      7000
 3820              	.LASF114:
 3821 03a6 5F746573 		.ascii	"_test_assert_sequence\000"
 3821      745F6173 
 3821      73657274 
 3821      5F736571 
 3821      75656E63 
 3822              	.LASF56:
 3823 03bc 725F6375 		.ascii	"r_current\000"
 3823      7272656E 
 3823      7400
 3824              	.LASF55:
 3825 03c6 725F6F6C 		.ascii	"r_older\000"
 3825      64657200 
 3826              	.LASF63:
 3827 03ce 4D656D6F 		.ascii	"MemoryHeap\000"
 3827      72794865 
 3827      617000
 3828              	.LASF73:
 3829 03d9 70685F6E 		.ascii	"ph_next\000"
 3829      65787400 
 3830              	.LASF18:
 3831 03e1 74726566 		.ascii	"trefs_t\000"
 3831      735F7400 
 3832              	.LASF26:
 3833 03e9 705F7072 		.ascii	"p_prev\000"
 3833      657600
 3834              	.LASF88:
 3835 03f0 65786563 		.ascii	"execute\000"
 3835      75746500 
 3836              	.LASF20:
 3837 03f8 74707269 		.ascii	"tprio_t\000"
 3837      6F5F7400 
 3838              	.LASF98:
 3839 0400 74687265 		.ascii	"thread\000"
 3839      616400
 3840              	.LASF15:
 3841 0407 5F426F6F 		.ascii	"_Bool\000"
 3841      6C00
 3842              	.LASF7:
 3843 040d 696E7433 		.ascii	"int32_t\000"
 3843      325F7400 
 3844              	.LASF4:
 3845 0415 756E7369 		.ascii	"unsigned char\000"
 3845      676E6564 
 3845      20636861 
 3845      7200
 3846              	.LASF65:
 3847 0423 685F7072 		.ascii	"h_provider\000"
 3847      6F766964 
 3847      657200
 3848              	.LASF41:
 3849 042e 705F6D74 		.ascii	"p_mtxlist\000"
 3849      786C6973 
ARM GAS  /var/folders/qh/xwg3v3kj02qbxczjpdb8lzfr0000gn/T//ccuwC7Tn.s 			page 72


 3849      7400
 3850              	.LASF5:
 3851 0438 73686F72 		.ascii	"short int\000"
 3851      7420696E 
 3851      7400
 3852              	.LASF32:
 3853 0442 705F7374 		.ascii	"p_state\000"
 3853      61746500 
 3854              	.LASF35:
 3855 044a 705F7072 		.ascii	"p_preempt\000"
 3855      65656D70 
 3855      7400
 3856              	.LASF104:
 3857 0454 74687265 		.ascii	"threads\000"
 3857      61647300 
 3858              	.LASF52:
 3859 045c 725F7072 		.ascii	"r_prio\000"
 3859      696F00
 3860              	.LASF89:
 3861 0463 68656170 		.ascii	"heap_header\000"
 3861      5F686561 
 3861      64657200 
 3862              	.LASF81:
 3863 046f 65776D61 		.ascii	"ewmask\000"
 3863      736B00
 3864              	.LASF25:
 3865 0476 705F6E65 		.ascii	"p_next\000"
 3865      787400
 3866              	.LASF33:
 3867 047d 705F666C 		.ascii	"p_flags\000"
 3867      61677300 
 3868              	.LASF124:
 3869 0485 63685468 		.ascii	"chThdRelease\000"
 3869      6452656C 
 3869      65617365 
 3869      00
 3870              	.LASF24:
 3871 0492 54687265 		.ascii	"Thread\000"
 3871      616400
 3872              	.LASF112:
 3873 0499 63684865 		.ascii	"chHeapAlloc\000"
 3873      6170416C 
 3873      6C6F6300 
 3874              	.LASF84:
 3875 04a5 74657374 		.ascii	"testcase\000"
 3875      63617365 
 3875      00
 3876              	.LASF40:
 3877 04ae 705F6570 		.ascii	"p_epending\000"
 3877      656E6469 
 3877      6E6700
 3878              	.LASF130:
 3879 04b9 63685468 		.ascii	"chThdSleep\000"
 3879      64536C65 
 3879      657000
 3880              	.LASF9:
 3881 04c4 75696E74 		.ascii	"uint32_t\000"
ARM GAS  /var/folders/qh/xwg3v3kj02qbxczjpdb8lzfr0000gn/T//ccuwC7Tn.s 			page 73


 3881      33325F74 
 3881      00
 3882              	.LASF51:
 3883 04cd 725F7175 		.ascii	"r_queue\000"
 3883      65756500 
 3884              	.LASF69:
 3885 04d5 68656170 		.ascii	"heap\000"
 3885      00
 3886              	.LASF82:
 3887 04da 63686172 		.ascii	"char\000"
 3887      00
 3888              	.LASF122:
 3889 04df 63685265 		.ascii	"chRegNextThread\000"
 3889      674E6578 
 3889      74546872 
 3889      65616400 
 3890              	.LASF95:
 3891 04ef 64796E33 		.ascii	"dyn3_setup\000"
 3891      5F736574 
 3891      757000
 3892              	.LASF110:
 3893 04fa 63684865 		.ascii	"chHeapStatus\000"
 3893      61705374 
 3893      61747573 
 3893      00
 3894              	.LASF128:
 3895 0507 74657374 		.ascii	"test_wait_threads\000"
 3895      5F776169 
 3895      745F7468 
 3895      72656164 
 3895      7300
 3896              	.LASF61:
 3897 0519 6D5F6E65 		.ascii	"m_next\000"
 3897      787400
 3898              	.LASF23:
 3899 0520 73797374 		.ascii	"systime_t\000"
 3899      696D655F 
 3899      7400
 3900              	.LASF42:
 3901 052a 705F7265 		.ascii	"p_realprio\000"
 3901      616C7072 
 3901      696F00
 3902              	.LASF91:
 3903 0535 62756666 		.ascii	"buffer\000"
 3903      657200
 3904              	.LASF109:
 3905 053c 70617474 		.ascii	"patterndyn\000"
 3905      65726E64 
 3905      796E00
 3906              	.LASF36:
 3907 0547 705F7469 		.ascii	"p_time\000"
 3907      6D6500
 3908              	.LASF48:
 3909 054e 696E7463 		.ascii	"intctx\000"
 3909      747800
 3910              	.LASF38:
 3911 0555 705F6D73 		.ascii	"p_msgqueue\000"
ARM GAS  /var/folders/qh/xwg3v3kj02qbxczjpdb8lzfr0000gn/T//ccuwC7Tn.s 			page 74


 3911      67717565 
 3911      756500
 3912              	.LASF126:
 3913 0560 2E2E2F2E 		.ascii	"../../test/testdyn.c\000"
 3913      2E2F7465 
 3913      73742F74 
 3913      65737464 
 3913      796E2E63 
 3914              	.LASF100:
 3915 0575 666F756E 		.ascii	"found\000"
 3915      6400
 3916              	.LASF90:
 3917 057b 74657374 		.ascii	"test_buffers\000"
 3917      5F627566 
 3917      66657273 
 3917      00
 3918              	.LASF72:
 3919 0588 706F6F6C 		.ascii	"pool_header\000"
 3919      5F686561 
 3919      64657200 
 3920              	.LASF34:
 3921 0594 705F7265 		.ascii	"p_refs\000"
 3921      667300
 3922              	.LASF57:
 3923 059b 52656164 		.ascii	"ReadyList\000"
 3923      794C6973 
 3923      7400
 3924              	.LASF99:
 3925 05a5 72656766 		.ascii	"regfind\000"
 3925      696E6400 
 3926              	.LASF103:
 3927 05ad 726C6973 		.ascii	"rlist\000"
 3927      7400
 3928              	.LASF3:
 3929 05b3 75696E74 		.ascii	"uint8_t\000"
 3929      385F7400 
 3930              	.LASF120:
 3931 05bb 6368506F 		.ascii	"chPoolAlloc\000"
 3931      6F6C416C 
 3931      6C6F6300 
 3932              	.LASF118:
 3933 05c7 6368506F 		.ascii	"chPoolFree\000"
 3933      6F6C4672 
 3933      656500
 3934              	.LASF80:
 3935 05d2 77746F62 		.ascii	"wtobjp\000"
 3935      6A7000
 3936              	.LASF31:
 3937 05d9 705F6E61 		.ascii	"p_name\000"
 3937      6D6500
 3938              	.LASF113:
 3939 05e0 5F746573 		.ascii	"_test_assert\000"
 3939      745F6173 
 3939      73657274 
 3939      00
 3940              	.LASF60:
 3941 05ed 6D5F6F77 		.ascii	"m_owner\000"
ARM GAS  /var/folders/qh/xwg3v3kj02qbxczjpdb8lzfr0000gn/T//ccuwC7Tn.s 			page 75


 3941      6E657200 
 3942              	.LASF28:
 3943 05f5 705F6374 		.ascii	"p_ctx\000"
 3943      7800
 3944              	.LASF37:
 3945 05fb 705F7761 		.ascii	"p_waiting\000"
 3945      6974696E 
 3945      6700
 3946              	.LASF102:
 3947 0605 68656170 		.ascii	"heap1\000"
 3947      3100
 3948              	.LASF64:
 3949 060b 6D656D6F 		.ascii	"memory_heap\000"
 3949      72795F68 
 3949      65617000 
 3950              		.ident	"GCC: (GNU Tools for ARM Embedded Processors) 4.8.3 20131129 (release) [ARM/embedded-4_8-br
ARM GAS  /var/folders/qh/xwg3v3kj02qbxczjpdb8lzfr0000gn/T//ccuwC7Tn.s 			page 76


DEFINED SYMBOLS
                            *ABS*:0000000000000000 testdyn.c
/var/folders/qh/xwg3v3kj02qbxczjpdb8lzfr0000gn/T//ccuwC7Tn.s:18     .text.dyn1_execute:0000000000000000 $t
/var/folders/qh/xwg3v3kj02qbxczjpdb8lzfr0000gn/T//ccuwC7Tn.s:23     .text.dyn1_execute:0000000000000000 dyn1_execute
/var/folders/qh/xwg3v3kj02qbxczjpdb8lzfr0000gn/T//ccuwC7Tn.s:196    .text.dyn1_execute:00000000000000e8 $d
/var/folders/qh/xwg3v3kj02qbxczjpdb8lzfr0000gn/T//ccuwC7Tn.s:213    .text.thread:0000000000000000 thread
/var/folders/qh/xwg3v3kj02qbxczjpdb8lzfr0000gn/T//ccuwC7Tn.s:208    .text.thread:0000000000000000 $t
/var/folders/qh/xwg3v3kj02qbxczjpdb8lzfr0000gn/T//ccuwC7Tn.s:235    .text.dyn1_setup:0000000000000000 $t
/var/folders/qh/xwg3v3kj02qbxczjpdb8lzfr0000gn/T//ccuwC7Tn.s:240    .text.dyn1_setup:0000000000000000 dyn1_setup
/var/folders/qh/xwg3v3kj02qbxczjpdb8lzfr0000gn/T//ccuwC7Tn.s:261    .text.dyn1_setup:0000000000000010 $d
/var/folders/qh/xwg3v3kj02qbxczjpdb8lzfr0000gn/T//ccuwC7Tn.s:267    .text.dyn3_setup:0000000000000000 $t
/var/folders/qh/xwg3v3kj02qbxczjpdb8lzfr0000gn/T//ccuwC7Tn.s:272    .text.dyn3_setup:0000000000000000 dyn3_setup
/var/folders/qh/xwg3v3kj02qbxczjpdb8lzfr0000gn/T//ccuwC7Tn.s:293    .text.dyn3_setup:0000000000000010 $d
/var/folders/qh/xwg3v3kj02qbxczjpdb8lzfr0000gn/T//ccuwC7Tn.s:299    .text.dyn2_execute:0000000000000000 $t
/var/folders/qh/xwg3v3kj02qbxczjpdb8lzfr0000gn/T//ccuwC7Tn.s:304    .text.dyn2_execute:0000000000000000 dyn2_execute
/var/folders/qh/xwg3v3kj02qbxczjpdb8lzfr0000gn/T//ccuwC7Tn.s:470    .text.dyn2_execute:00000000000000e0 $d
/var/folders/qh/xwg3v3kj02qbxczjpdb8lzfr0000gn/T//ccuwC7Tn.s:485    .text.dyn2_setup:0000000000000000 $t
/var/folders/qh/xwg3v3kj02qbxczjpdb8lzfr0000gn/T//ccuwC7Tn.s:490    .text.dyn2_setup:0000000000000000 dyn2_setup
/var/folders/qh/xwg3v3kj02qbxczjpdb8lzfr0000gn/T//ccuwC7Tn.s:511    .text.dyn2_setup:0000000000000010 $d
/var/folders/qh/xwg3v3kj02qbxczjpdb8lzfr0000gn/T//ccuwC7Tn.s:516    .text.regfind:0000000000000000 $t
/var/folders/qh/xwg3v3kj02qbxczjpdb8lzfr0000gn/T//ccuwC7Tn.s:521    .text.regfind:0000000000000000 regfind
/var/folders/qh/xwg3v3kj02qbxczjpdb8lzfr0000gn/T//ccuwC7Tn.s:564    .text.dyn3_execute:0000000000000000 $t
/var/folders/qh/xwg3v3kj02qbxczjpdb8lzfr0000gn/T//ccuwC7Tn.s:569    .text.dyn3_execute:0000000000000000 dyn3_execute
/var/folders/qh/xwg3v3kj02qbxczjpdb8lzfr0000gn/T//ccuwC7Tn.s:756    .text.dyn3_execute:0000000000000120 $d
/var/folders/qh/xwg3v3kj02qbxczjpdb8lzfr0000gn/T//ccuwC7Tn.s:835    .rodata.patterndyn:0000000000000000 patterndyn
/var/folders/qh/xwg3v3kj02qbxczjpdb8lzfr0000gn/T//ccuwC7Tn.s:789    .rodata.testdyn3:0000000000000000 testdyn3
/var/folders/qh/xwg3v3kj02qbxczjpdb8lzfr0000gn/T//ccuwC7Tn.s:780    .rodata.testdyn2:0000000000000000 testdyn2
/var/folders/qh/xwg3v3kj02qbxczjpdb8lzfr0000gn/T//ccuwC7Tn.s:771    .rodata.testdyn1:0000000000000000 testdyn1
/var/folders/qh/xwg3v3kj02qbxczjpdb8lzfr0000gn/T//ccuwC7Tn.s:768    .rodata.testdyn1:0000000000000000 $d
/var/folders/qh/xwg3v3kj02qbxczjpdb8lzfr0000gn/T//ccuwC7Tn.s:777    .rodata.testdyn2:0000000000000000 $d
/var/folders/qh/xwg3v3kj02qbxczjpdb8lzfr0000gn/T//ccuwC7Tn.s:786    .rodata.testdyn3:0000000000000000 $d
/var/folders/qh/xwg3v3kj02qbxczjpdb8lzfr0000gn/T//ccuwC7Tn.s:795    .bss.mp1:0000000000000000 $d
/var/folders/qh/xwg3v3kj02qbxczjpdb8lzfr0000gn/T//ccuwC7Tn.s:799    .bss.mp1:0000000000000000 mp1
/var/folders/qh/xwg3v3kj02qbxczjpdb8lzfr0000gn/T//ccuwC7Tn.s:802    .rodata.str1.4:0000000000000000 $d
/var/folders/qh/xwg3v3kj02qbxczjpdb8lzfr0000gn/T//ccuwC7Tn.s:832    .rodata.patterndyn:0000000000000000 $d
/var/folders/qh/xwg3v3kj02qbxczjpdb8lzfr0000gn/T//ccuwC7Tn.s:841    .bss.heap1:0000000000000000 $d
/var/folders/qh/xwg3v3kj02qbxczjpdb8lzfr0000gn/T//ccuwC7Tn.s:845    .bss.heap1:0000000000000000 heap1
                     .debug_frame:0000000000000010 $d
/var/folders/qh/xwg3v3kj02qbxczjpdb8lzfr0000gn/T//ccuwC7Tn.s:207    .text.dyn1_execute:0000000000000108 $t
/var/folders/qh/xwg3v3kj02qbxczjpdb8lzfr0000gn/T//ccuwC7Tn.s:266    .text.dyn1_setup:0000000000000018 $t
/var/folders/qh/xwg3v3kj02qbxczjpdb8lzfr0000gn/T//ccuwC7Tn.s:298    .text.dyn3_setup:0000000000000018 $t
/var/folders/qh/xwg3v3kj02qbxczjpdb8lzfr0000gn/T//ccuwC7Tn.s:3950   .text.dyn2_execute:000000000000010c $t
/var/folders/qh/xwg3v3kj02qbxczjpdb8lzfr0000gn/T//ccuwC7Tn.s:515    .text.dyn2_setup:0000000000000014 $t

UNDEFINED SYMBOLS
chHeapStatus
chThdCreateFromHeap
chHeapAlloc
chHeapFree
_test_assert
test_wait_threads
_test_assert_sequence
rlist
threads
test_emit_token
chHeapInit
test
ARM GAS  /var/folders/qh/xwg3v3kj02qbxczjpdb8lzfr0000gn/T//ccuwC7Tn.s 			page 77


chPoolFree
chThdCreateFromMemoryPool
chPoolAlloc
wa
chPoolInit
chRegFirstThread
chRegNextThread
chThdAddRef
chThdRelease
chThdSleep
