ARM GAS  /var/folders/qh/xwg3v3kj02qbxczjpdb8lzfr0000gn/T//ccSPuUNF.s 			page 1


   1              		.cpu cortex-m0
   2              		.fpu softvfp
   3              		.eabi_attribute 20, 1
   4              		.eabi_attribute 21, 1
   5              		.eabi_attribute 23, 3
   6              		.eabi_attribute 24, 1
   7              		.eabi_attribute 25, 1
   8              		.eabi_attribute 26, 1
   9              		.eabi_attribute 30, 2
  10              		.eabi_attribute 34, 0
  11              		.eabi_attribute 18, 4
  12              		.code	16
  13              		.file	"testqueues.c"
  14              		.text
  15              	.Ltext0:
  16              		.cfi_sections	.debug_frame
  17              		.section	.text.notify,"ax",%progbits
  18              		.align	2
  19              		.p2align 4,,15
  20              		.code	16
  21              		.thumb_func
  22              		.type	notify, %function
  23              	notify:
  24              	.LFB7:
  25              		.file 1 "../../test/testqueues.c"
  26              		.loc 1 57 0
  27              		.cfi_startproc
  28              	.LVL0:
  29              		.loc 1 59 0
  30              		@ sp needed
  31 0000 7047     		bx	lr
  32              		.cfi_endproc
  33              	.LFE7:
  34              		.size	notify, .-notify
  35 0002 C046C046 		.section	.text.thread1,"ax",%progbits
  35      C046C046 
  35      C046C046 
  35      C046
  36              		.align	2
  37              		.p2align 4,,15
  38              		.code	16
  39              		.thumb_func
  40              		.type	thread1, %function
  41              	thread1:
  42              	.LFB9:
  43              		.loc 1 83 0
  44              		.cfi_startproc
  45              	.LVL1:
  46 0000 08B5     		push	{r3, lr}
  47              		.cfi_def_cfa_offset 8
  48              		.cfi_offset 3, -8
  49              		.cfi_offset 14, -4
  50              		.loc 1 86 0
  51 0002 0348     		ldr	r0, .L3
  52              	.LVL2:
  53 0004 C821     		mov	r1, #200
  54 0006 FFF7FEFF 		bl	chIQGetTimeout
ARM GAS  /var/folders/qh/xwg3v3kj02qbxczjpdb8lzfr0000gn/T//ccSPuUNF.s 			page 2


  55              	.LVL3:
  56              		.loc 1 88 0
  57              		@ sp needed
  58 000a 0020     		mov	r0, #0
  59 000c 08BD     		pop	{r3, pc}
  60              	.L4:
  61 000e C046     		.align	2
  62              	.L3:
  63 0010 00000000 		.word	.LANCHOR0
  64              		.cfi_endproc
  65              	.LFE9:
  66              		.size	thread1, .-thread1
  67 0014 C046C046 		.section	.text.queues1_setup,"ax",%progbits
  67      C046C046 
  67      C046C046 
  68              		.align	2
  69              		.p2align 4,,15
  70              		.code	16
  71              		.thumb_func
  72              		.type	queues1_setup, %function
  73              	queues1_setup:
  74              	.LFB8:
  75              		.loc 1 78 0
  76              		.cfi_startproc
  77 0000 00B5     		push	{lr}
  78              		.cfi_def_cfa_offset 4
  79              		.cfi_offset 14, -4
  80              		.loc 1 80 0
  81 0002 064B     		ldr	r3, .L6
  82              		.loc 1 78 0
  83 0004 83B0     		sub	sp, sp, #12
  84              		.cfi_def_cfa_offset 16
  85              		.loc 1 80 0
  86 0006 1968     		ldr	r1, [r3]
  87 0008 0023     		mov	r3, #0
  88 000a 0093     		str	r3, [sp]
  89 000c 0448     		ldr	r0, .L6+4
  90 000e 0422     		mov	r2, #4
  91 0010 044B     		ldr	r3, .L6+8
  92 0012 FFF7FEFF 		bl	chIQInit
  93              	.LVL4:
  94              		.loc 1 81 0
  95 0016 03B0     		add	sp, sp, #12
  96              		@ sp needed
  97 0018 00BD     		pop	{pc}
  98              	.L7:
  99 001a C046     		.align	2
 100              	.L6:
 101 001c 00000000 		.word	wa
 102 0020 00000000 		.word	.LANCHOR0
 103 0024 00000000 		.word	notify
 104              		.cfi_endproc
 105              	.LFE8:
 106              		.size	queues1_setup, .-queues1_setup
 107 0028 C046C046 		.section	.text.thread2,"ax",%progbits
 107      C046C046 
 108              		.align	2
ARM GAS  /var/folders/qh/xwg3v3kj02qbxczjpdb8lzfr0000gn/T//ccSPuUNF.s 			page 3


 109              		.p2align 4,,15
 110              		.code	16
 111              		.thumb_func
 112              		.type	thread2, %function
 113              	thread2:
 114              	.LFB12:
 115              		.loc 1 170 0
 116              		.cfi_startproc
 117              	.LVL5:
 118 0000 08B5     		push	{r3, lr}
 119              		.cfi_def_cfa_offset 8
 120              		.cfi_offset 3, -8
 121              		.cfi_offset 14, -4
 122              		.loc 1 173 0
 123 0002 0348     		ldr	r0, .L9
 124              	.LVL6:
 125 0004 0021     		mov	r1, #0
 126 0006 C822     		mov	r2, #200
 127 0008 FFF7FEFF 		bl	chOQPutTimeout
 128              	.LVL7:
 129              		.loc 1 175 0
 130              		@ sp needed
 131 000c 0020     		mov	r0, #0
 132 000e 08BD     		pop	{r3, pc}
 133              	.L10:
 134              		.align	2
 135              	.L9:
 136 0010 00000000 		.word	.LANCHOR1
 137              		.cfi_endproc
 138              	.LFE12:
 139              		.size	thread2, .-thread2
 140 0014 C046C046 		.section	.text.queues2_setup,"ax",%progbits
 140      C046C046 
 140      C046C046 
 141              		.align	2
 142              		.p2align 4,,15
 143              		.code	16
 144              		.thumb_func
 145              		.type	queues2_setup, %function
 146              	queues2_setup:
 147              	.LFB11:
 148              		.loc 1 165 0
 149              		.cfi_startproc
 150 0000 00B5     		push	{lr}
 151              		.cfi_def_cfa_offset 4
 152              		.cfi_offset 14, -4
 153              		.loc 1 167 0
 154 0002 064B     		ldr	r3, .L12
 155              		.loc 1 165 0
 156 0004 83B0     		sub	sp, sp, #12
 157              		.cfi_def_cfa_offset 16
 158              		.loc 1 167 0
 159 0006 1968     		ldr	r1, [r3]
 160 0008 0023     		mov	r3, #0
 161 000a 0093     		str	r3, [sp]
 162 000c 0448     		ldr	r0, .L12+4
 163 000e 0422     		mov	r2, #4
ARM GAS  /var/folders/qh/xwg3v3kj02qbxczjpdb8lzfr0000gn/T//ccSPuUNF.s 			page 4


 164 0010 044B     		ldr	r3, .L12+8
 165 0012 FFF7FEFF 		bl	chOQInit
 166              	.LVL8:
 167              		.loc 1 168 0
 168 0016 03B0     		add	sp, sp, #12
 169              		@ sp needed
 170 0018 00BD     		pop	{pc}
 171              	.L13:
 172 001a C046     		.align	2
 173              	.L12:
 174 001c 00000000 		.word	wa
 175 0020 00000000 		.word	.LANCHOR1
 176 0024 00000000 		.word	notify
 177              		.cfi_endproc
 178              	.LFE11:
 179              		.size	queues2_setup, .-queues2_setup
 180 0028 C046C046 		.section	.text.queues1_execute,"ax",%progbits
 180      C046C046 
 181              		.align	2
 182              		.p2align 4,,15
 183              		.code	16
 184              		.thumb_func
 185              		.type	queues1_execute, %function
 186              	queues1_execute:
 187              	.LFB10:
 188              		.loc 1 90 0
 189              		.cfi_startproc
 190 0000 70B5     		push	{r4, r5, r6, lr}
 191              		.cfi_def_cfa_offset 16
 192              		.cfi_offset 4, -16
 193              		.cfi_offset 5, -12
 194              		.cfi_offset 6, -8
 195              		.cfi_offset 14, -4
 196 0002 84B0     		sub	sp, sp, #16
 197              		.cfi_def_cfa_offset 32
 198              		.loc 1 95 0
 199              	@ 95 "../../test/testqueues.c" 1
 200 0004 72B6     		cpsid   i
 201              	@ 0 "" 2
 202              		.code	16
 203 0006 FFF7FEFF 		bl	dbg_check_lock
 204              	.LVL9:
 205 000a 954D     		ldr	r5, .L38
 206 000c 0120     		mov	r0, #1
 207 000e AA68     		ldr	r2, [r5, #8]
 208 0010 5142     		neg	r1, r2
 209 0012 5141     		adc	r1, r1, r2
 210 0014 C9B2     		uxtb	r1, r1
 211 0016 FFF7FEFF 		bl	_test_assert
 212              	.LVL10:
 213 001a 061E     		sub	r6, r0, #0
 214 001c 00D0     		beq	.LCB157
 215 001e 14E1     		b	.L35	@long jump
 216              	.LCB157:
 217              	.LBB5:
 218              	.LBB6:
 219 0020 FFF7FEFF 		bl	dbg_check_unlock
ARM GAS  /var/folders/qh/xwg3v3kj02qbxczjpdb8lzfr0000gn/T//ccSPuUNF.s 			page 5


 220              	.LVL11:
 221              	@ 95 "../../test/testqueues.c" 1
 222 0024 62B6     		cpsie   i
 223              	@ 0 "" 2
 224              		.loc 1 98 0
 225              	@ 98 "../../test/testqueues.c" 1
 226 0026 72B6     		cpsid   i
 227              	@ 0 "" 2
 228              		.code	16
 229 0028 FFF7FEFF 		bl	dbg_check_lock
 230              	.LVL12:
 231 002c 4124     		mov	r4, #65
 232              	.LVL13:
 233              	.L18:
 234              		.loc 1 100 0
 235 002e 211C     		mov	r1, r4
 236 0030 0134     		add	r4, r4, #1
 237 0032 281C     		mov	r0, r5
 238 0034 E4B2     		uxtb	r4, r4
 239 0036 FFF7FEFF 		bl	chIQPutI
 240              	.LVL14:
 241              		.loc 1 99 0
 242 003a 452C     		cmp	r4, #69
 243 003c F7D1     		bne	.L18
 244              		.loc 1 101 0
 245 003e FFF7FEFF 		bl	dbg_check_unlock
 246              	.LVL15:
 247              	@ 101 "../../test/testqueues.c" 1
 248 0042 62B6     		cpsie   i
 249              	@ 0 "" 2
 250              		.loc 1 102 0
 251              	@ 102 "../../test/testqueues.c" 1
 252 0044 72B6     		cpsid   i
 253              	@ 0 "" 2
 254              		.code	16
 255 0046 FFF7FEFF 		bl	dbg_check_lock
 256              	.LVL16:
 257 004a 6B69     		ldr	r3, [r5, #20]
 258 004c AA69     		ldr	r2, [r5, #24]
 259 004e 9342     		cmp	r3, r2
 260 0050 00D1     		bne	.LCB191
 261 0052 FFE0     		b	.L37	@long jump
 262              	.LCB191:
 263              	.L19:
 264 0054 0220     		mov	r0, #2
 265 0056 311C     		mov	r1, r6
 266 0058 FFF7FEFF 		bl	_test_assert
 267              	.LVL17:
 268 005c 0028     		cmp	r0, #0
 269 005e 00D0     		beq	.LCB198
 270 0060 F3E0     		b	.L35	@long jump
 271              	.LCB198:
 272 0062 FFF7FEFF 		bl	dbg_check_unlock
 273              	.LVL18:
 274              	@ 102 "../../test/testqueues.c" 1
 275 0066 62B6     		cpsie   i
 276              	@ 0 "" 2
ARM GAS  /var/folders/qh/xwg3v3kj02qbxczjpdb8lzfr0000gn/T//ccSPuUNF.s 			page 6


 277              		.loc 1 103 0
 278              	@ 103 "../../test/testqueues.c" 1
 279 0068 72B6     		cpsid   i
 280              	@ 0 "" 2
 281              		.code	16
 282 006a FFF7FEFF 		bl	dbg_check_lock
 283              	.LVL19:
 284 006e 0021     		mov	r1, #0
 285 0070 281C     		mov	r0, r5
 286 0072 FFF7FEFF 		bl	chIQPutI
 287              	.LVL20:
 288 0076 011D     		add	r1, r0, #4
 289 0078 4B42     		neg	r3, r1
 290 007a 5941     		adc	r1, r1, r3
 291 007c C9B2     		uxtb	r1, r1
 292 007e 0320     		mov	r0, #3
 293 0080 FFF7FEFF 		bl	_test_assert
 294              	.LVL21:
 295 0084 0028     		cmp	r0, #0
 296 0086 00D0     		beq	.LCB216
 297 0088 DFE0     		b	.L35	@long jump
 298              	.LCB216:
 299 008a FFF7FEFF 		bl	dbg_check_unlock
 300              	.LVL22:
 301              	@ 103 "../../test/testqueues.c" 1
 302 008e 62B6     		cpsie   i
 303              	@ 0 "" 2
 304              	.LVL23:
 305              		.code	16
 306 0090 0424     		mov	r4, #4
 307              	.LVL24:
 308              	.L23:
 309              		.loc 1 107 0
 310 0092 0121     		mov	r1, #1
 311 0094 4942     		neg	r1, r1
 312 0096 281C     		mov	r0, r5
 313 0098 FFF7FEFF 		bl	chIQGetTimeout
 314              	.LVL25:
 315 009c 013C     		sub	r4, r4, #1
 316              	.LVL26:
 317 009e C0B2     		uxtb	r0, r0
 318 00a0 FFF7FEFF 		bl	test_emit_token
 319              	.LVL27:
 320              		.loc 1 106 0
 321 00a4 002C     		cmp	r4, #0
 322 00a6 F4D1     		bne	.L23
 323              		.loc 1 108 0
 324              	@ 108 "../../test/testqueues.c" 1
 325 00a8 72B6     		cpsid   i
 326              	@ 0 "" 2
 327              		.code	16
 328 00aa FFF7FEFF 		bl	dbg_check_lock
 329              	.LVL28:
 330 00ae AA68     		ldr	r2, [r5, #8]
 331 00b0 0420     		mov	r0, #4
 332 00b2 5142     		neg	r1, r2
 333 00b4 5141     		adc	r1, r1, r2
ARM GAS  /var/folders/qh/xwg3v3kj02qbxczjpdb8lzfr0000gn/T//ccSPuUNF.s 			page 7


 334 00b6 C9B2     		uxtb	r1, r1
 335 00b8 FFF7FEFF 		bl	_test_assert
 336              	.LVL29:
 337 00bc 0028     		cmp	r0, #0
 338 00be 00D0     		beq	.LCB250
 339 00c0 C3E0     		b	.L35	@long jump
 340              	.LCB250:
 341 00c2 FFF7FEFF 		bl	dbg_check_unlock
 342              	.LVL30:
 343              	@ 108 "../../test/testqueues.c" 1
 344 00c6 62B6     		cpsie   i
 345              	@ 0 "" 2
 346              		.loc 1 109 0
 347              		.code	16
 348 00c8 0520     		mov	r0, #5
 349 00ca 6649     		ldr	r1, .L38+4
 350 00cc FFF7FEFF 		bl	_test_assert_sequence
 351              	.LVL31:
 352 00d0 0028     		cmp	r0, #0
 353 00d2 00D0     		beq	.LCB259
 354 00d4 BCE0     		b	.L14	@long jump
 355              	.LCB259:
 356              		.loc 1 112 0
 357              	@ 112 "../../test/testqueues.c" 1
 358 00d6 72B6     		cpsid   i
 359              	@ 0 "" 2
 360              		.code	16
 361 00d8 FFF7FEFF 		bl	dbg_check_lock
 362              	.LVL32:
 363 00dc 4124     		mov	r4, #65
 364              	.LVL33:
 365              	.L27:
 366              		.loc 1 114 0
 367 00de 211C     		mov	r1, r4
 368 00e0 0134     		add	r4, r4, #1
 369 00e2 281C     		mov	r0, r5
 370 00e4 E4B2     		uxtb	r4, r4
 371 00e6 FFF7FEFF 		bl	chIQPutI
 372              	.LVL34:
 373              		.loc 1 113 0
 374 00ea 452C     		cmp	r4, #69
 375 00ec F7D1     		bne	.L27
 376              		.loc 1 115 0
 377 00ee FFF7FEFF 		bl	dbg_check_unlock
 378              	.LVL35:
 379              	@ 115 "../../test/testqueues.c" 1
 380 00f2 62B6     		cpsie   i
 381              	@ 0 "" 2
 382              		.loc 1 118 0
 383              		.code	16
 384 00f4 5C4E     		ldr	r6, .L38+8
 385 00f6 281C     		mov	r0, r5
 386 00f8 7368     		ldr	r3, [r6, #4]
 387 00fa 0822     		mov	r2, #8
 388 00fc 191C     		mov	r1, r3
 389 00fe 0393     		str	r3, [sp, #12]
 390 0100 0023     		mov	r3, #0
ARM GAS  /var/folders/qh/xwg3v3kj02qbxczjpdb8lzfr0000gn/T//ccSPuUNF.s 			page 8


 391 0102 FFF7FEFF 		bl	chIQReadTimeout
 392              	.LVL36:
 393              		.loc 1 119 0
 394 0106 011F     		sub	r1, r0, #4
 395 0108 4B42     		neg	r3, r1
 396 010a 5941     		adc	r1, r1, r3
 397 010c C9B2     		uxtb	r1, r1
 398 010e 0620     		mov	r0, #6
 399              	.LVL37:
 400 0110 FFF7FEFF 		bl	_test_assert
 401              	.LVL38:
 402 0114 0028     		cmp	r0, #0
 403 0116 00D0     		beq	.LCB298
 404 0118 9AE0     		b	.L14	@long jump
 405              	.LCB298:
 406              		.loc 1 120 0
 407              	@ 120 "../../test/testqueues.c" 1
 408 011a 72B6     		cpsid   i
 409              	@ 0 "" 2
 410              		.code	16
 411 011c FFF7FEFF 		bl	dbg_check_lock
 412              	.LVL39:
 413 0120 AA68     		ldr	r2, [r5, #8]
 414 0122 0720     		mov	r0, #7
 415 0124 5142     		neg	r1, r2
 416 0126 5141     		adc	r1, r1, r2
 417 0128 C9B2     		uxtb	r1, r1
 418 012a FFF7FEFF 		bl	_test_assert
 419              	.LVL40:
 420 012e 0028     		cmp	r0, #0
 421 0130 00D0     		beq	.LCB310
 422 0132 8AE0     		b	.L35	@long jump
 423              	.LCB310:
 424 0134 FFF7FEFF 		bl	dbg_check_unlock
 425              	.LVL41:
 426              	@ 120 "../../test/testqueues.c" 1
 427 0138 62B6     		cpsie   i
 428              	@ 0 "" 2
 429              		.loc 1 123 0
 430              	@ 123 "../../test/testqueues.c" 1
 431 013a 72B6     		cpsid   i
 432              	@ 0 "" 2
 433              		.code	16
 434 013c FFF7FEFF 		bl	dbg_check_lock
 435              	.LVL42:
 436 0140 4124     		mov	r4, #65
 437              	.LVL43:
 438              	.L31:
 439              		.loc 1 125 0
 440 0142 211C     		mov	r1, r4
 441 0144 0134     		add	r4, r4, #1
 442 0146 281C     		mov	r0, r5
 443 0148 E4B2     		uxtb	r4, r4
 444 014a FFF7FEFF 		bl	chIQPutI
 445              	.LVL44:
 446              		.loc 1 124 0
 447 014e 452C     		cmp	r4, #69
ARM GAS  /var/folders/qh/xwg3v3kj02qbxczjpdb8lzfr0000gn/T//ccSPuUNF.s 			page 9


 448 0150 F7D1     		bne	.L31
 449              		.loc 1 126 0
 450 0152 FFF7FEFF 		bl	dbg_check_unlock
 451              	.LVL45:
 452              	@ 126 "../../test/testqueues.c" 1
 453 0156 62B6     		cpsie   i
 454              	@ 0 "" 2
 455              		.loc 1 129 0
 456              		.code	16
 457 0158 7368     		ldr	r3, [r6, #4]
 458 015a 281C     		mov	r0, r5
 459 015c 191C     		mov	r1, r3
 460 015e 0393     		str	r3, [sp, #12]
 461 0160 0222     		mov	r2, #2
 462 0162 0023     		mov	r3, #0
 463 0164 FFF7FEFF 		bl	chIQReadTimeout
 464              	.LVL46:
 465              		.loc 1 130 0
 466 0168 811E     		sub	r1, r0, #2
 467 016a 4B42     		neg	r3, r1
 468 016c 5941     		adc	r1, r1, r3
 469 016e C9B2     		uxtb	r1, r1
 470 0170 0820     		mov	r0, #8
 471              	.LVL47:
 472 0172 FFF7FEFF 		bl	_test_assert
 473              	.LVL48:
 474 0176 0028     		cmp	r0, #0
 475 0178 6AD1     		bne	.L14
 476              		.loc 1 131 0
 477 017a 0399     		ldr	r1, [sp, #12]
 478 017c 0023     		mov	r3, #0
 479 017e 281C     		mov	r0, r5
 480 0180 0222     		mov	r2, #2
 481 0182 FFF7FEFF 		bl	chIQReadTimeout
 482              	.LVL49:
 483              		.loc 1 132 0
 484 0186 811E     		sub	r1, r0, #2
 485 0188 4B42     		neg	r3, r1
 486 018a 5941     		adc	r1, r1, r3
 487 018c C9B2     		uxtb	r1, r1
 488 018e 0920     		mov	r0, #9
 489              	.LVL50:
 490 0190 FFF7FEFF 		bl	_test_assert
 491              	.LVL51:
 492 0194 0028     		cmp	r0, #0
 493 0196 5BD1     		bne	.L14
 494              		.loc 1 133 0
 495              	@ 133 "../../test/testqueues.c" 1
 496 0198 72B6     		cpsid   i
 497              	@ 0 "" 2
 498              		.code	16
 499 019a FFF7FEFF 		bl	dbg_check_lock
 500              	.LVL52:
 501 019e AA68     		ldr	r2, [r5, #8]
 502 01a0 0A20     		mov	r0, #10
 503 01a2 5142     		neg	r1, r2
 504 01a4 5141     		adc	r1, r1, r2
ARM GAS  /var/folders/qh/xwg3v3kj02qbxczjpdb8lzfr0000gn/T//ccSPuUNF.s 			page 10


 505 01a6 C9B2     		uxtb	r1, r1
 506 01a8 FFF7FEFF 		bl	_test_assert
 507              	.LVL53:
 508 01ac 0028     		cmp	r0, #0
 509 01ae 4CD1     		bne	.L35
 510 01b0 FFF7FEFF 		bl	dbg_check_unlock
 511              	.LVL54:
 512              	@ 133 "../../test/testqueues.c" 1
 513 01b4 62B6     		cpsie   i
 514              	@ 0 "" 2
 515              		.loc 1 136 0
 516              	@ 136 "../../test/testqueues.c" 1
 517 01b6 72B6     		cpsid   i
 518              	@ 0 "" 2
 519              		.code	16
 520 01b8 FFF7FEFF 		bl	dbg_check_lock
 521              	.LVL55:
 522              		.loc 1 137 0
 523 01bc 0021     		mov	r1, #0
 524 01be 281C     		mov	r0, r5
 525 01c0 FFF7FEFF 		bl	chIQPutI
 526              	.LVL56:
 527              		.loc 1 138 0
 528 01c4 281C     		mov	r0, r5
 529 01c6 FFF7FEFF 		bl	chIQResetI
 530              	.LVL57:
 531              		.loc 1 139 0
 532 01ca FFF7FEFF 		bl	dbg_check_unlock
 533              	.LVL58:
 534              	@ 139 "../../test/testqueues.c" 1
 535 01ce 62B6     		cpsie   i
 536              	@ 0 "" 2
 537              		.loc 1 140 0
 538              	@ 140 "../../test/testqueues.c" 1
 539 01d0 72B6     		cpsid   i
 540              	@ 0 "" 2
 541              		.code	16
 542 01d2 FFF7FEFF 		bl	dbg_check_lock
 543              	.LVL59:
 544 01d6 224D     		ldr	r5, .L38
 545 01d8 0B20     		mov	r0, #11
 546 01da AA68     		ldr	r2, [r5, #8]
 547 01dc 5142     		neg	r1, r2
 548 01de 5141     		adc	r1, r1, r2
 549 01e0 C9B2     		uxtb	r1, r1
 550 01e2 FFF7FEFF 		bl	_test_assert
 551              	.LVL60:
 552 01e6 0028     		cmp	r0, #0
 553 01e8 2FD1     		bne	.L35
 554 01ea FFF7FEFF 		bl	dbg_check_unlock
 555              	.LVL61:
 556              	@ 140 "../../test/testqueues.c" 1
 557 01ee 62B6     		cpsie   i
 558              	@ 0 "" 2
 559              		.loc 1 141 0
 560              		.code	16
 561 01f0 1E4B     		ldr	r3, .L38+12
ARM GAS  /var/folders/qh/xwg3v3kj02qbxczjpdb8lzfr0000gn/T//ccSPuUNF.s 			page 11


 562 01f2 3668     		ldr	r6, [r6]
 563 01f4 9B69     		ldr	r3, [r3, #24]
 564 01f6 9821     		mov	r1, #152
 565 01f8 9A68     		ldr	r2, [r3, #8]
 566 01fa 0023     		mov	r3, #0
 567 01fc 0093     		str	r3, [sp]
 568 01fe 0132     		add	r2, r2, #1
 569 0200 301C     		mov	r0, r6
 570 0202 4900     		lsl	r1, r1, #1
 571 0204 1A4B     		ldr	r3, .L38+16
 572 0206 0396     		str	r6, [sp, #12]
 573 0208 FFF7FEFF 		bl	chThdCreateStatic
 574              	.LVL62:
 575 020c 194B     		ldr	r3, .L38+20
 576 020e 1860     		str	r0, [r3]
 577              		.loc 1 142 0
 578              	@ 142 "../../test/testqueues.c" 1
 579 0210 72B6     		cpsid   i
 580              	@ 0 "" 2
 581              		.code	16
 582 0212 FFF7FEFF 		bl	dbg_check_lock
 583              	.LVL63:
 584 0216 AA68     		ldr	r2, [r5, #8]
 585 0218 0C20     		mov	r0, #12
 586 021a 5142     		neg	r1, r2
 587 021c 5141     		adc	r1, r1, r2
 588 021e C9B2     		uxtb	r1, r1
 589 0220 FFF7FEFF 		bl	_test_assert
 590              	.LVL64:
 591 0224 0028     		cmp	r0, #0
 592 0226 10D1     		bne	.L35
 593 0228 FFF7FEFF 		bl	dbg_check_unlock
 594              	.LVL65:
 595              	@ 142 "../../test/testqueues.c" 1
 596 022c 62B6     		cpsie   i
 597              	@ 0 "" 2
 598              		.loc 1 143 0
 599              		.code	16
 600 022e FFF7FEFF 		bl	test_wait_threads
 601              	.LVL66:
 602              		.loc 1 146 0
 603 0232 281C     		mov	r0, r5
 604 0234 0A21     		mov	r1, #10
 605 0236 FFF7FEFF 		bl	chIQGetTimeout
 606              	.LVL67:
 607 023a 411C     		add	r1, r0, #1
 608 023c 4B42     		neg	r3, r1
 609 023e 5941     		adc	r1, r1, r3
 610 0240 C9B2     		uxtb	r1, r1
 611 0242 0D20     		mov	r0, #13
 612 0244 FFF7FEFF 		bl	_test_assert
 613              	.LVL68:
 614 0248 02E0     		b	.L14
 615              	.L35:
 616              		.loc 1 142 0
 617 024a FFF7FEFF 		bl	dbg_check_unlock
 618              	.LVL69:
ARM GAS  /var/folders/qh/xwg3v3kj02qbxczjpdb8lzfr0000gn/T//ccSPuUNF.s 			page 12


 619              	@ 142 "../../test/testqueues.c" 1
 620 024e 62B6     		cpsie   i
 621              	@ 0 "" 2
 622              		.code	16
 623              	.L14:
 624              	.LBE6:
 625              	.LBE5:
 626              		.loc 1 147 0
 627 0250 04B0     		add	sp, sp, #16
 628              		@ sp needed
 629 0252 70BD     		pop	{r4, r5, r6, pc}
 630              	.L37:
 631              	.LBB8:
 632              	.LBB7:
 633              		.loc 1 102 0
 634 0254 AE68     		ldr	r6, [r5, #8]
 635 0256 731E     		sub	r3, r6, #1
 636 0258 9E41     		sbc	r6, r6, r3
 637 025a F6B2     		uxtb	r6, r6
 638 025c FAE6     		b	.L19
 639              	.L39:
 640 025e C046     		.align	2
 641              	.L38:
 642 0260 00000000 		.word	.LANCHOR0
 643 0264 00000000 		.word	.LC9
 644 0268 00000000 		.word	wa
 645 026c 00000000 		.word	rlist
 646 0270 00000000 		.word	thread1
 647 0274 00000000 		.word	threads
 648              	.LBE7:
 649              	.LBE8:
 650              		.cfi_endproc
 651              	.LFE10:
 652              		.size	queues1_execute, .-queues1_execute
 653 0278 C046C046 		.section	.text.queues2_execute,"ax",%progbits
 653      C046C046 
 654              		.align	2
 655              		.p2align 4,,15
 656              		.code	16
 657              		.thumb_func
 658              		.type	queues2_execute, %function
 659              	queues2_execute:
 660              	.LFB13:
 661              		.loc 1 177 0
 662              		.cfi_startproc
 663 0000 F0B5     		push	{r4, r5, r6, r7, lr}
 664              		.cfi_def_cfa_offset 20
 665              		.cfi_offset 4, -20
 666              		.cfi_offset 5, -16
 667              		.cfi_offset 6, -12
 668              		.cfi_offset 7, -8
 669              		.cfi_offset 14, -4
 670 0002 85B0     		sub	sp, sp, #20
 671              		.cfi_def_cfa_offset 40
 672              		.loc 1 182 0
 673              	@ 182 "../../test/testqueues.c" 1
 674 0004 72B6     		cpsid   i
ARM GAS  /var/folders/qh/xwg3v3kj02qbxczjpdb8lzfr0000gn/T//ccSPuUNF.s 			page 13


 675              	@ 0 "" 2
 676              		.code	16
 677 0006 FFF7FEFF 		bl	dbg_check_lock
 678              	.LVL70:
 679 000a 8C4D     		ldr	r5, .L62
 680 000c 0021     		mov	r1, #0
 681 000e 6A69     		ldr	r2, [r5, #20]
 682 0010 AB69     		ldr	r3, [r5, #24]
 683 0012 9A42     		cmp	r2, r3
 684 0014 00D1     		bne	.LCB525
 685 0016 06E1     		b	.L60	@long jump
 686              	.LCB525:
 687              	.L41:
 688              		.loc 1 182 0 is_stmt 0 discriminator 4
 689 0018 0120     		mov	r0, #1
 690 001a FFF7FEFF 		bl	_test_assert
 691              	.LVL71:
 692 001e 0028     		cmp	r0, #0
 693 0020 00D0     		beq	.LCB531
 694 0022 FBE0     		b	.L59	@long jump
 695              	.LCB531:
 696              	.LBB12:
 697              	.LBB13:
 698              		.loc 1 182 0
 699 0024 FFF7FEFF 		bl	dbg_check_unlock
 700              	.LVL72:
 701              	@ 182 "../../test/testqueues.c" 1
 702 0028 62B6     		cpsie   i
 703              	@ 0 "" 2
 704              	.LVL73:
 705              		.code	16
 706 002a 4124     		mov	r4, #65
 707              	.LVL74:
 708              	.L45:
 709              		.loc 1 186 0 is_stmt 1
 710 002c 211C     		mov	r1, r4
 711 002e 0122     		mov	r2, #1
 712 0030 0134     		add	r4, r4, #1
 713 0032 281C     		mov	r0, r5
 714 0034 5242     		neg	r2, r2
 715 0036 E4B2     		uxtb	r4, r4
 716 0038 FFF7FEFF 		bl	chOQPutTimeout
 717              	.LVL75:
 718              		.loc 1 185 0
 719 003c 452C     		cmp	r4, #69
 720 003e F5D1     		bne	.L45
 721              		.loc 1 187 0
 722              	@ 187 "../../test/testqueues.c" 1
 723 0040 72B6     		cpsid   i
 724              	@ 0 "" 2
 725              		.code	16
 726 0042 FFF7FEFF 		bl	dbg_check_lock
 727              	.LVL76:
 728 0046 AA68     		ldr	r2, [r5, #8]
 729 0048 0220     		mov	r0, #2
 730 004a 5142     		neg	r1, r2
 731 004c 5141     		adc	r1, r1, r2
ARM GAS  /var/folders/qh/xwg3v3kj02qbxczjpdb8lzfr0000gn/T//ccSPuUNF.s 			page 14


 732 004e C9B2     		uxtb	r1, r1
 733 0050 FFF7FEFF 		bl	_test_assert
 734              	.LVL77:
 735 0054 071E     		sub	r7, r0, #0
 736 0056 00D0     		beq	.LCB565
 737 0058 E0E0     		b	.L59	@long jump
 738              	.LCB565:
 739 005a FFF7FEFF 		bl	dbg_check_unlock
 740              	.LVL78:
 741              	@ 187 "../../test/testqueues.c" 1
 742 005e 62B6     		cpsie   i
 743              	@ 0 "" 2
 744              	.LVL79:
 745              		.code	16
 746 0060 0424     		mov	r4, #4
 747              	.LVL80:
 748              	.L48:
 749              	.LBB14:
 750              		.loc 1 193 0
 751              	@ 193 "../../test/testqueues.c" 1
 752 0062 72B6     		cpsid   i
 753              	@ 0 "" 2
 754              		.code	16
 755 0064 FFF7FEFF 		bl	dbg_check_lock
 756              	.LVL81:
 757              		.loc 1 194 0
 758 0068 281C     		mov	r0, r5
 759 006a FFF7FEFF 		bl	chOQGetI
 760              	.LVL82:
 761 006e 061C     		mov	r6, r0
 762              	.LVL83:
 763              		.loc 1 195 0
 764 0070 FFF7FEFF 		bl	dbg_check_unlock
 765              	.LVL84:
 766              	@ 195 "../../test/testqueues.c" 1
 767 0074 62B6     		cpsie   i
 768              	@ 0 "" 2
 769              		.loc 1 196 0
 770              		.code	16
 771 0076 F0B2     		uxtb	r0, r6
 772 0078 013C     		sub	r4, r4, #1
 773              	.LVL85:
 774 007a FFF7FEFF 		bl	test_emit_token
 775              	.LVL86:
 776              	.LBE14:
 777              		.loc 1 190 0
 778 007e 002C     		cmp	r4, #0
 779 0080 EFD1     		bne	.L48
 780              		.loc 1 198 0
 781              	@ 198 "../../test/testqueues.c" 1
 782 0082 72B6     		cpsid   i
 783              	@ 0 "" 2
 784              		.code	16
 785 0084 FFF7FEFF 		bl	dbg_check_lock
 786              	.LVL87:
 787 0088 6B69     		ldr	r3, [r5, #20]
 788 008a AA69     		ldr	r2, [r5, #24]
ARM GAS  /var/folders/qh/xwg3v3kj02qbxczjpdb8lzfr0000gn/T//ccSPuUNF.s 			page 15


 789 008c 9342     		cmp	r3, r2
 790 008e 00D1     		bne	.LCB605
 791 0090 CEE0     		b	.L61	@long jump
 792              	.LCB605:
 793              	.L49:
 794 0092 0320     		mov	r0, #3
 795 0094 391C     		mov	r1, r7
 796 0096 FFF7FEFF 		bl	_test_assert
 797              	.LVL88:
 798 009a 0028     		cmp	r0, #0
 799 009c 00D0     		beq	.LCB612
 800 009e BDE0     		b	.L59	@long jump
 801              	.LCB612:
 802 00a0 FFF7FEFF 		bl	dbg_check_unlock
 803              	.LVL89:
 804              	@ 198 "../../test/testqueues.c" 1
 805 00a4 62B6     		cpsie   i
 806              	@ 0 "" 2
 807              		.loc 1 199 0
 808              		.code	16
 809 00a6 0420     		mov	r0, #4
 810 00a8 6549     		ldr	r1, .L62+4
 811 00aa FFF7FEFF 		bl	_test_assert_sequence
 812              	.LVL90:
 813 00ae 0028     		cmp	r0, #0
 814 00b0 00D0     		beq	.LCB621
 815 00b2 B6E0     		b	.L40	@long jump
 816              	.LCB621:
 817              		.loc 1 200 0
 818              	@ 200 "../../test/testqueues.c" 1
 819 00b4 72B6     		cpsid   i
 820              	@ 0 "" 2
 821              		.code	16
 822 00b6 FFF7FEFF 		bl	dbg_check_lock
 823              	.LVL91:
 824 00ba 281C     		mov	r0, r5
 825 00bc FFF7FEFF 		bl	chOQGetI
 826              	.LVL92:
 827 00c0 C11C     		add	r1, r0, #3
 828 00c2 4B42     		neg	r3, r1
 829 00c4 5941     		adc	r1, r1, r3
 830 00c6 C9B2     		uxtb	r1, r1
 831 00c8 0520     		mov	r0, #5
 832 00ca FFF7FEFF 		bl	_test_assert
 833              	.LVL93:
 834 00ce 0028     		cmp	r0, #0
 835 00d0 00D0     		beq	.LCB635
 836 00d2 A3E0     		b	.L59	@long jump
 837              	.LCB635:
 838 00d4 FFF7FEFF 		bl	dbg_check_unlock
 839              	.LVL94:
 840              	@ 200 "../../test/testqueues.c" 1
 841 00d8 62B6     		cpsie   i
 842              	@ 0 "" 2
 843              		.loc 1 203 0
 844              		.code	16
 845 00da 5A4C     		ldr	r4, .L62+8
ARM GAS  /var/folders/qh/xwg3v3kj02qbxczjpdb8lzfr0000gn/T//ccSPuUNF.s 			page 16


 846 00dc 281C     		mov	r0, r5
 847 00de 6368     		ldr	r3, [r4, #4]
 848 00e0 0822     		mov	r2, #8
 849 00e2 191C     		mov	r1, r3
 850 00e4 0393     		str	r3, [sp, #12]
 851 00e6 0023     		mov	r3, #0
 852 00e8 FFF7FEFF 		bl	chOQWriteTimeout
 853              	.LVL95:
 854              		.loc 1 204 0
 855 00ec 011F     		sub	r1, r0, #4
 856 00ee 4B42     		neg	r3, r1
 857 00f0 5941     		adc	r1, r1, r3
 858 00f2 C9B2     		uxtb	r1, r1
 859 00f4 0620     		mov	r0, #6
 860              	.LVL96:
 861 00f6 FFF7FEFF 		bl	_test_assert
 862              	.LVL97:
 863 00fa 0028     		cmp	r0, #0
 864 00fc 00D0     		beq	.LCB657
 865 00fe 90E0     		b	.L40	@long jump
 866              	.LCB657:
 867              		.loc 1 205 0
 868              	@ 205 "../../test/testqueues.c" 1
 869 0100 72B6     		cpsid   i
 870              	@ 0 "" 2
 871              		.code	16
 872 0102 FFF7FEFF 		bl	dbg_check_lock
 873              	.LVL98:
 874 0106 AA68     		ldr	r2, [r5, #8]
 875 0108 0720     		mov	r0, #7
 876 010a 5142     		neg	r1, r2
 877 010c 5141     		adc	r1, r1, r2
 878 010e C9B2     		uxtb	r1, r1
 879 0110 FFF7FEFF 		bl	_test_assert
 880              	.LVL99:
 881 0114 0028     		cmp	r0, #0
 882 0116 00D0     		beq	.LCB669
 883 0118 80E0     		b	.L59	@long jump
 884              	.LCB669:
 885 011a FFF7FEFF 		bl	dbg_check_unlock
 886              	.LVL100:
 887              	@ 205 "../../test/testqueues.c" 1
 888 011e 62B6     		cpsie   i
 889              	@ 0 "" 2
 890              		.loc 1 206 0
 891              		.code	16
 892 0120 2368     		ldr	r3, [r4]
 893 0122 9821     		mov	r1, #152
 894 0124 0393     		str	r3, [sp, #12]
 895 0126 484B     		ldr	r3, .L62+12
 896 0128 0398     		ldr	r0, [sp, #12]
 897 012a 9B69     		ldr	r3, [r3, #24]
 898 012c 4900     		lsl	r1, r1, #1
 899 012e 9A68     		ldr	r2, [r3, #8]
 900 0130 0023     		mov	r3, #0
 901 0132 0093     		str	r3, [sp]
 902 0134 0132     		add	r2, r2, #1
ARM GAS  /var/folders/qh/xwg3v3kj02qbxczjpdb8lzfr0000gn/T//ccSPuUNF.s 			page 17


 903 0136 454B     		ldr	r3, .L62+16
 904 0138 FFF7FEFF 		bl	chThdCreateStatic
 905              	.LVL101:
 906 013c 444B     		ldr	r3, .L62+20
 907 013e 1860     		str	r0, [r3]
 908              		.loc 1 207 0
 909              	@ 207 "../../test/testqueues.c" 1
 910 0140 72B6     		cpsid   i
 911              	@ 0 "" 2
 912              		.code	16
 913 0142 FFF7FEFF 		bl	dbg_check_lock
 914              	.LVL102:
 915 0146 2A69     		ldr	r2, [r5, #16]
 916 0148 EB68     		ldr	r3, [r5, #12]
 917 014a 0820     		mov	r0, #8
 918 014c D11A     		sub	r1, r2, r3
 919 014e AA68     		ldr	r2, [r5, #8]
 920 0150 891A     		sub	r1, r1, r2
 921 0152 0439     		sub	r1, r1, #4
 922 0154 4B42     		neg	r3, r1
 923 0156 5941     		adc	r1, r1, r3
 924 0158 C9B2     		uxtb	r1, r1
 925 015a FFF7FEFF 		bl	_test_assert
 926              	.LVL103:
 927 015e 0028     		cmp	r0, #0
 928 0160 5CD1     		bne	.L59
 929 0162 FFF7FEFF 		bl	dbg_check_unlock
 930              	.LVL104:
 931              	@ 207 "../../test/testqueues.c" 1
 932 0166 62B6     		cpsie   i
 933              	@ 0 "" 2
 934              		.loc 1 208 0
 935              		.code	16
 936 0168 FFF7FEFF 		bl	test_wait_threads
 937              	.LVL105:
 938              		.loc 1 211 0
 939              	@ 211 "../../test/testqueues.c" 1
 940 016c 72B6     		cpsid   i
 941              	@ 0 "" 2
 942              		.code	16
 943 016e FFF7FEFF 		bl	dbg_check_lock
 944              	.LVL106:
 945              		.loc 1 212 0
 946 0172 281C     		mov	r0, r5
 947 0174 FFF7FEFF 		bl	chOQResetI
 948              	.LVL107:
 949              		.loc 1 213 0
 950 0178 FFF7FEFF 		bl	dbg_check_unlock
 951              	.LVL108:
 952              	@ 213 "../../test/testqueues.c" 1
 953 017c 62B6     		cpsie   i
 954              	@ 0 "" 2
 955              		.loc 1 214 0
 956              	@ 214 "../../test/testqueues.c" 1
 957 017e 72B6     		cpsid   i
 958              	@ 0 "" 2
 959              		.code	16
ARM GAS  /var/folders/qh/xwg3v3kj02qbxczjpdb8lzfr0000gn/T//ccSPuUNF.s 			page 18


 960 0180 FFF7FEFF 		bl	dbg_check_lock
 961              	.LVL109:
 962 0184 2D4D     		ldr	r5, .L62
 963 0186 0920     		mov	r0, #9
 964 0188 2B69     		ldr	r3, [r5, #16]
 965 018a EA68     		ldr	r2, [r5, #12]
 966 018c 991A     		sub	r1, r3, r2
 967 018e AB68     		ldr	r3, [r5, #8]
 968 0190 C91A     		sub	r1, r1, r3
 969 0192 4B42     		neg	r3, r1
 970 0194 5941     		adc	r1, r1, r3
 971 0196 C9B2     		uxtb	r1, r1
 972 0198 FFF7FEFF 		bl	_test_assert
 973              	.LVL110:
 974 019c 0028     		cmp	r0, #0
 975 019e 3DD1     		bne	.L59
 976 01a0 FFF7FEFF 		bl	dbg_check_unlock
 977              	.LVL111:
 978              	@ 214 "../../test/testqueues.c" 1
 979 01a4 62B6     		cpsie   i
 980              	@ 0 "" 2
 981              		.loc 1 217 0
 982              		.code	16
 983 01a6 6468     		ldr	r4, [r4, #4]
 984 01a8 0023     		mov	r3, #0
 985 01aa 211C     		mov	r1, r4
 986 01ac 281C     		mov	r0, r5
 987 01ae 0222     		mov	r2, #2
 988 01b0 FFF7FEFF 		bl	chOQWriteTimeout
 989              	.LVL112:
 990              		.loc 1 218 0
 991 01b4 811E     		sub	r1, r0, #2
 992 01b6 4B42     		neg	r3, r1
 993 01b8 5941     		adc	r1, r1, r3
 994 01ba C9B2     		uxtb	r1, r1
 995 01bc 0A20     		mov	r0, #10
 996              	.LVL113:
 997 01be FFF7FEFF 		bl	_test_assert
 998              	.LVL114:
 999 01c2 0028     		cmp	r0, #0
 1000 01c4 2DD1     		bne	.L40
 1001              		.loc 1 219 0
 1002 01c6 211C     		mov	r1, r4
 1003 01c8 0023     		mov	r3, #0
 1004 01ca 281C     		mov	r0, r5
 1005 01cc 0222     		mov	r2, #2
 1006 01ce FFF7FEFF 		bl	chOQWriteTimeout
 1007              	.LVL115:
 1008              		.loc 1 220 0
 1009 01d2 811E     		sub	r1, r0, #2
 1010 01d4 4B42     		neg	r3, r1
 1011 01d6 5941     		adc	r1, r1, r3
 1012 01d8 C9B2     		uxtb	r1, r1
 1013 01da 0B20     		mov	r0, #11
 1014              	.LVL116:
 1015 01dc FFF7FEFF 		bl	_test_assert
 1016              	.LVL117:
ARM GAS  /var/folders/qh/xwg3v3kj02qbxczjpdb8lzfr0000gn/T//ccSPuUNF.s 			page 19


 1017 01e0 0028     		cmp	r0, #0
 1018 01e2 1ED1     		bne	.L40
 1019              		.loc 1 221 0
 1020              	@ 221 "../../test/testqueues.c" 1
 1021 01e4 72B6     		cpsid   i
 1022              	@ 0 "" 2
 1023              		.code	16
 1024 01e6 FFF7FEFF 		bl	dbg_check_lock
 1025              	.LVL118:
 1026 01ea AA68     		ldr	r2, [r5, #8]
 1027 01ec 0C20     		mov	r0, #12
 1028 01ee 5142     		neg	r1, r2
 1029 01f0 5141     		adc	r1, r1, r2
 1030 01f2 C9B2     		uxtb	r1, r1
 1031 01f4 FFF7FEFF 		bl	_test_assert
 1032              	.LVL119:
 1033 01f8 0028     		cmp	r0, #0
 1034 01fa 0FD1     		bne	.L59
 1035 01fc FFF7FEFF 		bl	dbg_check_unlock
 1036              	.LVL120:
 1037              	@ 221 "../../test/testqueues.c" 1
 1038 0200 62B6     		cpsie   i
 1039              	@ 0 "" 2
 1040              		.loc 1 224 0
 1041              		.code	16
 1042 0202 0021     		mov	r1, #0
 1043 0204 281C     		mov	r0, r5
 1044 0206 0A22     		mov	r2, #10
 1045 0208 FFF7FEFF 		bl	chOQPutTimeout
 1046              	.LVL121:
 1047 020c 411C     		add	r1, r0, #1
 1048 020e 4B42     		neg	r3, r1
 1049 0210 5941     		adc	r1, r1, r3
 1050 0212 C9B2     		uxtb	r1, r1
 1051 0214 0D20     		mov	r0, #13
 1052 0216 FFF7FEFF 		bl	_test_assert
 1053              	.LVL122:
 1054 021a 02E0     		b	.L40
 1055              	.LVL123:
 1056              	.L59:
 1057              		.loc 1 221 0
 1058 021c FFF7FEFF 		bl	dbg_check_unlock
 1059              	.LVL124:
 1060              	@ 221 "../../test/testqueues.c" 1
 1061 0220 62B6     		cpsie   i
 1062              	@ 0 "" 2
 1063              		.code	16
 1064              	.L40:
 1065              	.LBE13:
 1066              	.LBE12:
 1067              		.loc 1 225 0
 1068 0222 05B0     		add	sp, sp, #20
 1069              		@ sp needed
 1070 0224 F0BD     		pop	{r4, r5, r6, r7, pc}
 1071              	.L60:
 1072              		.loc 1 182 0 discriminator 1
 1073 0226 A968     		ldr	r1, [r5, #8]
ARM GAS  /var/folders/qh/xwg3v3kj02qbxczjpdb8lzfr0000gn/T//ccSPuUNF.s 			page 20


 1074 0228 4B1E     		sub	r3, r1, #1
 1075 022a 9941     		sbc	r1, r1, r3
 1076 022c C9B2     		uxtb	r1, r1
 1077 022e F3E6     		b	.L41
 1078              	.LVL125:
 1079              	.L61:
 1080              	.LBB16:
 1081              	.LBB15:
 1082              		.loc 1 198 0
 1083 0230 AF68     		ldr	r7, [r5, #8]
 1084 0232 7B1E     		sub	r3, r7, #1
 1085 0234 9F41     		sbc	r7, r7, r3
 1086 0236 FFB2     		uxtb	r7, r7
 1087 0238 2BE7     		b	.L49
 1088              	.L63:
 1089 023a C046     		.align	2
 1090              	.L62:
 1091 023c 00000000 		.word	.LANCHOR1
 1092 0240 00000000 		.word	.LC9
 1093 0244 00000000 		.word	wa
 1094 0248 00000000 		.word	rlist
 1095 024c 00000000 		.word	thread2
 1096 0250 00000000 		.word	threads
 1097              	.LBE15:
 1098              	.LBE16:
 1099              		.cfi_endproc
 1100              	.LFE13:
 1101              		.size	queues2_execute, .-queues2_execute
 1102              		.global	patternqueues
 1103              		.global	testqueues2
 1104              		.global	testqueues1
 1105 0254 C046C046 		.section	.rodata.testqueues1,"a",%progbits
 1105      C046C046 
 1105      C046C046 
 1106              		.align	2
 1107              		.type	testqueues1, %object
 1108              		.size	testqueues1, 16
 1109              	testqueues1:
 1110 0000 20000000 		.word	.LC22
 1111 0004 00000000 		.word	queues1_setup
 1112 0008 00000000 		.word	0
 1113 000c 00000000 		.word	queues1_execute
 1114              		.section	.rodata.testqueues2,"a",%progbits
 1115              		.align	2
 1116              		.type	testqueues2, %object
 1117              		.size	testqueues2, 16
 1118              	testqueues2:
 1119 0000 08000000 		.word	.LC21
 1120 0004 00000000 		.word	queues2_setup
 1121 0008 00000000 		.word	0
 1122 000c 00000000 		.word	queues2_execute
 1123              		.section	.rodata.str1.4,"aMS",%progbits,1
 1124              		.align	2
 1125              	.LC9:
 1126 0000 41424344 		.ascii	"ABCD\000"
 1126      00
 1127 0005 000000   		.space	3
ARM GAS  /var/folders/qh/xwg3v3kj02qbxczjpdb8lzfr0000gn/T//ccSPuUNF.s 			page 21


 1128              	.LC21:
 1129 0008 51756575 		.ascii	"Queues, output queues\000"
 1129      65732C20 
 1129      6F757470 
 1129      75742071 
 1129      75657565 
 1130 001e 0000     		.space	2
 1131              	.LC22:
 1132 0020 51756575 		.ascii	"Queues, input queues\000"
 1132      65732C20 
 1132      696E7075 
 1132      74207175 
 1132      65756573 
 1133 0035 000000   		.section	.rodata.patternqueues,"a",%progbits
 1134              		.align	2
 1135              		.type	patternqueues, %object
 1136              		.size	patternqueues, 12
 1137              	patternqueues:
 1138 0000 00000000 		.word	testqueues1
 1139 0004 00000000 		.word	testqueues2
 1140 0008 00000000 		.word	0
 1141              		.section	.data.oq,"aw",%progbits
 1142              		.align	2
 1143              		.set	.LANCHOR1,. + 0
 1144              		.type	oq, %object
 1145              		.size	oq, 36
 1146              	oq:
 1147 0000 00000000 		.word	oq
 1148 0004 00000000 		.word	oq
 1149 0008 04000000 		.word	4
 1150 000c 30010000 		.word	test+304
 1151 0010 34010000 		.word	test+308
 1152 0014 30010000 		.word	test+304
 1153 0018 30010000 		.word	test+304
 1154 001c 00000000 		.word	notify
 1155 0020 00000000 		.word	0
 1156              		.section	.data.iq,"aw",%progbits
 1157              		.align	2
 1158              		.set	.LANCHOR0,. + 0
 1159              		.type	iq, %object
 1160              		.size	iq, 36
 1161              	iq:
 1162 0000 00000000 		.word	iq
 1163 0004 00000000 		.word	iq
 1164 0008 00000000 		.word	0
 1165 000c 00000000 		.word	test
 1166 0010 04000000 		.word	test+4
 1167 0014 00000000 		.word	test
 1168 0018 00000000 		.word	test
 1169 001c 00000000 		.word	notify
 1170 0020 00000000 		.word	0
 1171              		.text
 1172              	.Letext0:
 1173              		.file 2 "/usr/local/Cellar/gcc-arm-none-eabi-48/20131218/lib/gcc/arm-none-eabi/4.8.3/include/stdde
 1174              		.file 3 "/usr/local/Cellar/gcc-arm-none-eabi-48/20131218/arm-none-eabi/include/stdint.h"
 1175              		.file 4 "../../os/ports/GCC/ARMCMx/chtypes.h"
 1176              		.file 5 "../../os/kernel/include/chlists.h"
ARM GAS  /var/folders/qh/xwg3v3kj02qbxczjpdb8lzfr0000gn/T//ccSPuUNF.s 			page 22


 1177              		.file 6 "../../os/kernel/include/chthreads.h"
 1178              		.file 7 "../../os/ports/GCC/ARMCMx/chcore_v6m.h"
 1179              		.file 8 "../../os/kernel/include/chschd.h"
 1180              		.file 9 "../../os/kernel/include/chmtx.h"
 1181              		.file 10 "../../os/kernel/include/chqueues.h"
 1182              		.file 11 "../../test/test.h"
 1183              		.file 12 "../../os/kernel/include/chdebug.h"
 1184              		.section	.debug_info,"",%progbits
 1185              	.Ldebug_info0:
 1186 0000 43100000 		.4byte	0x1043
 1187 0004 0400     		.2byte	0x4
 1188 0006 00000000 		.4byte	.Ldebug_abbrev0
 1189 000a 04       		.byte	0x4
 1190 000b 01       		.uleb128 0x1
 1191 000c B3020000 		.4byte	.LASF115
 1192 0010 01       		.byte	0x1
 1193 0011 5F040000 		.4byte	.LASF116
 1194 0015 96010000 		.4byte	.LASF117
 1195 0019 30000000 		.4byte	.Ldebug_ranges0+0x30
 1196 001d 00000000 		.4byte	0
 1197 0021 00000000 		.4byte	.Ldebug_line0
 1198 0025 02       		.uleb128 0x2
 1199 0026 04       		.byte	0x4
 1200 0027 05       		.byte	0x5
 1201 0028 696E7400 		.ascii	"int\000"
 1202 002c 03       		.uleb128 0x3
 1203 002d 1D000000 		.4byte	.LASF2
 1204 0031 02       		.byte	0x2
 1205 0032 D4       		.byte	0xd4
 1206 0033 37000000 		.4byte	0x37
 1207 0037 04       		.uleb128 0x4
 1208 0038 04       		.byte	0x4
 1209 0039 07       		.byte	0x7
 1210 003a 5E010000 		.4byte	.LASF0
 1211 003e 04       		.uleb128 0x4
 1212 003f 01       		.byte	0x1
 1213 0040 06       		.byte	0x6
 1214 0041 D3000000 		.4byte	.LASF1
 1215 0045 03       		.uleb128 0x3
 1216 0046 6D050000 		.4byte	.LASF3
 1217 004a 03       		.byte	0x3
 1218 004b 2A       		.byte	0x2a
 1219 004c 50000000 		.4byte	0x50
 1220 0050 04       		.uleb128 0x4
 1221 0051 01       		.byte	0x1
 1222 0052 08       		.byte	0x8
 1223 0053 51040000 		.4byte	.LASF4
 1224 0057 04       		.uleb128 0x4
 1225 0058 02       		.byte	0x2
 1226 0059 05       		.byte	0x5
 1227 005a 81040000 		.4byte	.LASF5
 1228 005e 04       		.uleb128 0x4
 1229 005f 02       		.byte	0x2
 1230 0060 07       		.byte	0x7
 1231 0061 D9010000 		.4byte	.LASF6
 1232 0065 03       		.uleb128 0x3
 1233 0066 49040000 		.4byte	.LASF7
ARM GAS  /var/folders/qh/xwg3v3kj02qbxczjpdb8lzfr0000gn/T//ccSPuUNF.s 			page 23


 1234 006a 03       		.byte	0x3
 1235 006b 4F       		.byte	0x4f
 1236 006c 70000000 		.4byte	0x70
 1237 0070 04       		.uleb128 0x4
 1238 0071 04       		.byte	0x4
 1239 0072 05       		.byte	0x5
 1240 0073 10010000 		.4byte	.LASF8
 1241 0077 03       		.uleb128 0x3
 1242 0078 DD040000 		.4byte	.LASF9
 1243 007c 03       		.byte	0x3
 1244 007d 50       		.byte	0x50
 1245 007e 82000000 		.4byte	0x82
 1246 0082 04       		.uleb128 0x4
 1247 0083 04       		.byte	0x4
 1248 0084 07       		.byte	0x7
 1249 0085 76010000 		.4byte	.LASF10
 1250 0089 04       		.uleb128 0x4
 1251 008a 08       		.byte	0x8
 1252 008b 05       		.byte	0x5
 1253 008c C5000000 		.4byte	.LASF11
 1254 0090 03       		.uleb128 0x3
 1255 0091 34000000 		.4byte	.LASF12
 1256 0095 03       		.byte	0x3
 1257 0096 78       		.byte	0x78
 1258 0097 9B000000 		.4byte	0x9b
 1259 009b 04       		.uleb128 0x4
 1260 009c 08       		.byte	0x8
 1261 009d 07       		.byte	0x7
 1262 009e 67000000 		.4byte	.LASF13
 1263 00a2 03       		.uleb128 0x3
 1264 00a3 E7000000 		.4byte	.LASF14
 1265 00a7 04       		.byte	0x4
 1266 00a8 24       		.byte	0x24
 1267 00a9 AD000000 		.4byte	0xad
 1268 00ad 04       		.uleb128 0x4
 1269 00ae 01       		.byte	0x1
 1270 00af 02       		.byte	0x2
 1271 00b0 43040000 		.4byte	.LASF15
 1272 00b4 03       		.uleb128 0x3
 1273 00b5 0E020000 		.4byte	.LASF16
 1274 00b9 04       		.byte	0x4
 1275 00ba 25       		.byte	0x25
 1276 00bb 45000000 		.4byte	0x45
 1277 00bf 03       		.uleb128 0x3
 1278 00c0 19010000 		.4byte	.LASF17
 1279 00c4 04       		.byte	0x4
 1280 00c5 26       		.byte	0x26
 1281 00c6 45000000 		.4byte	0x45
 1282 00ca 03       		.uleb128 0x3
 1283 00cb 12040000 		.4byte	.LASF18
 1284 00cf 04       		.byte	0x4
 1285 00d0 27       		.byte	0x27
 1286 00d1 45000000 		.4byte	0x45
 1287 00d5 03       		.uleb128 0x3
 1288 00d6 06010000 		.4byte	.LASF19
 1289 00da 04       		.byte	0x4
 1290 00db 28       		.byte	0x28
ARM GAS  /var/folders/qh/xwg3v3kj02qbxczjpdb8lzfr0000gn/T//ccSPuUNF.s 			page 24


 1291 00dc 45000000 		.4byte	0x45
 1292 00e0 03       		.uleb128 0x3
 1293 00e1 33040000 		.4byte	.LASF20
 1294 00e5 04       		.byte	0x4
 1295 00e6 29       		.byte	0x29
 1296 00e7 77000000 		.4byte	0x77
 1297 00eb 03       		.uleb128 0x3
 1298 00ec 08020000 		.4byte	.LASF21
 1299 00f0 04       		.byte	0x4
 1300 00f1 2A       		.byte	0x2a
 1301 00f2 65000000 		.4byte	0x65
 1302 00f6 03       		.uleb128 0x3
 1303 00f7 22020000 		.4byte	.LASF22
 1304 00fb 04       		.byte	0x4
 1305 00fc 2C       		.byte	0x2c
 1306 00fd 77000000 		.4byte	0x77
 1307 0101 03       		.uleb128 0x3
 1308 0102 07050000 		.4byte	.LASF23
 1309 0106 04       		.byte	0x4
 1310 0107 2E       		.byte	0x2e
 1311 0108 77000000 		.4byte	0x77
 1312 010c 03       		.uleb128 0x3
 1313 010d C2040000 		.4byte	.LASF24
 1314 0111 05       		.byte	0x5
 1315 0112 23       		.byte	0x23
 1316 0113 17010000 		.4byte	0x117
 1317 0117 05       		.uleb128 0x5
 1318 0118 C2040000 		.4byte	.LASF24
 1319 011c 48       		.byte	0x48
 1320 011d 06       		.byte	0x6
 1321 011e 57       		.byte	0x57
 1322 011f 14020000 		.4byte	0x214
 1323 0123 06       		.uleb128 0x6
 1324 0124 B3040000 		.4byte	.LASF25
 1325 0128 06       		.byte	0x6
 1326 0129 58       		.byte	0x58
 1327 012a 35020000 		.4byte	0x235
 1328 012e 00       		.byte	0
 1329 012f 06       		.uleb128 0x6
 1330 0130 24040000 		.4byte	.LASF26
 1331 0134 06       		.byte	0x6
 1332 0135 5A       		.byte	0x5a
 1333 0136 35020000 		.4byte	0x235
 1334 013a 04       		.byte	0x4
 1335 013b 06       		.uleb128 0x6
 1336 013c B4000000 		.4byte	.LASF27
 1337 0140 06       		.byte	0x6
 1338 0141 5C       		.byte	0x5c
 1339 0142 E0000000 		.4byte	0xe0
 1340 0146 08       		.byte	0x8
 1341 0147 06       		.uleb128 0x6
 1342 0148 9F050000 		.4byte	.LASF28
 1343 014c 06       		.byte	0x6
 1344 014d 5D       		.byte	0x5d
 1345 014e F0020000 		.4byte	0x2f0
 1346 0152 0C       		.byte	0xc
 1347 0153 06       		.uleb128 0x6
ARM GAS  /var/folders/qh/xwg3v3kj02qbxczjpdb8lzfr0000gn/T//ccSPuUNF.s 			page 25


 1348 0154 3C010000 		.4byte	.LASF29
 1349 0158 06       		.byte	0x6
 1350 0159 5F       		.byte	0x5f
 1351 015a 35020000 		.4byte	0x235
 1352 015e 10       		.byte	0x10
 1353 015f 06       		.uleb128 0x6
 1354 0160 AB030000 		.4byte	.LASF30
 1355 0164 06       		.byte	0x6
 1356 0165 60       		.byte	0x60
 1357 0166 35020000 		.4byte	0x235
 1358 016a 14       		.byte	0x14
 1359 016b 06       		.uleb128 0x6
 1360 016c 7C050000 		.4byte	.LASF31
 1361 0170 06       		.byte	0x6
 1362 0171 67       		.byte	0x67
 1363 0172 EE030000 		.4byte	0x3ee
 1364 0176 18       		.byte	0x18
 1365 0177 06       		.uleb128 0x6
 1366 0178 8B040000 		.4byte	.LASF32
 1367 017c 06       		.byte	0x6
 1368 017d 72       		.byte	0x72
 1369 017e BF000000 		.4byte	0xbf
 1370 0182 1C       		.byte	0x1c
 1371 0183 06       		.uleb128 0x6
 1372 0184 BA040000 		.4byte	.LASF33
 1373 0188 06       		.byte	0x6
 1374 0189 76       		.byte	0x76
 1375 018a B4000000 		.4byte	0xb4
 1376 018e 1D       		.byte	0x1d
 1377 018f 06       		.uleb128 0x6
 1378 0190 4D050000 		.4byte	.LASF34
 1379 0194 06       		.byte	0x6
 1380 0195 7B       		.byte	0x7b
 1381 0196 CA000000 		.4byte	0xca
 1382 019a 1E       		.byte	0x1e
 1383 019b 06       		.uleb128 0x6
 1384 019c 93040000 		.4byte	.LASF35
 1385 01a0 06       		.byte	0x6
 1386 01a1 81       		.byte	0x81
 1387 01a2 D5000000 		.4byte	0xd5
 1388 01a6 1F       		.byte	0x1f
 1389 01a7 06       		.uleb128 0x6
 1390 01a8 2E050000 		.4byte	.LASF36
 1391 01ac 06       		.byte	0x6
 1392 01ad 88       		.byte	0x88
 1393 01ae 16030000 		.4byte	0x316
 1394 01b2 20       		.byte	0x20
 1395 01b3 07       		.uleb128 0x7
 1396 01b4 705F7500 		.ascii	"p_u\000"
 1397 01b8 06       		.byte	0x6
 1398 01b9 AD       		.byte	0xad
 1399 01ba B9030000 		.4byte	0x3b9
 1400 01be 24       		.byte	0x24
 1401 01bf 06       		.uleb128 0x6
 1402 01c0 A5050000 		.4byte	.LASF37
 1403 01c4 06       		.byte	0x6
 1404 01c5 B2       		.byte	0xb2
ARM GAS  /var/folders/qh/xwg3v3kj02qbxczjpdb8lzfr0000gn/T//ccSPuUNF.s 			page 26


 1405 01c6 5B020000 		.4byte	0x25b
 1406 01ca 28       		.byte	0x28
 1407 01cb 06       		.uleb128 0x6
 1408 01cc 3C050000 		.4byte	.LASF38
 1409 01d0 06       		.byte	0x6
 1410 01d1 B8       		.byte	0xb8
 1411 01d2 3B020000 		.4byte	0x23b
 1412 01d6 2C       		.byte	0x2c
 1413 01d7 06       		.uleb128 0x6
 1414 01d8 17000000 		.4byte	.LASF39
 1415 01dc 06       		.byte	0x6
 1416 01dd BC       		.byte	0xbc
 1417 01de EB000000 		.4byte	0xeb
 1418 01e2 34       		.byte	0x34
 1419 01e3 06       		.uleb128 0x6
 1420 01e4 D2040000 		.4byte	.LASF40
 1421 01e8 06       		.byte	0x6
 1422 01e9 C2       		.byte	0xc2
 1423 01ea F6000000 		.4byte	0xf6
 1424 01ee 38       		.byte	0x38
 1425 01ef 06       		.uleb128 0x6
 1426 01f0 77040000 		.4byte	.LASF41
 1427 01f4 06       		.byte	0x6
 1428 01f5 C9       		.byte	0xc9
 1429 01f6 00040000 		.4byte	0x400
 1430 01fa 3C       		.byte	0x3c
 1431 01fb 06       		.uleb128 0x6
 1432 01fc 11050000 		.4byte	.LASF42
 1433 0200 06       		.byte	0x6
 1434 0201 CD       		.byte	0xcd
 1435 0202 E0000000 		.4byte	0xe0
 1436 0206 40       		.byte	0x40
 1437 0207 06       		.uleb128 0x6
 1438 0208 DF000000 		.4byte	.LASF43
 1439 020c 06       		.byte	0x6
 1440 020d D3       		.byte	0xd3
 1441 020e 71020000 		.4byte	0x271
 1442 0212 44       		.byte	0x44
 1443 0213 00       		.byte	0
 1444 0214 08       		.uleb128 0x8
 1445 0215 08       		.byte	0x8
 1446 0216 05       		.byte	0x5
 1447 0217 5A       		.byte	0x5a
 1448 0218 35020000 		.4byte	0x235
 1449 021c 06       		.uleb128 0x6
 1450 021d B3040000 		.4byte	.LASF25
 1451 0221 05       		.byte	0x5
 1452 0222 5B       		.byte	0x5b
 1453 0223 35020000 		.4byte	0x235
 1454 0227 00       		.byte	0
 1455 0228 06       		.uleb128 0x6
 1456 0229 24040000 		.4byte	.LASF26
 1457 022d 05       		.byte	0x5
 1458 022e 5D       		.byte	0x5d
 1459 022f 35020000 		.4byte	0x235
 1460 0233 04       		.byte	0x4
 1461 0234 00       		.byte	0
ARM GAS  /var/folders/qh/xwg3v3kj02qbxczjpdb8lzfr0000gn/T//ccSPuUNF.s 			page 27


 1462 0235 09       		.uleb128 0x9
 1463 0236 04       		.byte	0x4
 1464 0237 0C010000 		.4byte	0x10c
 1465 023b 03       		.uleb128 0x3
 1466 023c C9030000 		.4byte	.LASF44
 1467 0240 05       		.byte	0x5
 1468 0241 5F       		.byte	0x5f
 1469 0242 14020000 		.4byte	0x214
 1470 0246 08       		.uleb128 0x8
 1471 0247 04       		.byte	0x4
 1472 0248 05       		.byte	0x5
 1473 0249 64       		.byte	0x64
 1474 024a 5B020000 		.4byte	0x25b
 1475 024e 06       		.uleb128 0x6
 1476 024f B3040000 		.4byte	.LASF25
 1477 0253 05       		.byte	0x5
 1478 0254 66       		.byte	0x66
 1479 0255 35020000 		.4byte	0x235
 1480 0259 00       		.byte	0
 1481 025a 00       		.byte	0
 1482 025b 03       		.uleb128 0x3
 1483 025c 16020000 		.4byte	.LASF45
 1484 0260 05       		.byte	0x5
 1485 0261 69       		.byte	0x69
 1486 0262 46020000 		.4byte	0x246
 1487 0266 03       		.uleb128 0x3
 1488 0267 4C010000 		.4byte	.LASF46
 1489 026b 07       		.byte	0x7
 1490 026c A0       		.byte	0xa0
 1491 026d 71020000 		.4byte	0x271
 1492 0271 0A       		.uleb128 0xa
 1493 0272 04       		.byte	0x4
 1494 0273 03       		.uleb128 0x3
 1495 0274 4C020000 		.4byte	.LASF47
 1496 0278 07       		.byte	0x7
 1497 0279 A6       		.byte	0xa6
 1498 027a 90000000 		.4byte	0x90
 1499 027e 05       		.uleb128 0x5
 1500 027f 35050000 		.4byte	.LASF48
 1501 0283 24       		.byte	0x24
 1502 0284 07       		.byte	0x7
 1503 0285 B3       		.byte	0xb3
 1504 0286 F0020000 		.4byte	0x2f0
 1505 028a 07       		.uleb128 0x7
 1506 028b 723800   		.ascii	"r8\000"
 1507 028e 07       		.byte	0x7
 1508 028f B4       		.byte	0xb4
 1509 0290 66020000 		.4byte	0x266
 1510 0294 00       		.byte	0
 1511 0295 07       		.uleb128 0x7
 1512 0296 723900   		.ascii	"r9\000"
 1513 0299 07       		.byte	0x7
 1514 029a B5       		.byte	0xb5
 1515 029b 66020000 		.4byte	0x266
 1516 029f 04       		.byte	0x4
 1517 02a0 07       		.uleb128 0x7
 1518 02a1 72313000 		.ascii	"r10\000"
ARM GAS  /var/folders/qh/xwg3v3kj02qbxczjpdb8lzfr0000gn/T//ccSPuUNF.s 			page 28


 1519 02a5 07       		.byte	0x7
 1520 02a6 B6       		.byte	0xb6
 1521 02a7 66020000 		.4byte	0x266
 1522 02ab 08       		.byte	0x8
 1523 02ac 07       		.uleb128 0x7
 1524 02ad 72313100 		.ascii	"r11\000"
 1525 02b1 07       		.byte	0x7
 1526 02b2 B7       		.byte	0xb7
 1527 02b3 66020000 		.4byte	0x266
 1528 02b7 0C       		.byte	0xc
 1529 02b8 07       		.uleb128 0x7
 1530 02b9 723400   		.ascii	"r4\000"
 1531 02bc 07       		.byte	0x7
 1532 02bd B8       		.byte	0xb8
 1533 02be 66020000 		.4byte	0x266
 1534 02c2 10       		.byte	0x10
 1535 02c3 07       		.uleb128 0x7
 1536 02c4 723500   		.ascii	"r5\000"
 1537 02c7 07       		.byte	0x7
 1538 02c8 B9       		.byte	0xb9
 1539 02c9 66020000 		.4byte	0x266
 1540 02cd 14       		.byte	0x14
 1541 02ce 07       		.uleb128 0x7
 1542 02cf 723600   		.ascii	"r6\000"
 1543 02d2 07       		.byte	0x7
 1544 02d3 BA       		.byte	0xba
 1545 02d4 66020000 		.4byte	0x266
 1546 02d8 18       		.byte	0x18
 1547 02d9 07       		.uleb128 0x7
 1548 02da 723700   		.ascii	"r7\000"
 1549 02dd 07       		.byte	0x7
 1550 02de BB       		.byte	0xbb
 1551 02df 66020000 		.4byte	0x266
 1552 02e3 1C       		.byte	0x1c
 1553 02e4 07       		.uleb128 0x7
 1554 02e5 6C7200   		.ascii	"lr\000"
 1555 02e8 07       		.byte	0x7
 1556 02e9 BC       		.byte	0xbc
 1557 02ea 66020000 		.4byte	0x266
 1558 02ee 20       		.byte	0x20
 1559 02ef 00       		.byte	0
 1560 02f0 05       		.uleb128 0x5
 1561 02f1 D1010000 		.4byte	.LASF49
 1562 02f5 04       		.byte	0x4
 1563 02f6 07       		.byte	0x7
 1564 02f7 C6       		.byte	0xc6
 1565 02f8 09030000 		.4byte	0x309
 1566 02fc 07       		.uleb128 0x7
 1567 02fd 72313300 		.ascii	"r13\000"
 1568 0301 07       		.byte	0x7
 1569 0302 C7       		.byte	0xc7
 1570 0303 09030000 		.4byte	0x309
 1571 0307 00       		.byte	0
 1572 0308 00       		.byte	0
 1573 0309 09       		.uleb128 0x9
 1574 030a 04       		.byte	0x4
 1575 030b 7E020000 		.4byte	0x27e
ARM GAS  /var/folders/qh/xwg3v3kj02qbxczjpdb8lzfr0000gn/T//ccSPuUNF.s 			page 29


 1576 030f 04       		.uleb128 0x4
 1577 0310 04       		.byte	0x4
 1578 0311 07       		.byte	0x7
 1579 0312 91020000 		.4byte	.LASF50
 1580 0316 0B       		.uleb128 0xb
 1581 0317 01010000 		.4byte	0x101
 1582 031b 08       		.uleb128 0x8
 1583 031c 1C       		.byte	0x1c
 1584 031d 08       		.byte	0x8
 1585 031e 57       		.byte	0x57
 1586 031f 6C030000 		.4byte	0x36c
 1587 0323 06       		.uleb128 0x6
 1588 0324 E6040000 		.4byte	.LASF51
 1589 0328 08       		.byte	0x8
 1590 0329 58       		.byte	0x58
 1591 032a 3B020000 		.4byte	0x23b
 1592 032e 00       		.byte	0
 1593 032f 06       		.uleb128 0x6
 1594 0330 A5040000 		.4byte	.LASF52
 1595 0334 08       		.byte	0x8
 1596 0335 59       		.byte	0x59
 1597 0336 E0000000 		.4byte	0xe0
 1598 033a 08       		.byte	0x8
 1599 033b 06       		.uleb128 0x6
 1600 033c C3030000 		.4byte	.LASF53
 1601 0340 08       		.byte	0x8
 1602 0341 5B       		.byte	0x5b
 1603 0342 F0020000 		.4byte	0x2f0
 1604 0346 0C       		.byte	0xc
 1605 0347 06       		.uleb128 0x6
 1606 0348 44010000 		.4byte	.LASF54
 1607 034c 08       		.byte	0x8
 1608 034d 5E       		.byte	0x5e
 1609 034e 35020000 		.4byte	0x235
 1610 0352 10       		.byte	0x10
 1611 0353 06       		.uleb128 0x6
 1612 0354 FC030000 		.4byte	.LASF55
 1613 0358 08       		.byte	0x8
 1614 0359 5F       		.byte	0x5f
 1615 035a 35020000 		.4byte	0x235
 1616 035e 14       		.byte	0x14
 1617 035f 06       		.uleb128 0x6
 1618 0360 F2030000 		.4byte	.LASF56
 1619 0364 08       		.byte	0x8
 1620 0365 62       		.byte	0x62
 1621 0366 35020000 		.4byte	0x235
 1622 036a 18       		.byte	0x18
 1623 036b 00       		.byte	0
 1624 036c 03       		.uleb128 0x3
 1625 036d 54050000 		.4byte	.LASF57
 1626 0371 08       		.byte	0x8
 1627 0372 64       		.byte	0x64
 1628 0373 1B030000 		.4byte	0x31b
 1629 0377 05       		.uleb128 0x5
 1630 0378 39020000 		.4byte	.LASF58
 1631 037c 10       		.byte	0x10
 1632 037d 09       		.byte	0x9
ARM GAS  /var/folders/qh/xwg3v3kj02qbxczjpdb8lzfr0000gn/T//ccSPuUNF.s 			page 30


 1633 037e 25       		.byte	0x25
 1634 037f A8030000 		.4byte	0x3a8
 1635 0383 06       		.uleb128 0x6
 1636 0384 EE000000 		.4byte	.LASF59
 1637 0388 09       		.byte	0x9
 1638 0389 26       		.byte	0x26
 1639 038a 3B020000 		.4byte	0x23b
 1640 038e 00       		.byte	0
 1641 038f 06       		.uleb128 0x6
 1642 0390 97050000 		.4byte	.LASF60
 1643 0394 09       		.byte	0x9
 1644 0395 28       		.byte	0x28
 1645 0396 35020000 		.4byte	0x235
 1646 039a 08       		.byte	0x8
 1647 039b 06       		.uleb128 0x6
 1648 039c 00050000 		.4byte	.LASF61
 1649 03a0 09       		.byte	0x9
 1650 03a1 2A       		.byte	0x2a
 1651 03a2 A8030000 		.4byte	0x3a8
 1652 03a6 0C       		.byte	0xc
 1653 03a7 00       		.byte	0
 1654 03a8 09       		.uleb128 0x9
 1655 03a9 04       		.byte	0x4
 1656 03aa 77030000 		.4byte	0x377
 1657 03ae 03       		.uleb128 0x3
 1658 03af 39020000 		.4byte	.LASF58
 1659 03b3 09       		.byte	0x9
 1660 03b4 2C       		.byte	0x2c
 1661 03b5 77030000 		.4byte	0x377
 1662 03b9 0C       		.uleb128 0xc
 1663 03ba 04       		.byte	0x4
 1664 03bb 06       		.byte	0x6
 1665 03bc 8F       		.byte	0x8f
 1666 03bd EE030000 		.4byte	0x3ee
 1667 03c1 0D       		.uleb128 0xd
 1668 03c2 24000000 		.4byte	.LASF62
 1669 03c6 06       		.byte	0x6
 1670 03c7 96       		.byte	0x96
 1671 03c8 EB000000 		.4byte	0xeb
 1672 03cc 0D       		.uleb128 0xd
 1673 03cd 98000000 		.4byte	.LASF63
 1674 03d1 06       		.byte	0x6
 1675 03d2 9D       		.byte	0x9d
 1676 03d3 EB000000 		.4byte	0xeb
 1677 03d7 0D       		.uleb128 0xd
 1678 03d8 75050000 		.4byte	.LASF64
 1679 03dc 06       		.byte	0x6
 1680 03dd A4       		.byte	0xa4
 1681 03de 71020000 		.4byte	0x271
 1682 03e2 0D       		.uleb128 0xd
 1683 03e3 AC040000 		.4byte	.LASF65
 1684 03e7 06       		.byte	0x6
 1685 03e8 AB       		.byte	0xab
 1686 03e9 F6000000 		.4byte	0xf6
 1687 03ed 00       		.byte	0
 1688 03ee 09       		.uleb128 0x9
 1689 03ef 04       		.byte	0x4
ARM GAS  /var/folders/qh/xwg3v3kj02qbxczjpdb8lzfr0000gn/T//ccSPuUNF.s 			page 31


 1690 03f0 F4030000 		.4byte	0x3f4
 1691 03f4 0E       		.uleb128 0xe
 1692 03f5 F9030000 		.4byte	0x3f9
 1693 03f9 04       		.uleb128 0x4
 1694 03fa 01       		.byte	0x1
 1695 03fb 08       		.byte	0x8
 1696 03fc EE040000 		.4byte	.LASF66
 1697 0400 09       		.uleb128 0x9
 1698 0401 04       		.byte	0x4
 1699 0402 AE030000 		.4byte	0x3ae
 1700 0406 03       		.uleb128 0x3
 1701 0407 0F000000 		.4byte	.LASF67
 1702 040b 06       		.byte	0x6
 1703 040c DE       		.byte	0xde
 1704 040d 11040000 		.4byte	0x411
 1705 0411 09       		.uleb128 0x9
 1706 0412 04       		.byte	0x4
 1707 0413 17040000 		.4byte	0x417
 1708 0417 0F       		.uleb128 0xf
 1709 0418 EB000000 		.4byte	0xeb
 1710 041c 26040000 		.4byte	0x426
 1711 0420 10       		.uleb128 0x10
 1712 0421 71020000 		.4byte	0x271
 1713 0425 00       		.byte	0
 1714 0426 03       		.uleb128 0x3
 1715 0427 3F020000 		.4byte	.LASF68
 1716 042b 0A       		.byte	0xa
 1717 042c 30       		.byte	0x30
 1718 042d 31040000 		.4byte	0x431
 1719 0431 05       		.uleb128 0x5
 1720 0432 3F020000 		.4byte	.LASF68
 1721 0436 24       		.byte	0x24
 1722 0437 0A       		.byte	0xa
 1723 0438 3E       		.byte	0x3e
 1724 0439 9E040000 		.4byte	0x49e
 1725 043d 06       		.uleb128 0x6
 1726 043e BB000000 		.4byte	.LASF69
 1727 0442 0A       		.byte	0xa
 1728 0443 3F       		.byte	0x3f
 1729 0444 3B020000 		.4byte	0x23b
 1730 0448 00       		.byte	0
 1731 0449 06       		.uleb128 0x6
 1732 044a 9A020000 		.4byte	.LASF70
 1733 044e 0A       		.byte	0xa
 1734 044f 40       		.byte	0x40
 1735 0450 2C000000 		.4byte	0x2c
 1736 0454 08       		.byte	0x8
 1737 0455 06       		.uleb128 0x6
 1738 0456 2B010000 		.4byte	.LASF71
 1739 045a 0A       		.byte	0xa
 1740 045b 41       		.byte	0x41
 1741 045c C0040000 		.4byte	0x4c0
 1742 0460 0C       		.byte	0xc
 1743 0461 06       		.uleb128 0x6
 1744 0462 47050000 		.4byte	.LASF72
 1745 0466 0A       		.byte	0xa
 1746 0467 42       		.byte	0x42
ARM GAS  /var/folders/qh/xwg3v3kj02qbxczjpdb8lzfr0000gn/T//ccSPuUNF.s 			page 32


 1747 0468 C0040000 		.4byte	0x4c0
 1748 046c 10       		.byte	0x10
 1749 046d 06       		.uleb128 0x6
 1750 046e 34010000 		.4byte	.LASF73
 1751 0472 0A       		.byte	0xa
 1752 0473 44       		.byte	0x44
 1753 0474 C0040000 		.4byte	0x4c0
 1754 0478 14       		.byte	0x14
 1755 0479 06       		.uleb128 0x6
 1756 047a 3B040000 		.4byte	.LASF74
 1757 047e 0A       		.byte	0xa
 1758 047f 45       		.byte	0x45
 1759 0480 C0040000 		.4byte	0x4c0
 1760 0484 18       		.byte	0x18
 1761 0485 06       		.uleb128 0x6
 1762 0486 5E050000 		.4byte	.LASF75
 1763 048a 0A       		.byte	0xa
 1764 048b 46       		.byte	0x46
 1765 048c 9E040000 		.4byte	0x49e
 1766 0490 1C       		.byte	0x1c
 1767 0491 06       		.uleb128 0x6
 1768 0492 90050000 		.4byte	.LASF76
 1769 0496 0A       		.byte	0xa
 1770 0497 47       		.byte	0x47
 1771 0498 71020000 		.4byte	0x271
 1772 049c 20       		.byte	0x20
 1773 049d 00       		.byte	0
 1774 049e 03       		.uleb128 0x3
 1775 049f 1A040000 		.4byte	.LASF77
 1776 04a3 0A       		.byte	0xa
 1777 04a4 33       		.byte	0x33
 1778 04a5 A9040000 		.4byte	0x4a9
 1779 04a9 09       		.uleb128 0x9
 1780 04aa 04       		.byte	0x4
 1781 04ab AF040000 		.4byte	0x4af
 1782 04af 11       		.uleb128 0x11
 1783 04b0 BA040000 		.4byte	0x4ba
 1784 04b4 10       		.uleb128 0x10
 1785 04b5 BA040000 		.4byte	0x4ba
 1786 04b9 00       		.byte	0
 1787 04ba 09       		.uleb128 0x9
 1788 04bb 04       		.byte	0x4
 1789 04bc 26040000 		.4byte	0x426
 1790 04c0 09       		.uleb128 0x9
 1791 04c1 04       		.byte	0x4
 1792 04c2 45000000 		.4byte	0x45
 1793 04c6 03       		.uleb128 0x3
 1794 04c7 2E020000 		.4byte	.LASF78
 1795 04cb 0A       		.byte	0xa
 1796 04cc 7B       		.byte	0x7b
 1797 04cd 26040000 		.4byte	0x426
 1798 04d1 03       		.uleb128 0x3
 1799 04d2 3D000000 		.4byte	.LASF79
 1800 04d6 0A       		.byte	0xa
 1801 04d7 EE       		.byte	0xee
 1802 04d8 26040000 		.4byte	0x426
 1803 04dc 09       		.uleb128 0x9
ARM GAS  /var/folders/qh/xwg3v3kj02qbxczjpdb8lzfr0000gn/T//ccSPuUNF.s 			page 33


 1804 04dd 04       		.byte	0x4
 1805 04de E2040000 		.4byte	0x4e2
 1806 04e2 0E       		.uleb128 0xe
 1807 04e3 45000000 		.4byte	0x45
 1808 04e7 05       		.uleb128 0x5
 1809 04e8 C9040000 		.4byte	.LASF80
 1810 04ec 10       		.byte	0x10
 1811 04ed 0B       		.byte	0xb
 1812 04ee 3B       		.byte	0x3b
 1813 04ef 24050000 		.4byte	0x524
 1814 04f3 06       		.uleb128 0x6
 1815 04f4 91010000 		.4byte	.LASF81
 1816 04f8 0B       		.byte	0xb
 1817 04f9 3C       		.byte	0x3c
 1818 04fa EE030000 		.4byte	0x3ee
 1819 04fe 00       		.byte	0
 1820 04ff 06       		.uleb128 0x6
 1821 0500 D6030000 		.4byte	.LASF82
 1822 0504 0B       		.byte	0xb
 1823 0505 3D       		.byte	0x3d
 1824 0506 25050000 		.4byte	0x525
 1825 050a 04       		.byte	0x4
 1826 050b 06       		.uleb128 0x6
 1827 050c 88010000 		.4byte	.LASF83
 1828 0510 0B       		.byte	0xb
 1829 0511 3E       		.byte	0x3e
 1830 0512 25050000 		.4byte	0x525
 1831 0516 08       		.byte	0x8
 1832 0517 06       		.uleb128 0x6
 1833 0518 2B040000 		.4byte	.LASF84
 1834 051c 0B       		.byte	0xb
 1835 051d 3F       		.byte	0x3f
 1836 051e 25050000 		.4byte	0x525
 1837 0522 0C       		.byte	0xc
 1838 0523 00       		.byte	0
 1839 0524 12       		.uleb128 0x12
 1840 0525 09       		.uleb128 0x9
 1841 0526 04       		.byte	0x4
 1842 0527 24050000 		.4byte	0x524
 1843 052b 13       		.uleb128 0x13
 1844 052c F005     		.2byte	0x5f0
 1845 052e 0B       		.byte	0xb
 1846 052f 44       		.byte	0x44
 1847 0530 70050000 		.4byte	0x570
 1848 0534 07       		.uleb128 0x7
 1849 0535 543000   		.ascii	"T0\000"
 1850 0538 0B       		.byte	0xb
 1851 0539 45       		.byte	0x45
 1852 053a 70050000 		.4byte	0x570
 1853 053e 00       		.byte	0
 1854 053f 14       		.uleb128 0x14
 1855 0540 543100   		.ascii	"T1\000"
 1856 0543 0B       		.byte	0xb
 1857 0544 46       		.byte	0x46
 1858 0545 70050000 		.4byte	0x570
 1859 0549 3001     		.2byte	0x130
 1860 054b 14       		.uleb128 0x14
ARM GAS  /var/folders/qh/xwg3v3kj02qbxczjpdb8lzfr0000gn/T//ccSPuUNF.s 			page 34


 1861 054c 543200   		.ascii	"T2\000"
 1862 054f 0B       		.byte	0xb
 1863 0550 47       		.byte	0x47
 1864 0551 70050000 		.4byte	0x570
 1865 0555 6002     		.2byte	0x260
 1866 0557 14       		.uleb128 0x14
 1867 0558 543300   		.ascii	"T3\000"
 1868 055b 0B       		.byte	0xb
 1869 055c 48       		.byte	0x48
 1870 055d 70050000 		.4byte	0x570
 1871 0561 9003     		.2byte	0x390
 1872 0563 14       		.uleb128 0x14
 1873 0564 543400   		.ascii	"T4\000"
 1874 0567 0B       		.byte	0xb
 1875 0568 49       		.byte	0x49
 1876 0569 70050000 		.4byte	0x570
 1877 056d C004     		.2byte	0x4c0
 1878 056f 00       		.byte	0
 1879 0570 15       		.uleb128 0x15
 1880 0571 73020000 		.4byte	0x273
 1881 0575 80050000 		.4byte	0x580
 1882 0579 16       		.uleb128 0x16
 1883 057a 0F030000 		.4byte	0x30f
 1884 057e 25       		.byte	0x25
 1885 057f 00       		.byte	0
 1886 0580 17       		.uleb128 0x17
 1887 0581 F3040000 		.4byte	.LASF118
 1888 0585 F005     		.2byte	0x5f0
 1889 0587 0B       		.byte	0xb
 1890 0588 43       		.byte	0x43
 1891 0589 A3050000 		.4byte	0x5a3
 1892 058d 18       		.uleb128 0x18
 1893 058e 776100   		.ascii	"wa\000"
 1894 0591 0B       		.byte	0xb
 1895 0592 4A       		.byte	0x4a
 1896 0593 2B050000 		.4byte	0x52b
 1897 0597 0D       		.uleb128 0xd
 1898 0598 1C050000 		.4byte	.LASF85
 1899 059c 0B       		.byte	0xb
 1900 059d 4B       		.byte	0x4b
 1901 059e A3050000 		.4byte	0x5a3
 1902 05a2 00       		.byte	0
 1903 05a3 15       		.uleb128 0x15
 1904 05a4 45000000 		.4byte	0x45
 1905 05a8 B4050000 		.4byte	0x5b4
 1906 05ac 19       		.uleb128 0x19
 1907 05ad 0F030000 		.4byte	0x30f
 1908 05b1 EF05     		.2byte	0x5ef
 1909 05b3 00       		.byte	0
 1910 05b4 1A       		.uleb128 0x1a
 1911 05b5 EC010000 		.4byte	.LASF86
 1912 05b9 01       		.byte	0x1
 1913 05ba 5A       		.byte	0x5a
 1914 05bb 01       		.byte	0x1
 1915 05bc D3050000 		.4byte	0x5d3
 1916 05c0 1B       		.uleb128 0x1b
 1917 05c1 6900     		.ascii	"i\000"
ARM GAS  /var/folders/qh/xwg3v3kj02qbxczjpdb8lzfr0000gn/T//ccSPuUNF.s 			page 35


 1918 05c3 01       		.byte	0x1
 1919 05c4 5B       		.byte	0x5b
 1920 05c5 37000000 		.4byte	0x37
 1921 05c9 1B       		.uleb128 0x1b
 1922 05ca 6E00     		.ascii	"n\000"
 1923 05cc 01       		.byte	0x1
 1924 05cd 5C       		.byte	0x5c
 1925 05ce 2C000000 		.4byte	0x2c
 1926 05d2 00       		.byte	0
 1927 05d3 1A       		.uleb128 0x1a
 1928 05d4 81020000 		.4byte	.LASF87
 1929 05d8 01       		.byte	0x1
 1930 05d9 B1       		.byte	0xb1
 1931 05da 01       		.byte	0x1
 1932 05db FD050000 		.4byte	0x5fd
 1933 05df 1B       		.uleb128 0x1b
 1934 05e0 6900     		.ascii	"i\000"
 1935 05e2 01       		.byte	0x1
 1936 05e3 B2       		.byte	0xb2
 1937 05e4 37000000 		.4byte	0x37
 1938 05e8 1B       		.uleb128 0x1b
 1939 05e9 6E00     		.ascii	"n\000"
 1940 05eb 01       		.byte	0x1
 1941 05ec B3       		.byte	0xb3
 1942 05ed 2C000000 		.4byte	0x2c
 1943 05f1 1C       		.uleb128 0x1c
 1944 05f2 1B       		.uleb128 0x1b
 1945 05f3 6300     		.ascii	"c\000"
 1946 05f5 01       		.byte	0x1
 1947 05f6 BF       		.byte	0xbf
 1948 05f7 F9030000 		.4byte	0x3f9
 1949 05fb 00       		.byte	0
 1950 05fc 00       		.byte	0
 1951 05fd 1D       		.uleb128 0x1d
 1952 05fe 69020000 		.4byte	.LASF88
 1953 0602 01       		.byte	0x1
 1954 0603 39       		.byte	0x39
 1955 0604 00000000 		.4byte	.LFB7
 1956 0608 02000000 		.4byte	.LFE7-.LFB7
 1957 060c 01       		.uleb128 0x1
 1958 060d 9C       		.byte	0x9c
 1959 060e 1F060000 		.4byte	0x61f
 1960 0612 1E       		.uleb128 0x1e
 1961 0613 717000   		.ascii	"qp\000"
 1962 0616 01       		.byte	0x1
 1963 0617 39       		.byte	0x39
 1964 0618 BA040000 		.4byte	0x4ba
 1965 061c 01       		.uleb128 0x1
 1966 061d 50       		.byte	0x50
 1967 061e 00       		.byte	0
 1968 061f 1F       		.uleb128 0x1f
 1969 0620 B3030000 		.4byte	.LASF90
 1970 0624 01       		.byte	0x1
 1971 0625 53       		.byte	0x53
 1972 0626 EB000000 		.4byte	0xeb
 1973 062a 00000000 		.4byte	.LFB9
 1974 062e 14000000 		.4byte	.LFE9-.LFB9
ARM GAS  /var/folders/qh/xwg3v3kj02qbxczjpdb8lzfr0000gn/T//ccSPuUNF.s 			page 36


 1975 0632 01       		.uleb128 0x1
 1976 0633 9C       		.byte	0x9c
 1977 0634 5F060000 		.4byte	0x65f
 1978 0638 20       		.uleb128 0x20
 1979 0639 7000     		.ascii	"p\000"
 1980 063b 01       		.byte	0x1
 1981 063c 53       		.byte	0x53
 1982 063d 71020000 		.4byte	0x271
 1983 0641 00000000 		.4byte	.LLST0
 1984 0645 21       		.uleb128 0x21
 1985 0646 0A000000 		.4byte	.LVL3
 1986 064a 8E0E0000 		.4byte	0xe8e
 1987 064e 22       		.uleb128 0x22
 1988 064f 01       		.uleb128 0x1
 1989 0650 51       		.byte	0x51
 1990 0651 02       		.uleb128 0x2
 1991 0652 08       		.byte	0x8
 1992 0653 C8       		.byte	0xc8
 1993 0654 22       		.uleb128 0x22
 1994 0655 01       		.uleb128 0x1
 1995 0656 50       		.byte	0x50
 1996 0657 05       		.uleb128 0x5
 1997 0658 03       		.byte	0x3
 1998 0659 00000000 		.4byte	.LANCHOR0
 1999 065d 00       		.byte	0
 2000 065e 00       		.byte	0
 2001 065f 1D       		.uleb128 0x1d
 2002 0660 04040000 		.4byte	.LASF89
 2003 0664 01       		.byte	0x1
 2004 0665 4E       		.byte	0x4e
 2005 0666 00000000 		.4byte	.LFB8
 2006 066a 28000000 		.4byte	.LFE8-.LFB8
 2007 066e 01       		.uleb128 0x1
 2008 066f 9C       		.byte	0x9c
 2009 0670 9C060000 		.4byte	0x69c
 2010 0674 21       		.uleb128 0x21
 2011 0675 16000000 		.4byte	.LVL4
 2012 0679 AF0E0000 		.4byte	0xeaf
 2013 067d 22       		.uleb128 0x22
 2014 067e 01       		.uleb128 0x1
 2015 067f 53       		.byte	0x53
 2016 0680 05       		.uleb128 0x5
 2017 0681 03       		.byte	0x3
 2018 0682 00000000 		.4byte	notify
 2019 0686 22       		.uleb128 0x22
 2020 0687 01       		.uleb128 0x1
 2021 0688 52       		.byte	0x52
 2022 0689 01       		.uleb128 0x1
 2023 068a 34       		.byte	0x34
 2024 068b 22       		.uleb128 0x22
 2025 068c 01       		.uleb128 0x1
 2026 068d 50       		.byte	0x50
 2027 068e 05       		.uleb128 0x5
 2028 068f 03       		.byte	0x3
 2029 0690 00000000 		.4byte	.LANCHOR0
 2030 0694 22       		.uleb128 0x22
 2031 0695 02       		.uleb128 0x2
ARM GAS  /var/folders/qh/xwg3v3kj02qbxczjpdb8lzfr0000gn/T//ccSPuUNF.s 			page 37


 2032 0696 7D       		.byte	0x7d
 2033 0697 00       		.sleb128 0
 2034 0698 01       		.uleb128 0x1
 2035 0699 30       		.byte	0x30
 2036 069a 00       		.byte	0
 2037 069b 00       		.byte	0
 2038 069c 1F       		.uleb128 0x1f
 2039 069d BB030000 		.4byte	.LASF91
 2040 06a1 01       		.byte	0x1
 2041 06a2 AA       		.byte	0xaa
 2042 06a3 EB000000 		.4byte	0xeb
 2043 06a7 00000000 		.4byte	.LFB12
 2044 06ab 14000000 		.4byte	.LFE12-.LFB12
 2045 06af 01       		.uleb128 0x1
 2046 06b0 9C       		.byte	0x9c
 2047 06b1 E1060000 		.4byte	0x6e1
 2048 06b5 20       		.uleb128 0x20
 2049 06b6 7000     		.ascii	"p\000"
 2050 06b8 01       		.byte	0x1
 2051 06b9 AA       		.byte	0xaa
 2052 06ba 71020000 		.4byte	0x271
 2053 06be 21000000 		.4byte	.LLST1
 2054 06c2 21       		.uleb128 0x21
 2055 06c3 0C000000 		.4byte	.LVL7
 2056 06c7 D50E0000 		.4byte	0xed5
 2057 06cb 22       		.uleb128 0x22
 2058 06cc 01       		.uleb128 0x1
 2059 06cd 52       		.byte	0x52
 2060 06ce 02       		.uleb128 0x2
 2061 06cf 08       		.byte	0x8
 2062 06d0 C8       		.byte	0xc8
 2063 06d1 22       		.uleb128 0x22
 2064 06d2 01       		.uleb128 0x1
 2065 06d3 51       		.byte	0x51
 2066 06d4 01       		.uleb128 0x1
 2067 06d5 30       		.byte	0x30
 2068 06d6 22       		.uleb128 0x22
 2069 06d7 01       		.uleb128 0x1
 2070 06d8 50       		.byte	0x50
 2071 06d9 05       		.uleb128 0x5
 2072 06da 03       		.byte	0x3
 2073 06db 00000000 		.4byte	.LANCHOR1
 2074 06df 00       		.byte	0
 2075 06e0 00       		.byte	0
 2076 06e1 1D       		.uleb128 0x1d
 2077 06e2 A1000000 		.4byte	.LASF92
 2078 06e6 01       		.byte	0x1
 2079 06e7 A5       		.byte	0xa5
 2080 06e8 00000000 		.4byte	.LFB11
 2081 06ec 28000000 		.4byte	.LFE11-.LFB11
 2082 06f0 01       		.uleb128 0x1
 2083 06f1 9C       		.byte	0x9c
 2084 06f2 1E070000 		.4byte	0x71e
 2085 06f6 21       		.uleb128 0x21
 2086 06f7 16000000 		.4byte	.LVL8
 2087 06fb FB0E0000 		.4byte	0xefb
 2088 06ff 22       		.uleb128 0x22
ARM GAS  /var/folders/qh/xwg3v3kj02qbxczjpdb8lzfr0000gn/T//ccSPuUNF.s 			page 38


 2089 0700 01       		.uleb128 0x1
 2090 0701 53       		.byte	0x53
 2091 0702 05       		.uleb128 0x5
 2092 0703 03       		.byte	0x3
 2093 0704 00000000 		.4byte	notify
 2094 0708 22       		.uleb128 0x22
 2095 0709 01       		.uleb128 0x1
 2096 070a 52       		.byte	0x52
 2097 070b 01       		.uleb128 0x1
 2098 070c 34       		.byte	0x34
 2099 070d 22       		.uleb128 0x22
 2100 070e 01       		.uleb128 0x1
 2101 070f 50       		.byte	0x50
 2102 0710 05       		.uleb128 0x5
 2103 0711 03       		.byte	0x3
 2104 0712 00000000 		.4byte	.LANCHOR1
 2105 0716 22       		.uleb128 0x22
 2106 0717 02       		.uleb128 0x2
 2107 0718 7D       		.byte	0x7d
 2108 0719 00       		.sleb128 0
 2109 071a 01       		.uleb128 0x1
 2110 071b 30       		.byte	0x30
 2111 071c 00       		.byte	0
 2112 071d 00       		.byte	0
 2113 071e 23       		.uleb128 0x23
 2114 071f B4050000 		.4byte	0x5b4
 2115 0723 00000000 		.4byte	.LFB10
 2116 0727 78020000 		.4byte	.LFE10-.LFB10
 2117 072b 01       		.uleb128 0x1
 2118 072c 9C       		.byte	0x9c
 2119 072d 9B0A0000 		.4byte	0xa9b
 2120 0731 24       		.uleb128 0x24
 2121 0732 C0050000 		.4byte	0x5c0
 2122 0736 24       		.uleb128 0x24
 2123 0737 C9050000 		.4byte	0x5c9
 2124 073b 25       		.uleb128 0x25
 2125 073c 00000000 		.4byte	.Ldebug_ranges0+0
 2126 0740 820A0000 		.4byte	0xa82
 2127 0744 26       		.uleb128 0x26
 2128 0745 C0050000 		.4byte	0x5c0
 2129 0749 42000000 		.4byte	.LLST2
 2130 074d 26       		.uleb128 0x26
 2131 074e C9050000 		.4byte	0x5c9
 2132 0752 98000000 		.4byte	.LLST3
 2133 0756 27       		.uleb128 0x27
 2134 0757 24000000 		.4byte	.LVL11
 2135 075b 210F0000 		.4byte	0xf21
 2136 075f 27       		.uleb128 0x27
 2137 0760 2C000000 		.4byte	.LVL12
 2138 0764 280F0000 		.4byte	0xf28
 2139 0768 28       		.uleb128 0x28
 2140 0769 3A000000 		.4byte	.LVL14
 2141 076d 2F0F0000 		.4byte	0xf2f
 2142 0771 7C070000 		.4byte	0x77c
 2143 0775 22       		.uleb128 0x22
 2144 0776 01       		.uleb128 0x1
 2145 0777 50       		.byte	0x50
ARM GAS  /var/folders/qh/xwg3v3kj02qbxczjpdb8lzfr0000gn/T//ccSPuUNF.s 			page 39


 2146 0778 02       		.uleb128 0x2
 2147 0779 75       		.byte	0x75
 2148 077a 00       		.sleb128 0
 2149 077b 00       		.byte	0
 2150 077c 27       		.uleb128 0x27
 2151 077d 42000000 		.4byte	.LVL15
 2152 0781 210F0000 		.4byte	0xf21
 2153 0785 27       		.uleb128 0x27
 2154 0786 4A000000 		.4byte	.LVL16
 2155 078a 280F0000 		.4byte	0xf28
 2156 078e 28       		.uleb128 0x28
 2157 078f 5C000000 		.4byte	.LVL17
 2158 0793 4A0F0000 		.4byte	0xf4a
 2159 0797 A7070000 		.4byte	0x7a7
 2160 079b 22       		.uleb128 0x22
 2161 079c 01       		.uleb128 0x1
 2162 079d 51       		.byte	0x51
 2163 079e 02       		.uleb128 0x2
 2164 079f 76       		.byte	0x76
 2165 07a0 00       		.sleb128 0
 2166 07a1 22       		.uleb128 0x22
 2167 07a2 01       		.uleb128 0x1
 2168 07a3 50       		.byte	0x50
 2169 07a4 01       		.uleb128 0x1
 2170 07a5 32       		.byte	0x32
 2171 07a6 00       		.byte	0
 2172 07a7 27       		.uleb128 0x27
 2173 07a8 66000000 		.4byte	.LVL18
 2174 07ac 210F0000 		.4byte	0xf21
 2175 07b0 27       		.uleb128 0x27
 2176 07b1 6E000000 		.4byte	.LVL19
 2177 07b5 280F0000 		.4byte	0xf28
 2178 07b9 28       		.uleb128 0x28
 2179 07ba 76000000 		.4byte	.LVL20
 2180 07be 2F0F0000 		.4byte	0xf2f
 2181 07c2 D2070000 		.4byte	0x7d2
 2182 07c6 22       		.uleb128 0x22
 2183 07c7 01       		.uleb128 0x1
 2184 07c8 51       		.byte	0x51
 2185 07c9 01       		.uleb128 0x1
 2186 07ca 30       		.byte	0x30
 2187 07cb 22       		.uleb128 0x22
 2188 07cc 01       		.uleb128 0x1
 2189 07cd 50       		.byte	0x50
 2190 07ce 02       		.uleb128 0x2
 2191 07cf 75       		.byte	0x75
 2192 07d0 00       		.sleb128 0
 2193 07d1 00       		.byte	0
 2194 07d2 28       		.uleb128 0x28
 2195 07d3 84000000 		.4byte	.LVL21
 2196 07d7 4A0F0000 		.4byte	0xf4a
 2197 07db E5070000 		.4byte	0x7e5
 2198 07df 22       		.uleb128 0x22
 2199 07e0 01       		.uleb128 0x1
 2200 07e1 50       		.byte	0x50
 2201 07e2 01       		.uleb128 0x1
 2202 07e3 33       		.byte	0x33
ARM GAS  /var/folders/qh/xwg3v3kj02qbxczjpdb8lzfr0000gn/T//ccSPuUNF.s 			page 40


 2203 07e4 00       		.byte	0
 2204 07e5 27       		.uleb128 0x27
 2205 07e6 8E000000 		.4byte	.LVL22
 2206 07ea 210F0000 		.4byte	0xf21
 2207 07ee 28       		.uleb128 0x28
 2208 07ef 9C000000 		.4byte	.LVL25
 2209 07f3 8E0E0000 		.4byte	0xe8e
 2210 07f7 08080000 		.4byte	0x808
 2211 07fb 22       		.uleb128 0x22
 2212 07fc 01       		.uleb128 0x1
 2213 07fd 51       		.byte	0x51
 2214 07fe 02       		.uleb128 0x2
 2215 07ff 09       		.byte	0x9
 2216 0800 FF       		.byte	0xff
 2217 0801 22       		.uleb128 0x22
 2218 0802 01       		.uleb128 0x1
 2219 0803 50       		.byte	0x50
 2220 0804 02       		.uleb128 0x2
 2221 0805 75       		.byte	0x75
 2222 0806 00       		.sleb128 0
 2223 0807 00       		.byte	0
 2224 0808 27       		.uleb128 0x27
 2225 0809 A4000000 		.4byte	.LVL27
 2226 080d 640F0000 		.4byte	0xf64
 2227 0811 27       		.uleb128 0x27
 2228 0812 AE000000 		.4byte	.LVL28
 2229 0816 280F0000 		.4byte	0xf28
 2230 081a 28       		.uleb128 0x28
 2231 081b BC000000 		.4byte	.LVL29
 2232 081f 4A0F0000 		.4byte	0xf4a
 2233 0823 2D080000 		.4byte	0x82d
 2234 0827 22       		.uleb128 0x22
 2235 0828 01       		.uleb128 0x1
 2236 0829 50       		.byte	0x50
 2237 082a 01       		.uleb128 0x1
 2238 082b 34       		.byte	0x34
 2239 082c 00       		.byte	0
 2240 082d 27       		.uleb128 0x27
 2241 082e C6000000 		.4byte	.LVL30
 2242 0832 210F0000 		.4byte	0xf21
 2243 0836 28       		.uleb128 0x28
 2244 0837 D0000000 		.4byte	.LVL31
 2245 083b 750F0000 		.4byte	0xf75
 2246 083f 52080000 		.4byte	0x852
 2247 0843 22       		.uleb128 0x22
 2248 0844 01       		.uleb128 0x1
 2249 0845 51       		.byte	0x51
 2250 0846 05       		.uleb128 0x5
 2251 0847 03       		.byte	0x3
 2252 0848 00000000 		.4byte	.LC9
 2253 084c 22       		.uleb128 0x22
 2254 084d 01       		.uleb128 0x1
 2255 084e 50       		.byte	0x50
 2256 084f 01       		.uleb128 0x1
 2257 0850 35       		.byte	0x35
 2258 0851 00       		.byte	0
 2259 0852 27       		.uleb128 0x27
ARM GAS  /var/folders/qh/xwg3v3kj02qbxczjpdb8lzfr0000gn/T//ccSPuUNF.s 			page 41


 2260 0853 DC000000 		.4byte	.LVL32
 2261 0857 280F0000 		.4byte	0xf28
 2262 085b 28       		.uleb128 0x28
 2263 085c EA000000 		.4byte	.LVL34
 2264 0860 2F0F0000 		.4byte	0xf2f
 2265 0864 6F080000 		.4byte	0x86f
 2266 0868 22       		.uleb128 0x22
 2267 0869 01       		.uleb128 0x1
 2268 086a 50       		.byte	0x50
 2269 086b 02       		.uleb128 0x2
 2270 086c 75       		.byte	0x75
 2271 086d 00       		.sleb128 0
 2272 086e 00       		.byte	0
 2273 086f 27       		.uleb128 0x27
 2274 0870 F2000000 		.4byte	.LVL35
 2275 0874 210F0000 		.4byte	0xf21
 2276 0878 28       		.uleb128 0x28
 2277 0879 06010000 		.4byte	.LVL36
 2278 087d 950F0000 		.4byte	0xf95
 2279 0881 9D080000 		.4byte	0x89d
 2280 0885 22       		.uleb128 0x22
 2281 0886 01       		.uleb128 0x1
 2282 0887 53       		.byte	0x53
 2283 0888 01       		.uleb128 0x1
 2284 0889 30       		.byte	0x30
 2285 088a 22       		.uleb128 0x22
 2286 088b 01       		.uleb128 0x1
 2287 088c 52       		.byte	0x52
 2288 088d 01       		.uleb128 0x1
 2289 088e 38       		.byte	0x38
 2290 088f 22       		.uleb128 0x22
 2291 0890 01       		.uleb128 0x1
 2292 0891 51       		.byte	0x51
 2293 0892 03       		.uleb128 0x3
 2294 0893 76       		.byte	0x76
 2295 0894 04       		.sleb128 4
 2296 0895 06       		.byte	0x6
 2297 0896 22       		.uleb128 0x22
 2298 0897 01       		.uleb128 0x1
 2299 0898 50       		.byte	0x50
 2300 0899 02       		.uleb128 0x2
 2301 089a 75       		.byte	0x75
 2302 089b 00       		.sleb128 0
 2303 089c 00       		.byte	0
 2304 089d 28       		.uleb128 0x28
 2305 089e 14010000 		.4byte	.LVL38
 2306 08a2 4A0F0000 		.4byte	0xf4a
 2307 08a6 B0080000 		.4byte	0x8b0
 2308 08aa 22       		.uleb128 0x22
 2309 08ab 01       		.uleb128 0x1
 2310 08ac 50       		.byte	0x50
 2311 08ad 01       		.uleb128 0x1
 2312 08ae 36       		.byte	0x36
 2313 08af 00       		.byte	0
 2314 08b0 27       		.uleb128 0x27
 2315 08b1 20010000 		.4byte	.LVL39
 2316 08b5 280F0000 		.4byte	0xf28
ARM GAS  /var/folders/qh/xwg3v3kj02qbxczjpdb8lzfr0000gn/T//ccSPuUNF.s 			page 42


 2317 08b9 28       		.uleb128 0x28
 2318 08ba 2E010000 		.4byte	.LVL40
 2319 08be 4A0F0000 		.4byte	0xf4a
 2320 08c2 CC080000 		.4byte	0x8cc
 2321 08c6 22       		.uleb128 0x22
 2322 08c7 01       		.uleb128 0x1
 2323 08c8 50       		.byte	0x50
 2324 08c9 01       		.uleb128 0x1
 2325 08ca 37       		.byte	0x37
 2326 08cb 00       		.byte	0
 2327 08cc 27       		.uleb128 0x27
 2328 08cd 38010000 		.4byte	.LVL41
 2329 08d1 210F0000 		.4byte	0xf21
 2330 08d5 27       		.uleb128 0x27
 2331 08d6 40010000 		.4byte	.LVL42
 2332 08da 280F0000 		.4byte	0xf28
 2333 08de 28       		.uleb128 0x28
 2334 08df 4E010000 		.4byte	.LVL44
 2335 08e3 2F0F0000 		.4byte	0xf2f
 2336 08e7 F2080000 		.4byte	0x8f2
 2337 08eb 22       		.uleb128 0x22
 2338 08ec 01       		.uleb128 0x1
 2339 08ed 50       		.byte	0x50
 2340 08ee 02       		.uleb128 0x2
 2341 08ef 75       		.byte	0x75
 2342 08f0 00       		.sleb128 0
 2343 08f1 00       		.byte	0
 2344 08f2 27       		.uleb128 0x27
 2345 08f3 56010000 		.4byte	.LVL45
 2346 08f7 210F0000 		.4byte	0xf21
 2347 08fb 28       		.uleb128 0x28
 2348 08fc 68010000 		.4byte	.LVL46
 2349 0900 950F0000 		.4byte	0xf95
 2350 0904 20090000 		.4byte	0x920
 2351 0908 22       		.uleb128 0x22
 2352 0909 01       		.uleb128 0x1
 2353 090a 53       		.byte	0x53
 2354 090b 01       		.uleb128 0x1
 2355 090c 30       		.byte	0x30
 2356 090d 22       		.uleb128 0x22
 2357 090e 01       		.uleb128 0x1
 2358 090f 52       		.byte	0x52
 2359 0910 01       		.uleb128 0x1
 2360 0911 32       		.byte	0x32
 2361 0912 22       		.uleb128 0x22
 2362 0913 01       		.uleb128 0x1
 2363 0914 51       		.byte	0x51
 2364 0915 03       		.uleb128 0x3
 2365 0916 91       		.byte	0x91
 2366 0917 6C       		.sleb128 -20
 2367 0918 06       		.byte	0x6
 2368 0919 22       		.uleb128 0x22
 2369 091a 01       		.uleb128 0x1
 2370 091b 50       		.byte	0x50
 2371 091c 02       		.uleb128 0x2
 2372 091d 75       		.byte	0x75
 2373 091e 00       		.sleb128 0
ARM GAS  /var/folders/qh/xwg3v3kj02qbxczjpdb8lzfr0000gn/T//ccSPuUNF.s 			page 43


 2374 091f 00       		.byte	0
 2375 0920 28       		.uleb128 0x28
 2376 0921 76010000 		.4byte	.LVL48
 2377 0925 4A0F0000 		.4byte	0xf4a
 2378 0929 33090000 		.4byte	0x933
 2379 092d 22       		.uleb128 0x22
 2380 092e 01       		.uleb128 0x1
 2381 092f 50       		.byte	0x50
 2382 0930 01       		.uleb128 0x1
 2383 0931 38       		.byte	0x38
 2384 0932 00       		.byte	0
 2385 0933 28       		.uleb128 0x28
 2386 0934 86010000 		.4byte	.LVL49
 2387 0938 950F0000 		.4byte	0xf95
 2388 093c 58090000 		.4byte	0x958
 2389 0940 22       		.uleb128 0x22
 2390 0941 01       		.uleb128 0x1
 2391 0942 53       		.byte	0x53
 2392 0943 01       		.uleb128 0x1
 2393 0944 30       		.byte	0x30
 2394 0945 22       		.uleb128 0x22
 2395 0946 01       		.uleb128 0x1
 2396 0947 52       		.byte	0x52
 2397 0948 01       		.uleb128 0x1
 2398 0949 32       		.byte	0x32
 2399 094a 22       		.uleb128 0x22
 2400 094b 01       		.uleb128 0x1
 2401 094c 51       		.byte	0x51
 2402 094d 03       		.uleb128 0x3
 2403 094e 91       		.byte	0x91
 2404 094f 6C       		.sleb128 -20
 2405 0950 06       		.byte	0x6
 2406 0951 22       		.uleb128 0x22
 2407 0952 01       		.uleb128 0x1
 2408 0953 50       		.byte	0x50
 2409 0954 02       		.uleb128 0x2
 2410 0955 75       		.byte	0x75
 2411 0956 00       		.sleb128 0
 2412 0957 00       		.byte	0
 2413 0958 28       		.uleb128 0x28
 2414 0959 94010000 		.4byte	.LVL51
 2415 095d 4A0F0000 		.4byte	0xf4a
 2416 0961 6B090000 		.4byte	0x96b
 2417 0965 22       		.uleb128 0x22
 2418 0966 01       		.uleb128 0x1
 2419 0967 50       		.byte	0x50
 2420 0968 01       		.uleb128 0x1
 2421 0969 39       		.byte	0x39
 2422 096a 00       		.byte	0
 2423 096b 27       		.uleb128 0x27
 2424 096c 9E010000 		.4byte	.LVL52
 2425 0970 280F0000 		.4byte	0xf28
 2426 0974 28       		.uleb128 0x28
 2427 0975 AC010000 		.4byte	.LVL53
 2428 0979 4A0F0000 		.4byte	0xf4a
 2429 097d 87090000 		.4byte	0x987
 2430 0981 22       		.uleb128 0x22
ARM GAS  /var/folders/qh/xwg3v3kj02qbxczjpdb8lzfr0000gn/T//ccSPuUNF.s 			page 44


 2431 0982 01       		.uleb128 0x1
 2432 0983 50       		.byte	0x50
 2433 0984 01       		.uleb128 0x1
 2434 0985 3A       		.byte	0x3a
 2435 0986 00       		.byte	0
 2436 0987 27       		.uleb128 0x27
 2437 0988 B4010000 		.4byte	.LVL54
 2438 098c 210F0000 		.4byte	0xf21
 2439 0990 27       		.uleb128 0x27
 2440 0991 BC010000 		.4byte	.LVL55
 2441 0995 280F0000 		.4byte	0xf28
 2442 0999 28       		.uleb128 0x28
 2443 099a C4010000 		.4byte	.LVL56
 2444 099e 2F0F0000 		.4byte	0xf2f
 2445 09a2 B2090000 		.4byte	0x9b2
 2446 09a6 22       		.uleb128 0x22
 2447 09a7 01       		.uleb128 0x1
 2448 09a8 51       		.byte	0x51
 2449 09a9 01       		.uleb128 0x1
 2450 09aa 30       		.byte	0x30
 2451 09ab 22       		.uleb128 0x22
 2452 09ac 01       		.uleb128 0x1
 2453 09ad 50       		.byte	0x50
 2454 09ae 02       		.uleb128 0x2
 2455 09af 75       		.byte	0x75
 2456 09b0 00       		.sleb128 0
 2457 09b1 00       		.byte	0
 2458 09b2 28       		.uleb128 0x28
 2459 09b3 CA010000 		.4byte	.LVL57
 2460 09b7 BA0F0000 		.4byte	0xfba
 2461 09bb C6090000 		.4byte	0x9c6
 2462 09bf 22       		.uleb128 0x22
 2463 09c0 01       		.uleb128 0x1
 2464 09c1 50       		.byte	0x50
 2465 09c2 02       		.uleb128 0x2
 2466 09c3 75       		.byte	0x75
 2467 09c4 00       		.sleb128 0
 2468 09c5 00       		.byte	0
 2469 09c6 27       		.uleb128 0x27
 2470 09c7 CE010000 		.4byte	.LVL58
 2471 09cb 210F0000 		.4byte	0xf21
 2472 09cf 27       		.uleb128 0x27
 2473 09d0 D6010000 		.4byte	.LVL59
 2474 09d4 280F0000 		.4byte	0xf28
 2475 09d8 28       		.uleb128 0x28
 2476 09d9 E6010000 		.4byte	.LVL60
 2477 09dd 4A0F0000 		.4byte	0xf4a
 2478 09e1 EB090000 		.4byte	0x9eb
 2479 09e5 22       		.uleb128 0x22
 2480 09e6 01       		.uleb128 0x1
 2481 09e7 50       		.byte	0x50
 2482 09e8 01       		.uleb128 0x1
 2483 09e9 3B       		.byte	0x3b
 2484 09ea 00       		.byte	0
 2485 09eb 27       		.uleb128 0x27
 2486 09ec EE010000 		.4byte	.LVL61
 2487 09f0 210F0000 		.4byte	0xf21
ARM GAS  /var/folders/qh/xwg3v3kj02qbxczjpdb8lzfr0000gn/T//ccSPuUNF.s 			page 45


 2488 09f4 28       		.uleb128 0x28
 2489 09f5 0C020000 		.4byte	.LVL62
 2490 09f9 CC0F0000 		.4byte	0xfcc
 2491 09fd 1E0A0000 		.4byte	0xa1e
 2492 0a01 22       		.uleb128 0x22
 2493 0a02 01       		.uleb128 0x1
 2494 0a03 53       		.byte	0x53
 2495 0a04 05       		.uleb128 0x5
 2496 0a05 03       		.byte	0x3
 2497 0a06 00000000 		.4byte	thread1
 2498 0a0a 22       		.uleb128 0x22
 2499 0a0b 01       		.uleb128 0x1
 2500 0a0c 51       		.byte	0x51
 2501 0a0d 03       		.uleb128 0x3
 2502 0a0e 0A       		.byte	0xa
 2503 0a0f 3001     		.2byte	0x130
 2504 0a11 22       		.uleb128 0x22
 2505 0a12 01       		.uleb128 0x1
 2506 0a13 50       		.byte	0x50
 2507 0a14 02       		.uleb128 0x2
 2508 0a15 76       		.byte	0x76
 2509 0a16 00       		.sleb128 0
 2510 0a17 22       		.uleb128 0x22
 2511 0a18 02       		.uleb128 0x2
 2512 0a19 7D       		.byte	0x7d
 2513 0a1a 00       		.sleb128 0
 2514 0a1b 01       		.uleb128 0x1
 2515 0a1c 30       		.byte	0x30
 2516 0a1d 00       		.byte	0
 2517 0a1e 27       		.uleb128 0x27
 2518 0a1f 16020000 		.4byte	.LVL63
 2519 0a23 280F0000 		.4byte	0xf28
 2520 0a27 28       		.uleb128 0x28
 2521 0a28 24020000 		.4byte	.LVL64
 2522 0a2c 4A0F0000 		.4byte	0xf4a
 2523 0a30 3A0A0000 		.4byte	0xa3a
 2524 0a34 22       		.uleb128 0x22
 2525 0a35 01       		.uleb128 0x1
 2526 0a36 50       		.byte	0x50
 2527 0a37 01       		.uleb128 0x1
 2528 0a38 3C       		.byte	0x3c
 2529 0a39 00       		.byte	0
 2530 0a3a 27       		.uleb128 0x27
 2531 0a3b 2C020000 		.4byte	.LVL65
 2532 0a3f 210F0000 		.4byte	0xf21
 2533 0a43 27       		.uleb128 0x27
 2534 0a44 32020000 		.4byte	.LVL66
 2535 0a48 F60F0000 		.4byte	0xff6
 2536 0a4c 28       		.uleb128 0x28
 2537 0a4d 3A020000 		.4byte	.LVL67
 2538 0a51 8E0E0000 		.4byte	0xe8e
 2539 0a55 650A0000 		.4byte	0xa65
 2540 0a59 22       		.uleb128 0x22
 2541 0a5a 01       		.uleb128 0x1
 2542 0a5b 51       		.byte	0x51
 2543 0a5c 01       		.uleb128 0x1
 2544 0a5d 3A       		.byte	0x3a
ARM GAS  /var/folders/qh/xwg3v3kj02qbxczjpdb8lzfr0000gn/T//ccSPuUNF.s 			page 46


 2545 0a5e 22       		.uleb128 0x22
 2546 0a5f 01       		.uleb128 0x1
 2547 0a60 50       		.byte	0x50
 2548 0a61 02       		.uleb128 0x2
 2549 0a62 75       		.byte	0x75
 2550 0a63 00       		.sleb128 0
 2551 0a64 00       		.byte	0
 2552 0a65 28       		.uleb128 0x28
 2553 0a66 48020000 		.4byte	.LVL68
 2554 0a6a 4A0F0000 		.4byte	0xf4a
 2555 0a6e 780A0000 		.4byte	0xa78
 2556 0a72 22       		.uleb128 0x22
 2557 0a73 01       		.uleb128 0x1
 2558 0a74 50       		.byte	0x50
 2559 0a75 01       		.uleb128 0x1
 2560 0a76 3D       		.byte	0x3d
 2561 0a77 00       		.byte	0
 2562 0a78 27       		.uleb128 0x27
 2563 0a79 4E020000 		.4byte	.LVL69
 2564 0a7d 210F0000 		.4byte	0xf21
 2565 0a81 00       		.byte	0
 2566 0a82 27       		.uleb128 0x27
 2567 0a83 0A000000 		.4byte	.LVL9
 2568 0a87 280F0000 		.4byte	0xf28
 2569 0a8b 21       		.uleb128 0x21
 2570 0a8c 1A000000 		.4byte	.LVL10
 2571 0a90 4A0F0000 		.4byte	0xf4a
 2572 0a94 22       		.uleb128 0x22
 2573 0a95 01       		.uleb128 0x1
 2574 0a96 50       		.byte	0x50
 2575 0a97 01       		.uleb128 0x1
 2576 0a98 31       		.byte	0x31
 2577 0a99 00       		.byte	0
 2578 0a9a 00       		.byte	0
 2579 0a9b 23       		.uleb128 0x23
 2580 0a9c D3050000 		.4byte	0x5d3
 2581 0aa0 00000000 		.4byte	.LFB13
 2582 0aa4 54020000 		.4byte	.LFE13-.LFB13
 2583 0aa8 01       		.uleb128 0x1
 2584 0aa9 9C       		.byte	0x9c
 2585 0aaa D00D0000 		.4byte	0xdd0
 2586 0aae 24       		.uleb128 0x24
 2587 0aaf DF050000 		.4byte	0x5df
 2588 0ab3 24       		.uleb128 0x24
 2589 0ab4 E8050000 		.4byte	0x5e8
 2590 0ab8 25       		.uleb128 0x25
 2591 0ab9 18000000 		.4byte	.Ldebug_ranges0+0x18
 2592 0abd B70D0000 		.4byte	0xdb7
 2593 0ac1 26       		.uleb128 0x26
 2594 0ac2 DF050000 		.4byte	0x5df
 2595 0ac6 C1000000 		.4byte	.LLST4
 2596 0aca 26       		.uleb128 0x26
 2597 0acb E8050000 		.4byte	0x5e8
 2598 0acf FF000000 		.4byte	.LLST5
 2599 0ad3 29       		.uleb128 0x29
 2600 0ad4 62000000 		.4byte	.LBB14
 2601 0ad8 1C000000 		.4byte	.LBE14-.LBB14
ARM GAS  /var/folders/qh/xwg3v3kj02qbxczjpdb8lzfr0000gn/T//ccSPuUNF.s 			page 47


 2602 0adc 200B0000 		.4byte	0xb20
 2603 0ae0 26       		.uleb128 0x26
 2604 0ae1 F2050000 		.4byte	0x5f2
 2605 0ae5 28010000 		.4byte	.LLST6
 2606 0ae9 27       		.uleb128 0x27
 2607 0aea 68000000 		.4byte	.LVL81
 2608 0aee 280F0000 		.4byte	0xf28
 2609 0af2 28       		.uleb128 0x28
 2610 0af3 6E000000 		.4byte	.LVL82
 2611 0af7 FD0F0000 		.4byte	0xffd
 2612 0afb 060B0000 		.4byte	0xb06
 2613 0aff 22       		.uleb128 0x22
 2614 0b00 01       		.uleb128 0x1
 2615 0b01 50       		.byte	0x50
 2616 0b02 02       		.uleb128 0x2
 2617 0b03 75       		.byte	0x75
 2618 0b04 00       		.sleb128 0
 2619 0b05 00       		.byte	0
 2620 0b06 27       		.uleb128 0x27
 2621 0b07 74000000 		.4byte	.LVL84
 2622 0b0b 210F0000 		.4byte	0xf21
 2623 0b0f 21       		.uleb128 0x21
 2624 0b10 7E000000 		.4byte	.LVL86
 2625 0b14 640F0000 		.4byte	0xf64
 2626 0b18 22       		.uleb128 0x22
 2627 0b19 01       		.uleb128 0x1
 2628 0b1a 50       		.byte	0x50
 2629 0b1b 02       		.uleb128 0x2
 2630 0b1c 76       		.byte	0x76
 2631 0b1d 00       		.sleb128 0
 2632 0b1e 00       		.byte	0
 2633 0b1f 00       		.byte	0
 2634 0b20 27       		.uleb128 0x27
 2635 0b21 28000000 		.4byte	.LVL72
 2636 0b25 210F0000 		.4byte	0xf21
 2637 0b29 28       		.uleb128 0x28
 2638 0b2a 3C000000 		.4byte	.LVL75
 2639 0b2e D50E0000 		.4byte	0xed5
 2640 0b32 430B0000 		.4byte	0xb43
 2641 0b36 22       		.uleb128 0x22
 2642 0b37 01       		.uleb128 0x1
 2643 0b38 52       		.byte	0x52
 2644 0b39 02       		.uleb128 0x2
 2645 0b3a 09       		.byte	0x9
 2646 0b3b FF       		.byte	0xff
 2647 0b3c 22       		.uleb128 0x22
 2648 0b3d 01       		.uleb128 0x1
 2649 0b3e 50       		.byte	0x50
 2650 0b3f 02       		.uleb128 0x2
 2651 0b40 75       		.byte	0x75
 2652 0b41 00       		.sleb128 0
 2653 0b42 00       		.byte	0
 2654 0b43 27       		.uleb128 0x27
 2655 0b44 46000000 		.4byte	.LVL76
 2656 0b48 280F0000 		.4byte	0xf28
 2657 0b4c 28       		.uleb128 0x28
 2658 0b4d 54000000 		.4byte	.LVL77
ARM GAS  /var/folders/qh/xwg3v3kj02qbxczjpdb8lzfr0000gn/T//ccSPuUNF.s 			page 48


 2659 0b51 4A0F0000 		.4byte	0xf4a
 2660 0b55 5F0B0000 		.4byte	0xb5f
 2661 0b59 22       		.uleb128 0x22
 2662 0b5a 01       		.uleb128 0x1
 2663 0b5b 50       		.byte	0x50
 2664 0b5c 01       		.uleb128 0x1
 2665 0b5d 32       		.byte	0x32
 2666 0b5e 00       		.byte	0
 2667 0b5f 27       		.uleb128 0x27
 2668 0b60 5E000000 		.4byte	.LVL78
 2669 0b64 210F0000 		.4byte	0xf21
 2670 0b68 27       		.uleb128 0x27
 2671 0b69 88000000 		.4byte	.LVL87
 2672 0b6d 280F0000 		.4byte	0xf28
 2673 0b71 28       		.uleb128 0x28
 2674 0b72 9A000000 		.4byte	.LVL88
 2675 0b76 4A0F0000 		.4byte	0xf4a
 2676 0b7a 8A0B0000 		.4byte	0xb8a
 2677 0b7e 22       		.uleb128 0x22
 2678 0b7f 01       		.uleb128 0x1
 2679 0b80 51       		.byte	0x51
 2680 0b81 02       		.uleb128 0x2
 2681 0b82 77       		.byte	0x77
 2682 0b83 00       		.sleb128 0
 2683 0b84 22       		.uleb128 0x22
 2684 0b85 01       		.uleb128 0x1
 2685 0b86 50       		.byte	0x50
 2686 0b87 01       		.uleb128 0x1
 2687 0b88 33       		.byte	0x33
 2688 0b89 00       		.byte	0
 2689 0b8a 27       		.uleb128 0x27
 2690 0b8b A4000000 		.4byte	.LVL89
 2691 0b8f 210F0000 		.4byte	0xf21
 2692 0b93 28       		.uleb128 0x28
 2693 0b94 AE000000 		.4byte	.LVL90
 2694 0b98 750F0000 		.4byte	0xf75
 2695 0b9c AF0B0000 		.4byte	0xbaf
 2696 0ba0 22       		.uleb128 0x22
 2697 0ba1 01       		.uleb128 0x1
 2698 0ba2 51       		.byte	0x51
 2699 0ba3 05       		.uleb128 0x5
 2700 0ba4 03       		.byte	0x3
 2701 0ba5 00000000 		.4byte	.LC9
 2702 0ba9 22       		.uleb128 0x22
 2703 0baa 01       		.uleb128 0x1
 2704 0bab 50       		.byte	0x50
 2705 0bac 01       		.uleb128 0x1
 2706 0bad 34       		.byte	0x34
 2707 0bae 00       		.byte	0
 2708 0baf 27       		.uleb128 0x27
 2709 0bb0 BA000000 		.4byte	.LVL91
 2710 0bb4 280F0000 		.4byte	0xf28
 2711 0bb8 28       		.uleb128 0x28
 2712 0bb9 C0000000 		.4byte	.LVL92
 2713 0bbd FD0F0000 		.4byte	0xffd
 2714 0bc1 CC0B0000 		.4byte	0xbcc
 2715 0bc5 22       		.uleb128 0x22
ARM GAS  /var/folders/qh/xwg3v3kj02qbxczjpdb8lzfr0000gn/T//ccSPuUNF.s 			page 49


 2716 0bc6 01       		.uleb128 0x1
 2717 0bc7 50       		.byte	0x50
 2718 0bc8 02       		.uleb128 0x2
 2719 0bc9 75       		.byte	0x75
 2720 0bca 00       		.sleb128 0
 2721 0bcb 00       		.byte	0
 2722 0bcc 28       		.uleb128 0x28
 2723 0bcd CE000000 		.4byte	.LVL93
 2724 0bd1 4A0F0000 		.4byte	0xf4a
 2725 0bd5 DF0B0000 		.4byte	0xbdf
 2726 0bd9 22       		.uleb128 0x22
 2727 0bda 01       		.uleb128 0x1
 2728 0bdb 50       		.byte	0x50
 2729 0bdc 01       		.uleb128 0x1
 2730 0bdd 35       		.byte	0x35
 2731 0bde 00       		.byte	0
 2732 0bdf 27       		.uleb128 0x27
 2733 0be0 D8000000 		.4byte	.LVL94
 2734 0be4 210F0000 		.4byte	0xf21
 2735 0be8 28       		.uleb128 0x28
 2736 0be9 EC000000 		.4byte	.LVL95
 2737 0bed 13100000 		.4byte	0x1013
 2738 0bf1 0D0C0000 		.4byte	0xc0d
 2739 0bf5 22       		.uleb128 0x22
 2740 0bf6 01       		.uleb128 0x1
 2741 0bf7 53       		.byte	0x53
 2742 0bf8 01       		.uleb128 0x1
 2743 0bf9 30       		.byte	0x30
 2744 0bfa 22       		.uleb128 0x22
 2745 0bfb 01       		.uleb128 0x1
 2746 0bfc 52       		.byte	0x52
 2747 0bfd 01       		.uleb128 0x1
 2748 0bfe 38       		.byte	0x38
 2749 0bff 22       		.uleb128 0x22
 2750 0c00 01       		.uleb128 0x1
 2751 0c01 51       		.byte	0x51
 2752 0c02 03       		.uleb128 0x3
 2753 0c03 74       		.byte	0x74
 2754 0c04 04       		.sleb128 4
 2755 0c05 06       		.byte	0x6
 2756 0c06 22       		.uleb128 0x22
 2757 0c07 01       		.uleb128 0x1
 2758 0c08 50       		.byte	0x50
 2759 0c09 02       		.uleb128 0x2
 2760 0c0a 75       		.byte	0x75
 2761 0c0b 00       		.sleb128 0
 2762 0c0c 00       		.byte	0
 2763 0c0d 28       		.uleb128 0x28
 2764 0c0e FA000000 		.4byte	.LVL97
 2765 0c12 4A0F0000 		.4byte	0xf4a
 2766 0c16 200C0000 		.4byte	0xc20
 2767 0c1a 22       		.uleb128 0x22
 2768 0c1b 01       		.uleb128 0x1
 2769 0c1c 50       		.byte	0x50
 2770 0c1d 01       		.uleb128 0x1
 2771 0c1e 36       		.byte	0x36
 2772 0c1f 00       		.byte	0
ARM GAS  /var/folders/qh/xwg3v3kj02qbxczjpdb8lzfr0000gn/T//ccSPuUNF.s 			page 50


 2773 0c20 27       		.uleb128 0x27
 2774 0c21 06010000 		.4byte	.LVL98
 2775 0c25 280F0000 		.4byte	0xf28
 2776 0c29 28       		.uleb128 0x28
 2777 0c2a 14010000 		.4byte	.LVL99
 2778 0c2e 4A0F0000 		.4byte	0xf4a
 2779 0c32 3C0C0000 		.4byte	0xc3c
 2780 0c36 22       		.uleb128 0x22
 2781 0c37 01       		.uleb128 0x1
 2782 0c38 50       		.byte	0x50
 2783 0c39 01       		.uleb128 0x1
 2784 0c3a 37       		.byte	0x37
 2785 0c3b 00       		.byte	0
 2786 0c3c 27       		.uleb128 0x27
 2787 0c3d 1E010000 		.4byte	.LVL100
 2788 0c41 210F0000 		.4byte	0xf21
 2789 0c45 28       		.uleb128 0x28
 2790 0c46 3C010000 		.4byte	.LVL101
 2791 0c4a CC0F0000 		.4byte	0xfcc
 2792 0c4e 700C0000 		.4byte	0xc70
 2793 0c52 22       		.uleb128 0x22
 2794 0c53 01       		.uleb128 0x1
 2795 0c54 53       		.byte	0x53
 2796 0c55 05       		.uleb128 0x5
 2797 0c56 03       		.byte	0x3
 2798 0c57 00000000 		.4byte	thread2
 2799 0c5b 22       		.uleb128 0x22
 2800 0c5c 01       		.uleb128 0x1
 2801 0c5d 51       		.byte	0x51
 2802 0c5e 03       		.uleb128 0x3
 2803 0c5f 0A       		.byte	0xa
 2804 0c60 3001     		.2byte	0x130
 2805 0c62 22       		.uleb128 0x22
 2806 0c63 01       		.uleb128 0x1
 2807 0c64 50       		.byte	0x50
 2808 0c65 03       		.uleb128 0x3
 2809 0c66 74       		.byte	0x74
 2810 0c67 00       		.sleb128 0
 2811 0c68 06       		.byte	0x6
 2812 0c69 22       		.uleb128 0x22
 2813 0c6a 02       		.uleb128 0x2
 2814 0c6b 7D       		.byte	0x7d
 2815 0c6c 00       		.sleb128 0
 2816 0c6d 01       		.uleb128 0x1
 2817 0c6e 30       		.byte	0x30
 2818 0c6f 00       		.byte	0
 2819 0c70 27       		.uleb128 0x27
 2820 0c71 46010000 		.4byte	.LVL102
 2821 0c75 280F0000 		.4byte	0xf28
 2822 0c79 28       		.uleb128 0x28
 2823 0c7a 5E010000 		.4byte	.LVL103
 2824 0c7e 4A0F0000 		.4byte	0xf4a
 2825 0c82 8C0C0000 		.4byte	0xc8c
 2826 0c86 22       		.uleb128 0x22
 2827 0c87 01       		.uleb128 0x1
 2828 0c88 50       		.byte	0x50
 2829 0c89 01       		.uleb128 0x1
ARM GAS  /var/folders/qh/xwg3v3kj02qbxczjpdb8lzfr0000gn/T//ccSPuUNF.s 			page 51


 2830 0c8a 38       		.byte	0x38
 2831 0c8b 00       		.byte	0
 2832 0c8c 27       		.uleb128 0x27
 2833 0c8d 66010000 		.4byte	.LVL104
 2834 0c91 210F0000 		.4byte	0xf21
 2835 0c95 27       		.uleb128 0x27
 2836 0c96 6C010000 		.4byte	.LVL105
 2837 0c9a F60F0000 		.4byte	0xff6
 2838 0c9e 27       		.uleb128 0x27
 2839 0c9f 72010000 		.4byte	.LVL106
 2840 0ca3 280F0000 		.4byte	0xf28
 2841 0ca7 28       		.uleb128 0x28
 2842 0ca8 78010000 		.4byte	.LVL107
 2843 0cac 38100000 		.4byte	0x1038
 2844 0cb0 BB0C0000 		.4byte	0xcbb
 2845 0cb4 22       		.uleb128 0x22
 2846 0cb5 01       		.uleb128 0x1
 2847 0cb6 50       		.byte	0x50
 2848 0cb7 02       		.uleb128 0x2
 2849 0cb8 75       		.byte	0x75
 2850 0cb9 00       		.sleb128 0
 2851 0cba 00       		.byte	0
 2852 0cbb 27       		.uleb128 0x27
 2853 0cbc 7C010000 		.4byte	.LVL108
 2854 0cc0 210F0000 		.4byte	0xf21
 2855 0cc4 27       		.uleb128 0x27
 2856 0cc5 84010000 		.4byte	.LVL109
 2857 0cc9 280F0000 		.4byte	0xf28
 2858 0ccd 28       		.uleb128 0x28
 2859 0cce 9C010000 		.4byte	.LVL110
 2860 0cd2 4A0F0000 		.4byte	0xf4a
 2861 0cd6 E00C0000 		.4byte	0xce0
 2862 0cda 22       		.uleb128 0x22
 2863 0cdb 01       		.uleb128 0x1
 2864 0cdc 50       		.byte	0x50
 2865 0cdd 01       		.uleb128 0x1
 2866 0cde 39       		.byte	0x39
 2867 0cdf 00       		.byte	0
 2868 0ce0 27       		.uleb128 0x27
 2869 0ce1 A4010000 		.4byte	.LVL111
 2870 0ce5 210F0000 		.4byte	0xf21
 2871 0ce9 28       		.uleb128 0x28
 2872 0cea B4010000 		.4byte	.LVL112
 2873 0cee 13100000 		.4byte	0x1013
 2874 0cf2 0D0D0000 		.4byte	0xd0d
 2875 0cf6 22       		.uleb128 0x22
 2876 0cf7 01       		.uleb128 0x1
 2877 0cf8 53       		.byte	0x53
 2878 0cf9 01       		.uleb128 0x1
 2879 0cfa 30       		.byte	0x30
 2880 0cfb 22       		.uleb128 0x22
 2881 0cfc 01       		.uleb128 0x1
 2882 0cfd 52       		.byte	0x52
 2883 0cfe 01       		.uleb128 0x1
 2884 0cff 32       		.byte	0x32
 2885 0d00 22       		.uleb128 0x22
 2886 0d01 01       		.uleb128 0x1
ARM GAS  /var/folders/qh/xwg3v3kj02qbxczjpdb8lzfr0000gn/T//ccSPuUNF.s 			page 52


 2887 0d02 51       		.byte	0x51
 2888 0d03 02       		.uleb128 0x2
 2889 0d04 74       		.byte	0x74
 2890 0d05 00       		.sleb128 0
 2891 0d06 22       		.uleb128 0x22
 2892 0d07 01       		.uleb128 0x1
 2893 0d08 50       		.byte	0x50
 2894 0d09 02       		.uleb128 0x2
 2895 0d0a 75       		.byte	0x75
 2896 0d0b 00       		.sleb128 0
 2897 0d0c 00       		.byte	0
 2898 0d0d 28       		.uleb128 0x28
 2899 0d0e C2010000 		.4byte	.LVL114
 2900 0d12 4A0F0000 		.4byte	0xf4a
 2901 0d16 200D0000 		.4byte	0xd20
 2902 0d1a 22       		.uleb128 0x22
 2903 0d1b 01       		.uleb128 0x1
 2904 0d1c 50       		.byte	0x50
 2905 0d1d 01       		.uleb128 0x1
 2906 0d1e 3A       		.byte	0x3a
 2907 0d1f 00       		.byte	0
 2908 0d20 28       		.uleb128 0x28
 2909 0d21 D2010000 		.4byte	.LVL115
 2910 0d25 13100000 		.4byte	0x1013
 2911 0d29 440D0000 		.4byte	0xd44
 2912 0d2d 22       		.uleb128 0x22
 2913 0d2e 01       		.uleb128 0x1
 2914 0d2f 53       		.byte	0x53
 2915 0d30 01       		.uleb128 0x1
 2916 0d31 30       		.byte	0x30
 2917 0d32 22       		.uleb128 0x22
 2918 0d33 01       		.uleb128 0x1
 2919 0d34 52       		.byte	0x52
 2920 0d35 01       		.uleb128 0x1
 2921 0d36 32       		.byte	0x32
 2922 0d37 22       		.uleb128 0x22
 2923 0d38 01       		.uleb128 0x1
 2924 0d39 51       		.byte	0x51
 2925 0d3a 02       		.uleb128 0x2
 2926 0d3b 74       		.byte	0x74
 2927 0d3c 00       		.sleb128 0
 2928 0d3d 22       		.uleb128 0x22
 2929 0d3e 01       		.uleb128 0x1
 2930 0d3f 50       		.byte	0x50
 2931 0d40 02       		.uleb128 0x2
 2932 0d41 75       		.byte	0x75
 2933 0d42 00       		.sleb128 0
 2934 0d43 00       		.byte	0
 2935 0d44 28       		.uleb128 0x28
 2936 0d45 E0010000 		.4byte	.LVL117
 2937 0d49 4A0F0000 		.4byte	0xf4a
 2938 0d4d 570D0000 		.4byte	0xd57
 2939 0d51 22       		.uleb128 0x22
 2940 0d52 01       		.uleb128 0x1
 2941 0d53 50       		.byte	0x50
 2942 0d54 01       		.uleb128 0x1
 2943 0d55 3B       		.byte	0x3b
ARM GAS  /var/folders/qh/xwg3v3kj02qbxczjpdb8lzfr0000gn/T//ccSPuUNF.s 			page 53


 2944 0d56 00       		.byte	0
 2945 0d57 27       		.uleb128 0x27
 2946 0d58 EA010000 		.4byte	.LVL118
 2947 0d5c 280F0000 		.4byte	0xf28
 2948 0d60 28       		.uleb128 0x28
 2949 0d61 F8010000 		.4byte	.LVL119
 2950 0d65 4A0F0000 		.4byte	0xf4a
 2951 0d69 730D0000 		.4byte	0xd73
 2952 0d6d 22       		.uleb128 0x22
 2953 0d6e 01       		.uleb128 0x1
 2954 0d6f 50       		.byte	0x50
 2955 0d70 01       		.uleb128 0x1
 2956 0d71 3C       		.byte	0x3c
 2957 0d72 00       		.byte	0
 2958 0d73 27       		.uleb128 0x27
 2959 0d74 00020000 		.4byte	.LVL120
 2960 0d78 210F0000 		.4byte	0xf21
 2961 0d7c 28       		.uleb128 0x28
 2962 0d7d 0C020000 		.4byte	.LVL121
 2963 0d81 D50E0000 		.4byte	0xed5
 2964 0d85 9A0D0000 		.4byte	0xd9a
 2965 0d89 22       		.uleb128 0x22
 2966 0d8a 01       		.uleb128 0x1
 2967 0d8b 52       		.byte	0x52
 2968 0d8c 01       		.uleb128 0x1
 2969 0d8d 3A       		.byte	0x3a
 2970 0d8e 22       		.uleb128 0x22
 2971 0d8f 01       		.uleb128 0x1
 2972 0d90 51       		.byte	0x51
 2973 0d91 01       		.uleb128 0x1
 2974 0d92 30       		.byte	0x30
 2975 0d93 22       		.uleb128 0x22
 2976 0d94 01       		.uleb128 0x1
 2977 0d95 50       		.byte	0x50
 2978 0d96 02       		.uleb128 0x2
 2979 0d97 75       		.byte	0x75
 2980 0d98 00       		.sleb128 0
 2981 0d99 00       		.byte	0
 2982 0d9a 28       		.uleb128 0x28
 2983 0d9b 1A020000 		.4byte	.LVL122
 2984 0d9f 4A0F0000 		.4byte	0xf4a
 2985 0da3 AD0D0000 		.4byte	0xdad
 2986 0da7 22       		.uleb128 0x22
 2987 0da8 01       		.uleb128 0x1
 2988 0da9 50       		.byte	0x50
 2989 0daa 01       		.uleb128 0x1
 2990 0dab 3D       		.byte	0x3d
 2991 0dac 00       		.byte	0
 2992 0dad 27       		.uleb128 0x27
 2993 0dae 20020000 		.4byte	.LVL124
 2994 0db2 210F0000 		.4byte	0xf21
 2995 0db6 00       		.byte	0
 2996 0db7 27       		.uleb128 0x27
 2997 0db8 0A000000 		.4byte	.LVL70
 2998 0dbc 280F0000 		.4byte	0xf28
 2999 0dc0 21       		.uleb128 0x21
 3000 0dc1 1E000000 		.4byte	.LVL71
ARM GAS  /var/folders/qh/xwg3v3kj02qbxczjpdb8lzfr0000gn/T//ccSPuUNF.s 			page 54


 3001 0dc5 4A0F0000 		.4byte	0xf4a
 3002 0dc9 22       		.uleb128 0x22
 3003 0dca 01       		.uleb128 0x1
 3004 0dcb 50       		.byte	0x50
 3005 0dcc 01       		.uleb128 0x1
 3006 0dcd 31       		.byte	0x31
 3007 0dce 00       		.byte	0
 3008 0dcf 00       		.byte	0
 3009 0dd0 2A       		.uleb128 0x2a
 3010 0dd1 697100   		.ascii	"iq\000"
 3011 0dd4 01       		.byte	0x1
 3012 0dd5 42       		.byte	0x42
 3013 0dd6 C6040000 		.4byte	0x4c6
 3014 0dda 05       		.uleb128 0x5
 3015 0ddb 03       		.byte	0x3
 3016 0ddc 00000000 		.4byte	iq
 3017 0de0 2A       		.uleb128 0x2a
 3018 0de1 6F7100   		.ascii	"oq\000"
 3019 0de4 01       		.byte	0x1
 3020 0de5 43       		.byte	0x43
 3021 0de6 D1040000 		.4byte	0x4d1
 3022 0dea 05       		.uleb128 0x5
 3023 0deb 03       		.byte	0x3
 3024 0dec 00000000 		.4byte	oq
 3025 0df0 2B       		.uleb128 0x2b
 3026 0df1 67050000 		.4byte	.LASF93
 3027 0df5 08       		.byte	0x8
 3028 0df6 68       		.byte	0x68
 3029 0df7 6C030000 		.4byte	0x36c
 3030 0dfb 15       		.uleb128 0x15
 3031 0dfc 35020000 		.4byte	0x235
 3032 0e00 0B0E0000 		.4byte	0xe0b
 3033 0e04 16       		.uleb128 0x16
 3034 0e05 0F030000 		.4byte	0x30f
 3035 0e09 04       		.byte	0x4
 3036 0e0a 00       		.byte	0
 3037 0e0b 2B       		.uleb128 0x2b
 3038 0e0c 9D040000 		.4byte	.LASF94
 3039 0e10 0B       		.byte	0xb
 3040 0e11 A5       		.byte	0xa5
 3041 0e12 FB0D0000 		.4byte	0xdfb
 3042 0e16 2B       		.uleb128 0x2b
 3043 0e17 AF000000 		.4byte	.LASF95
 3044 0e1b 0B       		.byte	0xb
 3045 0e1c A6       		.byte	0xa6
 3046 0e1d 80050000 		.4byte	0x580
 3047 0e21 15       		.uleb128 0x15
 3048 0e22 71020000 		.4byte	0x271
 3049 0e26 2C0E0000 		.4byte	0xe2c
 3050 0e2a 2C       		.uleb128 0x2c
 3051 0e2b 00       		.byte	0
 3052 0e2c 2D       		.uleb128 0x2d
 3053 0e2d 776100   		.ascii	"wa\000"
 3054 0e30 0B       		.byte	0xb
 3055 0e31 A7       		.byte	0xa7
 3056 0e32 360E0000 		.4byte	0xe36
 3057 0e36 0E       		.uleb128 0xe
ARM GAS  /var/folders/qh/xwg3v3kj02qbxczjpdb8lzfr0000gn/T//ccSPuUNF.s 			page 55


 3058 0e37 210E0000 		.4byte	0xe21
 3059 0e3b 2E       		.uleb128 0x2e
 3060 0e3c FC010000 		.4byte	.LASF96
 3061 0e40 01       		.byte	0x1
 3062 0e41 95       		.byte	0x95
 3063 0e42 4C0E0000 		.4byte	0xe4c
 3064 0e46 05       		.uleb128 0x5
 3065 0e47 03       		.byte	0x3
 3066 0e48 00000000 		.4byte	testqueues1
 3067 0e4c 0E       		.uleb128 0xe
 3068 0e4d E7040000 		.4byte	0x4e7
 3069 0e51 2E       		.uleb128 0x2e
 3070 0e52 8D030000 		.4byte	.LASF97
 3071 0e56 01       		.byte	0x1
 3072 0e57 E3       		.byte	0xe3
 3073 0e58 4C0E0000 		.4byte	0xe4c
 3074 0e5c 05       		.uleb128 0x5
 3075 0e5d 03       		.byte	0x3
 3076 0e5e 00000000 		.4byte	testqueues2
 3077 0e62 15       		.uleb128 0x15
 3078 0e63 720E0000 		.4byte	0xe72
 3079 0e67 720E0000 		.4byte	0xe72
 3080 0e6b 16       		.uleb128 0x16
 3081 0e6c 0F030000 		.4byte	0x30f
 3082 0e70 02       		.byte	0x2
 3083 0e71 00       		.byte	0
 3084 0e72 09       		.uleb128 0x9
 3085 0e73 04       		.byte	0x4
 3086 0e74 4C0E0000 		.4byte	0xe4c
 3087 0e78 2E       		.uleb128 0x2e
 3088 0e79 59000000 		.4byte	.LASF98
 3089 0e7d 01       		.byte	0x1
 3090 0e7e EE       		.byte	0xee
 3091 0e7f 890E0000 		.4byte	0xe89
 3092 0e83 05       		.uleb128 0x5
 3093 0e84 03       		.byte	0x3
 3094 0e85 00000000 		.4byte	patternqueues
 3095 0e89 0E       		.uleb128 0xe
 3096 0e8a 620E0000 		.4byte	0xe62
 3097 0e8e 2F       		.uleb128 0x2f
 3098 0e8f AF050000 		.4byte	.LASF99
 3099 0e93 0A       		.byte	0xa
 3100 0e94 5F01     		.2byte	0x15f
 3101 0e96 EB000000 		.4byte	0xeb
 3102 0e9a A90E0000 		.4byte	0xea9
 3103 0e9e 10       		.uleb128 0x10
 3104 0e9f A90E0000 		.4byte	0xea9
 3105 0ea3 10       		.uleb128 0x10
 3106 0ea4 01010000 		.4byte	0x101
 3107 0ea8 00       		.byte	0
 3108 0ea9 09       		.uleb128 0x9
 3109 0eaa 04       		.byte	0x4
 3110 0eab C6040000 		.4byte	0x4c6
 3111 0eaf 30       		.uleb128 0x30
 3112 0eb0 2B000000 		.4byte	.LASF101
 3113 0eb4 0A       		.byte	0xa
 3114 0eb5 5B01     		.2byte	0x15b
ARM GAS  /var/folders/qh/xwg3v3kj02qbxczjpdb8lzfr0000gn/T//ccSPuUNF.s 			page 56


 3115 0eb7 D50E0000 		.4byte	0xed5
 3116 0ebb 10       		.uleb128 0x10
 3117 0ebc A90E0000 		.4byte	0xea9
 3118 0ec0 10       		.uleb128 0x10
 3119 0ec1 C0040000 		.4byte	0x4c0
 3120 0ec5 10       		.uleb128 0x10
 3121 0ec6 2C000000 		.4byte	0x2c
 3122 0eca 10       		.uleb128 0x10
 3123 0ecb 9E040000 		.4byte	0x49e
 3124 0ecf 10       		.uleb128 0x10
 3125 0ed0 71020000 		.4byte	0x271
 3126 0ed4 00       		.byte	0
 3127 0ed5 2F       		.uleb128 0x2f
 3128 0ed6 00000000 		.4byte	.LASF100
 3129 0eda 0A       		.byte	0xa
 3130 0edb 6601     		.2byte	0x166
 3131 0edd EB000000 		.4byte	0xeb
 3132 0ee1 F50E0000 		.4byte	0xef5
 3133 0ee5 10       		.uleb128 0x10
 3134 0ee6 F50E0000 		.4byte	0xef5
 3135 0eea 10       		.uleb128 0x10
 3136 0eeb 45000000 		.4byte	0x45
 3137 0eef 10       		.uleb128 0x10
 3138 0ef0 01010000 		.4byte	0x101
 3139 0ef4 00       		.byte	0
 3140 0ef5 09       		.uleb128 0x9
 3141 0ef6 04       		.byte	0x4
 3142 0ef7 D1040000 		.4byte	0x4d1
 3143 0efb 30       		.uleb128 0x30
 3144 0efc 8F000000 		.4byte	.LASF102
 3145 0f00 0A       		.byte	0xa
 3146 0f01 6301     		.2byte	0x163
 3147 0f03 210F0000 		.4byte	0xf21
 3148 0f07 10       		.uleb128 0x10
 3149 0f08 F50E0000 		.4byte	0xef5
 3150 0f0c 10       		.uleb128 0x10
 3151 0f0d C0040000 		.4byte	0x4c0
 3152 0f11 10       		.uleb128 0x10
 3153 0f12 2C000000 		.4byte	0x2c
 3154 0f16 10       		.uleb128 0x10
 3155 0f17 9E040000 		.4byte	0x49e
 3156 0f1b 10       		.uleb128 0x10
 3157 0f1c 71020000 		.4byte	0x271
 3158 0f20 00       		.byte	0
 3159 0f21 31       		.uleb128 0x31
 3160 0f22 70020000 		.4byte	.LASF103
 3161 0f26 0C       		.byte	0xc
 3162 0f27 E1       		.byte	0xe1
 3163 0f28 31       		.uleb128 0x31
 3164 0f29 A4020000 		.4byte	.LASF104
 3165 0f2d 0C       		.byte	0xc
 3166 0f2e E0       		.byte	0xe0
 3167 0f2f 2F       		.uleb128 0x2f
 3168 0f30 55010000 		.4byte	.LASF105
 3169 0f34 0A       		.byte	0xa
 3170 0f35 5E01     		.2byte	0x15e
 3171 0f37 EB000000 		.4byte	0xeb
ARM GAS  /var/folders/qh/xwg3v3kj02qbxczjpdb8lzfr0000gn/T//ccSPuUNF.s 			page 57


 3172 0f3b 4A0F0000 		.4byte	0xf4a
 3173 0f3f 10       		.uleb128 0x10
 3174 0f40 A90E0000 		.4byte	0xea9
 3175 0f44 10       		.uleb128 0x10
 3176 0f45 45000000 		.4byte	0x45
 3177 0f49 00       		.byte	0
 3178 0f4a 32       		.uleb128 0x32
 3179 0f4b 83050000 		.4byte	.LASF106
 3180 0f4f 0B       		.byte	0xb
 3181 0f50 58       		.byte	0x58
 3182 0f51 A2000000 		.4byte	0xa2
 3183 0f55 640F0000 		.4byte	0xf64
 3184 0f59 10       		.uleb128 0x10
 3185 0f5a 37000000 		.4byte	0x37
 3186 0f5e 10       		.uleb128 0x10
 3187 0f5f A2000000 		.4byte	0xa2
 3188 0f63 00       		.byte	0
 3189 0f64 33       		.uleb128 0x33
 3190 0f65 F6000000 		.4byte	.LASF107
 3191 0f69 0B       		.byte	0xb
 3192 0f6a 56       		.byte	0x56
 3193 0f6b 750F0000 		.4byte	0xf75
 3194 0f6f 10       		.uleb128 0x10
 3195 0f70 F9030000 		.4byte	0x3f9
 3196 0f74 00       		.byte	0
 3197 0f75 32       		.uleb128 0x32
 3198 0f76 DC030000 		.4byte	.LASF108
 3199 0f7a 0B       		.byte	0xb
 3200 0f7b 59       		.byte	0x59
 3201 0f7c A2000000 		.4byte	0xa2
 3202 0f80 8F0F0000 		.4byte	0xf8f
 3203 0f84 10       		.uleb128 0x10
 3204 0f85 37000000 		.4byte	0x37
 3205 0f89 10       		.uleb128 0x10
 3206 0f8a 8F0F0000 		.4byte	0xf8f
 3207 0f8e 00       		.byte	0
 3208 0f8f 09       		.uleb128 0x9
 3209 0f90 04       		.byte	0x4
 3210 0f91 F9030000 		.4byte	0x3f9
 3211 0f95 2F       		.uleb128 0x2f
 3212 0f96 49000000 		.4byte	.LASF109
 3213 0f9a 0A       		.byte	0xa
 3214 0f9b 6001     		.2byte	0x160
 3215 0f9d 2C000000 		.4byte	0x2c
 3216 0fa1 BA0F0000 		.4byte	0xfba
 3217 0fa5 10       		.uleb128 0x10
 3218 0fa6 A90E0000 		.4byte	0xea9
 3219 0faa 10       		.uleb128 0x10
 3220 0fab C0040000 		.4byte	0x4c0
 3221 0faf 10       		.uleb128 0x10
 3222 0fb0 2C000000 		.4byte	0x2c
 3223 0fb4 10       		.uleb128 0x10
 3224 0fb5 01010000 		.4byte	0x101
 3225 0fb9 00       		.byte	0
 3226 0fba 30       		.uleb128 0x30
 3227 0fbb 6B010000 		.4byte	.LASF110
 3228 0fbf 0A       		.byte	0xa
ARM GAS  /var/folders/qh/xwg3v3kj02qbxczjpdb8lzfr0000gn/T//ccSPuUNF.s 			page 58


 3229 0fc0 5D01     		.2byte	0x15d
 3230 0fc2 CC0F0000 		.4byte	0xfcc
 3231 0fc6 10       		.uleb128 0x10
 3232 0fc7 A90E0000 		.4byte	0xea9
 3233 0fcb 00       		.byte	0
 3234 0fcc 2F       		.uleb128 0x2f
 3235 0fcd 57020000 		.4byte	.LASF111
 3236 0fd1 06       		.byte	0x6
 3237 0fd2 6901     		.2byte	0x169
 3238 0fd4 35020000 		.4byte	0x235
 3239 0fd8 F60F0000 		.4byte	0xff6
 3240 0fdc 10       		.uleb128 0x10
 3241 0fdd 71020000 		.4byte	0x271
 3242 0fe1 10       		.uleb128 0x10
 3243 0fe2 2C000000 		.4byte	0x2c
 3244 0fe6 10       		.uleb128 0x10
 3245 0fe7 E0000000 		.4byte	0xe0
 3246 0feb 10       		.uleb128 0x10
 3247 0fec 06040000 		.4byte	0x406
 3248 0ff0 10       		.uleb128 0x10
 3249 0ff1 71020000 		.4byte	0x271
 3250 0ff5 00       		.byte	0
 3251 0ff6 31       		.uleb128 0x31
 3252 0ff7 99030000 		.4byte	.LASF112
 3253 0ffb 0B       		.byte	0xb
 3254 0ffc 5C       		.byte	0x5c
 3255 0ffd 2F       		.uleb128 0x2f
 3256 0ffe 22010000 		.4byte	.LASF113
 3257 1002 0A       		.byte	0xa
 3258 1003 6701     		.2byte	0x167
 3259 1005 EB000000 		.4byte	0xeb
 3260 1009 13100000 		.4byte	0x1013
 3261 100d 10       		.uleb128 0x10
 3262 100e F50E0000 		.4byte	0xef5
 3263 1012 00       		.byte	0
 3264 1013 2F       		.uleb128 0x2f
 3265 1014 7E000000 		.4byte	.LASF114
 3266 1018 0A       		.byte	0xa
 3267 1019 6801     		.2byte	0x168
 3268 101b 2C000000 		.4byte	0x2c
 3269 101f 38100000 		.4byte	0x1038
 3270 1023 10       		.uleb128 0x10
 3271 1024 F50E0000 		.4byte	0xef5
 3272 1028 10       		.uleb128 0x10
 3273 1029 DC040000 		.4byte	0x4dc
 3274 102d 10       		.uleb128 0x10
 3275 102e 2C000000 		.4byte	0x2c
 3276 1032 10       		.uleb128 0x10
 3277 1033 01010000 		.4byte	0x101
 3278 1037 00       		.byte	0
 3279 1038 34       		.uleb128 0x34
 3280 1039 23050000 		.4byte	.LASF119
 3281 103d 0A       		.byte	0xa
 3282 103e 6501     		.2byte	0x165
 3283 1040 10       		.uleb128 0x10
 3284 1041 F50E0000 		.4byte	0xef5
 3285 1045 00       		.byte	0
ARM GAS  /var/folders/qh/xwg3v3kj02qbxczjpdb8lzfr0000gn/T//ccSPuUNF.s 			page 59


 3286 1046 00       		.byte	0
 3287              		.section	.debug_abbrev,"",%progbits
 3288              	.Ldebug_abbrev0:
 3289 0000 01       		.uleb128 0x1
 3290 0001 11       		.uleb128 0x11
 3291 0002 01       		.byte	0x1
 3292 0003 25       		.uleb128 0x25
 3293 0004 0E       		.uleb128 0xe
 3294 0005 13       		.uleb128 0x13
 3295 0006 0B       		.uleb128 0xb
 3296 0007 03       		.uleb128 0x3
 3297 0008 0E       		.uleb128 0xe
 3298 0009 1B       		.uleb128 0x1b
 3299 000a 0E       		.uleb128 0xe
 3300 000b 55       		.uleb128 0x55
 3301 000c 17       		.uleb128 0x17
 3302 000d 11       		.uleb128 0x11
 3303 000e 01       		.uleb128 0x1
 3304 000f 10       		.uleb128 0x10
 3305 0010 17       		.uleb128 0x17
 3306 0011 00       		.byte	0
 3307 0012 00       		.byte	0
 3308 0013 02       		.uleb128 0x2
 3309 0014 24       		.uleb128 0x24
 3310 0015 00       		.byte	0
 3311 0016 0B       		.uleb128 0xb
 3312 0017 0B       		.uleb128 0xb
 3313 0018 3E       		.uleb128 0x3e
 3314 0019 0B       		.uleb128 0xb
 3315 001a 03       		.uleb128 0x3
 3316 001b 08       		.uleb128 0x8
 3317 001c 00       		.byte	0
 3318 001d 00       		.byte	0
 3319 001e 03       		.uleb128 0x3
 3320 001f 16       		.uleb128 0x16
 3321 0020 00       		.byte	0
 3322 0021 03       		.uleb128 0x3
 3323 0022 0E       		.uleb128 0xe
 3324 0023 3A       		.uleb128 0x3a
 3325 0024 0B       		.uleb128 0xb
 3326 0025 3B       		.uleb128 0x3b
 3327 0026 0B       		.uleb128 0xb
 3328 0027 49       		.uleb128 0x49
 3329 0028 13       		.uleb128 0x13
 3330 0029 00       		.byte	0
 3331 002a 00       		.byte	0
 3332 002b 04       		.uleb128 0x4
 3333 002c 24       		.uleb128 0x24
 3334 002d 00       		.byte	0
 3335 002e 0B       		.uleb128 0xb
 3336 002f 0B       		.uleb128 0xb
 3337 0030 3E       		.uleb128 0x3e
 3338 0031 0B       		.uleb128 0xb
 3339 0032 03       		.uleb128 0x3
 3340 0033 0E       		.uleb128 0xe
 3341 0034 00       		.byte	0
 3342 0035 00       		.byte	0
ARM GAS  /var/folders/qh/xwg3v3kj02qbxczjpdb8lzfr0000gn/T//ccSPuUNF.s 			page 60


 3343 0036 05       		.uleb128 0x5
 3344 0037 13       		.uleb128 0x13
 3345 0038 01       		.byte	0x1
 3346 0039 03       		.uleb128 0x3
 3347 003a 0E       		.uleb128 0xe
 3348 003b 0B       		.uleb128 0xb
 3349 003c 0B       		.uleb128 0xb
 3350 003d 3A       		.uleb128 0x3a
 3351 003e 0B       		.uleb128 0xb
 3352 003f 3B       		.uleb128 0x3b
 3353 0040 0B       		.uleb128 0xb
 3354 0041 01       		.uleb128 0x1
 3355 0042 13       		.uleb128 0x13
 3356 0043 00       		.byte	0
 3357 0044 00       		.byte	0
 3358 0045 06       		.uleb128 0x6
 3359 0046 0D       		.uleb128 0xd
 3360 0047 00       		.byte	0
 3361 0048 03       		.uleb128 0x3
 3362 0049 0E       		.uleb128 0xe
 3363 004a 3A       		.uleb128 0x3a
 3364 004b 0B       		.uleb128 0xb
 3365 004c 3B       		.uleb128 0x3b
 3366 004d 0B       		.uleb128 0xb
 3367 004e 49       		.uleb128 0x49
 3368 004f 13       		.uleb128 0x13
 3369 0050 38       		.uleb128 0x38
 3370 0051 0B       		.uleb128 0xb
 3371 0052 00       		.byte	0
 3372 0053 00       		.byte	0
 3373 0054 07       		.uleb128 0x7
 3374 0055 0D       		.uleb128 0xd
 3375 0056 00       		.byte	0
 3376 0057 03       		.uleb128 0x3
 3377 0058 08       		.uleb128 0x8
 3378 0059 3A       		.uleb128 0x3a
 3379 005a 0B       		.uleb128 0xb
 3380 005b 3B       		.uleb128 0x3b
 3381 005c 0B       		.uleb128 0xb
 3382 005d 49       		.uleb128 0x49
 3383 005e 13       		.uleb128 0x13
 3384 005f 38       		.uleb128 0x38
 3385 0060 0B       		.uleb128 0xb
 3386 0061 00       		.byte	0
 3387 0062 00       		.byte	0
 3388 0063 08       		.uleb128 0x8
 3389 0064 13       		.uleb128 0x13
 3390 0065 01       		.byte	0x1
 3391 0066 0B       		.uleb128 0xb
 3392 0067 0B       		.uleb128 0xb
 3393 0068 3A       		.uleb128 0x3a
 3394 0069 0B       		.uleb128 0xb
 3395 006a 3B       		.uleb128 0x3b
 3396 006b 0B       		.uleb128 0xb
 3397 006c 01       		.uleb128 0x1
 3398 006d 13       		.uleb128 0x13
 3399 006e 00       		.byte	0
ARM GAS  /var/folders/qh/xwg3v3kj02qbxczjpdb8lzfr0000gn/T//ccSPuUNF.s 			page 61


 3400 006f 00       		.byte	0
 3401 0070 09       		.uleb128 0x9
 3402 0071 0F       		.uleb128 0xf
 3403 0072 00       		.byte	0
 3404 0073 0B       		.uleb128 0xb
 3405 0074 0B       		.uleb128 0xb
 3406 0075 49       		.uleb128 0x49
 3407 0076 13       		.uleb128 0x13
 3408 0077 00       		.byte	0
 3409 0078 00       		.byte	0
 3410 0079 0A       		.uleb128 0xa
 3411 007a 0F       		.uleb128 0xf
 3412 007b 00       		.byte	0
 3413 007c 0B       		.uleb128 0xb
 3414 007d 0B       		.uleb128 0xb
 3415 007e 00       		.byte	0
 3416 007f 00       		.byte	0
 3417 0080 0B       		.uleb128 0xb
 3418 0081 35       		.uleb128 0x35
 3419 0082 00       		.byte	0
 3420 0083 49       		.uleb128 0x49
 3421 0084 13       		.uleb128 0x13
 3422 0085 00       		.byte	0
 3423 0086 00       		.byte	0
 3424 0087 0C       		.uleb128 0xc
 3425 0088 17       		.uleb128 0x17
 3426 0089 01       		.byte	0x1
 3427 008a 0B       		.uleb128 0xb
 3428 008b 0B       		.uleb128 0xb
 3429 008c 3A       		.uleb128 0x3a
 3430 008d 0B       		.uleb128 0xb
 3431 008e 3B       		.uleb128 0x3b
 3432 008f 0B       		.uleb128 0xb
 3433 0090 01       		.uleb128 0x1
 3434 0091 13       		.uleb128 0x13
 3435 0092 00       		.byte	0
 3436 0093 00       		.byte	0
 3437 0094 0D       		.uleb128 0xd
 3438 0095 0D       		.uleb128 0xd
 3439 0096 00       		.byte	0
 3440 0097 03       		.uleb128 0x3
 3441 0098 0E       		.uleb128 0xe
 3442 0099 3A       		.uleb128 0x3a
 3443 009a 0B       		.uleb128 0xb
 3444 009b 3B       		.uleb128 0x3b
 3445 009c 0B       		.uleb128 0xb
 3446 009d 49       		.uleb128 0x49
 3447 009e 13       		.uleb128 0x13
 3448 009f 00       		.byte	0
 3449 00a0 00       		.byte	0
 3450 00a1 0E       		.uleb128 0xe
 3451 00a2 26       		.uleb128 0x26
 3452 00a3 00       		.byte	0
 3453 00a4 49       		.uleb128 0x49
 3454 00a5 13       		.uleb128 0x13
 3455 00a6 00       		.byte	0
 3456 00a7 00       		.byte	0
ARM GAS  /var/folders/qh/xwg3v3kj02qbxczjpdb8lzfr0000gn/T//ccSPuUNF.s 			page 62


 3457 00a8 0F       		.uleb128 0xf
 3458 00a9 15       		.uleb128 0x15
 3459 00aa 01       		.byte	0x1
 3460 00ab 27       		.uleb128 0x27
 3461 00ac 19       		.uleb128 0x19
 3462 00ad 49       		.uleb128 0x49
 3463 00ae 13       		.uleb128 0x13
 3464 00af 01       		.uleb128 0x1
 3465 00b0 13       		.uleb128 0x13
 3466 00b1 00       		.byte	0
 3467 00b2 00       		.byte	0
 3468 00b3 10       		.uleb128 0x10
 3469 00b4 05       		.uleb128 0x5
 3470 00b5 00       		.byte	0
 3471 00b6 49       		.uleb128 0x49
 3472 00b7 13       		.uleb128 0x13
 3473 00b8 00       		.byte	0
 3474 00b9 00       		.byte	0
 3475 00ba 11       		.uleb128 0x11
 3476 00bb 15       		.uleb128 0x15
 3477 00bc 01       		.byte	0x1
 3478 00bd 27       		.uleb128 0x27
 3479 00be 19       		.uleb128 0x19
 3480 00bf 01       		.uleb128 0x1
 3481 00c0 13       		.uleb128 0x13
 3482 00c1 00       		.byte	0
 3483 00c2 00       		.byte	0
 3484 00c3 12       		.uleb128 0x12
 3485 00c4 15       		.uleb128 0x15
 3486 00c5 00       		.byte	0
 3487 00c6 27       		.uleb128 0x27
 3488 00c7 19       		.uleb128 0x19
 3489 00c8 00       		.byte	0
 3490 00c9 00       		.byte	0
 3491 00ca 13       		.uleb128 0x13
 3492 00cb 13       		.uleb128 0x13
 3493 00cc 01       		.byte	0x1
 3494 00cd 0B       		.uleb128 0xb
 3495 00ce 05       		.uleb128 0x5
 3496 00cf 3A       		.uleb128 0x3a
 3497 00d0 0B       		.uleb128 0xb
 3498 00d1 3B       		.uleb128 0x3b
 3499 00d2 0B       		.uleb128 0xb
 3500 00d3 01       		.uleb128 0x1
 3501 00d4 13       		.uleb128 0x13
 3502 00d5 00       		.byte	0
 3503 00d6 00       		.byte	0
 3504 00d7 14       		.uleb128 0x14
 3505 00d8 0D       		.uleb128 0xd
 3506 00d9 00       		.byte	0
 3507 00da 03       		.uleb128 0x3
 3508 00db 08       		.uleb128 0x8
 3509 00dc 3A       		.uleb128 0x3a
 3510 00dd 0B       		.uleb128 0xb
 3511 00de 3B       		.uleb128 0x3b
 3512 00df 0B       		.uleb128 0xb
 3513 00e0 49       		.uleb128 0x49
ARM GAS  /var/folders/qh/xwg3v3kj02qbxczjpdb8lzfr0000gn/T//ccSPuUNF.s 			page 63


 3514 00e1 13       		.uleb128 0x13
 3515 00e2 38       		.uleb128 0x38
 3516 00e3 05       		.uleb128 0x5
 3517 00e4 00       		.byte	0
 3518 00e5 00       		.byte	0
 3519 00e6 15       		.uleb128 0x15
 3520 00e7 01       		.uleb128 0x1
 3521 00e8 01       		.byte	0x1
 3522 00e9 49       		.uleb128 0x49
 3523 00ea 13       		.uleb128 0x13
 3524 00eb 01       		.uleb128 0x1
 3525 00ec 13       		.uleb128 0x13
 3526 00ed 00       		.byte	0
 3527 00ee 00       		.byte	0
 3528 00ef 16       		.uleb128 0x16
 3529 00f0 21       		.uleb128 0x21
 3530 00f1 00       		.byte	0
 3531 00f2 49       		.uleb128 0x49
 3532 00f3 13       		.uleb128 0x13
 3533 00f4 2F       		.uleb128 0x2f
 3534 00f5 0B       		.uleb128 0xb
 3535 00f6 00       		.byte	0
 3536 00f7 00       		.byte	0
 3537 00f8 17       		.uleb128 0x17
 3538 00f9 17       		.uleb128 0x17
 3539 00fa 01       		.byte	0x1
 3540 00fb 03       		.uleb128 0x3
 3541 00fc 0E       		.uleb128 0xe
 3542 00fd 0B       		.uleb128 0xb
 3543 00fe 05       		.uleb128 0x5
 3544 00ff 3A       		.uleb128 0x3a
 3545 0100 0B       		.uleb128 0xb
 3546 0101 3B       		.uleb128 0x3b
 3547 0102 0B       		.uleb128 0xb
 3548 0103 01       		.uleb128 0x1
 3549 0104 13       		.uleb128 0x13
 3550 0105 00       		.byte	0
 3551 0106 00       		.byte	0
 3552 0107 18       		.uleb128 0x18
 3553 0108 0D       		.uleb128 0xd
 3554 0109 00       		.byte	0
 3555 010a 03       		.uleb128 0x3
 3556 010b 08       		.uleb128 0x8
 3557 010c 3A       		.uleb128 0x3a
 3558 010d 0B       		.uleb128 0xb
 3559 010e 3B       		.uleb128 0x3b
 3560 010f 0B       		.uleb128 0xb
 3561 0110 49       		.uleb128 0x49
 3562 0111 13       		.uleb128 0x13
 3563 0112 00       		.byte	0
 3564 0113 00       		.byte	0
 3565 0114 19       		.uleb128 0x19
 3566 0115 21       		.uleb128 0x21
 3567 0116 00       		.byte	0
 3568 0117 49       		.uleb128 0x49
 3569 0118 13       		.uleb128 0x13
 3570 0119 2F       		.uleb128 0x2f
ARM GAS  /var/folders/qh/xwg3v3kj02qbxczjpdb8lzfr0000gn/T//ccSPuUNF.s 			page 64


 3571 011a 05       		.uleb128 0x5
 3572 011b 00       		.byte	0
 3573 011c 00       		.byte	0
 3574 011d 1A       		.uleb128 0x1a
 3575 011e 2E       		.uleb128 0x2e
 3576 011f 01       		.byte	0x1
 3577 0120 03       		.uleb128 0x3
 3578 0121 0E       		.uleb128 0xe
 3579 0122 3A       		.uleb128 0x3a
 3580 0123 0B       		.uleb128 0xb
 3581 0124 3B       		.uleb128 0x3b
 3582 0125 0B       		.uleb128 0xb
 3583 0126 27       		.uleb128 0x27
 3584 0127 19       		.uleb128 0x19
 3585 0128 20       		.uleb128 0x20
 3586 0129 0B       		.uleb128 0xb
 3587 012a 01       		.uleb128 0x1
 3588 012b 13       		.uleb128 0x13
 3589 012c 00       		.byte	0
 3590 012d 00       		.byte	0
 3591 012e 1B       		.uleb128 0x1b
 3592 012f 34       		.uleb128 0x34
 3593 0130 00       		.byte	0
 3594 0131 03       		.uleb128 0x3
 3595 0132 08       		.uleb128 0x8
 3596 0133 3A       		.uleb128 0x3a
 3597 0134 0B       		.uleb128 0xb
 3598 0135 3B       		.uleb128 0x3b
 3599 0136 0B       		.uleb128 0xb
 3600 0137 49       		.uleb128 0x49
 3601 0138 13       		.uleb128 0x13
 3602 0139 00       		.byte	0
 3603 013a 00       		.byte	0
 3604 013b 1C       		.uleb128 0x1c
 3605 013c 0B       		.uleb128 0xb
 3606 013d 01       		.byte	0x1
 3607 013e 00       		.byte	0
 3608 013f 00       		.byte	0
 3609 0140 1D       		.uleb128 0x1d
 3610 0141 2E       		.uleb128 0x2e
 3611 0142 01       		.byte	0x1
 3612 0143 03       		.uleb128 0x3
 3613 0144 0E       		.uleb128 0xe
 3614 0145 3A       		.uleb128 0x3a
 3615 0146 0B       		.uleb128 0xb
 3616 0147 3B       		.uleb128 0x3b
 3617 0148 0B       		.uleb128 0xb
 3618 0149 27       		.uleb128 0x27
 3619 014a 19       		.uleb128 0x19
 3620 014b 11       		.uleb128 0x11
 3621 014c 01       		.uleb128 0x1
 3622 014d 12       		.uleb128 0x12
 3623 014e 06       		.uleb128 0x6
 3624 014f 40       		.uleb128 0x40
 3625 0150 18       		.uleb128 0x18
 3626 0151 9742     		.uleb128 0x2117
 3627 0153 19       		.uleb128 0x19
ARM GAS  /var/folders/qh/xwg3v3kj02qbxczjpdb8lzfr0000gn/T//ccSPuUNF.s 			page 65


 3628 0154 01       		.uleb128 0x1
 3629 0155 13       		.uleb128 0x13
 3630 0156 00       		.byte	0
 3631 0157 00       		.byte	0
 3632 0158 1E       		.uleb128 0x1e
 3633 0159 05       		.uleb128 0x5
 3634 015a 00       		.byte	0
 3635 015b 03       		.uleb128 0x3
 3636 015c 08       		.uleb128 0x8
 3637 015d 3A       		.uleb128 0x3a
 3638 015e 0B       		.uleb128 0xb
 3639 015f 3B       		.uleb128 0x3b
 3640 0160 0B       		.uleb128 0xb
 3641 0161 49       		.uleb128 0x49
 3642 0162 13       		.uleb128 0x13
 3643 0163 02       		.uleb128 0x2
 3644 0164 18       		.uleb128 0x18
 3645 0165 00       		.byte	0
 3646 0166 00       		.byte	0
 3647 0167 1F       		.uleb128 0x1f
 3648 0168 2E       		.uleb128 0x2e
 3649 0169 01       		.byte	0x1
 3650 016a 03       		.uleb128 0x3
 3651 016b 0E       		.uleb128 0xe
 3652 016c 3A       		.uleb128 0x3a
 3653 016d 0B       		.uleb128 0xb
 3654 016e 3B       		.uleb128 0x3b
 3655 016f 0B       		.uleb128 0xb
 3656 0170 27       		.uleb128 0x27
 3657 0171 19       		.uleb128 0x19
 3658 0172 49       		.uleb128 0x49
 3659 0173 13       		.uleb128 0x13
 3660 0174 11       		.uleb128 0x11
 3661 0175 01       		.uleb128 0x1
 3662 0176 12       		.uleb128 0x12
 3663 0177 06       		.uleb128 0x6
 3664 0178 40       		.uleb128 0x40
 3665 0179 18       		.uleb128 0x18
 3666 017a 9742     		.uleb128 0x2117
 3667 017c 19       		.uleb128 0x19
 3668 017d 01       		.uleb128 0x1
 3669 017e 13       		.uleb128 0x13
 3670 017f 00       		.byte	0
 3671 0180 00       		.byte	0
 3672 0181 20       		.uleb128 0x20
 3673 0182 05       		.uleb128 0x5
 3674 0183 00       		.byte	0
 3675 0184 03       		.uleb128 0x3
 3676 0185 08       		.uleb128 0x8
 3677 0186 3A       		.uleb128 0x3a
 3678 0187 0B       		.uleb128 0xb
 3679 0188 3B       		.uleb128 0x3b
 3680 0189 0B       		.uleb128 0xb
 3681 018a 49       		.uleb128 0x49
 3682 018b 13       		.uleb128 0x13
 3683 018c 02       		.uleb128 0x2
 3684 018d 17       		.uleb128 0x17
ARM GAS  /var/folders/qh/xwg3v3kj02qbxczjpdb8lzfr0000gn/T//ccSPuUNF.s 			page 66


 3685 018e 00       		.byte	0
 3686 018f 00       		.byte	0
 3687 0190 21       		.uleb128 0x21
 3688 0191 898201   		.uleb128 0x4109
 3689 0194 01       		.byte	0x1
 3690 0195 11       		.uleb128 0x11
 3691 0196 01       		.uleb128 0x1
 3692 0197 31       		.uleb128 0x31
 3693 0198 13       		.uleb128 0x13
 3694 0199 00       		.byte	0
 3695 019a 00       		.byte	0
 3696 019b 22       		.uleb128 0x22
 3697 019c 8A8201   		.uleb128 0x410a
 3698 019f 00       		.byte	0
 3699 01a0 02       		.uleb128 0x2
 3700 01a1 18       		.uleb128 0x18
 3701 01a2 9142     		.uleb128 0x2111
 3702 01a4 18       		.uleb128 0x18
 3703 01a5 00       		.byte	0
 3704 01a6 00       		.byte	0
 3705 01a7 23       		.uleb128 0x23
 3706 01a8 2E       		.uleb128 0x2e
 3707 01a9 01       		.byte	0x1
 3708 01aa 31       		.uleb128 0x31
 3709 01ab 13       		.uleb128 0x13
 3710 01ac 11       		.uleb128 0x11
 3711 01ad 01       		.uleb128 0x1
 3712 01ae 12       		.uleb128 0x12
 3713 01af 06       		.uleb128 0x6
 3714 01b0 40       		.uleb128 0x40
 3715 01b1 18       		.uleb128 0x18
 3716 01b2 9742     		.uleb128 0x2117
 3717 01b4 19       		.uleb128 0x19
 3718 01b5 01       		.uleb128 0x1
 3719 01b6 13       		.uleb128 0x13
 3720 01b7 00       		.byte	0
 3721 01b8 00       		.byte	0
 3722 01b9 24       		.uleb128 0x24
 3723 01ba 34       		.uleb128 0x34
 3724 01bb 00       		.byte	0
 3725 01bc 31       		.uleb128 0x31
 3726 01bd 13       		.uleb128 0x13
 3727 01be 00       		.byte	0
 3728 01bf 00       		.byte	0
 3729 01c0 25       		.uleb128 0x25
 3730 01c1 0B       		.uleb128 0xb
 3731 01c2 01       		.byte	0x1
 3732 01c3 55       		.uleb128 0x55
 3733 01c4 17       		.uleb128 0x17
 3734 01c5 01       		.uleb128 0x1
 3735 01c6 13       		.uleb128 0x13
 3736 01c7 00       		.byte	0
 3737 01c8 00       		.byte	0
 3738 01c9 26       		.uleb128 0x26
 3739 01ca 34       		.uleb128 0x34
 3740 01cb 00       		.byte	0
 3741 01cc 31       		.uleb128 0x31
ARM GAS  /var/folders/qh/xwg3v3kj02qbxczjpdb8lzfr0000gn/T//ccSPuUNF.s 			page 67


 3742 01cd 13       		.uleb128 0x13
 3743 01ce 02       		.uleb128 0x2
 3744 01cf 17       		.uleb128 0x17
 3745 01d0 00       		.byte	0
 3746 01d1 00       		.byte	0
 3747 01d2 27       		.uleb128 0x27
 3748 01d3 898201   		.uleb128 0x4109
 3749 01d6 00       		.byte	0
 3750 01d7 11       		.uleb128 0x11
 3751 01d8 01       		.uleb128 0x1
 3752 01d9 31       		.uleb128 0x31
 3753 01da 13       		.uleb128 0x13
 3754 01db 00       		.byte	0
 3755 01dc 00       		.byte	0
 3756 01dd 28       		.uleb128 0x28
 3757 01de 898201   		.uleb128 0x4109
 3758 01e1 01       		.byte	0x1
 3759 01e2 11       		.uleb128 0x11
 3760 01e3 01       		.uleb128 0x1
 3761 01e4 31       		.uleb128 0x31
 3762 01e5 13       		.uleb128 0x13
 3763 01e6 01       		.uleb128 0x1
 3764 01e7 13       		.uleb128 0x13
 3765 01e8 00       		.byte	0
 3766 01e9 00       		.byte	0
 3767 01ea 29       		.uleb128 0x29
 3768 01eb 0B       		.uleb128 0xb
 3769 01ec 01       		.byte	0x1
 3770 01ed 11       		.uleb128 0x11
 3771 01ee 01       		.uleb128 0x1
 3772 01ef 12       		.uleb128 0x12
 3773 01f0 06       		.uleb128 0x6
 3774 01f1 01       		.uleb128 0x1
 3775 01f2 13       		.uleb128 0x13
 3776 01f3 00       		.byte	0
 3777 01f4 00       		.byte	0
 3778 01f5 2A       		.uleb128 0x2a
 3779 01f6 34       		.uleb128 0x34
 3780 01f7 00       		.byte	0
 3781 01f8 03       		.uleb128 0x3
 3782 01f9 08       		.uleb128 0x8
 3783 01fa 3A       		.uleb128 0x3a
 3784 01fb 0B       		.uleb128 0xb
 3785 01fc 3B       		.uleb128 0x3b
 3786 01fd 0B       		.uleb128 0xb
 3787 01fe 49       		.uleb128 0x49
 3788 01ff 13       		.uleb128 0x13
 3789 0200 02       		.uleb128 0x2
 3790 0201 18       		.uleb128 0x18
 3791 0202 00       		.byte	0
 3792 0203 00       		.byte	0
 3793 0204 2B       		.uleb128 0x2b
 3794 0205 34       		.uleb128 0x34
 3795 0206 00       		.byte	0
 3796 0207 03       		.uleb128 0x3
 3797 0208 0E       		.uleb128 0xe
 3798 0209 3A       		.uleb128 0x3a
ARM GAS  /var/folders/qh/xwg3v3kj02qbxczjpdb8lzfr0000gn/T//ccSPuUNF.s 			page 68


 3799 020a 0B       		.uleb128 0xb
 3800 020b 3B       		.uleb128 0x3b
 3801 020c 0B       		.uleb128 0xb
 3802 020d 49       		.uleb128 0x49
 3803 020e 13       		.uleb128 0x13
 3804 020f 3F       		.uleb128 0x3f
 3805 0210 19       		.uleb128 0x19
 3806 0211 3C       		.uleb128 0x3c
 3807 0212 19       		.uleb128 0x19
 3808 0213 00       		.byte	0
 3809 0214 00       		.byte	0
 3810 0215 2C       		.uleb128 0x2c
 3811 0216 21       		.uleb128 0x21
 3812 0217 00       		.byte	0
 3813 0218 00       		.byte	0
 3814 0219 00       		.byte	0
 3815 021a 2D       		.uleb128 0x2d
 3816 021b 34       		.uleb128 0x34
 3817 021c 00       		.byte	0
 3818 021d 03       		.uleb128 0x3
 3819 021e 08       		.uleb128 0x8
 3820 021f 3A       		.uleb128 0x3a
 3821 0220 0B       		.uleb128 0xb
 3822 0221 3B       		.uleb128 0x3b
 3823 0222 0B       		.uleb128 0xb
 3824 0223 49       		.uleb128 0x49
 3825 0224 13       		.uleb128 0x13
 3826 0225 3F       		.uleb128 0x3f
 3827 0226 19       		.uleb128 0x19
 3828 0227 3C       		.uleb128 0x3c
 3829 0228 19       		.uleb128 0x19
 3830 0229 00       		.byte	0
 3831 022a 00       		.byte	0
 3832 022b 2E       		.uleb128 0x2e
 3833 022c 34       		.uleb128 0x34
 3834 022d 00       		.byte	0
 3835 022e 03       		.uleb128 0x3
 3836 022f 0E       		.uleb128 0xe
 3837 0230 3A       		.uleb128 0x3a
 3838 0231 0B       		.uleb128 0xb
 3839 0232 3B       		.uleb128 0x3b
 3840 0233 0B       		.uleb128 0xb
 3841 0234 49       		.uleb128 0x49
 3842 0235 13       		.uleb128 0x13
 3843 0236 3F       		.uleb128 0x3f
 3844 0237 19       		.uleb128 0x19
 3845 0238 02       		.uleb128 0x2
 3846 0239 18       		.uleb128 0x18
 3847 023a 00       		.byte	0
 3848 023b 00       		.byte	0
 3849 023c 2F       		.uleb128 0x2f
 3850 023d 2E       		.uleb128 0x2e
 3851 023e 01       		.byte	0x1
 3852 023f 3F       		.uleb128 0x3f
 3853 0240 19       		.uleb128 0x19
 3854 0241 03       		.uleb128 0x3
 3855 0242 0E       		.uleb128 0xe
ARM GAS  /var/folders/qh/xwg3v3kj02qbxczjpdb8lzfr0000gn/T//ccSPuUNF.s 			page 69


 3856 0243 3A       		.uleb128 0x3a
 3857 0244 0B       		.uleb128 0xb
 3858 0245 3B       		.uleb128 0x3b
 3859 0246 05       		.uleb128 0x5
 3860 0247 27       		.uleb128 0x27
 3861 0248 19       		.uleb128 0x19
 3862 0249 49       		.uleb128 0x49
 3863 024a 13       		.uleb128 0x13
 3864 024b 3C       		.uleb128 0x3c
 3865 024c 19       		.uleb128 0x19
 3866 024d 01       		.uleb128 0x1
 3867 024e 13       		.uleb128 0x13
 3868 024f 00       		.byte	0
 3869 0250 00       		.byte	0
 3870 0251 30       		.uleb128 0x30
 3871 0252 2E       		.uleb128 0x2e
 3872 0253 01       		.byte	0x1
 3873 0254 3F       		.uleb128 0x3f
 3874 0255 19       		.uleb128 0x19
 3875 0256 03       		.uleb128 0x3
 3876 0257 0E       		.uleb128 0xe
 3877 0258 3A       		.uleb128 0x3a
 3878 0259 0B       		.uleb128 0xb
 3879 025a 3B       		.uleb128 0x3b
 3880 025b 05       		.uleb128 0x5
 3881 025c 27       		.uleb128 0x27
 3882 025d 19       		.uleb128 0x19
 3883 025e 3C       		.uleb128 0x3c
 3884 025f 19       		.uleb128 0x19
 3885 0260 01       		.uleb128 0x1
 3886 0261 13       		.uleb128 0x13
 3887 0262 00       		.byte	0
 3888 0263 00       		.byte	0
 3889 0264 31       		.uleb128 0x31
 3890 0265 2E       		.uleb128 0x2e
 3891 0266 00       		.byte	0
 3892 0267 3F       		.uleb128 0x3f
 3893 0268 19       		.uleb128 0x19
 3894 0269 03       		.uleb128 0x3
 3895 026a 0E       		.uleb128 0xe
 3896 026b 3A       		.uleb128 0x3a
 3897 026c 0B       		.uleb128 0xb
 3898 026d 3B       		.uleb128 0x3b
 3899 026e 0B       		.uleb128 0xb
 3900 026f 27       		.uleb128 0x27
 3901 0270 19       		.uleb128 0x19
 3902 0271 3C       		.uleb128 0x3c
 3903 0272 19       		.uleb128 0x19
 3904 0273 00       		.byte	0
 3905 0274 00       		.byte	0
 3906 0275 32       		.uleb128 0x32
 3907 0276 2E       		.uleb128 0x2e
 3908 0277 01       		.byte	0x1
 3909 0278 3F       		.uleb128 0x3f
 3910 0279 19       		.uleb128 0x19
 3911 027a 03       		.uleb128 0x3
 3912 027b 0E       		.uleb128 0xe
ARM GAS  /var/folders/qh/xwg3v3kj02qbxczjpdb8lzfr0000gn/T//ccSPuUNF.s 			page 70


 3913 027c 3A       		.uleb128 0x3a
 3914 027d 0B       		.uleb128 0xb
 3915 027e 3B       		.uleb128 0x3b
 3916 027f 0B       		.uleb128 0xb
 3917 0280 27       		.uleb128 0x27
 3918 0281 19       		.uleb128 0x19
 3919 0282 49       		.uleb128 0x49
 3920 0283 13       		.uleb128 0x13
 3921 0284 3C       		.uleb128 0x3c
 3922 0285 19       		.uleb128 0x19
 3923 0286 01       		.uleb128 0x1
 3924 0287 13       		.uleb128 0x13
 3925 0288 00       		.byte	0
 3926 0289 00       		.byte	0
 3927 028a 33       		.uleb128 0x33
 3928 028b 2E       		.uleb128 0x2e
 3929 028c 01       		.byte	0x1
 3930 028d 3F       		.uleb128 0x3f
 3931 028e 19       		.uleb128 0x19
 3932 028f 03       		.uleb128 0x3
 3933 0290 0E       		.uleb128 0xe
 3934 0291 3A       		.uleb128 0x3a
 3935 0292 0B       		.uleb128 0xb
 3936 0293 3B       		.uleb128 0x3b
 3937 0294 0B       		.uleb128 0xb
 3938 0295 27       		.uleb128 0x27
 3939 0296 19       		.uleb128 0x19
 3940 0297 3C       		.uleb128 0x3c
 3941 0298 19       		.uleb128 0x19
 3942 0299 01       		.uleb128 0x1
 3943 029a 13       		.uleb128 0x13
 3944 029b 00       		.byte	0
 3945 029c 00       		.byte	0
 3946 029d 34       		.uleb128 0x34
 3947 029e 2E       		.uleb128 0x2e
 3948 029f 01       		.byte	0x1
 3949 02a0 3F       		.uleb128 0x3f
 3950 02a1 19       		.uleb128 0x19
 3951 02a2 03       		.uleb128 0x3
 3952 02a3 0E       		.uleb128 0xe
 3953 02a4 3A       		.uleb128 0x3a
 3954 02a5 0B       		.uleb128 0xb
 3955 02a6 3B       		.uleb128 0x3b
 3956 02a7 05       		.uleb128 0x5
 3957 02a8 27       		.uleb128 0x27
 3958 02a9 19       		.uleb128 0x19
 3959 02aa 3C       		.uleb128 0x3c
 3960 02ab 19       		.uleb128 0x19
 3961 02ac 00       		.byte	0
 3962 02ad 00       		.byte	0
 3963 02ae 00       		.byte	0
 3964              		.section	.debug_loc,"",%progbits
 3965              	.Ldebug_loc0:
 3966              	.LLST0:
 3967 0000 00000000 		.4byte	.LVL1
 3968 0004 04000000 		.4byte	.LVL2
 3969 0008 0100     		.2byte	0x1
ARM GAS  /var/folders/qh/xwg3v3kj02qbxczjpdb8lzfr0000gn/T//ccSPuUNF.s 			page 71


 3970 000a 50       		.byte	0x50
 3971 000b 04000000 		.4byte	.LVL2
 3972 000f 14000000 		.4byte	.LFE9
 3973 0013 0400     		.2byte	0x4
 3974 0015 F3       		.byte	0xf3
 3975 0016 01       		.uleb128 0x1
 3976 0017 50       		.byte	0x50
 3977 0018 9F       		.byte	0x9f
 3978 0019 00000000 		.4byte	0
 3979 001d 00000000 		.4byte	0
 3980              	.LLST1:
 3981 0021 00000000 		.4byte	.LVL5
 3982 0025 04000000 		.4byte	.LVL6
 3983 0029 0100     		.2byte	0x1
 3984 002b 50       		.byte	0x50
 3985 002c 04000000 		.4byte	.LVL6
 3986 0030 14000000 		.4byte	.LFE12
 3987 0034 0400     		.2byte	0x4
 3988 0036 F3       		.byte	0xf3
 3989 0037 01       		.uleb128 0x1
 3990 0038 50       		.byte	0x50
 3991 0039 9F       		.byte	0x9f
 3992 003a 00000000 		.4byte	0
 3993 003e 00000000 		.4byte	0
 3994              	.LLST2:
 3995 0042 2C000000 		.4byte	.LVL12
 3996 0046 2E000000 		.4byte	.LVL13
 3997 004a 0200     		.2byte	0x2
 3998 004c 30       		.byte	0x30
 3999 004d 9F       		.byte	0x9f
 4000 004e 90000000 		.4byte	.LVL23
 4001 0052 92000000 		.4byte	.LVL24
 4002 0056 0200     		.2byte	0x2
 4003 0058 30       		.byte	0x30
 4004 0059 9F       		.byte	0x9f
 4005 005a 92000000 		.4byte	.LVL24
 4006 005e 9E000000 		.4byte	.LVL26
 4007 0062 0500     		.2byte	0x5
 4008 0064 34       		.byte	0x34
 4009 0065 74       		.byte	0x74
 4010 0066 00       		.sleb128 0
 4011 0067 1C       		.byte	0x1c
 4012 0068 9F       		.byte	0x9f
 4013 0069 9E000000 		.4byte	.LVL26
 4014 006d A4000000 		.4byte	.LVL27
 4015 0071 0500     		.2byte	0x5
 4016 0073 33       		.byte	0x33
 4017 0074 74       		.byte	0x74
 4018 0075 00       		.sleb128 0
 4019 0076 1C       		.byte	0x1c
 4020 0077 9F       		.byte	0x9f
 4021 0078 DC000000 		.4byte	.LVL32
 4022 007c DE000000 		.4byte	.LVL33
 4023 0080 0200     		.2byte	0x2
 4024 0082 30       		.byte	0x30
 4025 0083 9F       		.byte	0x9f
 4026 0084 40010000 		.4byte	.LVL42
ARM GAS  /var/folders/qh/xwg3v3kj02qbxczjpdb8lzfr0000gn/T//ccSPuUNF.s 			page 72


 4027 0088 42010000 		.4byte	.LVL43
 4028 008c 0200     		.2byte	0x2
 4029 008e 30       		.byte	0x30
 4030 008f 9F       		.byte	0x9f
 4031 0090 00000000 		.4byte	0
 4032 0094 00000000 		.4byte	0
 4033              	.LLST3:
 4034 0098 06010000 		.4byte	.LVL36
 4035 009c 10010000 		.4byte	.LVL37
 4036 00a0 0100     		.2byte	0x1
 4037 00a2 50       		.byte	0x50
 4038 00a3 68010000 		.4byte	.LVL46
 4039 00a7 72010000 		.4byte	.LVL47
 4040 00ab 0100     		.2byte	0x1
 4041 00ad 50       		.byte	0x50
 4042 00ae 86010000 		.4byte	.LVL49
 4043 00b2 90010000 		.4byte	.LVL50
 4044 00b6 0100     		.2byte	0x1
 4045 00b8 50       		.byte	0x50
 4046 00b9 00000000 		.4byte	0
 4047 00bd 00000000 		.4byte	0
 4048              	.LLST4:
 4049 00c1 2A000000 		.4byte	.LVL73
 4050 00c5 2C000000 		.4byte	.LVL74
 4051 00c9 0200     		.2byte	0x2
 4052 00cb 30       		.byte	0x30
 4053 00cc 9F       		.byte	0x9f
 4054 00cd 60000000 		.4byte	.LVL79
 4055 00d1 62000000 		.4byte	.LVL80
 4056 00d5 0200     		.2byte	0x2
 4057 00d7 30       		.byte	0x30
 4058 00d8 9F       		.byte	0x9f
 4059 00d9 62000000 		.4byte	.LVL80
 4060 00dd 7A000000 		.4byte	.LVL85
 4061 00e1 0500     		.2byte	0x5
 4062 00e3 34       		.byte	0x34
 4063 00e4 74       		.byte	0x74
 4064 00e5 00       		.sleb128 0
 4065 00e6 1C       		.byte	0x1c
 4066 00e7 9F       		.byte	0x9f
 4067 00e8 7A000000 		.4byte	.LVL85
 4068 00ec 7E000000 		.4byte	.LVL86
 4069 00f0 0500     		.2byte	0x5
 4070 00f2 33       		.byte	0x33
 4071 00f3 74       		.byte	0x74
 4072 00f4 00       		.sleb128 0
 4073 00f5 1C       		.byte	0x1c
 4074 00f6 9F       		.byte	0x9f
 4075 00f7 00000000 		.4byte	0
 4076 00fb 00000000 		.4byte	0
 4077              	.LLST5:
 4078 00ff EC000000 		.4byte	.LVL95
 4079 0103 F6000000 		.4byte	.LVL96
 4080 0107 0100     		.2byte	0x1
 4081 0109 50       		.byte	0x50
 4082 010a B4010000 		.4byte	.LVL112
 4083 010e BE010000 		.4byte	.LVL113
ARM GAS  /var/folders/qh/xwg3v3kj02qbxczjpdb8lzfr0000gn/T//ccSPuUNF.s 			page 73


 4084 0112 0100     		.2byte	0x1
 4085 0114 50       		.byte	0x50
 4086 0115 D2010000 		.4byte	.LVL115
 4087 0119 DC010000 		.4byte	.LVL116
 4088 011d 0100     		.2byte	0x1
 4089 011f 50       		.byte	0x50
 4090 0120 00000000 		.4byte	0
 4091 0124 00000000 		.4byte	0
 4092              	.LLST6:
 4093 0128 70000000 		.4byte	.LVL83
 4094 012c 73000000 		.4byte	.LVL84-1
 4095 0130 0100     		.2byte	0x1
 4096 0132 50       		.byte	0x50
 4097 0133 73000000 		.4byte	.LVL84-1
 4098 0137 1C020000 		.4byte	.LVL123
 4099 013b 0100     		.2byte	0x1
 4100 013d 56       		.byte	0x56
 4101 013e 30020000 		.4byte	.LVL125
 4102 0142 54020000 		.4byte	.LFE13
 4103 0146 0100     		.2byte	0x1
 4104 0148 56       		.byte	0x56
 4105 0149 00000000 		.4byte	0
 4106 014d 00000000 		.4byte	0
 4107              		.section	.debug_aranges,"",%progbits
 4108 0000 4C000000 		.4byte	0x4c
 4109 0004 0200     		.2byte	0x2
 4110 0006 00000000 		.4byte	.Ldebug_info0
 4111 000a 04       		.byte	0x4
 4112 000b 00       		.byte	0
 4113 000c 0000     		.2byte	0
 4114 000e 0000     		.2byte	0
 4115 0010 00000000 		.4byte	.LFB7
 4116 0014 02000000 		.4byte	.LFE7-.LFB7
 4117 0018 00000000 		.4byte	.LFB9
 4118 001c 14000000 		.4byte	.LFE9-.LFB9
 4119 0020 00000000 		.4byte	.LFB8
 4120 0024 28000000 		.4byte	.LFE8-.LFB8
 4121 0028 00000000 		.4byte	.LFB12
 4122 002c 14000000 		.4byte	.LFE12-.LFB12
 4123 0030 00000000 		.4byte	.LFB11
 4124 0034 28000000 		.4byte	.LFE11-.LFB11
 4125 0038 00000000 		.4byte	.LFB10
 4126 003c 78020000 		.4byte	.LFE10-.LFB10
 4127 0040 00000000 		.4byte	.LFB13
 4128 0044 54020000 		.4byte	.LFE13-.LFB13
 4129 0048 00000000 		.4byte	0
 4130 004c 00000000 		.4byte	0
 4131              		.section	.debug_ranges,"",%progbits
 4132              	.Ldebug_ranges0:
 4133 0000 20000000 		.4byte	.LBB6
 4134 0004 50020000 		.4byte	.LBE6
 4135 0008 54020000 		.4byte	.LBB7
 4136 000c 78020000 		.4byte	.LBE7
 4137 0010 00000000 		.4byte	0
 4138 0014 00000000 		.4byte	0
 4139 0018 24000000 		.4byte	.LBB13
 4140 001c 22020000 		.4byte	.LBE13
ARM GAS  /var/folders/qh/xwg3v3kj02qbxczjpdb8lzfr0000gn/T//ccSPuUNF.s 			page 74


 4141 0020 30020000 		.4byte	.LBB15
 4142 0024 54020000 		.4byte	.LBE15
 4143 0028 00000000 		.4byte	0
 4144 002c 00000000 		.4byte	0
 4145 0030 00000000 		.4byte	.LFB7
 4146 0034 02000000 		.4byte	.LFE7
 4147 0038 00000000 		.4byte	.LFB9
 4148 003c 14000000 		.4byte	.LFE9
 4149 0040 00000000 		.4byte	.LFB8
 4150 0044 28000000 		.4byte	.LFE8
 4151 0048 00000000 		.4byte	.LFB12
 4152 004c 14000000 		.4byte	.LFE12
 4153 0050 00000000 		.4byte	.LFB11
 4154 0054 28000000 		.4byte	.LFE11
 4155 0058 00000000 		.4byte	.LFB10
 4156 005c 78020000 		.4byte	.LFE10
 4157 0060 00000000 		.4byte	.LFB13
 4158 0064 54020000 		.4byte	.LFE13
 4159 0068 00000000 		.4byte	0
 4160 006c 00000000 		.4byte	0
 4161              		.section	.debug_line,"",%progbits
 4162              	.Ldebug_line0:
 4163 0000 6C020000 		.section	.debug_str,"MS",%progbits,1
 4163      02008701 
 4163      00000201 
 4163      FB0E0D00 
 4163      01010101 
 4164              	.LASF100:
 4165 0000 63684F51 		.ascii	"chOQPutTimeout\000"
 4165      50757454 
 4165      696D656F 
 4165      757400
 4166              	.LASF67:
 4167 000f 7466756E 		.ascii	"tfunc_t\000"
 4167      635F7400 
 4168              	.LASF39:
 4169 0017 705F6D73 		.ascii	"p_msg\000"
 4169      6700
 4170              	.LASF2:
 4171 001d 73697A65 		.ascii	"size_t\000"
 4171      5F7400
 4172              	.LASF62:
 4173 0024 7264796D 		.ascii	"rdymsg\000"
 4173      736700
 4174              	.LASF101:
 4175 002b 63684951 		.ascii	"chIQInit\000"
 4175      496E6974 
 4175      00
 4176              	.LASF12:
 4177 0034 75696E74 		.ascii	"uint64_t\000"
 4177      36345F74 
 4177      00
 4178              	.LASF79:
 4179 003d 4F757470 		.ascii	"OutputQueue\000"
 4179      75745175 
 4179      65756500 
 4180              	.LASF109:
ARM GAS  /var/folders/qh/xwg3v3kj02qbxczjpdb8lzfr0000gn/T//ccSPuUNF.s 			page 75


 4181 0049 63684951 		.ascii	"chIQReadTimeout\000"
 4181      52656164 
 4181      54696D65 
 4181      6F757400 
 4182              	.LASF98:
 4183 0059 70617474 		.ascii	"patternqueues\000"
 4183      65726E71 
 4183      75657565 
 4183      7300
 4184              	.LASF13:
 4185 0067 6C6F6E67 		.ascii	"long long unsigned int\000"
 4185      206C6F6E 
 4185      6720756E 
 4185      7369676E 
 4185      65642069 
 4186              	.LASF114:
 4187 007e 63684F51 		.ascii	"chOQWriteTimeout\000"
 4187      57726974 
 4187      6554696D 
 4187      656F7574 
 4187      00
 4188              	.LASF102:
 4189 008f 63684F51 		.ascii	"chOQInit\000"
 4189      496E6974 
 4189      00
 4190              	.LASF63:
 4191 0098 65786974 		.ascii	"exitcode\000"
 4191      636F6465 
 4191      00
 4192              	.LASF92:
 4193 00a1 71756575 		.ascii	"queues2_setup\000"
 4193      6573325F 
 4193      73657475 
 4193      7000
 4194              	.LASF95:
 4195 00af 74657374 		.ascii	"test\000"
 4195      00
 4196              	.LASF27:
 4197 00b4 705F7072 		.ascii	"p_prio\000"
 4197      696F00
 4198              	.LASF69:
 4199 00bb 715F7761 		.ascii	"q_waiting\000"
 4199      6974696E 
 4199      6700
 4200              	.LASF11:
 4201 00c5 6C6F6E67 		.ascii	"long long int\000"
 4201      206C6F6E 
 4201      6720696E 
 4201      7400
 4202              	.LASF1:
 4203 00d3 7369676E 		.ascii	"signed char\000"
 4203      65642063 
 4203      68617200 
 4204              	.LASF43:
 4205 00df 705F6D70 		.ascii	"p_mpool\000"
 4205      6F6F6C00 
 4206              	.LASF14:
ARM GAS  /var/folders/qh/xwg3v3kj02qbxczjpdb8lzfr0000gn/T//ccSPuUNF.s 			page 76


 4207 00e7 626F6F6C 		.ascii	"bool_t\000"
 4207      5F7400
 4208              	.LASF59:
 4209 00ee 6D5F7175 		.ascii	"m_queue\000"
 4209      65756500 
 4210              	.LASF107:
 4211 00f6 74657374 		.ascii	"test_emit_token\000"
 4211      5F656D69 
 4211      745F746F 
 4211      6B656E00 
 4212              	.LASF19:
 4213 0106 74736C69 		.ascii	"tslices_t\000"
 4213      6365735F 
 4213      7400
 4214              	.LASF8:
 4215 0110 6C6F6E67 		.ascii	"long int\000"
 4215      20696E74 
 4215      00
 4216              	.LASF17:
 4217 0119 74737461 		.ascii	"tstate_t\000"
 4217      74655F74 
 4217      00
 4218              	.LASF113:
 4219 0122 63684F51 		.ascii	"chOQGetI\000"
 4219      47657449 
 4219      00
 4220              	.LASF71:
 4221 012b 715F6275 		.ascii	"q_buffer\000"
 4221      66666572 
 4221      00
 4222              	.LASF73:
 4223 0134 715F7772 		.ascii	"q_wrptr\000"
 4223      70747200 
 4224              	.LASF29:
 4225 013c 705F6E65 		.ascii	"p_newer\000"
 4225      77657200 
 4226              	.LASF54:
 4227 0144 725F6E65 		.ascii	"r_newer\000"
 4227      77657200 
 4228              	.LASF46:
 4229 014c 72656761 		.ascii	"regarm_t\000"
 4229      726D5F74 
 4229      00
 4230              	.LASF105:
 4231 0155 63684951 		.ascii	"chIQPutI\000"
 4231      50757449 
 4231      00
 4232              	.LASF0:
 4233 015e 756E7369 		.ascii	"unsigned int\000"
 4233      676E6564 
 4233      20696E74 
 4233      00
 4234              	.LASF110:
 4235 016b 63684951 		.ascii	"chIQResetI\000"
 4235      52657365 
 4235      744900
 4236              	.LASF10:
ARM GAS  /var/folders/qh/xwg3v3kj02qbxczjpdb8lzfr0000gn/T//ccSPuUNF.s 			page 77


 4237 0176 6C6F6E67 		.ascii	"long unsigned int\000"
 4237      20756E73 
 4237      69676E65 
 4237      6420696E 
 4237      7400
 4238              	.LASF83:
 4239 0188 74656172 		.ascii	"teardown\000"
 4239      646F776E 
 4239      00
 4240              	.LASF81:
 4241 0191 6E616D65 		.ascii	"name\000"
 4241      00
 4242              	.LASF117:
 4243 0196 2F557365 		.ascii	"/Users/John/Development/embedded/ChibiOS-RT/BluC/ST"
 4243      72732F4A 
 4243      6F686E2F 
 4243      44657665 
 4243      6C6F706D 
 4244 01c9 4D333246 		.ascii	"M32F051\000"
 4244      30353100 
 4245              	.LASF49:
 4246 01d1 636F6E74 		.ascii	"context\000"
 4246      65787400 
 4247              	.LASF6:
 4248 01d9 73686F72 		.ascii	"short unsigned int\000"
 4248      7420756E 
 4248      7369676E 
 4248      65642069 
 4248      6E7400
 4249              	.LASF86:
 4250 01ec 71756575 		.ascii	"queues1_execute\000"
 4250      6573315F 
 4250      65786563 
 4250      75746500 
 4251              	.LASF96:
 4252 01fc 74657374 		.ascii	"testqueues1\000"
 4252      71756575 
 4252      65733100 
 4253              	.LASF21:
 4254 0208 6D73675F 		.ascii	"msg_t\000"
 4254      7400
 4255              	.LASF16:
 4256 020e 746D6F64 		.ascii	"tmode_t\000"
 4256      655F7400 
 4257              	.LASF45:
 4258 0216 54687265 		.ascii	"ThreadsList\000"
 4258      6164734C 
 4258      69737400 
 4259              	.LASF22:
 4260 0222 6576656E 		.ascii	"eventmask_t\000"
 4260      746D6173 
 4260      6B5F7400 
 4261              	.LASF78:
 4262 022e 496E7075 		.ascii	"InputQueue\000"
 4262      74517565 
 4262      756500
 4263              	.LASF58:
ARM GAS  /var/folders/qh/xwg3v3kj02qbxczjpdb8lzfr0000gn/T//ccSPuUNF.s 			page 78


 4264 0239 4D757465 		.ascii	"Mutex\000"
 4264      7800
 4265              	.LASF68:
 4266 023f 47656E65 		.ascii	"GenericQueue\000"
 4266      72696351 
 4266      75657565 
 4266      00
 4267              	.LASF47:
 4268 024c 73746B61 		.ascii	"stkalign_t\000"
 4268      6C69676E 
 4268      5F7400
 4269              	.LASF111:
 4270 0257 63685468 		.ascii	"chThdCreateStatic\000"
 4270      64437265 
 4270      61746553 
 4270      74617469 
 4270      6300
 4271              	.LASF88:
 4272 0269 6E6F7469 		.ascii	"notify\000"
 4272      667900
 4273              	.LASF103:
 4274 0270 6462675F 		.ascii	"dbg_check_unlock\000"
 4274      63686563 
 4274      6B5F756E 
 4274      6C6F636B 
 4274      00
 4275              	.LASF87:
 4276 0281 71756575 		.ascii	"queues2_execute\000"
 4276      6573325F 
 4276      65786563 
 4276      75746500 
 4277              	.LASF50:
 4278 0291 73697A65 		.ascii	"sizetype\000"
 4278      74797065 
 4278      00
 4279              	.LASF70:
 4280 029a 715F636F 		.ascii	"q_counter\000"
 4280      756E7465 
 4280      7200
 4281              	.LASF104:
 4282 02a4 6462675F 		.ascii	"dbg_check_lock\000"
 4282      63686563 
 4282      6B5F6C6F 
 4282      636B00
 4283              	.LASF115:
 4284 02b3 474E5520 		.ascii	"GNU C 4.8.3 20131129 (release) [ARM/embedded-4_8-br"
 4284      4320342E 
 4284      382E3320 
 4284      32303133 
 4284      31313239 
 4285 02e6 616E6368 		.ascii	"anch revision 205641] -mcpu=cortex-m0 -mno-thumb-in"
 4285      20726576 
 4285      6973696F 
 4285      6E203230 
 4285      35363431 
 4286 0319 74657277 		.ascii	"terwork -mthumb -ggdb -O2 -fomit-frame-pointer -fal"
 4286      6F726B20 
ARM GAS  /var/folders/qh/xwg3v3kj02qbxczjpdb8lzfr0000gn/T//ccSPuUNF.s 			page 79


 4286      2D6D7468 
 4286      756D6220 
 4286      2D676764 
 4287 034c 69676E2D 		.ascii	"ign-functions=16 -ffunction-sections -fdata-section"
 4287      66756E63 
 4287      74696F6E 
 4287      733D3136 
 4287      202D6666 
 4288 037f 73202D66 		.ascii	"s -fno-common\000"
 4288      6E6F2D63 
 4288      6F6D6D6F 
 4288      6E00
 4289              	.LASF97:
 4290 038d 74657374 		.ascii	"testqueues2\000"
 4290      71756575 
 4290      65733200 
 4291              	.LASF112:
 4292 0399 74657374 		.ascii	"test_wait_threads\000"
 4292      5F776169 
 4292      745F7468 
 4292      72656164 
 4292      7300
 4293              	.LASF30:
 4294 03ab 705F6F6C 		.ascii	"p_older\000"
 4294      64657200 
 4295              	.LASF90:
 4296 03b3 74687265 		.ascii	"thread1\000"
 4296      61643100 
 4297              	.LASF91:
 4298 03bb 74687265 		.ascii	"thread2\000"
 4298      61643200 
 4299              	.LASF53:
 4300 03c3 725F6374 		.ascii	"r_ctx\000"
 4300      7800
 4301              	.LASF44:
 4302 03c9 54687265 		.ascii	"ThreadsQueue\000"
 4302      61647351 
 4302      75657565 
 4302      00
 4303              	.LASF82:
 4304 03d6 73657475 		.ascii	"setup\000"
 4304      7000
 4305              	.LASF108:
 4306 03dc 5F746573 		.ascii	"_test_assert_sequence\000"
 4306      745F6173 
 4306      73657274 
 4306      5F736571 
 4306      75656E63 
 4307              	.LASF56:
 4308 03f2 725F6375 		.ascii	"r_current\000"
 4308      7272656E 
 4308      7400
 4309              	.LASF55:
 4310 03fc 725F6F6C 		.ascii	"r_older\000"
 4310      64657200 
 4311              	.LASF89:
 4312 0404 71756575 		.ascii	"queues1_setup\000"
ARM GAS  /var/folders/qh/xwg3v3kj02qbxczjpdb8lzfr0000gn/T//ccSPuUNF.s 			page 80


 4312      6573315F 
 4312      73657475 
 4312      7000
 4313              	.LASF18:
 4314 0412 74726566 		.ascii	"trefs_t\000"
 4314      735F7400 
 4315              	.LASF77:
 4316 041a 716E6F74 		.ascii	"qnotify_t\000"
 4316      6966795F 
 4316      7400
 4317              	.LASF26:
 4318 0424 705F7072 		.ascii	"p_prev\000"
 4318      657600
 4319              	.LASF84:
 4320 042b 65786563 		.ascii	"execute\000"
 4320      75746500 
 4321              	.LASF20:
 4322 0433 74707269 		.ascii	"tprio_t\000"
 4322      6F5F7400 
 4323              	.LASF74:
 4324 043b 715F7264 		.ascii	"q_rdptr\000"
 4324      70747200 
 4325              	.LASF15:
 4326 0443 5F426F6F 		.ascii	"_Bool\000"
 4326      6C00
 4327              	.LASF7:
 4328 0449 696E7433 		.ascii	"int32_t\000"
 4328      325F7400 
 4329              	.LASF4:
 4330 0451 756E7369 		.ascii	"unsigned char\000"
 4330      676E6564 
 4330      20636861 
 4330      7200
 4331              	.LASF116:
 4332 045f 2E2E2F2E 		.ascii	"../../test/testqueues.c\000"
 4332      2E2F7465 
 4332      73742F74 
 4332      65737471 
 4332      75657565 
 4333              	.LASF41:
 4334 0477 705F6D74 		.ascii	"p_mtxlist\000"
 4334      786C6973 
 4334      7400
 4335              	.LASF5:
 4336 0481 73686F72 		.ascii	"short int\000"
 4336      7420696E 
 4336      7400
 4337              	.LASF32:
 4338 048b 705F7374 		.ascii	"p_state\000"
 4338      61746500 
 4339              	.LASF35:
 4340 0493 705F7072 		.ascii	"p_preempt\000"
 4340      65656D70 
 4340      7400
 4341              	.LASF94:
 4342 049d 74687265 		.ascii	"threads\000"
 4342      61647300 
ARM GAS  /var/folders/qh/xwg3v3kj02qbxczjpdb8lzfr0000gn/T//ccSPuUNF.s 			page 81


 4343              	.LASF52:
 4344 04a5 725F7072 		.ascii	"r_prio\000"
 4344      696F00
 4345              	.LASF65:
 4346 04ac 65776D61 		.ascii	"ewmask\000"
 4346      736B00
 4347              	.LASF25:
 4348 04b3 705F6E65 		.ascii	"p_next\000"
 4348      787400
 4349              	.LASF33:
 4350 04ba 705F666C 		.ascii	"p_flags\000"
 4350      61677300 
 4351              	.LASF24:
 4352 04c2 54687265 		.ascii	"Thread\000"
 4352      616400
 4353              	.LASF80:
 4354 04c9 74657374 		.ascii	"testcase\000"
 4354      63617365 
 4354      00
 4355              	.LASF40:
 4356 04d2 705F6570 		.ascii	"p_epending\000"
 4356      656E6469 
 4356      6E6700
 4357              	.LASF9:
 4358 04dd 75696E74 		.ascii	"uint32_t\000"
 4358      33325F74 
 4358      00
 4359              	.LASF51:
 4360 04e6 725F7175 		.ascii	"r_queue\000"
 4360      65756500 
 4361              	.LASF66:
 4362 04ee 63686172 		.ascii	"char\000"
 4362      00
 4363              	.LASF118:
 4364 04f3 74657374 		.ascii	"test_buffers\000"
 4364      5F627566 
 4364      66657273 
 4364      00
 4365              	.LASF61:
 4366 0500 6D5F6E65 		.ascii	"m_next\000"
 4366      787400
 4367              	.LASF23:
 4368 0507 73797374 		.ascii	"systime_t\000"
 4368      696D655F 
 4368      7400
 4369              	.LASF42:
 4370 0511 705F7265 		.ascii	"p_realprio\000"
 4370      616C7072 
 4370      696F00
 4371              	.LASF85:
 4372 051c 62756666 		.ascii	"buffer\000"
 4372      657200
 4373              	.LASF119:
 4374 0523 63684F51 		.ascii	"chOQResetI\000"
 4374      52657365 
 4374      744900
 4375              	.LASF36:
ARM GAS  /var/folders/qh/xwg3v3kj02qbxczjpdb8lzfr0000gn/T//ccSPuUNF.s 			page 82


 4376 052e 705F7469 		.ascii	"p_time\000"
 4376      6D6500
 4377              	.LASF48:
 4378 0535 696E7463 		.ascii	"intctx\000"
 4378      747800
 4379              	.LASF38:
 4380 053c 705F6D73 		.ascii	"p_msgqueue\000"
 4380      67717565 
 4380      756500
 4381              	.LASF72:
 4382 0547 715F746F 		.ascii	"q_top\000"
 4382      7000
 4383              	.LASF34:
 4384 054d 705F7265 		.ascii	"p_refs\000"
 4384      667300
 4385              	.LASF57:
 4386 0554 52656164 		.ascii	"ReadyList\000"
 4386      794C6973 
 4386      7400
 4387              	.LASF75:
 4388 055e 715F6E6F 		.ascii	"q_notify\000"
 4388      74696679 
 4388      00
 4389              	.LASF93:
 4390 0567 726C6973 		.ascii	"rlist\000"
 4390      7400
 4391              	.LASF3:
 4392 056d 75696E74 		.ascii	"uint8_t\000"
 4392      385F7400 
 4393              	.LASF64:
 4394 0575 77746F62 		.ascii	"wtobjp\000"
 4394      6A7000
 4395              	.LASF31:
 4396 057c 705F6E61 		.ascii	"p_name\000"
 4396      6D6500
 4397              	.LASF106:
 4398 0583 5F746573 		.ascii	"_test_assert\000"
 4398      745F6173 
 4398      73657274 
 4398      00
 4399              	.LASF76:
 4400 0590 715F6C69 		.ascii	"q_link\000"
 4400      6E6B00
 4401              	.LASF60:
 4402 0597 6D5F6F77 		.ascii	"m_owner\000"
 4402      6E657200 
 4403              	.LASF28:
 4404 059f 705F6374 		.ascii	"p_ctx\000"
 4404      7800
 4405              	.LASF37:
 4406 05a5 705F7761 		.ascii	"p_waiting\000"
 4406      6974696E 
 4406      6700
 4407              	.LASF99:
 4408 05af 63684951 		.ascii	"chIQGetTimeout\000"
 4408      47657454 
 4408      696D656F 
ARM GAS  /var/folders/qh/xwg3v3kj02qbxczjpdb8lzfr0000gn/T//ccSPuUNF.s 			page 83


 4408      757400
 4409              		.ident	"GCC: (GNU Tools for ARM Embedded Processors) 4.8.3 20131129 (release) [ARM/embedded-4_8-br
ARM GAS  /var/folders/qh/xwg3v3kj02qbxczjpdb8lzfr0000gn/T//ccSPuUNF.s 			page 84


DEFINED SYMBOLS
                            *ABS*:0000000000000000 testqueues.c
/var/folders/qh/xwg3v3kj02qbxczjpdb8lzfr0000gn/T//ccSPuUNF.s:18     .text.notify:0000000000000000 $t
/var/folders/qh/xwg3v3kj02qbxczjpdb8lzfr0000gn/T//ccSPuUNF.s:23     .text.notify:0000000000000000 notify
/var/folders/qh/xwg3v3kj02qbxczjpdb8lzfr0000gn/T//ccSPuUNF.s:36     .text.thread1:0000000000000000 $t
/var/folders/qh/xwg3v3kj02qbxczjpdb8lzfr0000gn/T//ccSPuUNF.s:41     .text.thread1:0000000000000000 thread1
/var/folders/qh/xwg3v3kj02qbxczjpdb8lzfr0000gn/T//ccSPuUNF.s:63     .text.thread1:0000000000000010 $d
/var/folders/qh/xwg3v3kj02qbxczjpdb8lzfr0000gn/T//ccSPuUNF.s:68     .text.queues1_setup:0000000000000000 $t
/var/folders/qh/xwg3v3kj02qbxczjpdb8lzfr0000gn/T//ccSPuUNF.s:73     .text.queues1_setup:0000000000000000 queues1_setup
/var/folders/qh/xwg3v3kj02qbxczjpdb8lzfr0000gn/T//ccSPuUNF.s:101    .text.queues1_setup:000000000000001c $d
/var/folders/qh/xwg3v3kj02qbxczjpdb8lzfr0000gn/T//ccSPuUNF.s:108    .text.thread2:0000000000000000 $t
/var/folders/qh/xwg3v3kj02qbxczjpdb8lzfr0000gn/T//ccSPuUNF.s:113    .text.thread2:0000000000000000 thread2
/var/folders/qh/xwg3v3kj02qbxczjpdb8lzfr0000gn/T//ccSPuUNF.s:136    .text.thread2:0000000000000010 $d
/var/folders/qh/xwg3v3kj02qbxczjpdb8lzfr0000gn/T//ccSPuUNF.s:141    .text.queues2_setup:0000000000000000 $t
/var/folders/qh/xwg3v3kj02qbxczjpdb8lzfr0000gn/T//ccSPuUNF.s:146    .text.queues2_setup:0000000000000000 queues2_setup
/var/folders/qh/xwg3v3kj02qbxczjpdb8lzfr0000gn/T//ccSPuUNF.s:174    .text.queues2_setup:000000000000001c $d
/var/folders/qh/xwg3v3kj02qbxczjpdb8lzfr0000gn/T//ccSPuUNF.s:181    .text.queues1_execute:0000000000000000 $t
/var/folders/qh/xwg3v3kj02qbxczjpdb8lzfr0000gn/T//ccSPuUNF.s:186    .text.queues1_execute:0000000000000000 queues1_execute
/var/folders/qh/xwg3v3kj02qbxczjpdb8lzfr0000gn/T//ccSPuUNF.s:642    .text.queues1_execute:0000000000000260 $d
/var/folders/qh/xwg3v3kj02qbxczjpdb8lzfr0000gn/T//ccSPuUNF.s:654    .text.queues2_execute:0000000000000000 $t
/var/folders/qh/xwg3v3kj02qbxczjpdb8lzfr0000gn/T//ccSPuUNF.s:659    .text.queues2_execute:0000000000000000 queues2_execute
/var/folders/qh/xwg3v3kj02qbxczjpdb8lzfr0000gn/T//ccSPuUNF.s:1091   .text.queues2_execute:000000000000023c $d
/var/folders/qh/xwg3v3kj02qbxczjpdb8lzfr0000gn/T//ccSPuUNF.s:1137   .rodata.patternqueues:0000000000000000 patternqueues
/var/folders/qh/xwg3v3kj02qbxczjpdb8lzfr0000gn/T//ccSPuUNF.s:1118   .rodata.testqueues2:0000000000000000 testqueues2
/var/folders/qh/xwg3v3kj02qbxczjpdb8lzfr0000gn/T//ccSPuUNF.s:1109   .rodata.testqueues1:0000000000000000 testqueues1
/var/folders/qh/xwg3v3kj02qbxczjpdb8lzfr0000gn/T//ccSPuUNF.s:1106   .rodata.testqueues1:0000000000000000 $d
/var/folders/qh/xwg3v3kj02qbxczjpdb8lzfr0000gn/T//ccSPuUNF.s:1115   .rodata.testqueues2:0000000000000000 $d
/var/folders/qh/xwg3v3kj02qbxczjpdb8lzfr0000gn/T//ccSPuUNF.s:1124   .rodata.str1.4:0000000000000000 $d
/var/folders/qh/xwg3v3kj02qbxczjpdb8lzfr0000gn/T//ccSPuUNF.s:1134   .rodata.patternqueues:0000000000000000 $d
/var/folders/qh/xwg3v3kj02qbxczjpdb8lzfr0000gn/T//ccSPuUNF.s:1142   .data.oq:0000000000000000 $d
/var/folders/qh/xwg3v3kj02qbxczjpdb8lzfr0000gn/T//ccSPuUNF.s:1146   .data.oq:0000000000000000 oq
/var/folders/qh/xwg3v3kj02qbxczjpdb8lzfr0000gn/T//ccSPuUNF.s:1157   .data.iq:0000000000000000 $d
/var/folders/qh/xwg3v3kj02qbxczjpdb8lzfr0000gn/T//ccSPuUNF.s:1161   .data.iq:0000000000000000 iq
                     .debug_frame:0000000000000010 $d
/var/folders/qh/xwg3v3kj02qbxczjpdb8lzfr0000gn/T//ccSPuUNF.s:67     .text.thread1:0000000000000014 $t
/var/folders/qh/xwg3v3kj02qbxczjpdb8lzfr0000gn/T//ccSPuUNF.s:107    .text.queues1_setup:0000000000000028 $t
/var/folders/qh/xwg3v3kj02qbxczjpdb8lzfr0000gn/T//ccSPuUNF.s:140    .text.thread2:0000000000000014 $t
/var/folders/qh/xwg3v3kj02qbxczjpdb8lzfr0000gn/T//ccSPuUNF.s:180    .text.queues2_setup:0000000000000028 $t
/var/folders/qh/xwg3v3kj02qbxczjpdb8lzfr0000gn/T//ccSPuUNF.s:653    .text.queues1_execute:0000000000000278 $t
/var/folders/qh/xwg3v3kj02qbxczjpdb8lzfr0000gn/T//ccSPuUNF.s:1105   .text.queues2_execute:0000000000000254 $t

UNDEFINED SYMBOLS
chIQGetTimeout
chIQInit
wa
chOQPutTimeout
chOQInit
dbg_check_lock
_test_assert
dbg_check_unlock
chIQPutI
test_emit_token
_test_assert_sequence
chIQReadTimeout
chIQResetI
chThdCreateStatic
test_wait_threads
ARM GAS  /var/folders/qh/xwg3v3kj02qbxczjpdb8lzfr0000gn/T//ccSPuUNF.s 			page 85


rlist
threads
chOQGetI
chOQWriteTimeout
chOQResetI
test
