ARM GAS  /var/folders/qh/xwg3v3kj02qbxczjpdb8lzfr0000gn/T//ccveQCJW.s 			page 1


   1              		.cpu cortex-m0
   2              		.fpu softvfp
   3              		.eabi_attribute 20, 1
   4              		.eabi_attribute 21, 1
   5              		.eabi_attribute 23, 3
   6              		.eabi_attribute 24, 1
   7              		.eabi_attribute 25, 1
   8              		.eabi_attribute 26, 1
   9              		.eabi_attribute 30, 2
  10              		.eabi_attribute 34, 0
  11              		.eabi_attribute 18, 4
  12              		.code	16
  13              		.file	"test.c"
  14              		.text
  15              	.Ltext0:
  16              		.cfi_sections	.debug_frame
  17              		.section	.text.tmr,"ax",%progbits
  18              		.align	2
  19              		.p2align 4,,15
  20              		.code	16
  21              		.thumb_func
  22              		.type	tmr, %function
  23              	tmr:
  24              	.LFB54:
  25              		.file 1 "../../test/test.c"
  26              		.loc 1 261 0
  27              		.cfi_startproc
  28              	.LVL0:
  29              		.loc 1 264 0
  30 0000 014B     		ldr	r3, .L2
  31 0002 0122     		mov	r2, #1
  32 0004 1A70     		strb	r2, [r3]
  33              		.loc 1 265 0
  34              		@ sp needed
  35 0006 7047     		bx	lr
  36              	.L3:
  37              		.align	2
  38              	.L2:
  39 0008 00000000 		.word	.LANCHOR0
  40              		.cfi_endproc
  41              	.LFE54:
  42              		.size	tmr, .-tmr
  43 000c C046C046 		.section	.text.print_line,"ax",%progbits
  44              		.align	2
  45              		.p2align 4,,15
  46              		.code	16
  47              		.thumb_func
  48              		.type	print_line, %function
  49              	print_line:
  50              	.LFB57:
  51              		.loc 1 300 0
  52              		.cfi_startproc
  53              	.LVL1:
  54 0000 38B5     		push	{r3, r4, r5, lr}
  55              		.cfi_def_cfa_offset 16
  56              		.cfi_offset 3, -16
  57              		.cfi_offset 4, -12
ARM GAS  /var/folders/qh/xwg3v3kj02qbxczjpdb8lzfr0000gn/T//ccveQCJW.s 			page 2


  58              		.cfi_offset 5, -8
  59              		.cfi_offset 14, -4
  60 0002 084D     		ldr	r5, .L8
  61              		.loc 1 300 0
  62 0004 4C24     		mov	r4, #76
  63              	.LVL2:
  64              	.L6:
  65              		.loc 1 304 0 discriminator 2
  66 0006 2868     		ldr	r0, [r5]
  67 0008 2D21     		mov	r1, #45
  68 000a 0368     		ldr	r3, [r0]
  69 000c 013C     		sub	r4, r4, #1
  70              	.LVL3:
  71 000e 9B68     		ldr	r3, [r3, #8]
  72 0010 9847     		blx	r3
  73              	.LVL4:
  74              		.loc 1 303 0 discriminator 2
  75 0012 002C     		cmp	r4, #0
  76 0014 F7D1     		bne	.L6
  77              		.loc 1 305 0
  78 0016 2868     		ldr	r0, [r5]
  79 0018 0349     		ldr	r1, .L8+4
  80 001a 0368     		ldr	r3, [r0]
  81 001c 0222     		mov	r2, #2
  82 001e 1B68     		ldr	r3, [r3]
  83 0020 9847     		blx	r3
  84              	.LVL5:
  85              		.loc 1 306 0
  86              		@ sp needed
  87 0022 38BD     		pop	{r3, r4, r5, pc}
  88              	.L9:
  89              		.align	2
  90              	.L8:
  91 0024 00000000 		.word	.LANCHOR1
  92 0028 00000000 		.word	.LC2
  93              		.cfi_endproc
  94              	.LFE57:
  95              		.size	print_line, .-print_line
  96              		.global	__aeabi_uidivmod
  97              		.global	__aeabi_uidiv
  98 002c C046C046 		.section	.text.test_printn,"ax",%progbits
  99              		.align	2
 100              		.p2align 4,,15
 101              		.global	test_printn
 102              		.code	16
 103              		.thumb_func
 104              		.type	test_printn, %function
 105              	test_printn:
 106              	.LFB40:
 107              		.loc 1 91 0
 108              		.cfi_startproc
 109              	.LVL6:
 110 0000 F0B5     		push	{r4, r5, r6, r7, lr}
 111              		.cfi_def_cfa_offset 20
 112              		.cfi_offset 4, -20
 113              		.cfi_offset 5, -16
 114              		.cfi_offset 6, -12
ARM GAS  /var/folders/qh/xwg3v3kj02qbxczjpdb8lzfr0000gn/T//ccveQCJW.s 			page 3


 115              		.cfi_offset 7, -8
 116              		.cfi_offset 14, -4
 117 0002 4746     		mov	r7, r8
 118 0004 80B4     		push	{r7}
 119              		.cfi_def_cfa_offset 24
 120              		.cfi_offset 8, -24
 121 0006 041C     		mov	r4, r0
 122 0008 84B0     		sub	sp, sp, #16
 123              		.cfi_def_cfa_offset 40
 124              		.loc 1 94 0
 125 000a 0028     		cmp	r0, #0
 126 000c 28D0     		beq	.L18
 127 000e 6F46     		mov	r7, sp
 128 0010 0137     		add	r7, r7, #1
 129 0012 3D1C     		mov	r5, r7
 130              	.L14:
 131              	.LVL7:
 132              		.loc 1 99 0
 133 0014 201C     		mov	r0, r4
 134 0016 0A21     		mov	r1, #10
 135 0018 FFF7FEFF 		bl	__aeabi_uidivmod
 136              	.LVL8:
 137 001c 0E1C     		mov	r6, r1
 138 001e 3036     		add	r6, r6, #48
 139 0020 6B1E     		sub	r3, r5, #1
 140              	.LVL9:
 141 0022 F6B2     		uxtb	r6, r6
 142 0024 201C     		mov	r0, r4
 143 0026 1E70     		strb	r6, [r3]
 144 0028 0A21     		mov	r1, #10
 145 002a FFF7FEFF 		bl	__aeabi_uidiv
 146              	.LVL10:
 147 002e A846     		mov	r8, r5
 148              	.LVL11:
 149 0030 041C     		mov	r4, r0
 150              	.LVL12:
 151 0032 0135     		add	r5, r5, #1
 152              	.LVL13:
 153              		.loc 1 98 0
 154 0034 0028     		cmp	r0, #0
 155 0036 EDD1     		bne	.L14
 156              		.loc 1 100 0 discriminator 1
 157 0038 6B46     		mov	r3, sp
 158 003a 9845     		cmp	r8, r3
 159 003c 0CD9     		bls	.L10
 160 003e 4446     		mov	r4, r8
 161 0040 0B4D     		ldr	r5, .L20
 162 0042 02E0     		b	.L17
 163              	.LVL14:
 164              	.L19:
 165 0044 A31E     		sub	r3, r4, #2
 166 0046 1E78     		ldrb	r6, [r3]
 167 0048 013C     		sub	r4, r4, #1
 168              	.LVL15:
 169              	.L17:
 170              		.loc 1 101 0
 171 004a 2868     		ldr	r0, [r5]
ARM GAS  /var/folders/qh/xwg3v3kj02qbxczjpdb8lzfr0000gn/T//ccveQCJW.s 			page 4


 172              	.LVL16:
 173 004c 311C     		mov	r1, r6
 174 004e 0368     		ldr	r3, [r0]
 175 0050 9B68     		ldr	r3, [r3, #8]
 176 0052 9847     		blx	r3
 177              	.LVL17:
 178              		.loc 1 100 0
 179 0054 A742     		cmp	r7, r4
 180 0056 F5D1     		bne	.L19
 181              	.LVL18:
 182              	.L10:
 183              		.loc 1 103 0
 184 0058 04B0     		add	sp, sp, #16
 185              		@ sp needed
 186 005a 04BC     		pop	{r2}
 187 005c 9046     		mov	r8, r2
 188 005e F0BD     		pop	{r4, r5, r6, r7, pc}
 189              	.LVL19:
 190              	.L18:
 191              	.LBB50:
 192              	.LBB51:
 193              		.loc 1 95 0
 194 0060 034B     		ldr	r3, .L20
 195 0062 3021     		mov	r1, #48
 196 0064 1868     		ldr	r0, [r3]
 197              	.LVL20:
 198 0066 0368     		ldr	r3, [r0]
 199 0068 9B68     		ldr	r3, [r3, #8]
 200 006a 9847     		blx	r3
 201              	.LVL21:
 202 006c F4E7     		b	.L10
 203              	.L21:
 204 006e C046     		.align	2
 205              	.L20:
 206 0070 00000000 		.word	.LANCHOR1
 207              	.LBE51:
 208              	.LBE50:
 209              		.cfi_endproc
 210              	.LFE40:
 211              		.size	test_printn, .-test_printn
 212 0074 C046C046 		.section	.text.test_print,"ax",%progbits
 212      C046C046 
 212      C046C046 
 213              		.align	2
 214              		.p2align 4,,15
 215              		.global	test_print
 216              		.code	16
 217              		.thumb_func
 218              		.type	test_print, %function
 219              	test_print:
 220              	.LFB41:
 221              		.loc 1 110 0
 222              		.cfi_startproc
 223              	.LVL22:
 224 0000 38B5     		push	{r3, r4, r5, lr}
 225              		.cfi_def_cfa_offset 16
 226              		.cfi_offset 3, -16
ARM GAS  /var/folders/qh/xwg3v3kj02qbxczjpdb8lzfr0000gn/T//ccveQCJW.s 			page 5


 227              		.cfi_offset 4, -12
 228              		.cfi_offset 5, -8
 229              		.cfi_offset 14, -4
 230              		.loc 1 112 0
 231 0002 0178     		ldrb	r1, [r0]
 232              		.loc 1 110 0
 233 0004 041C     		mov	r4, r0
 234              		.loc 1 112 0
 235 0006 0029     		cmp	r1, #0
 236 0008 08D0     		beq	.L22
 237 000a 054D     		ldr	r5, .L29
 238              	.LVL23:
 239              	.L25:
 240              		.loc 1 113 0
 241 000c 2868     		ldr	r0, [r5]
 242 000e 0134     		add	r4, r4, #1
 243              	.LVL24:
 244 0010 0368     		ldr	r3, [r0]
 245 0012 9B68     		ldr	r3, [r3, #8]
 246 0014 9847     		blx	r3
 247              	.LVL25:
 248              		.loc 1 112 0
 249 0016 2178     		ldrb	r1, [r4]
 250 0018 0029     		cmp	r1, #0
 251 001a F7D1     		bne	.L25
 252              	.L22:
 253              		.loc 1 114 0
 254              		@ sp needed
 255              	.LVL26:
 256 001c 38BD     		pop	{r3, r4, r5, pc}
 257              	.L30:
 258 001e C046     		.align	2
 259              	.L29:
 260 0020 00000000 		.word	.LANCHOR1
 261              		.cfi_endproc
 262              	.LFE41:
 263              		.size	test_print, .-test_print
 264 0024 C046C046 		.section	.text.test_println,"ax",%progbits
 264      C046C046 
 264      C046C046 
 265              		.align	2
 266              		.p2align 4,,15
 267              		.global	test_println
 268              		.code	16
 269              		.thumb_func
 270              		.type	test_println, %function
 271              	test_println:
 272              	.LFB42:
 273              		.loc 1 121 0
 274              		.cfi_startproc
 275              	.LVL27:
 276 0000 38B5     		push	{r3, r4, r5, lr}
 277              		.cfi_def_cfa_offset 16
 278              		.cfi_offset 3, -16
 279              		.cfi_offset 4, -12
 280              		.cfi_offset 5, -8
 281              		.cfi_offset 14, -4
ARM GAS  /var/folders/qh/xwg3v3kj02qbxczjpdb8lzfr0000gn/T//ccveQCJW.s 			page 6


 282              	.LBB52:
 283              	.LBB53:
 284              		.loc 1 112 0
 285 0002 0178     		ldrb	r1, [r0]
 286              	.LBE53:
 287              	.LBE52:
 288              		.loc 1 121 0
 289 0004 041C     		mov	r4, r0
 290 0006 094D     		ldr	r5, .L39
 291              	.LBB55:
 292              	.LBB54:
 293              		.loc 1 112 0
 294 0008 0029     		cmp	r1, #0
 295 000a 07D0     		beq	.L33
 296              	.LVL28:
 297              	.L34:
 298              		.loc 1 113 0
 299 000c 2868     		ldr	r0, [r5]
 300 000e 0134     		add	r4, r4, #1
 301              	.LVL29:
 302 0010 0368     		ldr	r3, [r0]
 303 0012 9B68     		ldr	r3, [r3, #8]
 304 0014 9847     		blx	r3
 305              	.LVL30:
 306              		.loc 1 112 0
 307 0016 2178     		ldrb	r1, [r4]
 308 0018 0029     		cmp	r1, #0
 309 001a F7D1     		bne	.L34
 310              	.L33:
 311              	.LBE54:
 312              	.LBE55:
 313              		.loc 1 124 0
 314 001c 2868     		ldr	r0, [r5]
 315 001e 0449     		ldr	r1, .L39+4
 316 0020 0368     		ldr	r3, [r0]
 317 0022 0222     		mov	r2, #2
 318 0024 1B68     		ldr	r3, [r3]
 319 0026 9847     		blx	r3
 320              	.LVL31:
 321              		.loc 1 125 0
 322              		@ sp needed
 323              	.LVL32:
 324 0028 38BD     		pop	{r3, r4, r5, pc}
 325              	.L40:
 326 002a C046     		.align	2
 327              	.L39:
 328 002c 00000000 		.word	.LANCHOR1
 329 0030 00000000 		.word	.LC2
 330              		.cfi_endproc
 331              	.LFE42:
 332              		.size	test_println, .-test_println
 333 0034 C046C046 		.section	.text.test_emit_token,"ax",%progbits
 333      C046C046 
 333      C046C046 
 334              		.align	2
 335              		.p2align 4,,15
 336              		.global	test_emit_token
ARM GAS  /var/folders/qh/xwg3v3kj02qbxczjpdb8lzfr0000gn/T//ccveQCJW.s 			page 7


 337              		.code	16
 338              		.thumb_func
 339              		.type	test_emit_token, %function
 340              	test_emit_token:
 341              	.LFB45:
 342              		.loc 1 147 0
 343              		.cfi_startproc
 344              	.LVL33:
 345 0000 10B5     		push	{r4, lr}
 346              		.cfi_def_cfa_offset 8
 347              		.cfi_offset 4, -8
 348              		.cfi_offset 14, -4
 349              		.loc 1 147 0
 350 0002 041C     		mov	r4, r0
 351              		.loc 1 149 0
 352              	@ 149 "../../test/test.c" 1
 353 0004 72B6     		cpsid   i
 354              	@ 0 "" 2
 355              		.code	16
 356 0006 FFF7FEFF 		bl	dbg_check_lock
 357              	.LVL34:
 358              		.loc 1 150 0
 359 000a 044A     		ldr	r2, .L42
 360 000c 1368     		ldr	r3, [r2]
 361 000e 591C     		add	r1, r3, #1
 362 0010 1C70     		strb	r4, [r3]
 363 0012 1160     		str	r1, [r2]
 364              		.loc 1 151 0
 365 0014 FFF7FEFF 		bl	dbg_check_unlock
 366              	.LVL35:
 367              	@ 151 "../../test/test.c" 1
 368 0018 62B6     		cpsie   i
 369              	@ 0 "" 2
 370              		.loc 1 152 0
 371              		.code	16
 372              		@ sp needed
 373 001a 10BD     		pop	{r4, pc}
 374              	.L43:
 375              		.align	2
 376              	.L42:
 377 001c 00000000 		.word	.LANCHOR2
 378              		.cfi_endproc
 379              	.LFE45:
 380              		.size	test_emit_token, .-test_emit_token
 381              		.section	.text._test_fail,"ax",%progbits
 382              		.align	2
 383              		.p2align 4,,15
 384              		.global	_test_fail
 385              		.code	16
 386              		.thumb_func
 387              		.type	_test_fail, %function
 388              	_test_fail:
 389              	.LFB46:
 390              		.loc 1 157 0
 391              		.cfi_startproc
 392              	.LVL36:
 393              		.loc 1 159 0
ARM GAS  /var/folders/qh/xwg3v3kj02qbxczjpdb8lzfr0000gn/T//ccveQCJW.s 			page 8


 394 0000 044A     		ldr	r2, .L45
 395 0002 0123     		mov	r3, #1
 396 0004 1370     		strb	r3, [r2]
 397              		.loc 1 160 0
 398 0006 044A     		ldr	r2, .L45+4
 399              		.loc 1 163 0
 400              		@ sp needed
 401              		.loc 1 160 0
 402 0008 1370     		strb	r3, [r2]
 403              		.loc 1 161 0
 404 000a 044B     		ldr	r3, .L45+8
 405 000c 1860     		str	r0, [r3]
 406              		.loc 1 163 0
 407 000e 0120     		mov	r0, #1
 408              	.LVL37:
 409 0010 7047     		bx	lr
 410              	.L46:
 411 0012 C046     		.align	2
 412              	.L45:
 413 0014 00000000 		.word	.LANCHOR3
 414 0018 00000000 		.word	.LANCHOR4
 415 001c 00000000 		.word	.LANCHOR5
 416              		.cfi_endproc
 417              	.LFE46:
 418              		.size	_test_fail, .-_test_fail
 419              		.section	.text._test_assert,"ax",%progbits
 420              		.align	2
 421              		.p2align 4,,15
 422              		.global	_test_assert
 423              		.code	16
 424              		.thumb_func
 425              		.type	_test_assert, %function
 426              	_test_assert:
 427              	.LFB47:
 428              		.loc 1 165 0
 429              		.cfi_startproc
 430              	.LVL38:
 431              		.loc 1 169 0
 432 0000 0023     		mov	r3, #0
 433              		.loc 1 167 0
 434 0002 0029     		cmp	r1, #0
 435 0004 07D1     		bne	.L48
 436              	.LVL39:
 437              	.LBB56:
 438              	.LBB57:
 439              		.loc 1 159 0
 440 0006 054A     		ldr	r2, .L50
 441 0008 0123     		mov	r3, #1
 442 000a 1370     		strb	r3, [r2]
 443              		.loc 1 160 0
 444 000c 044A     		ldr	r2, .L50+4
 445 000e 1370     		strb	r3, [r2]
 446              		.loc 1 161 0
 447 0010 044B     		ldr	r3, .L50+8
 448 0012 1860     		str	r0, [r3]
 449              	.LBE57:
 450              	.LBE56:
ARM GAS  /var/folders/qh/xwg3v3kj02qbxczjpdb8lzfr0000gn/T//ccveQCJW.s 			page 9


 451              		.loc 1 168 0
 452 0014 0123     		mov	r3, #1
 453              	.LVL40:
 454              	.L48:
 455              		.loc 1 170 0
 456 0016 181C     		mov	r0, r3
 457              	.LVL41:
 458              		@ sp needed
 459 0018 7047     		bx	lr
 460              	.L51:
 461 001a C046     		.align	2
 462              	.L50:
 463 001c 00000000 		.word	.LANCHOR3
 464 0020 00000000 		.word	.LANCHOR4
 465 0024 00000000 		.word	.LANCHOR5
 466              		.cfi_endproc
 467              	.LFE47:
 468              		.size	_test_assert, .-_test_assert
 469 0028 C046C046 		.section	.text._test_assert_sequence,"ax",%progbits
 469      C046C046 
 470              		.align	2
 471              		.p2align 4,,15
 472              		.global	_test_assert_sequence
 473              		.code	16
 474              		.thumb_func
 475              		.type	_test_assert_sequence, %function
 476              	_test_assert_sequence:
 477              	.LFB48:
 478              		.loc 1 172 0
 479              		.cfi_startproc
 480              	.LVL42:
 481 0000 F0B5     		push	{r4, r5, r6, r7, lr}
 482              		.cfi_def_cfa_offset 20
 483              		.cfi_offset 4, -20
 484              		.cfi_offset 5, -16
 485              		.cfi_offset 6, -12
 486              		.cfi_offset 7, -8
 487              		.cfi_offset 14, -4
 488              		.loc 1 172 0
 489 0002 8446     		mov	ip, r0
 490              	.LVL43:
 491 0004 0F4F     		ldr	r7, .L58
 492 0006 1048     		ldr	r0, .L58+4
 493              	.LVL44:
 494 0008 3E68     		ldr	r6, [r7]
 495 000a 031C     		mov	r3, r0
 496              		.loc 1 174 0
 497 000c 05E0     		b	.L53
 498              	.LVL45:
 499              	.L56:
 500              		.loc 1 175 0
 501 000e 1578     		ldrb	r5, [r2]
 502 0010 2278     		ldrb	r2, [r4]
 503 0012 0131     		add	r1, r1, #1
 504              	.LVL46:
 505 0014 0133     		add	r3, r3, #1
 506 0016 9542     		cmp	r5, r2
ARM GAS  /var/folders/qh/xwg3v3kj02qbxczjpdb8lzfr0000gn/T//ccveQCJW.s 			page 10


 507 0018 09D1     		bne	.L57
 508              	.LVL47:
 509              	.L53:
 510 001a 0C1C     		mov	r4, r1
 511              	.LVL48:
 512 001c 1A1C     		mov	r2, r3
 513              		.loc 1 174 0 discriminator 1
 514 001e 9E42     		cmp	r6, r3
 515 0020 F5D8     		bhi	.L56
 516              	.LVL49:
 517              		.loc 1 178 0
 518 0022 0B78     		ldrb	r3, [r1]
 519 0024 002B     		cmp	r3, #0
 520 0026 02D1     		bne	.L57
 521              	.LBB58:
 522              	.LBB59:
 523              		.loc 1 132 0
 524 0028 3860     		str	r0, [r7]
 525              	.LBE59:
 526              	.LBE58:
 527              		.loc 1 181 0
 528 002a 0020     		mov	r0, #0
 529 002c 08E0     		b	.L55
 530              	.LVL50:
 531              	.L57:
 532              	.LBB60:
 533              	.LBB61:
 534              		.loc 1 159 0
 535 002e 074A     		ldr	r2, .L58+8
 536 0030 0123     		mov	r3, #1
 537 0032 1370     		strb	r3, [r2]
 538              		.loc 1 160 0
 539 0034 064A     		ldr	r2, .L58+12
 540              	.LBE61:
 541              	.LBE60:
 542              		.loc 1 176 0
 543 0036 0120     		mov	r0, #1
 544              	.LBB63:
 545              	.LBB62:
 546              		.loc 1 160 0
 547 0038 1370     		strb	r3, [r2]
 548              		.loc 1 161 0
 549 003a 064B     		ldr	r3, .L58+16
 550 003c 6246     		mov	r2, ip
 551 003e 1A60     		str	r2, [r3]
 552              	.LVL51:
 553              	.L55:
 554              	.LBE62:
 555              	.LBE63:
 556              		.loc 1 182 0
 557              		@ sp needed
 558 0040 F0BD     		pop	{r4, r5, r6, r7, pc}
 559              	.L59:
 560 0042 C046     		.align	2
 561              	.L58:
 562 0044 00000000 		.word	.LANCHOR2
 563 0048 00000000 		.word	.LANCHOR6
ARM GAS  /var/folders/qh/xwg3v3kj02qbxczjpdb8lzfr0000gn/T//ccveQCJW.s 			page 11


 564 004c 00000000 		.word	.LANCHOR3
 565 0050 00000000 		.word	.LANCHOR4
 566 0054 00000000 		.word	.LANCHOR5
 567              		.cfi_endproc
 568              	.LFE48:
 569              		.size	_test_assert_sequence, .-_test_assert_sequence
 570 0058 C046C046 		.section	.text._test_assert_time_window,"ax",%progbits
 570      C046C046 
 571              		.align	2
 572              		.p2align 4,,15
 573              		.global	_test_assert_time_window
 574              		.code	16
 575              		.thumb_func
 576              		.type	_test_assert_time_window, %function
 577              	_test_assert_time_window:
 578              	.LFB49:
 579              		.loc 1 184 0
 580              		.cfi_startproc
 581              	.LVL52:
 582              		.loc 1 186 0
 583 0000 084B     		ldr	r3, .L63
 584              		.loc 1 184 0
 585 0002 10B5     		push	{r4, lr}
 586              		.cfi_def_cfa_offset 8
 587              		.cfi_offset 4, -8
 588              		.cfi_offset 14, -4
 589              		.loc 1 186 0
 590 0004 DC68     		ldr	r4, [r3, #12]
 591              	.LVL53:
 592              	.LBB64:
 593              	.LBB65:
 594              		.loc 1 169 0
 595 0006 0023     		mov	r3, #0
 596              	.LBE65:
 597              	.LBE64:
 598              		.loc 1 186 0
 599 0008 641A     		sub	r4, r4, r1
 600              	.LVL54:
 601 000a 511A     		sub	r1, r2, r1
 602              	.LVL55:
 603              	.LBB69:
 604              	.LBB68:
 605              		.loc 1 167 0
 606 000c 8C42     		cmp	r4, r1
 607 000e 07D3     		bcc	.L61
 608              	.LVL56:
 609              	.LBB66:
 610              	.LBB67:
 611              		.loc 1 159 0
 612 0010 054A     		ldr	r2, .L63+4
 613              	.LVL57:
 614 0012 0123     		mov	r3, #1
 615 0014 1370     		strb	r3, [r2]
 616              		.loc 1 160 0
 617 0016 054A     		ldr	r2, .L63+8
 618 0018 1370     		strb	r3, [r2]
 619              		.loc 1 161 0
ARM GAS  /var/folders/qh/xwg3v3kj02qbxczjpdb8lzfr0000gn/T//ccveQCJW.s 			page 12


 620 001a 054B     		ldr	r3, .L63+12
 621 001c 1860     		str	r0, [r3]
 622              	.LBE67:
 623              	.LBE66:
 624              		.loc 1 168 0
 625 001e 0123     		mov	r3, #1
 626              	.LVL58:
 627              	.L61:
 628              	.LBE68:
 629              	.LBE69:
 630              		.loc 1 187 0
 631 0020 181C     		mov	r0, r3
 632              	.LVL59:
 633              		@ sp needed
 634 0022 10BD     		pop	{r4, pc}
 635              	.L64:
 636              		.align	2
 637              	.L63:
 638 0024 00000000 		.word	vtlist
 639 0028 00000000 		.word	.LANCHOR3
 640 002c 00000000 		.word	.LANCHOR4
 641 0030 00000000 		.word	.LANCHOR5
 642              		.cfi_endproc
 643              	.LFE49:
 644              		.size	_test_assert_time_window, .-_test_assert_time_window
 645 0034 C046C046 		.section	.text.test_terminate_threads,"ax",%progbits
 645      C046C046 
 645      C046C046 
 646              		.align	2
 647              		.p2align 4,,15
 648              		.global	test_terminate_threads
 649              		.code	16
 650              		.thumb_func
 651              		.type	test_terminate_threads, %function
 652              	test_terminate_threads:
 653              	.LFB50:
 654              		.loc 1 196 0
 655              		.cfi_startproc
 656              	.LVL60:
 657 0000 38B5     		push	{r3, r4, r5, lr}
 658              		.cfi_def_cfa_offset 16
 659              		.cfi_offset 3, -16
 660              		.cfi_offset 4, -12
 661              		.cfi_offset 5, -8
 662              		.cfi_offset 14, -4
 663 0002 064C     		ldr	r4, .L72
 664 0004 251C     		mov	r5, r4
 665 0006 1435     		add	r5, r5, #20
 666              	.LVL61:
 667              	.L68:
 668              		.loc 1 200 0
 669 0008 2068     		ldr	r0, [r4]
 670 000a 0028     		cmp	r0, #0
 671 000c 01D0     		beq	.L66
 672              		.loc 1 201 0
 673 000e FFF7FEFF 		bl	chThdTerminate
 674              	.LVL62:
ARM GAS  /var/folders/qh/xwg3v3kj02qbxczjpdb8lzfr0000gn/T//ccveQCJW.s 			page 13


 675              	.L66:
 676 0012 0434     		add	r4, r4, #4
 677              		.loc 1 199 0
 678 0014 AC42     		cmp	r4, r5
 679 0016 F7D1     		bne	.L68
 680              		.loc 1 202 0
 681              		@ sp needed
 682 0018 38BD     		pop	{r3, r4, r5, pc}
 683              	.L73:
 684 001a C046     		.align	2
 685              	.L72:
 686 001c 00000000 		.word	.LANCHOR7
 687              		.cfi_endproc
 688              	.LFE50:
 689              		.size	test_terminate_threads, .-test_terminate_threads
 690              		.section	.text.test_wait_threads,"ax",%progbits
 691              		.align	2
 692              		.p2align 4,,15
 693              		.global	test_wait_threads
 694              		.code	16
 695              		.thumb_func
 696              		.type	test_wait_threads, %function
 697              	test_wait_threads:
 698              	.LFB51:
 699              		.loc 1 207 0
 700              		.cfi_startproc
 701              	.LVL63:
 702 0000 70B5     		push	{r4, r5, r6, lr}
 703              		.cfi_def_cfa_offset 16
 704              		.cfi_offset 4, -16
 705              		.cfi_offset 5, -12
 706              		.cfi_offset 6, -8
 707              		.cfi_offset 14, -4
 708 0002 074C     		ldr	r4, .L81
 709              		.loc 1 213 0
 710 0004 0026     		mov	r6, #0
 711 0006 251C     		mov	r5, r4
 712 0008 1435     		add	r5, r5, #20
 713              	.LVL64:
 714              	.L77:
 715              		.loc 1 211 0
 716 000a 2068     		ldr	r0, [r4]
 717 000c 0028     		cmp	r0, #0
 718 000e 02D0     		beq	.L75
 719              		.loc 1 212 0
 720 0010 FFF7FEFF 		bl	chThdWait
 721              	.LVL65:
 722              		.loc 1 213 0
 723 0014 2660     		str	r6, [r4]
 724              	.L75:
 725 0016 0434     		add	r4, r4, #4
 726              		.loc 1 210 0
 727 0018 AC42     		cmp	r4, r5
 728 001a F6D1     		bne	.L77
 729              		.loc 1 215 0
 730              		@ sp needed
 731 001c 70BD     		pop	{r4, r5, r6, pc}
ARM GAS  /var/folders/qh/xwg3v3kj02qbxczjpdb8lzfr0000gn/T//ccveQCJW.s 			page 14


 732              	.L82:
 733 001e C046     		.align	2
 734              	.L81:
 735 0020 00000000 		.word	.LANCHOR7
 736              		.cfi_endproc
 737              	.LFE51:
 738              		.size	test_wait_threads, .-test_wait_threads
 739 0024 C046C046 		.section	.text.test_cpu_pulse,"ax",%progbits
 739      C046C046 
 739      C046C046 
 740              		.align	2
 741              		.p2align 4,,15
 742              		.global	test_cpu_pulse
 743              		.code	16
 744              		.thumb_func
 745              		.type	test_cpu_pulse, %function
 746              	test_cpu_pulse:
 747              	.LFB52:
 748              		.loc 1 224 0
 749              		.cfi_startproc
 750              	.LVL66:
 751              		.loc 1 228 0
 752 0000 FA21     		mov	r1, #250
 753 0002 8900     		lsl	r1, r1, #2
 754 0004 4843     		mul	r0, r1
 755              	.LVL67:
 756              		.loc 1 227 0
 757 0006 0D4B     		ldr	r3, .L96
 758              		.loc 1 224 0
 759 0008 70B5     		push	{r4, r5, r6, lr}
 760              		.cfi_def_cfa_offset 16
 761              		.cfi_offset 4, -16
 762              		.cfi_offset 5, -12
 763              		.cfi_offset 6, -8
 764              		.cfi_offset 14, -4
 765              		.loc 1 228 0
 766 000a 0138     		sub	r0, r0, #1
 767              		.loc 1 227 0
 768 000c 9D69     		ldr	r5, [r3, #24]
 769              		.loc 1 228 0
 770 000e FFF7FEFF 		bl	__aeabi_uidiv
 771              	.LVL68:
 772              		.loc 1 227 0
 773 0012 2C6A     		ldr	r4, [r5, #32]
 774              	.LVL69:
 775              		.loc 1 228 0
 776 0014 661C     		add	r6, r4, #1
 777 0016 3018     		add	r0, r6, r0
 778              	.LVL70:
 779 0018 07E0     		b	.L89
 780              	.LVL71:
 781              	.L95:
 782 001a 0022     		mov	r2, #0
 783              		.loc 1 235 0 discriminator 1
 784 001c 9C42     		cmp	r4, r3
 785 001e 02D8     		bhi	.L87
 786              	.L92:
ARM GAS  /var/folders/qh/xwg3v3kj02qbxczjpdb8lzfr0000gn/T//ccveQCJW.s 			page 15


 787              		.loc 1 236 0 discriminator 2
 788 0020 8342     		cmp	r3, r0
 789 0022 9B41     		sbc	r3, r3, r3
 790              	.LVL72:
 791 0024 5A42     		neg	r2, r3
 792              	.L87:
 793              		.loc 1 236 0 is_stmt 0
 794 0026 002A     		cmp	r2, #0
 795 0028 07D0     		beq	.L94
 796              	.L89:
 797              		.loc 1 230 0 is_stmt 1
 798 002a 2B6A     		ldr	r3, [r5, #32]
 799              	.LVL73:
 800              		.loc 1 235 0
 801 002c 8442     		cmp	r4, r0
 802 002e F4D3     		bcc	.L95
 803 0030 0122     		mov	r2, #1
 804              		.loc 1 236 0
 805 0032 9C42     		cmp	r4, r3
 806 0034 F4D8     		bhi	.L92
 807 0036 002A     		cmp	r2, #0
 808 0038 F7D1     		bne	.L89
 809              	.LVL74:
 810              	.L94:
 811              		.loc 1 237 0
 812              		@ sp needed
 813              	.LVL75:
 814              	.LVL76:
 815 003a 70BD     		pop	{r4, r5, r6, pc}
 816              	.L97:
 817              		.align	2
 818              	.L96:
 819 003c 00000000 		.word	rlist
 820              		.cfi_endproc
 821              	.LFE52:
 822              		.size	test_cpu_pulse, .-test_cpu_pulse
 823              		.section	.text.test_wait_tick,"ax",%progbits
 824              		.align	2
 825              		.p2align 4,,15
 826              		.global	test_wait_tick
 827              		.code	16
 828              		.thumb_func
 829              		.type	test_wait_tick, %function
 830              	test_wait_tick:
 831              	.LFB53:
 832              		.loc 1 245 0
 833              		.cfi_startproc
 834 0000 08B5     		push	{r3, lr}
 835              		.cfi_def_cfa_offset 8
 836              		.cfi_offset 3, -8
 837              		.cfi_offset 14, -4
 838              		.loc 1 247 0
 839 0002 0120     		mov	r0, #1
 840 0004 FFF7FEFF 		bl	chThdSleep
 841              	.LVL77:
 842              		.loc 1 248 0
 843 0008 014B     		ldr	r3, .L99
ARM GAS  /var/folders/qh/xwg3v3kj02qbxczjpdb8lzfr0000gn/T//ccveQCJW.s 			page 16


 844              		.loc 1 249 0
 845              		@ sp needed
 846              		.loc 1 248 0
 847 000a D868     		ldr	r0, [r3, #12]
 848              		.loc 1 249 0
 849 000c 08BD     		pop	{r3, pc}
 850              	.L100:
 851 000e C046     		.align	2
 852              	.L99:
 853 0010 00000000 		.word	vtlist
 854              		.cfi_endproc
 855              	.LFE53:
 856              		.size	test_wait_tick, .-test_wait_tick
 857 0014 C046C046 		.section	.text.test_start_timer,"ax",%progbits
 857      C046C046 
 857      C046C046 
 858              		.align	2
 859              		.p2align 4,,15
 860              		.global	test_start_timer
 861              		.code	16
 862              		.thumb_func
 863              		.type	test_start_timer, %function
 864              	test_start_timer:
 865              	.LFB55:
 866              		.loc 1 272 0
 867              		.cfi_startproc
 868              	.LVL78:
 869              		.loc 1 275 0
 870 0000 0B4B     		ldr	r3, .L102
 871 0002 0022     		mov	r2, #0
 872              		.loc 1 272 0
 873 0004 10B5     		push	{r4, lr}
 874              		.cfi_def_cfa_offset 8
 875              		.cfi_offset 4, -8
 876              		.cfi_offset 14, -4
 877              		.loc 1 272 0
 878 0006 041C     		mov	r4, r0
 879              	.LVL79:
 880              		.loc 1 275 0
 881 0008 1A70     		strb	r2, [r3]
 882              		.loc 1 276 0
 883              	@ 276 "../../test/test.c" 1
 884 000a 72B6     		cpsid   i
 885              	@ 0 "" 2
 886              		.code	16
 887 000c FFF7FEFF 		bl	dbg_check_lock
 888              	.LVL80:
 889              		.loc 1 274 0
 890 0010 FA21     		mov	r1, #250
 891 0012 8900     		lsl	r1, r1, #2
 892 0014 4C43     		mul	r4, r1
 893              	.LVL81:
 894 0016 601E     		sub	r0, r4, #1
 895 0018 FFF7FEFF 		bl	__aeabi_uidiv
 896              	.LVL82:
 897              		.loc 1 276 0
 898 001c 054A     		ldr	r2, .L102+4
ARM GAS  /var/folders/qh/xwg3v3kj02qbxczjpdb8lzfr0000gn/T//ccveQCJW.s 			page 17


 899              		.loc 1 274 0
 900 001e 411C     		add	r1, r0, #1
 901              		.loc 1 276 0
 902 0020 0023     		mov	r3, #0
 903 0022 0548     		ldr	r0, .L102+8
 904 0024 FFF7FEFF 		bl	chVTSetI
 905              	.LVL83:
 906 0028 FFF7FEFF 		bl	dbg_check_unlock
 907              	.LVL84:
 908              	@ 276 "../../test/test.c" 1
 909 002c 62B6     		cpsie   i
 910              	@ 0 "" 2
 911              		.loc 1 277 0
 912              		.code	16
 913              		@ sp needed
 914 002e 10BD     		pop	{r4, pc}
 915              	.L103:
 916              		.align	2
 917              	.L102:
 918 0030 00000000 		.word	.LANCHOR0
 919 0034 00000000 		.word	tmr
 920 0038 00000000 		.word	.LANCHOR8
 921              		.cfi_endproc
 922              	.LFE55:
 923              		.size	test_start_timer, .-test_start_timer
 924 003c C046C046 		.section	.text.TestThread,"ax",%progbits
 925              		.align	2
 926              		.p2align 4,,15
 927              		.global	TestThread
 928              		.code	16
 929              		.thumb_func
 930              		.type	TestThread, %function
 931              	TestThread:
 932              	.LFB58:
 933              		.loc 1 314 0
 934              		.cfi_startproc
 935              	.LVL85:
 936 0000 F8B5     		push	{r3, r4, r5, r6, r7, lr}
 937              		.cfi_def_cfa_offset 24
 938              		.cfi_offset 3, -24
 939              		.cfi_offset 4, -20
 940              		.cfi_offset 5, -16
 941              		.cfi_offset 6, -12
 942              		.cfi_offset 7, -8
 943              		.cfi_offset 14, -4
 944 0002 4D46     		mov	r5, r9
 945 0004 4446     		mov	r4, r8
 946 0006 5F46     		mov	r7, fp
 947 0008 5646     		mov	r6, r10
 948 000a F0B4     		push	{r4, r5, r6, r7}
 949              		.cfi_def_cfa_offset 40
 950              		.cfi_offset 8, -40
 951              		.cfi_offset 9, -36
 952              		.cfi_offset 10, -32
 953              		.cfi_offset 11, -28
 954              		.loc 1 317 0
 955 000c A44C     		ldr	r4, .L176
ARM GAS  /var/folders/qh/xwg3v3kj02qbxczjpdb8lzfr0000gn/T//ccveQCJW.s 			page 18


 956 000e 2060     		str	r0, [r4]
 957              		.loc 1 318 0
 958 0010 A448     		ldr	r0, .L176+4
 959              	.LVL86:
 960 0012 FFF7FEFF 		bl	test_println
 961              	.LVL87:
 962              		.loc 1 319 0
 963 0016 A448     		ldr	r0, .L176+8
 964 0018 FFF7FEFF 		bl	test_println
 965              	.LVL88:
 966              		.loc 1 320 0
 967 001c A348     		ldr	r0, .L176+12
 968 001e FFF7FEFF 		bl	test_println
 969              	.LVL89:
 970 0022 A34D     		ldr	r5, .L176+16
 971              	.LBB106:
 972              	.LBB107:
 973              		.loc 1 112 0
 974 0024 2A21     		mov	r1, #42
 975              	.LVL90:
 976              	.L106:
 977              		.loc 1 113 0
 978 0026 2068     		ldr	r0, [r4]
 979              	.LVL91:
 980 0028 0135     		add	r5, r5, #1
 981              	.LVL92:
 982 002a 0368     		ldr	r3, [r0]
 983 002c 9B68     		ldr	r3, [r3, #8]
 984 002e 9847     		blx	r3
 985              	.LVL93:
 986 0030 6B1E     		sub	r3, r5, #1
 987              		.loc 1 112 0
 988 0032 1978     		ldrb	r1, [r3]
 989 0034 0029     		cmp	r1, #0
 990 0036 F6D1     		bne	.L106
 991              	.LBE107:
 992              	.LBE106:
 993              		.loc 1 322 0
 994 0038 9E48     		ldr	r0, .L176+20
 995 003a FFF7FEFF 		bl	test_println
 996              	.LVL94:
 997 003e 9E4D     		ldr	r5, .L176+24
 998              	.LVL95:
 999              	.LBB108:
 1000              	.LBB109:
 1001              		.loc 1 112 0
 1002 0040 2A21     		mov	r1, #42
 1003              	.LVL96:
 1004              	.L144:
 1005              		.loc 1 113 0
 1006 0042 2068     		ldr	r0, [r4]
 1007              	.LVL97:
 1008 0044 0135     		add	r5, r5, #1
 1009              	.LVL98:
 1010 0046 0368     		ldr	r3, [r0]
 1011 0048 9B68     		ldr	r3, [r3, #8]
 1012 004a 9847     		blx	r3
ARM GAS  /var/folders/qh/xwg3v3kj02qbxczjpdb8lzfr0000gn/T//ccveQCJW.s 			page 19


 1013              	.LVL99:
 1014 004c 6B1E     		sub	r3, r5, #1
 1015              		.loc 1 112 0
 1016 004e 1978     		ldrb	r1, [r3]
 1017 0050 0029     		cmp	r1, #0
 1018 0052 F6D1     		bne	.L144
 1019              	.LBE109:
 1020              	.LBE108:
 1021              		.loc 1 324 0
 1022 0054 9948     		ldr	r0, .L176+28
 1023 0056 FFF7FEFF 		bl	test_println
 1024              	.LVL100:
 1025 005a 994D     		ldr	r5, .L176+32
 1026              	.LVL101:
 1027              	.LBB110:
 1028              	.LBB111:
 1029              		.loc 1 112 0
 1030 005c 2A21     		mov	r1, #42
 1031              	.LVL102:
 1032              	.L145:
 1033              		.loc 1 113 0
 1034 005e 2068     		ldr	r0, [r4]
 1035              	.LVL103:
 1036 0060 0135     		add	r5, r5, #1
 1037              	.LVL104:
 1038 0062 0368     		ldr	r3, [r0]
 1039 0064 9B68     		ldr	r3, [r3, #8]
 1040 0066 9847     		blx	r3
 1041              	.LVL105:
 1042 0068 6B1E     		sub	r3, r5, #1
 1043              		.loc 1 112 0
 1044 006a 1978     		ldrb	r1, [r3]
 1045 006c 0029     		cmp	r1, #0
 1046 006e F6D1     		bne	.L145
 1047              	.LBE111:
 1048              	.LBE110:
 1049              		.loc 1 327 0
 1050 0070 9448     		ldr	r0, .L176+36
 1051 0072 FFF7FEFF 		bl	test_println
 1052              	.LVL106:
 1053 0076 944D     		ldr	r5, .L176+40
 1054              	.LVL107:
 1055              	.LBB112:
 1056              	.LBB113:
 1057              		.loc 1 112 0
 1058 0078 2A21     		mov	r1, #42
 1059              	.LVL108:
 1060              	.L146:
 1061              		.loc 1 113 0
 1062 007a 2068     		ldr	r0, [r4]
 1063              	.LVL109:
 1064 007c 0135     		add	r5, r5, #1
 1065              	.LVL110:
 1066 007e 0368     		ldr	r3, [r0]
 1067 0080 9B68     		ldr	r3, [r3, #8]
 1068 0082 9847     		blx	r3
 1069              	.LVL111:
ARM GAS  /var/folders/qh/xwg3v3kj02qbxczjpdb8lzfr0000gn/T//ccveQCJW.s 			page 20


 1070 0084 6B1E     		sub	r3, r5, #1
 1071              		.loc 1 112 0
 1072 0086 1978     		ldrb	r1, [r3]
 1073 0088 0029     		cmp	r1, #0
 1074 008a F6D1     		bne	.L146
 1075              	.LBE113:
 1076              	.LBE112:
 1077              		.loc 1 330 0
 1078 008c 8F48     		ldr	r0, .L176+44
 1079 008e FFF7FEFF 		bl	test_println
 1080              	.LVL112:
 1081 0092 8F4D     		ldr	r5, .L176+48
 1082              	.LVL113:
 1083              	.LBB114:
 1084              	.LBB115:
 1085              		.loc 1 112 0
 1086 0094 2A21     		mov	r1, #42
 1087              	.LVL114:
 1088              	.L147:
 1089              		.loc 1 113 0
 1090 0096 2068     		ldr	r0, [r4]
 1091              	.LVL115:
 1092 0098 0135     		add	r5, r5, #1
 1093              	.LVL116:
 1094 009a 0368     		ldr	r3, [r0]
 1095 009c 9B68     		ldr	r3, [r3, #8]
 1096 009e 9847     		blx	r3
 1097              	.LVL117:
 1098 00a0 6B1E     		sub	r3, r5, #1
 1099              		.loc 1 112 0
 1100 00a2 1978     		ldrb	r1, [r3]
 1101 00a4 0029     		cmp	r1, #0
 1102 00a6 F6D1     		bne	.L147
 1103              	.LBE115:
 1104              	.LBE114:
 1105              		.loc 1 333 0
 1106 00a8 8A48     		ldr	r0, .L176+52
 1107 00aa FFF7FEFF 		bl	test_println
 1108              	.LVL118:
 1109 00ae 8A4D     		ldr	r5, .L176+56
 1110              	.LVL119:
 1111              	.LBB116:
 1112              	.LBB117:
 1113              		.loc 1 112 0
 1114 00b0 2A21     		mov	r1, #42
 1115              	.LVL120:
 1116              	.L148:
 1117              		.loc 1 113 0
 1118 00b2 2068     		ldr	r0, [r4]
 1119              	.LVL121:
 1120 00b4 0135     		add	r5, r5, #1
 1121              	.LVL122:
 1122 00b6 0368     		ldr	r3, [r0]
 1123 00b8 9B68     		ldr	r3, [r3, #8]
 1124 00ba 9847     		blx	r3
 1125              	.LVL123:
 1126 00bc 6B1E     		sub	r3, r5, #1
ARM GAS  /var/folders/qh/xwg3v3kj02qbxczjpdb8lzfr0000gn/T//ccveQCJW.s 			page 21


 1127              		.loc 1 112 0
 1128 00be 1978     		ldrb	r1, [r3]
 1129 00c0 0029     		cmp	r1, #0
 1130 00c2 F6D1     		bne	.L148
 1131              	.LBE117:
 1132              	.LBE116:
 1133              		.loc 1 337 0
 1134 00c4 8548     		ldr	r0, .L176+60
 1135 00c6 FFF7FEFF 		bl	test_println
 1136              	.LVL124:
 1137 00ca 854D     		ldr	r5, .L176+64
 1138              	.LVL125:
 1139              	.LBB118:
 1140              	.LBB119:
 1141              		.loc 1 112 0
 1142 00cc 2A21     		mov	r1, #42
 1143              	.LVL126:
 1144              	.L149:
 1145              		.loc 1 113 0
 1146 00ce 2068     		ldr	r0, [r4]
 1147              	.LVL127:
 1148 00d0 0135     		add	r5, r5, #1
 1149              	.LVL128:
 1150 00d2 0368     		ldr	r3, [r0]
 1151 00d4 9B68     		ldr	r3, [r3, #8]
 1152 00d6 9847     		blx	r3
 1153              	.LVL129:
 1154 00d8 6B1E     		sub	r3, r5, #1
 1155              		.loc 1 112 0
 1156 00da 1978     		ldrb	r1, [r3]
 1157 00dc 0029     		cmp	r1, #0
 1158 00de F6D1     		bne	.L149
 1159              	.LBE119:
 1160              	.LBE118:
 1161              		.loc 1 341 0
 1162 00e0 8048     		ldr	r0, .L176+68
 1163 00e2 FFF7FEFF 		bl	test_println
 1164              	.LVL130:
 1165              	.LBB120:
 1166              	.LBB121:
 1167              		.loc 1 112 0
 1168 00e6 2A25     		mov	r5, #42
 1169              	.LVL131:
 1170 00e8 7F4E     		ldr	r6, .L176+72
 1171 00ea 291C     		mov	r1, r5
 1172              	.LVL132:
 1173              	.L150:
 1174              		.loc 1 113 0
 1175 00ec 2068     		ldr	r0, [r4]
 1176              	.LVL133:
 1177 00ee 0136     		add	r6, r6, #1
 1178              	.LVL134:
 1179 00f0 0368     		ldr	r3, [r0]
 1180 00f2 9B68     		ldr	r3, [r3, #8]
 1181 00f4 9847     		blx	r3
 1182              	.LVL135:
 1183 00f6 731E     		sub	r3, r6, #1
ARM GAS  /var/folders/qh/xwg3v3kj02qbxczjpdb8lzfr0000gn/T//ccveQCJW.s 			page 22


 1184              		.loc 1 112 0
 1185 00f8 1978     		ldrb	r1, [r3]
 1186 00fa 0029     		cmp	r1, #0
 1187 00fc F6D1     		bne	.L150
 1188              	.LBE121:
 1189              	.LBE120:
 1190              		.loc 1 345 0
 1191 00fe 7B48     		ldr	r0, .L176+76
 1192 0100 0D1C     		mov	r5, r1
 1193 0102 FFF7FEFF 		bl	test_println
 1194              	.LVL136:
 1195              		.loc 1 347 0
 1196 0106 6748     		ldr	r0, .L176+4
 1197 0108 FFF7FEFF 		bl	test_println
 1198              	.LVL137:
 1199              		.loc 1 349 0
 1200 010c 784A     		ldr	r2, .L176+80
 1201 010e 794B     		ldr	r3, .L176+84
 1202 0110 1570     		strb	r5, [r2]
 1203              	.LVL138:
 1204              		.loc 1 350 0
 1205 0112 0022     		mov	r2, #0
 1206 0114 9346     		mov	fp, r2
 1207              	.LBB122:
 1208              	.LBB123:
 1209              	.LBB124:
 1210              	.LBB125:
 1211              		.loc 1 132 0
 1212 0116 784A     		ldr	r2, .L176+88
 1213 0118 1E1C     		mov	r6, r3
 1214              	.LVL139:
 1215 011a 9246     		mov	r10, r2
 1216              	.LVL140:
 1217              	.L151:
 1218 011c 0123     		mov	r3, #1
 1219 011e 9B44     		add	fp, fp, r3
 1220              	.LVL141:
 1221              	.LBE125:
 1222              	.LBE124:
 1223              	.LBE123:
 1224              	.LBE122:
 1225              		.loc 1 353 0 discriminator 1
 1226 0120 3368     		ldr	r3, [r6]
 1227              	.LBB132:
 1228              	.LBB133:
 1229              		.loc 1 112 0 discriminator 1
 1230 0122 0022     		mov	r2, #0
 1231 0124 9046     		mov	r8, r2
 1232              	.LVL142:
 1233              	.LBE133:
 1234              	.LBE132:
 1235              		.loc 1 353 0 discriminator 1
 1236 0126 002B     		cmp	r3, #0
 1237 0128 00D1     		bne	.LCB1125
 1238 012a 89E0     		b	.L173	@long jump
 1239              	.LCB1125:
 1240              	.LVL143:
ARM GAS  /var/folders/qh/xwg3v3kj02qbxczjpdb8lzfr0000gn/T//ccveQCJW.s 			page 23


 1241              	.L138:
 1242              		.loc 1 354 0
 1243 012c FFF7FEFF 		bl	print_line
 1244              	.LVL144:
 1245 0130 724D     		ldr	r5, .L176+92
 1246              	.LBB135:
 1247              	.LBB136:
 1248              		.loc 1 112 0
 1249 0132 2D21     		mov	r1, #45
 1250              	.LVL145:
 1251              	.L122:
 1252              		.loc 1 113 0
 1253 0134 2068     		ldr	r0, [r4]
 1254              	.LVL146:
 1255 0136 0135     		add	r5, r5, #1
 1256              	.LVL147:
 1257 0138 0368     		ldr	r3, [r0]
 1258 013a 9B68     		ldr	r3, [r3, #8]
 1259 013c 9847     		blx	r3
 1260              	.LVL148:
 1261 013e 6B1E     		sub	r3, r5, #1
 1262              		.loc 1 112 0
 1263 0140 1978     		ldrb	r1, [r3]
 1264 0142 0029     		cmp	r1, #0
 1265 0144 F6D1     		bne	.L122
 1266              	.LBE136:
 1267              	.LBE135:
 1268              		.loc 1 356 0
 1269 0146 5846     		mov	r0, fp
 1270 0148 FFF7FEFF 		bl	test_printn
 1271              	.LVL149:
 1272              	.LBB137:
 1273              	.LBB138:
 1274              		.loc 1 113 0
 1275 014c 2068     		ldr	r0, [r4]
 1276              	.LVL150:
 1277 014e 2E21     		mov	r1, #46
 1278 0150 0368     		ldr	r3, [r0]
 1279 0152 9B68     		ldr	r3, [r3, #8]
 1280 0154 9847     		blx	r3
 1281              	.LVL151:
 1282              	.LBE138:
 1283              	.LBE137:
 1284              		.loc 1 358 0
 1285 0156 0123     		mov	r3, #1
 1286 0158 9844     		add	r8, r8, r3
 1287              	.LVL152:
 1288 015a 4046     		mov	r0, r8
 1289 015c FFF7FEFF 		bl	test_printn
 1290              	.LVL153:
 1291 0160 674D     		ldr	r5, .L176+96
 1292              	.LVL154:
 1293              	.LBB139:
 1294              	.LBB140:
 1295              		.loc 1 112 0
 1296 0162 2021     		mov	r1, #32
 1297              	.LVL155:
ARM GAS  /var/folders/qh/xwg3v3kj02qbxczjpdb8lzfr0000gn/T//ccveQCJW.s 			page 24


 1298              	.L152:
 1299              		.loc 1 113 0
 1300 0164 2068     		ldr	r0, [r4]
 1301              	.LVL156:
 1302 0166 0135     		add	r5, r5, #1
 1303              	.LVL157:
 1304 0168 0368     		ldr	r3, [r0]
 1305 016a 9B68     		ldr	r3, [r3, #8]
 1306 016c 9847     		blx	r3
 1307              	.LVL158:
 1308 016e 6B1E     		sub	r3, r5, #1
 1309              		.loc 1 112 0
 1310 0170 1978     		ldrb	r1, [r3]
 1311 0172 0029     		cmp	r1, #0
 1312 0174 F6D1     		bne	.L152
 1313              	.LBE140:
 1314              	.LBE139:
 1315              		.loc 1 360 0
 1316 0176 3368     		ldr	r3, [r6]
 1317 0178 1D68     		ldr	r5, [r3]
 1318              	.LVL159:
 1319              	.LBB141:
 1320              	.LBB142:
 1321              		.loc 1 112 0
 1322 017a 2978     		ldrb	r1, [r5]
 1323 017c 0029     		cmp	r1, #0
 1324 017e 07D0     		beq	.L127
 1325              	.L159:
 1326              		.loc 1 113 0
 1327 0180 2068     		ldr	r0, [r4]
 1328 0182 0135     		add	r5, r5, #1
 1329              	.LVL160:
 1330 0184 0368     		ldr	r3, [r0]
 1331 0186 9B68     		ldr	r3, [r3, #8]
 1332 0188 9847     		blx	r3
 1333              	.LVL161:
 1334              		.loc 1 112 0
 1335 018a 2978     		ldrb	r1, [r5]
 1336 018c 0029     		cmp	r1, #0
 1337 018e F7D1     		bne	.L159
 1338              	.L127:
 1339              	.LBE142:
 1340              	.LBE141:
 1341              		.loc 1 361 0
 1342 0190 5C48     		ldr	r0, .L176+100
 1343 0192 FFF7FEFF 		bl	test_println
 1344              	.LVL162:
 1345              		.loc 1 363 0
 1346 0196 C820     		mov	r0, #200
 1347 0198 FFF7FEFF 		bl	chThdSleep
 1348              	.LVL163:
 1349              	.LBB143:
 1350              	.LBB130:
 1351              		.loc 1 287 0
 1352 019c 5A4B     		ldr	r3, .L176+104
 1353              	.LBB128:
 1354              	.LBB126:
ARM GAS  /var/folders/qh/xwg3v3kj02qbxczjpdb8lzfr0000gn/T//ccveQCJW.s 			page 25


 1355              		.loc 1 132 0
 1356 019e 5B4F     		ldr	r7, .L176+108
 1357 01a0 5246     		mov	r2, r10
 1358              	.LBE126:
 1359              	.LBE128:
 1360              		.loc 1 287 0
 1361 01a2 9946     		mov	r9, r3
 1362              	.LBB129:
 1363              	.LBB127:
 1364              		.loc 1 132 0
 1365 01a4 3A60     		str	r2, [r7]
 1366              	.LBE127:
 1367              	.LBE129:
 1368              		.loc 1 287 0
 1369 01a6 0023     		mov	r3, #0
 1370 01a8 4A46     		mov	r2, r9
 1371 01aa 1370     		strb	r3, [r2]
 1372              		.loc 1 289 0
 1373 01ac 584A     		ldr	r2, .L176+112
 1374              	.LBE130:
 1375              	.LBE143:
 1376              		.loc 1 365 0
 1377 01ae 3568     		ldr	r5, [r6]
 1378              	.LVL164:
 1379              	.LBB144:
 1380              	.LBB131:
 1381              		.loc 1 289 0
 1382 01b0 1360     		str	r3, [r2]
 1383              	.LVL165:
 1384 01b2 5360     		str	r3, [r2, #4]
 1385              	.LVL166:
 1386 01b4 9360     		str	r3, [r2, #8]
 1387              	.LVL167:
 1388 01b6 D360     		str	r3, [r2, #12]
 1389              	.LVL168:
 1390 01b8 1361     		str	r3, [r2, #16]
 1391              	.LVL169:
 1392              		.loc 1 291 0
 1393 01ba 6B68     		ldr	r3, [r5, #4]
 1394 01bc 002B     		cmp	r3, #0
 1395 01be 00D0     		beq	.L126
 1396              		.loc 1 292 0
 1397 01c0 9847     		blx	r3
 1398              	.LVL170:
 1399              	.L126:
 1400              		.loc 1 293 0
 1401 01c2 EB68     		ldr	r3, [r5, #12]
 1402 01c4 9847     		blx	r3
 1403              	.LVL171:
 1404              		.loc 1 294 0
 1405 01c6 AB68     		ldr	r3, [r5, #8]
 1406 01c8 002B     		cmp	r3, #0
 1407 01ca 00D0     		beq	.L129
 1408              		.loc 1 295 0
 1409 01cc 9847     		blx	r3
 1410              	.LVL172:
 1411              	.L129:
ARM GAS  /var/folders/qh/xwg3v3kj02qbxczjpdb8lzfr0000gn/T//ccveQCJW.s 			page 26


 1412              		.loc 1 297 0
 1413 01ce FFF7FEFF 		bl	test_wait_threads
 1414              	.LVL173:
 1415              	.LBE131:
 1416              	.LBE144:
 1417              		.loc 1 366 0
 1418 01d2 4A46     		mov	r2, r9
 1419 01d4 1378     		ldrb	r3, [r2]
 1420 01d6 002B     		cmp	r3, #0
 1421 01d8 58D0     		beq	.L130
 1422 01da 4E4D     		ldr	r5, .L176+116
 1423              	.LVL174:
 1424              	.LBB145:
 1425              	.LBB146:
 1426              		.loc 1 112 0
 1427 01dc 2D21     		mov	r1, #45
 1428              	.L132:
 1429              	.LVL175:
 1430              		.loc 1 113 0
 1431 01de 2068     		ldr	r0, [r4]
 1432              	.LVL176:
 1433 01e0 0135     		add	r5, r5, #1
 1434              	.LVL177:
 1435 01e2 0368     		ldr	r3, [r0]
 1436 01e4 9B68     		ldr	r3, [r3, #8]
 1437 01e6 9847     		blx	r3
 1438              	.LVL178:
 1439 01e8 6B1E     		sub	r3, r5, #1
 1440              		.loc 1 112 0
 1441 01ea 1978     		ldrb	r1, [r3]
 1442 01ec 0029     		cmp	r1, #0
 1443 01ee F6D1     		bne	.L132
 1444              	.LBE146:
 1445              	.LBE145:
 1446              		.loc 1 368 0
 1447 01f0 494B     		ldr	r3, .L176+120
 1448 01f2 1868     		ldr	r0, [r3]
 1449 01f4 FFF7FEFF 		bl	test_printn
 1450              	.LVL179:
 1451 01f8 484D     		ldr	r5, .L176+124
 1452              	.LVL180:
 1453              	.LBB147:
 1454              	.LBB134:
 1455              		.loc 1 112 0
 1456 01fa 2021     		mov	r1, #32
 1457              	.LVL181:
 1458              	.L153:
 1459              		.loc 1 113 0
 1460 01fc 2068     		ldr	r0, [r4]
 1461              	.LVL182:
 1462 01fe 0135     		add	r5, r5, #1
 1463              	.LVL183:
 1464 0200 0368     		ldr	r3, [r0]
 1465 0202 9B68     		ldr	r3, [r3, #8]
 1466 0204 9847     		blx	r3
 1467              	.LVL184:
 1468 0206 6B1E     		sub	r3, r5, #1
ARM GAS  /var/folders/qh/xwg3v3kj02qbxczjpdb8lzfr0000gn/T//ccveQCJW.s 			page 27


 1469              		.loc 1 112 0
 1470 0208 1978     		ldrb	r1, [r3]
 1471 020a 0029     		cmp	r1, #0
 1472 020c F6D1     		bne	.L153
 1473              	.LVL185:
 1474              	.LBE134:
 1475              	.LBE147:
 1476              	.LBB148:
 1477              	.LBB149:
 1478              		.loc 1 138 0
 1479 020e 3B68     		ldr	r3, [r7]
 1480 0210 434D     		ldr	r5, .L176+128
 1481              	.LVL186:
 1482 0212 B146     		mov	r9, r6
 1483 0214 5345     		cmp	r3, r10
 1484 0216 0BD9     		bls	.L136
 1485              	.LVL187:
 1486              	.L160:
 1487              		.loc 1 139 0
 1488 0218 2068     		ldr	r0, [r4]
 1489 021a 6A1E     		sub	r2, r5, #1
 1490              	.LVL188:
 1491 021c 0368     		ldr	r3, [r0]
 1492 021e 1178     		ldrb	r1, [r2]
 1493 0220 9B68     		ldr	r3, [r3, #8]
 1494 0222 9847     		blx	r3
 1495              	.LVL189:
 1496              		.loc 1 138 0
 1497 0224 3A68     		ldr	r2, [r7]
 1498              		.loc 1 139 0
 1499 0226 2E1C     		mov	r6, r5
 1500              	.LVL190:
 1501 0228 0135     		add	r5, r5, #1
 1502              	.LVL191:
 1503              		.loc 1 138 0
 1504 022a 9642     		cmp	r6, r2
 1505 022c F4D3     		bcc	.L160
 1506 022e 4E46     		mov	r6, r9
 1507              	.LVL192:
 1508              	.L136:
 1509              	.LBE149:
 1510              	.LBE148:
 1511              		.loc 1 371 0
 1512 0230 3C48     		ldr	r0, .L176+132
 1513 0232 FFF7FEFF 		bl	test_println
 1514              	.LVL193:
 1515 0236 0436     		add	r6, r6, #4
 1516              	.L175:
 1517              	.LVL194:
 1518              		.loc 1 353 0
 1519 0238 3368     		ldr	r3, [r6]
 1520 023a 002B     		cmp	r3, #0
 1521 023c 00D0     		beq	.LCB1401
 1522 023e 75E7     		b	.L138	@long jump
 1523              	.LCB1401:
 1524              	.LVL195:
 1525              	.L173:
ARM GAS  /var/folders/qh/xwg3v3kj02qbxczjpdb8lzfr0000gn/T//ccveQCJW.s 			page 28


 1526 0240 5A46     		mov	r2, fp
 1527 0242 9300     		lsl	r3, r2, #2
 1528              		.loc 1 351 0
 1529 0244 384A     		ldr	r2, .L176+136
 1530 0246 D658     		ldr	r6, [r2, r3]
 1531 0248 002E     		cmp	r6, #0
 1532 024a 00D0     		beq	.LCB1417
 1533 024c 66E7     		b	.L151	@long jump
 1534              	.LCB1417:
 1535              		.loc 1 379 0
 1536 024e FFF7FEFF 		bl	print_line
 1537              	.LVL196:
 1538              		.loc 1 380 0
 1539 0252 1448     		ldr	r0, .L176+4
 1540 0254 FFF7FEFF 		bl	test_println
 1541              	.LVL197:
 1542 0258 344D     		ldr	r5, .L176+140
 1543              	.LBB150:
 1544              	.LBB151:
 1545              		.loc 1 112 0
 1546 025a 4621     		mov	r1, #70
 1547              	.LVL198:
 1548              	.L154:
 1549              		.loc 1 113 0
 1550 025c 2068     		ldr	r0, [r4]
 1551              	.LVL199:
 1552 025e 0135     		add	r5, r5, #1
 1553              	.LVL200:
 1554 0260 0368     		ldr	r3, [r0]
 1555 0262 9B68     		ldr	r3, [r3, #8]
 1556 0264 9847     		blx	r3
 1557              	.LVL201:
 1558 0266 6B1E     		sub	r3, r5, #1
 1559              		.loc 1 112 0
 1560 0268 1978     		ldrb	r1, [r3]
 1561 026a 0029     		cmp	r1, #0
 1562 026c F6D1     		bne	.L154
 1563              	.LBE151:
 1564              	.LBE150:
 1565              		.loc 1 382 0
 1566 026e 204A     		ldr	r2, .L176+80
 1567 0270 1378     		ldrb	r3, [r2]
 1568 0272 002B     		cmp	r3, #0
 1569 0274 0FD1     		bne	.L174
 1570              		.loc 1 385 0
 1571 0276 2E48     		ldr	r0, .L176+144
 1572 0278 FFF7FEFF 		bl	test_println
 1573              	.LVL202:
 1574              	.L143:
 1575              		.loc 1 387 0
 1576 027c 1C4B     		ldr	r3, .L176+80
 1577              		.loc 1 388 0
 1578              		@ sp needed
 1579              		.loc 1 387 0
 1580 027e 1878     		ldrb	r0, [r3]
 1581              	.LVL203:
 1582              	.LVL204:
ARM GAS  /var/folders/qh/xwg3v3kj02qbxczjpdb8lzfr0000gn/T//ccveQCJW.s 			page 29


 1583              	.LVL205:
 1584              		.loc 1 388 0
 1585 0280 3CBC     		pop	{r2, r3, r4, r5}
 1586 0282 9046     		mov	r8, r2
 1587 0284 9946     		mov	r9, r3
 1588 0286 A246     		mov	r10, r4
 1589 0288 AB46     		mov	fp, r5
 1590 028a F8BD     		pop	{r3, r4, r5, r6, r7, pc}
 1591              	.LVL206:
 1592              	.L130:
 1593              		.loc 1 374 0
 1594 028c 2948     		ldr	r0, .L176+148
 1595 028e FFF7FEFF 		bl	test_println
 1596              	.LVL207:
 1597 0292 0436     		add	r6, r6, #4
 1598 0294 D0E7     		b	.L175
 1599              	.LVL208:
 1600              	.L174:
 1601              		.loc 1 383 0
 1602 0296 2848     		ldr	r0, .L176+152
 1603 0298 FFF7FEFF 		bl	test_println
 1604              	.LVL209:
 1605 029c EEE7     		b	.L143
 1606              	.L177:
 1607 029e C046     		.align	2
 1608              	.L176:
 1609 02a0 00000000 		.word	.LANCHOR1
 1610 02a4 04000000 		.word	.LC39
 1611 02a8 08000000 		.word	.LC41
 1612 02ac 24000000 		.word	.LC43
 1613 02b0 01000000 		.word	.LC45+1
 1614 02b4 90000000 		.word	.LC67
 1615 02b8 01000000 		.word	.LC69+1
 1616 02bc B4000000 		.word	.LC71
 1617 02c0 01000000 		.word	.LC73+1
 1618 02c4 E0000000 		.word	.LC75
 1619 02c8 01000000 		.word	.LC77+1
 1620 02cc 3C010000 		.word	.LC79
 1621 02d0 01000000 		.word	.LC81+1
 1622 02d4 58010000 		.word	.LC83
 1623 02d8 01000000 		.word	.LC85+1
 1624 02dc 78010000 		.word	.LC87
 1625 02e0 01000000 		.word	.LC89+1
 1626 02e4 A4010000 		.word	.LC91
 1627 02e8 01000000 		.word	.LC93+1
 1628 02ec F0010000 		.word	.LC95
 1629 02f0 00000000 		.word	.LANCHOR4
 1630 02f4 00000000 		.word	patternthd
 1631 02f8 00000000 		.word	.LANCHOR6
 1632 02fc 01000000 		.word	.LC47+1
 1633 0300 01000000 		.word	.LC97+1
 1634 0304 4C000000 		.word	.LC49
 1635 0308 00000000 		.word	.LANCHOR3
 1636 030c 00000000 		.word	.LANCHOR2
 1637 0310 00000000 		.word	.LANCHOR7
 1638 0314 01000000 		.word	.LC55+1
 1639 0318 00000000 		.word	.LANCHOR5
ARM GAS  /var/folders/qh/xwg3v3kj02qbxczjpdb8lzfr0000gn/T//ccveQCJW.s 			page 30


 1640 031c 01000000 		.word	.LC100+1
 1641 0320 01000000 		.word	.LANCHOR6+1
 1642 0324 68000000 		.word	.LC57
 1643 0328 00000000 		.word	.LANCHOR9
 1644 032c 01000000 		.word	.LC102+1
 1645 0330 88000000 		.word	.LC65
 1646 0334 6C000000 		.word	.LC59
 1647 0338 80000000 		.word	.LC63
 1648              		.cfi_endproc
 1649              	.LFE58:
 1650              		.size	TestThread, .-TestThread
 1651              		.global	test_timer_done
 1652              		.global	wa
 1653              		.global	threads
 1654              		.global	test
 1655 033c C046C046 		.section	.bss.test,"aw",%nobits
 1656              		.align	3
 1657              		.type	test, %object
 1658              		.size	test, 1520
 1659              	test:
 1660 0000 00000000 		.space	1520
 1660      00000000 
 1660      00000000 
 1660      00000000 
 1660      00000000 
 1661              		.section	.bss.failpoint,"aw",%nobits
 1662              		.align	2
 1663              		.set	.LANCHOR5,. + 0
 1664              		.type	failpoint, %object
 1665              		.size	failpoint, 4
 1666              	failpoint:
 1667 0000 00000000 		.space	4
 1668              		.section	.bss.local_fail,"aw",%nobits
 1669              		.set	.LANCHOR3,. + 0
 1670              		.type	local_fail, %object
 1671              		.size	local_fail, 1
 1672              	local_fail:
 1673 0000 00       		.space	1
 1674              		.section	.bss.test_timer_done,"aw",%nobits
 1675              		.set	.LANCHOR0,. + 0
 1676              		.type	test_timer_done, %object
 1677              		.size	test_timer_done, 1
 1678              	test_timer_done:
 1679 0000 00       		.space	1
 1680              		.section	.rodata.wa,"a",%progbits
 1681              		.align	2
 1682              		.type	wa, %object
 1683              		.size	wa, 20
 1684              	wa:
 1685 0000 00000000 		.word	test
 1686 0004 30010000 		.word	test+304
 1687 0008 60020000 		.word	test+608
 1688 000c 90030000 		.word	test+912
 1689 0010 C0040000 		.word	test+1216
 1690              		.section	.bss.tokp,"aw",%nobits
 1691              		.align	2
 1692              		.set	.LANCHOR2,. + 0
ARM GAS  /var/folders/qh/xwg3v3kj02qbxczjpdb8lzfr0000gn/T//ccveQCJW.s 			page 31


 1693              		.type	tokp, %object
 1694              		.size	tokp, 4
 1695              	tokp:
 1696 0000 00000000 		.space	4
 1697              		.section	.bss.global_fail,"aw",%nobits
 1698              		.set	.LANCHOR4,. + 0
 1699              		.type	global_fail, %object
 1700              		.size	global_fail, 1
 1701              	global_fail:
 1702 0000 00       		.space	1
 1703              		.section	.rodata.str1.4,"aMS",%progbits,1
 1704              		.align	2
 1705              	.LC2:
 1706 0000 0D0A00   		.ascii	"\015\012\000"
 1707 0003 00       		.space	1
 1708              	.LC39:
 1709 0004 00       		.ascii	"\000"
 1710 0005 000000   		.space	3
 1711              	.LC41:
 1712 0008 2A2A2A20 		.ascii	"*** ChibiOS/RT test suite\000"
 1712      43686962 
 1712      694F532F 
 1712      52542074 
 1712      65737420 
 1713 0022 0000     		.space	2
 1714              	.LC43:
 1715 0024 2A2A2A00 		.ascii	"***\000"
 1716              	.LC45:
 1717 0028 2A2A2A20 		.ascii	"*** Kernel:       \000"
 1717      4B65726E 
 1717      656C3A20 
 1717      20202020 
 1717      202000
 1718 003b 00       		.space	1
 1719              	.LC47:
 1720 003c 2D2D2D20 		.ascii	"--- Test Case \000"
 1720      54657374 
 1720      20436173 
 1720      652000
 1721 004b 00       		.space	1
 1722              	.LC49:
 1723 004c 2900     		.ascii	")\000"
 1724 004e 0000     		.space	2
 1725              	.LC55:
 1726 0050 2D2D2D20 		.ascii	"--- Result: FAILURE (#\000"
 1726      52657375 
 1726      6C743A20 
 1726      4641494C 
 1726      55524520 
 1727 0067 00       		.space	1
 1728              	.LC57:
 1729 0068 5D2900   		.ascii	"])\000"
 1730 006b 00       		.space	1
 1731              	.LC59:
 1732 006c 2D2D2D20 		.ascii	"--- Result: SUCCESS\000"
 1732      52657375 
 1732      6C743A20 
ARM GAS  /var/folders/qh/xwg3v3kj02qbxczjpdb8lzfr0000gn/T//ccveQCJW.s 			page 32


 1732      53554343 
 1732      45535300 
 1733              	.LC63:
 1734 0080 4641494C 		.ascii	"FAILURE\000"
 1734      55524500 
 1735              	.LC65:
 1736 0088 53554343 		.ascii	"SUCCESS\000"
 1736      45535300 
 1737              	.LC67:
 1738 0090 322E372E 		.ascii	"2.7.0unstable\000"
 1738      30756E73 
 1738      7461626C 
 1738      6500
 1739 009e 0000     		.space	2
 1740              	.LC69:
 1741 00a0 2A2A2A20 		.ascii	"*** Compiled:     \000"
 1741      436F6D70 
 1741      696C6564 
 1741      3A202020 
 1741      202000
 1742 00b3 00       		.space	1
 1743              	.LC71:
 1744 00b4 4D617220 		.ascii	"Mar  6 2014 - 13:57:07\000"
 1744      20362032 
 1744      30313420 
 1744      2D203133 
 1744      3A35373A 
 1745 00cb 00       		.space	1
 1746              	.LC73:
 1747 00cc 2A2A2A20 		.ascii	"*** Compiler:     \000"
 1747      436F6D70 
 1747      696C6572 
 1747      3A202020 
 1747      202000
 1748 00df 00       		.space	1
 1749              	.LC75:
 1750 00e0 47434320 		.ascii	"GCC 4.8.3 20131129 (release) [ARM/embedded-4_8-bran"
 1750      342E382E 
 1750      33203230 
 1750      31333131 
 1750      32392028 
 1751 0113 63682072 		.ascii	"ch revision 205641]\000"
 1751      65766973 
 1751      696F6E20 
 1751      32303536 
 1751      34315D00 
 1752 0127 00       		.space	1
 1753              	.LC77:
 1754 0128 2A2A2A20 		.ascii	"*** Architecture: \000"
 1754      41726368 
 1754      69746563 
 1754      74757265 
 1754      3A2000
 1755 013b 00       		.space	1
 1756              	.LC79:
 1757 013c 41524D76 		.ascii	"ARMv6-M\000"
 1757      362D4D00 
ARM GAS  /var/folders/qh/xwg3v3kj02qbxczjpdb8lzfr0000gn/T//ccveQCJW.s 			page 33


 1758              	.LC81:
 1759 0144 2A2A2A20 		.ascii	"*** Core Variant: \000"
 1759      436F7265 
 1759      20566172 
 1759      69616E74 
 1759      3A2000
 1760 0157 00       		.space	1
 1761              	.LC83:
 1762 0158 436F7274 		.ascii	"Cortex-M0\000"
 1762      65782D4D 
 1762      3000
 1763 0162 0000     		.space	2
 1764              	.LC85:
 1765 0164 2A2A2A20 		.ascii	"*** Port Info:    \000"
 1765      506F7274 
 1765      20496E66 
 1765      6F3A2020 
 1765      202000
 1766 0177 00       		.space	1
 1767              	.LC87:
 1768 0178 50726565 		.ascii	"Preemption through NMI\000"
 1768      6D707469 
 1768      6F6E2074 
 1768      68726F75 
 1768      6768204E 
 1769 018f 00       		.space	1
 1770              	.LC89:
 1771 0190 2A2A2A20 		.ascii	"*** Platform:     \000"
 1771      506C6174 
 1771      666F726D 
 1771      3A202020 
 1771      202000
 1772 01a3 00       		.space	1
 1773              	.LC91:
 1774 01a4 53544D33 		.ascii	"STM32F051xx/F061xx Entry Level Medium Density devic"
 1774      32463035 
 1774      3178782F 
 1774      46303631 
 1774      78782045 
 1775 01d7 657300   		.ascii	"es\000"
 1776 01da 0000     		.space	2
 1777              	.LC93:
 1778 01dc 2A2A2A20 		.ascii	"*** Test Board:   \000"
 1778      54657374 
 1778      20426F61 
 1778      72643A20 
 1778      202000
 1779 01ef 00       		.space	1
 1780              	.LC95:
 1781 01f0 53542053 		.ascii	"ST STM32F0-Discovery\000"
 1781      544D3332 
 1781      46302D44 
 1781      6973636F 
 1781      76657279 
 1782 0205 000000   		.space	3
 1783              	.LC97:
 1784 0208 202800   		.ascii	" (\000"
ARM GAS  /var/folders/qh/xwg3v3kj02qbxczjpdb8lzfr0000gn/T//ccveQCJW.s 			page 34


 1785 020b 00       		.space	1
 1786              	.LC100:
 1787 020c 205B00   		.ascii	" [\000"
 1788 020f 00       		.space	1
 1789              	.LC102:
 1790 0210 46696E61 		.ascii	"Final result: \000"
 1790      6C207265 
 1790      73756C74 
 1790      3A2000
 1791 021f 00       		.section	.bss.vt,"aw",%nobits
 1792              		.align	2
 1793              		.set	.LANCHOR8,. + 0
 1794              		.type	vt, %object
 1795              		.size	vt, 20
 1796              	vt:
 1797 0000 00000000 		.space	20
 1797      00000000 
 1797      00000000 
 1797      00000000 
 1797      00000000 
 1798              		.section	.bss.threads,"aw",%nobits
 1799              		.align	2
 1800              		.set	.LANCHOR7,. + 0
 1801              		.type	threads, %object
 1802              		.size	threads, 20
 1803              	threads:
 1804 0000 00000000 		.space	20
 1804      00000000 
 1804      00000000 
 1804      00000000 
 1804      00000000 
 1805              		.section	.rodata.patterns,"a",%progbits
 1806              		.align	2
 1807              		.set	.LANCHOR9,. + 0
 1808              		.type	patterns, %object
 1809              		.size	patterns, 48
 1810              	patterns:
 1811 0000 00000000 		.word	patternthd
 1812 0004 00000000 		.word	patternsem
 1813 0008 00000000 		.word	patternmtx
 1814 000c 00000000 		.word	patternmsg
 1815 0010 00000000 		.word	patternmbox
 1816 0014 00000000 		.word	patternevt
 1817 0018 00000000 		.word	patternheap
 1818 001c 00000000 		.word	patternpools
 1819 0020 00000000 		.word	patterndyn
 1820 0024 00000000 		.word	patternqueues
 1821 0028 00000000 		.word	patternbmk
 1822 002c 00000000 		.word	0
 1823              		.section	.bss.chp,"aw",%nobits
 1824              		.align	2
 1825              		.set	.LANCHOR1,. + 0
 1826              		.type	chp, %object
 1827              		.size	chp, 4
 1828              	chp:
 1829 0000 00000000 		.space	4
 1830              		.section	.bss.tokens_buffer,"aw",%nobits
ARM GAS  /var/folders/qh/xwg3v3kj02qbxczjpdb8lzfr0000gn/T//ccveQCJW.s 			page 35


 1831              		.align	2
 1832              		.set	.LANCHOR6,. + 0
 1833              		.type	tokens_buffer, %object
 1834              		.size	tokens_buffer, 16
 1835              	tokens_buffer:
 1836 0000 00000000 		.space	16
 1836      00000000 
 1836      00000000 
 1836      00000000 
 1837              		.text
 1838              	.Letext0:
 1839              		.file 2 "/usr/local/Cellar/gcc-arm-none-eabi-48/20131218/lib/gcc/arm-none-eabi/4.8.3/include/stdde
 1840              		.file 3 "/usr/local/Cellar/gcc-arm-none-eabi-48/20131218/arm-none-eabi/include/stdint.h"
 1841              		.file 4 "../../os/ports/GCC/ARMCMx/chtypes.h"
 1842              		.file 5 "../../os/kernel/include/chlists.h"
 1843              		.file 6 "../../os/kernel/include/chthreads.h"
 1844              		.file 7 "../../os/ports/GCC/ARMCMx/chcore_v6m.h"
 1845              		.file 8 "../../os/kernel/include/chvt.h"
 1846              		.file 9 "../../os/kernel/include/chschd.h"
 1847              		.file 10 "../../os/kernel/include/chmtx.h"
 1848              		.file 11 "../../os/kernel/include/chstreams.h"
 1849              		.file 12 "../../test/test.h"
 1850              		.file 13 "../../test/testthd.h"
 1851              		.file 14 "../../test/testsem.h"
 1852              		.file 15 "../../test/testmtx.h"
 1853              		.file 16 "../../test/testmsg.h"
 1854              		.file 17 "../../test/testmbox.h"
 1855              		.file 18 "../../test/testevt.h"
 1856              		.file 19 "../../test/testheap.h"
 1857              		.file 20 "../../test/testpools.h"
 1858              		.file 21 "../../test/testdyn.h"
 1859              		.file 22 "../../test/testqueues.h"
 1860              		.file 23 "../../test/testbmk.h"
 1861              		.file 24 "../../os/kernel/include/chdebug.h"