ARM GAS  /var/folders/qh/xwg3v3kj02qbxczjpdb8lzfr0000gn/T//ccuwC7Tn.s 			page 1


   1              		.cpu cortex-m0
   2              		.fpu softvfp
   3              		.eabi_attribute 20, 1
   4              		.eabi_attribute 21, 1
   5              		.eabi_attribute 23, 3
   6              		.eabi_attribute 24, 1
   7              		.eabi_attribute 25, 1
   8              		.eabi_attribute 26, 1
   9              		.eabi_attribute 30, 2
  10              		.eabi_attribute 34, 0
  11              		.eabi_attribute 18, 4
  12              		.code	16
  13              		.file	"testdyn.c"
  14              		.text
  15              	.Ltext0:
  16              		.cfi_sections	.debug_frame
  17              		.section	.text.dyn1_execute,"ax",%progbits
  18              		.align	2
  19              		.p2align 4,,15
  20              		.code	16
  21              		.thumb_func
  22              		.type	dyn1_execute, %function
  23              	dyn1_execute:
  24              	.LFB9:
  25              		.file 1 "../../test/testdyn.c"
  26              		.loc 1 83 0
  27              		.cfi_startproc
  28 0000 F0B5     		push	{r4, r5, r6, r7, lr}
  29              		.cfi_def_cfa_offset 20
  30              		.cfi_offset 4, -20
  31              		.cfi_offset 5, -16
  32              		.cfi_offset 6, -12
  33              		.cfi_offset 7, -8
  34              		.cfi_offset 14, -4
  35 0002 4746     		mov	r7, r8
  36 0004 80B4     		push	{r7}
  37              		.cfi_def_cfa_offset 24
  38              		.cfi_offset 8, -24
  39              		.loc 1 86 0
  40 0006 384B     		ldr	r3, .L12
  41              		.loc 1 88 0
  42 0008 384C     		ldr	r4, .L12+4
  43              		.loc 1 83 0
  44 000a 84B0     		sub	sp, sp, #16
  45              		.cfi_def_cfa_offset 40
  46              		.loc 1 86 0
  47 000c 9B69     		ldr	r3, [r3, #24]
  48              		.loc 1 88 0
  49 000e 03A9     		add	r1, sp, #12
  50 0010 201C     		mov	r0, r4
  51              		.loc 1 86 0
  52 0012 9F68     		ldr	r7, [r3, #8]
  53              	.LVL0:
  54              		.loc 1 88 0
  55 0014 FFF7FEFF 		bl	chHeapStatus
  56              	.LVL1:
  57              		.loc 1 90 0
ARM GAS  /var/folders/qh/xwg3v3kj02qbxczjpdb8lzfr0000gn/T//ccuwC7Tn.s 			page 2


  58 0018 354E     		ldr	r6, .L12+8
  59 001a 364B     		ldr	r3, .L12+12
  60 001c 9821     		mov	r1, #152
  61 001e 7A1E     		sub	r2, r7, #1
  62 0020 0093     		str	r3, [sp]
  63 0022 4900     		lsl	r1, r1, #1
  64 0024 331C     		mov	r3, r6
  65 0026 201C     		mov	r0, r4
  66 0028 FFF7FEFF 		bl	chThdCreateFromHeap
  67              	.LVL2:
  68 002c 324D     		ldr	r5, .L12+16
  69              		.loc 1 92 0
  70 002e 334B     		ldr	r3, .L12+20
  71 0030 9821     		mov	r1, #152
  72 0032 BA1E     		sub	r2, r7, #2
  73              		.loc 1 90 0
  74 0034 2860     		str	r0, [r5]
  75              		.loc 1 92 0
  76 0036 4900     		lsl	r1, r1, #1
  77 0038 0093     		str	r3, [sp]
  78 003a 201C     		mov	r0, r4
  79 003c 331C     		mov	r3, r6
  80 003e FFF7FEFF 		bl	chThdCreateFromHeap
  81              	.LVL3:
  82              		.loc 1 95 0
  83 0042 02A9     		add	r1, sp, #8
  84              		.loc 1 92 0
  85 0044 6860     		str	r0, [r5, #4]
  86              		.loc 1 95 0
  87 0046 201C     		mov	r0, r4
  88 0048 FFF7FEFF 		bl	chHeapStatus
  89              	.LVL4:
  90              		.loc 1 96 0
  91 004c 0299     		ldr	r1, [sp, #8]
  92 004e 201C     		mov	r0, r4
  93 0050 FFF7FEFF 		bl	chHeapAlloc
  94              	.LVL5:
  95              		.loc 1 97 0
  96 0054 2A4B     		ldr	r3, .L12+24
  97 0056 9821     		mov	r1, #152
  98 0058 FA1E     		sub	r2, r7, #3
  99              		.loc 1 96 0
 100 005a 8046     		mov	r8, r0
 101              	.LVL6:
 102              		.loc 1 97 0
 103 005c 0093     		str	r3, [sp]
 104 005e 4900     		lsl	r1, r1, #1
 105 0060 331C     		mov	r3, r6
 106 0062 201C     		mov	r0, r4
 107              	.LVL7:
 108 0064 FFF7FEFF 		bl	chThdCreateFromHeap
 109              	.LVL8:
 110 0068 A860     		str	r0, [r5, #8]
 111              		.loc 1 99 0
 112 006a 4046     		mov	r0, r8
 113 006c FFF7FEFF 		bl	chHeapFree
 114              	.LVL9:
ARM GAS  /var/folders/qh/xwg3v3kj02qbxczjpdb8lzfr0000gn/T//ccuwC7Tn.s 			page 3


 115              		.loc 1 101 0
 116 0070 2A68     		ldr	r2, [r5]
 117 0072 002A     		cmp	r2, #0
 118 0074 2ED0     		beq	.L5
 119              		.loc 1 101 0 is_stmt 0 discriminator 1
 120 0076 6B68     		ldr	r3, [r5, #4]
 121 0078 0021     		mov	r1, #0
 122 007a 002B     		cmp	r3, #0
 123 007c 02D0     		beq	.L2
 124 007e AA68     		ldr	r2, [r5, #8]
 125 0080 002A     		cmp	r2, #0
 126 0082 29D0     		beq	.L10
 127              	.L2:
 128              		.loc 1 101 0 discriminator 4
 129 0084 0120     		mov	r0, #1
 130 0086 FFF7FEFF 		bl	_test_assert
 131              	.LVL10:
 132 008a 0028     		cmp	r0, #0
 133 008c 03D0     		beq	.L11
 134              	.L1:
 135              		.loc 1 115 0 is_stmt 1
 136 008e 04B0     		add	sp, sp, #16
 137              		@ sp needed
 138              	.LVL11:
 139              	.LVL12:
 140 0090 04BC     		pop	{r2}
 141 0092 9046     		mov	r8, r2
 142 0094 F0BD     		pop	{r4, r5, r6, r7, pc}
 143              	.LVL13:
 144              	.L11:
 145              		.loc 1 109 0
 146 0096 FFF7FEFF 		bl	test_wait_threads
 147              	.LVL14:
 148              		.loc 1 110 0
 149 009a 0220     		mov	r0, #2
 150 009c 1949     		ldr	r1, .L12+28
 151 009e FFF7FEFF 		bl	_test_assert_sequence
 152              	.LVL15:
 153 00a2 0028     		cmp	r0, #0
 154 00a4 F3D1     		bne	.L1
 155              		.loc 1 113 0
 156 00a6 02A9     		add	r1, sp, #8
 157 00a8 201C     		mov	r0, r4
 158 00aa FFF7FEFF 		bl	chHeapStatus
 159              	.LVL16:
 160 00ae 411E     		sub	r1, r0, #1
 161 00b0 4B42     		neg	r3, r1
 162 00b2 5941     		adc	r1, r1, r3
 163 00b4 C9B2     		uxtb	r1, r1
 164 00b6 0320     		mov	r0, #3
 165 00b8 FFF7FEFF 		bl	_test_assert
 166              	.LVL17:
 167 00bc 0028     		cmp	r0, #0
 168 00be E6D1     		bne	.L1
 169              		.loc 1 114 0
 170 00c0 039B     		ldr	r3, [sp, #12]
 171 00c2 029A     		ldr	r2, [sp, #8]
ARM GAS  /var/folders/qh/xwg3v3kj02qbxczjpdb8lzfr0000gn/T//ccuwC7Tn.s 			page 4


 172 00c4 0420     		mov	r0, #4
 173 00c6 D11A     		sub	r1, r2, r3
 174 00c8 4B42     		neg	r3, r1
 175 00ca 5941     		adc	r1, r1, r3
 176 00cc C9B2     		uxtb	r1, r1
 177 00ce FFF7FEFF 		bl	_test_assert
 178              	.LVL18:
 179 00d2 DCE7     		b	.L1
 180              	.L5:
 181 00d4 0021     		mov	r1, #0
 182 00d6 D5E7     		b	.L2
 183              	.L10:
 184              		.loc 1 101 0 discriminator 1
 185 00d8 EB68     		ldr	r3, [r5, #12]
 186 00da 002B     		cmp	r3, #0
 187 00dc D2D1     		bne	.L2
 188 00de 2969     		ldr	r1, [r5, #16]
 189 00e0 4B42     		neg	r3, r1
 190 00e2 5941     		adc	r1, r1, r3
 191 00e4 C9B2     		uxtb	r1, r1
 192 00e6 CDE7     		b	.L2
 193              	.L13:
 194              		.align	2
 195              	.L12:
 196 00e8 00000000 		.word	rlist
 197 00ec 00000000 		.word	.LANCHOR0
 198 00f0 00000000 		.word	thread
 199 00f4 00000000 		.word	.LC3
 200 00f8 00000000 		.word	threads
 201 00fc 04000000 		.word	.LC6
 202 0100 08000000 		.word	.LC8
 203 0104 0C000000 		.word	.LC10
 204              		.cfi_endproc
 205              	.LFE9:
 206              		.size	dyn1_execute, .-dyn1_execute
 207 0108 C046C046 		.section	.text.thread,"ax",%progbits
 207      C046C046 
 208              		.align	2
 209              		.p2align 4,,15
 210              		.code	16
 211              		.thumb_func
 212              		.type	thread, %function
 213              	thread:
 214              	.LFB7:
 215              		.loc 1 71 0
 216              		.cfi_startproc
 217              	.LVL19:
 218 0000 08B5     		push	{r3, lr}
 219              		.cfi_def_cfa_offset 8
 220              		.cfi_offset 3, -8
 221              		.cfi_offset 14, -4
 222              		.loc 1 73 0
 223 0002 0078     		ldrb	r0, [r0]
 224              	.LVL20:
 225 0004 FFF7FEFF 		bl	test_emit_token
 226              	.LVL21:
 227              		.loc 1 75 0
ARM GAS  /var/folders/qh/xwg3v3kj02qbxczjpdb8lzfr0000gn/T//ccuwC7Tn.s 			page 5


 228              		@ sp needed
 229 0008 0020     		mov	r0, #0
 230 000a 08BD     		pop	{r3, pc}
 231              		.cfi_endproc
 232              	.LFE7:
 233              		.size	thread, .-thread
 234 000c C046C046 		.section	.text.dyn1_setup,"ax",%progbits
 235              		.align	2
 236              		.p2align 4,,15
 237              		.code	16
 238              		.thumb_func
 239              		.type	dyn1_setup, %function
 240              	dyn1_setup:
 241              	.LFB8:
 242              		.loc 1 78 0
 243              		.cfi_startproc
 244 0000 08B5     		push	{r3, lr}
 245              		.cfi_def_cfa_offset 8
 246              		.cfi_offset 3, -8
 247              		.cfi_offset 14, -4
 248              		.loc 1 80 0
 249 0002 BE22     		mov	r2, #190
 250 0004 0248     		ldr	r0, .L16
 251 0006 0349     		ldr	r1, .L16+4
 252 0008 D200     		lsl	r2, r2, #3
 253 000a FFF7FEFF 		bl	chHeapInit
 254              	.LVL22:
 255              		.loc 1 81 0
 256              		@ sp needed
 257 000e 08BD     		pop	{r3, pc}
 258              	.L17:
 259              		.align	2
 260              	.L16:
 261 0010 00000000 		.word	.LANCHOR0
 262 0014 00000000 		.word	test
 263              		.cfi_endproc
 264              	.LFE8:
 265              		.size	dyn1_setup, .-dyn1_setup
 266 0018 C046C046 		.section	.text.dyn3_setup,"ax",%progbits
 266      C046C046 
 267              		.align	2
 268              		.p2align 4,,15
 269              		.code	16
 270              		.thumb_func
 271              		.type	dyn3_setup, %function
 272              	dyn3_setup:
 273              	.LFB13:
 274              		.loc 1 203 0
 275              		.cfi_startproc
 276 0000 08B5     		push	{r3, lr}
 277              		.cfi_def_cfa_offset 8
 278              		.cfi_offset 3, -8
 279              		.cfi_offset 14, -4
 280              		.loc 1 205 0
 281 0002 BE22     		mov	r2, #190
 282 0004 0248     		ldr	r0, .L19
 283 0006 0349     		ldr	r1, .L19+4
ARM GAS  /var/folders/qh/xwg3v3kj02qbxczjpdb8lzfr0000gn/T//ccuwC7Tn.s 			page 6


 284 0008 D200     		lsl	r2, r2, #3
 285 000a FFF7FEFF 		bl	chHeapInit
 286              	.LVL23:
 287              		.loc 1 206 0
 288              		@ sp needed
 289 000e 08BD     		pop	{r3, pc}
 290              	.L20:
 291              		.align	2
 292              	.L19:
 293 0010 00000000 		.word	.LANCHOR0
 294 0014 00000000 		.word	test
 295              		.cfi_endproc
 296              	.LFE13:
 297              		.size	dyn3_setup, .-dyn3_setup
 298 0018 C046C046 		.section	.text.dyn2_execute,"ax",%progbits
 298      C046C046 
 299              		.align	2
 300              		.p2align 4,,15
 301              		.code	16
 302              		.thumb_func
 303              		.type	dyn2_execute, %function
 304              	dyn2_execute:
 305              	.LFB11:
 306              		.loc 1 141 0
 307              		.cfi_startproc
 308 0000 F8B5     		push	{r3, r4, r5, r6, r7, lr}
 309              		.cfi_def_cfa_offset 24
 310              		.cfi_offset 3, -24
 311              		.cfi_offset 4, -20
 312              		.cfi_offset 5, -16
 313              		.cfi_offset 6, -12
 314              		.cfi_offset 7, -8
 315              		.cfi_offset 14, -4
 316              		.loc 1 143 0
 317 0002 374B     		ldr	r3, .L35
 318 0004 374C     		ldr	r4, .L35+4
 319 0006 9B69     		ldr	r3, [r3, #24]
 320 0008 261C     		mov	r6, r4
 321 000a 9F68     		ldr	r7, [r3, #8]
 322              	.LVL24:
 323 000c 364D     		ldr	r5, .L35+8
 324 000e 1036     		add	r6, r6, #16
 325              	.LVL25:
 326              	.L23:
 327              		.loc 1 147 0 discriminator 2
 328 0010 02CC     		ldmia	r4!, {r1}
 329 0012 281C     		mov	r0, r5
 330 0014 FFF7FEFF 		bl	chPoolFree
 331              	.LVL26:
 332              		.loc 1 146 0 discriminator 2
 333 0018 B442     		cmp	r4, r6
 334 001a F9D1     		bne	.L23
 335              		.loc 1 150 0
 336 001c 334E     		ldr	r6, .L35+12
 337 001e 791E     		sub	r1, r7, #1
 338 0020 321C     		mov	r2, r6
 339 0022 334B     		ldr	r3, .L35+16
ARM GAS  /var/folders/qh/xwg3v3kj02qbxczjpdb8lzfr0000gn/T//ccuwC7Tn.s 			page 7


 340 0024 281C     		mov	r0, r5
 341 0026 FFF7FEFF 		bl	chThdCreateFromMemoryPool
 342              	.LVL27:
 343 002a 324C     		ldr	r4, .L35+20
 344              		.loc 1 151 0
 345 002c B91E     		sub	r1, r7, #2
 346              		.loc 1 150 0
 347 002e 2060     		str	r0, [r4]
 348              		.loc 1 151 0
 349 0030 321C     		mov	r2, r6
 350 0032 314B     		ldr	r3, .L35+24
 351 0034 281C     		mov	r0, r5
 352 0036 FFF7FEFF 		bl	chThdCreateFromMemoryPool
 353              	.LVL28:
 354              		.loc 1 152 0
 355 003a F91E     		sub	r1, r7, #3
 356              		.loc 1 151 0
 357 003c 6060     		str	r0, [r4, #4]
 358              		.loc 1 152 0
 359 003e 321C     		mov	r2, r6
 360 0040 2E4B     		ldr	r3, .L35+28
 361 0042 281C     		mov	r0, r5
 362 0044 FFF7FEFF 		bl	chThdCreateFromMemoryPool
 363              	.LVL29:
 364              		.loc 1 153 0
 365 0048 391F     		sub	r1, r7, #4
 366              		.loc 1 152 0
 367 004a A060     		str	r0, [r4, #8]
 368              		.loc 1 153 0
 369 004c 321C     		mov	r2, r6
 370 004e 2C4B     		ldr	r3, .L35+32
 371 0050 281C     		mov	r0, r5
 372 0052 FFF7FEFF 		bl	chThdCreateFromMemoryPool
 373              	.LVL30:
 374              		.loc 1 154 0
 375 0056 2B4B     		ldr	r3, .L35+36
 376              		.loc 1 153 0
 377 0058 E060     		str	r0, [r4, #12]
 378              		.loc 1 154 0
 379 005a 791F     		sub	r1, r7, #5
 380 005c 281C     		mov	r0, r5
 381 005e 321C     		mov	r2, r6
 382 0060 FFF7FEFF 		bl	chThdCreateFromMemoryPool
 383              	.LVL31:
 384              		.loc 1 156 0
 385 0064 2368     		ldr	r3, [r4]
 386              		.loc 1 154 0
 387 0066 2061     		str	r0, [r4, #16]
 388              		.loc 1 156 0
 389 0068 002B     		cmp	r3, #0
 390 006a 11D0     		beq	.L33
 391              		.loc 1 156 0 is_stmt 0 discriminator 1
 392 006c 6368     		ldr	r3, [r4, #4]
 393 006e 002B     		cmp	r3, #0
 394 0070 0ED0     		beq	.L33
 395 0072 A368     		ldr	r3, [r4, #8]
 396 0074 002B     		cmp	r3, #0
ARM GAS  /var/folders/qh/xwg3v3kj02qbxczjpdb8lzfr0000gn/T//ccuwC7Tn.s 			page 8


 397 0076 0BD0     		beq	.L33
 398 0078 E368     		ldr	r3, [r4, #12]
 399 007a 002B     		cmp	r3, #0
 400 007c 08D0     		beq	.L33
 401 007e 4142     		neg	r1, r0
 402 0080 4141     		adc	r1, r1, r0
 403 0082 C9B2     		uxtb	r1, r1
 404 0084 0120     		mov	r0, #1
 405 0086 FFF7FEFF 		bl	_test_assert
 406              	.LVL32:
 407 008a 0028     		cmp	r0, #0
 408 008c 06D0     		beq	.L34
 409              	.L21:
 410              		.loc 1 171 0 is_stmt 1
 411              		@ sp needed
 412              	.LVL33:
 413 008e F8BD     		pop	{r3, r4, r5, r6, r7, pc}
 414              	.LVL34:
 415              	.L33:
 416 0090 0021     		mov	r1, #0
 417              		.loc 1 156 0
 418 0092 0120     		mov	r0, #1
 419 0094 FFF7FEFF 		bl	_test_assert
 420              	.LVL35:
 421 0098 0028     		cmp	r0, #0
 422 009a F8D1     		bne	.L21
 423              	.L34:
 424              		.loc 1 164 0
 425 009c FFF7FEFF 		bl	test_wait_threads
 426              	.LVL36:
 427              		.loc 1 165 0
 428 00a0 0220     		mov	r0, #2
 429 00a2 1949     		ldr	r1, .L35+40
 430 00a4 FFF7FEFF 		bl	_test_assert_sequence
 431              	.LVL37:
 432 00a8 0028     		cmp	r0, #0
 433 00aa F0D1     		bne	.L21
 434 00ac 0424     		mov	r4, #4
 435              	.L29:
 436              	.LVL38:
 437              		.loc 1 169 0
 438 00ae 281C     		mov	r0, r5
 439 00b0 FFF7FEFF 		bl	chPoolAlloc
 440              	.LVL39:
 441 00b4 011C     		mov	r1, r0
 442 00b6 481E     		sub	r0, r1, #1
 443 00b8 8141     		sbc	r1, r1, r0
 444 00ba C9B2     		uxtb	r1, r1
 445 00bc 0320     		mov	r0, #3
 446 00be FFF7FEFF 		bl	_test_assert
 447              	.LVL40:
 448 00c2 0028     		cmp	r0, #0
 449 00c4 E3D1     		bne	.L21
 450              	.LVL41:
 451 00c6 013C     		sub	r4, r4, #1
 452              	.LVL42:
 453              		.loc 1 168 0
ARM GAS  /var/folders/qh/xwg3v3kj02qbxczjpdb8lzfr0000gn/T//ccuwC7Tn.s 			page 9


 454 00c8 002C     		cmp	r4, #0
 455 00ca F0D1     		bne	.L29
 456              		.loc 1 170 0
 457 00cc 281C     		mov	r0, r5
 458 00ce FFF7FEFF 		bl	chPoolAlloc
 459              	.LVL43:
 460 00d2 4142     		neg	r1, r0
 461 00d4 4141     		adc	r1, r1, r0
 462 00d6 C9B2     		uxtb	r1, r1
 463 00d8 0420     		mov	r0, #4
 464 00da FFF7FEFF 		bl	_test_assert
 465              	.LVL44:
 466 00de D6E7     		b	.L21
 467              	.L36:
 468              		.align	2
 469              	.L35:
 470 00e0 00000000 		.word	rlist
 471 00e4 00000000 		.word	wa
 472 00e8 00000000 		.word	.LANCHOR1
 473 00ec 00000000 		.word	thread
 474 00f0 00000000 		.word	.LC3
 475 00f4 00000000 		.word	threads
 476 00f8 04000000 		.word	.LC6
 477 00fc 08000000 		.word	.LC8
 478 0100 10000000 		.word	.LC26
 479 0104 14000000 		.word	.LC28
 480 0108 18000000 		.word	.LC30
 481              		.cfi_endproc
 482              	.LFE11:
 483              		.size	dyn2_execute, .-dyn2_execute
 484              		.section	.text.dyn2_setup,"ax",%progbits
 485              		.align	2
 486              		.p2align 4,,15
 487              		.code	16
 488              		.thumb_func
 489              		.type	dyn2_setup, %function
 490              	dyn2_setup:
 491              	.LFB10:
 492              		.loc 1 136 0
 493              		.cfi_startproc
 494 0000 08B5     		push	{r3, lr}
 495              		.cfi_def_cfa_offset 8
 496              		.cfi_offset 3, -8
 497              		.cfi_offset 14, -4
 498              		.loc 1 138 0
 499 0002 9821     		mov	r1, #152
 500 0004 0248     		ldr	r0, .L38
 501 0006 4900     		lsl	r1, r1, #1
 502 0008 0022     		mov	r2, #0
 503 000a FFF7FEFF 		bl	chPoolInit
 504              	.LVL45:
 505              		.loc 1 139 0
 506              		@ sp needed
 507 000e 08BD     		pop	{r3, pc}
 508              	.L39:
 509              		.align	2
 510              	.L38:
ARM GAS  /var/folders/qh/xwg3v3kj02qbxczjpdb8lzfr0000gn/T//ccuwC7Tn.s 			page 10


 511 0010 00000000 		.word	.LANCHOR1
 512              		.cfi_endproc
 513              	.LFE10:
 514              		.size	dyn2_setup, .-dyn2_setup
 515 0014 C046C046 		.section	.text.regfind,"ax",%progbits
 515      C046C046 
 515      C046C046 
 516              		.align	2
 517              		.p2align 4,,15
 518              		.code	16
 519              		.thumb_func
 520              		.type	regfind, %function
 521              	regfind:
 522              	.LFB12:
 523              		.loc 1 191 0
 524              		.cfi_startproc
 525              	.LVL46:
 526 0000 38B5     		push	{r3, r4, r5, lr}
 527              		.cfi_def_cfa_offset 16
 528              		.cfi_offset 3, -16
 529              		.cfi_offset 4, -12
 530              		.cfi_offset 5, -8
 531              		.cfi_offset 14, -4
 532              		.loc 1 191 0
 533 0002 051C     		mov	r5, r0
 534              		.loc 1 195 0
 535 0004 FFF7FEFF 		bl	chRegFirstThread
 536              	.LVL47:
 537              		.loc 1 193 0
 538 0008 0024     		mov	r4, #0
 539              	.LVL48:
 540              	.L42:
 541              		.loc 1 197 0 discriminator 1
 542 000a 431B     		sub	r3, r0, r5
 543 000c 5A42     		neg	r2, r3
 544 000e 5341     		adc	r3, r3, r2
 545 0010 1C43     		orr	r4, r3
 546              	.LVL49:
 547              		.loc 1 198 0 discriminator 1
 548 0012 FFF7FEFF 		bl	chRegNextThread
 549              	.LVL50:
 550              		.loc 1 199 0 discriminator 1
 551 0016 0028     		cmp	r0, #0
 552 0018 F7D1     		bne	.L42
 553              		.loc 1 201 0
 554 001a 201C     		mov	r0, r4
 555              	.LVL51:
 556              		@ sp needed
 557              	.LVL52:
 558              	.LVL53:
 559 001c 38BD     		pop	{r3, r4, r5, pc}
 560              		.cfi_endproc
 561              	.LFE12:
 562              		.size	regfind, .-regfind
 563 001e C046     		.section	.text.dyn3_execute,"ax",%progbits
 564              		.align	2
 565              		.p2align 4,,15
ARM GAS  /var/folders/qh/xwg3v3kj02qbxczjpdb8lzfr0000gn/T//ccuwC7Tn.s 			page 11


 566              		.code	16
 567              		.thumb_func
 568              		.type	dyn3_execute, %function
 569              	dyn3_execute:
 570              	.LFB14:
 571              		.loc 1 208 0
 572              		.cfi_startproc
 573              	.LVL54:
 574 0000 10B5     		push	{r4, lr}
 575              		.cfi_def_cfa_offset 8
 576              		.cfi_offset 4, -8
 577              		.cfi_offset 14, -4
 578              		.loc 1 210 0
 579 0002 474B     		ldr	r3, .L48
 580              		.loc 1 208 0
 581 0004 82B0     		sub	sp, sp, #8
 582              		.cfi_def_cfa_offset 16
 583              		.loc 1 210 0
 584 0006 9B69     		ldr	r3, [r3, #24]
 585              		.loc 1 213 0
 586 0008 9821     		mov	r1, #152
 587 000a 9A68     		ldr	r2, [r3, #8]
 588 000c 454B     		ldr	r3, .L48+4
 589 000e 4900     		lsl	r1, r1, #1
 590 0010 0093     		str	r3, [sp]
 591              	.LVL55:
 592 0012 013A     		sub	r2, r2, #1
 593 0014 444B     		ldr	r3, .L48+8
 594 0016 4548     		ldr	r0, .L48+12
 595 0018 FFF7FEFF 		bl	chThdCreateFromHeap
 596              	.LVL56:
 597              		.loc 1 214 0
 598 001c 817F     		ldrb	r1, [r0, #30]
 599              		.loc 1 213 0
 600 001e 041C     		mov	r4, r0
 601              	.LVL57:
 602              		.loc 1 214 0
 603 0020 0139     		sub	r1, r1, #1
 604 0022 4B42     		neg	r3, r1
 605 0024 5941     		adc	r1, r1, r3
 606 0026 C9B2     		uxtb	r1, r1
 607 0028 0120     		mov	r0, #1
 608              	.LVL58:
 609 002a FFF7FEFF 		bl	_test_assert
 610              	.LVL59:
 611 002e 0028     		cmp	r0, #0
 612 0030 01D0     		beq	.L47
 613              	.L43:
 614              		.loc 1 236 0
 615 0032 02B0     		add	sp, sp, #8
 616              		@ sp needed
 617              	.LVL60:
 618 0034 10BD     		pop	{r4, pc}
 619              	.LVL61:
 620              	.L47:
 621              		.loc 1 215 0
 622 0036 201C     		mov	r0, r4
ARM GAS  /var/folders/qh/xwg3v3kj02qbxczjpdb8lzfr0000gn/T//ccuwC7Tn.s 			page 12


 623 0038 FFF7FEFF 		bl	chThdAddRef
 624              	.LVL62:
 625              		.loc 1 216 0
 626 003c A17F     		ldrb	r1, [r4, #30]
 627 003e 0220     		mov	r0, #2
 628 0040 0239     		sub	r1, r1, #2
 629 0042 4B42     		neg	r3, r1
 630 0044 5941     		adc	r1, r1, r3
 631 0046 C9B2     		uxtb	r1, r1
 632 0048 FFF7FEFF 		bl	_test_assert
 633              	.LVL63:
 634 004c 0028     		cmp	r0, #0
 635 004e F0D1     		bne	.L43
 636              		.loc 1 217 0
 637 0050 201C     		mov	r0, r4
 638 0052 FFF7FEFF 		bl	chThdRelease
 639              	.LVL64:
 640              		.loc 1 218 0
 641 0056 A17F     		ldrb	r1, [r4, #30]
 642 0058 0320     		mov	r0, #3
 643 005a 0139     		sub	r1, r1, #1
 644 005c 4B42     		neg	r3, r1
 645 005e 5941     		adc	r1, r1, r3
 646 0060 C9B2     		uxtb	r1, r1
 647 0062 FFF7FEFF 		bl	_test_assert
 648              	.LVL65:
 649 0066 0028     		cmp	r0, #0
 650 0068 E3D1     		bne	.L43
 651              		.loc 1 221 0
 652 006a 201C     		mov	r0, r4
 653 006c FFF7FEFF 		bl	regfind
 654              	.LVL66:
 655 0070 011C     		mov	r1, r0
 656 0072 0420     		mov	r0, #4
 657 0074 FFF7FEFF 		bl	_test_assert
 658              	.LVL67:
 659 0078 0028     		cmp	r0, #0
 660 007a DAD1     		bne	.L43
 661              		.loc 1 222 0
 662 007c 201C     		mov	r0, r4
 663 007e FFF7FEFF 		bl	regfind
 664              	.LVL68:
 665 0082 011C     		mov	r1, r0
 666 0084 0520     		mov	r0, #5
 667 0086 FFF7FEFF 		bl	_test_assert
 668              	.LVL69:
 669 008a 0028     		cmp	r0, #0
 670 008c D1D1     		bne	.L43
 671              		.loc 1 225 0
 672 008e 201C     		mov	r0, r4
 673 0090 FFF7FEFF 		bl	chThdRelease
 674              	.LVL70:
 675              		.loc 1 226 0
 676 0094 A17F     		ldrb	r1, [r4, #30]
 677 0096 0620     		mov	r0, #6
 678 0098 4B42     		neg	r3, r1
 679 009a 5941     		adc	r1, r1, r3
ARM GAS  /var/folders/qh/xwg3v3kj02qbxczjpdb8lzfr0000gn/T//ccuwC7Tn.s 			page 13


 680 009c C9B2     		uxtb	r1, r1
 681 009e FFF7FEFF 		bl	_test_assert
 682              	.LVL71:
 683 00a2 0028     		cmp	r0, #0
 684 00a4 C5D1     		bne	.L43
 685              		.loc 1 227 0
 686 00a6 217F     		ldrb	r1, [r4, #28]
 687 00a8 0720     		mov	r0, #7
 688 00aa 4B42     		neg	r3, r1
 689 00ac 5941     		adc	r1, r1, r3
 690 00ae C9B2     		uxtb	r1, r1
 691 00b0 FFF7FEFF 		bl	_test_assert
 692              	.LVL72:
 693 00b4 0028     		cmp	r0, #0
 694 00b6 BCD1     		bne	.L43
 695              		.loc 1 228 0
 696 00b8 201C     		mov	r0, r4
 697 00ba FFF7FEFF 		bl	regfind
 698              	.LVL73:
 699 00be 011C     		mov	r1, r0
 700 00c0 0820     		mov	r0, #8
 701 00c2 FFF7FEFF 		bl	_test_assert
 702              	.LVL74:
 703 00c6 0028     		cmp	r0, #0
 704 00c8 B3D1     		bne	.L43
 705              		.loc 1 229 0
 706 00ca 201C     		mov	r0, r4
 707 00cc FFF7FEFF 		bl	regfind
 708              	.LVL75:
 709 00d0 011C     		mov	r1, r0
 710 00d2 0920     		mov	r0, #9
 711 00d4 FFF7FEFF 		bl	_test_assert
 712              	.LVL76:
 713 00d8 0028     		cmp	r0, #0
 714 00da AAD1     		bne	.L43
 715              		.loc 1 230 0
 716 00dc 3220     		mov	r0, #50
 717 00de FFF7FEFF 		bl	chThdSleep
 718              	.LVL77:
 719              		.loc 1 231 0
 720 00e2 217F     		ldrb	r1, [r4, #28]
 721 00e4 0A20     		mov	r0, #10
 722 00e6 0E39     		sub	r1, r1, #14
 723 00e8 4B42     		neg	r3, r1
 724 00ea 5941     		adc	r1, r1, r3
 725 00ec C9B2     		uxtb	r1, r1
 726 00ee FFF7FEFF 		bl	_test_assert
 727              	.LVL78:
 728 00f2 0028     		cmp	r0, #0
 729 00f4 9DD1     		bne	.L43
 730              		.loc 1 234 0
 731 00f6 201C     		mov	r0, r4
 732 00f8 FFF7FEFF 		bl	regfind
 733              	.LVL79:
 734 00fc 011C     		mov	r1, r0
 735 00fe 0B20     		mov	r0, #11
 736 0100 FFF7FEFF 		bl	_test_assert
ARM GAS  /var/folders/qh/xwg3v3kj02qbxczjpdb8lzfr0000gn/T//ccuwC7Tn.s 			page 14


 737              	.LVL80:
 738 0104 0028     		cmp	r0, #0
 739 0106 00D0     		beq	.LCB633
 740 0108 93E7     		b	.L43	@long jump
 741              	.LCB633:
 742              		.loc 1 235 0
 743 010a 201C     		mov	r0, r4
 744 010c FFF7FEFF 		bl	regfind
 745              	.LVL81:
 746 0110 0121     		mov	r1, #1
 747 0112 4140     		eor	r1, r0
 748 0114 C9B2     		uxtb	r1, r1
 749 0116 0C20     		mov	r0, #12
 750 0118 FFF7FEFF 		bl	_test_assert
 751              	.LVL82:
 752 011c 89E7     		b	.L43
 753              	.L49:
 754 011e C046     		.align	2
 755              	.L48:
 756 0120 00000000 		.word	rlist
 757 0124 00000000 		.word	.LC3
 758 0128 00000000 		.word	thread
 759 012c 00000000 		.word	.LANCHOR0
 760              		.cfi_endproc
 761              	.LFE14:
 762              		.size	dyn3_execute, .-dyn3_execute
 763              		.global	patterndyn
 764              		.global	testdyn3
 765              		.global	testdyn2
 766              		.global	testdyn1
 767              		.section	.rodata.testdyn1,"a",%progbits
 768              		.align	2
 769              		.type	testdyn1, %object
 770              		.size	testdyn1, 16
 771              	testdyn1:
 772 0000 78000000 		.word	.LC40
 773 0004 00000000 		.word	dyn1_setup
 774 0008 00000000 		.word	0
 775 000c 00000000 		.word	dyn1_execute
 776              		.section	.rodata.testdyn2,"a",%progbits
 777              		.align	2
 778              		.type	testdyn2, %object
 779              		.size	testdyn2, 16
 780              	testdyn2:
 781 0000 48000000 		.word	.LC39
 782 0004 00000000 		.word	dyn2_setup
 783 0008 00000000 		.word	0
 784 000c 00000000 		.word	dyn2_execute
 785              		.section	.rodata.testdyn3,"a",%progbits
 786              		.align	2
 787              		.type	testdyn3, %object
 788              		.size	testdyn3, 16
 789              	testdyn3:
 790 0000 20000000 		.word	.LC38
 791 0004 00000000 		.word	dyn3_setup
 792 0008 00000000 		.word	0
 793 000c 00000000 		.word	dyn3_execute
ARM GAS  /var/folders/qh/xwg3v3kj02qbxczjpdb8lzfr0000gn/T//ccuwC7Tn.s 			page 15


 794              		.section	.bss.mp1,"aw",%nobits
 795              		.align	2
 796              		.set	.LANCHOR1,. + 0
 797              		.type	mp1, %object
 798              		.size	mp1, 12
 799              	mp1:
 800 0000 00000000 		.space	12
 800      00000000 
 800      00000000 
 801              		.section	.rodata.str1.4,"aMS",%progbits,1
 802              		.align	2
 803              	.LC3:
 804 0000 4100     		.ascii	"A\000"
 805 0002 0000     		.space	2
 806              	.LC6:
 807 0004 4200     		.ascii	"B\000"
 808 0006 0000     		.space	2
 809              	.LC8:
 810 0008 4300     		.ascii	"C\000"
 811 000a 0000     		.space	2
 812              	.LC10:
 813 000c 414200   		.ascii	"AB\000"
 814 000f 00       		.space	1
 815              	.LC26:
 816 0010 4400     		.ascii	"D\000"
 817 0012 0000     		.space	2
 818              	.LC28:
 819 0014 4500     		.ascii	"E\000"
 820 0016 0000     		.space	2
 821              	.LC30:
 822 0018 41424344 		.ascii	"ABCD\000"
 822      00
 823 001d 000000   		.space	3
 824              	.LC38:
 825 0020 44796E61 		.ascii	"Dynamic APIs, registry and references\000"
 825      6D696320 
 825      41504973 
 825      2C207265 
 825      67697374 
 826 0046 0000     		.space	2
 827              	.LC39:
 828 0048 44796E61 		.ascii	"Dynamic APIs, threads creation from memory pool\000"
 828      6D696320 
 828      41504973 
 828      2C207468 
 828      72656164 
 829              	.LC40:
 830 0078 44796E61 		.ascii	"Dynamic APIs, threads creation from heap\000"
 830      6D696320 
 830      41504973 
 830      2C207468 
 830      72656164 
 831 00a1 000000   		.section	.rodata.patterndyn,"a",%progbits
 832              		.align	2
 833              		.type	patterndyn, %object
 834              		.size	patterndyn, 16
 835              	patterndyn:
ARM GAS  /var/folders/qh/xwg3v3kj02qbxczjpdb8lzfr0000gn/T//ccuwC7Tn.s 			page 16


 836 0000 00000000 		.word	testdyn1
 837 0004 00000000 		.word	testdyn2
 838 0008 00000000 		.word	testdyn3
 839 000c 00000000 		.word	0
 840              		.section	.bss.heap1,"aw",%nobits
 841              		.align	3
 842              		.set	.LANCHOR0,. + 0
 843              		.type	heap1, %object
 844              		.size	heap1, 32
 845              	heap1:
 846 0000 00000000 		.space	32
 846      00000000 
 846      00000000 
 846      00000000 
 846      00000000 
 847              		.text
 848              	.Letext0:
 849              		.file 2 "/usr/local/Cellar/gcc-arm-none-eabi-48/20131218/lib/gcc/arm-none-eabi/4.8.3/include/stdde
 850              		.file 3 "/usr/local/Cellar/gcc-arm-none-eabi-48/20131218/arm-none-eabi/include/stdint.h"
 851              		.file 4 "../../os/ports/GCC/ARMCMx/chtypes.h"
 852              		.file 5 "../../os/kernel/include/chlists.h"
 853              		.file 6 "../../os/kernel/include/chthreads.h"
 854              		.file 7 "../../os/ports/GCC/ARMCMx/chcore_v6m.h"
 855              		.file 8 "../../os/kernel/include/chschd.h"
 856              		.file 9 "../../os/kernel/include/chmtx.h"
 857              		.file 10 "../../os/kernel/include/chmemcore.h"
 858              		.file 11 "../../os/kernel/include/chheap.h"
 859              		.file 12 "../../os/kernel/include/chmempools.h"
 860              		.file 13 "../../test/test.h"
 861              		.file 14 "../../os/kernel/include/chdynamic.h"
 862              		.file 15 "../../os/kernel/include/chregistry.h"