ARM GAS  /var/folders/qh/xwg3v3kj02qbxczjpdb8lzfr0000gn/T//cckT6VqR.s 			page 1


   1              		.cpu cortex-m0
   2              		.fpu softvfp
   3              		.eabi_attribute 20, 1
   4              		.eabi_attribute 21, 1
   5              		.eabi_attribute 23, 3
   6              		.eabi_attribute 24, 1
   7              		.eabi_attribute 25, 1
   8              		.eabi_attribute 26, 1
   9              		.eabi_attribute 30, 2
  10              		.eabi_attribute 34, 0
  11              		.eabi_attribute 18, 4
  12              		.code	16
  13              		.file	"testsem.c"
  14              		.text
  15              	.Ltext0:
  16              		.cfi_sections	.debug_frame
  17              		.section	.text.sem1_execute,"ax",%progbits
  18              		.align	2
  19              		.p2align 4,,15
  20              		.code	16
  21              		.thumb_func
  22              		.type	sem1_execute, %function
  23              	sem1_execute:
  24              	.LFB9:
  25              		.file 1 "../../test/testsem.c"
  26              		.loc 1 84 0
  27              		.cfi_startproc
  28 0000 F0B5     		push	{r4, r5, r6, r7, lr}
  29              		.cfi_def_cfa_offset 20
  30              		.cfi_offset 4, -20
  31              		.cfi_offset 5, -16
  32              		.cfi_offset 6, -12
  33              		.cfi_offset 7, -8
  34              		.cfi_offset 14, -4
  35 0002 4746     		mov	r7, r8
  36 0004 80B4     		push	{r7}
  37              		.cfi_def_cfa_offset 24
  38              		.cfi_offset 8, -24
  39              		.loc 1 86 0
  40 0006 454C     		ldr	r4, .L4
  41 0008 454F     		ldr	r7, .L4+4
  42 000a 2368     		ldr	r3, [r4]
  43              		.loc 1 84 0
  44 000c 84B0     		sub	sp, sp, #16
  45              		.cfi_def_cfa_offset 40
  46              		.loc 1 86 0
  47 000e 0393     		str	r3, [sp, #12]
  48 0010 BB69     		ldr	r3, [r7, #24]
  49 0012 444E     		ldr	r6, .L4+8
  50 0014 9A68     		ldr	r2, [r3, #8]
  51 0016 444B     		ldr	r3, .L4+12
  52 0018 9821     		mov	r1, #152
  53 001a 0532     		add	r2, r2, #5
  54 001c 0093     		str	r3, [sp]
  55 001e 4900     		lsl	r1, r1, #1
  56 0020 9846     		mov	r8, r3
  57 0022 0398     		ldr	r0, [sp, #12]
ARM GAS  /var/folders/qh/xwg3v3kj02qbxczjpdb8lzfr0000gn/T//cckT6VqR.s 			page 2


  58 0024 331C     		mov	r3, r6
  59 0026 FFF7FEFF 		bl	chThdCreateStatic
  60              	.LVL0:
  61              		.loc 1 87 0
  62 002a 6368     		ldr	r3, [r4, #4]
  63              		.loc 1 86 0
  64 002c 3F4D     		ldr	r5, .L4+16
  65              		.loc 1 87 0
  66 002e 0293     		str	r3, [sp, #8]
  67 0030 BB69     		ldr	r3, [r7, #24]
  68 0032 9821     		mov	r1, #152
  69 0034 9A68     		ldr	r2, [r3, #8]
  70 0036 3E4B     		ldr	r3, .L4+20
  71              		.loc 1 86 0
  72 0038 2860     		str	r0, [r5]
  73              		.loc 1 87 0
  74 003a 0132     		add	r2, r2, #1
  75 003c 0093     		str	r3, [sp]
  76 003e 4900     		lsl	r1, r1, #1
  77 0040 331C     		mov	r3, r6
  78 0042 0298     		ldr	r0, [sp, #8]
  79 0044 FFF7FEFF 		bl	chThdCreateStatic
  80              	.LVL1:
  81              		.loc 1 88 0
  82 0048 A368     		ldr	r3, [r4, #8]
  83 004a 9821     		mov	r1, #152
  84 004c 0293     		str	r3, [sp, #8]
  85 004e BB69     		ldr	r3, [r7, #24]
  86              		.loc 1 87 0
  87 0050 6860     		str	r0, [r5, #4]
  88              		.loc 1 88 0
  89 0052 9A68     		ldr	r2, [r3, #8]
  90 0054 374B     		ldr	r3, .L4+24
  91 0056 0332     		add	r2, r2, #3
  92 0058 0093     		str	r3, [sp]
  93 005a 4900     		lsl	r1, r1, #1
  94 005c 331C     		mov	r3, r6
  95 005e 0298     		ldr	r0, [sp, #8]
  96 0060 FFF7FEFF 		bl	chThdCreateStatic
  97              	.LVL2:
  98              		.loc 1 89 0
  99 0064 E368     		ldr	r3, [r4, #12]
 100 0066 9821     		mov	r1, #152
 101 0068 0293     		str	r3, [sp, #8]
 102 006a BB69     		ldr	r3, [r7, #24]
 103              		.loc 1 88 0
 104 006c A860     		str	r0, [r5, #8]
 105              		.loc 1 89 0
 106 006e 9A68     		ldr	r2, [r3, #8]
 107 0070 314B     		ldr	r3, .L4+28
 108 0072 0432     		add	r2, r2, #4
 109 0074 0093     		str	r3, [sp]
 110 0076 4900     		lsl	r1, r1, #1
 111 0078 331C     		mov	r3, r6
 112 007a 0298     		ldr	r0, [sp, #8]
 113 007c FFF7FEFF 		bl	chThdCreateStatic
 114              	.LVL3:
ARM GAS  /var/folders/qh/xwg3v3kj02qbxczjpdb8lzfr0000gn/T//cckT6VqR.s 			page 3


 115              		.loc 1 90 0
 116 0080 BB69     		ldr	r3, [r7, #24]
 117 0082 2469     		ldr	r4, [r4, #16]
 118 0084 9A68     		ldr	r2, [r3, #8]
 119 0086 2D4B     		ldr	r3, .L4+32
 120 0088 9821     		mov	r1, #152
 121 008a 4900     		lsl	r1, r1, #1
 122 008c 0232     		add	r2, r2, #2
 123              		.loc 1 89 0
 124 008e E860     		str	r0, [r5, #12]
 125              		.loc 1 90 0
 126 0090 0093     		str	r3, [sp]
 127 0092 201C     		mov	r0, r4
 128 0094 331C     		mov	r3, r6
 129 0096 0294     		str	r4, [sp, #8]
 130 0098 FFF7FEFF 		bl	chThdCreateStatic
 131              	.LVL4:
 132              		.loc 1 91 0
 133 009c 284C     		ldr	r4, .L4+36
 134              		.loc 1 90 0
 135 009e 2861     		str	r0, [r5, #16]
 136              		.loc 1 91 0
 137 00a0 201C     		mov	r0, r4
 138 00a2 FFF7FEFF 		bl	chSemSignal
 139              	.LVL5:
 140              		.loc 1 92 0
 141 00a6 201C     		mov	r0, r4
 142 00a8 FFF7FEFF 		bl	chSemSignal
 143              	.LVL6:
 144              		.loc 1 93 0
 145 00ac 201C     		mov	r0, r4
 146 00ae FFF7FEFF 		bl	chSemSignal
 147              	.LVL7:
 148              		.loc 1 94 0
 149 00b2 201C     		mov	r0, r4
 150 00b4 FFF7FEFF 		bl	chSemSignal
 151              	.LVL8:
 152              		.loc 1 95 0
 153 00b8 201C     		mov	r0, r4
 154 00ba FFF7FEFF 		bl	chSemSignal
 155              	.LVL9:
 156              		.loc 1 96 0
 157 00be FFF7FEFF 		bl	test_wait_threads
 158              	.LVL10:
 159              		.loc 1 100 0
 160 00c2 0120     		mov	r0, #1
 161 00c4 1F49     		ldr	r1, .L4+40
 162 00c6 FFF7FEFF 		bl	_test_assert_sequence
 163              	.LVL11:
 164 00ca 0028     		cmp	r0, #0
 165 00cc 22D1     		bne	.L1
 166              		.loc 1 102 0
 167 00ce BB69     		ldr	r3, [r7, #24]
 168 00d0 9821     		mov	r1, #152
 169 00d2 9A68     		ldr	r2, [r3, #8]
 170 00d4 4346     		mov	r3, r8
 171 00d6 0093     		str	r3, [sp]
ARM GAS  /var/folders/qh/xwg3v3kj02qbxczjpdb8lzfr0000gn/T//cckT6VqR.s 			page 4


 172 00d8 0532     		add	r2, r2, #5
 173 00da 0398     		ldr	r0, [sp, #12]
 174 00dc 4900     		lsl	r1, r1, #1
 175 00de 331C     		mov	r3, r6
 176 00e0 FFF7FEFF 		bl	chThdCreateStatic
 177              	.LVL12:
 178 00e4 2860     		str	r0, [r5]
 179              		.loc 1 103 0
 180              	@ 103 "../../test/testsem.c" 1
 181 00e6 72B6     		cpsid   i
 182              	@ 0 "" 2
 183              		.code	16
 184 00e8 FFF7FEFF 		bl	dbg_check_lock
 185              	.LVL13:
 186              		.loc 1 104 0
 187 00ec 201C     		mov	r0, r4
 188 00ee 0221     		mov	r1, #2
 189 00f0 FFF7FEFF 		bl	chSemAddCounterI
 190              	.LVL14:
 191              		.loc 1 105 0
 192 00f4 FFF7FEFF 		bl	chSchRescheduleS
 193              	.LVL15:
 194              		.loc 1 106 0
 195 00f8 FFF7FEFF 		bl	dbg_check_unlock
 196              	.LVL16:
 197              	@ 106 "../../test/testsem.c" 1
 198 00fc 62B6     		cpsie   i
 199              	@ 0 "" 2
 200              		.loc 1 107 0
 201              		.code	16
 202 00fe FFF7FEFF 		bl	test_wait_threads
 203              	.LVL17:
 204              		.loc 1 108 0
 205 0102 0F4B     		ldr	r3, .L4+36
 206 0104 0220     		mov	r0, #2
 207 0106 9968     		ldr	r1, [r3, #8]
 208 0108 0139     		sub	r1, r1, #1
 209 010a 4B42     		neg	r3, r1
 210 010c 5941     		adc	r1, r1, r3
 211 010e C9B2     		uxtb	r1, r1
 212 0110 FFF7FEFF 		bl	_test_assert
 213              	.LVL18:
 214              	.L1:
 215              		.loc 1 109 0
 216 0114 04B0     		add	sp, sp, #16
 217              		@ sp needed
 218 0116 04BC     		pop	{r2}
 219 0118 9046     		mov	r8, r2
 220 011a F0BD     		pop	{r4, r5, r6, r7, pc}
 221              	.L5:
 222              		.align	2
 223              	.L4:
 224 011c 00000000 		.word	wa
 225 0120 00000000 		.word	rlist
 226 0124 00000000 		.word	thread1
 227 0128 00000000 		.word	.LC3
 228 012c 00000000 		.word	threads
ARM GAS  /var/folders/qh/xwg3v3kj02qbxczjpdb8lzfr0000gn/T//cckT6VqR.s 			page 5


 229 0130 04000000 		.word	.LC6
 230 0134 08000000 		.word	.LC8
 231 0138 0C000000 		.word	.LC10
 232 013c 10000000 		.word	.LC12
 233 0140 00000000 		.word	.LANCHOR0
 234 0144 14000000 		.word	.LC15
 235              		.cfi_endproc
 236              	.LFE9:
 237              		.size	sem1_execute, .-sem1_execute
 238 0148 C046C046 		.section	.text.thread3,"ax",%progbits
 238      C046C046 
 239              		.align	2
 240              		.p2align 4,,15
 241              		.code	16
 242              		.thumb_func
 243              		.type	thread3, %function
 244              	thread3:
 245              	.LFB14:
 246              		.loc 1 210 0
 247              		.cfi_startproc
 248              	.LVL19:
 249 0000 10B5     		push	{r4, lr}
 250              		.cfi_def_cfa_offset 8
 251              		.cfi_offset 4, -8
 252              		.cfi_offset 14, -4
 253              		.loc 1 213 0
 254 0002 044C     		ldr	r4, .L7
 255              		.loc 1 216 0
 256              		@ sp needed
 257              		.loc 1 213 0
 258 0004 201C     		mov	r0, r4
 259              	.LVL20:
 260 0006 FFF7FEFF 		bl	chSemWait
 261              	.LVL21:
 262              		.loc 1 214 0
 263 000a 201C     		mov	r0, r4
 264 000c FFF7FEFF 		bl	chSemSignal
 265              	.LVL22:
 266              		.loc 1 216 0
 267 0010 0020     		mov	r0, #0
 268 0012 10BD     		pop	{r4, pc}
 269              	.L8:
 270              		.align	2
 271              	.L7:
 272 0014 00000000 		.word	.LANCHOR0
 273              		.cfi_endproc
 274              	.LFE14:
 275              		.size	thread3, .-thread3
 276 0018 C046C046 		.section	.text.thread1,"ax",%progbits
 276      C046C046 
 277              		.align	2
 278              		.p2align 4,,15
 279              		.code	16
 280              		.thumb_func
 281              		.type	thread1, %function
 282              	thread1:
 283              	.LFB8:
ARM GAS  /var/folders/qh/xwg3v3kj02qbxczjpdb8lzfr0000gn/T//cckT6VqR.s 			page 6


 284              		.loc 1 77 0
 285              		.cfi_startproc
 286              	.LVL23:
 287 0000 10B5     		push	{r4, lr}
 288              		.cfi_def_cfa_offset 8
 289              		.cfi_offset 4, -8
 290              		.cfi_offset 14, -4
 291              		.loc 1 77 0
 292 0002 041C     		mov	r4, r0
 293              		.loc 1 79 0
 294 0004 0348     		ldr	r0, .L10
 295              	.LVL24:
 296 0006 FFF7FEFF 		bl	chSemWait
 297              	.LVL25:
 298              		.loc 1 80 0
 299 000a 2078     		ldrb	r0, [r4]
 300 000c FFF7FEFF 		bl	test_emit_token
 301              	.LVL26:
 302              		.loc 1 82 0
 303              		@ sp needed
 304 0010 0020     		mov	r0, #0
 305              	.LVL27:
 306 0012 10BD     		pop	{r4, pc}
 307              	.L11:
 308              		.align	2
 309              	.L10:
 310 0014 00000000 		.word	.LANCHOR0
 311              		.cfi_endproc
 312              	.LFE8:
 313              		.size	thread1, .-thread1
 314 0018 C046C046 		.section	.text.sem1_setup,"ax",%progbits
 314      C046C046 
 315              		.align	2
 316              		.p2align 4,,15
 317              		.code	16
 318              		.thumb_func
 319              		.type	sem1_setup, %function
 320              	sem1_setup:
 321              	.LFB7:
 322              		.loc 1 72 0
 323              		.cfi_startproc
 324 0000 08B5     		push	{r3, lr}
 325              		.cfi_def_cfa_offset 8
 326              		.cfi_offset 3, -8
 327              		.cfi_offset 14, -4
 328              		.loc 1 74 0
 329 0002 0248     		ldr	r0, .L13
 330 0004 0021     		mov	r1, #0
 331 0006 FFF7FEFF 		bl	chSemInit
 332              	.LVL28:
 333              		.loc 1 75 0
 334              		@ sp needed
 335 000a 08BD     		pop	{r3, pc}
 336              	.L14:
 337              		.align	2
 338              	.L13:
 339 000c 00000000 		.word	.LANCHOR0
ARM GAS  /var/folders/qh/xwg3v3kj02qbxczjpdb8lzfr0000gn/T//cckT6VqR.s 			page 7


 340              		.cfi_endproc
 341              	.LFE7:
 342              		.size	sem1_setup, .-sem1_setup
 343              		.section	.text.sem2_setup,"ax",%progbits
 344              		.align	2
 345              		.p2align 4,,15
 346              		.code	16
 347              		.thumb_func
 348              		.type	sem2_setup, %function
 349              	sem2_setup:
 350              	.LFB10:
 351              		.loc 1 129 0
 352              		.cfi_startproc
 353 0000 08B5     		push	{r3, lr}
 354              		.cfi_def_cfa_offset 8
 355              		.cfi_offset 3, -8
 356              		.cfi_offset 14, -4
 357              		.loc 1 131 0
 358 0002 0248     		ldr	r0, .L16
 359 0004 0021     		mov	r1, #0
 360 0006 FFF7FEFF 		bl	chSemInit
 361              	.LVL29:
 362              		.loc 1 132 0
 363              		@ sp needed
 364 000a 08BD     		pop	{r3, pc}
 365              	.L17:
 366              		.align	2
 367              	.L16:
 368 000c 00000000 		.word	.LANCHOR0
 369              		.cfi_endproc
 370              	.LFE10:
 371              		.size	sem2_setup, .-sem2_setup
 372              		.section	.text.sem3_setup,"ax",%progbits
 373              		.align	2
 374              		.p2align 4,,15
 375              		.code	16
 376              		.thumb_func
 377              		.type	sem3_setup, %function
 378              	sem3_setup:
 379              	.LFB13:
 380              		.loc 1 205 0
 381              		.cfi_startproc
 382 0000 08B5     		push	{r3, lr}
 383              		.cfi_def_cfa_offset 8
 384              		.cfi_offset 3, -8
 385              		.cfi_offset 14, -4
 386              		.loc 1 207 0
 387 0002 0248     		ldr	r0, .L19
 388 0004 0021     		mov	r1, #0
 389 0006 FFF7FEFF 		bl	chSemInit
 390              	.LVL30:
 391              		.loc 1 208 0
 392              		@ sp needed
 393 000a 08BD     		pop	{r3, pc}
 394              	.L20:
 395              		.align	2
 396              	.L19:
ARM GAS  /var/folders/qh/xwg3v3kj02qbxczjpdb8lzfr0000gn/T//cckT6VqR.s 			page 8


 397 000c 00000000 		.word	.LANCHOR0
 398              		.cfi_endproc
 399              	.LFE13:
 400              		.size	sem3_setup, .-sem3_setup
 401              		.section	.text.thread2,"ax",%progbits
 402              		.align	2
 403              		.p2align 4,,15
 404              		.code	16
 405              		.thumb_func
 406              		.type	thread2, %function
 407              	thread2:
 408              	.LFB11:
 409              		.loc 1 134 0
 410              		.cfi_startproc
 411              	.LVL31:
 412 0000 08B5     		push	{r3, lr}
 413              		.cfi_def_cfa_offset 8
 414              		.cfi_offset 3, -8
 415              		.cfi_offset 14, -4
 416              		.loc 1 137 0
 417 0002 3220     		mov	r0, #50
 418              	.LVL32:
 419 0004 FFF7FEFF 		bl	chThdSleep
 420              	.LVL33:
 421              		.loc 1 138 0
 422              	@ 138 "../../test/testsem.c" 1
 423 0008 72B6     		cpsid   i
 424              	@ 0 "" 2
 425              		.code	16
 426 000a FFF7FEFF 		bl	dbg_check_lock
 427              	.LVL34:
 428              		.loc 1 139 0
 429 000e 0548     		ldr	r0, .L22
 430 0010 FFF7FEFF 		bl	chSemSignalI
 431              	.LVL35:
 432              		.loc 1 140 0
 433 0014 FFF7FEFF 		bl	chSchRescheduleS
 434              	.LVL36:
 435              		.loc 1 141 0
 436 0018 FFF7FEFF 		bl	dbg_check_unlock
 437              	.LVL37:
 438              	@ 141 "../../test/testsem.c" 1
 439 001c 62B6     		cpsie   i
 440              	@ 0 "" 2
 441              		.loc 1 143 0
 442              		.code	16
 443 001e 0020     		mov	r0, #0
 444              		@ sp needed
 445 0020 08BD     		pop	{r3, pc}
 446              	.L23:
 447 0022 C046     		.align	2
 448              	.L22:
 449 0024 00000000 		.word	.LANCHOR0
 450              		.cfi_endproc
 451              	.LFE11:
 452              		.size	thread2, .-thread2
 453 0028 C046C046 		.section	.text.thread4,"ax",%progbits
ARM GAS  /var/folders/qh/xwg3v3kj02qbxczjpdb8lzfr0000gn/T//cckT6VqR.s 			page 9


 453      C046C046 
 454              		.align	2
 455              		.p2align 4,,15
 456              		.code	16
 457              		.thumb_func
 458              		.type	thread4, %function
 459              	thread4:
 460              	.LFB16:
 461              		.loc 1 246 0
 462              		.cfi_startproc
 463              	.LVL38:
 464 0000 10B5     		push	{r4, lr}
 465              		.cfi_def_cfa_offset 8
 466              		.cfi_offset 4, -8
 467              		.cfi_offset 14, -4
 468              		.loc 1 246 0
 469 0002 041C     		mov	r4, r0
 470              		.loc 1 248 0
 471              	@ 248 "../../test/testsem.c" 1
 472 0004 72B6     		cpsid   i
 473              	@ 0 "" 2
 474              		.code	16
 475 0006 FFF7FEFF 		bl	dbg_check_lock
 476              	.LVL39:
 477 000a A368     		ldr	r3, [r4, #8]
 478 000c 002B     		cmp	r3, #0
 479 000e 06DD     		ble	.L26
 480              	.L25:
 481              		.loc 1 248 0 is_stmt 0 discriminator 2
 482 0010 FFF7FEFF 		bl	chSchRescheduleS
 483              	.LVL40:
 484 0014 FFF7FEFF 		bl	dbg_check_unlock
 485              	.LVL41:
 486              	@ 248 "../../test/testsem.c" 1
 487 0018 62B6     		cpsie   i
 488              	@ 0 "" 2
 489              		.loc 1 250 0 is_stmt 1 discriminator 2
 490              		.code	16
 491 001a 0020     		mov	r0, #0
 492              		@ sp needed
 493              	.LVL42:
 494 001c 10BD     		pop	{r4, pc}
 495              	.LVL43:
 496              	.L26:
 497              		.loc 1 248 0 discriminator 1
 498 001e 201C     		mov	r0, r4
 499 0020 FFF7FEFF 		bl	chSemSignalI
 500              	.LVL44:
 501 0024 F4E7     		b	.L25
 502              		.cfi_endproc
 503              	.LFE16:
 504              		.size	thread4, .-thread4
 505 0026 C046C046 		.section	.text.sem4_execute,"ax",%progbits
 505      C046C046 
 505      C046
 506              		.align	2
 507              		.p2align 4,,15
ARM GAS  /var/folders/qh/xwg3v3kj02qbxczjpdb8lzfr0000gn/T//cckT6VqR.s 			page 10


 508              		.code	16
 509              		.thumb_func
 510              		.type	sem4_execute, %function
 511              	sem4_execute:
 512              	.LFB17:
 513              		.loc 1 252 0
 514              		.cfi_startproc
 515 0000 00B5     		push	{lr}
 516              		.cfi_def_cfa_offset 4
 517              		.cfi_offset 14, -4
 518 0002 87B0     		sub	sp, sp, #28
 519              		.cfi_def_cfa_offset 32
 520              		.loc 1 256 0
 521 0004 03A8     		add	r0, sp, #12
 522 0006 0021     		mov	r1, #0
 523 0008 FFF7FEFF 		bl	chSemInit
 524              	.LVL45:
 525              		.loc 1 257 0
 526 000c 03A8     		add	r0, sp, #12
 527 000e 0021     		mov	r1, #0
 528 0010 FFF7FEFF 		bl	chSemReset
 529              	.LVL46:
 530              		.loc 1 258 0
 531 0014 059B     		ldr	r3, [sp, #20]
 532 0016 0120     		mov	r0, #1
 533 0018 591E     		sub	r1, r3, #1
 534 001a 0B43     		orr	r3, r1
 535 001c D90F     		lsr	r1, r3, #31
 536 001e FFF7FEFF 		bl	_test_assert
 537              	.LVL47:
 538 0022 0028     		cmp	r0, #0
 539 0024 01D0     		beq	.L32
 540              	.L27:
 541              		.loc 1 280 0
 542 0026 07B0     		add	sp, sp, #28
 543              		@ sp needed
 544 0028 00BD     		pop	{pc}
 545              	.L32:
 546              		.loc 1 262 0
 547 002a 2F4B     		ldr	r3, .L35
 548              		.loc 1 261 0
 549 002c 9821     		mov	r1, #152
 550              		.loc 1 262 0
 551 002e 9B69     		ldr	r3, [r3, #24]
 552              		.loc 1 261 0
 553 0030 4900     		lsl	r1, r1, #1
 554 0032 9A68     		ldr	r2, [r3, #8]
 555 0034 03AB     		add	r3, sp, #12
 556 0036 0093     		str	r3, [sp]
 557 0038 2C4B     		ldr	r3, .L35+4
 558 003a 013A     		sub	r2, r2, #1
 559 003c 1868     		ldr	r0, [r3]
 560 003e 2C4B     		ldr	r3, .L35+8
 561 0040 FFF7FEFF 		bl	chThdCreateStatic
 562              	.LVL48:
 563 0044 2B4B     		ldr	r3, .L35+12
 564 0046 1860     		str	r0, [r3]
ARM GAS  /var/folders/qh/xwg3v3kj02qbxczjpdb8lzfr0000gn/T//cckT6VqR.s 			page 11


 565              		.loc 1 265 0
 566 0048 03A8     		add	r0, sp, #12
 567 004a FFF7FEFF 		bl	chSemWait
 568              	.LVL49:
 569              		.loc 1 268 0
 570 004e 059B     		ldr	r3, [sp, #20]
 571 0050 0220     		mov	r0, #2
 572 0052 591E     		sub	r1, r3, #1
 573 0054 0B43     		orr	r3, r1
 574 0056 D90F     		lsr	r1, r3, #31
 575 0058 FFF7FEFF 		bl	_test_assert
 576              	.LVL50:
 577 005c 0028     		cmp	r0, #0
 578 005e E2D1     		bne	.L27
 579              		.loc 1 272 0
 580              	@ 272 "../../test/testsem.c" 1
 581 0060 72B6     		cpsid   i
 582              	@ 0 "" 2
 583              		.code	16
 584 0062 FFF7FEFF 		bl	dbg_check_lock
 585              	.LVL51:
 586 0066 059B     		ldr	r3, [sp, #20]
 587 0068 002B     		cmp	r3, #0
 588 006a 34DD     		ble	.L33
 589              	.L29:
 590              		.loc 1 272 0 is_stmt 0 discriminator 2
 591 006c FFF7FEFF 		bl	chSchRescheduleS
 592              	.LVL52:
 593 0070 FFF7FEFF 		bl	dbg_check_unlock
 594              	.LVL53:
 595              	@ 272 "../../test/testsem.c" 1
 596 0074 62B6     		cpsie   i
 597              	@ 0 "" 2
 598              		.loc 1 273 0 is_stmt 1 discriminator 2
 599              		.code	16
 600 0076 059B     		ldr	r3, [sp, #20]
 601 0078 0320     		mov	r0, #3
 602 007a D917     		asr	r1, r3, #31
 603 007c CB1A     		sub	r3, r1, r3
 604 007e D90F     		lsr	r1, r3, #31
 605 0080 FFF7FEFF 		bl	_test_assert
 606              	.LVL54:
 607 0084 0028     		cmp	r0, #0
 608 0086 CED1     		bne	.L27
 609              		.loc 1 274 0
 610 0088 0599     		ldr	r1, [sp, #20]
 611 008a 0420     		mov	r0, #4
 612 008c 0139     		sub	r1, r1, #1
 613 008e 4B42     		neg	r3, r1
 614 0090 5941     		adc	r1, r1, r3
 615 0092 C9B2     		uxtb	r1, r1
 616 0094 FFF7FEFF 		bl	_test_assert
 617              	.LVL55:
 618 0098 0028     		cmp	r0, #0
 619 009a C4D1     		bne	.L27
 620              		.loc 1 277 0
 621              	@ 277 "../../test/testsem.c" 1
ARM GAS  /var/folders/qh/xwg3v3kj02qbxczjpdb8lzfr0000gn/T//cckT6VqR.s 			page 12


 622 009c 72B6     		cpsid   i
 623              	@ 0 "" 2
 624              		.code	16
 625 009e FFF7FEFF 		bl	dbg_check_lock
 626              	.LVL56:
 627 00a2 059B     		ldr	r3, [sp, #20]
 628 00a4 002B     		cmp	r3, #0
 629 00a6 1ADD     		ble	.L34
 630              	.L30:
 631              		.loc 1 277 0 is_stmt 0 discriminator 2
 632 00a8 FFF7FEFF 		bl	chSchRescheduleS
 633              	.LVL57:
 634 00ac FFF7FEFF 		bl	dbg_check_unlock
 635              	.LVL58:
 636              	@ 277 "../../test/testsem.c" 1
 637 00b0 62B6     		cpsie   i
 638              	@ 0 "" 2
 639              		.loc 1 278 0 is_stmt 1 discriminator 2
 640              		.code	16
 641 00b2 059B     		ldr	r3, [sp, #20]
 642 00b4 0320     		mov	r0, #3
 643 00b6 D917     		asr	r1, r3, #31
 644 00b8 CB1A     		sub	r3, r1, r3
 645 00ba D90F     		lsr	r1, r3, #31
 646 00bc FFF7FEFF 		bl	_test_assert
 647              	.LVL59:
 648 00c0 0028     		cmp	r0, #0
 649 00c2 B0D1     		bne	.L27
 650              		.loc 1 279 0
 651 00c4 0599     		ldr	r1, [sp, #20]
 652 00c6 0520     		mov	r0, #5
 653 00c8 0139     		sub	r1, r1, #1
 654 00ca 4B42     		neg	r3, r1
 655 00cc 5941     		adc	r1, r1, r3
 656 00ce C9B2     		uxtb	r1, r1
 657 00d0 FFF7FEFF 		bl	_test_assert
 658              	.LVL60:
 659 00d4 A7E7     		b	.L27
 660              	.L33:
 661              		.loc 1 272 0 discriminator 1
 662 00d6 03A8     		add	r0, sp, #12
 663 00d8 FFF7FEFF 		bl	chSemSignalI
 664              	.LVL61:
 665 00dc C6E7     		b	.L29
 666              	.L34:
 667              		.loc 1 277 0 discriminator 1
 668 00de 03A8     		add	r0, sp, #12
 669 00e0 FFF7FEFF 		bl	chSemSignalI
 670              	.LVL62:
 671 00e4 E0E7     		b	.L30
 672              	.L36:
 673 00e6 C046     		.align	2
 674              	.L35:
 675 00e8 00000000 		.word	rlist
 676 00ec 00000000 		.word	wa
 677 00f0 00000000 		.word	thread4
 678 00f4 00000000 		.word	threads
ARM GAS  /var/folders/qh/xwg3v3kj02qbxczjpdb8lzfr0000gn/T//cckT6VqR.s 			page 13


 679              		.cfi_endproc
 680              	.LFE17:
 681              		.size	sem4_execute, .-sem4_execute
 682 00f8 C046C046 		.section	.text.sem2_execute,"ax",%progbits
 682      C046C046 
 683              		.align	2
 684              		.p2align 4,,15
 685              		.code	16
 686              		.thumb_func
 687              		.type	sem2_execute, %function
 688              	sem2_execute:
 689              	.LFB12:
 690              		.loc 1 145 0
 691              		.cfi_startproc
 692 0000 70B5     		push	{r4, r5, r6, lr}
 693              		.cfi_def_cfa_offset 16
 694              		.cfi_offset 4, -16
 695              		.cfi_offset 5, -12
 696              		.cfi_offset 6, -8
 697              		.cfi_offset 14, -4
 698              		.loc 1 153 0
 699 0002 494C     		ldr	r4, .L44
 700              		.loc 1 145 0
 701 0004 82B0     		sub	sp, sp, #8
 702              		.cfi_def_cfa_offset 24
 703              		.loc 1 153 0
 704 0006 0021     		mov	r1, #0
 705 0008 201C     		mov	r0, r4
 706 000a FFF7FEFF 		bl	chSemWaitTimeout
 707              	.LVL63:
 708              		.loc 1 154 0
 709 000e 411C     		add	r1, r0, #1
 710 0010 4B42     		neg	r3, r1
 711 0012 5941     		adc	r1, r1, r3
 712 0014 C9B2     		uxtb	r1, r1
 713 0016 0120     		mov	r0, #1
 714              	.LVL64:
 715 0018 FFF7FEFF 		bl	_test_assert
 716              	.LVL65:
 717 001c 0028     		cmp	r0, #0
 718 001e 01D0     		beq	.L43
 719              	.L37:
 720              		.loc 1 183 0
 721 0020 02B0     		add	sp, sp, #8
 722              		@ sp needed
 723 0022 70BD     		pop	{r4, r5, r6, pc}
 724              	.L43:
 725              		.loc 1 155 0
 726 0024 2268     		ldr	r2, [r4]
 727 0026 0220     		mov	r0, #2
 728 0028 111B     		sub	r1, r2, r4
 729 002a 4B42     		neg	r3, r1
 730 002c 5941     		adc	r1, r1, r3
 731 002e C9B2     		uxtb	r1, r1
 732 0030 FFF7FEFF 		bl	_test_assert
 733              	.LVL66:
 734 0034 0028     		cmp	r0, #0
ARM GAS  /var/folders/qh/xwg3v3kj02qbxczjpdb8lzfr0000gn/T//cckT6VqR.s 			page 14


 735 0036 F3D1     		bne	.L37
 736              		.loc 1 156 0
 737 0038 A268     		ldr	r2, [r4, #8]
 738 003a 0320     		mov	r0, #3
 739 003c 5142     		neg	r1, r2
 740 003e 5141     		adc	r1, r1, r2
 741 0040 C9B2     		uxtb	r1, r1
 742 0042 FFF7FEFF 		bl	_test_assert
 743              	.LVL67:
 744 0046 0028     		cmp	r0, #0
 745 0048 EAD1     		bne	.L37
 746              	.LBB4:
 747              	.LBB5:
 748              		.loc 1 161 0
 749 004a 384B     		ldr	r3, .L44+4
 750 004c 9821     		mov	r1, #152
 751 004e 9B69     		ldr	r3, [r3, #24]
 752 0050 4900     		lsl	r1, r1, #1
 753 0052 9A68     		ldr	r2, [r3, #8]
 754 0054 364B     		ldr	r3, .L44+8
 755 0056 013A     		sub	r2, r2, #1
 756 0058 0090     		str	r0, [sp]
 757 005a 1868     		ldr	r0, [r3]
 758 005c 354B     		ldr	r3, .L44+12
 759 005e FFF7FEFF 		bl	chThdCreateStatic
 760              	.LVL68:
 761 0062 354B     		ldr	r3, .L44+16
 762              		.loc 1 163 0
 763 0064 FA21     		mov	r1, #250
 764              		.loc 1 161 0
 765 0066 1860     		str	r0, [r3]
 766              		.loc 1 163 0
 767 0068 4900     		lsl	r1, r1, #1
 768 006a 201C     		mov	r0, r4
 769 006c FFF7FEFF 		bl	chSemWaitTimeout
 770              	.LVL69:
 771 0070 051C     		mov	r5, r0
 772              	.LVL70:
 773              		.loc 1 164 0
 774 0072 FFF7FEFF 		bl	test_wait_threads
 775              	.LVL71:
 776              		.loc 1 165 0
 777 0076 6942     		neg	r1, r5
 778 0078 6941     		adc	r1, r1, r5
 779              	.LVL72:
 780 007a C9B2     		uxtb	r1, r1
 781 007c 0420     		mov	r0, #4
 782 007e FFF7FEFF 		bl	_test_assert
 783              	.LVL73:
 784 0082 0028     		cmp	r0, #0
 785 0084 CCD1     		bne	.L37
 786              		.loc 1 166 0
 787 0086 2368     		ldr	r3, [r4]
 788 0088 0520     		mov	r0, #5
 789 008a 191B     		sub	r1, r3, r4
 790 008c 4B42     		neg	r3, r1
 791 008e 5941     		adc	r1, r1, r3
ARM GAS  /var/folders/qh/xwg3v3kj02qbxczjpdb8lzfr0000gn/T//cckT6VqR.s 			page 15


 792 0090 C9B2     		uxtb	r1, r1
 793 0092 FFF7FEFF 		bl	_test_assert
 794              	.LVL74:
 795 0096 0028     		cmp	r0, #0
 796 0098 C2D1     		bne	.L37
 797              		.loc 1 167 0
 798 009a A268     		ldr	r2, [r4, #8]
 799 009c 0620     		mov	r0, #6
 800 009e 5142     		neg	r1, r2
 801 00a0 5141     		adc	r1, r1, r2
 802 00a2 C9B2     		uxtb	r1, r1
 803 00a4 FFF7FEFF 		bl	_test_assert
 804              	.LVL75:
 805 00a8 0028     		cmp	r0, #0
 806 00aa B9D1     		bne	.L37
 807              		.loc 1 172 0
 808 00ac FFF7FEFF 		bl	test_wait_tick
 809              	.LVL76:
 810              		.loc 1 173 0
 811 00b0 224B     		ldr	r3, .L44+20
 812 00b2 4125     		mov	r5, #65
 813 00b4 DE68     		ldr	r6, [r3, #12]
 814              	.LVL77:
 815              	.L42:
 816              		.loc 1 175 0
 817 00b6 281C     		mov	r0, r5
 818 00b8 FFF7FEFF 		bl	test_emit_token
 819              	.LVL78:
 820              		.loc 1 176 0
 821 00bc FA21     		mov	r1, #250
 822 00be 4900     		lsl	r1, r1, #1
 823 00c0 201C     		mov	r0, r4
 824 00c2 FFF7FEFF 		bl	chSemWaitTimeout
 825              	.LVL79:
 826              		.loc 1 177 0
 827 00c6 411C     		add	r1, r0, #1
 828 00c8 4B42     		neg	r3, r1
 829 00ca 5941     		adc	r1, r1, r3
 830 00cc C9B2     		uxtb	r1, r1
 831 00ce 0720     		mov	r0, #7
 832              	.LVL80:
 833 00d0 FFF7FEFF 		bl	_test_assert
 834              	.LVL81:
 835 00d4 0028     		cmp	r0, #0
 836 00d6 A3D1     		bne	.L37
 837              		.loc 1 178 0
 838 00d8 2368     		ldr	r3, [r4]
 839 00da 0820     		mov	r0, #8
 840 00dc 191B     		sub	r1, r3, r4
 841 00de 4B42     		neg	r3, r1
 842 00e0 5941     		adc	r1, r1, r3
 843 00e2 C9B2     		uxtb	r1, r1
 844 00e4 FFF7FEFF 		bl	_test_assert
 845              	.LVL82:
 846 00e8 0028     		cmp	r0, #0
 847 00ea 99D1     		bne	.L37
 848              		.loc 1 179 0
ARM GAS  /var/folders/qh/xwg3v3kj02qbxczjpdb8lzfr0000gn/T//cckT6VqR.s 			page 16


 849 00ec A268     		ldr	r2, [r4, #8]
 850 00ee 0920     		mov	r0, #9
 851 00f0 5142     		neg	r1, r2
 852 00f2 5141     		adc	r1, r1, r2
 853 00f4 C9B2     		uxtb	r1, r1
 854 00f6 FFF7FEFF 		bl	_test_assert
 855              	.LVL83:
 856 00fa 0028     		cmp	r0, #0
 857 00fc 00D0     		beq	.LCB702
 858 00fe 8FE7     		b	.L37	@long jump
 859              	.LCB702:
 860 0100 0135     		add	r5, r5, #1
 861 0102 EDB2     		uxtb	r5, r5
 862              		.loc 1 174 0
 863 0104 462D     		cmp	r5, #70
 864 0106 D6D1     		bne	.L42
 865              		.loc 1 181 0
 866 0108 0A20     		mov	r0, #10
 867 010a 0D49     		ldr	r1, .L44+24
 868 010c FFF7FEFF 		bl	_test_assert_sequence
 869              	.LVL84:
 870 0110 0028     		cmp	r0, #0
 871 0112 00D0     		beq	.LCB713
 872 0114 84E7     		b	.L37	@long jump
 873              	.LCB713:
 874              		.loc 1 173 0
 875 0116 0B4B     		ldr	r3, .L44+28
 876              		.loc 1 182 0
 877 0118 0B20     		mov	r0, #11
 878              		.loc 1 173 0
 879 011a F118     		add	r1, r6, r3
 880              		.loc 1 182 0
 881 011c 0A4B     		ldr	r3, .L44+32
 882 011e F218     		add	r2, r6, r3
 883 0120 FFF7FEFF 		bl	_test_assert_time_window
 884              	.LVL85:
 885 0124 7CE7     		b	.L37
 886              	.L45:
 887 0126 C046     		.align	2
 888              	.L44:
 889 0128 00000000 		.word	.LANCHOR0
 890 012c 00000000 		.word	rlist
 891 0130 00000000 		.word	wa
 892 0134 00000000 		.word	thread2
 893 0138 00000000 		.word	threads
 894 013c 00000000 		.word	vtlist
 895 0140 14000000 		.word	.LC15
 896 0144 C4090000 		.word	2500
 897 0148 C9090000 		.word	2505
 898              	.LBE5:
 899              	.LBE4:
 900              		.cfi_endproc
 901              	.LFE12:
 902              		.size	sem2_execute, .-sem2_execute
 903 014c C046C046 		.section	.text.sem3_execute,"ax",%progbits
 904              		.align	2
 905              		.p2align 4,,15
ARM GAS  /var/folders/qh/xwg3v3kj02qbxczjpdb8lzfr0000gn/T//cckT6VqR.s 			page 17


 906              		.code	16
 907              		.thumb_func
 908              		.type	sem3_execute, %function
 909              	sem3_execute:
 910              	.LFB15:
 911              		.loc 1 218 0
 912              		.cfi_startproc
 913 0000 10B5     		push	{r4, lr}
 914              		.cfi_def_cfa_offset 8
 915              		.cfi_offset 4, -8
 916              		.cfi_offset 14, -4
 917              		.loc 1 220 0
 918 0002 204B     		ldr	r3, .L51
 919              		.loc 1 218 0
 920 0004 82B0     		sub	sp, sp, #8
 921              		.cfi_def_cfa_offset 16
 922              		.loc 1 220 0
 923 0006 9B69     		ldr	r3, [r3, #24]
 924 0008 9821     		mov	r1, #152
 925 000a 9A68     		ldr	r2, [r3, #8]
 926 000c 0023     		mov	r3, #0
 927 000e 0093     		str	r3, [sp]
 928 0010 1D4B     		ldr	r3, .L51+4
 929 0012 0132     		add	r2, r2, #1
 930 0014 1868     		ldr	r0, [r3]
 931 0016 4900     		lsl	r1, r1, #1
 932 0018 1C4B     		ldr	r3, .L51+8
 933 001a FFF7FEFF 		bl	chThdCreateStatic
 934              	.LVL86:
 935              		.loc 1 221 0
 936 001e 1C4C     		ldr	r4, .L51+12
 937              		.loc 1 220 0
 938 0020 1C4B     		ldr	r3, .L51+16
 939              		.loc 1 221 0
 940 0022 211C     		mov	r1, r4
 941              		.loc 1 220 0
 942 0024 1860     		str	r0, [r3]
 943              		.loc 1 221 0
 944 0026 201C     		mov	r0, r4
 945 0028 FFF7FEFF 		bl	chSemSignalWait
 946              	.LVL87:
 947              		.loc 1 222 0
 948 002c 2268     		ldr	r2, [r4]
 949 002e 0120     		mov	r0, #1
 950 0030 111B     		sub	r1, r2, r4
 951 0032 4B42     		neg	r3, r1
 952 0034 5941     		adc	r1, r1, r3
 953 0036 C9B2     		uxtb	r1, r1
 954 0038 FFF7FEFF 		bl	_test_assert
 955              	.LVL88:
 956 003c 0028     		cmp	r0, #0
 957 003e 01D0     		beq	.L50
 958              	.L46:
 959              		.loc 1 228 0
 960 0040 02B0     		add	sp, sp, #8
 961              		@ sp needed
 962 0042 10BD     		pop	{r4, pc}
ARM GAS  /var/folders/qh/xwg3v3kj02qbxczjpdb8lzfr0000gn/T//cckT6VqR.s 			page 18


 963              	.L50:
 964              		.loc 1 223 0
 965 0044 A268     		ldr	r2, [r4, #8]
 966 0046 0220     		mov	r0, #2
 967 0048 5142     		neg	r1, r2
 968 004a 5141     		adc	r1, r1, r2
 969 004c C9B2     		uxtb	r1, r1
 970 004e FFF7FEFF 		bl	_test_assert
 971              	.LVL89:
 972 0052 0028     		cmp	r0, #0
 973 0054 F4D1     		bne	.L46
 974              	.LBB8:
 975              	.LBB9:
 976              		.loc 1 225 0
 977 0056 211C     		mov	r1, r4
 978 0058 201C     		mov	r0, r4
 979 005a FFF7FEFF 		bl	chSemSignalWait
 980              	.LVL90:
 981              		.loc 1 226 0
 982 005e 2368     		ldr	r3, [r4]
 983 0060 0320     		mov	r0, #3
 984 0062 191B     		sub	r1, r3, r4
 985 0064 4B42     		neg	r3, r1
 986 0066 5941     		adc	r1, r1, r3
 987 0068 C9B2     		uxtb	r1, r1
 988 006a FFF7FEFF 		bl	_test_assert
 989              	.LVL91:
 990 006e 0028     		cmp	r0, #0
 991 0070 E6D1     		bne	.L46
 992              		.loc 1 227 0
 993 0072 A168     		ldr	r1, [r4, #8]
 994 0074 0420     		mov	r0, #4
 995 0076 4B42     		neg	r3, r1
 996 0078 5941     		adc	r1, r1, r3
 997 007a C9B2     		uxtb	r1, r1
 998 007c FFF7FEFF 		bl	_test_assert
 999              	.LVL92:
 1000 0080 DEE7     		b	.L46
 1001              	.L52:
 1002 0082 C046     		.align	2
 1003              	.L51:
 1004 0084 00000000 		.word	rlist
 1005 0088 00000000 		.word	wa
 1006 008c 00000000 		.word	thread3
 1007 0090 00000000 		.word	.LANCHOR0
 1008 0094 00000000 		.word	threads
 1009              	.LBE9:
 1010              	.LBE8:
 1011              		.cfi_endproc
 1012              	.LFE15:
 1013              		.size	sem3_execute, .-sem3_execute
 1014              		.global	patternsem
 1015              		.global	testsem4
 1016              		.global	testsem3
 1017              		.global	testsem2
 1018              		.global	testsem1
 1019 0098 C046C046 		.section	.rodata.testsem1,"a",%progbits
ARM GAS  /var/folders/qh/xwg3v3kj02qbxczjpdb8lzfr0000gn/T//cckT6VqR.s 			page 19


 1019      C046C046 
 1020              		.align	2
 1021              		.type	testsem1, %object
 1022              		.size	testsem1, 16
 1023              	testsem1:
 1024 0000 74000000 		.word	.LC42
 1025 0004 00000000 		.word	sem1_setup
 1026 0008 00000000 		.word	0
 1027 000c 00000000 		.word	sem1_execute
 1028              		.section	.rodata.testsem2,"a",%progbits
 1029              		.align	2
 1030              		.type	testsem2, %object
 1031              		.size	testsem2, 16
 1032              	testsem2:
 1033 0000 60000000 		.word	.LC41
 1034 0004 00000000 		.word	sem2_setup
 1035 0008 00000000 		.word	0
 1036 000c 00000000 		.word	sem2_execute
 1037              		.section	.rodata.testsem3,"a",%progbits
 1038              		.align	2
 1039              		.type	testsem3, %object
 1040              		.size	testsem3, 16
 1041              	testsem3:
 1042 0000 40000000 		.word	.LC40
 1043 0004 00000000 		.word	sem3_setup
 1044 0008 00000000 		.word	0
 1045 000c 00000000 		.word	sem3_execute
 1046              		.section	.rodata.testsem4,"a",%progbits
 1047              		.align	2
 1048              		.type	testsem4, %object
 1049              		.size	testsem4, 16
 1050              	testsem4:
 1051 0000 1C000000 		.word	.LC39
 1052 0004 00000000 		.word	0
 1053 0008 00000000 		.word	0
 1054 000c 00000000 		.word	sem4_execute
 1055              		.section	.data.sem1,"aw",%progbits
 1056              		.align	2
 1057              		.set	.LANCHOR0,. + 0
 1058              		.type	sem1, %object
 1059              		.size	sem1, 12
 1060              	sem1:
 1061 0000 00000000 		.word	sem1
 1062 0004 00000000 		.word	sem1
 1063 0008 00000000 		.word	0
 1064              		.section	.rodata.patternsem,"a",%progbits
 1065              		.align	2
 1066              		.type	patternsem, %object
 1067              		.size	patternsem, 20
 1068              	patternsem:
 1069 0000 00000000 		.word	testsem1
 1070 0004 00000000 		.word	testsem2
 1071 0008 00000000 		.word	testsem3
 1072 000c 00000000 		.word	testsem4
 1073 0010 00000000 		.word	0
 1074              		.section	.rodata.str1.4,"aMS",%progbits,1
 1075              		.align	2
ARM GAS  /var/folders/qh/xwg3v3kj02qbxczjpdb8lzfr0000gn/T//cckT6VqR.s 			page 20


 1076              	.LC3:
 1077 0000 4100     		.ascii	"A\000"
 1078 0002 0000     		.space	2
 1079              	.LC6:
 1080 0004 4200     		.ascii	"B\000"
 1081 0006 0000     		.space	2
 1082              	.LC8:
 1083 0008 4300     		.ascii	"C\000"
 1084 000a 0000     		.space	2
 1085              	.LC10:
 1086 000c 4400     		.ascii	"D\000"
 1087 000e 0000     		.space	2
 1088              	.LC12:
 1089 0010 4500     		.ascii	"E\000"
 1090 0012 0000     		.space	2
 1091              	.LC15:
 1092 0014 41424344 		.ascii	"ABCDE\000"
 1092      4500
 1093 001a 0000     		.space	2
 1094              	.LC39:
 1095 001c 42696E61 		.ascii	"Binary Semaphores, functionality\000"
 1095      72792053 
 1095      656D6170 
 1095      686F7265 
 1095      732C2066 
 1096 003d 000000   		.space	3
 1097              	.LC40:
 1098 0040 53656D61 		.ascii	"Semaphores, atomic signal-wait\000"
 1098      70686F72 
 1098      65732C20 
 1098      61746F6D 
 1098      69632073 
 1099 005f 00       		.space	1
 1100              	.LC41:
 1101 0060 53656D61 		.ascii	"Semaphores, timeout\000"
 1101      70686F72 
 1101      65732C20 
 1101      74696D65 
 1101      6F757400 
 1102              	.LC42:
 1103 0074 53656D61 		.ascii	"Semaphores, enqueuing\000"
 1103      70686F72 
 1103      65732C20 
 1103      656E7175 
 1103      6575696E 
 1104 008a 0000     		.text
 1105              	.Letext0:
 1106              		.file 2 "/usr/local/Cellar/gcc-arm-none-eabi-48/20131218/lib/gcc/arm-none-eabi/4.8.3/include/stdde
 1107              		.file 3 "/usr/local/Cellar/gcc-arm-none-eabi-48/20131218/arm-none-eabi/include/stdint.h"
 1108              		.file 4 "../../os/ports/GCC/ARMCMx/chtypes.h"
 1109              		.file 5 "../../os/kernel/include/chlists.h"
 1110              		.file 6 "../../os/kernel/include/chthreads.h"
 1111              		.file 7 "../../os/ports/GCC/ARMCMx/chcore_v6m.h"
 1112              		.file 8 "../../os/kernel/include/chvt.h"
 1113              		.file 9 "../../os/kernel/include/chschd.h"
 1114              		.file 10 "../../os/kernel/include/chsem.h"
 1115              		.file 11 "../../os/kernel/include/chbsem.h"
ARM GAS  /var/folders/qh/xwg3v3kj02qbxczjpdb8lzfr0000gn/T//cckT6VqR.s 			page 21


 1116              		.file 12 "../../os/kernel/include/chmtx.h"
 1117              		.file 13 "../../test/test.h"
 1118              		.file 14 "../../os/kernel/include/chdebug.h"